ARM GAS  /tmp/ccqhiTbD.s 			page 1


   1              		.cpu cortex-m4
   2              		.eabi_attribute 27, 1
   3              		.eabi_attribute 28, 1
   4              		.eabi_attribute 20, 1
   5              		.eabi_attribute 21, 1
   6              		.eabi_attribute 23, 3
   7              		.eabi_attribute 24, 1
   8              		.eabi_attribute 25, 1
   9              		.eabi_attribute 26, 1
  10              		.eabi_attribute 30, 2
  11              		.eabi_attribute 34, 1
  12              		.eabi_attribute 18, 4
  13              		.file	"testmtx.c"
  14              		.text
  15              	.Ltext0:
  16              		.cfi_sections	.debug_frame
  17              		.section	.rodata.mtx1_execute.str1.4,"aMS",%progbits,1
  18              		.align	2
  19              	.LC0:
  20 0000 4500     		.ascii	"E\000"
  21 0002 0000     		.align	2
  22              	.LC1:
  23 0004 4400     		.ascii	"D\000"
  24 0006 0000     		.align	2
  25              	.LC2:
  26 0008 4300     		.ascii	"C\000"
  27 000a 0000     		.align	2
  28              	.LC3:
  29 000c 4200     		.ascii	"B\000"
  30 000e 0000     		.align	2
  31              	.LC4:
  32 0010 4100     		.ascii	"A\000"
  33 0012 0000     		.align	2
  34              	.LC5:
  35 0014 41424344 		.ascii	"ABCDE\000"
  35      4500
  36              		.section	.rodata.mtx1_execute.cst4,"aM",%progbits,4
  37              		.align	2
  38              	.LC6:
  39 0000 00000000 		.word	__stack_chk_guard
  40              		.section	.text.mtx1_execute,"ax",%progbits
  41              		.align	1
  42              		.p2align 4,,15
  43              		.arch armv7e-m
  44              		.syntax unified
  45              		.thumb
  46              		.thumb_func
  47              		.fpu fpv4-sp-d16
  48              		.type	mtx1_execute, %function
  49              	mtx1_execute:
  50              	.LFB221:
  51              		.file 1 ".//ChibiOS//test/rt/testmtx.c"
  52              		.loc 1 96 32 view -0
  53              		.cfi_startproc
  54              		@ args = 0, pretend = 0, frame = 8
  55              		@ frame_needed = 0, uses_anonymous_args = 0
  56 0000 F0B5     		push	{r4, r5, r6, r7, lr}
ARM GAS  /tmp/ccqhiTbD.s 			page 2


  57              		.cfi_def_cfa_offset 20
  58              		.cfi_offset 4, -20
  59              		.cfi_offset 5, -16
  60              		.cfi_offset 6, -12
  61              		.cfi_offset 7, -8
  62              		.cfi_offset 14, -4
  63              	.LBB167:
  64              	.LBB168:
  65              	.LBB169:
  66              	.LBB170:
  67              		.file 2 ".//ChibiOS//os/rt/include/chthreads.h"
  68              		.loc 2 176 18 is_stmt 0 view .LVU1
  69 0002 344F     		ldr	r7, .L9
  70              	.LBE170:
  71              	.LBE169:
  72              	.LBE168:
  73              	.LBE167:
  74              		.loc 1 100 16 view .LVU2
  75 0004 344E     		ldr	r6, .L9+4
  76              	.LBB176:
  77              	.LBB173:
  78              		.loc 2 189 25 view .LVU3
  79 0006 BB69     		ldr	r3, [r7, #24]
  80              	.LBE173:
  81              	.LBE176:
  82              		.loc 1 99 3 view .LVU4
  83 0008 3448     		ldr	r0, .L9+8
  84              	.LBB177:
  85              	.LBB174:
  86              		.loc 2 189 25 view .LVU5
  87 000a 9C68     		ldr	r4, [r3, #8]
  88              	.LBE174:
  89              	.LBE177:
  90              		.loc 1 96 32 view .LVU6
  91 000c 344B     		ldr	r3, .L9+12
  92              		.loc 1 100 14 view .LVU7
  93 000e 354D     		ldr	r5, .L9+16
  94              		.loc 1 96 32 view .LVU8
  95 0010 85B0     		sub	sp, sp, #20
  96              		.cfi_def_cfa_offset 40
  97              		.loc 1 96 32 view .LVU9
  98 0012 1B68     		ldr	r3, [r3]
  99 0014 0393     		str	r3, [sp, #12]
 100 0016 4FF00003 		mov	r3,#0
 101              		.loc 1 98 3 is_stmt 1 view .LVU10
 102              	.LBB178:
 103              	.LBI167:
 104              		.loc 2 187 23 view .LVU11
 105              	.LBB175:
 106              		.loc 2 189 3 view .LVU12
 107              	.LBB172:
 108              	.LBI169:
 109              		.loc 2 174 25 view .LVU13
 110              	.LBB171:
 111              		.loc 2 176 3 view .LVU14
 112              	.LVL0:
 113              		.loc 2 176 3 is_stmt 0 view .LVU15
ARM GAS  /tmp/ccqhiTbD.s 			page 3


 114              	.LBE171:
 115              	.LBE172:
 116              	.LBE175:
 117              	.LBE178:
 118              		.loc 1 99 3 is_stmt 1 view .LVU16
 119 001a FFF7FEFF 		bl	chMtxLock
 120              	.LVL1:
 121              		.loc 1 100 3 view .LVU17
 122              		.loc 1 100 16 is_stmt 0 view .LVU18
 123 001e 324B     		ldr	r3, .L9+20
 124 0020 0093     		str	r3, [sp]
 125 0022 621C     		adds	r2, r4, #1
 126 0024 314B     		ldr	r3, .L9+24
 127 0026 3068     		ldr	r0, [r6]
 128 0028 4FF4FC71 		mov	r1, #504
 129 002c FFF7FEFF 		bl	chThdCreateStatic
 130              	.LVL2:
 131              		.loc 1 101 16 view .LVU19
 132 0030 2F4B     		ldr	r3, .L9+28
 133 0032 0093     		str	r3, [sp]
 134              		.loc 1 100 16 view .LVU20
 135 0034 0146     		mov	r1, r0
 136              		.loc 1 101 16 view .LVU21
 137 0036 2D4B     		ldr	r3, .L9+24
 138              		.loc 1 100 14 view .LVU22
 139 0038 2960     		str	r1, [r5]
 140              		.loc 1 101 3 is_stmt 1 view .LVU23
 141              		.loc 1 101 16 is_stmt 0 view .LVU24
 142 003a A21C     		adds	r2, r4, #2
 143 003c 4FF4FC71 		mov	r1, #504
 144 0040 7068     		ldr	r0, [r6, #4]
 145 0042 FFF7FEFF 		bl	chThdCreateStatic
 146              	.LVL3:
 147              		.loc 1 102 16 view .LVU25
 148 0046 2B4B     		ldr	r3, .L9+32
 149 0048 0093     		str	r3, [sp]
 150              		.loc 1 101 16 view .LVU26
 151 004a 0146     		mov	r1, r0
 152              		.loc 1 102 16 view .LVU27
 153 004c 274B     		ldr	r3, .L9+24
 154              		.loc 1 101 14 view .LVU28
 155 004e 6960     		str	r1, [r5, #4]
 156              		.loc 1 102 3 is_stmt 1 view .LVU29
 157              		.loc 1 102 16 is_stmt 0 view .LVU30
 158 0050 E21C     		adds	r2, r4, #3
 159 0052 4FF4FC71 		mov	r1, #504
 160 0056 B068     		ldr	r0, [r6, #8]
 161 0058 FFF7FEFF 		bl	chThdCreateStatic
 162              	.LVL4:
 163              		.loc 1 103 16 view .LVU31
 164 005c 264B     		ldr	r3, .L9+36
 165 005e 0093     		str	r3, [sp]
 166              		.loc 1 102 16 view .LVU32
 167 0060 0146     		mov	r1, r0
 168              		.loc 1 103 16 view .LVU33
 169 0062 224B     		ldr	r3, .L9+24
 170              		.loc 1 102 14 view .LVU34
ARM GAS  /tmp/ccqhiTbD.s 			page 4


 171 0064 A960     		str	r1, [r5, #8]
 172              		.loc 1 103 3 is_stmt 1 view .LVU35
 173              		.loc 1 103 16 is_stmt 0 view .LVU36
 174 0066 221D     		adds	r2, r4, #4
 175 0068 4FF4FC71 		mov	r1, #504
 176 006c F068     		ldr	r0, [r6, #12]
 177 006e FFF7FEFF 		bl	chThdCreateStatic
 178              	.LVL5:
 179              		.loc 1 104 16 view .LVU37
 180 0072 224B     		ldr	r3, .L9+40
 181 0074 0093     		str	r3, [sp]
 182              		.loc 1 103 16 view .LVU38
 183 0076 0146     		mov	r1, r0
 184              		.loc 1 104 16 view .LVU39
 185 0078 621D     		adds	r2, r4, #5
 186 007a 1C4B     		ldr	r3, .L9+24
 187              		.loc 1 103 14 view .LVU40
 188 007c E960     		str	r1, [r5, #12]
 189              		.loc 1 104 3 is_stmt 1 view .LVU41
 190              		.loc 1 104 16 is_stmt 0 view .LVU42
 191 007e 3069     		ldr	r0, [r6, #16]
 192 0080 4FF4FC71 		mov	r1, #504
 193 0084 FFF7FEFF 		bl	chThdCreateStatic
 194              	.LVL6:
 195 0088 0346     		mov	r3, r0
 196              		.loc 1 105 3 view .LVU43
 197 008a 1448     		ldr	r0, .L9+8
 198              		.loc 1 104 14 view .LVU44
 199 008c 2B61     		str	r3, [r5, #16]
 200              		.loc 1 105 3 is_stmt 1 view .LVU45
 201 008e FFF7FEFF 		bl	chMtxUnlock
 202              	.LVL7:
 203              		.loc 1 106 3 view .LVU46
 204 0092 FFF7FEFF 		bl	test_wait_threads
 205              	.LVL8:
 206              		.loc 1 107 3 view .LVU47
 207              	.LBB179:
 208              	.LBI179:
 209              		.loc 2 187 23 view .LVU48
 210              	.LBB180:
 211              		.loc 2 189 3 view .LVU49
 212              	.LBB181:
 213              	.LBI181:
 214              		.loc 2 174 25 view .LVU50
 215              	.LBB182:
 216              		.loc 2 176 3 view .LVU51
 217              	.LBE182:
 218              	.LBE181:
 219              		.loc 2 189 25 is_stmt 0 view .LVU52
 220 0096 BB69     		ldr	r3, [r7, #24]
 221              	.LBE180:
 222              	.LBE179:
 223              		.loc 1 107 3 view .LVU53
 224 0098 9968     		ldr	r1, [r3, #8]
 225 009a 091B     		subs	r1, r1, r4
 226 009c B1FA81F1 		clz	r1, r1
 227 00a0 0120     		movs	r0, #1
ARM GAS  /tmp/ccqhiTbD.s 			page 5


 228 00a2 4909     		lsrs	r1, r1, #5
 229 00a4 FFF7FEFF 		bl	_test_assert
 230              	.LVL9:
 231              		.loc 1 109 1 view .LVU54
 232 00a8 0D4B     		ldr	r3, .L9+12
 233              		.loc 1 107 3 view .LVU55
 234 00aa 28B1     		cbz	r0, .L8
 235              		.loc 1 109 1 view .LVU56
 236 00ac 1A68     		ldr	r2, [r3]
 237 00ae 039B     		ldr	r3, [sp, #12]
 238 00b0 5A40     		eors	r2, r3, r2
 239 00b2 0CD1     		bne	.L6
 240 00b4 05B0     		add	sp, sp, #20
 241              		.cfi_remember_state
 242              		.cfi_def_cfa_offset 20
 243              		@ sp needed
 244 00b6 F0BD     		pop	{r4, r5, r6, r7, pc}
 245              	.LVL10:
 246              	.L8:
 247              		.cfi_restore_state
 248              		.loc 1 107 70 is_stmt 1 discriminator 2 view .LVU57
 249              		.loc 1 108 3 discriminator 2 view .LVU58
 250 00b8 1A68     		ldr	r2, [r3]
 251 00ba 039B     		ldr	r3, [sp, #12]
 252 00bc 5A40     		eors	r2, r3, r2
 253 00be 06D1     		bne	.L6
 254 00c0 0F49     		ldr	r1, .L9+44
 255 00c2 0220     		movs	r0, #2
 256              		.loc 1 109 1 is_stmt 0 discriminator 2 view .LVU59
 257 00c4 05B0     		add	sp, sp, #20
 258              		.cfi_remember_state
 259              		.cfi_def_cfa_offset 20
 260              		@ sp needed
 261 00c6 BDE8F040 		pop	{r4, r5, r6, r7, lr}
 262              		.cfi_restore 14
 263              		.cfi_restore 7
 264              		.cfi_restore 6
 265              		.cfi_restore 5
 266              		.cfi_restore 4
 267              		.cfi_def_cfa_offset 0
 268              	.LVL11:
 269              		.loc 1 108 3 discriminator 2 view .LVU60
 270 00ca FFF7FEBF 		b	_test_assert_sequence
 271              	.LVL12:
 272              	.L6:
 273              		.cfi_restore_state
 274              		.loc 1 109 1 view .LVU61
 275 00ce FFF7FEFF 		bl	__stack_chk_fail
 276              	.LVL13:
 277              	.L10:
 278 00d2 00BF     		.align	2
 279              	.L9:
 280 00d4 00000000 		.word	ch
 281 00d8 00000000 		.word	wa
 282 00dc 00000000 		.word	.LANCHOR0
 283 00e0 00000000 		.word	.LC6
 284 00e4 00000000 		.word	threads
ARM GAS  /tmp/ccqhiTbD.s 			page 6


 285 00e8 00000000 		.word	.LC0
 286 00ec 00000000 		.word	thread1
 287 00f0 04000000 		.word	.LC1
 288 00f4 08000000 		.word	.LC2
 289 00f8 0C000000 		.word	.LC3
 290 00fc 10000000 		.word	.LC4
 291 0100 14000000 		.word	.LC5
 292              		.cfi_endproc
 293              	.LFE221:
 294              		.size	mtx1_execute, .-mtx1_execute
 295              		.section	.rodata.thread1.cst4,"aM",%progbits,4
 296              		.align	2
 297              	.LC7:
 298 0000 00000000 		.word	__stack_chk_guard
 299              		.section	.text.thread1,"ax",%progbits
 300              		.align	1
 301              		.p2align 4,,15
 302              		.syntax unified
 303              		.thumb
 304              		.thumb_func
 305              		.fpu fpv4-sp-d16
 306              		.type	thread1, %function
 307              	thread1:
 308              	.LVL14:
 309              	.LFB220:
 310              		.loc 1 89 33 is_stmt 1 view -0
 311              		.cfi_startproc
 312              		@ args = 0, pretend = 0, frame = 8
 313              		@ frame_needed = 0, uses_anonymous_args = 0
 314              		.loc 1 89 33 is_stmt 0 view .LVU63
 315 0000 10B5     		push	{r4, lr}
 316              		.cfi_def_cfa_offset 8
 317              		.cfi_offset 4, -8
 318              		.cfi_offset 14, -4
 319 0002 0D4B     		ldr	r3, .L16
 320 0004 0446     		mov	r4, r0
 321 0006 82B0     		sub	sp, sp, #8
 322              		.cfi_def_cfa_offset 16
 323              		.loc 1 91 3 view .LVU64
 324 0008 0C48     		ldr	r0, .L16+4
 325              	.LVL15:
 326              		.loc 1 89 33 view .LVU65
 327 000a 1B68     		ldr	r3, [r3]
 328 000c 0193     		str	r3, [sp, #4]
 329 000e 4FF00003 		mov	r3,#0
 330              		.loc 1 91 3 is_stmt 1 view .LVU66
 331 0012 FFF7FEFF 		bl	chMtxLock
 332              	.LVL16:
 333              		.loc 1 92 3 view .LVU67
 334 0016 2078     		ldrb	r0, [r4]	@ zero_extendqisi2
 335 0018 FFF7FEFF 		bl	test_emit_token
 336              	.LVL17:
 337              		.loc 1 93 3 view .LVU68
 338 001c 064B     		ldr	r3, .L16
 339 001e 1A68     		ldr	r2, [r3]
 340 0020 019B     		ldr	r3, [sp, #4]
 341 0022 5A40     		eors	r2, r3, r2
ARM GAS  /tmp/ccqhiTbD.s 			page 7


 342 0024 05D1     		bne	.L15
 343 0026 0548     		ldr	r0, .L16+4
 344              		.loc 1 94 1 is_stmt 0 view .LVU69
 345 0028 02B0     		add	sp, sp, #8
 346              		.cfi_remember_state
 347              		.cfi_def_cfa_offset 8
 348              		@ sp needed
 349 002a BDE81040 		pop	{r4, lr}
 350              		.cfi_restore 14
 351              		.cfi_restore 4
 352              		.cfi_def_cfa_offset 0
 353              	.LVL18:
 354              		.loc 1 93 3 view .LVU70
 355 002e FFF7FEBF 		b	chMtxUnlock
 356              	.LVL19:
 357              	.L15:
 358              		.cfi_restore_state
 359              		.loc 1 93 3 view .LVU71
 360 0032 FFF7FEFF 		bl	__stack_chk_fail
 361              	.LVL20:
 362              	.L17:
 363 0036 00BF     		.align	2
 364              	.L16:
 365 0038 00000000 		.word	.LC7
 366 003c 00000000 		.word	.LANCHOR0
 367              		.cfi_endproc
 368              	.LFE220:
 369              		.size	thread1, .-thread1
 370              		.section	.rodata.thread12.cst4,"aM",%progbits,4
 371              		.align	2
 372              	.LC8:
 373 0000 00000000 		.word	__stack_chk_guard
 374              		.section	.text.thread12,"ax",%progbits
 375              		.align	1
 376              		.p2align 4,,15
 377              		.syntax unified
 378              		.thumb
 379              		.thumb_func
 380              		.fpu fpv4-sp-d16
 381              		.type	thread12, %function
 382              	thread12:
 383              	.LVL21:
 384              	.LFB247:
 385              		.loc 1 576 34 is_stmt 1 view -0
 386              		.cfi_startproc
 387              		@ args = 0, pretend = 0, frame = 8
 388              		@ frame_needed = 0, uses_anonymous_args = 0
 389              		.loc 1 576 34 is_stmt 0 view .LVU73
 390 0000 10B5     		push	{r4, lr}
 391              		.cfi_def_cfa_offset 8
 392              		.cfi_offset 4, -8
 393              		.cfi_offset 14, -4
 394 0002 0D4B     		ldr	r3, .L23
 395 0004 0446     		mov	r4, r0
 396 0006 82B0     		sub	sp, sp, #8
 397              		.cfi_def_cfa_offset 16
 398              		.loc 1 578 3 view .LVU74
ARM GAS  /tmp/ccqhiTbD.s 			page 8


 399 0008 0C48     		ldr	r0, .L23+4
 400              	.LVL22:
 401              		.loc 1 576 34 view .LVU75
 402 000a 1B68     		ldr	r3, [r3]
 403 000c 0193     		str	r3, [sp, #4]
 404 000e 4FF00003 		mov	r3,#0
 405              		.loc 1 578 3 is_stmt 1 view .LVU76
 406 0012 FFF7FEFF 		bl	chMtxLock
 407              	.LVL23:
 408              		.loc 1 579 3 view .LVU77
 409 0016 2078     		ldrb	r0, [r4]	@ zero_extendqisi2
 410 0018 FFF7FEFF 		bl	test_emit_token
 411              	.LVL24:
 412              		.loc 1 580 3 view .LVU78
 413 001c 064B     		ldr	r3, .L23
 414 001e 1A68     		ldr	r2, [r3]
 415 0020 019B     		ldr	r3, [sp, #4]
 416 0022 5A40     		eors	r2, r3, r2
 417 0024 05D1     		bne	.L22
 418 0026 0548     		ldr	r0, .L23+4
 419              		.loc 1 581 1 is_stmt 0 view .LVU79
 420 0028 02B0     		add	sp, sp, #8
 421              		.cfi_remember_state
 422              		.cfi_def_cfa_offset 8
 423              		@ sp needed
 424 002a BDE81040 		pop	{r4, lr}
 425              		.cfi_restore 14
 426              		.cfi_restore 4
 427              		.cfi_def_cfa_offset 0
 428              	.LVL25:
 429              		.loc 1 580 3 view .LVU80
 430 002e FFF7FEBF 		b	chMtxUnlock
 431              	.LVL26:
 432              	.L22:
 433              		.cfi_restore_state
 434              		.loc 1 580 3 view .LVU81
 435 0032 FFF7FEFF 		bl	__stack_chk_fail
 436              	.LVL27:
 437              	.L24:
 438 0036 00BF     		.align	2
 439              	.L23:
 440 0038 00000000 		.word	.LC8
 441 003c 00000000 		.word	.LANCHOR1
 442              		.cfi_endproc
 443              	.LFE247:
 444              		.size	thread12, .-thread12
 445              		.section	.rodata.mtx1_setup.cst4,"aM",%progbits,4
 446              		.align	2
 447              	.LC9:
 448 0000 00000000 		.word	__stack_chk_guard
 449              		.section	.text.mtx1_setup,"ax",%progbits
 450              		.align	1
 451              		.p2align 4,,15
 452              		.syntax unified
 453              		.thumb
 454              		.thumb_func
 455              		.fpu fpv4-sp-d16
ARM GAS  /tmp/ccqhiTbD.s 			page 9


 456              		.type	mtx1_setup, %function
 457              	mtx1_setup:
 458              	.LFB219:
 459              		.loc 1 84 30 is_stmt 1 view -0
 460              		.cfi_startproc
 461              		@ args = 0, pretend = 0, frame = 8
 462              		@ frame_needed = 0, uses_anonymous_args = 0
 463 0000 00B5     		push	{lr}
 464              		.cfi_def_cfa_offset 4
 465              		.cfi_offset 14, -4
 466 0002 094B     		ldr	r3, .L30
 467 0004 83B0     		sub	sp, sp, #12
 468              		.cfi_def_cfa_offset 16
 469              		.loc 1 84 30 is_stmt 0 view .LVU83
 470 0006 1B68     		ldr	r3, [r3]
 471 0008 0193     		str	r3, [sp, #4]
 472 000a 4FF00003 		mov	r3,#0
 473              		.loc 1 86 3 is_stmt 1 view .LVU84
 474 000e 064B     		ldr	r3, .L30
 475 0010 1A68     		ldr	r2, [r3]
 476 0012 019B     		ldr	r3, [sp, #4]
 477 0014 5A40     		eors	r2, r3, r2
 478 0016 05D1     		bne	.L29
 479 0018 0448     		ldr	r0, .L30+4
 480              		.loc 1 87 1 is_stmt 0 view .LVU85
 481 001a 03B0     		add	sp, sp, #12
 482              		.cfi_remember_state
 483              		.cfi_def_cfa_offset 4
 484              		@ sp needed
 485 001c 5DF804EB 		ldr	lr, [sp], #4
 486              		.cfi_restore 14
 487              		.cfi_def_cfa_offset 0
 488              		.loc 1 86 3 view .LVU86
 489 0020 FFF7FEBF 		b	chMtxObjectInit
 490              	.LVL28:
 491              	.L29:
 492              		.cfi_restore_state
 493 0024 FFF7FEFF 		bl	__stack_chk_fail
 494              	.LVL29:
 495              	.L31:
 496              		.align	2
 497              	.L30:
 498 0028 00000000 		.word	.LC9
 499 002c 00000000 		.word	.LANCHOR0
 500              		.cfi_endproc
 501              	.LFE219:
 502              		.size	mtx1_setup, .-mtx1_setup
 503              		.section	.rodata.mtx2_setup.cst4,"aM",%progbits,4
 504              		.align	2
 505              	.LC10:
 506 0000 00000000 		.word	__stack_chk_guard
 507              		.section	.text.mtx2_setup,"ax",%progbits
 508              		.align	1
 509              		.p2align 4,,15
 510              		.syntax unified
 511              		.thumb
 512              		.thumb_func
ARM GAS  /tmp/ccqhiTbD.s 			page 10


 513              		.fpu fpv4-sp-d16
 514              		.type	mtx2_setup, %function
 515              	mtx2_setup:
 516              	.LFB251:
 517              		.cfi_startproc
 518              		@ args = 0, pretend = 0, frame = 8
 519              		@ frame_needed = 0, uses_anonymous_args = 0
 520 0000 00B5     		push	{lr}
 521              		.cfi_def_cfa_offset 4
 522              		.cfi_offset 14, -4
 523 0002 094B     		ldr	r3, .L37
 524 0004 83B0     		sub	sp, sp, #12
 525              		.cfi_def_cfa_offset 16
 526 0006 1B68     		ldr	r3, [r3]
 527 0008 0193     		str	r3, [sp, #4]
 528 000a 4FF00003 		mov	r3,#0
 529 000e 064B     		ldr	r3, .L37
 530 0010 1A68     		ldr	r2, [r3]
 531 0012 019B     		ldr	r3, [sp, #4]
 532 0014 5A40     		eors	r2, r3, r2
 533 0016 04D1     		bne	.L36
 534 0018 03B0     		add	sp, sp, #12
 535              		.cfi_remember_state
 536              		.cfi_def_cfa_offset 4
 537              		@ sp needed
 538 001a 5DF804EB 		ldr	lr, [sp], #4
 539              		.cfi_restore 14
 540              		.cfi_def_cfa_offset 0
 541 001e FFF7FEBF 		b	mtx1_setup
 542              	.L36:
 543              		.cfi_restore_state
 544 0022 FFF7FEFF 		bl	__stack_chk_fail
 545              	.L38:
 546 0026 00BF     		.align	2
 547              	.L37:
 548 0028 00000000 		.word	.LC10
 549              		.cfi_endproc
 550              	.LFE251:
 551              		.size	mtx2_setup, .-mtx2_setup
 552              		.section	.rodata.mtx5_setup.cst4,"aM",%progbits,4
 553              		.align	2
 554              	.LC11:
 555 0000 00000000 		.word	__stack_chk_guard
 556              		.section	.text.mtx5_setup,"ax",%progbits
 557              		.align	1
 558              		.p2align 4,,15
 559              		.syntax unified
 560              		.thumb
 561              		.thumb_func
 562              		.fpu fpv4-sp-d16
 563              		.type	mtx5_setup, %function
 564              	mtx5_setup:
 565              	.LFB253:
 566              		.cfi_startproc
 567              		@ args = 0, pretend = 0, frame = 8
 568              		@ frame_needed = 0, uses_anonymous_args = 0
 569 0000 00B5     		push	{lr}
ARM GAS  /tmp/ccqhiTbD.s 			page 11


 570              		.cfi_def_cfa_offset 4
 571              		.cfi_offset 14, -4
 572 0002 094B     		ldr	r3, .L44
 573 0004 83B0     		sub	sp, sp, #12
 574              		.cfi_def_cfa_offset 16
 575 0006 1B68     		ldr	r3, [r3]
 576 0008 0193     		str	r3, [sp, #4]
 577 000a 4FF00003 		mov	r3,#0
 578 000e 064B     		ldr	r3, .L44
 579 0010 1A68     		ldr	r2, [r3]
 580 0012 019B     		ldr	r3, [sp, #4]
 581 0014 5A40     		eors	r2, r3, r2
 582 0016 04D1     		bne	.L43
 583 0018 03B0     		add	sp, sp, #12
 584              		.cfi_remember_state
 585              		.cfi_def_cfa_offset 4
 586              		@ sp needed
 587 001a 5DF804EB 		ldr	lr, [sp], #4
 588              		.cfi_restore 14
 589              		.cfi_def_cfa_offset 0
 590 001e FFF7FEBF 		b	mtx1_setup
 591              	.L43:
 592              		.cfi_restore_state
 593 0022 FFF7FEFF 		bl	__stack_chk_fail
 594              	.L45:
 595 0026 00BF     		.align	2
 596              	.L44:
 597 0028 00000000 		.word	.LC11
 598              		.cfi_endproc
 599              	.LFE253:
 600              		.size	mtx5_setup, .-mtx5_setup
 601              		.section	.rodata.mtx3_setup.cst4,"aM",%progbits,4
 602              		.align	2
 603              	.LC12:
 604 0000 00000000 		.word	__stack_chk_guard
 605              		.section	.text.mtx3_setup,"ax",%progbits
 606              		.align	1
 607              		.p2align 4,,15
 608              		.syntax unified
 609              		.thumb
 610              		.thumb_func
 611              		.fpu fpv4-sp-d16
 612              		.type	mtx3_setup, %function
 613              	mtx3_setup:
 614              	.LFB227:
 615              		.loc 1 237 30 is_stmt 1 view -0
 616              		.cfi_startproc
 617              		@ args = 0, pretend = 0, frame = 8
 618              		@ frame_needed = 0, uses_anonymous_args = 0
 619              		.loc 1 237 30 is_stmt 0 view .LVU88
 620 0000 00B5     		push	{lr}
 621              		.cfi_def_cfa_offset 4
 622              		.cfi_offset 14, -4
 623 0002 0B4B     		ldr	r3, .L51
 624              		.loc 1 239 3 view .LVU89
 625 0004 0B48     		ldr	r0, .L51+4
 626              		.loc 1 237 30 view .LVU90
ARM GAS  /tmp/ccqhiTbD.s 			page 12


 627 0006 83B0     		sub	sp, sp, #12
 628              		.cfi_def_cfa_offset 16
 629              		.loc 1 237 30 view .LVU91
 630 0008 1B68     		ldr	r3, [r3]
 631 000a 0193     		str	r3, [sp, #4]
 632 000c 4FF00003 		mov	r3,#0
 633              		.loc 1 239 3 is_stmt 1 view .LVU92
 634 0010 FFF7FEFF 		bl	chMtxObjectInit
 635              	.LVL30:
 636              		.loc 1 240 3 view .LVU93
 637 0014 064B     		ldr	r3, .L51
 638 0016 1A68     		ldr	r2, [r3]
 639 0018 019B     		ldr	r3, [sp, #4]
 640 001a 5A40     		eors	r2, r3, r2
 641 001c 05D1     		bne	.L50
 642 001e 0648     		ldr	r0, .L51+8
 643              		.loc 1 241 1 is_stmt 0 view .LVU94
 644 0020 03B0     		add	sp, sp, #12
 645              		.cfi_remember_state
 646              		.cfi_def_cfa_offset 4
 647              		@ sp needed
 648 0022 5DF804EB 		ldr	lr, [sp], #4
 649              		.cfi_restore 14
 650              		.cfi_def_cfa_offset 0
 651              		.loc 1 240 3 view .LVU95
 652 0026 FFF7FEBF 		b	chMtxObjectInit
 653              	.LVL31:
 654              	.L50:
 655              		.cfi_restore_state
 656 002a FFF7FEFF 		bl	__stack_chk_fail
 657              	.LVL32:
 658              	.L52:
 659 002e 00BF     		.align	2
 660              	.L51:
 661 0030 00000000 		.word	.LC12
 662 0034 00000000 		.word	.LANCHOR0
 663 0038 00000000 		.word	.LANCHOR1
 664              		.cfi_endproc
 665              	.LFE227:
 666              		.size	mtx3_setup, .-mtx3_setup
 667              		.section	.rodata.mtx4_setup.cst4,"aM",%progbits,4
 668              		.align	2
 669              	.LC13:
 670 0000 00000000 		.word	__stack_chk_guard
 671              		.section	.text.mtx4_setup,"ax",%progbits
 672              		.align	1
 673              		.p2align 4,,15
 674              		.syntax unified
 675              		.thumb
 676              		.thumb_func
 677              		.fpu fpv4-sp-d16
 678              		.type	mtx4_setup, %function
 679              	mtx4_setup:
 680              	.LFB255:
 681              		.cfi_startproc
 682              		@ args = 0, pretend = 0, frame = 8
 683              		@ frame_needed = 0, uses_anonymous_args = 0
ARM GAS  /tmp/ccqhiTbD.s 			page 13


 684 0000 00B5     		push	{lr}
 685              		.cfi_def_cfa_offset 4
 686              		.cfi_offset 14, -4
 687 0002 094B     		ldr	r3, .L58
 688 0004 83B0     		sub	sp, sp, #12
 689              		.cfi_def_cfa_offset 16
 690 0006 1B68     		ldr	r3, [r3]
 691 0008 0193     		str	r3, [sp, #4]
 692 000a 4FF00003 		mov	r3,#0
 693 000e 064B     		ldr	r3, .L58
 694 0010 1A68     		ldr	r2, [r3]
 695 0012 019B     		ldr	r3, [sp, #4]
 696 0014 5A40     		eors	r2, r3, r2
 697 0016 04D1     		bne	.L57
 698 0018 03B0     		add	sp, sp, #12
 699              		.cfi_remember_state
 700              		.cfi_def_cfa_offset 4
 701              		@ sp needed
 702 001a 5DF804EB 		ldr	lr, [sp], #4
 703              		.cfi_restore 14
 704              		.cfi_def_cfa_offset 0
 705 001e FFF7FEBF 		b	mtx3_setup
 706              	.L57:
 707              		.cfi_restore_state
 708 0022 FFF7FEFF 		bl	__stack_chk_fail
 709              	.L59:
 710 0026 00BF     		.align	2
 711              	.L58:
 712 0028 00000000 		.word	.LC13
 713              		.cfi_endproc
 714              	.LFE255:
 715              		.size	mtx4_setup, .-mtx4_setup
 716              		.section	.rodata.thread2L.cst4,"aM",%progbits,4
 717              		.align	2
 718              	.LC14:
 719 0000 00000000 		.word	__stack_chk_guard
 720              		.section	.text.thread2L,"ax",%progbits
 721              		.align	1
 722              		.p2align 4,,15
 723              		.syntax unified
 724              		.thumb
 725              		.thumb_func
 726              		.fpu fpv4-sp-d16
 727              		.type	thread2L, %function
 728              	thread2L:
 729              	.LVL33:
 730              	.LFB223:
 731              		.loc 1 156 34 is_stmt 1 view -0
 732              		.cfi_startproc
 733              		@ args = 0, pretend = 0, frame = 8
 734              		@ frame_needed = 0, uses_anonymous_args = 0
 735              		.loc 1 156 34 is_stmt 0 view .LVU97
 736 0000 00B5     		push	{lr}
 737              		.cfi_def_cfa_offset 4
 738              		.cfi_offset 14, -4
 739 0002 0F4B     		ldr	r3, .L65
 740              		.loc 1 159 3 view .LVU98
ARM GAS  /tmp/ccqhiTbD.s 			page 14


 741 0004 0F48     		ldr	r0, .L65+4
 742              	.LVL34:
 743              		.loc 1 156 34 view .LVU99
 744 0006 83B0     		sub	sp, sp, #12
 745              		.cfi_def_cfa_offset 16
 746              		.loc 1 156 34 view .LVU100
 747 0008 1B68     		ldr	r3, [r3]
 748 000a 0193     		str	r3, [sp, #4]
 749 000c 4FF00003 		mov	r3,#0
 750              		.loc 1 158 3 is_stmt 1 view .LVU101
 751              		.loc 1 159 3 view .LVU102
 752 0010 FFF7FEFF 		bl	chMtxLock
 753              	.LVL35:
 754              		.loc 1 160 3 view .LVU103
 755 0014 2820     		movs	r0, #40
 756 0016 FFF7FEFF 		bl	test_cpu_pulse
 757              	.LVL36:
 758              		.loc 1 161 3 view .LVU104
 759 001a 0A48     		ldr	r0, .L65+4
 760 001c FFF7FEFF 		bl	chMtxUnlock
 761              	.LVL37:
 762              		.loc 1 162 3 view .LVU105
 763 0020 0A20     		movs	r0, #10
 764 0022 FFF7FEFF 		bl	test_cpu_pulse
 765              	.LVL38:
 766              		.loc 1 163 3 view .LVU106
 767 0026 064B     		ldr	r3, .L65
 768 0028 1A68     		ldr	r2, [r3]
 769 002a 019B     		ldr	r3, [sp, #4]
 770 002c 5A40     		eors	r2, r3, r2
 771 002e 05D1     		bne	.L64
 772 0030 4320     		movs	r0, #67
 773              		.loc 1 164 1 is_stmt 0 view .LVU107
 774 0032 03B0     		add	sp, sp, #12
 775              		.cfi_remember_state
 776              		.cfi_def_cfa_offset 4
 777              		@ sp needed
 778 0034 5DF804EB 		ldr	lr, [sp], #4
 779              		.cfi_restore 14
 780              		.cfi_def_cfa_offset 0
 781              		.loc 1 163 3 view .LVU108
 782 0038 FFF7FEBF 		b	test_emit_token
 783              	.LVL39:
 784              	.L64:
 785              		.cfi_restore_state
 786 003c FFF7FEFF 		bl	__stack_chk_fail
 787              	.LVL40:
 788              	.L66:
 789              		.align	2
 790              	.L65:
 791 0040 00000000 		.word	.LC14
 792 0044 00000000 		.word	.LANCHOR0
 793              		.cfi_endproc
 794              	.LFE223:
 795              		.size	thread2L, .-thread2L
 796              		.section	.rodata.thread3LL.cst4,"aM",%progbits,4
 797              		.align	2
ARM GAS  /tmp/ccqhiTbD.s 			page 15


 798              	.LC15:
 799 0000 00000000 		.word	__stack_chk_guard
 800              		.section	.text.thread3LL,"ax",%progbits
 801              		.align	1
 802              		.p2align 4,,15
 803              		.syntax unified
 804              		.thumb
 805              		.thumb_func
 806              		.fpu fpv4-sp-d16
 807              		.type	thread3LL, %function
 808              	thread3LL:
 809              	.LVL41:
 810              	.LFB228:
 811              		.loc 1 244 35 is_stmt 1 view -0
 812              		.cfi_startproc
 813              		@ args = 0, pretend = 0, frame = 8
 814              		@ frame_needed = 0, uses_anonymous_args = 0
 815              		.loc 1 244 35 is_stmt 0 view .LVU110
 816 0000 00B5     		push	{lr}
 817              		.cfi_def_cfa_offset 4
 818              		.cfi_offset 14, -4
 819 0002 0E4B     		ldr	r3, .L72
 820              		.loc 1 247 3 view .LVU111
 821 0004 0E48     		ldr	r0, .L72+4
 822              	.LVL42:
 823              		.loc 1 244 35 view .LVU112
 824 0006 83B0     		sub	sp, sp, #12
 825              		.cfi_def_cfa_offset 16
 826              		.loc 1 244 35 view .LVU113
 827 0008 1B68     		ldr	r3, [r3]
 828 000a 0193     		str	r3, [sp, #4]
 829 000c 4FF00003 		mov	r3,#0
 830              		.loc 1 246 3 is_stmt 1 view .LVU114
 831              		.loc 1 247 3 view .LVU115
 832 0010 FFF7FEFF 		bl	chMtxLock
 833              	.LVL43:
 834              		.loc 1 248 3 view .LVU116
 835 0014 1E20     		movs	r0, #30
 836 0016 FFF7FEFF 		bl	test_cpu_pulse
 837              	.LVL44:
 838              		.loc 1 249 3 view .LVU117
 839 001a 0948     		ldr	r0, .L72+4
 840 001c FFF7FEFF 		bl	chMtxUnlock
 841              	.LVL45:
 842              		.loc 1 250 3 view .LVU118
 843 0020 064B     		ldr	r3, .L72
 844 0022 1A68     		ldr	r2, [r3]
 845 0024 019B     		ldr	r3, [sp, #4]
 846 0026 5A40     		eors	r2, r3, r2
 847 0028 05D1     		bne	.L71
 848 002a 4520     		movs	r0, #69
 849              		.loc 1 251 1 is_stmt 0 view .LVU119
 850 002c 03B0     		add	sp, sp, #12
 851              		.cfi_remember_state
 852              		.cfi_def_cfa_offset 4
 853              		@ sp needed
 854 002e 5DF804EB 		ldr	lr, [sp], #4
ARM GAS  /tmp/ccqhiTbD.s 			page 16


 855              		.cfi_restore 14
 856              		.cfi_def_cfa_offset 0
 857              		.loc 1 250 3 view .LVU120
 858 0032 FFF7FEBF 		b	test_emit_token
 859              	.LVL46:
 860              	.L71:
 861              		.cfi_restore_state
 862 0036 FFF7FEFF 		bl	__stack_chk_fail
 863              	.LVL47:
 864              	.L73:
 865 003a 00BF     		.align	2
 866              	.L72:
 867 003c 00000000 		.word	.LC15
 868 0040 00000000 		.word	.LANCHOR0
 869              		.cfi_endproc
 870              	.LFE228:
 871              		.size	thread3LL, .-thread3LL
 872              		.section	.rodata.thread2M.cst4,"aM",%progbits,4
 873              		.align	2
 874              	.LC16:
 875 0000 00000000 		.word	__stack_chk_guard
 876              		.section	.text.thread2M,"ax",%progbits
 877              		.align	1
 878              		.p2align 4,,15
 879              		.syntax unified
 880              		.thumb
 881              		.thumb_func
 882              		.fpu fpv4-sp-d16
 883              		.type	thread2M, %function
 884              	thread2M:
 885              	.LVL48:
 886              	.LFB224:
 887              		.loc 1 167 34 is_stmt 1 view -0
 888              		.cfi_startproc
 889              		@ args = 0, pretend = 0, frame = 8
 890              		@ frame_needed = 0, uses_anonymous_args = 0
 891              		.loc 1 167 34 is_stmt 0 view .LVU122
 892 0000 00B5     		push	{lr}
 893              		.cfi_def_cfa_offset 4
 894              		.cfi_offset 14, -4
 895 0002 0C4B     		ldr	r3, .L79
 896 0004 83B0     		sub	sp, sp, #12
 897              		.cfi_def_cfa_offset 16
 898              		.loc 1 170 3 view .LVU123
 899 0006 1420     		movs	r0, #20
 900              	.LVL49:
 901              		.loc 1 167 34 view .LVU124
 902 0008 1B68     		ldr	r3, [r3]
 903 000a 0193     		str	r3, [sp, #4]
 904 000c 4FF00003 		mov	r3,#0
 905              		.loc 1 169 3 is_stmt 1 view .LVU125
 906              		.loc 1 170 3 view .LVU126
 907 0010 FFF7FEFF 		bl	chThdSleep
 908              	.LVL50:
 909              		.loc 1 171 3 view .LVU127
 910 0014 2820     		movs	r0, #40
 911 0016 FFF7FEFF 		bl	test_cpu_pulse
ARM GAS  /tmp/ccqhiTbD.s 			page 17


 912              	.LVL51:
 913              		.loc 1 172 3 view .LVU128
 914 001a 064B     		ldr	r3, .L79
 915 001c 1A68     		ldr	r2, [r3]
 916 001e 019B     		ldr	r3, [sp, #4]
 917 0020 5A40     		eors	r2, r3, r2
 918 0022 05D1     		bne	.L78
 919 0024 4220     		movs	r0, #66
 920              		.loc 1 173 1 is_stmt 0 view .LVU129
 921 0026 03B0     		add	sp, sp, #12
 922              		.cfi_remember_state
 923              		.cfi_def_cfa_offset 4
 924              		@ sp needed
 925 0028 5DF804EB 		ldr	lr, [sp], #4
 926              		.cfi_restore 14
 927              		.cfi_def_cfa_offset 0
 928              		.loc 1 172 3 view .LVU130
 929 002c FFF7FEBF 		b	test_emit_token
 930              	.LVL52:
 931              	.L78:
 932              		.cfi_restore_state
 933 0030 FFF7FEFF 		bl	__stack_chk_fail
 934              	.LVL53:
 935              	.L80:
 936              		.align	2
 937              	.L79:
 938 0034 00000000 		.word	.LC16
 939              		.cfi_endproc
 940              	.LFE224:
 941              		.size	thread2M, .-thread2M
 942              		.section	.rodata.thread2H.cst4,"aM",%progbits,4
 943              		.align	2
 944              	.LC17:
 945 0000 00000000 		.word	__stack_chk_guard
 946              		.section	.text.thread2H,"ax",%progbits
 947              		.align	1
 948              		.p2align 4,,15
 949              		.syntax unified
 950              		.thumb
 951              		.thumb_func
 952              		.fpu fpv4-sp-d16
 953              		.type	thread2H, %function
 954              	thread2H:
 955              	.LVL54:
 956              	.LFB225:
 957              		.loc 1 176 34 is_stmt 1 view -0
 958              		.cfi_startproc
 959              		@ args = 0, pretend = 0, frame = 8
 960              		@ frame_needed = 0, uses_anonymous_args = 0
 961              		.loc 1 176 34 is_stmt 0 view .LVU132
 962 0000 00B5     		push	{lr}
 963              		.cfi_def_cfa_offset 4
 964              		.cfi_offset 14, -4
 965 0002 0F4B     		ldr	r3, .L86
 966 0004 83B0     		sub	sp, sp, #12
 967              		.cfi_def_cfa_offset 16
 968              		.loc 1 179 3 view .LVU133
ARM GAS  /tmp/ccqhiTbD.s 			page 18


 969 0006 2820     		movs	r0, #40
 970              	.LVL55:
 971              		.loc 1 176 34 view .LVU134
 972 0008 1B68     		ldr	r3, [r3]
 973 000a 0193     		str	r3, [sp, #4]
 974 000c 4FF00003 		mov	r3,#0
 975              		.loc 1 178 3 is_stmt 1 view .LVU135
 976              		.loc 1 179 3 view .LVU136
 977 0010 FFF7FEFF 		bl	chThdSleep
 978              	.LVL56:
 979              		.loc 1 180 3 view .LVU137
 980 0014 0B48     		ldr	r0, .L86+4
 981 0016 FFF7FEFF 		bl	chMtxLock
 982              	.LVL57:
 983              		.loc 1 181 3 view .LVU138
 984 001a 0A20     		movs	r0, #10
 985 001c FFF7FEFF 		bl	test_cpu_pulse
 986              	.LVL58:
 987              		.loc 1 182 3 view .LVU139
 988 0020 0848     		ldr	r0, .L86+4
 989 0022 FFF7FEFF 		bl	chMtxUnlock
 990              	.LVL59:
 991              		.loc 1 183 3 view .LVU140
 992 0026 064B     		ldr	r3, .L86
 993 0028 1A68     		ldr	r2, [r3]
 994 002a 019B     		ldr	r3, [sp, #4]
 995 002c 5A40     		eors	r2, r3, r2
 996 002e 05D1     		bne	.L85
 997 0030 4120     		movs	r0, #65
 998              		.loc 1 184 1 is_stmt 0 view .LVU141
 999 0032 03B0     		add	sp, sp, #12
 1000              		.cfi_remember_state
 1001              		.cfi_def_cfa_offset 4
 1002              		@ sp needed
 1003 0034 5DF804EB 		ldr	lr, [sp], #4
 1004              		.cfi_restore 14
 1005              		.cfi_def_cfa_offset 0
 1006              		.loc 1 183 3 view .LVU142
 1007 0038 FFF7FEBF 		b	test_emit_token
 1008              	.LVL60:
 1009              	.L85:
 1010              		.cfi_restore_state
 1011 003c FFF7FEFF 		bl	__stack_chk_fail
 1012              	.LVL61:
 1013              	.L87:
 1014              		.align	2
 1015              	.L86:
 1016 0040 00000000 		.word	.LC17
 1017 0044 00000000 		.word	.LANCHOR0
 1018              		.cfi_endproc
 1019              	.LFE225:
 1020              		.size	thread2H, .-thread2H
 1021              		.section	.rodata.thread3HH.cst4,"aM",%progbits,4
 1022              		.align	2
 1023              	.LC18:
 1024 0000 00000000 		.word	__stack_chk_guard
 1025              		.section	.text.thread3HH,"ax",%progbits
ARM GAS  /tmp/ccqhiTbD.s 			page 19


 1026              		.align	1
 1027              		.p2align 4,,15
 1028              		.syntax unified
 1029              		.thumb
 1030              		.thumb_func
 1031              		.fpu fpv4-sp-d16
 1032              		.type	thread3HH, %function
 1033              	thread3HH:
 1034              	.LVL62:
 1035              	.LFB232:
 1036              		.loc 1 289 35 is_stmt 1 view -0
 1037              		.cfi_startproc
 1038              		@ args = 0, pretend = 0, frame = 8
 1039              		@ frame_needed = 0, uses_anonymous_args = 0
 1040              		.loc 1 289 35 is_stmt 0 view .LVU144
 1041 0000 00B5     		push	{lr}
 1042              		.cfi_def_cfa_offset 4
 1043              		.cfi_offset 14, -4
 1044 0002 0F4B     		ldr	r3, .L93
 1045 0004 83B0     		sub	sp, sp, #12
 1046              		.cfi_def_cfa_offset 16
 1047              		.loc 1 292 3 view .LVU145
 1048 0006 3220     		movs	r0, #50
 1049              	.LVL63:
 1050              		.loc 1 289 35 view .LVU146
 1051 0008 1B68     		ldr	r3, [r3]
 1052 000a 0193     		str	r3, [sp, #4]
 1053 000c 4FF00003 		mov	r3,#0
 1054              		.loc 1 291 3 is_stmt 1 view .LVU147
 1055              		.loc 1 292 3 view .LVU148
 1056 0010 FFF7FEFF 		bl	chThdSleep
 1057              	.LVL64:
 1058              		.loc 1 293 3 view .LVU149
 1059 0014 0B48     		ldr	r0, .L93+4
 1060 0016 FFF7FEFF 		bl	chMtxLock
 1061              	.LVL65:
 1062              		.loc 1 294 3 view .LVU150
 1063 001a 0A20     		movs	r0, #10
 1064 001c FFF7FEFF 		bl	test_cpu_pulse
 1065              	.LVL66:
 1066              		.loc 1 295 3 view .LVU151
 1067 0020 0848     		ldr	r0, .L93+4
 1068 0022 FFF7FEFF 		bl	chMtxUnlock
 1069              	.LVL67:
 1070              		.loc 1 296 3 view .LVU152
 1071 0026 064B     		ldr	r3, .L93
 1072 0028 1A68     		ldr	r2, [r3]
 1073 002a 019B     		ldr	r3, [sp, #4]
 1074 002c 5A40     		eors	r2, r3, r2
 1075 002e 05D1     		bne	.L92
 1076 0030 4120     		movs	r0, #65
 1077              		.loc 1 297 1 is_stmt 0 view .LVU153
 1078 0032 03B0     		add	sp, sp, #12
 1079              		.cfi_remember_state
 1080              		.cfi_def_cfa_offset 4
 1081              		@ sp needed
 1082 0034 5DF804EB 		ldr	lr, [sp], #4
ARM GAS  /tmp/ccqhiTbD.s 			page 20


 1083              		.cfi_restore 14
 1084              		.cfi_def_cfa_offset 0
 1085              		.loc 1 296 3 view .LVU154
 1086 0038 FFF7FEBF 		b	test_emit_token
 1087              	.LVL68:
 1088              	.L92:
 1089              		.cfi_restore_state
 1090 003c FFF7FEFF 		bl	__stack_chk_fail
 1091              	.LVL69:
 1092              	.L94:
 1093              		.align	2
 1094              	.L93:
 1095 0040 00000000 		.word	.LC18
 1096 0044 00000000 		.word	.LANCHOR1
 1097              		.cfi_endproc
 1098              	.LFE232:
 1099              		.size	thread3HH, .-thread3HH
 1100              		.section	.rodata.thread3H.cst4,"aM",%progbits,4
 1101              		.align	2
 1102              	.LC19:
 1103 0000 00000000 		.word	__stack_chk_guard
 1104              		.section	.text.thread3H,"ax",%progbits
 1105              		.align	1
 1106              		.p2align 4,,15
 1107              		.syntax unified
 1108              		.thumb
 1109              		.thumb_func
 1110              		.fpu fpv4-sp-d16
 1111              		.type	thread3H, %function
 1112              	thread3H:
 1113              	.LVL70:
 1114              	.LFB231:
 1115              		.loc 1 280 34 is_stmt 1 view -0
 1116              		.cfi_startproc
 1117              		@ args = 0, pretend = 0, frame = 8
 1118              		@ frame_needed = 0, uses_anonymous_args = 0
 1119              		.loc 1 280 34 is_stmt 0 view .LVU156
 1120 0000 00B5     		push	{lr}
 1121              		.cfi_def_cfa_offset 4
 1122              		.cfi_offset 14, -4
 1123 0002 0C4B     		ldr	r3, .L100
 1124 0004 83B0     		sub	sp, sp, #12
 1125              		.cfi_def_cfa_offset 16
 1126              		.loc 1 283 3 view .LVU157
 1127 0006 2820     		movs	r0, #40
 1128              	.LVL71:
 1129              		.loc 1 280 34 view .LVU158
 1130 0008 1B68     		ldr	r3, [r3]
 1131 000a 0193     		str	r3, [sp, #4]
 1132 000c 4FF00003 		mov	r3,#0
 1133              		.loc 1 282 3 is_stmt 1 view .LVU159
 1134              		.loc 1 283 3 view .LVU160
 1135 0010 FFF7FEFF 		bl	chThdSleep
 1136              	.LVL72:
 1137              		.loc 1 284 3 view .LVU161
 1138 0014 1420     		movs	r0, #20
 1139 0016 FFF7FEFF 		bl	test_cpu_pulse
ARM GAS  /tmp/ccqhiTbD.s 			page 21


 1140              	.LVL73:
 1141              		.loc 1 285 3 view .LVU162
 1142 001a 064B     		ldr	r3, .L100
 1143 001c 1A68     		ldr	r2, [r3]
 1144 001e 019B     		ldr	r3, [sp, #4]
 1145 0020 5A40     		eors	r2, r3, r2
 1146 0022 05D1     		bne	.L99
 1147 0024 4220     		movs	r0, #66
 1148              		.loc 1 286 1 is_stmt 0 view .LVU163
 1149 0026 03B0     		add	sp, sp, #12
 1150              		.cfi_remember_state
 1151              		.cfi_def_cfa_offset 4
 1152              		@ sp needed
 1153 0028 5DF804EB 		ldr	lr, [sp], #4
 1154              		.cfi_restore 14
 1155              		.cfi_def_cfa_offset 0
 1156              		.loc 1 285 3 view .LVU164
 1157 002c FFF7FEBF 		b	test_emit_token
 1158              	.LVL74:
 1159              	.L99:
 1160              		.cfi_restore_state
 1161 0030 FFF7FEFF 		bl	__stack_chk_fail
 1162              	.LVL75:
 1163              	.L101:
 1164              		.align	2
 1165              	.L100:
 1166 0034 00000000 		.word	.LC19
 1167              		.cfi_endproc
 1168              	.LFE231:
 1169              		.size	thread3H, .-thread3H
 1170              		.section	.rodata.thread3M.cst4,"aM",%progbits,4
 1171              		.align	2
 1172              	.LC20:
 1173 0000 00000000 		.word	__stack_chk_guard
 1174              		.section	.text.thread3M,"ax",%progbits
 1175              		.align	1
 1176              		.p2align 4,,15
 1177              		.syntax unified
 1178              		.thumb
 1179              		.thumb_func
 1180              		.fpu fpv4-sp-d16
 1181              		.type	thread3M, %function
 1182              	thread3M:
 1183              	.LVL76:
 1184              	.LFB230:
 1185              		.loc 1 269 34 is_stmt 1 view -0
 1186              		.cfi_startproc
 1187              		@ args = 0, pretend = 0, frame = 8
 1188              		@ frame_needed = 0, uses_anonymous_args = 0
 1189              		.loc 1 269 34 is_stmt 0 view .LVU166
 1190 0000 00B5     		push	{lr}
 1191              		.cfi_def_cfa_offset 4
 1192              		.cfi_offset 14, -4
 1193 0002 0F4B     		ldr	r3, .L107
 1194 0004 83B0     		sub	sp, sp, #12
 1195              		.cfi_def_cfa_offset 16
 1196              		.loc 1 272 3 view .LVU167
ARM GAS  /tmp/ccqhiTbD.s 			page 22


 1197 0006 1420     		movs	r0, #20
 1198              	.LVL77:
 1199              		.loc 1 269 34 view .LVU168
 1200 0008 1B68     		ldr	r3, [r3]
 1201 000a 0193     		str	r3, [sp, #4]
 1202 000c 4FF00003 		mov	r3,#0
 1203              		.loc 1 271 3 is_stmt 1 view .LVU169
 1204              		.loc 1 272 3 view .LVU170
 1205 0010 FFF7FEFF 		bl	chThdSleep
 1206              	.LVL78:
 1207              		.loc 1 273 3 view .LVU171
 1208 0014 0B48     		ldr	r0, .L107+4
 1209 0016 FFF7FEFF 		bl	chMtxLock
 1210              	.LVL79:
 1211              		.loc 1 274 3 view .LVU172
 1212 001a 0A20     		movs	r0, #10
 1213 001c FFF7FEFF 		bl	test_cpu_pulse
 1214              	.LVL80:
 1215              		.loc 1 275 3 view .LVU173
 1216 0020 0848     		ldr	r0, .L107+4
 1217 0022 FFF7FEFF 		bl	chMtxUnlock
 1218              	.LVL81:
 1219              		.loc 1 276 3 view .LVU174
 1220 0026 064B     		ldr	r3, .L107
 1221 0028 1A68     		ldr	r2, [r3]
 1222 002a 019B     		ldr	r3, [sp, #4]
 1223 002c 5A40     		eors	r2, r3, r2
 1224 002e 05D1     		bne	.L106
 1225 0030 4320     		movs	r0, #67
 1226              		.loc 1 277 1 is_stmt 0 view .LVU175
 1227 0032 03B0     		add	sp, sp, #12
 1228              		.cfi_remember_state
 1229              		.cfi_def_cfa_offset 4
 1230              		@ sp needed
 1231 0034 5DF804EB 		ldr	lr, [sp], #4
 1232              		.cfi_restore 14
 1233              		.cfi_def_cfa_offset 0
 1234              		.loc 1 276 3 view .LVU176
 1235 0038 FFF7FEBF 		b	test_emit_token
 1236              	.LVL82:
 1237              	.L106:
 1238              		.cfi_restore_state
 1239 003c FFF7FEFF 		bl	__stack_chk_fail
 1240              	.LVL83:
 1241              	.L108:
 1242              		.align	2
 1243              	.L107:
 1244 0040 00000000 		.word	.LC20
 1245 0044 00000000 		.word	.LANCHOR1
 1246              		.cfi_endproc
 1247              	.LFE230:
 1248              		.size	thread3M, .-thread3M
 1249              		.section	.rodata.thread3L.cst4,"aM",%progbits,4
 1250              		.align	2
 1251              	.LC21:
 1252 0000 00000000 		.word	__stack_chk_guard
 1253              		.section	.text.thread3L,"ax",%progbits
ARM GAS  /tmp/ccqhiTbD.s 			page 23


 1254              		.align	1
 1255              		.p2align 4,,15
 1256              		.syntax unified
 1257              		.thumb
 1258              		.thumb_func
 1259              		.fpu fpv4-sp-d16
 1260              		.type	thread3L, %function
 1261              	thread3L:
 1262              	.LVL84:
 1263              	.LFB229:
 1264              		.loc 1 254 34 is_stmt 1 view -0
 1265              		.cfi_startproc
 1266              		@ args = 0, pretend = 0, frame = 8
 1267              		@ frame_needed = 0, uses_anonymous_args = 0
 1268              		.loc 1 254 34 is_stmt 0 view .LVU178
 1269 0000 00B5     		push	{lr}
 1270              		.cfi_def_cfa_offset 4
 1271              		.cfi_offset 14, -4
 1272 0002 154B     		ldr	r3, .L114
 1273 0004 83B0     		sub	sp, sp, #12
 1274              		.cfi_def_cfa_offset 16
 1275              		.loc 1 257 3 view .LVU179
 1276 0006 0A20     		movs	r0, #10
 1277              	.LVL85:
 1278              		.loc 1 254 34 view .LVU180
 1279 0008 1B68     		ldr	r3, [r3]
 1280 000a 0193     		str	r3, [sp, #4]
 1281 000c 4FF00003 		mov	r3,#0
 1282              		.loc 1 256 3 is_stmt 1 view .LVU181
 1283              		.loc 1 257 3 view .LVU182
 1284 0010 FFF7FEFF 		bl	chThdSleep
 1285              	.LVL86:
 1286              		.loc 1 258 3 view .LVU183
 1287 0014 1148     		ldr	r0, .L114+4
 1288 0016 FFF7FEFF 		bl	chMtxLock
 1289              	.LVL87:
 1290              		.loc 1 259 3 view .LVU184
 1291 001a 1420     		movs	r0, #20
 1292 001c FFF7FEFF 		bl	test_cpu_pulse
 1293              	.LVL88:
 1294              		.loc 1 260 3 view .LVU185
 1295 0020 0F48     		ldr	r0, .L114+8
 1296 0022 FFF7FEFF 		bl	chMtxLock
 1297              	.LVL89:
 1298              		.loc 1 261 3 view .LVU186
 1299 0026 0A20     		movs	r0, #10
 1300 0028 FFF7FEFF 		bl	test_cpu_pulse
 1301              	.LVL90:
 1302              		.loc 1 262 3 view .LVU187
 1303 002c 0C48     		ldr	r0, .L114+8
 1304 002e FFF7FEFF 		bl	chMtxUnlock
 1305              	.LVL91:
 1306              		.loc 1 263 3 view .LVU188
 1307 0032 0A20     		movs	r0, #10
 1308 0034 FFF7FEFF 		bl	test_cpu_pulse
 1309              	.LVL92:
 1310              		.loc 1 264 3 view .LVU189
ARM GAS  /tmp/ccqhiTbD.s 			page 24


 1311 0038 0848     		ldr	r0, .L114+4
 1312 003a FFF7FEFF 		bl	chMtxUnlock
 1313              	.LVL93:
 1314              		.loc 1 265 3 view .LVU190
 1315 003e 064B     		ldr	r3, .L114
 1316 0040 1A68     		ldr	r2, [r3]
 1317 0042 019B     		ldr	r3, [sp, #4]
 1318 0044 5A40     		eors	r2, r3, r2
 1319 0046 05D1     		bne	.L113
 1320 0048 4420     		movs	r0, #68
 1321              		.loc 1 266 1 is_stmt 0 view .LVU191
 1322 004a 03B0     		add	sp, sp, #12
 1323              		.cfi_remember_state
 1324              		.cfi_def_cfa_offset 4
 1325              		@ sp needed
 1326 004c 5DF804EB 		ldr	lr, [sp], #4
 1327              		.cfi_restore 14
 1328              		.cfi_def_cfa_offset 0
 1329              		.loc 1 265 3 view .LVU192
 1330 0050 FFF7FEBF 		b	test_emit_token
 1331              	.LVL94:
 1332              	.L113:
 1333              		.cfi_restore_state
 1334 0054 FFF7FEFF 		bl	__stack_chk_fail
 1335              	.LVL95:
 1336              	.L115:
 1337              		.align	2
 1338              	.L114:
 1339 0058 00000000 		.word	.LC21
 1340 005c 00000000 		.word	.LANCHOR1
 1341 0060 00000000 		.word	.LANCHOR0
 1342              		.cfi_endproc
 1343              	.LFE229:
 1344              		.size	thread3L, .-thread3L
 1345              		.section	.rodata.thread4b.cst4,"aM",%progbits,4
 1346              		.align	2
 1347              	.LC22:
 1348 0000 00000000 		.word	__stack_chk_guard
 1349              		.section	.text.thread4b,"ax",%progbits
 1350              		.align	1
 1351              		.p2align 4,,15
 1352              		.syntax unified
 1353              		.thumb
 1354              		.thumb_func
 1355              		.fpu fpv4-sp-d16
 1356              		.type	thread4b, %function
 1357              	thread4b:
 1358              	.LVL96:
 1359              	.LFB236:
 1360              		.loc 1 346 34 is_stmt 1 view -0
 1361              		.cfi_startproc
 1362              		@ args = 0, pretend = 0, frame = 8
 1363              		@ frame_needed = 0, uses_anonymous_args = 0
 1364              		.loc 1 346 34 is_stmt 0 view .LVU194
 1365 0000 00B5     		push	{lr}
 1366              		.cfi_def_cfa_offset 4
 1367              		.cfi_offset 14, -4
ARM GAS  /tmp/ccqhiTbD.s 			page 25


 1368 0002 0C4B     		ldr	r3, .L121
 1369 0004 83B0     		sub	sp, sp, #12
 1370              		.cfi_def_cfa_offset 16
 1371              		.loc 1 349 3 view .LVU195
 1372 0006 9620     		movs	r0, #150
 1373              	.LVL97:
 1374              		.loc 1 346 34 view .LVU196
 1375 0008 1B68     		ldr	r3, [r3]
 1376 000a 0193     		str	r3, [sp, #4]
 1377 000c 4FF00003 		mov	r3,#0
 1378              		.loc 1 348 3 is_stmt 1 view .LVU197
 1379              		.loc 1 349 3 view .LVU198
 1380 0010 FFF7FEFF 		bl	chThdSleep
 1381              	.LVL98:
 1382              		.loc 1 350 3 view .LVU199
 1383 0014 0848     		ldr	r0, .L121+4
 1384 0016 FFF7FEFF 		bl	chMtxLock
 1385              	.LVL99:
 1386              		.loc 1 351 3 view .LVU200
 1387 001a 064B     		ldr	r3, .L121
 1388 001c 1A68     		ldr	r2, [r3]
 1389 001e 019B     		ldr	r3, [sp, #4]
 1390 0020 5A40     		eors	r2, r3, r2
 1391 0022 05D1     		bne	.L120
 1392 0024 0448     		ldr	r0, .L121+4
 1393              		.loc 1 352 1 is_stmt 0 view .LVU201
 1394 0026 03B0     		add	sp, sp, #12
 1395              		.cfi_remember_state
 1396              		.cfi_def_cfa_offset 4
 1397              		@ sp needed
 1398 0028 5DF804EB 		ldr	lr, [sp], #4
 1399              		.cfi_restore 14
 1400              		.cfi_def_cfa_offset 0
 1401              		.loc 1 351 3 view .LVU202
 1402 002c FFF7FEBF 		b	chMtxUnlock
 1403              	.LVL100:
 1404              	.L120:
 1405              		.cfi_restore_state
 1406 0030 FFF7FEFF 		bl	__stack_chk_fail
 1407              	.LVL101:
 1408              	.L122:
 1409              		.align	2
 1410              	.L121:
 1411 0034 00000000 		.word	.LC22
 1412 0038 00000000 		.word	.LANCHOR0
 1413              		.cfi_endproc
 1414              	.LFE236:
 1415              		.size	thread4b, .-thread4b
 1416              		.section	.rodata.thread4a.cst4,"aM",%progbits,4
 1417              		.align	2
 1418              	.LC23:
 1419 0000 00000000 		.word	__stack_chk_guard
 1420              		.section	.text.thread4a,"ax",%progbits
 1421              		.align	1
 1422              		.p2align 4,,15
 1423              		.syntax unified
 1424              		.thumb
ARM GAS  /tmp/ccqhiTbD.s 			page 26


 1425              		.thumb_func
 1426              		.fpu fpv4-sp-d16
 1427              		.type	thread4a, %function
 1428              	thread4a:
 1429              	.LVL102:
 1430              	.LFB235:
 1431              		.loc 1 338 34 is_stmt 1 view -0
 1432              		.cfi_startproc
 1433              		@ args = 0, pretend = 0, frame = 8
 1434              		@ frame_needed = 0, uses_anonymous_args = 0
 1435              		.loc 1 338 34 is_stmt 0 view .LVU204
 1436 0000 00B5     		push	{lr}
 1437              		.cfi_def_cfa_offset 4
 1438              		.cfi_offset 14, -4
 1439 0002 0C4B     		ldr	r3, .L128
 1440 0004 83B0     		sub	sp, sp, #12
 1441              		.cfi_def_cfa_offset 16
 1442              		.loc 1 341 3 view .LVU205
 1443 0006 3220     		movs	r0, #50
 1444              	.LVL103:
 1445              		.loc 1 338 34 view .LVU206
 1446 0008 1B68     		ldr	r3, [r3]
 1447 000a 0193     		str	r3, [sp, #4]
 1448 000c 4FF00003 		mov	r3,#0
 1449              		.loc 1 340 3 is_stmt 1 view .LVU207
 1450              		.loc 1 341 3 view .LVU208
 1451 0010 FFF7FEFF 		bl	chThdSleep
 1452              	.LVL104:
 1453              		.loc 1 342 3 view .LVU209
 1454 0014 0848     		ldr	r0, .L128+4
 1455 0016 FFF7FEFF 		bl	chMtxLock
 1456              	.LVL105:
 1457              		.loc 1 343 3 view .LVU210
 1458 001a 064B     		ldr	r3, .L128
 1459 001c 1A68     		ldr	r2, [r3]
 1460 001e 019B     		ldr	r3, [sp, #4]
 1461 0020 5A40     		eors	r2, r3, r2
 1462 0022 05D1     		bne	.L127
 1463 0024 0448     		ldr	r0, .L128+4
 1464              		.loc 1 344 1 is_stmt 0 view .LVU211
 1465 0026 03B0     		add	sp, sp, #12
 1466              		.cfi_remember_state
 1467              		.cfi_def_cfa_offset 4
 1468              		@ sp needed
 1469 0028 5DF804EB 		ldr	lr, [sp], #4
 1470              		.cfi_restore 14
 1471              		.cfi_def_cfa_offset 0
 1472              		.loc 1 343 3 view .LVU212
 1473 002c FFF7FEBF 		b	chMtxUnlock
 1474              	.LVL106:
 1475              	.L127:
 1476              		.cfi_restore_state
 1477 0030 FFF7FEFF 		bl	__stack_chk_fail
 1478              	.LVL107:
 1479              	.L129:
 1480              		.align	2
 1481              	.L128:
ARM GAS  /tmp/ccqhiTbD.s 			page 27


 1482 0034 00000000 		.word	.LC23
 1483 0038 00000000 		.word	.LANCHOR1
 1484              		.cfi_endproc
 1485              	.LFE235:
 1486              		.size	thread4a, .-thread4a
 1487              		.section	.rodata.mtx4_execute.cst4,"aM",%progbits,4
 1488              		.align	2
 1489              	.LC24:
 1490 0000 00000000 		.word	__stack_chk_guard
 1491              		.section	.text.mtx4_execute,"ax",%progbits
 1492              		.align	1
 1493              		.p2align 4,,15
 1494              		.syntax unified
 1495              		.thumb
 1496              		.thumb_func
 1497              		.fpu fpv4-sp-d16
 1498              		.type	mtx4_execute, %function
 1499              	mtx4_execute:
 1500              	.LFB237:
 1501              		.loc 1 354 32 is_stmt 1 view -0
 1502              		.cfi_startproc
 1503              		@ args = 0, pretend = 0, frame = 8
 1504              		@ frame_needed = 0, uses_anonymous_args = 0
 1505 0000 2DE9F047 		push	{r4, r5, r6, r7, r8, r9, r10, lr}
 1506              		.cfi_def_cfa_offset 32
 1507              		.cfi_offset 4, -32
 1508              		.cfi_offset 5, -28
 1509              		.cfi_offset 6, -24
 1510              		.cfi_offset 7, -20
 1511              		.cfi_offset 8, -16
 1512              		.cfi_offset 9, -12
 1513              		.cfi_offset 10, -8
 1514              		.cfi_offset 14, -4
 1515              	.LBB253:
 1516              	.LBB254:
 1517              	.LBB255:
 1518              	.LBB256:
 1519              		.loc 2 176 18 is_stmt 0 view .LVU214
 1520 0004 9C4D     		ldr	r5, .L141
 1521              	.LBE256:
 1522              	.LBE255:
 1523              	.LBE254:
 1524              	.LBE253:
 1525              		.loc 1 360 16 view .LVU215
 1526 0006 9D4E     		ldr	r6, .L141+4
 1527              	.LBB262:
 1528              	.LBB259:
 1529              		.loc 2 189 25 view .LVU216
 1530 0008 AB69     		ldr	r3, [r5, #24]
 1531              	.LBE259:
 1532              	.LBE262:
 1533              		.loc 1 360 16 view .LVU217
 1534 000a D6F800A0 		ldr	r10, [r6]
 1535              	.LBB263:
 1536              	.LBB260:
 1537              		.loc 2 189 25 view .LVU218
 1538 000e 9C68     		ldr	r4, [r3, #8]
ARM GAS  /tmp/ccqhiTbD.s 			page 28


 1539              	.LBE260:
 1540              	.LBE263:
 1541              		.loc 1 354 32 view .LVU219
 1542 0010 9B49     		ldr	r1, .L141+8
 1543              		.loc 1 360 16 view .LVU220
 1544 0012 9C4B     		ldr	r3, .L141+12
 1545              		.loc 1 354 32 view .LVU221
 1546 0014 84B0     		sub	sp, sp, #16
 1547              		.cfi_def_cfa_offset 48
 1548              		.loc 1 358 6 view .LVU222
 1549 0016 671C     		adds	r7, r4, #1
 1550              		.loc 1 360 16 view .LVU223
 1551 0018 0093     		str	r3, [sp]
 1552 001a 3A46     		mov	r2, r7
 1553 001c 9A4B     		ldr	r3, .L141+16
 1554              		.loc 1 354 32 view .LVU224
 1555 001e 0968     		ldr	r1, [r1]
 1556 0020 0391     		str	r1, [sp, #12]
 1557 0022 4FF00001 		mov	r1,#0
 1558              		.loc 1 355 3 is_stmt 1 view .LVU225
 1559              		.loc 1 357 3 view .LVU226
 1560              	.LBB264:
 1561              	.LBI253:
 1562              		.loc 2 187 23 view .LVU227
 1563              	.LBB261:
 1564              		.loc 2 189 3 view .LVU228
 1565              	.LBB258:
 1566              	.LBI255:
 1567              		.loc 2 174 25 view .LVU229
 1568              	.LBB257:
 1569              		.loc 2 176 3 view .LVU230
 1570              	.LVL108:
 1571              		.loc 2 176 3 is_stmt 0 view .LVU231
 1572              	.LBE257:
 1573              	.LBE258:
 1574              	.LBE261:
 1575              	.LBE264:
 1576              		.loc 1 358 3 is_stmt 1 view .LVU232
 1577              		.loc 1 359 3 view .LVU233
 1578              		.loc 1 360 16 is_stmt 0 view .LVU234
 1579 0026 5046     		mov	r0, r10
 1580 0028 4FF4FC71 		mov	r1, #504
 1581 002c FFF7FEFF 		bl	chThdCreateStatic
 1582              	.LVL109:
 1583              		.loc 1 361 16 view .LVU235
 1584 0030 D6F80490 		ldr	r9, [r6, #4]
 1585              		.loc 1 360 14 view .LVU236
 1586 0034 954E     		ldr	r6, .L141+20
 1587              		.loc 1 361 16 view .LVU237
 1588 0036 964B     		ldr	r3, .L141+24
 1589 0038 0093     		str	r3, [sp]
 1590              		.loc 1 360 16 view .LVU238
 1591 003a 0146     		mov	r1, r0
 1592              		.loc 1 359 6 view .LVU239
 1593 003c 04F10208 		add	r8, r4, #2
 1594              	.LVL110:
 1595              		.loc 1 360 3 is_stmt 1 view .LVU240
ARM GAS  /tmp/ccqhiTbD.s 			page 29


 1596              		.loc 1 361 16 is_stmt 0 view .LVU241
 1597 0040 944B     		ldr	r3, .L141+28
 1598              		.loc 1 360 14 view .LVU242
 1599 0042 3160     		str	r1, [r6]
 1600              		.loc 1 361 3 is_stmt 1 view .LVU243
 1601              		.loc 1 361 16 is_stmt 0 view .LVU244
 1602 0044 4246     		mov	r2, r8
 1603 0046 4FF4FC71 		mov	r1, #504
 1604 004a 4846     		mov	r0, r9
 1605 004c FFF7FEFF 		bl	chThdCreateStatic
 1606              	.LVL111:
 1607 0050 0346     		mov	r3, r0
 1608              		.loc 1 362 3 view .LVU245
 1609 0052 9148     		ldr	r0, .L141+32
 1610              		.loc 1 361 14 view .LVU246
 1611 0054 7360     		str	r3, [r6, #4]
 1612              		.loc 1 362 3 is_stmt 1 view .LVU247
 1613 0056 FFF7FEFF 		bl	chMtxLock
 1614              	.LVL112:
 1615              		.loc 1 363 3 view .LVU248
 1616              	.LBB265:
 1617              	.LBI265:
 1618              		.loc 2 187 23 view .LVU249
 1619              	.LBB266:
 1620              		.loc 2 189 3 view .LVU250
 1621              	.LBB267:
 1622              	.LBI267:
 1623              		.loc 2 174 25 view .LVU251
 1624              	.LBB268:
 1625              		.loc 2 176 3 view .LVU252
 1626              	.LBE268:
 1627              	.LBE267:
 1628              		.loc 2 189 25 is_stmt 0 view .LVU253
 1629 005a AB69     		ldr	r3, [r5, #24]
 1630              	.LBE266:
 1631              	.LBE265:
 1632              		.loc 1 363 3 view .LVU254
 1633 005c 9968     		ldr	r1, [r3, #8]
 1634 005e 091B     		subs	r1, r1, r4
 1635 0060 B1FA81F1 		clz	r1, r1
 1636 0064 0120     		movs	r0, #1
 1637 0066 4909     		lsrs	r1, r1, #5
 1638 0068 FFF7FEFF 		bl	_test_assert
 1639              	.LVL113:
 1640 006c 40B1     		cbz	r0, .L139
 1641              	.L130:
 1642              		.loc 1 399 1 view .LVU255
 1643 006e 844B     		ldr	r3, .L141+8
 1644 0070 1A68     		ldr	r2, [r3]
 1645 0072 039B     		ldr	r3, [sp, #12]
 1646 0074 5A40     		eors	r2, r3, r2
 1647 0076 40F0F880 		bne	.L138
 1648 007a 04B0     		add	sp, sp, #16
 1649              		.cfi_remember_state
 1650              		.cfi_def_cfa_offset 32
 1651              		@ sp needed
 1652 007c BDE8F087 		pop	{r4, r5, r6, r7, r8, r9, r10, pc}
ARM GAS  /tmp/ccqhiTbD.s 			page 30


 1653              	.LVL114:
 1654              	.L139:
 1655              		.cfi_restore_state
 1656              		.loc 1 363 67 is_stmt 1 discriminator 2 view .LVU256
 1657              		.loc 1 364 3 discriminator 2 view .LVU257
 1658 0080 6420     		movs	r0, #100
 1659 0082 FFF7FEFF 		bl	chThdSleep
 1660              	.LVL115:
 1661              		.loc 1 365 3 discriminator 2 view .LVU258
 1662              	.LBB269:
 1663              	.LBI269:
 1664              		.loc 2 187 23 discriminator 2 view .LVU259
 1665              	.LBB270:
 1666              		.loc 2 189 3 discriminator 2 view .LVU260
 1667              	.LBB271:
 1668              	.LBI271:
 1669              		.loc 2 174 25 discriminator 2 view .LVU261
 1670              	.LBB272:
 1671              		.loc 2 176 3 discriminator 2 view .LVU262
 1672              	.LBE272:
 1673              	.LBE271:
 1674              		.loc 2 189 25 is_stmt 0 discriminator 2 view .LVU263
 1675 0086 AB69     		ldr	r3, [r5, #24]
 1676              	.LBE270:
 1677              	.LBE269:
 1678              		.loc 1 365 3 discriminator 2 view .LVU264
 1679 0088 9968     		ldr	r1, [r3, #8]
 1680 008a C91B     		subs	r1, r1, r7
 1681 008c B1FA81F1 		clz	r1, r1
 1682 0090 0220     		movs	r0, #2
 1683 0092 4909     		lsrs	r1, r1, #5
 1684 0094 FFF7FEFF 		bl	_test_assert
 1685              	.LVL116:
 1686 0098 0028     		cmp	r0, #0
 1687 009a E8D1     		bne	.L130
 1688              		.loc 1 365 68 is_stmt 1 discriminator 2 view .LVU265
 1689              		.loc 1 366 3 discriminator 2 view .LVU266
 1690 009c 7F48     		ldr	r0, .L141+36
 1691 009e FFF7FEFF 		bl	chMtxLock
 1692              	.LVL117:
 1693              		.loc 1 367 3 discriminator 2 view .LVU267
 1694              	.LBB273:
 1695              	.LBI273:
 1696              		.loc 2 187 23 discriminator 2 view .LVU268
 1697              	.LBB274:
 1698              		.loc 2 189 3 discriminator 2 view .LVU269
 1699              	.LBB275:
 1700              	.LBI275:
 1701              		.loc 2 174 25 discriminator 2 view .LVU270
 1702              	.LBB276:
 1703              		.loc 2 176 3 discriminator 2 view .LVU271
 1704              	.LBE276:
 1705              	.LBE275:
 1706              		.loc 2 189 25 is_stmt 0 discriminator 2 view .LVU272
 1707 00a2 AB69     		ldr	r3, [r5, #24]
 1708              	.LBE274:
 1709              	.LBE273:
ARM GAS  /tmp/ccqhiTbD.s 			page 31


 1710              		.loc 1 367 3 discriminator 2 view .LVU273
 1711 00a4 9968     		ldr	r1, [r3, #8]
 1712 00a6 C91B     		subs	r1, r1, r7
 1713 00a8 B1FA81F1 		clz	r1, r1
 1714 00ac 0320     		movs	r0, #3
 1715 00ae 4909     		lsrs	r1, r1, #5
 1716 00b0 FFF7FEFF 		bl	_test_assert
 1717              	.LVL118:
 1718 00b4 0028     		cmp	r0, #0
 1719 00b6 DAD1     		bne	.L130
 1720              		.loc 1 367 68 is_stmt 1 discriminator 2 view .LVU274
 1721              		.loc 1 368 3 discriminator 2 view .LVU275
 1722 00b8 6420     		movs	r0, #100
 1723 00ba FFF7FEFF 		bl	chThdSleep
 1724              	.LVL119:
 1725              		.loc 1 369 3 discriminator 2 view .LVU276
 1726              	.LBB277:
 1727              	.LBI277:
 1728              		.loc 2 187 23 discriminator 2 view .LVU277
 1729              	.LBB278:
 1730              		.loc 2 189 3 discriminator 2 view .LVU278
 1731              	.LBB279:
 1732              	.LBI279:
 1733              		.loc 2 174 25 discriminator 2 view .LVU279
 1734              	.LBB280:
 1735              		.loc 2 176 3 discriminator 2 view .LVU280
 1736              	.LBE280:
 1737              	.LBE279:
 1738              		.loc 2 189 25 is_stmt 0 discriminator 2 view .LVU281
 1739 00be AB69     		ldr	r3, [r5, #24]
 1740              	.LBE278:
 1741              	.LBE277:
 1742              		.loc 1 369 3 discriminator 2 view .LVU282
 1743 00c0 9968     		ldr	r1, [r3, #8]
 1744 00c2 A1EB0801 		sub	r1, r1, r8
 1745 00c6 B1FA81F1 		clz	r1, r1
 1746 00ca 0420     		movs	r0, #4
 1747 00cc 4909     		lsrs	r1, r1, #5
 1748 00ce FFF7FEFF 		bl	_test_assert
 1749              	.LVL120:
 1750 00d2 0028     		cmp	r0, #0
 1751 00d4 CBD1     		bne	.L130
 1752              		.loc 1 369 68 is_stmt 1 discriminator 2 view .LVU283
 1753              		.loc 1 370 3 discriminator 2 view .LVU284
 1754 00d6 7148     		ldr	r0, .L141+36
 1755 00d8 FFF7FEFF 		bl	chMtxUnlock
 1756              	.LVL121:
 1757              		.loc 1 371 3 discriminator 2 view .LVU285
 1758              	.LBB281:
 1759              	.LBI281:
 1760              		.loc 2 187 23 discriminator 2 view .LVU286
 1761              	.LBB282:
 1762              		.loc 2 189 3 discriminator 2 view .LVU287
 1763              	.LBB283:
 1764              	.LBI283:
 1765              		.loc 2 174 25 discriminator 2 view .LVU288
 1766              	.LBB284:
ARM GAS  /tmp/ccqhiTbD.s 			page 32


 1767              		.loc 2 176 3 discriminator 2 view .LVU289
 1768              	.LBE284:
 1769              	.LBE283:
 1770              		.loc 2 189 25 is_stmt 0 discriminator 2 view .LVU290
 1771 00dc AB69     		ldr	r3, [r5, #24]
 1772              	.LBE282:
 1773              	.LBE281:
 1774              		.loc 1 371 3 discriminator 2 view .LVU291
 1775 00de 9968     		ldr	r1, [r3, #8]
 1776 00e0 C91B     		subs	r1, r1, r7
 1777 00e2 B1FA81F1 		clz	r1, r1
 1778 00e6 0520     		movs	r0, #5
 1779 00e8 4909     		lsrs	r1, r1, #5
 1780 00ea FFF7FEFF 		bl	_test_assert
 1781              	.LVL122:
 1782 00ee 0028     		cmp	r0, #0
 1783 00f0 BDD1     		bne	.L130
 1784              		.loc 1 371 68 is_stmt 1 discriminator 2 view .LVU292
 1785              		.loc 1 372 3 discriminator 2 view .LVU293
 1786 00f2 6420     		movs	r0, #100
 1787 00f4 FFF7FEFF 		bl	chThdSleep
 1788              	.LVL123:
 1789              		.loc 1 373 3 discriminator 2 view .LVU294
 1790              	.LBB285:
 1791              	.LBI285:
 1792              		.loc 2 187 23 discriminator 2 view .LVU295
 1793              	.LBB286:
 1794              		.loc 2 189 3 discriminator 2 view .LVU296
 1795              	.LBB287:
 1796              	.LBI287:
 1797              		.loc 2 174 25 discriminator 2 view .LVU297
 1798              	.LBB288:
 1799              		.loc 2 176 3 discriminator 2 view .LVU298
 1800              	.LBE288:
 1801              	.LBE287:
 1802              		.loc 2 189 25 is_stmt 0 discriminator 2 view .LVU299
 1803 00f8 AB69     		ldr	r3, [r5, #24]
 1804              	.LBE286:
 1805              	.LBE285:
 1806              		.loc 1 373 3 discriminator 2 view .LVU300
 1807 00fa 9968     		ldr	r1, [r3, #8]
 1808 00fc C91B     		subs	r1, r1, r7
 1809 00fe B1FA81F1 		clz	r1, r1
 1810 0102 0620     		movs	r0, #6
 1811 0104 4909     		lsrs	r1, r1, #5
 1812 0106 FFF7FEFF 		bl	_test_assert
 1813              	.LVL124:
 1814 010a 0028     		cmp	r0, #0
 1815 010c AFD1     		bne	.L130
 1816              		.loc 1 373 68 is_stmt 1 discriminator 2 view .LVU301
 1817              		.loc 1 374 3 discriminator 2 view .LVU302
 1818 010e FFF7FEFF 		bl	chMtxUnlockAll
 1819              	.LVL125:
 1820              		.loc 1 375 3 discriminator 2 view .LVU303
 1821              	.LBB289:
 1822              	.LBI289:
 1823              		.loc 2 187 23 discriminator 2 view .LVU304
ARM GAS  /tmp/ccqhiTbD.s 			page 33


 1824              	.LBB290:
 1825              		.loc 2 189 3 discriminator 2 view .LVU305
 1826              	.LBB291:
 1827              	.LBI291:
 1828              		.loc 2 174 25 discriminator 2 view .LVU306
 1829              	.LBB292:
 1830              		.loc 2 176 3 discriminator 2 view .LVU307
 1831              	.LBE292:
 1832              	.LBE291:
 1833              		.loc 2 189 25 is_stmt 0 discriminator 2 view .LVU308
 1834 0112 AB69     		ldr	r3, [r5, #24]
 1835              	.LBE290:
 1836              	.LBE289:
 1837              		.loc 1 375 3 discriminator 2 view .LVU309
 1838 0114 9968     		ldr	r1, [r3, #8]
 1839 0116 091B     		subs	r1, r1, r4
 1840 0118 B1FA81F1 		clz	r1, r1
 1841 011c 0720     		movs	r0, #7
 1842 011e 4909     		lsrs	r1, r1, #5
 1843 0120 FFF7FEFF 		bl	_test_assert
 1844              	.LVL126:
 1845 0124 0028     		cmp	r0, #0
 1846 0126 A2D1     		bne	.L130
 1847              		.loc 1 375 67 is_stmt 1 discriminator 2 view .LVU310
 1848              		.loc 1 376 3 discriminator 2 view .LVU311
 1849 0128 FFF7FEFF 		bl	test_wait_threads
 1850              	.LVL127:
 1851              		.loc 1 379 3 discriminator 2 view .LVU312
 1852              		.loc 1 379 16 is_stmt 0 discriminator 2 view .LVU313
 1853 012c 5C4B     		ldr	r3, .L141+40
 1854 012e 0093     		str	r3, [sp]
 1855 0130 3A46     		mov	r2, r7
 1856 0132 554B     		ldr	r3, .L141+16
 1857 0134 4FF4FC71 		mov	r1, #504
 1858 0138 5046     		mov	r0, r10
 1859 013a FFF7FEFF 		bl	chThdCreateStatic
 1860              	.LVL128:
 1861              		.loc 1 380 16 discriminator 2 view .LVU314
 1862 013e 594B     		ldr	r3, .L141+44
 1863 0140 0093     		str	r3, [sp]
 1864              		.loc 1 379 16 discriminator 2 view .LVU315
 1865 0142 0246     		mov	r2, r0
 1866              		.loc 1 380 16 discriminator 2 view .LVU316
 1867 0144 4FF4FC71 		mov	r1, #504
 1868 0148 524B     		ldr	r3, .L141+28
 1869              		.loc 1 379 14 discriminator 2 view .LVU317
 1870 014a 3260     		str	r2, [r6]
 1871              		.loc 1 380 3 is_stmt 1 discriminator 2 view .LVU318
 1872              		.loc 1 380 16 is_stmt 0 discriminator 2 view .LVU319
 1873 014c 4846     		mov	r0, r9
 1874 014e 4246     		mov	r2, r8
 1875 0150 FFF7FEFF 		bl	chThdCreateStatic
 1876              	.LVL129:
 1877 0154 0346     		mov	r3, r0
 1878              		.loc 1 381 3 discriminator 2 view .LVU320
 1879 0156 5048     		ldr	r0, .L141+32
 1880              		.loc 1 380 14 discriminator 2 view .LVU321
ARM GAS  /tmp/ccqhiTbD.s 			page 34


 1881 0158 7360     		str	r3, [r6, #4]
 1882              		.loc 1 381 3 is_stmt 1 discriminator 2 view .LVU322
 1883 015a FFF7FEFF 		bl	chMtxLock
 1884              	.LVL130:
 1885              		.loc 1 382 3 discriminator 2 view .LVU323
 1886              	.LBB293:
 1887              	.LBI293:
 1888              		.loc 2 187 23 discriminator 2 view .LVU324
 1889              	.LBB294:
 1890              		.loc 2 189 3 discriminator 2 view .LVU325
 1891              	.LBB295:
 1892              	.LBI295:
 1893              		.loc 2 174 25 discriminator 2 view .LVU326
 1894              	.LBB296:
 1895              		.loc 2 176 3 discriminator 2 view .LVU327
 1896              	.LBE296:
 1897              	.LBE295:
 1898              		.loc 2 189 25 is_stmt 0 discriminator 2 view .LVU328
 1899 015e AB69     		ldr	r3, [r5, #24]
 1900              	.LBE294:
 1901              	.LBE293:
 1902              		.loc 1 382 3 discriminator 2 view .LVU329
 1903 0160 9968     		ldr	r1, [r3, #8]
 1904 0162 091B     		subs	r1, r1, r4
 1905 0164 B1FA81F1 		clz	r1, r1
 1906 0168 0820     		movs	r0, #8
 1907 016a 4909     		lsrs	r1, r1, #5
 1908 016c FFF7FEFF 		bl	_test_assert
 1909              	.LVL131:
 1910 0170 0028     		cmp	r0, #0
 1911 0172 7FF47CAF 		bne	.L130
 1912              		.loc 1 382 67 is_stmt 1 discriminator 2 view .LVU330
 1913              		.loc 1 383 3 discriminator 2 view .LVU331
 1914 0176 6420     		movs	r0, #100
 1915 0178 FFF7FEFF 		bl	chThdSleep
 1916              	.LVL132:
 1917              		.loc 1 384 3 discriminator 2 view .LVU332
 1918              	.LBB297:
 1919              	.LBI297:
 1920              		.loc 2 187 23 discriminator 2 view .LVU333
 1921              	.LBB298:
 1922              		.loc 2 189 3 discriminator 2 view .LVU334
 1923              	.LBB299:
 1924              	.LBI299:
 1925              		.loc 2 174 25 discriminator 2 view .LVU335
 1926              	.LBB300:
 1927              		.loc 2 176 3 discriminator 2 view .LVU336
 1928              	.LBE300:
 1929              	.LBE299:
 1930              		.loc 2 189 25 is_stmt 0 discriminator 2 view .LVU337
 1931 017c AB69     		ldr	r3, [r5, #24]
 1932              	.LBE298:
 1933              	.LBE297:
 1934              		.loc 1 384 3 discriminator 2 view .LVU338
 1935 017e 9968     		ldr	r1, [r3, #8]
 1936 0180 C91B     		subs	r1, r1, r7
 1937 0182 B1FA81F1 		clz	r1, r1
ARM GAS  /tmp/ccqhiTbD.s 			page 35


 1938 0186 0920     		movs	r0, #9
 1939 0188 4909     		lsrs	r1, r1, #5
 1940 018a FFF7FEFF 		bl	_test_assert
 1941              	.LVL133:
 1942 018e 0028     		cmp	r0, #0
 1943 0190 7FF46DAF 		bne	.L130
 1944              		.loc 1 384 68 is_stmt 1 discriminator 2 view .LVU339
 1945              		.loc 1 385 3 discriminator 2 view .LVU340
 1946 0194 4148     		ldr	r0, .L141+36
 1947 0196 FFF7FEFF 		bl	chMtxLock
 1948              	.LVL134:
 1949              		.loc 1 386 3 discriminator 2 view .LVU341
 1950              	.LBB301:
 1951              	.LBI301:
 1952              		.loc 2 187 23 discriminator 2 view .LVU342
 1953              	.LBB302:
 1954              		.loc 2 189 3 discriminator 2 view .LVU343
 1955              	.LBB303:
 1956              	.LBI303:
 1957              		.loc 2 174 25 discriminator 2 view .LVU344
 1958              	.LBB304:
 1959              		.loc 2 176 3 discriminator 2 view .LVU345
 1960              	.LBE304:
 1961              	.LBE303:
 1962              		.loc 2 189 25 is_stmt 0 discriminator 2 view .LVU346
 1963 019a AB69     		ldr	r3, [r5, #24]
 1964              	.LBE302:
 1965              	.LBE301:
 1966              		.loc 1 386 3 discriminator 2 view .LVU347
 1967 019c 9968     		ldr	r1, [r3, #8]
 1968 019e C91B     		subs	r1, r1, r7
 1969 01a0 B1FA81F1 		clz	r1, r1
 1970 01a4 0A20     		movs	r0, #10
 1971 01a6 4909     		lsrs	r1, r1, #5
 1972 01a8 FFF7FEFF 		bl	_test_assert
 1973              	.LVL135:
 1974 01ac 0028     		cmp	r0, #0
 1975 01ae 7FF45EAF 		bne	.L130
 1976              		.loc 1 386 69 is_stmt 1 discriminator 2 view .LVU348
 1977              		.loc 1 387 3 discriminator 2 view .LVU349
 1978 01b2 6420     		movs	r0, #100
 1979 01b4 FFF7FEFF 		bl	chThdSleep
 1980              	.LVL136:
 1981              		.loc 1 388 3 discriminator 2 view .LVU350
 1982              	.LBB305:
 1983              	.LBI305:
 1984              		.loc 2 187 23 discriminator 2 view .LVU351
 1985              	.LBB306:
 1986              		.loc 2 189 3 discriminator 2 view .LVU352
 1987              	.LBB307:
 1988              	.LBI307:
 1989              		.loc 2 174 25 discriminator 2 view .LVU353
 1990              	.LBB308:
 1991              		.loc 2 176 3 discriminator 2 view .LVU354
 1992              	.LBE308:
 1993              	.LBE307:
 1994              		.loc 2 189 25 is_stmt 0 discriminator 2 view .LVU355
ARM GAS  /tmp/ccqhiTbD.s 			page 36


 1995 01b8 AB69     		ldr	r3, [r5, #24]
 1996              	.LBE306:
 1997              	.LBE305:
 1998              		.loc 1 388 3 discriminator 2 view .LVU356
 1999 01ba 9968     		ldr	r1, [r3, #8]
 2000 01bc A1EB080C 		sub	ip, r1, r8
 2001 01c0 DCF10001 		rsbs	r1, ip, #0
 2002 01c4 41EB0C01 		adc	r1, r1, ip
 2003 01c8 0B20     		movs	r0, #11
 2004 01ca FFF7FEFF 		bl	_test_assert
 2005              	.LVL137:
 2006 01ce 0028     		cmp	r0, #0
 2007 01d0 7FF44DAF 		bne	.L130
 2008              		.loc 1 388 69 is_stmt 1 view .LVU357
 2009              		.loc 1 389 3 view .LVU358
 2010              	.LBB309:
 2011              	.LBI309:
 2012              		.file 3 ".//ChibiOS//os/rt/include/chsys.h"
 2013              		.loc 3 346 20 view .LVU359
 2014              	.LBB310:
 2015              		.loc 3 348 3 view .LVU360
 2016              	.LBB311:
 2017              	.LBI311:
 2018              		.file 4 ".//ChibiOS//os/rt/ports/ARMCMx/chcore_v7m.h"
 2019              		.loc 4 444 20 view .LVU361
 2020              	.LBE311:
 2021              	.LBE310:
 2022              	.LBE309:
 2023              		.loc 4 447 3 view .LVU362
 2024              	.LVL138:
 2025              	.LBB316:
 2026              	.LBB315:
 2027              	.LBB314:
 2028              	.LBB312:
 2029              	.LBI312:
 2030              		.file 5 ".//ChibiOS//os/ext/CMSIS/include/core_cmFunc.h"
 2031              		.loc 5 544 57 view .LVU363
 2032              	.LBB313:
 2033              		.loc 5 546 3 view .LVU364
 2034 01d4 2023     		movs	r3, #32
 2035              		.syntax unified
 2036              	@ 546 ".//ChibiOS//os/ext/CMSIS/include/core_cmFunc.h" 1
 2037 01d6 83F31188 		MSR basepri, r3
 2038              	@ 0 "" 2
 2039              	.LVL139:
 2040              		.loc 5 546 3 is_stmt 0 view .LVU365
 2041              		.thumb
 2042              		.syntax unified
 2043              	.LBE313:
 2044              	.LBE312:
 2045              	.LBE314:
 2046              		.loc 3 349 3 is_stmt 1 view .LVU366
 2047 01da FFF7FEFF 		bl	_stats_start_measure_crit_thd
 2048              	.LVL140:
 2049              		.loc 3 350 3 view .LVU367
 2050 01de FFF7FEFF 		bl	_dbg_check_lock
 2051              	.LVL141:
ARM GAS  /tmp/ccqhiTbD.s 			page 37


 2052              	.LBE315:
 2053              	.LBE316:
 2054              		.loc 1 390 3 view .LVU368
 2055 01e2 2E48     		ldr	r0, .L141+36
 2056 01e4 FFF7FEFF 		bl	chMtxUnlockS
 2057              	.LVL142:
 2058              		.loc 1 391 3 view .LVU369
 2059 01e8 FFF7FEFF 		bl	chSchRescheduleS
 2060              	.LVL143:
 2061              		.loc 1 392 3 view .LVU370
 2062              	.LBB317:
 2063              	.LBI317:
 2064              		.loc 3 358 20 view .LVU371
 2065              	.LBB318:
 2066              		.loc 3 360 3 view .LVU372
 2067 01ec FFF7FEFF 		bl	_dbg_check_unlock
 2068              	.LVL144:
 2069              		.loc 3 361 3 view .LVU373
 2070 01f0 FFF7FEFF 		bl	_stats_stop_measure_crit_thd
 2071              	.LVL145:
 2072              		.loc 3 367 3 view .LVU374
 2073              		.loc 3 367 3 view .LVU375
 2074              		.loc 3 367 3 view .LVU376
 2075 01f4 2B68     		ldr	r3, [r5]
 2076 01f6 AB42     		cmp	r3, r5
 2077 01f8 04D0     		beq	.L134
 2078 01fa AA69     		ldr	r2, [r5, #24]
 2079 01fc 9B68     		ldr	r3, [r3, #8]
 2080 01fe 9268     		ldr	r2, [r2, #8]
 2081 0200 9A42     		cmp	r2, r3
 2082 0202 34D3     		bcc	.L140
 2083              	.L134:
 2084              		.loc 3 367 3 view .LVU377
 2085              		.loc 3 371 3 view .LVU378
 2086              	.LBB319:
 2087              	.LBI319:
 2088              		.loc 4 458 20 view .LVU379
 2089              	.LBE319:
 2090              	.LBE318:
 2091              	.LBE317:
 2092              		.loc 4 461 3 view .LVU380
 2093              	.LVL146:
 2094              	.LBB325:
 2095              	.LBB323:
 2096              	.LBB322:
 2097              	.LBB320:
 2098              	.LBI320:
 2099              		.loc 5 544 57 view .LVU381
 2100              	.LBB321:
 2101              		.loc 5 546 3 view .LVU382
 2102 0204 0023     		movs	r3, #0
 2103              		.syntax unified
 2104              	@ 546 ".//ChibiOS//os/ext/CMSIS/include/core_cmFunc.h" 1
 2105 0206 83F31188 		MSR basepri, r3
 2106              	@ 0 "" 2
 2107              	.LVL147:
 2108              		.loc 5 546 3 is_stmt 0 view .LVU383
ARM GAS  /tmp/ccqhiTbD.s 			page 38


 2109              		.thumb
 2110              		.syntax unified
 2111              	.LBE321:
 2112              	.LBE320:
 2113              	.LBE322:
 2114              	.LBE323:
 2115              	.LBE325:
 2116              		.loc 1 393 3 is_stmt 1 view .LVU384
 2117              	.LBB326:
 2118              	.LBI326:
 2119              		.loc 2 187 23 view .LVU385
 2120              	.LBB327:
 2121              		.loc 2 189 3 view .LVU386
 2122              	.LBB328:
 2123              	.LBI328:
 2124              		.loc 2 174 25 view .LVU387
 2125              	.LBB329:
 2126              		.loc 2 176 3 view .LVU388
 2127              	.LBE329:
 2128              	.LBE328:
 2129              		.loc 2 189 25 is_stmt 0 view .LVU389
 2130 020a AB69     		ldr	r3, [r5, #24]
 2131              	.LBE327:
 2132              	.LBE326:
 2133              		.loc 1 393 3 view .LVU390
 2134 020c 9968     		ldr	r1, [r3, #8]
 2135 020e CE1B     		subs	r6, r1, r7
 2136 0210 7142     		rsbs	r1, r6, #0
 2137 0212 7141     		adcs	r1, r1, r6
 2138 0214 0C20     		movs	r0, #12
 2139 0216 FFF7FEFF 		bl	_test_assert
 2140              	.LVL148:
 2141 021a 0028     		cmp	r0, #0
 2142 021c 7FF427AF 		bne	.L130
 2143              		.loc 1 393 69 is_stmt 1 discriminator 2 view .LVU391
 2144              		.loc 1 394 3 discriminator 2 view .LVU392
 2145 0220 6420     		movs	r0, #100
 2146 0222 FFF7FEFF 		bl	chThdSleep
 2147              	.LVL149:
 2148              		.loc 1 395 3 discriminator 2 view .LVU393
 2149              	.LBB330:
 2150              	.LBI330:
 2151              		.loc 2 187 23 discriminator 2 view .LVU394
 2152              	.LBB331:
 2153              		.loc 2 189 3 discriminator 2 view .LVU395
 2154              	.LBB332:
 2155              	.LBI332:
 2156              		.loc 2 174 25 discriminator 2 view .LVU396
 2157              	.LBB333:
 2158              		.loc 2 176 3 discriminator 2 view .LVU397
 2159              	.LBE333:
 2160              	.LBE332:
 2161              		.loc 2 189 25 is_stmt 0 discriminator 2 view .LVU398
 2162 0226 AB69     		ldr	r3, [r5, #24]
 2163              	.LBE331:
 2164              	.LBE330:
 2165              		.loc 1 395 3 discriminator 2 view .LVU399
ARM GAS  /tmp/ccqhiTbD.s 			page 39


 2166 0228 9968     		ldr	r1, [r3, #8]
 2167 022a CA1B     		subs	r2, r1, r7
 2168 022c 5142     		rsbs	r1, r2, #0
 2169 022e 5141     		adcs	r1, r1, r2
 2170 0230 0D20     		movs	r0, #13
 2171 0232 FFF7FEFF 		bl	_test_assert
 2172              	.LVL150:
 2173 0236 0028     		cmp	r0, #0
 2174 0238 7FF419AF 		bne	.L130
 2175              		.loc 1 395 69 is_stmt 1 discriminator 2 view .LVU400
 2176              		.loc 1 396 3 discriminator 2 view .LVU401
 2177 023c FFF7FEFF 		bl	chMtxUnlockAll
 2178              	.LVL151:
 2179              		.loc 1 397 3 discriminator 2 view .LVU402
 2180              	.LBB334:
 2181              	.LBI334:
 2182              		.loc 2 187 23 discriminator 2 view .LVU403
 2183              	.LBB335:
 2184              		.loc 2 189 3 discriminator 2 view .LVU404
 2185              	.LBB336:
 2186              	.LBI336:
 2187              		.loc 2 174 25 discriminator 2 view .LVU405
 2188              	.LBB337:
 2189              		.loc 2 176 3 discriminator 2 view .LVU406
 2190              	.LBE337:
 2191              	.LBE336:
 2192              		.loc 2 189 25 is_stmt 0 discriminator 2 view .LVU407
 2193 0240 AB69     		ldr	r3, [r5, #24]
 2194              	.LBE335:
 2195              	.LBE334:
 2196              		.loc 1 397 3 discriminator 2 view .LVU408
 2197 0242 9968     		ldr	r1, [r3, #8]
 2198 0244 0B1B     		subs	r3, r1, r4
 2199 0246 5942     		rsbs	r1, r3, #0
 2200 0248 5941     		adcs	r1, r1, r3
 2201 024a 0E20     		movs	r0, #14
 2202 024c FFF7FEFF 		bl	_test_assert
 2203              	.LVL152:
 2204 0250 0028     		cmp	r0, #0
 2205 0252 7FF40CAF 		bne	.L130
 2206              		.loc 1 397 68 is_stmt 1 discriminator 2 view .LVU409
 2207              		.loc 1 398 3 discriminator 2 view .LVU410
 2208 0256 0A4B     		ldr	r3, .L141+8
 2209 0258 1A68     		ldr	r2, [r3]
 2210 025a 039B     		ldr	r3, [sp, #12]
 2211 025c 5A40     		eors	r2, r3, r2
 2212 025e 04D1     		bne	.L138
 2213              		.loc 1 399 1 is_stmt 0 discriminator 2 view .LVU411
 2214 0260 04B0     		add	sp, sp, #16
 2215              		.cfi_remember_state
 2216              		.cfi_def_cfa_offset 32
 2217              		@ sp needed
 2218 0262 BDE8F047 		pop	{r4, r5, r6, r7, r8, r9, r10, lr}
 2219              		.cfi_restore 14
 2220              		.cfi_restore 10
 2221              		.cfi_restore 9
 2222              		.cfi_restore 8
ARM GAS  /tmp/ccqhiTbD.s 			page 40


 2223              		.cfi_restore 7
 2224              		.cfi_restore 6
 2225              		.cfi_restore 5
 2226              		.cfi_restore 4
 2227              		.cfi_def_cfa_offset 0
 2228              	.LVL153:
 2229              		.loc 1 398 3 discriminator 2 view .LVU412
 2230 0266 FFF7FEBF 		b	test_wait_threads
 2231              	.LVL154:
 2232              	.L138:
 2233              		.cfi_restore_state
 2234              		.loc 1 399 1 view .LVU413
 2235 026a FFF7FEFF 		bl	__stack_chk_fail
 2236              	.LVL155:
 2237              	.L140:
 2238              	.LBB338:
 2239              	.LBB324:
 2240              		.loc 3 367 3 is_stmt 1 view .LVU414
 2241 026e 0E48     		ldr	r0, .L141+48
 2242 0270 FFF7FEFF 		bl	chSysHalt
 2243              	.LVL156:
 2244 0274 C6E7     		b	.L134
 2245              	.L142:
 2246 0276 00BF     		.align	2
 2247              	.L141:
 2248 0278 00000000 		.word	ch
 2249 027c 00000000 		.word	wa
 2250 0280 00000000 		.word	.LC24
 2251 0284 0C000000 		.word	.LC3
 2252 0288 00000000 		.word	thread4a
 2253 028c 00000000 		.word	threads
 2254 0290 10000000 		.word	.LC4
 2255 0294 00000000 		.word	thread4b
 2256 0298 00000000 		.word	.LANCHOR1
 2257 029c 00000000 		.word	.LANCHOR0
 2258 02a0 04000000 		.word	.LC1
 2259 02a4 08000000 		.word	.LC2
 2260 02a8 00000000 		.word	.LANCHOR2
 2261              	.LBE324:
 2262              	.LBE338:
 2263              		.cfi_endproc
 2264              	.LFE237:
 2265              		.size	mtx4_execute, .-mtx4_execute
 2266              		.section	.rodata.thread10.cst4,"aM",%progbits,4
 2267              		.align	2
 2268              	.LC25:
 2269 0000 00000000 		.word	__stack_chk_guard
 2270              		.section	.text.thread10,"ax",%progbits
 2271              		.align	1
 2272              		.p2align 4,,15
 2273              		.syntax unified
 2274              		.thumb
 2275              		.thumb_func
 2276              		.fpu fpv4-sp-d16
 2277              		.type	thread10, %function
 2278              	thread10:
 2279              	.LVL157:
ARM GAS  /tmp/ccqhiTbD.s 			page 41


 2280              	.LFB241:
 2281              		.loc 1 475 34 view -0
 2282              		.cfi_startproc
 2283              		@ args = 0, pretend = 0, frame = 8
 2284              		@ frame_needed = 0, uses_anonymous_args = 0
 2285              		.loc 1 475 34 is_stmt 0 view .LVU416
 2286 0000 10B5     		push	{r4, lr}
 2287              		.cfi_def_cfa_offset 8
 2288              		.cfi_offset 4, -8
 2289              		.cfi_offset 14, -4
 2290 0002 0E4B     		ldr	r3, .L148
 2291 0004 82B0     		sub	sp, sp, #8
 2292              		.cfi_def_cfa_offset 16
 2293              		.loc 1 475 34 view .LVU417
 2294 0006 0446     		mov	r4, r0
 2295              		.loc 1 477 3 view .LVU418
 2296 0008 0D48     		ldr	r0, .L148+4
 2297              	.LVL158:
 2298              		.loc 1 475 34 view .LVU419
 2299 000a 1B68     		ldr	r3, [r3]
 2300 000c 0193     		str	r3, [sp, #4]
 2301 000e 4FF00003 		mov	r3,#0
 2302              		.loc 1 477 3 is_stmt 1 view .LVU420
 2303 0012 FFF7FEFF 		bl	chMtxLock
 2304              	.LVL159:
 2305              		.loc 1 478 3 view .LVU421
 2306 0016 0B48     		ldr	r0, .L148+8
 2307 0018 FFF7FEFF 		bl	chCondWait
 2308              	.LVL160:
 2309              		.loc 1 479 3 view .LVU422
 2310 001c 2078     		ldrb	r0, [r4]	@ zero_extendqisi2
 2311 001e FFF7FEFF 		bl	test_emit_token
 2312              	.LVL161:
 2313              		.loc 1 480 3 view .LVU423
 2314 0022 064B     		ldr	r3, .L148
 2315 0024 1A68     		ldr	r2, [r3]
 2316 0026 019B     		ldr	r3, [sp, #4]
 2317 0028 5A40     		eors	r2, r3, r2
 2318 002a 05D1     		bne	.L147
 2319 002c 0448     		ldr	r0, .L148+4
 2320              		.loc 1 481 1 is_stmt 0 view .LVU424
 2321 002e 02B0     		add	sp, sp, #8
 2322              		.cfi_remember_state
 2323              		.cfi_def_cfa_offset 8
 2324              		@ sp needed
 2325 0030 BDE81040 		pop	{r4, lr}
 2326              		.cfi_restore 14
 2327              		.cfi_restore 4
 2328              		.cfi_def_cfa_offset 0
 2329              	.LVL162:
 2330              		.loc 1 480 3 view .LVU425
 2331 0034 FFF7FEBF 		b	chMtxUnlock
 2332              	.LVL163:
 2333              	.L147:
 2334              		.cfi_restore_state
 2335              		.loc 1 480 3 view .LVU426
 2336 0038 FFF7FEFF 		bl	__stack_chk_fail
ARM GAS  /tmp/ccqhiTbD.s 			page 42


 2337              	.LVL164:
 2338              	.L149:
 2339              		.align	2
 2340              	.L148:
 2341 003c 00000000 		.word	.LC25
 2342 0040 00000000 		.word	.LANCHOR0
 2343 0044 00000000 		.word	.LANCHOR3
 2344              		.cfi_endproc
 2345              	.LFE241:
 2346              		.size	thread10, .-thread10
 2347              		.section	.rodata.mtx6_setup.cst4,"aM",%progbits,4
 2348              		.align	2
 2349              	.LC26:
 2350 0000 00000000 		.word	__stack_chk_guard
 2351              		.section	.text.mtx6_setup,"ax",%progbits
 2352              		.align	1
 2353              		.p2align 4,,15
 2354              		.syntax unified
 2355              		.thumb
 2356              		.thumb_func
 2357              		.fpu fpv4-sp-d16
 2358              		.type	mtx6_setup, %function
 2359              	mtx6_setup:
 2360              	.LFB240:
 2361              		.loc 1 469 30 is_stmt 1 view -0
 2362              		.cfi_startproc
 2363              		@ args = 0, pretend = 0, frame = 8
 2364              		@ frame_needed = 0, uses_anonymous_args = 0
 2365 0000 00B5     		push	{lr}
 2366              		.cfi_def_cfa_offset 4
 2367              		.cfi_offset 14, -4
 2368 0002 0B4B     		ldr	r3, .L155
 2369              		.loc 1 471 3 is_stmt 0 view .LVU428
 2370 0004 0B48     		ldr	r0, .L155+4
 2371              		.loc 1 469 30 view .LVU429
 2372 0006 83B0     		sub	sp, sp, #12
 2373              		.cfi_def_cfa_offset 16
 2374              		.loc 1 469 30 view .LVU430
 2375 0008 1B68     		ldr	r3, [r3]
 2376 000a 0193     		str	r3, [sp, #4]
 2377 000c 4FF00003 		mov	r3,#0
 2378              		.loc 1 471 3 is_stmt 1 view .LVU431
 2379 0010 FFF7FEFF 		bl	chCondObjectInit
 2380              	.LVL165:
 2381              		.loc 1 472 3 view .LVU432
 2382 0014 064B     		ldr	r3, .L155
 2383 0016 1A68     		ldr	r2, [r3]
 2384 0018 019B     		ldr	r3, [sp, #4]
 2385 001a 5A40     		eors	r2, r3, r2
 2386 001c 05D1     		bne	.L154
 2387 001e 0648     		ldr	r0, .L155+8
 2388              		.loc 1 473 1 is_stmt 0 view .LVU433
 2389 0020 03B0     		add	sp, sp, #12
 2390              		.cfi_remember_state
 2391              		.cfi_def_cfa_offset 4
 2392              		@ sp needed
 2393 0022 5DF804EB 		ldr	lr, [sp], #4
ARM GAS  /tmp/ccqhiTbD.s 			page 43


 2394              		.cfi_restore 14
 2395              		.cfi_def_cfa_offset 0
 2396              		.loc 1 472 3 view .LVU434
 2397 0026 FFF7FEBF 		b	chMtxObjectInit
 2398              	.LVL166:
 2399              	.L154:
 2400              		.cfi_restore_state
 2401 002a FFF7FEFF 		bl	__stack_chk_fail
 2402              	.LVL167:
 2403              	.L156:
 2404 002e 00BF     		.align	2
 2405              	.L155:
 2406 0030 00000000 		.word	.LC26
 2407 0034 00000000 		.word	.LANCHOR3
 2408 0038 00000000 		.word	.LANCHOR0
 2409              		.cfi_endproc
 2410              	.LFE240:
 2411              		.size	mtx6_setup, .-mtx6_setup
 2412              		.section	.rodata.mtx7_setup.cst4,"aM",%progbits,4
 2413              		.align	2
 2414              	.LC27:
 2415 0000 00000000 		.word	__stack_chk_guard
 2416              		.section	.text.mtx7_setup,"ax",%progbits
 2417              		.align	1
 2418              		.p2align 4,,15
 2419              		.syntax unified
 2420              		.thumb
 2421              		.thumb_func
 2422              		.fpu fpv4-sp-d16
 2423              		.type	mtx7_setup, %function
 2424              	mtx7_setup:
 2425              	.LFB257:
 2426              		.cfi_startproc
 2427              		@ args = 0, pretend = 0, frame = 8
 2428              		@ frame_needed = 0, uses_anonymous_args = 0
 2429 0000 00B5     		push	{lr}
 2430              		.cfi_def_cfa_offset 4
 2431              		.cfi_offset 14, -4
 2432 0002 094B     		ldr	r3, .L162
 2433 0004 83B0     		sub	sp, sp, #12
 2434              		.cfi_def_cfa_offset 16
 2435 0006 1B68     		ldr	r3, [r3]
 2436 0008 0193     		str	r3, [sp, #4]
 2437 000a 4FF00003 		mov	r3,#0
 2438 000e 064B     		ldr	r3, .L162
 2439 0010 1A68     		ldr	r2, [r3]
 2440 0012 019B     		ldr	r3, [sp, #4]
 2441 0014 5A40     		eors	r2, r3, r2
 2442 0016 04D1     		bne	.L161
 2443 0018 03B0     		add	sp, sp, #12
 2444              		.cfi_remember_state
 2445              		.cfi_def_cfa_offset 4
 2446              		@ sp needed
 2447 001a 5DF804EB 		ldr	lr, [sp], #4
 2448              		.cfi_restore 14
 2449              		.cfi_def_cfa_offset 0
 2450 001e FFF7FEBF 		b	mtx6_setup
ARM GAS  /tmp/ccqhiTbD.s 			page 44


 2451              	.L161:
 2452              		.cfi_restore_state
 2453 0022 FFF7FEFF 		bl	__stack_chk_fail
 2454              	.L163:
 2455 0026 00BF     		.align	2
 2456              	.L162:
 2457 0028 00000000 		.word	.LC27
 2458              		.cfi_endproc
 2459              	.LFE257:
 2460              		.size	mtx7_setup, .-mtx7_setup
 2461              		.section	.rodata.mtx8_setup.cst4,"aM",%progbits,4
 2462              		.align	2
 2463              	.LC28:
 2464 0000 00000000 		.word	__stack_chk_guard
 2465              		.section	.text.mtx8_setup,"ax",%progbits
 2466              		.align	1
 2467              		.p2align 4,,15
 2468              		.syntax unified
 2469              		.thumb
 2470              		.thumb_func
 2471              		.fpu fpv4-sp-d16
 2472              		.type	mtx8_setup, %function
 2473              	mtx8_setup:
 2474              	.LFB245:
 2475              		.loc 1 555 30 is_stmt 1 view -0
 2476              		.cfi_startproc
 2477              		@ args = 0, pretend = 0, frame = 8
 2478              		@ frame_needed = 0, uses_anonymous_args = 0
 2479              		.loc 1 555 30 is_stmt 0 view .LVU436
 2480 0000 00B5     		push	{lr}
 2481              		.cfi_def_cfa_offset 4
 2482              		.cfi_offset 14, -4
 2483 0002 0C4B     		ldr	r3, .L169
 2484              		.loc 1 557 3 view .LVU437
 2485 0004 0C48     		ldr	r0, .L169+4
 2486              		.loc 1 555 30 view .LVU438
 2487 0006 83B0     		sub	sp, sp, #12
 2488              		.cfi_def_cfa_offset 16
 2489              		.loc 1 555 30 view .LVU439
 2490 0008 1B68     		ldr	r3, [r3]
 2491 000a 0193     		str	r3, [sp, #4]
 2492 000c 4FF00003 		mov	r3,#0
 2493              		.loc 1 557 3 is_stmt 1 view .LVU440
 2494 0010 FFF7FEFF 		bl	chCondObjectInit
 2495              	.LVL168:
 2496              		.loc 1 558 3 view .LVU441
 2497 0014 0948     		ldr	r0, .L169+8
 2498 0016 FFF7FEFF 		bl	chMtxObjectInit
 2499              	.LVL169:
 2500              		.loc 1 559 3 view .LVU442
 2501 001a 064B     		ldr	r3, .L169
 2502 001c 1A68     		ldr	r2, [r3]
 2503 001e 019B     		ldr	r3, [sp, #4]
 2504 0020 5A40     		eors	r2, r3, r2
 2505 0022 05D1     		bne	.L168
 2506 0024 0648     		ldr	r0, .L169+12
 2507              		.loc 1 560 1 is_stmt 0 view .LVU443
ARM GAS  /tmp/ccqhiTbD.s 			page 45


 2508 0026 03B0     		add	sp, sp, #12
 2509              		.cfi_remember_state
 2510              		.cfi_def_cfa_offset 4
 2511              		@ sp needed
 2512 0028 5DF804EB 		ldr	lr, [sp], #4
 2513              		.cfi_restore 14
 2514              		.cfi_def_cfa_offset 0
 2515              		.loc 1 559 3 view .LVU444
 2516 002c FFF7FEBF 		b	chMtxObjectInit
 2517              	.LVL170:
 2518              	.L168:
 2519              		.cfi_restore_state
 2520 0030 FFF7FEFF 		bl	__stack_chk_fail
 2521              	.LVL171:
 2522              	.L170:
 2523              		.align	2
 2524              	.L169:
 2525 0034 00000000 		.word	.LC28
 2526 0038 00000000 		.word	.LANCHOR3
 2527 003c 00000000 		.word	.LANCHOR0
 2528 0040 00000000 		.word	.LANCHOR1
 2529              		.cfi_endproc
 2530              	.LFE245:
 2531              		.size	mtx8_setup, .-mtx8_setup
 2532              		.section	.rodata.mtx7_execute.cst4,"aM",%progbits,4
 2533              		.align	2
 2534              	.LC29:
 2535 0000 00000000 		.word	__stack_chk_guard
 2536              		.section	.text.mtx7_execute,"ax",%progbits
 2537              		.align	1
 2538              		.p2align 4,,15
 2539              		.syntax unified
 2540              		.thumb
 2541              		.thumb_func
 2542              		.fpu fpv4-sp-d16
 2543              		.type	mtx7_execute, %function
 2544              	mtx7_execute:
 2545              	.LFB244:
 2546              		.loc 1 526 32 is_stmt 1 view -0
 2547              		.cfi_startproc
 2548              		@ args = 0, pretend = 0, frame = 8
 2549              		@ frame_needed = 0, uses_anonymous_args = 0
 2550 0000 70B5     		push	{r4, r5, r6, lr}
 2551              		.cfi_def_cfa_offset 16
 2552              		.cfi_offset 4, -16
 2553              		.cfi_offset 5, -12
 2554              		.cfi_offset 6, -8
 2555              		.cfi_offset 14, -4
 2556              	.LBB339:
 2557              	.LBB340:
 2558              	.LBB341:
 2559              	.LBB342:
 2560              		.loc 2 176 18 is_stmt 0 view .LVU446
 2561 0002 2A4B     		ldr	r3, .L176
 2562              	.LBE342:
 2563              	.LBE341:
 2564              	.LBE340:
ARM GAS  /tmp/ccqhiTbD.s 			page 46


 2565              	.LBE339:
 2566              		.loc 1 529 16 view .LVU447
 2567 0004 2A4E     		ldr	r6, .L176+4
 2568              	.LBB348:
 2569              	.LBB345:
 2570              		.loc 2 189 25 view .LVU448
 2571 0006 9A69     		ldr	r2, [r3, #24]
 2572              	.LBE345:
 2573              	.LBE348:
 2574              		.loc 1 526 32 view .LVU449
 2575 0008 2A49     		ldr	r1, .L176+8
 2576              	.LBB349:
 2577              	.LBB346:
 2578              		.loc 2 189 25 view .LVU450
 2579 000a 9568     		ldr	r5, [r2, #8]
 2580              	.LBE346:
 2581              	.LBE349:
 2582              		.loc 1 529 16 view .LVU451
 2583 000c 2A4B     		ldr	r3, .L176+12
 2584 000e 3068     		ldr	r0, [r6]
 2585              		.loc 1 529 14 view .LVU452
 2586 0010 2A4C     		ldr	r4, .L176+16
 2587              		.loc 1 526 32 view .LVU453
 2588 0012 84B0     		sub	sp, sp, #16
 2589              		.cfi_def_cfa_offset 32
 2590              		.loc 1 529 16 view .LVU454
 2591 0014 6A1C     		adds	r2, r5, #1
 2592 0016 0093     		str	r3, [sp]
 2593              		.loc 1 526 32 view .LVU455
 2594 0018 0968     		ldr	r1, [r1]
 2595 001a 0391     		str	r1, [sp, #12]
 2596 001c 4FF00001 		mov	r1,#0
 2597              		.loc 1 528 3 is_stmt 1 view .LVU456
 2598              	.LBB350:
 2599              	.LBI339:
 2600              		.loc 2 187 23 view .LVU457
 2601              	.LBB347:
 2602              		.loc 2 189 3 view .LVU458
 2603              	.LBB344:
 2604              	.LBI341:
 2605              		.loc 2 174 25 view .LVU459
 2606              	.LBB343:
 2607              		.loc 2 176 3 view .LVU460
 2608              	.LVL172:
 2609              		.loc 2 176 3 is_stmt 0 view .LVU461
 2610              	.LBE343:
 2611              	.LBE344:
 2612              	.LBE347:
 2613              	.LBE350:
 2614              		.loc 1 529 3 is_stmt 1 view .LVU462
 2615              		.loc 1 529 16 is_stmt 0 view .LVU463
 2616 0020 274B     		ldr	r3, .L176+20
 2617 0022 4FF4FC71 		mov	r1, #504
 2618 0026 FFF7FEFF 		bl	chThdCreateStatic
 2619              	.LVL173:
 2620              		.loc 1 530 16 view .LVU464
 2621 002a 264B     		ldr	r3, .L176+24
ARM GAS  /tmp/ccqhiTbD.s 			page 47


 2622 002c 0093     		str	r3, [sp]
 2623              		.loc 1 529 16 view .LVU465
 2624 002e 0146     		mov	r1, r0
 2625              		.loc 1 530 16 view .LVU466
 2626 0030 234B     		ldr	r3, .L176+20
 2627              		.loc 1 529 14 view .LVU467
 2628 0032 2160     		str	r1, [r4]
 2629              		.loc 1 530 3 is_stmt 1 view .LVU468
 2630              		.loc 1 530 16 is_stmt 0 view .LVU469
 2631 0034 AA1C     		adds	r2, r5, #2
 2632 0036 4FF4FC71 		mov	r1, #504
 2633 003a 7068     		ldr	r0, [r6, #4]
 2634 003c FFF7FEFF 		bl	chThdCreateStatic
 2635              	.LVL174:
 2636              		.loc 1 531 16 view .LVU470
 2637 0040 214B     		ldr	r3, .L176+28
 2638 0042 0093     		str	r3, [sp]
 2639              		.loc 1 530 16 view .LVU471
 2640 0044 0146     		mov	r1, r0
 2641              		.loc 1 531 16 view .LVU472
 2642 0046 1E4B     		ldr	r3, .L176+20
 2643              		.loc 1 530 14 view .LVU473
 2644 0048 6160     		str	r1, [r4, #4]
 2645              		.loc 1 531 3 is_stmt 1 view .LVU474
 2646              		.loc 1 531 16 is_stmt 0 view .LVU475
 2647 004a EA1C     		adds	r2, r5, #3
 2648 004c 4FF4FC71 		mov	r1, #504
 2649 0050 B068     		ldr	r0, [r6, #8]
 2650 0052 FFF7FEFF 		bl	chThdCreateStatic
 2651              	.LVL175:
 2652              		.loc 1 532 16 view .LVU476
 2653 0056 1D4B     		ldr	r3, .L176+32
 2654 0058 0093     		str	r3, [sp]
 2655              		.loc 1 531 16 view .LVU477
 2656 005a 0146     		mov	r1, r0
 2657              		.loc 1 532 16 view .LVU478
 2658 005c 184B     		ldr	r3, .L176+20
 2659              		.loc 1 531 14 view .LVU479
 2660 005e A160     		str	r1, [r4, #8]
 2661              		.loc 1 532 3 is_stmt 1 view .LVU480
 2662              		.loc 1 532 16 is_stmt 0 view .LVU481
 2663 0060 2A1D     		adds	r2, r5, #4
 2664 0062 4FF4FC71 		mov	r1, #504
 2665 0066 F068     		ldr	r0, [r6, #12]
 2666 0068 FFF7FEFF 		bl	chThdCreateStatic
 2667              	.LVL176:
 2668              		.loc 1 533 16 view .LVU482
 2669 006c 184B     		ldr	r3, .L176+36
 2670 006e 0093     		str	r3, [sp]
 2671              		.loc 1 532 16 view .LVU483
 2672 0070 0146     		mov	r1, r0
 2673              		.loc 1 533 16 view .LVU484
 2674 0072 6A1D     		adds	r2, r5, #5
 2675 0074 124B     		ldr	r3, .L176+20
 2676              		.loc 1 532 14 view .LVU485
 2677 0076 E160     		str	r1, [r4, #12]
 2678              		.loc 1 533 3 is_stmt 1 view .LVU486
ARM GAS  /tmp/ccqhiTbD.s 			page 48


 2679              		.loc 1 533 16 is_stmt 0 view .LVU487
 2680 0078 3069     		ldr	r0, [r6, #16]
 2681 007a 4FF4FC71 		mov	r1, #504
 2682 007e FFF7FEFF 		bl	chThdCreateStatic
 2683              	.LVL177:
 2684 0082 0346     		mov	r3, r0
 2685              		.loc 1 534 3 view .LVU488
 2686 0084 1348     		ldr	r0, .L176+40
 2687              		.loc 1 533 14 view .LVU489
 2688 0086 2361     		str	r3, [r4, #16]
 2689              		.loc 1 534 3 is_stmt 1 view .LVU490
 2690 0088 FFF7FEFF 		bl	chCondBroadcast
 2691              	.LVL178:
 2692              		.loc 1 535 3 view .LVU491
 2693 008c FFF7FEFF 		bl	test_wait_threads
 2694              	.LVL179:
 2695              		.loc 1 536 3 view .LVU492
 2696 0090 084B     		ldr	r3, .L176+8
 2697 0092 1A68     		ldr	r2, [r3]
 2698 0094 039B     		ldr	r3, [sp, #12]
 2699 0096 5A40     		eors	r2, r3, r2
 2700 0098 06D1     		bne	.L175
 2701 009a 0F49     		ldr	r1, .L176+44
 2702 009c 0120     		movs	r0, #1
 2703              		.loc 1 537 1 is_stmt 0 view .LVU493
 2704 009e 04B0     		add	sp, sp, #16
 2705              		.cfi_remember_state
 2706              		.cfi_def_cfa_offset 16
 2707              		@ sp needed
 2708 00a0 BDE87040 		pop	{r4, r5, r6, lr}
 2709              		.cfi_restore 14
 2710              		.cfi_restore 6
 2711              		.cfi_restore 5
 2712              		.cfi_restore 4
 2713              		.cfi_def_cfa_offset 0
 2714              	.LVL180:
 2715              		.loc 1 536 3 view .LVU494
 2716 00a4 FFF7FEBF 		b	_test_assert_sequence
 2717              	.LVL181:
 2718              	.L175:
 2719              		.cfi_restore_state
 2720              		.loc 1 536 3 view .LVU495
 2721 00a8 FFF7FEFF 		bl	__stack_chk_fail
 2722              	.LVL182:
 2723              	.L177:
 2724              		.align	2
 2725              	.L176:
 2726 00ac 00000000 		.word	ch
 2727 00b0 00000000 		.word	wa
 2728 00b4 00000000 		.word	.LC29
 2729 00b8 00000000 		.word	.LC0
 2730 00bc 00000000 		.word	threads
 2731 00c0 00000000 		.word	thread10
 2732 00c4 04000000 		.word	.LC1
 2733 00c8 08000000 		.word	.LC2
 2734 00cc 0C000000 		.word	.LC3
 2735 00d0 10000000 		.word	.LC4
ARM GAS  /tmp/ccqhiTbD.s 			page 49


 2736 00d4 00000000 		.word	.LANCHOR3
 2737 00d8 14000000 		.word	.LC5
 2738              		.cfi_endproc
 2739              	.LFE244:
 2740              		.size	mtx7_execute, .-mtx7_execute
 2741              		.section	.rodata.mtx8_execute.str1.4,"aMS",%progbits,1
 2742              		.align	2
 2743              	.LC30:
 2744 0000 41424300 		.ascii	"ABC\000"
 2745              		.section	.rodata.mtx8_execute.cst4,"aM",%progbits,4
 2746              		.align	2
 2747              	.LC31:
 2748 0000 00000000 		.word	__stack_chk_guard
 2749              		.section	.text.mtx8_execute,"ax",%progbits
 2750              		.align	1
 2751              		.p2align 4,,15
 2752              		.syntax unified
 2753              		.thumb
 2754              		.thumb_func
 2755              		.fpu fpv4-sp-d16
 2756              		.type	mtx8_execute, %function
 2757              	mtx8_execute:
 2758              	.LFB248:
 2759              		.loc 1 583 32 is_stmt 1 view -0
 2760              		.cfi_startproc
 2761              		@ args = 0, pretend = 0, frame = 8
 2762              		@ frame_needed = 0, uses_anonymous_args = 0
 2763 0000 70B5     		push	{r4, r5, r6, lr}
 2764              		.cfi_def_cfa_offset 16
 2765              		.cfi_offset 4, -16
 2766              		.cfi_offset 5, -12
 2767              		.cfi_offset 6, -8
 2768              		.cfi_offset 14, -4
 2769              	.LBB351:
 2770              	.LBB352:
 2771              	.LBB353:
 2772              	.LBB354:
 2773              		.loc 2 176 18 is_stmt 0 view .LVU497
 2774 0002 214B     		ldr	r3, .L183
 2775              	.LBE354:
 2776              	.LBE353:
 2777              	.LBE352:
 2778              	.LBE351:
 2779              		.loc 1 586 16 view .LVU498
 2780 0004 214E     		ldr	r6, .L183+4
 2781              	.LBB360:
 2782              	.LBB357:
 2783              		.loc 2 189 25 view .LVU499
 2784 0006 9A69     		ldr	r2, [r3, #24]
 2785              	.LBE357:
 2786              	.LBE360:
 2787              		.loc 1 583 32 view .LVU500
 2788 0008 2149     		ldr	r1, .L183+8
 2789              	.LBB361:
 2790              	.LBB358:
 2791              		.loc 2 189 25 view .LVU501
 2792 000a 9568     		ldr	r5, [r2, #8]
ARM GAS  /tmp/ccqhiTbD.s 			page 50


 2793              	.LBE358:
 2794              	.LBE361:
 2795              		.loc 1 586 16 view .LVU502
 2796 000c 214B     		ldr	r3, .L183+12
 2797 000e 3068     		ldr	r0, [r6]
 2798              		.loc 1 586 14 view .LVU503
 2799 0010 214C     		ldr	r4, .L183+16
 2800              		.loc 1 583 32 view .LVU504
 2801 0012 84B0     		sub	sp, sp, #16
 2802              		.cfi_def_cfa_offset 32
 2803              		.loc 1 586 16 view .LVU505
 2804 0014 6A1C     		adds	r2, r5, #1
 2805 0016 0093     		str	r3, [sp]
 2806              		.loc 1 583 32 view .LVU506
 2807 0018 0968     		ldr	r1, [r1]
 2808 001a 0391     		str	r1, [sp, #12]
 2809 001c 4FF00001 		mov	r1,#0
 2810              		.loc 1 585 3 is_stmt 1 view .LVU507
 2811              	.LBB362:
 2812              	.LBI351:
 2813              		.loc 2 187 23 view .LVU508
 2814              	.LBB359:
 2815              		.loc 2 189 3 view .LVU509
 2816              	.LBB356:
 2817              	.LBI353:
 2818              		.loc 2 174 25 view .LVU510
 2819              	.LBB355:
 2820              		.loc 2 176 3 view .LVU511
 2821              	.LVL183:
 2822              		.loc 2 176 3 is_stmt 0 view .LVU512
 2823              	.LBE355:
 2824              	.LBE356:
 2825              	.LBE359:
 2826              	.LBE362:
 2827              		.loc 1 586 3 is_stmt 1 view .LVU513
 2828              		.loc 1 586 16 is_stmt 0 view .LVU514
 2829 0020 1E4B     		ldr	r3, .L183+20
 2830 0022 4FF4FC71 		mov	r1, #504
 2831 0026 FFF7FEFF 		bl	chThdCreateStatic
 2832              	.LVL184:
 2833              		.loc 1 587 16 view .LVU515
 2834 002a 1D4B     		ldr	r3, .L183+24
 2835 002c 0093     		str	r3, [sp]
 2836              		.loc 1 586 16 view .LVU516
 2837 002e 0146     		mov	r1, r0
 2838              		.loc 1 587 16 view .LVU517
 2839 0030 1C4B     		ldr	r3, .L183+28
 2840              		.loc 1 586 14 view .LVU518
 2841 0032 2160     		str	r1, [r4]
 2842              		.loc 1 587 3 is_stmt 1 view .LVU519
 2843              		.loc 1 587 16 is_stmt 0 view .LVU520
 2844 0034 AA1C     		adds	r2, r5, #2
 2845 0036 4FF4FC71 		mov	r1, #504
 2846 003a 7068     		ldr	r0, [r6, #4]
 2847 003c FFF7FEFF 		bl	chThdCreateStatic
 2848              	.LVL185:
 2849              		.loc 1 588 16 view .LVU521
ARM GAS  /tmp/ccqhiTbD.s 			page 51


 2850 0040 194B     		ldr	r3, .L183+32
 2851 0042 0093     		str	r3, [sp]
 2852              		.loc 1 587 16 view .LVU522
 2853 0044 0146     		mov	r1, r0
 2854              		.loc 1 588 16 view .LVU523
 2855 0046 EA1C     		adds	r2, r5, #3
 2856 0048 184B     		ldr	r3, .L183+36
 2857              		.loc 1 587 14 view .LVU524
 2858 004a 6160     		str	r1, [r4, #4]
 2859              		.loc 1 588 3 is_stmt 1 view .LVU525
 2860              		.loc 1 588 16 is_stmt 0 view .LVU526
 2861 004c B068     		ldr	r0, [r6, #8]
 2862 004e 4FF4FC71 		mov	r1, #504
 2863 0052 FFF7FEFF 		bl	chThdCreateStatic
 2864              	.LVL186:
 2865 0056 0346     		mov	r3, r0
 2866              		.loc 1 589 3 view .LVU527
 2867 0058 1548     		ldr	r0, .L183+40
 2868              		.loc 1 588 14 view .LVU528
 2869 005a A360     		str	r3, [r4, #8]
 2870              		.loc 1 589 3 is_stmt 1 view .LVU529
 2871 005c FFF7FEFF 		bl	chCondSignal
 2872              	.LVL187:
 2873              		.loc 1 590 3 view .LVU530
 2874 0060 1348     		ldr	r0, .L183+40
 2875 0062 FFF7FEFF 		bl	chCondSignal
 2876              	.LVL188:
 2877              		.loc 1 591 3 view .LVU531
 2878 0066 FFF7FEFF 		bl	test_wait_threads
 2879              	.LVL189:
 2880              		.loc 1 592 3 view .LVU532
 2881 006a 094B     		ldr	r3, .L183+8
 2882 006c 1A68     		ldr	r2, [r3]
 2883 006e 039B     		ldr	r3, [sp, #12]
 2884 0070 5A40     		eors	r2, r3, r2
 2885 0072 06D1     		bne	.L182
 2886 0074 0F49     		ldr	r1, .L183+44
 2887 0076 0120     		movs	r0, #1
 2888              		.loc 1 593 1 is_stmt 0 view .LVU533
 2889 0078 04B0     		add	sp, sp, #16
 2890              		.cfi_remember_state
 2891              		.cfi_def_cfa_offset 16
 2892              		@ sp needed
 2893 007a BDE87040 		pop	{r4, r5, r6, lr}
 2894              		.cfi_restore 14
 2895              		.cfi_restore 6
 2896              		.cfi_restore 5
 2897              		.cfi_restore 4
 2898              		.cfi_def_cfa_offset 0
 2899              	.LVL190:
 2900              		.loc 1 592 3 view .LVU534
 2901 007e FFF7FEBF 		b	_test_assert_sequence
 2902              	.LVL191:
 2903              	.L182:
 2904              		.cfi_restore_state
 2905              		.loc 1 592 3 view .LVU535
 2906 0082 FFF7FEFF 		bl	__stack_chk_fail
ARM GAS  /tmp/ccqhiTbD.s 			page 52


 2907              	.LVL192:
 2908              	.L184:
 2909 0086 00BF     		.align	2
 2910              	.L183:
 2911 0088 00000000 		.word	ch
 2912 008c 00000000 		.word	wa
 2913 0090 00000000 		.word	.LC31
 2914 0094 10000000 		.word	.LC4
 2915 0098 00000000 		.word	threads
 2916 009c 00000000 		.word	thread11
 2917 00a0 08000000 		.word	.LC2
 2918 00a4 00000000 		.word	thread10
 2919 00a8 0C000000 		.word	.LC3
 2920 00ac 00000000 		.word	thread12
 2921 00b0 00000000 		.word	.LANCHOR3
 2922 00b4 00000000 		.word	.LC30
 2923              		.cfi_endproc
 2924              	.LFE248:
 2925              		.size	mtx8_execute, .-mtx8_execute
 2926              		.section	.rodata.thread11.cst4,"aM",%progbits,4
 2927              		.align	2
 2928              	.LC32:
 2929 0000 00000000 		.word	__stack_chk_guard
 2930              		.section	.text.thread11,"ax",%progbits
 2931              		.align	1
 2932              		.p2align 4,,15
 2933              		.syntax unified
 2934              		.thumb
 2935              		.thumb_func
 2936              		.fpu fpv4-sp-d16
 2937              		.type	thread11, %function
 2938              	thread11:
 2939              	.LVL193:
 2940              	.LFB246:
 2941              		.loc 1 562 34 is_stmt 1 view -0
 2942              		.cfi_startproc
 2943              		@ args = 0, pretend = 0, frame = 8
 2944              		@ frame_needed = 0, uses_anonymous_args = 0
 2945              		.loc 1 562 34 is_stmt 0 view .LVU537
 2946 0000 10B5     		push	{r4, lr}
 2947              		.cfi_def_cfa_offset 8
 2948              		.cfi_offset 4, -8
 2949              		.cfi_offset 14, -4
 2950 0002 124B     		ldr	r3, .L190
 2951 0004 82B0     		sub	sp, sp, #8
 2952              		.cfi_def_cfa_offset 16
 2953              		.loc 1 562 34 view .LVU538
 2954 0006 0446     		mov	r4, r0
 2955              		.loc 1 564 3 view .LVU539
 2956 0008 1148     		ldr	r0, .L190+4
 2957              	.LVL194:
 2958              		.loc 1 562 34 view .LVU540
 2959 000a 1B68     		ldr	r3, [r3]
 2960 000c 0193     		str	r3, [sp, #4]
 2961 000e 4FF00003 		mov	r3,#0
 2962              		.loc 1 564 3 is_stmt 1 view .LVU541
 2963 0012 FFF7FEFF 		bl	chMtxLock
ARM GAS  /tmp/ccqhiTbD.s 			page 53


 2964              	.LVL195:
 2965              		.loc 1 565 3 view .LVU542
 2966 0016 0F48     		ldr	r0, .L190+8
 2967 0018 FFF7FEFF 		bl	chMtxLock
 2968              	.LVL196:
 2969              		.loc 1 567 3 view .LVU543
 2970 001c 4FF0FF31 		mov	r1, #-1
 2971 0020 0D48     		ldr	r0, .L190+12
 2972 0022 FFF7FEFF 		bl	chCondWaitTimeout
 2973              	.LVL197:
 2974              		.loc 1 571 3 view .LVU544
 2975 0026 2078     		ldrb	r0, [r4]	@ zero_extendqisi2
 2976 0028 FFF7FEFF 		bl	test_emit_token
 2977              	.LVL198:
 2978              		.loc 1 572 3 view .LVU545
 2979 002c 0948     		ldr	r0, .L190+8
 2980 002e FFF7FEFF 		bl	chMtxUnlock
 2981              	.LVL199:
 2982              		.loc 1 573 3 view .LVU546
 2983 0032 064B     		ldr	r3, .L190
 2984 0034 1A68     		ldr	r2, [r3]
 2985 0036 019B     		ldr	r3, [sp, #4]
 2986 0038 5A40     		eors	r2, r3, r2
 2987 003a 05D1     		bne	.L189
 2988 003c 0448     		ldr	r0, .L190+4
 2989              		.loc 1 574 1 is_stmt 0 view .LVU547
 2990 003e 02B0     		add	sp, sp, #8
 2991              		.cfi_remember_state
 2992              		.cfi_def_cfa_offset 8
 2993              		@ sp needed
 2994 0040 BDE81040 		pop	{r4, lr}
 2995              		.cfi_restore 14
 2996              		.cfi_restore 4
 2997              		.cfi_def_cfa_offset 0
 2998              	.LVL200:
 2999              		.loc 1 573 3 view .LVU548
 3000 0044 FFF7FEBF 		b	chMtxUnlock
 3001              	.LVL201:
 3002              	.L189:
 3003              		.cfi_restore_state
 3004              		.loc 1 573 3 view .LVU549
 3005 0048 FFF7FEFF 		bl	__stack_chk_fail
 3006              	.LVL202:
 3007              	.L191:
 3008              		.align	2
 3009              	.L190:
 3010 004c 00000000 		.word	.LC32
 3011 0050 00000000 		.word	.LANCHOR1
 3012 0054 00000000 		.word	.LANCHOR0
 3013 0058 00000000 		.word	.LANCHOR3
 3014              		.cfi_endproc
 3015              	.LFE246:
 3016              		.size	thread11, .-thread11
 3017              		.section	.rodata.mtx5_execute.cst4,"aM",%progbits,4
 3018              		.align	2
 3019              	.LC33:
 3020 0000 00000000 		.word	__stack_chk_guard
ARM GAS  /tmp/ccqhiTbD.s 			page 54


 3021              		.section	.text.mtx5_execute,"ax",%progbits
 3022              		.align	1
 3023              		.p2align 4,,15
 3024              		.syntax unified
 3025              		.thumb
 3026              		.thumb_func
 3027              		.fpu fpv4-sp-d16
 3028              		.type	mtx5_execute, %function
 3029              	mtx5_execute:
 3030              	.LFB239:
 3031              		.loc 1 423 32 is_stmt 1 view -0
 3032              		.cfi_startproc
 3033              		@ args = 0, pretend = 0, frame = 8
 3034              		@ frame_needed = 0, uses_anonymous_args = 0
 3035 0000 10B5     		push	{r4, lr}
 3036              		.cfi_def_cfa_offset 8
 3037              		.cfi_offset 4, -8
 3038              		.cfi_offset 14, -4
 3039              		.loc 1 444 3 is_stmt 0 view .LVU551
 3040 0002 164C     		ldr	r4, .L199
 3041              		.loc 1 423 32 view .LVU552
 3042 0004 164B     		ldr	r3, .L199+4
 3043 0006 82B0     		sub	sp, sp, #8
 3044              		.cfi_def_cfa_offset 16
 3045              		.loc 1 444 3 view .LVU553
 3046 0008 2046     		mov	r0, r4
 3047              		.loc 1 423 32 view .LVU554
 3048 000a 1B68     		ldr	r3, [r3]
 3049 000c 0193     		str	r3, [sp, #4]
 3050 000e 4FF00003 		mov	r3,#0
 3051              		.loc 1 444 3 is_stmt 1 view .LVU555
 3052 0012 FFF7FEFF 		bl	chMtxLock
 3053              	.LVL203:
 3054              		.loc 1 445 3 view .LVU556
 3055 0016 FFF7FEFF 		bl	chMtxUnlockAll
 3056              	.LVL204:
 3057              		.loc 1 446 3 view .LVU557
 3058              	.LBB369:
 3059              	.LBI369:
 3060              		.file 6 ".//ChibiOS//os/rt/include/chschd.h"
 3061              		.loc 6 616 20 view .LVU558
 3062              	.LBB370:
 3063              		.loc 6 618 3 view .LVU559
 3064              		.loc 6 618 10 is_stmt 0 view .LVU560
 3065 001a 2168     		ldr	r1, [r4]
 3066              	.LBE370:
 3067              	.LBE369:
 3068              		.loc 1 446 3 view .LVU561
 3069 001c 091B     		subs	r1, r1, r4
 3070 001e B1FA81F1 		clz	r1, r1
 3071 0022 0620     		movs	r0, #6
 3072 0024 4909     		lsrs	r1, r1, #5
 3073 0026 FFF7FEFF 		bl	_test_assert
 3074              	.LVL205:
 3075              		.loc 1 448 1 view .LVU562
 3076 002a 0D4B     		ldr	r3, .L199+4
 3077              		.loc 1 446 3 view .LVU563
ARM GAS  /tmp/ccqhiTbD.s 			page 55


 3078 002c 28B1     		cbz	r0, .L198
 3079              		.loc 1 448 1 view .LVU564
 3080 002e 1A68     		ldr	r2, [r3]
 3081 0030 019B     		ldr	r3, [sp, #4]
 3082 0032 5A40     		eors	r2, r3, r2
 3083 0034 0FD1     		bne	.L197
 3084 0036 02B0     		add	sp, sp, #8
 3085              		.cfi_remember_state
 3086              		.cfi_def_cfa_offset 8
 3087              		@ sp needed
 3088 0038 10BD     		pop	{r4, pc}
 3089              	.L198:
 3090              		.cfi_restore_state
 3091              	.LBB371:
 3092              	.LBI371:
 3093              		.loc 1 423 13 is_stmt 1 view .LVU565
 3094              	.LBB372:
 3095              		.loc 1 446 64 view .LVU566
 3096              		.loc 1 447 3 view .LVU567
 3097 003a 1A68     		ldr	r2, [r3]
 3098 003c 019B     		ldr	r3, [sp, #4]
 3099 003e 5A40     		eors	r2, r3, r2
 3100 0040 09D1     		bne	.L197
 3101 0042 A168     		ldr	r1, [r4, #8]
 3102 0044 B1FA81F1 		clz	r1, r1
 3103 0048 4909     		lsrs	r1, r1, #5
 3104 004a 0720     		movs	r0, #7
 3105              	.LBE372:
 3106              	.LBE371:
 3107              		.loc 1 448 1 is_stmt 0 view .LVU568
 3108 004c 02B0     		add	sp, sp, #8
 3109              		.cfi_remember_state
 3110              		.cfi_def_cfa_offset 8
 3111              		@ sp needed
 3112 004e BDE81040 		pop	{r4, lr}
 3113              		.cfi_restore 14
 3114              		.cfi_restore 4
 3115              		.cfi_def_cfa_offset 0
 3116              	.LBB374:
 3117              	.LBB373:
 3118              		.loc 1 447 3 view .LVU569
 3119 0052 FFF7FEBF 		b	_test_assert
 3120              	.LVL206:
 3121              	.L197:
 3122              		.cfi_restore_state
 3123              	.LBE373:
 3124              	.LBE374:
 3125              		.loc 1 448 1 view .LVU570
 3126 0056 FFF7FEFF 		bl	__stack_chk_fail
 3127              	.LVL207:
 3128              	.L200:
 3129 005a 00BF     		.align	2
 3130              	.L199:
 3131 005c 00000000 		.word	.LANCHOR0
 3132 0060 00000000 		.word	.LC33
 3133              		.cfi_endproc
 3134              	.LFE239:
ARM GAS  /tmp/ccqhiTbD.s 			page 56


 3135              		.size	mtx5_execute, .-mtx5_execute
 3136              		.section	.rodata.mtx2_execute.cst4,"aM",%progbits,4
 3137              		.align	2
 3138              	.LC34:
 3139 0000 00000000 		.word	__stack_chk_guard
 3140              		.section	.text.mtx2_execute,"ax",%progbits
 3141              		.align	1
 3142              		.p2align 4,,15
 3143              		.syntax unified
 3144              		.thumb
 3145              		.thumb_func
 3146              		.fpu fpv4-sp-d16
 3147              		.type	mtx2_execute, %function
 3148              	mtx2_execute:
 3149              	.LFB226:
 3150              		.loc 1 186 32 is_stmt 1 view -0
 3151              		.cfi_startproc
 3152              		@ args = 0, pretend = 0, frame = 8
 3153              		@ frame_needed = 0, uses_anonymous_args = 0
 3154 0000 2DE9F041 		push	{r4, r5, r6, r7, r8, lr}
 3155              		.cfi_def_cfa_offset 24
 3156              		.cfi_offset 4, -24
 3157              		.cfi_offset 5, -20
 3158              		.cfi_offset 6, -16
 3159              		.cfi_offset 7, -12
 3160              		.cfi_offset 8, -8
 3161              		.cfi_offset 14, -4
 3162 0004 334B     		ldr	r3, .L210
 3163 0006 84B0     		sub	sp, sp, #16
 3164              		.cfi_def_cfa_offset 40
 3165              		.loc 1 186 32 is_stmt 0 view .LVU572
 3166 0008 1B68     		ldr	r3, [r3]
 3167 000a 0393     		str	r3, [sp, #12]
 3168 000c 4FF00003 		mov	r3,#0
 3169              		.loc 1 187 3 is_stmt 1 view .LVU573
 3170              		.loc 1 189 3 view .LVU574
 3171 0010 FFF7FEFF 		bl	test_wait_tick
 3172              	.LVL208:
 3173              		.loc 1 190 3 view .LVU575
 3174              	.LBB401:
 3175              	.LBI401:
 3176              		.file 7 ".//ChibiOS//os/rt/include/chvt.h"
 3177              		.loc 7 247 25 view .LVU576
 3178              	.LBB402:
 3179              		.loc 7 248 3 view .LVU577
 3180              		.loc 7 250 3 view .LVU578
 3181              	.LBB403:
 3182              	.LBI403:
 3183              		.loc 3 346 20 view .LVU579
 3184              	.LBB404:
 3185              		.loc 3 348 3 view .LVU580
 3186              	.LBB405:
 3187              	.LBI405:
 3188              		.loc 4 444 20 view .LVU581
 3189              	.LBE405:
 3190              	.LBE404:
 3191              	.LBE403:
ARM GAS  /tmp/ccqhiTbD.s 			page 57


 3192              	.LBE402:
 3193              	.LBE401:
 3194              		.loc 4 447 3 view .LVU582
 3195              	.LBB430:
 3196              	.LBB427:
 3197              	.LBB411:
 3198              	.LBB409:
 3199              	.LBB408:
 3200              	.LBB406:
 3201              	.LBI406:
 3202              		.loc 5 544 57 view .LVU583
 3203              	.LBB407:
 3204              		.loc 5 546 3 view .LVU584
 3205 0014 2023     		movs	r3, #32
 3206              		.syntax unified
 3207              	@ 546 ".//ChibiOS//os/ext/CMSIS/include/core_cmFunc.h" 1
 3208 0016 83F31188 		MSR basepri, r3
 3209              	@ 0 "" 2
 3210              	.LVL209:
 3211              		.loc 5 546 3 is_stmt 0 view .LVU585
 3212              		.thumb
 3213              		.syntax unified
 3214              	.LBE407:
 3215              	.LBE406:
 3216              	.LBE408:
 3217              		.loc 3 349 3 is_stmt 1 view .LVU586
 3218              	.LBE409:
 3219              	.LBE411:
 3220              	.LBB412:
 3221              	.LBB413:
 3222              		.loc 7 231 19 is_stmt 0 view .LVU587
 3223 001a 2F4C     		ldr	r4, .L210+4
 3224              	.LBE413:
 3225              	.LBE412:
 3226              	.LBB415:
 3227              	.LBB410:
 3228              		.loc 3 349 3 view .LVU588
 3229 001c FFF7FEFF 		bl	_stats_start_measure_crit_thd
 3230              	.LVL210:
 3231              		.loc 3 350 3 is_stmt 1 view .LVU589
 3232 0020 FFF7FEFF 		bl	_dbg_check_lock
 3233              	.LVL211:
 3234              	.LBE410:
 3235              	.LBE415:
 3236              		.loc 7 251 3 view .LVU590
 3237              	.LBB416:
 3238              	.LBI412:
 3239              		.loc 7 228 25 view .LVU591
 3240              	.LBB414:
 3241              		.loc 7 231 3 view .LVU592
 3242              		.loc 7 231 19 is_stmt 0 view .LVU593
 3243 0024 D4F82880 		ldr	r8, [r4, #40]
 3244              	.LVL212:
 3245              		.loc 7 231 19 view .LVU594
 3246              	.LBE414:
 3247              	.LBE416:
 3248              		.loc 7 252 3 is_stmt 1 view .LVU595
ARM GAS  /tmp/ccqhiTbD.s 			page 58


 3249              	.LBB417:
 3250              	.LBI417:
 3251              		.loc 3 358 20 view .LVU596
 3252              	.LBB418:
 3253              		.loc 3 360 3 view .LVU597
 3254 0028 FFF7FEFF 		bl	_dbg_check_unlock
 3255              	.LVL213:
 3256              		.loc 3 361 3 view .LVU598
 3257 002c FFF7FEFF 		bl	_stats_stop_measure_crit_thd
 3258              	.LVL214:
 3259              		.loc 3 367 3 view .LVU599
 3260              		.loc 3 367 3 view .LVU600
 3261              		.loc 3 367 3 view .LVU601
 3262 0030 2368     		ldr	r3, [r4]
 3263 0032 A342     		cmp	r3, r4
 3264 0034 04D0     		beq	.L202
 3265 0036 A269     		ldr	r2, [r4, #24]
 3266 0038 9B68     		ldr	r3, [r3, #8]
 3267 003a 9268     		ldr	r2, [r2, #8]
 3268 003c 9A42     		cmp	r2, r3
 3269 003e 34D3     		bcc	.L208
 3270              	.L202:
 3271              		.loc 3 367 3 view .LVU602
 3272              		.loc 3 371 3 view .LVU603
 3273              	.LBB419:
 3274              	.LBI419:
 3275              		.loc 4 458 20 view .LVU604
 3276              	.LBE419:
 3277              	.LBE418:
 3278              	.LBE417:
 3279              	.LBE427:
 3280              	.LBE430:
 3281              		.loc 4 461 3 view .LVU605
 3282              	.LVL215:
 3283              	.LBB431:
 3284              	.LBB428:
 3285              	.LBB425:
 3286              	.LBB423:
 3287              	.LBB422:
 3288              	.LBB420:
 3289              	.LBI420:
 3290              		.loc 5 544 57 view .LVU606
 3291              	.LBB421:
 3292              		.loc 5 546 3 view .LVU607
 3293 0040 0025     		movs	r5, #0
 3294              		.syntax unified
 3295              	@ 546 ".//ChibiOS//os/ext/CMSIS/include/core_cmFunc.h" 1
 3296 0042 85F31188 		MSR basepri, r5
 3297              	@ 0 "" 2
 3298              	.LVL216:
 3299              		.loc 5 546 3 is_stmt 0 view .LVU608
 3300              		.thumb
 3301              		.syntax unified
 3302              	.LBE421:
 3303              	.LBE420:
 3304              	.LBE422:
 3305              	.LBE423:
ARM GAS  /tmp/ccqhiTbD.s 			page 59


 3306              	.LBE425:
 3307              		.loc 7 254 3 is_stmt 1 view .LVU609
 3308              		.loc 7 254 3 is_stmt 0 view .LVU610
 3309              	.LBE428:
 3310              	.LBE431:
 3311              		.loc 1 191 3 is_stmt 1 view .LVU611
 3312              	.LBB432:
 3313              	.LBI432:
 3314              		.loc 2 187 23 view .LVU612
 3315              	.LBB433:
 3316              		.loc 2 189 3 view .LVU613
 3317              	.LBB434:
 3318              	.LBI434:
 3319              		.loc 2 174 25 view .LVU614
 3320              	.LBB435:
 3321              		.loc 2 176 3 view .LVU615
 3322              	.LBE435:
 3323              	.LBE434:
 3324              		.loc 2 189 25 is_stmt 0 view .LVU616
 3325 0046 A369     		ldr	r3, [r4, #24]
 3326              	.LBE433:
 3327              	.LBE432:
 3328              		.loc 1 191 16 view .LVU617
 3329 0048 244F     		ldr	r7, .L210+8
 3330 004a 9A68     		ldr	r2, [r3, #8]
 3331 004c 3868     		ldr	r0, [r7]
 3332 004e 244B     		ldr	r3, .L210+12
 3333 0050 0095     		str	r5, [sp]
 3334 0052 013A     		subs	r2, r2, #1
 3335 0054 4FF4FC71 		mov	r1, #504
 3336 0058 FFF7FEFF 		bl	chThdCreateStatic
 3337              	.LVL217:
 3338              		.loc 1 191 14 view .LVU618
 3339 005c 214E     		ldr	r6, .L210+16
 3340              	.LBB436:
 3341              	.LBB437:
 3342              		.loc 2 189 25 view .LVU619
 3343 005e A369     		ldr	r3, [r4, #24]
 3344              	.LBE437:
 3345              	.LBE436:
 3346              		.loc 1 191 14 view .LVU620
 3347 0060 3060     		str	r0, [r6]
 3348              		.loc 1 192 3 is_stmt 1 view .LVU621
 3349              	.LBB441:
 3350              	.LBI436:
 3351              		.loc 2 187 23 view .LVU622
 3352              	.LBB440:
 3353              		.loc 2 189 3 view .LVU623
 3354              	.LBB438:
 3355              	.LBI438:
 3356              		.loc 2 174 25 view .LVU624
 3357              	.LBB439:
 3358              		.loc 2 176 3 view .LVU625
 3359              	.LBE439:
 3360              	.LBE438:
 3361              	.LBE440:
 3362              	.LBE441:
ARM GAS  /tmp/ccqhiTbD.s 			page 60


 3363              		.loc 1 192 16 is_stmt 0 view .LVU626
 3364 0062 9A68     		ldr	r2, [r3, #8]
 3365 0064 7868     		ldr	r0, [r7, #4]
 3366 0066 204B     		ldr	r3, .L210+20
 3367 0068 0095     		str	r5, [sp]
 3368 006a 023A     		subs	r2, r2, #2
 3369 006c 4FF4FC71 		mov	r1, #504
 3370 0070 FFF7FEFF 		bl	chThdCreateStatic
 3371              	.LVL218:
 3372              	.LBB442:
 3373              	.LBB443:
 3374              		.loc 2 189 25 view .LVU627
 3375 0074 A369     		ldr	r3, [r4, #24]
 3376              	.LBE443:
 3377              	.LBE442:
 3378              		.loc 1 192 14 view .LVU628
 3379 0076 7060     		str	r0, [r6, #4]
 3380              		.loc 1 193 3 is_stmt 1 view .LVU629
 3381              	.LBB447:
 3382              	.LBI442:
 3383              		.loc 2 187 23 view .LVU630
 3384              	.LBB446:
 3385              		.loc 2 189 3 view .LVU631
 3386              	.LBB444:
 3387              	.LBI444:
 3388              		.loc 2 174 25 view .LVU632
 3389              	.LBB445:
 3390              		.loc 2 176 3 view .LVU633
 3391              	.LBE445:
 3392              	.LBE444:
 3393              	.LBE446:
 3394              	.LBE447:
 3395              		.loc 1 193 16 is_stmt 0 view .LVU634
 3396 0078 9A68     		ldr	r2, [r3, #8]
 3397 007a B868     		ldr	r0, [r7, #8]
 3398 007c 1B4B     		ldr	r3, .L210+24
 3399 007e 0095     		str	r5, [sp]
 3400 0080 033A     		subs	r2, r2, #3
 3401 0082 4FF4FC71 		mov	r1, #504
 3402 0086 FFF7FEFF 		bl	chThdCreateStatic
 3403              	.LVL219:
 3404              		.loc 1 193 14 view .LVU635
 3405 008a B060     		str	r0, [r6, #8]
 3406              		.loc 1 194 3 is_stmt 1 view .LVU636
 3407 008c FFF7FEFF 		bl	test_wait_threads
 3408              	.LVL220:
 3409              		.loc 1 195 3 view .LVU637
 3410 0090 1749     		ldr	r1, .L210+28
 3411 0092 0120     		movs	r0, #1
 3412 0094 FFF7FEFF 		bl	_test_assert_sequence
 3413              	.LVL221:
 3414              		.loc 1 197 1 is_stmt 0 view .LVU638
 3415 0098 0E4B     		ldr	r3, .L210
 3416              		.loc 1 195 3 view .LVU639
 3417 009a 50B1     		cbz	r0, .L209
 3418              		.loc 1 197 1 view .LVU640
 3419 009c 1A68     		ldr	r2, [r3]
ARM GAS  /tmp/ccqhiTbD.s 			page 61


 3420 009e 039B     		ldr	r3, [sp, #12]
 3421 00a0 5A40     		eors	r2, r3, r2
 3422 00a2 14D1     		bne	.L207
 3423 00a4 04B0     		add	sp, sp, #16
 3424              		.cfi_remember_state
 3425              		.cfi_def_cfa_offset 24
 3426              		@ sp needed
 3427 00a6 BDE8F081 		pop	{r4, r5, r6, r7, r8, pc}
 3428              	.LVL222:
 3429              	.L208:
 3430              		.cfi_restore_state
 3431              	.LBB448:
 3432              	.LBB429:
 3433              	.LBB426:
 3434              	.LBB424:
 3435              		.loc 3 367 3 is_stmt 1 view .LVU641
 3436 00aa 1248     		ldr	r0, .L210+32
 3437 00ac FFF7FEFF 		bl	chSysHalt
 3438              	.LVL223:
 3439 00b0 C6E7     		b	.L202
 3440              	.LVL224:
 3441              	.L209:
 3442              		.loc 3 367 3 is_stmt 0 view .LVU642
 3443              	.LBE424:
 3444              	.LBE426:
 3445              	.LBE429:
 3446              	.LBE448:
 3447              		.loc 1 195 33 is_stmt 1 discriminator 2 view .LVU643
 3448              		.loc 1 196 3 discriminator 2 view .LVU644
 3449 00b2 1A68     		ldr	r2, [r3]
 3450 00b4 039B     		ldr	r3, [sp, #12]
 3451 00b6 5A40     		eors	r2, r3, r2
 3452 00b8 09D1     		bne	.L207
 3453 00ba 08F16902 		add	r2, r8, #105
 3454 00be 08F16401 		add	r1, r8, #100
 3455 00c2 0220     		movs	r0, #2
 3456              		.loc 1 197 1 is_stmt 0 discriminator 2 view .LVU645
 3457 00c4 04B0     		add	sp, sp, #16
 3458              		.cfi_remember_state
 3459              		.cfi_def_cfa_offset 24
 3460              		@ sp needed
 3461 00c6 BDE8F041 		pop	{r4, r5, r6, r7, r8, lr}
 3462              		.cfi_restore 14
 3463              		.cfi_restore 8
 3464              		.cfi_restore 7
 3465              		.cfi_restore 6
 3466              		.cfi_restore 5
 3467              		.cfi_restore 4
 3468              		.cfi_def_cfa_offset 0
 3469              	.LVL225:
 3470              		.loc 1 196 3 discriminator 2 view .LVU646
 3471 00ca FFF7FEBF 		b	_test_assert_time_window
 3472              	.LVL226:
 3473              	.L207:
 3474              		.cfi_restore_state
 3475              		.loc 1 197 1 view .LVU647
 3476 00ce FFF7FEFF 		bl	__stack_chk_fail
ARM GAS  /tmp/ccqhiTbD.s 			page 62


 3477              	.LVL227:
 3478              	.L211:
 3479 00d2 00BF     		.align	2
 3480              	.L210:
 3481 00d4 00000000 		.word	.LC34
 3482 00d8 00000000 		.word	ch
 3483 00dc 00000000 		.word	wa
 3484 00e0 00000000 		.word	thread2H
 3485 00e4 00000000 		.word	threads
 3486 00e8 00000000 		.word	thread2M
 3487 00ec 00000000 		.word	thread2L
 3488 00f0 00000000 		.word	.LC30
 3489 00f4 00000000 		.word	.LANCHOR2
 3490              		.cfi_endproc
 3491              	.LFE226:
 3492              		.size	mtx2_execute, .-mtx2_execute
 3493              		.section	.rodata.mtx6_execute.cst4,"aM",%progbits,4
 3494              		.align	2
 3495              	.LC35:
 3496 0000 00000000 		.word	__stack_chk_guard
 3497              		.section	.text.mtx6_execute,"ax",%progbits
 3498              		.align	1
 3499              		.p2align 4,,15
 3500              		.syntax unified
 3501              		.thumb
 3502              		.thumb_func
 3503              		.fpu fpv4-sp-d16
 3504              		.type	mtx6_execute, %function
 3505              	mtx6_execute:
 3506              	.LFB242:
 3507              		.loc 1 483 32 is_stmt 1 view -0
 3508              		.cfi_startproc
 3509              		@ args = 0, pretend = 0, frame = 8
 3510              		@ frame_needed = 0, uses_anonymous_args = 0
 3511 0000 F0B5     		push	{r4, r5, r6, r7, lr}
 3512              		.cfi_def_cfa_offset 20
 3513              		.cfi_offset 4, -20
 3514              		.cfi_offset 5, -16
 3515              		.cfi_offset 6, -12
 3516              		.cfi_offset 7, -8
 3517              		.cfi_offset 14, -4
 3518              	.LBB463:
 3519              	.LBB464:
 3520              	.LBB465:
 3521              	.LBB466:
 3522              		.loc 2 176 18 is_stmt 0 view .LVU649
 3523 0002 3E4F     		ldr	r7, .L219
 3524              	.LBE466:
 3525              	.LBE465:
 3526              	.LBE464:
 3527              	.LBE463:
 3528              		.loc 1 486 16 view .LVU650
 3529 0004 3E4E     		ldr	r6, .L219+4
 3530              	.LBB472:
 3531              	.LBB469:
 3532              		.loc 2 189 25 view .LVU651
 3533 0006 BA69     		ldr	r2, [r7, #24]
ARM GAS  /tmp/ccqhiTbD.s 			page 63


 3534              	.LBE469:
 3535              	.LBE472:
 3536              		.loc 1 486 16 view .LVU652
 3537 0008 3E4B     		ldr	r3, .L219+8
 3538              	.LBB473:
 3539              	.LBB470:
 3540              		.loc 2 189 25 view .LVU653
 3541 000a 9568     		ldr	r5, [r2, #8]
 3542              	.LBE470:
 3543              	.LBE473:
 3544              		.loc 1 483 32 view .LVU654
 3545 000c 3E49     		ldr	r1, .L219+12
 3546              		.loc 1 486 16 view .LVU655
 3547 000e 3068     		ldr	r0, [r6]
 3548              		.loc 1 486 14 view .LVU656
 3549 0010 3E4C     		ldr	r4, .L219+16
 3550              		.loc 1 483 32 view .LVU657
 3551 0012 85B0     		sub	sp, sp, #20
 3552              		.cfi_def_cfa_offset 40
 3553              		.loc 1 486 16 view .LVU658
 3554 0014 6A1C     		adds	r2, r5, #1
 3555 0016 0093     		str	r3, [sp]
 3556              		.loc 1 483 32 view .LVU659
 3557 0018 0968     		ldr	r1, [r1]
 3558 001a 0391     		str	r1, [sp, #12]
 3559 001c 4FF00001 		mov	r1,#0
 3560              		.loc 1 485 3 is_stmt 1 view .LVU660
 3561              	.LBB474:
 3562              	.LBI463:
 3563              		.loc 2 187 23 view .LVU661
 3564              	.LBB471:
 3565              		.loc 2 189 3 view .LVU662
 3566              	.LBB468:
 3567              	.LBI465:
 3568              		.loc 2 174 25 view .LVU663
 3569              	.LBB467:
 3570              		.loc 2 176 3 view .LVU664
 3571              	.LVL228:
 3572              		.loc 2 176 3 is_stmt 0 view .LVU665
 3573              	.LBE467:
 3574              	.LBE468:
 3575              	.LBE471:
 3576              	.LBE474:
 3577              		.loc 1 486 3 is_stmt 1 view .LVU666
 3578              		.loc 1 486 16 is_stmt 0 view .LVU667
 3579 0020 3B4B     		ldr	r3, .L219+20
 3580 0022 4FF4FC71 		mov	r1, #504
 3581 0026 FFF7FEFF 		bl	chThdCreateStatic
 3582              	.LVL229:
 3583              		.loc 1 487 16 view .LVU668
 3584 002a 3A4B     		ldr	r3, .L219+24
 3585 002c 0093     		str	r3, [sp]
 3586              		.loc 1 486 16 view .LVU669
 3587 002e 0146     		mov	r1, r0
 3588              		.loc 1 487 16 view .LVU670
 3589 0030 AA1C     		adds	r2, r5, #2
 3590              		.loc 1 486 14 view .LVU671
ARM GAS  /tmp/ccqhiTbD.s 			page 64


 3591 0032 2160     		str	r1, [r4]
 3592              		.loc 1 487 3 is_stmt 1 view .LVU672
 3593              		.loc 1 487 16 is_stmt 0 view .LVU673
 3594 0034 7068     		ldr	r0, [r6, #4]
 3595 0036 364B     		ldr	r3, .L219+20
 3596 0038 4FF4FC71 		mov	r1, #504
 3597 003c FFF7FEFF 		bl	chThdCreateStatic
 3598              	.LVL230:
 3599              		.loc 1 488 16 view .LVU674
 3600 0040 354B     		ldr	r3, .L219+28
 3601 0042 0093     		str	r3, [sp]
 3602              		.loc 1 487 16 view .LVU675
 3603 0044 0146     		mov	r1, r0
 3604              		.loc 1 488 16 view .LVU676
 3605 0046 EA1C     		adds	r2, r5, #3
 3606              		.loc 1 487 14 view .LVU677
 3607 0048 6160     		str	r1, [r4, #4]
 3608              		.loc 1 488 3 is_stmt 1 view .LVU678
 3609              		.loc 1 488 16 is_stmt 0 view .LVU679
 3610 004a B068     		ldr	r0, [r6, #8]
 3611 004c 304B     		ldr	r3, .L219+20
 3612 004e 4FF4FC71 		mov	r1, #504
 3613 0052 FFF7FEFF 		bl	chThdCreateStatic
 3614              	.LVL231:
 3615              		.loc 1 489 16 view .LVU680
 3616 0056 314B     		ldr	r3, .L219+32
 3617 0058 0093     		str	r3, [sp]
 3618              		.loc 1 488 16 view .LVU681
 3619 005a 0146     		mov	r1, r0
 3620              		.loc 1 489 16 view .LVU682
 3621 005c 2A1D     		adds	r2, r5, #4
 3622              		.loc 1 488 14 view .LVU683
 3623 005e A160     		str	r1, [r4, #8]
 3624              		.loc 1 489 3 is_stmt 1 view .LVU684
 3625              		.loc 1 489 16 is_stmt 0 view .LVU685
 3626 0060 F068     		ldr	r0, [r6, #12]
 3627 0062 2B4B     		ldr	r3, .L219+20
 3628 0064 4FF4FC71 		mov	r1, #504
 3629 0068 FFF7FEFF 		bl	chThdCreateStatic
 3630              	.LVL232:
 3631              		.loc 1 490 16 view .LVU686
 3632 006c 2C4B     		ldr	r3, .L219+36
 3633 006e 0093     		str	r3, [sp]
 3634              		.loc 1 489 16 view .LVU687
 3635 0070 0146     		mov	r1, r0
 3636              		.loc 1 489 14 view .LVU688
 3637 0072 E160     		str	r1, [r4, #12]
 3638              		.loc 1 490 3 is_stmt 1 view .LVU689
 3639              		.loc 1 490 16 is_stmt 0 view .LVU690
 3640 0074 3069     		ldr	r0, [r6, #16]
 3641 0076 264B     		ldr	r3, .L219+20
 3642 0078 6A1D     		adds	r2, r5, #5
 3643 007a 4FF4FC71 		mov	r1, #504
 3644 007e FFF7FEFF 		bl	chThdCreateStatic
 3645              	.LVL233:
 3646              	.LBB475:
 3647              	.LBB476:
ARM GAS  /tmp/ccqhiTbD.s 			page 65


 3648              	.LBB477:
 3649              	.LBB478:
 3650              	.LBB479:
 3651              		.loc 5 546 3 view .LVU691
 3652 0082 2023     		movs	r3, #32
 3653              	.LBE479:
 3654              	.LBE478:
 3655              	.LBE477:
 3656              	.LBE476:
 3657              	.LBE475:
 3658              		.loc 1 490 14 view .LVU692
 3659 0084 2061     		str	r0, [r4, #16]
 3660              		.loc 1 491 3 is_stmt 1 view .LVU693
 3661              	.LBB486:
 3662              	.LBI475:
 3663              		.loc 3 346 20 view .LVU694
 3664              	.LBB484:
 3665              		.loc 3 348 3 view .LVU695
 3666              	.LBB482:
 3667              	.LBI477:
 3668              		.loc 4 444 20 view .LVU696
 3669              	.LBE482:
 3670              	.LBE484:
 3671              	.LBE486:
 3672              		.loc 4 447 3 view .LVU697
 3673              	.LVL234:
 3674              	.LBB487:
 3675              	.LBB485:
 3676              	.LBB483:
 3677              	.LBB481:
 3678              	.LBI478:
 3679              		.loc 5 544 57 view .LVU698
 3680              	.LBB480:
 3681              		.loc 5 546 3 view .LVU699
 3682              		.syntax unified
 3683              	@ 546 ".//ChibiOS//os/ext/CMSIS/include/core_cmFunc.h" 1
 3684 0086 83F31188 		MSR basepri, r3
 3685              	@ 0 "" 2
 3686              	.LVL235:
 3687              		.loc 5 546 3 is_stmt 0 view .LVU700
 3688              		.thumb
 3689              		.syntax unified
 3690              	.LBE480:
 3691              	.LBE481:
 3692              	.LBE483:
 3693              		.loc 3 349 3 is_stmt 1 view .LVU701
 3694 008a FFF7FEFF 		bl	_stats_start_measure_crit_thd
 3695              	.LVL236:
 3696              		.loc 3 350 3 view .LVU702
 3697 008e FFF7FEFF 		bl	_dbg_check_lock
 3698              	.LVL237:
 3699              	.LBE485:
 3700              	.LBE487:
 3701              		.loc 1 492 3 view .LVU703
 3702 0092 2448     		ldr	r0, .L219+40
 3703 0094 FFF7FEFF 		bl	chCondSignalI
 3704              	.LVL238:
ARM GAS  /tmp/ccqhiTbD.s 			page 66


 3705              		.loc 1 493 3 view .LVU704
 3706 0098 2248     		ldr	r0, .L219+40
 3707 009a FFF7FEFF 		bl	chCondSignalI
 3708              	.LVL239:
 3709              		.loc 1 494 3 view .LVU705
 3710 009e 2148     		ldr	r0, .L219+40
 3711 00a0 FFF7FEFF 		bl	chCondSignalI
 3712              	.LVL240:
 3713              		.loc 1 495 3 view .LVU706
 3714 00a4 1F48     		ldr	r0, .L219+40
 3715 00a6 FFF7FEFF 		bl	chCondSignalI
 3716              	.LVL241:
 3717              		.loc 1 496 3 view .LVU707
 3718 00aa 1E48     		ldr	r0, .L219+40
 3719 00ac FFF7FEFF 		bl	chCondSignalI
 3720              	.LVL242:
 3721              		.loc 1 497 3 view .LVU708
 3722 00b0 FFF7FEFF 		bl	chSchRescheduleS
 3723              	.LVL243:
 3724              		.loc 1 498 3 view .LVU709
 3725              	.LBB488:
 3726              	.LBI488:
 3727              		.loc 3 358 20 view .LVU710
 3728              	.LBB489:
 3729              		.loc 3 360 3 view .LVU711
 3730 00b4 FFF7FEFF 		bl	_dbg_check_unlock
 3731              	.LVL244:
 3732              		.loc 3 361 3 view .LVU712
 3733 00b8 FFF7FEFF 		bl	_stats_stop_measure_crit_thd
 3734              	.LVL245:
 3735              		.loc 3 367 3 view .LVU713
 3736              		.loc 3 367 3 view .LVU714
 3737              		.loc 3 367 3 view .LVU715
 3738 00bc 3B68     		ldr	r3, [r7]
 3739 00be BB42     		cmp	r3, r7
 3740 00c0 04D0     		beq	.L213
 3741 00c2 BA69     		ldr	r2, [r7, #24]
 3742 00c4 9B68     		ldr	r3, [r3, #8]
 3743 00c6 9268     		ldr	r2, [r2, #8]
 3744 00c8 9A42     		cmp	r2, r3
 3745 00ca 10D3     		bcc	.L217
 3746              	.L213:
 3747              		.loc 3 367 3 view .LVU716
 3748              		.loc 3 371 3 view .LVU717
 3749              	.LBB490:
 3750              	.LBI490:
 3751              		.loc 4 458 20 view .LVU718
 3752              	.LBE490:
 3753              	.LBE489:
 3754              	.LBE488:
 3755              		.loc 4 461 3 view .LVU719
 3756              	.LVL246:
 3757              	.LBB496:
 3758              	.LBB494:
 3759              	.LBB493:
 3760              	.LBB491:
 3761              	.LBI491:
ARM GAS  /tmp/ccqhiTbD.s 			page 67


 3762              		.loc 5 544 57 view .LVU720
 3763              	.LBB492:
 3764              		.loc 5 546 3 view .LVU721
 3765 00cc 0023     		movs	r3, #0
 3766              		.syntax unified
 3767              	@ 546 ".//ChibiOS//os/ext/CMSIS/include/core_cmFunc.h" 1
 3768 00ce 83F31188 		MSR basepri, r3
 3769              	@ 0 "" 2
 3770              	.LVL247:
 3771              		.loc 5 546 3 is_stmt 0 view .LVU722
 3772              		.thumb
 3773              		.syntax unified
 3774              	.LBE492:
 3775              	.LBE491:
 3776              	.LBE493:
 3777              	.LBE494:
 3778              	.LBE496:
 3779              		.loc 1 499 3 is_stmt 1 view .LVU723
 3780 00d2 FFF7FEFF 		bl	test_wait_threads
 3781              	.LVL248:
 3782              		.loc 1 500 3 view .LVU724
 3783 00d6 0C4B     		ldr	r3, .L219+12
 3784 00d8 1A68     		ldr	r2, [r3]
 3785 00da 039B     		ldr	r3, [sp, #12]
 3786 00dc 5A40     		eors	r2, r3, r2
 3787 00de 0AD1     		bne	.L218
 3788 00e0 1149     		ldr	r1, .L219+44
 3789 00e2 0120     		movs	r0, #1
 3790              		.loc 1 501 1 is_stmt 0 view .LVU725
 3791 00e4 05B0     		add	sp, sp, #20
 3792              		.cfi_remember_state
 3793              		.cfi_def_cfa_offset 20
 3794              		@ sp needed
 3795 00e6 BDE8F040 		pop	{r4, r5, r6, r7, lr}
 3796              		.cfi_restore 14
 3797              		.cfi_restore 7
 3798              		.cfi_restore 6
 3799              		.cfi_restore 5
 3800              		.cfi_restore 4
 3801              		.cfi_def_cfa_offset 0
 3802              	.LVL249:
 3803              		.loc 1 500 3 view .LVU726
 3804 00ea FFF7FEBF 		b	_test_assert_sequence
 3805              	.LVL250:
 3806              	.L217:
 3807              		.cfi_restore_state
 3808              	.LBB497:
 3809              	.LBB495:
 3810              		.loc 3 367 3 is_stmt 1 view .LVU727
 3811 00ee 0F48     		ldr	r0, .L219+48
 3812 00f0 FFF7FEFF 		bl	chSysHalt
 3813              	.LVL251:
 3814 00f4 EAE7     		b	.L213
 3815              	.L218:
 3816              	.LBE495:
 3817              	.LBE497:
 3818              		.loc 1 500 3 is_stmt 0 view .LVU728
ARM GAS  /tmp/ccqhiTbD.s 			page 68


 3819 00f6 FFF7FEFF 		bl	__stack_chk_fail
 3820              	.LVL252:
 3821              	.L220:
 3822 00fa 00BF     		.align	2
 3823              	.L219:
 3824 00fc 00000000 		.word	ch
 3825 0100 00000000 		.word	wa
 3826 0104 00000000 		.word	.LC0
 3827 0108 00000000 		.word	.LC35
 3828 010c 00000000 		.word	threads
 3829 0110 00000000 		.word	thread10
 3830 0114 04000000 		.word	.LC1
 3831 0118 08000000 		.word	.LC2
 3832 011c 0C000000 		.word	.LC3
 3833 0120 10000000 		.word	.LC4
 3834 0124 00000000 		.word	.LANCHOR3
 3835 0128 14000000 		.word	.LC5
 3836 012c 00000000 		.word	.LANCHOR2
 3837              		.cfi_endproc
 3838              	.LFE242:
 3839              		.size	mtx6_execute, .-mtx6_execute
 3840              		.section	.rodata.mtx3_execute.cst4,"aM",%progbits,4
 3841              		.align	2
 3842              	.LC36:
 3843 0000 00000000 		.word	__stack_chk_guard
 3844              		.section	.text.mtx3_execute,"ax",%progbits
 3845              		.align	1
 3846              		.p2align 4,,15
 3847              		.syntax unified
 3848              		.thumb
 3849              		.thumb_func
 3850              		.fpu fpv4-sp-d16
 3851              		.type	mtx3_execute, %function
 3852              	mtx3_execute:
 3853              	.LFB233:
 3854              		.loc 1 299 32 is_stmt 1 view -0
 3855              		.cfi_startproc
 3856              		@ args = 0, pretend = 0, frame = 8
 3857              		@ frame_needed = 0, uses_anonymous_args = 0
 3858 0000 2DE9F041 		push	{r4, r5, r6, r7, r8, lr}
 3859              		.cfi_def_cfa_offset 24
 3860              		.cfi_offset 4, -24
 3861              		.cfi_offset 5, -20
 3862              		.cfi_offset 6, -16
 3863              		.cfi_offset 7, -12
 3864              		.cfi_offset 8, -8
 3865              		.cfi_offset 14, -4
 3866 0004 3E4B     		ldr	r3, .L230
 3867 0006 84B0     		sub	sp, sp, #16
 3868              		.cfi_def_cfa_offset 40
 3869              		.loc 1 299 32 is_stmt 0 view .LVU730
 3870 0008 1B68     		ldr	r3, [r3]
 3871 000a 0393     		str	r3, [sp, #12]
 3872 000c 4FF00003 		mov	r3,#0
 3873              		.loc 1 300 3 is_stmt 1 view .LVU731
 3874              		.loc 1 302 3 view .LVU732
 3875 0010 FFF7FEFF 		bl	test_wait_tick
ARM GAS  /tmp/ccqhiTbD.s 			page 69


 3876              	.LVL253:
 3877              		.loc 1 303 3 view .LVU733
 3878              	.LBB532:
 3879              	.LBI532:
 3880              		.loc 7 247 25 view .LVU734
 3881              	.LBB533:
 3882              		.loc 7 248 3 view .LVU735
 3883              		.loc 7 250 3 view .LVU736
 3884              	.LBB534:
 3885              	.LBI534:
 3886              		.loc 3 346 20 view .LVU737
 3887              	.LBB535:
 3888              		.loc 3 348 3 view .LVU738
 3889              	.LBB536:
 3890              	.LBI536:
 3891              		.loc 4 444 20 view .LVU739
 3892              	.LBE536:
 3893              	.LBE535:
 3894              	.LBE534:
 3895              	.LBE533:
 3896              	.LBE532:
 3897              		.loc 4 447 3 view .LVU740
 3898              	.LBB561:
 3899              	.LBB558:
 3900              	.LBB542:
 3901              	.LBB540:
 3902              	.LBB539:
 3903              	.LBB537:
 3904              	.LBI537:
 3905              		.loc 5 544 57 view .LVU741
 3906              	.LBB538:
 3907              		.loc 5 546 3 view .LVU742
 3908 0014 2023     		movs	r3, #32
 3909              		.syntax unified
 3910              	@ 546 ".//ChibiOS//os/ext/CMSIS/include/core_cmFunc.h" 1
 3911 0016 83F31188 		MSR basepri, r3
 3912              	@ 0 "" 2
 3913              	.LVL254:
 3914              		.loc 5 546 3 is_stmt 0 view .LVU743
 3915              		.thumb
 3916              		.syntax unified
 3917              	.LBE538:
 3918              	.LBE537:
 3919              	.LBE539:
 3920              		.loc 3 349 3 is_stmt 1 view .LVU744
 3921              	.LBE540:
 3922              	.LBE542:
 3923              	.LBB543:
 3924              	.LBB544:
 3925              		.loc 7 231 19 is_stmt 0 view .LVU745
 3926 001a 3A4C     		ldr	r4, .L230+4
 3927              	.LBE544:
 3928              	.LBE543:
 3929              	.LBB546:
 3930              	.LBB541:
 3931              		.loc 3 349 3 view .LVU746
 3932 001c FFF7FEFF 		bl	_stats_start_measure_crit_thd
ARM GAS  /tmp/ccqhiTbD.s 			page 70


 3933              	.LVL255:
 3934              		.loc 3 350 3 is_stmt 1 view .LVU747
 3935 0020 FFF7FEFF 		bl	_dbg_check_lock
 3936              	.LVL256:
 3937              	.LBE541:
 3938              	.LBE546:
 3939              		.loc 7 251 3 view .LVU748
 3940              	.LBB547:
 3941              	.LBI543:
 3942              		.loc 7 228 25 view .LVU749
 3943              	.LBB545:
 3944              		.loc 7 231 3 view .LVU750
 3945              		.loc 7 231 19 is_stmt 0 view .LVU751
 3946 0024 D4F82880 		ldr	r8, [r4, #40]
 3947              	.LVL257:
 3948              		.loc 7 231 19 view .LVU752
 3949              	.LBE545:
 3950              	.LBE547:
 3951              		.loc 7 252 3 is_stmt 1 view .LVU753
 3952              	.LBB548:
 3953              	.LBI548:
 3954              		.loc 3 358 20 view .LVU754
 3955              	.LBB549:
 3956              		.loc 3 360 3 view .LVU755
 3957 0028 FFF7FEFF 		bl	_dbg_check_unlock
 3958              	.LVL258:
 3959              		.loc 3 361 3 view .LVU756
 3960 002c FFF7FEFF 		bl	_stats_stop_measure_crit_thd
 3961              	.LVL259:
 3962              		.loc 3 367 3 view .LVU757
 3963              		.loc 3 367 3 view .LVU758
 3964              		.loc 3 367 3 view .LVU759
 3965 0030 2368     		ldr	r3, [r4]
 3966 0032 A342     		cmp	r3, r4
 3967 0034 04D0     		beq	.L222
 3968 0036 A269     		ldr	r2, [r4, #24]
 3969 0038 9B68     		ldr	r3, [r3, #8]
 3970 003a 9268     		ldr	r2, [r2, #8]
 3971 003c 9A42     		cmp	r2, r3
 3972 003e 4AD3     		bcc	.L228
 3973              	.L222:
 3974              		.loc 3 367 3 view .LVU760
 3975              		.loc 3 371 3 view .LVU761
 3976              	.LBB550:
 3977              	.LBI550:
 3978              		.loc 4 458 20 view .LVU762
 3979              	.LBE550:
 3980              	.LBE549:
 3981              	.LBE548:
 3982              	.LBE558:
 3983              	.LBE561:
 3984              		.loc 4 461 3 view .LVU763
 3985              	.LVL260:
 3986              	.LBB562:
 3987              	.LBB559:
 3988              	.LBB556:
 3989              	.LBB554:
ARM GAS  /tmp/ccqhiTbD.s 			page 71


 3990              	.LBB553:
 3991              	.LBB551:
 3992              	.LBI551:
 3993              		.loc 5 544 57 view .LVU764
 3994              	.LBB552:
 3995              		.loc 5 546 3 view .LVU765
 3996 0040 0025     		movs	r5, #0
 3997              		.syntax unified
 3998              	@ 546 ".//ChibiOS//os/ext/CMSIS/include/core_cmFunc.h" 1
 3999 0042 85F31188 		MSR basepri, r5
 4000              	@ 0 "" 2
 4001              	.LVL261:
 4002              		.loc 5 546 3 is_stmt 0 view .LVU766
 4003              		.thumb
 4004              		.syntax unified
 4005              	.LBE552:
 4006              	.LBE551:
 4007              	.LBE553:
 4008              	.LBE554:
 4009              	.LBE556:
 4010              		.loc 7 254 3 is_stmt 1 view .LVU767
 4011              		.loc 7 254 3 is_stmt 0 view .LVU768
 4012              	.LBE559:
 4013              	.LBE562:
 4014              		.loc 1 304 3 is_stmt 1 view .LVU769
 4015              	.LBB563:
 4016              	.LBI563:
 4017              		.loc 2 187 23 view .LVU770
 4018              	.LBB564:
 4019              		.loc 2 189 3 view .LVU771
 4020              	.LBB565:
 4021              	.LBI565:
 4022              		.loc 2 174 25 view .LVU772
 4023              	.LBB566:
 4024              		.loc 2 176 3 view .LVU773
 4025              	.LBE566:
 4026              	.LBE565:
 4027              		.loc 2 189 25 is_stmt 0 view .LVU774
 4028 0046 A369     		ldr	r3, [r4, #24]
 4029              	.LBE564:
 4030              	.LBE563:
 4031              		.loc 1 304 16 view .LVU775
 4032 0048 2F4F     		ldr	r7, .L230+8
 4033 004a 9A68     		ldr	r2, [r3, #8]
 4034 004c 3868     		ldr	r0, [r7]
 4035 004e 2F4B     		ldr	r3, .L230+12
 4036 0050 0095     		str	r5, [sp]
 4037 0052 053A     		subs	r2, r2, #5
 4038 0054 4FF4FC71 		mov	r1, #504
 4039 0058 FFF7FEFF 		bl	chThdCreateStatic
 4040              	.LVL262:
 4041              		.loc 1 304 14 view .LVU776
 4042 005c 2C4E     		ldr	r6, .L230+16
 4043              	.LBB567:
 4044              	.LBB568:
 4045              		.loc 2 189 25 view .LVU777
 4046 005e A369     		ldr	r3, [r4, #24]
ARM GAS  /tmp/ccqhiTbD.s 			page 72


 4047              	.LBE568:
 4048              	.LBE567:
 4049              		.loc 1 304 14 view .LVU778
 4050 0060 3060     		str	r0, [r6]
 4051              		.loc 1 305 3 is_stmt 1 view .LVU779
 4052              	.LBB572:
 4053              	.LBI567:
 4054              		.loc 2 187 23 view .LVU780
 4055              	.LBB571:
 4056              		.loc 2 189 3 view .LVU781
 4057              	.LBB569:
 4058              	.LBI569:
 4059              		.loc 2 174 25 view .LVU782
 4060              	.LBB570:
 4061              		.loc 2 176 3 view .LVU783
 4062              	.LBE570:
 4063              	.LBE569:
 4064              	.LBE571:
 4065              	.LBE572:
 4066              		.loc 1 305 16 is_stmt 0 view .LVU784
 4067 0062 9A68     		ldr	r2, [r3, #8]
 4068 0064 7868     		ldr	r0, [r7, #4]
 4069 0066 2B4B     		ldr	r3, .L230+20
 4070 0068 0095     		str	r5, [sp]
 4071 006a 043A     		subs	r2, r2, #4
 4072 006c 4FF4FC71 		mov	r1, #504
 4073 0070 FFF7FEFF 		bl	chThdCreateStatic
 4074              	.LVL263:
 4075              	.LBB573:
 4076              	.LBB574:
 4077              		.loc 2 189 25 view .LVU785
 4078 0074 A369     		ldr	r3, [r4, #24]
 4079              	.LBE574:
 4080              	.LBE573:
 4081              		.loc 1 305 14 view .LVU786
 4082 0076 7060     		str	r0, [r6, #4]
 4083              		.loc 1 306 3 is_stmt 1 view .LVU787
 4084              	.LBB578:
 4085              	.LBI573:
 4086              		.loc 2 187 23 view .LVU788
 4087              	.LBB577:
 4088              		.loc 2 189 3 view .LVU789
 4089              	.LBB575:
 4090              	.LBI575:
 4091              		.loc 2 174 25 view .LVU790
 4092              	.LBB576:
 4093              		.loc 2 176 3 view .LVU791
 4094              	.LBE576:
 4095              	.LBE575:
 4096              	.LBE577:
 4097              	.LBE578:
 4098              		.loc 1 306 16 is_stmt 0 view .LVU792
 4099 0078 9A68     		ldr	r2, [r3, #8]
 4100 007a B868     		ldr	r0, [r7, #8]
 4101 007c 264B     		ldr	r3, .L230+24
 4102 007e 0095     		str	r5, [sp]
 4103 0080 033A     		subs	r2, r2, #3
ARM GAS  /tmp/ccqhiTbD.s 			page 73


 4104 0082 4FF4FC71 		mov	r1, #504
 4105 0086 FFF7FEFF 		bl	chThdCreateStatic
 4106              	.LVL264:
 4107              	.LBB579:
 4108              	.LBB580:
 4109              		.loc 2 189 25 view .LVU793
 4110 008a A369     		ldr	r3, [r4, #24]
 4111              	.LBE580:
 4112              	.LBE579:
 4113              		.loc 1 306 14 view .LVU794
 4114 008c B060     		str	r0, [r6, #8]
 4115              		.loc 1 307 3 is_stmt 1 view .LVU795
 4116              	.LBB584:
 4117              	.LBI579:
 4118              		.loc 2 187 23 view .LVU796
 4119              	.LBB583:
 4120              		.loc 2 189 3 view .LVU797
 4121              	.LBB581:
 4122              	.LBI581:
 4123              		.loc 2 174 25 view .LVU798
 4124              	.LBB582:
 4125              		.loc 2 176 3 view .LVU799
 4126              	.LBE582:
 4127              	.LBE581:
 4128              	.LBE583:
 4129              	.LBE584:
 4130              		.loc 1 307 16 is_stmt 0 view .LVU800
 4131 008e 9A68     		ldr	r2, [r3, #8]
 4132 0090 F868     		ldr	r0, [r7, #12]
 4133 0092 224B     		ldr	r3, .L230+28
 4134 0094 0095     		str	r5, [sp]
 4135 0096 023A     		subs	r2, r2, #2
 4136 0098 4FF4FC71 		mov	r1, #504
 4137 009c FFF7FEFF 		bl	chThdCreateStatic
 4138              	.LVL265:
 4139              	.LBB585:
 4140              	.LBB586:
 4141              		.loc 2 189 25 view .LVU801
 4142 00a0 A369     		ldr	r3, [r4, #24]
 4143              	.LBE586:
 4144              	.LBE585:
 4145              		.loc 1 307 14 view .LVU802
 4146 00a2 F060     		str	r0, [r6, #12]
 4147              		.loc 1 308 3 is_stmt 1 view .LVU803
 4148              	.LBB590:
 4149              	.LBI585:
 4150              		.loc 2 187 23 view .LVU804
 4151              	.LBB589:
 4152              		.loc 2 189 3 view .LVU805
 4153              	.LBB587:
 4154              	.LBI587:
 4155              		.loc 2 174 25 view .LVU806
 4156              	.LBB588:
 4157              		.loc 2 176 3 view .LVU807
 4158              	.LBE588:
 4159              	.LBE587:
 4160              	.LBE589:
ARM GAS  /tmp/ccqhiTbD.s 			page 74


 4161              	.LBE590:
 4162              		.loc 1 308 16 is_stmt 0 view .LVU808
 4163 00a4 9A68     		ldr	r2, [r3, #8]
 4164 00a6 3869     		ldr	r0, [r7, #16]
 4165 00a8 1D4B     		ldr	r3, .L230+32
 4166 00aa 0095     		str	r5, [sp]
 4167 00ac 013A     		subs	r2, r2, #1
 4168 00ae 4FF4FC71 		mov	r1, #504
 4169 00b2 FFF7FEFF 		bl	chThdCreateStatic
 4170              	.LVL266:
 4171              		.loc 1 308 14 view .LVU809
 4172 00b6 3061     		str	r0, [r6, #16]
 4173              		.loc 1 309 3 is_stmt 1 view .LVU810
 4174 00b8 FFF7FEFF 		bl	test_wait_threads
 4175              	.LVL267:
 4176              		.loc 1 310 3 view .LVU811
 4177 00bc 1949     		ldr	r1, .L230+36
 4178 00be 0120     		movs	r0, #1
 4179 00c0 FFF7FEFF 		bl	_test_assert_sequence
 4180              	.LVL268:
 4181              		.loc 1 312 1 is_stmt 0 view .LVU812
 4182 00c4 0E4B     		ldr	r3, .L230
 4183              		.loc 1 310 3 view .LVU813
 4184 00c6 50B1     		cbz	r0, .L229
 4185              		.loc 1 312 1 view .LVU814
 4186 00c8 1A68     		ldr	r2, [r3]
 4187 00ca 039B     		ldr	r3, [sp, #12]
 4188 00cc 5A40     		eors	r2, r3, r2
 4189 00ce 14D1     		bne	.L227
 4190 00d0 04B0     		add	sp, sp, #16
 4191              		.cfi_remember_state
 4192              		.cfi_def_cfa_offset 24
 4193              		@ sp needed
 4194 00d2 BDE8F081 		pop	{r4, r5, r6, r7, r8, pc}
 4195              	.LVL269:
 4196              	.L228:
 4197              		.cfi_restore_state
 4198              	.LBB591:
 4199              	.LBB560:
 4200              	.LBB557:
 4201              	.LBB555:
 4202              		.loc 3 367 3 is_stmt 1 view .LVU815
 4203 00d6 1448     		ldr	r0, .L230+40
 4204 00d8 FFF7FEFF 		bl	chSysHalt
 4205              	.LVL270:
 4206 00dc B0E7     		b	.L222
 4207              	.LVL271:
 4208              	.L229:
 4209              		.loc 3 367 3 is_stmt 0 view .LVU816
 4210              	.LBE555:
 4211              	.LBE557:
 4212              	.LBE560:
 4213              	.LBE591:
 4214              		.loc 1 310 35 is_stmt 1 discriminator 2 view .LVU817
 4215              		.loc 1 311 3 discriminator 2 view .LVU818
 4216 00de 1A68     		ldr	r2, [r3]
 4217 00e0 039B     		ldr	r3, [sp, #12]
ARM GAS  /tmp/ccqhiTbD.s 			page 75


 4218 00e2 5A40     		eors	r2, r3, r2
 4219 00e4 09D1     		bne	.L227
 4220 00e6 08F17302 		add	r2, r8, #115
 4221 00ea 08F16E01 		add	r1, r8, #110
 4222 00ee 0220     		movs	r0, #2
 4223              		.loc 1 312 1 is_stmt 0 discriminator 2 view .LVU819
 4224 00f0 04B0     		add	sp, sp, #16
 4225              		.cfi_remember_state
 4226              		.cfi_def_cfa_offset 24
 4227              		@ sp needed
 4228 00f2 BDE8F041 		pop	{r4, r5, r6, r7, r8, lr}
 4229              		.cfi_restore 14
 4230              		.cfi_restore 8
 4231              		.cfi_restore 7
 4232              		.cfi_restore 6
 4233              		.cfi_restore 5
 4234              		.cfi_restore 4
 4235              		.cfi_def_cfa_offset 0
 4236              	.LVL272:
 4237              		.loc 1 311 3 discriminator 2 view .LVU820
 4238 00f6 FFF7FEBF 		b	_test_assert_time_window
 4239              	.LVL273:
 4240              	.L227:
 4241              		.cfi_restore_state
 4242              		.loc 1 312 1 view .LVU821
 4243 00fa FFF7FEFF 		bl	__stack_chk_fail
 4244              	.LVL274:
 4245              	.L231:
 4246 00fe 00BF     		.align	2
 4247              	.L230:
 4248 0100 00000000 		.word	.LC36
 4249 0104 00000000 		.word	ch
 4250 0108 00000000 		.word	wa
 4251 010c 00000000 		.word	thread3LL
 4252 0110 00000000 		.word	threads
 4253 0114 00000000 		.word	thread3L
 4254 0118 00000000 		.word	thread3M
 4255 011c 00000000 		.word	thread3H
 4256 0120 00000000 		.word	thread3HH
 4257 0124 14000000 		.word	.LC5
 4258 0128 00000000 		.word	.LANCHOR2
 4259              		.cfi_endproc
 4260              	.LFE233:
 4261              		.size	mtx3_execute, .-mtx3_execute
 4262              		.global	patternmtx
 4263              		.global	testmtx8
 4264              		.section	.rodata.str1.4,"aMS",%progbits,1
 4265              		.align	2
 4266              	.LC37:
 4267 0000 436F6E64 		.ascii	"CondVar, boost test\000"
 4267      5661722C 
 4267      20626F6F 
 4267      73742074 
 4267      65737400 
 4268              		.global	testmtx7
 4269              		.align	2
 4270              	.LC38:
ARM GAS  /tmp/ccqhiTbD.s 			page 76


 4271 0014 436F6E64 		.ascii	"CondVar, broadcast test\000"
 4271      5661722C 
 4271      2062726F 
 4271      61646361 
 4271      73742074 
 4272              		.global	testmtx6
 4273              		.align	2
 4274              	.LC39:
 4275 002c 436F6E64 		.ascii	"CondVar, signal test\000"
 4275      5661722C 
 4275      20736967 
 4275      6E616C20 
 4275      74657374 
 4276              		.global	testmtx5
 4277 0041 000000   		.align	2
 4278              	.LC40:
 4279 0044 4D757465 		.ascii	"Mutexes, status\000"
 4279      7865732C 
 4279      20737461 
 4279      74757300 
 4280              		.global	testmtx4
 4281              		.align	2
 4282              	.LC41:
 4283 0054 4D757465 		.ascii	"Mutexes, priority return\000"
 4283      7865732C 
 4283      20707269 
 4283      6F726974 
 4283      79207265 
 4284              		.global	testmtx3
 4285 006d 000000   		.align	2
 4286              	.LC42:
 4287 0070 4D757465 		.ascii	"Mutexes, priority inheritance, complex case\000"
 4287      7865732C 
 4287      20707269 
 4287      6F726974 
 4287      7920696E 
 4288              		.global	testmtx2
 4289              		.align	2
 4290              	.LC43:
 4291 009c 4D757465 		.ascii	"Mutexes, priority inheritance, simple case\000"
 4291      7865732C 
 4291      20707269 
 4291      6F726974 
 4291      7920696E 
 4292              		.global	testmtx1
 4293 00c7 00       		.align	2
 4294              	.LC44:
 4295 00c8 4D757465 		.ascii	"Mutexes, priority enqueuing test\000"
 4295      7865732C 
 4295      20707269 
 4295      6F726974 
 4295      7920656E 
 4296              		.section	.data.c1,"aw"
 4297              		.align	2
 4298              		.set	.LANCHOR3,. + 0
 4299              		.type	c1, %object
 4300              		.size	c1, 8
ARM GAS  /tmp/ccqhiTbD.s 			page 77


 4301              	c1:
 4302 0000 00000000 		.word	c1
 4303 0004 00000000 		.word	c1
 4304              		.section	.data.m1,"aw"
 4305              		.align	2
 4306              		.set	.LANCHOR0,. + 0
 4307              		.type	m1, %object
 4308              		.size	m1, 20
 4309              	m1:
 4310 0000 00000000 		.word	m1
 4311 0004 00000000 		.word	m1
 4312 0008 00000000 		.word	0
 4313 000c 00000000 		.word	0
 4314 0010 00000000 		.word	0
 4315              		.section	.data.m2,"aw"
 4316              		.align	2
 4317              		.set	.LANCHOR1,. + 0
 4318              		.type	m2, %object
 4319              		.size	m2, 20
 4320              	m2:
 4321 0000 00000000 		.word	m2
 4322 0004 00000000 		.word	m2
 4323 0008 00000000 		.word	0
 4324 000c 00000000 		.word	0
 4325 0010 00000000 		.word	0
 4326              		.section	.rodata.__func__.7261,"a"
 4327              		.align	2
 4328              		.set	.LANCHOR2,. + 0
 4329              		.type	__func__.7261, %object
 4330              		.size	__func__.7261, 12
 4331              	__func__.7261:
 4332 0000 63685379 		.ascii	"chSysUnlock\000"
 4332      73556E6C 
 4332      6F636B00 
 4333              		.section	.rodata.patternmtx,"a"
 4334              		.align	2
 4335              		.type	patternmtx, %object
 4336              		.size	patternmtx, 36
 4337              	patternmtx:
 4338 0000 00000000 		.word	testmtx1
 4339 0004 00000000 		.word	testmtx2
 4340 0008 00000000 		.word	testmtx3
 4341 000c 00000000 		.word	testmtx4
 4342 0010 00000000 		.word	testmtx5
 4343 0014 00000000 		.word	testmtx6
 4344 0018 00000000 		.word	testmtx7
 4345 001c 00000000 		.word	testmtx8
 4346 0020 00000000 		.word	0
 4347              		.section	.rodata.testmtx1,"a"
 4348              		.align	2
 4349              		.type	testmtx1, %object
 4350              		.size	testmtx1, 16
 4351              	testmtx1:
 4352 0000 C8000000 		.word	.LC44
 4353 0004 00000000 		.word	mtx1_setup
 4354 0008 00000000 		.word	0
 4355 000c 00000000 		.word	mtx1_execute
ARM GAS  /tmp/ccqhiTbD.s 			page 78


 4356              		.section	.rodata.testmtx2,"a"
 4357              		.align	2
 4358              		.type	testmtx2, %object
 4359              		.size	testmtx2, 16
 4360              	testmtx2:
 4361 0000 9C000000 		.word	.LC43
 4362 0004 00000000 		.word	mtx2_setup
 4363 0008 00000000 		.word	0
 4364 000c 00000000 		.word	mtx2_execute
 4365              		.section	.rodata.testmtx3,"a"
 4366              		.align	2
 4367              		.type	testmtx3, %object
 4368              		.size	testmtx3, 16
 4369              	testmtx3:
 4370 0000 70000000 		.word	.LC42
 4371 0004 00000000 		.word	mtx3_setup
 4372 0008 00000000 		.word	0
 4373 000c 00000000 		.word	mtx3_execute
 4374              		.section	.rodata.testmtx4,"a"
 4375              		.align	2
 4376              		.type	testmtx4, %object
 4377              		.size	testmtx4, 16
 4378              	testmtx4:
 4379 0000 54000000 		.word	.LC41
 4380 0004 00000000 		.word	mtx4_setup
 4381 0008 00000000 		.word	0
 4382 000c 00000000 		.word	mtx4_execute
 4383              		.section	.rodata.testmtx5,"a"
 4384              		.align	2
 4385              		.type	testmtx5, %object
 4386              		.size	testmtx5, 16
 4387              	testmtx5:
 4388 0000 44000000 		.word	.LC40
 4389 0004 00000000 		.word	mtx5_setup
 4390 0008 00000000 		.word	0
 4391 000c 00000000 		.word	mtx5_execute
 4392              		.section	.rodata.testmtx6,"a"
 4393              		.align	2
 4394              		.type	testmtx6, %object
 4395              		.size	testmtx6, 16
 4396              	testmtx6:
 4397 0000 2C000000 		.word	.LC39
 4398 0004 00000000 		.word	mtx6_setup
 4399 0008 00000000 		.word	0
 4400 000c 00000000 		.word	mtx6_execute
 4401              		.section	.rodata.testmtx7,"a"
 4402              		.align	2
 4403              		.type	testmtx7, %object
 4404              		.size	testmtx7, 16
 4405              	testmtx7:
 4406 0000 14000000 		.word	.LC38
 4407 0004 00000000 		.word	mtx7_setup
 4408 0008 00000000 		.word	0
 4409 000c 00000000 		.word	mtx7_execute
 4410              		.section	.rodata.testmtx8,"a"
 4411              		.align	2
 4412              		.type	testmtx8, %object
ARM GAS  /tmp/ccqhiTbD.s 			page 79


 4413              		.size	testmtx8, 16
 4414              	testmtx8:
 4415 0000 00000000 		.word	.LC37
 4416 0004 00000000 		.word	mtx8_setup
 4417 0008 00000000 		.word	0
 4418 000c 00000000 		.word	mtx8_execute
 4419              		.text
 4420              	.Letext0:
 4421              		.file 8 "/usr/lib/gcc/arm-none-eabi/9.2.1/include/stddef.h"
 4422              		.file 9 "/usr/lib/gcc/arm-none-eabi/9.2.1/include/stdint.h"
 4423              		.file 10 ".//ChibiOS//os/rt/ports/ARMCMx/compilers/GCC/chtypes.h"
 4424              		.file 11 ".//ChibiOS//os/rt/include/chsystypes.h"
 4425              		.file 12 ".//ChibiOS//os/ext/CMSIS/include/core_cm4.h"
 4426              		.file 13 ".//ChibiOS//os/ext/CMSIS/ST/system_stm32f4xx.h"
 4427              		.file 14 ".//ChibiOS//os/rt/ports/ARMCMx/chcore.h"
 4428              		.file 15 ".//ChibiOS//os/rt/include/chdebug.h"
 4429              		.file 16 ".//ChibiOS//os/rt/include/chtm.h"
 4430              		.file 17 ".//ChibiOS//os/rt/include/chstats.h"
 4431              		.file 18 ".//ChibiOS//os/rt/include/chsem.h"
 4432              		.file 19 ".//ChibiOS//os/rt/include/chmtx.h"
 4433              		.file 20 ".//ChibiOS//os/rt/include/chregistry.h"
 4434              		.file 21 ".//ChibiOS//os/rt/include/chcond.h"
 4435              		.file 22 ".//ChibiOS//test/rt/test.h"
 4436              		.section	.debug_info,"",%progbits
 4437              	.Ldebug_info0:
 4438 0000 692D0000 		.4byte	0x2d69
 4439 0004 0400     		.2byte	0x4
 4440 0006 00000000 		.4byte	.Ldebug_abbrev0
 4441 000a 04       		.byte	0x4
 4442 000b 01       		.uleb128 0x1
 4443 000c 090A0000 		.4byte	.LASF244
 4444 0010 0C       		.byte	0xc
 4445 0011 4C060000 		.4byte	.LASF245
 4446 0015 5B0B0000 		.4byte	.LASF246
 4447 0019 40040000 		.4byte	.Ldebug_ranges0+0x440
 4448 001d 00000000 		.4byte	0
 4449 0021 00000000 		.4byte	.Ldebug_line0
 4450 0025 02       		.uleb128 0x2
 4451 0026 04       		.byte	0x4
 4452 0027 05       		.byte	0x5
 4453 0028 696E7400 		.ascii	"int\000"
 4454 002c 03       		.uleb128 0x3
 4455 002d 08000000 		.4byte	.LASF5
 4456 0031 08       		.byte	0x8
 4457 0032 D1       		.byte	0xd1
 4458 0033 17       		.byte	0x17
 4459 0034 38000000 		.4byte	0x38
 4460 0038 04       		.uleb128 0x4
 4461 0039 04       		.byte	0x4
 4462 003a 07       		.byte	0x7
 4463 003b 3F060000 		.4byte	.LASF0
 4464 003f 04       		.uleb128 0x4
 4465 0040 08       		.byte	0x8
 4466 0041 05       		.byte	0x5
 4467 0042 71050000 		.4byte	.LASF1
 4468 0046 04       		.uleb128 0x4
 4469 0047 08       		.byte	0x8
ARM GAS  /tmp/ccqhiTbD.s 			page 80


 4470 0048 04       		.byte	0x4
 4471 0049 EA060000 		.4byte	.LASF2
 4472 004d 04       		.uleb128 0x4
 4473 004e 01       		.byte	0x1
 4474 004f 06       		.byte	0x6
 4475 0050 90020000 		.4byte	.LASF3
 4476 0054 04       		.uleb128 0x4
 4477 0055 02       		.byte	0x2
 4478 0056 05       		.byte	0x5
 4479 0057 FE080000 		.4byte	.LASF4
 4480 005b 03       		.uleb128 0x3
 4481 005c 79000000 		.4byte	.LASF6
 4482 0060 09       		.byte	0x9
 4483 0061 28       		.byte	0x28
 4484 0062 18       		.byte	0x18
 4485 0063 6C000000 		.4byte	0x6c
 4486 0067 05       		.uleb128 0x5
 4487 0068 5B000000 		.4byte	0x5b
 4488 006c 04       		.uleb128 0x4
 4489 006d 04       		.byte	0x4
 4490 006e 05       		.byte	0x5
 4491 006f BE010000 		.4byte	.LASF7
 4492 0073 03       		.uleb128 0x3
 4493 0074 A6020000 		.4byte	.LASF8
 4494 0078 09       		.byte	0x9
 4495 0079 2E       		.byte	0x2e
 4496 007a 18       		.byte	0x18
 4497 007b 7F000000 		.4byte	0x7f
 4498 007f 04       		.uleb128 0x4
 4499 0080 01       		.byte	0x1
 4500 0081 08       		.byte	0x8
 4501 0082 DA020000 		.4byte	.LASF9
 4502 0086 03       		.uleb128 0x3
 4503 0087 AB070000 		.4byte	.LASF10
 4504 008b 09       		.byte	0x9
 4505 008c 31       		.byte	0x31
 4506 008d 19       		.byte	0x19
 4507 008e 92000000 		.4byte	0x92
 4508 0092 04       		.uleb128 0x4
 4509 0093 02       		.byte	0x2
 4510 0094 07       		.byte	0x7
 4511 0095 EB0B0000 		.4byte	.LASF11
 4512 0099 03       		.uleb128 0x3
 4513 009a AD0B0000 		.4byte	.LASF12
 4514 009e 09       		.byte	0x9
 4515 009f 34       		.byte	0x34
 4516 00a0 19       		.byte	0x19
 4517 00a1 A5000000 		.4byte	0xa5
 4518 00a5 04       		.uleb128 0x4
 4519 00a6 04       		.byte	0x4
 4520 00a7 07       		.byte	0x7
 4521 00a8 4D040000 		.4byte	.LASF13
 4522 00ac 03       		.uleb128 0x3
 4523 00ad 08090000 		.4byte	.LASF14
 4524 00b1 09       		.byte	0x9
 4525 00b2 37       		.byte	0x37
 4526 00b3 19       		.byte	0x19
ARM GAS  /tmp/ccqhiTbD.s 			page 81


 4527 00b4 B8000000 		.4byte	0xb8
 4528 00b8 04       		.uleb128 0x4
 4529 00b9 08       		.byte	0x8
 4530 00ba 07       		.byte	0x7
 4531 00bb 8C070000 		.4byte	.LASF15
 4532 00bf 03       		.uleb128 0x3
 4533 00c0 6A060000 		.4byte	.LASF16
 4534 00c4 0A       		.byte	0xa
 4535 00c5 45       		.byte	0x45
 4536 00c6 1D       		.byte	0x1d
 4537 00c7 99000000 		.4byte	0x99
 4538 00cb 03       		.uleb128 0x3
 4539 00cc 1D020000 		.4byte	.LASF17
 4540 00d0 0A       		.byte	0xa
 4541 00d1 46       		.byte	0x46
 4542 00d2 1D       		.byte	0x1d
 4543 00d3 AC000000 		.4byte	0xac
 4544 00d7 03       		.uleb128 0x3
 4545 00d8 B0080000 		.4byte	.LASF18
 4546 00dc 0A       		.byte	0xa
 4547 00dd 48       		.byte	0x48
 4548 00de 1D       		.byte	0x1d
 4549 00df 73000000 		.4byte	0x73
 4550 00e3 03       		.uleb128 0x3
 4551 00e4 14020000 		.4byte	.LASF19
 4552 00e8 0A       		.byte	0xa
 4553 00e9 49       		.byte	0x49
 4554 00ea 1D       		.byte	0x1d
 4555 00eb 73000000 		.4byte	0x73
 4556 00ef 03       		.uleb128 0x3
 4557 00f0 E2090000 		.4byte	.LASF20
 4558 00f4 0A       		.byte	0xa
 4559 00f5 4A       		.byte	0x4a
 4560 00f6 1D       		.byte	0x1d
 4561 00f7 73000000 		.4byte	0x73
 4562 00fb 03       		.uleb128 0x3
 4563 00fc F1070000 		.4byte	.LASF21
 4564 0100 0A       		.byte	0xa
 4565 0101 4B       		.byte	0x4b
 4566 0102 1D       		.byte	0x1d
 4567 0103 73000000 		.4byte	0x73
 4568 0107 03       		.uleb128 0x3
 4569 0108 40000000 		.4byte	.LASF22
 4570 010c 0A       		.byte	0xa
 4571 010d 4C       		.byte	0x4c
 4572 010e 1D       		.byte	0x1d
 4573 010f 99000000 		.4byte	0x99
 4574 0113 03       		.uleb128 0x3
 4575 0114 C4070000 		.4byte	.LASF23
 4576 0118 0A       		.byte	0xa
 4577 0119 4D       		.byte	0x4d
 4578 011a 1D       		.byte	0x1d
 4579 011b 5B000000 		.4byte	0x5b
 4580 011f 03       		.uleb128 0x3
 4581 0120 AE020000 		.4byte	.LASF24
 4582 0124 0A       		.byte	0xa
 4583 0125 4F       		.byte	0x4f
ARM GAS  /tmp/ccqhiTbD.s 			page 82


 4584 0126 1D       		.byte	0x1d
 4585 0127 99000000 		.4byte	0x99
 4586 012b 03       		.uleb128 0x3
 4587 012c 95030000 		.4byte	.LASF25
 4588 0130 0A       		.byte	0xa
 4589 0131 51       		.byte	0x51
 4590 0132 1D       		.byte	0x1d
 4591 0133 5B000000 		.4byte	0x5b
 4592 0137 03       		.uleb128 0x3
 4593 0138 FB040000 		.4byte	.LASF26
 4594 013c 0A       		.byte	0xa
 4595 013d 52       		.byte	0x52
 4596 013e 1D       		.byte	0x1d
 4597 013f 99000000 		.4byte	0x99
 4598 0143 03       		.uleb128 0x3
 4599 0144 22000000 		.4byte	.LASF27
 4600 0148 0B       		.byte	0xb
 4601 0149 33       		.byte	0x33
 4602 014a 12       		.byte	0x12
 4603 014b 99000000 		.4byte	0x99
 4604 014f 05       		.uleb128 0x5
 4605 0150 43010000 		.4byte	0x143
 4606 0154 03       		.uleb128 0x3
 4607 0155 D6060000 		.4byte	.LASF28
 4608 0159 0B       		.byte	0xb
 4609 015a 3F       		.byte	0x3f
 4610 015b 1A       		.byte	0x1a
 4611 015c 60010000 		.4byte	0x160
 4612 0160 06       		.uleb128 0x6
 4613 0161 B0040000 		.4byte	.LASF52
 4614 0165 68       		.byte	0x68
 4615 0166 06       		.byte	0x6
 4616 0167 C2       		.byte	0xc2
 4617 0168 08       		.byte	0x8
 4618 0169 95020000 		.4byte	0x295
 4619 016d 07       		.uleb128 0x7
 4620 016e C7010000 		.4byte	.LASF29
 4621 0172 06       		.byte	0x6
 4622 0173 C3       		.byte	0xc3
 4623 0174 1A       		.byte	0x1a
 4624 0175 A1020000 		.4byte	0x2a1
 4625 0179 00       		.byte	0
 4626 017a 07       		.uleb128 0x7
 4627 017b F3010000 		.4byte	.LASF30
 4628 017f 06       		.byte	0x6
 4629 0180 C5       		.byte	0xc5
 4630 0181 1A       		.byte	0x1a
 4631 0182 A1020000 		.4byte	0x2a1
 4632 0186 04       		.byte	0x4
 4633 0187 07       		.uleb128 0x7
 4634 0188 43030000 		.4byte	.LASF31
 4635 018c 06       		.byte	0x6
 4636 018d C7       		.byte	0xc7
 4637 018e 19       		.byte	0x19
 4638 018f 07010000 		.4byte	0x107
 4639 0193 08       		.byte	0x8
 4640 0194 07       		.uleb128 0x7
ARM GAS  /tmp/ccqhiTbD.s 			page 83


 4641 0195 3A000000 		.4byte	.LASF32
 4642 0199 06       		.byte	0x6
 4643 019a C8       		.byte	0xc8
 4644 019b 19       		.byte	0x19
 4645 019c 54050000 		.4byte	0x554
 4646 01a0 0C       		.byte	0xc
 4647 01a1 07       		.uleb128 0x7
 4648 01a2 AD010000 		.4byte	.LASF33
 4649 01a6 06       		.byte	0x6
 4650 01a7 CA       		.byte	0xca
 4651 01a8 1A       		.byte	0x1a
 4652 01a9 A1020000 		.4byte	0x2a1
 4653 01ad 10       		.byte	0x10
 4654 01ae 07       		.uleb128 0x7
 4655 01af A3070000 		.4byte	.LASF34
 4656 01b3 06       		.byte	0x6
 4657 01b4 CB       		.byte	0xcb
 4658 01b5 1A       		.byte	0x1a
 4659 01b6 A1020000 		.4byte	0x2a1
 4660 01ba 14       		.byte	0x14
 4661 01bb 07       		.uleb128 0x7
 4662 01bc 4C0C0000 		.4byte	.LASF35
 4663 01c0 06       		.byte	0x6
 4664 01c1 D2       		.byte	0xd2
 4665 01c2 1A       		.byte	0x1a
 4666 01c3 11090000 		.4byte	0x911
 4667 01c7 18       		.byte	0x18
 4668 01c8 07       		.uleb128 0x7
 4669 01c9 1C0C0000 		.4byte	.LASF36
 4670 01cd 06       		.byte	0x6
 4671 01ce D8       		.byte	0xd8
 4672 01cf 1A       		.byte	0x1a
 4673 01d0 28090000 		.4byte	0x928
 4674 01d4 1C       		.byte	0x1c
 4675 01d5 07       		.uleb128 0x7
 4676 01d6 750C0000 		.4byte	.LASF37
 4677 01da 06       		.byte	0x6
 4678 01db DD       		.byte	0xdd
 4679 01dc 19       		.byte	0x19
 4680 01dd E3000000 		.4byte	0xe3
 4681 01e1 20       		.byte	0x20
 4682 01e2 07       		.uleb128 0x7
 4683 01e3 0C060000 		.4byte	.LASF38
 4684 01e7 06       		.byte	0x6
 4685 01e8 E1       		.byte	0xe1
 4686 01e9 19       		.byte	0x19
 4687 01ea D7000000 		.4byte	0xd7
 4688 01ee 21       		.byte	0x21
 4689 01ef 07       		.uleb128 0x7
 4690 01f0 7A060000 		.4byte	.LASF39
 4691 01f4 06       		.byte	0x6
 4692 01f5 E6       		.byte	0xe6
 4693 01f6 19       		.byte	0x19
 4694 01f7 EF000000 		.4byte	0xef
 4695 01fb 22       		.byte	0x22
 4696 01fc 07       		.uleb128 0x7
 4697 01fd 9C020000 		.4byte	.LASF40
ARM GAS  /tmp/ccqhiTbD.s 			page 84


 4698 0201 06       		.byte	0x6
 4699 0202 EC       		.byte	0xec
 4700 0203 19       		.byte	0x19
 4701 0204 FB000000 		.4byte	0xfb
 4702 0208 23       		.byte	0x23
 4703 0209 07       		.uleb128 0x7
 4704 020a B6060000 		.4byte	.LASF41
 4705 020e 06       		.byte	0x6
 4706 020f F3       		.byte	0xf3
 4707 0210 19       		.byte	0x19
 4708 0211 4F010000 		.4byte	0x14f
 4709 0215 24       		.byte	0x24
 4710 0216 08       		.uleb128 0x8
 4711 0217 705F7500 		.ascii	"p_u\000"
 4712 021b 06       		.byte	0x6
 4713 021c 3101     		.2byte	0x131
 4714 021e 19       		.byte	0x19
 4715 021f 30080000 		.4byte	0x830
 4716 0223 28       		.byte	0x28
 4717 0224 09       		.uleb128 0x9
 4718 0225 F8050000 		.4byte	.LASF42
 4719 0229 06       		.byte	0x6
 4720 022a 3601     		.2byte	0x136
 4721 022c 19       		.byte	0x19
 4722 022d A7020000 		.4byte	0x2a7
 4723 0231 2C       		.byte	0x2c
 4724 0232 09       		.uleb128 0x9
 4725 0233 68000000 		.4byte	.LASF43
 4726 0237 06       		.byte	0x6
 4727 0238 3C01     		.2byte	0x13c
 4728 023a 19       		.byte	0x19
 4729 023b CE020000 		.4byte	0x2ce
 4730 023f 30       		.byte	0x30
 4731 0240 09       		.uleb128 0x9
 4732 0241 6F0C0000 		.4byte	.LASF44
 4733 0245 06       		.byte	0x6
 4734 0246 4001     		.2byte	0x140
 4735 0248 19       		.byte	0x19
 4736 0249 13010000 		.4byte	0x113
 4737 024d 38       		.byte	0x38
 4738 024e 09       		.uleb128 0x9
 4739 024f CD030000 		.4byte	.LASF45
 4740 0253 06       		.byte	0x6
 4741 0254 4601     		.2byte	0x146
 4742 0256 19       		.byte	0x19
 4743 0257 1F010000 		.4byte	0x11f
 4744 025b 3C       		.byte	0x3c
 4745 025c 09       		.uleb128 0x9
 4746 025d 36020000 		.4byte	.LASF46
 4747 0261 06       		.byte	0x6
 4748 0262 4D01     		.2byte	0x14d
 4749 0264 1A       		.byte	0x1a
 4750 0265 0B090000 		.4byte	0x90b
 4751 0269 40       		.byte	0x40
 4752 026a 09       		.uleb128 0x9
 4753 026b 1C070000 		.4byte	.LASF47
 4754 026f 06       		.byte	0x6
ARM GAS  /tmp/ccqhiTbD.s 			page 85


 4755 0270 5101     		.2byte	0x151
 4756 0272 19       		.byte	0x19
 4757 0273 07010000 		.4byte	0x107
 4758 0277 44       		.byte	0x44
 4759 0278 09       		.uleb128 0x9
 4760 0279 72060000 		.4byte	.LASF48
 4761 027d 06       		.byte	0x6
 4762 027e 5801     		.2byte	0x158
 4763 0280 1A       		.byte	0x1a
 4764 0281 93030000 		.4byte	0x393
 4765 0285 48       		.byte	0x48
 4766 0286 09       		.uleb128 0x9
 4767 0287 00000000 		.4byte	.LASF49
 4768 028b 06       		.byte	0x6
 4769 028c 5E01     		.2byte	0x15e
 4770 028e 19       		.byte	0x19
 4771 028f DA070000 		.4byte	0x7da
 4772 0293 50       		.byte	0x50
 4773 0294 00       		.byte	0
 4774 0295 03       		.uleb128 0x3
 4775 0296 F6060000 		.4byte	.LASF50
 4776 029a 0B       		.byte	0xb
 4777 029b 44       		.byte	0x44
 4778 029c 14       		.byte	0x14
 4779 029d A1020000 		.4byte	0x2a1
 4780 02a1 0A       		.uleb128 0xa
 4781 02a2 04       		.byte	0x4
 4782 02a3 54010000 		.4byte	0x154
 4783 02a7 03       		.uleb128 0x3
 4784 02a8 FA090000 		.4byte	.LASF51
 4785 02ac 0B       		.byte	0xb
 4786 02ad 49       		.byte	0x49
 4787 02ae 20       		.byte	0x20
 4788 02af B3020000 		.4byte	0x2b3
 4789 02b3 06       		.uleb128 0x6
 4790 02b4 02050000 		.4byte	.LASF53
 4791 02b8 04       		.byte	0x4
 4792 02b9 06       		.byte	0x6
 4793 02ba B0       		.byte	0xb0
 4794 02bb 08       		.byte	0x8
 4795 02bc CE020000 		.4byte	0x2ce
 4796 02c0 07       		.uleb128 0x7
 4797 02c1 C7010000 		.4byte	.LASF29
 4798 02c5 06       		.byte	0x6
 4799 02c6 B1       		.byte	0xb1
 4800 02c7 1A       		.byte	0x1a
 4801 02c8 A1020000 		.4byte	0x2a1
 4802 02cc 00       		.byte	0
 4803 02cd 00       		.byte	0
 4804 02ce 03       		.uleb128 0x3
 4805 02cf 26020000 		.4byte	.LASF54
 4806 02d3 0B       		.byte	0xb
 4807 02d4 50       		.byte	0x50
 4808 02d5 21       		.byte	0x21
 4809 02d6 DF020000 		.4byte	0x2df
 4810 02da 0B       		.uleb128 0xb
 4811 02db CE020000 		.4byte	0x2ce
ARM GAS  /tmp/ccqhiTbD.s 			page 86


 4812 02df 06       		.uleb128 0x6
 4813 02e0 CA070000 		.4byte	.LASF55
 4814 02e4 08       		.byte	0x8
 4815 02e5 06       		.byte	0x6
 4816 02e6 B7       		.byte	0xb7
 4817 02e7 08       		.byte	0x8
 4818 02e8 07030000 		.4byte	0x307
 4819 02ec 07       		.uleb128 0x7
 4820 02ed C7010000 		.4byte	.LASF29
 4821 02f1 06       		.byte	0x6
 4822 02f2 B8       		.byte	0xb8
 4823 02f3 1A       		.byte	0x1a
 4824 02f4 A1020000 		.4byte	0x2a1
 4825 02f8 00       		.byte	0
 4826 02f9 07       		.uleb128 0x7
 4827 02fa F3010000 		.4byte	.LASF30
 4828 02fe 06       		.byte	0x6
 4829 02ff B9       		.byte	0xb9
 4830 0300 1A       		.byte	0x1a
 4831 0301 A1020000 		.4byte	0x2a1
 4832 0305 04       		.byte	0x4
 4833 0306 00       		.byte	0
 4834 0307 03       		.uleb128 0x3
 4835 0308 E0040000 		.4byte	.LASF56
 4836 030c 0B       		.byte	0xb
 4837 030d 57       		.byte	0x57
 4838 030e 1E       		.byte	0x1e
 4839 030f 13030000 		.4byte	0x313
 4840 0313 0C       		.uleb128 0xc
 4841 0314 DF030000 		.4byte	.LASF57
 4842 0318 1C       		.byte	0x1c
 4843 0319 06       		.byte	0x6
 4844 031a 9001     		.2byte	0x190
 4845 031c 08       		.byte	0x8
 4846 031d 76030000 		.4byte	0x376
 4847 0321 09       		.uleb128 0x9
 4848 0322 7F080000 		.4byte	.LASF58
 4849 0326 06       		.byte	0x6
 4850 0327 9101     		.2byte	0x191
 4851 0329 19       		.byte	0x19
 4852 032a CE020000 		.4byte	0x2ce
 4853 032e 00       		.byte	0
 4854 032f 09       		.uleb128 0x9
 4855 0330 31090000 		.4byte	.LASF59
 4856 0334 06       		.byte	0x6
 4857 0335 9201     		.2byte	0x192
 4858 0337 19       		.byte	0x19
 4859 0338 07010000 		.4byte	0x107
 4860 033c 08       		.byte	0x8
 4861 033d 09       		.uleb128 0x9
 4862 033e 73000000 		.4byte	.LASF60
 4863 0342 06       		.byte	0x6
 4864 0343 9401     		.2byte	0x194
 4865 0345 19       		.byte	0x19
 4866 0346 54050000 		.4byte	0x554
 4867 034a 0C       		.byte	0xc
 4868 034b 09       		.uleb128 0x9
ARM GAS  /tmp/ccqhiTbD.s 			page 87


 4869 034c FF020000 		.4byte	.LASF61
 4870 0350 06       		.byte	0x6
 4871 0351 9701     		.2byte	0x197
 4872 0353 1A       		.byte	0x1a
 4873 0354 A1020000 		.4byte	0x2a1
 4874 0358 10       		.byte	0x10
 4875 0359 09       		.uleb128 0x9
 4876 035a CE080000 		.4byte	.LASF62
 4877 035e 06       		.byte	0x6
 4878 035f 9801     		.2byte	0x198
 4879 0361 1A       		.byte	0x1a
 4880 0362 A1020000 		.4byte	0x2a1
 4881 0366 14       		.byte	0x14
 4882 0367 09       		.uleb128 0x9
 4883 0368 FB070000 		.4byte	.LASF63
 4884 036c 06       		.byte	0x6
 4885 036d 9B01     		.2byte	0x19b
 4886 036f 1A       		.byte	0x1a
 4887 0370 A1020000 		.4byte	0x2a1
 4888 0374 18       		.byte	0x18
 4889 0375 00       		.byte	0
 4890 0376 03       		.uleb128 0x3
 4891 0377 8C000000 		.4byte	.LASF64
 4892 037b 0B       		.byte	0xb
 4893 037c 5C       		.byte	0x5c
 4894 037d 10       		.byte	0x10
 4895 037e 82030000 		.4byte	0x382
 4896 0382 0A       		.uleb128 0xa
 4897 0383 04       		.byte	0x4
 4898 0384 88030000 		.4byte	0x388
 4899 0388 0D       		.uleb128 0xd
 4900 0389 93030000 		.4byte	0x393
 4901 038d 0E       		.uleb128 0xe
 4902 038e 93030000 		.4byte	0x393
 4903 0392 00       		.byte	0
 4904 0393 0F       		.uleb128 0xf
 4905 0394 04       		.byte	0x4
 4906 0395 0B       		.uleb128 0xb
 4907 0396 93030000 		.4byte	0x393
 4908 039a 03       		.uleb128 0x3
 4909 039b D0040000 		.4byte	.LASF65
 4910 039f 0B       		.byte	0xb
 4911 03a0 61       		.byte	0x61
 4912 03a1 21       		.byte	0x21
 4913 03a2 A6030000 		.4byte	0x3a6
 4914 03a6 0C       		.uleb128 0xc
 4915 03a7 55070000 		.4byte	.LASF66
 4916 03ab 14       		.byte	0x14
 4917 03ac 06       		.byte	0x6
 4918 03ad 6B01     		.2byte	0x16b
 4919 03af 08       		.byte	0x8
 4920 03b0 FB030000 		.4byte	0x3fb
 4921 03b4 09       		.uleb128 0x9
 4922 03b5 A5050000 		.4byte	.LASF67
 4923 03b9 06       		.byte	0x6
 4924 03ba 6C01     		.2byte	0x16c
 4925 03bc 1A       		.byte	0x1a
ARM GAS  /tmp/ccqhiTbD.s 			page 88


 4926 03bd 2E090000 		.4byte	0x92e
 4927 03c1 00       		.byte	0
 4928 03c2 09       		.uleb128 0x9
 4929 03c3 BF050000 		.4byte	.LASF68
 4930 03c7 06       		.byte	0x6
 4931 03c8 6D01     		.2byte	0x16d
 4932 03ca 1A       		.byte	0x1a
 4933 03cb 2E090000 		.4byte	0x92e
 4934 03cf 04       		.byte	0x4
 4935 03d0 09       		.uleb128 0x9
 4936 03d1 3F070000 		.4byte	.LASF69
 4937 03d5 06       		.byte	0x6
 4938 03d6 6E01     		.2byte	0x16e
 4939 03d8 19       		.byte	0x19
 4940 03d9 43010000 		.4byte	0x143
 4941 03dd 08       		.byte	0x8
 4942 03de 09       		.uleb128 0x9
 4943 03df A6030000 		.4byte	.LASF70
 4944 03e3 06       		.byte	0x6
 4945 03e4 6F01     		.2byte	0x16f
 4946 03e6 19       		.byte	0x19
 4947 03e7 76030000 		.4byte	0x376
 4948 03eb 0C       		.byte	0xc
 4949 03ec 09       		.uleb128 0x9
 4950 03ed 77010000 		.4byte	.LASF71
 4951 03f1 06       		.byte	0x6
 4952 03f2 7101     		.2byte	0x171
 4953 03f4 1A       		.byte	0x1a
 4954 03f5 93030000 		.4byte	0x393
 4955 03f9 10       		.byte	0x10
 4956 03fa 00       		.byte	0
 4957 03fb 03       		.uleb128 0x3
 4958 03fc BA040000 		.4byte	.LASF72
 4959 0400 0B       		.byte	0xb
 4960 0401 66       		.byte	0x66
 4961 0402 28       		.byte	0x28
 4962 0403 07040000 		.4byte	0x407
 4963 0407 0C       		.uleb128 0xc
 4964 0408 95000000 		.4byte	.LASF73
 4965 040c 10       		.byte	0x10
 4966 040d 06       		.byte	0x6
 4967 040e 7B01     		.2byte	0x17b
 4968 0410 08       		.byte	0x8
 4969 0411 4E040000 		.4byte	0x44e
 4970 0415 09       		.uleb128 0x9
 4971 0416 A5050000 		.4byte	.LASF67
 4972 041a 06       		.byte	0x6
 4973 041b 7C01     		.2byte	0x17c
 4974 041d 1A       		.byte	0x1a
 4975 041e 2E090000 		.4byte	0x92e
 4976 0422 00       		.byte	0
 4977 0423 09       		.uleb128 0x9
 4978 0424 BF050000 		.4byte	.LASF68
 4979 0428 06       		.byte	0x6
 4980 0429 7E01     		.2byte	0x17e
 4981 042b 1A       		.byte	0x1a
 4982 042c 2E090000 		.4byte	0x92e
ARM GAS  /tmp/ccqhiTbD.s 			page 89


 4983 0430 04       		.byte	0x4
 4984 0431 09       		.uleb128 0x9
 4985 0432 3F070000 		.4byte	.LASF69
 4986 0436 06       		.byte	0x6
 4987 0437 8001     		.2byte	0x180
 4988 0439 19       		.byte	0x19
 4989 043a 43010000 		.4byte	0x143
 4990 043e 08       		.byte	0x8
 4991 043f 09       		.uleb128 0x9
 4992 0440 C3080000 		.4byte	.LASF74
 4993 0444 06       		.byte	0x6
 4994 0445 8201     		.2byte	0x182
 4995 0447 19       		.byte	0x19
 4996 0448 4F010000 		.4byte	0x14f
 4997 044c 0C       		.byte	0xc
 4998 044d 00       		.byte	0
 4999 044e 03       		.uleb128 0x3
 5000 044f 07030000 		.4byte	.LASF75
 5001 0453 0B       		.byte	0xb
 5002 0454 6B       		.byte	0x6b
 5003 0455 20       		.byte	0x20
 5004 0456 5A040000 		.4byte	0x45a
 5005 045a 10       		.uleb128 0x10
 5006 045b 41090000 		.4byte	.LASF76
 5007 045f 1404     		.2byte	0x414
 5008 0461 06       		.byte	0x6
 5009 0462 A201     		.2byte	0x1a2
 5010 0464 08       		.byte	0x8
 5011 0465 A2040000 		.4byte	0x4a2
 5012 0469 09       		.uleb128 0x9
 5013 046a E8020000 		.4byte	.LASF77
 5014 046e 06       		.byte	0x6
 5015 046f AA01     		.2byte	0x1aa
 5016 0471 24       		.byte	0x24
 5017 0472 17090000 		.4byte	0x917
 5018 0476 00       		.byte	0
 5019 0477 09       		.uleb128 0x9
 5020 0478 0D040000 		.4byte	.LASF78
 5021 047c 06       		.byte	0x6
 5022 047d AF01     		.2byte	0x1af
 5023 047f 19       		.byte	0x19
 5024 0480 2B010000 		.4byte	0x12b
 5025 0484 04       		.byte	0x4
 5026 0485 09       		.uleb128 0x9
 5027 0486 FC000000 		.4byte	.LASF79
 5028 048a 06       		.byte	0x6
 5029 048b B301     		.2byte	0x1b3
 5030 048d 19       		.byte	0x19
 5031 048e 2B010000 		.4byte	0x12b
 5032 0492 08       		.byte	0x8
 5033 0493 09       		.uleb128 0x9
 5034 0494 F2020000 		.4byte	.LASF80
 5035 0498 06       		.byte	0x6
 5036 0499 B901     		.2byte	0x1b9
 5037 049b 19       		.byte	0x19
 5038 049c 62070000 		.4byte	0x762
 5039 04a0 0C       		.byte	0xc
ARM GAS  /tmp/ccqhiTbD.s 			page 90


 5040 04a1 00       		.byte	0
 5041 04a2 03       		.uleb128 0x3
 5042 04a3 FE0B0000 		.4byte	.LASF81
 5043 04a7 0B       		.byte	0xb
 5044 04a8 70       		.byte	0x70
 5045 04a9 1A       		.byte	0x1a
 5046 04aa AE040000 		.4byte	0x4ae
 5047 04ae 10       		.uleb128 0x10
 5048 04af A30B0000 		.4byte	.LASF82
 5049 04b3 7006     		.2byte	0x670
 5050 04b5 06       		.byte	0x6
 5051 04b6 C201     		.2byte	0x1c2
 5052 04b8 08       		.byte	0x8
 5053 04b9 23050000 		.4byte	0x523
 5054 04bd 09       		.uleb128 0x9
 5055 04be AA080000 		.4byte	.LASF83
 5056 04c2 06       		.byte	0x6
 5057 04c3 C601     		.2byte	0x1c6
 5058 04c5 19       		.byte	0x19
 5059 04c6 07030000 		.4byte	0x307
 5060 04ca 00       		.byte	0
 5061 04cb 09       		.uleb128 0x9
 5062 04cc C9090000 		.4byte	.LASF84
 5063 04d0 06       		.byte	0x6
 5064 04d1 CA01     		.2byte	0x1ca
 5065 04d3 19       		.byte	0x19
 5066 04d4 FB030000 		.4byte	0x3fb
 5067 04d8 1C       		.byte	0x1c
 5068 04d9 08       		.uleb128 0x8
 5069 04da 64626700 		.ascii	"dbg\000"
 5070 04de 06       		.byte	0x6
 5071 04df CE01     		.2byte	0x1ce
 5072 04e1 19       		.byte	0x19
 5073 04e2 4E040000 		.4byte	0x44e
 5074 04e6 2C       		.byte	0x2c
 5075 04e7 11       		.uleb128 0x11
 5076 04e8 54080000 		.4byte	.LASF85
 5077 04ec 06       		.byte	0x6
 5078 04ed D201     		.2byte	0x1d2
 5079 04ef 19       		.byte	0x19
 5080 04f0 54010000 		.4byte	0x154
 5081 04f4 4004     		.2byte	0x440
 5082 04f6 12       		.uleb128 0x12
 5083 04f7 746D00   		.ascii	"tm\000"
 5084 04fa 06       		.byte	0x6
 5085 04fb D701     		.2byte	0x1d7
 5086 04fd 19       		.byte	0x19
 5087 04fe 85070000 		.4byte	0x785
 5088 0502 A804     		.2byte	0x4a8
 5089 0504 11       		.uleb128 0x11
 5090 0505 74070000 		.4byte	.LASF86
 5091 0509 06       		.byte	0x6
 5092 050a DD01     		.2byte	0x1dd
 5093 050c 19       		.byte	0x19
 5094 050d 24080000 		.4byte	0x824
 5095 0511 B004     		.2byte	0x4b0
 5096 0513 11       		.uleb128 0x11
ARM GAS  /tmp/ccqhiTbD.s 			page 91


 5097 0514 30060000 		.4byte	.LASF87
 5098 0518 06       		.byte	0x6
 5099 0519 E301     		.2byte	0x1e3
 5100 051b 03       		.byte	0x3
 5101 051c 34090000 		.4byte	0x934
 5102 0520 E804     		.2byte	0x4e8
 5103 0522 00       		.byte	0
 5104 0523 13       		.uleb128 0x13
 5105 0524 EB050000 		.4byte	.LASF88
 5106 0528 0C       		.byte	0xc
 5107 0529 A706     		.2byte	0x6a7
 5108 052b 19       		.byte	0x19
 5109 052c 67000000 		.4byte	0x67
 5110 0530 14       		.uleb128 0x14
 5111 0531 93040000 		.4byte	.LASF89
 5112 0535 0D       		.byte	0xd
 5113 0536 4C       		.byte	0x4c
 5114 0537 11       		.byte	0x11
 5115 0538 99000000 		.4byte	0x99
 5116 053c 03       		.uleb128 0x3
 5117 053d 40020000 		.4byte	.LASF90
 5118 0541 0E       		.byte	0xe
 5119 0542 65       		.byte	0x65
 5120 0543 0F       		.byte	0xf
 5121 0544 93030000 		.4byte	0x393
 5122 0548 03       		.uleb128 0x3
 5123 0549 6D030000 		.4byte	.LASF91
 5124 054d 0E       		.byte	0xe
 5125 054e 6D       		.byte	0x6d
 5126 054f 12       		.byte	0x12
 5127 0550 AC000000 		.4byte	0xac
 5128 0554 06       		.uleb128 0x6
 5129 0555 BA020000 		.4byte	.LASF92
 5130 0559 04       		.byte	0x4
 5131 055a 0E       		.byte	0xe
 5132 055b 89       		.byte	0x89
 5133 055c 08       		.byte	0x8
 5134 055d 6F050000 		.4byte	0x56f
 5135 0561 15       		.uleb128 0x15
 5136 0562 72313300 		.ascii	"r13\000"
 5137 0566 0E       		.byte	0xe
 5138 0567 8A       		.byte	0x8a
 5139 0568 17       		.byte	0x17
 5140 0569 CA060000 		.4byte	0x6ca
 5141 056d 00       		.byte	0
 5142 056e 00       		.byte	0
 5143 056f 06       		.uleb128 0x6
 5144 0570 27070000 		.4byte	.LASF93
 5145 0574 64       		.byte	0x64
 5146 0575 04       		.byte	0x4
 5147 0576 F4       		.byte	0xf4
 5148 0577 08       		.byte	0x8
 5149 0578 CA060000 		.4byte	0x6ca
 5150 057c 15       		.uleb128 0x15
 5151 057d 73313600 		.ascii	"s16\000"
 5152 0581 04       		.byte	0x4
 5153 0582 F6       		.byte	0xf6
ARM GAS  /tmp/ccqhiTbD.s 			page 92


 5154 0583 11       		.byte	0x11
 5155 0584 3C050000 		.4byte	0x53c
 5156 0588 00       		.byte	0
 5157 0589 15       		.uleb128 0x15
 5158 058a 73313700 		.ascii	"s17\000"
 5159 058e 04       		.byte	0x4
 5160 058f F7       		.byte	0xf7
 5161 0590 11       		.byte	0x11
 5162 0591 3C050000 		.4byte	0x53c
 5163 0595 04       		.byte	0x4
 5164 0596 15       		.uleb128 0x15
 5165 0597 73313800 		.ascii	"s18\000"
 5166 059b 04       		.byte	0x4
 5167 059c F8       		.byte	0xf8
 5168 059d 11       		.byte	0x11
 5169 059e 3C050000 		.4byte	0x53c
 5170 05a2 08       		.byte	0x8
 5171 05a3 15       		.uleb128 0x15
 5172 05a4 73313900 		.ascii	"s19\000"
 5173 05a8 04       		.byte	0x4
 5174 05a9 F9       		.byte	0xf9
 5175 05aa 11       		.byte	0x11
 5176 05ab 3C050000 		.4byte	0x53c
 5177 05af 0C       		.byte	0xc
 5178 05b0 15       		.uleb128 0x15
 5179 05b1 73323000 		.ascii	"s20\000"
 5180 05b5 04       		.byte	0x4
 5181 05b6 FA       		.byte	0xfa
 5182 05b7 11       		.byte	0x11
 5183 05b8 3C050000 		.4byte	0x53c
 5184 05bc 10       		.byte	0x10
 5185 05bd 15       		.uleb128 0x15
 5186 05be 73323100 		.ascii	"s21\000"
 5187 05c2 04       		.byte	0x4
 5188 05c3 FB       		.byte	0xfb
 5189 05c4 11       		.byte	0x11
 5190 05c5 3C050000 		.4byte	0x53c
 5191 05c9 14       		.byte	0x14
 5192 05ca 15       		.uleb128 0x15
 5193 05cb 73323200 		.ascii	"s22\000"
 5194 05cf 04       		.byte	0x4
 5195 05d0 FC       		.byte	0xfc
 5196 05d1 11       		.byte	0x11
 5197 05d2 3C050000 		.4byte	0x53c
 5198 05d6 18       		.byte	0x18
 5199 05d7 15       		.uleb128 0x15
 5200 05d8 73323300 		.ascii	"s23\000"
 5201 05dc 04       		.byte	0x4
 5202 05dd FD       		.byte	0xfd
 5203 05de 11       		.byte	0x11
 5204 05df 3C050000 		.4byte	0x53c
 5205 05e3 1C       		.byte	0x1c
 5206 05e4 15       		.uleb128 0x15
 5207 05e5 73323400 		.ascii	"s24\000"
 5208 05e9 04       		.byte	0x4
 5209 05ea FE       		.byte	0xfe
 5210 05eb 11       		.byte	0x11
ARM GAS  /tmp/ccqhiTbD.s 			page 93


 5211 05ec 3C050000 		.4byte	0x53c
 5212 05f0 20       		.byte	0x20
 5213 05f1 15       		.uleb128 0x15
 5214 05f2 73323500 		.ascii	"s25\000"
 5215 05f6 04       		.byte	0x4
 5216 05f7 FF       		.byte	0xff
 5217 05f8 11       		.byte	0x11
 5218 05f9 3C050000 		.4byte	0x53c
 5219 05fd 24       		.byte	0x24
 5220 05fe 08       		.uleb128 0x8
 5221 05ff 73323600 		.ascii	"s26\000"
 5222 0603 04       		.byte	0x4
 5223 0604 0001     		.2byte	0x100
 5224 0606 11       		.byte	0x11
 5225 0607 3C050000 		.4byte	0x53c
 5226 060b 28       		.byte	0x28
 5227 060c 08       		.uleb128 0x8
 5228 060d 73323700 		.ascii	"s27\000"
 5229 0611 04       		.byte	0x4
 5230 0612 0101     		.2byte	0x101
 5231 0614 11       		.byte	0x11
 5232 0615 3C050000 		.4byte	0x53c
 5233 0619 2C       		.byte	0x2c
 5234 061a 08       		.uleb128 0x8
 5235 061b 73323800 		.ascii	"s28\000"
 5236 061f 04       		.byte	0x4
 5237 0620 0201     		.2byte	0x102
 5238 0622 11       		.byte	0x11
 5239 0623 3C050000 		.4byte	0x53c
 5240 0627 30       		.byte	0x30
 5241 0628 08       		.uleb128 0x8
 5242 0629 73323900 		.ascii	"s29\000"
 5243 062d 04       		.byte	0x4
 5244 062e 0301     		.2byte	0x103
 5245 0630 11       		.byte	0x11
 5246 0631 3C050000 		.4byte	0x53c
 5247 0635 34       		.byte	0x34
 5248 0636 08       		.uleb128 0x8
 5249 0637 73333000 		.ascii	"s30\000"
 5250 063b 04       		.byte	0x4
 5251 063c 0401     		.2byte	0x104
 5252 063e 11       		.byte	0x11
 5253 063f 3C050000 		.4byte	0x53c
 5254 0643 38       		.byte	0x38
 5255 0644 08       		.uleb128 0x8
 5256 0645 73333100 		.ascii	"s31\000"
 5257 0649 04       		.byte	0x4
 5258 064a 0501     		.2byte	0x105
 5259 064c 11       		.byte	0x11
 5260 064d 3C050000 		.4byte	0x53c
 5261 0651 3C       		.byte	0x3c
 5262 0652 08       		.uleb128 0x8
 5263 0653 723400   		.ascii	"r4\000"
 5264 0656 04       		.byte	0x4
 5265 0657 0701     		.2byte	0x107
 5266 0659 11       		.byte	0x11
 5267 065a 3C050000 		.4byte	0x53c
ARM GAS  /tmp/ccqhiTbD.s 			page 94


 5268 065e 40       		.byte	0x40
 5269 065f 08       		.uleb128 0x8
 5270 0660 723500   		.ascii	"r5\000"
 5271 0663 04       		.byte	0x4
 5272 0664 0801     		.2byte	0x108
 5273 0666 11       		.byte	0x11
 5274 0667 3C050000 		.4byte	0x53c
 5275 066b 44       		.byte	0x44
 5276 066c 08       		.uleb128 0x8
 5277 066d 723600   		.ascii	"r6\000"
 5278 0670 04       		.byte	0x4
 5279 0671 0901     		.2byte	0x109
 5280 0673 11       		.byte	0x11
 5281 0674 3C050000 		.4byte	0x53c
 5282 0678 48       		.byte	0x48
 5283 0679 08       		.uleb128 0x8
 5284 067a 723700   		.ascii	"r7\000"
 5285 067d 04       		.byte	0x4
 5286 067e 0A01     		.2byte	0x10a
 5287 0680 11       		.byte	0x11
 5288 0681 3C050000 		.4byte	0x53c
 5289 0685 4C       		.byte	0x4c
 5290 0686 08       		.uleb128 0x8
 5291 0687 723800   		.ascii	"r8\000"
 5292 068a 04       		.byte	0x4
 5293 068b 0B01     		.2byte	0x10b
 5294 068d 11       		.byte	0x11
 5295 068e 3C050000 		.4byte	0x53c
 5296 0692 50       		.byte	0x50
 5297 0693 08       		.uleb128 0x8
 5298 0694 723900   		.ascii	"r9\000"
 5299 0697 04       		.byte	0x4
 5300 0698 0C01     		.2byte	0x10c
 5301 069a 11       		.byte	0x11
 5302 069b 3C050000 		.4byte	0x53c
 5303 069f 54       		.byte	0x54
 5304 06a0 08       		.uleb128 0x8
 5305 06a1 72313000 		.ascii	"r10\000"
 5306 06a5 04       		.byte	0x4
 5307 06a6 0D01     		.2byte	0x10d
 5308 06a8 11       		.byte	0x11
 5309 06a9 3C050000 		.4byte	0x53c
 5310 06ad 58       		.byte	0x58
 5311 06ae 08       		.uleb128 0x8
 5312 06af 72313100 		.ascii	"r11\000"
 5313 06b3 04       		.byte	0x4
 5314 06b4 0E01     		.2byte	0x10e
 5315 06b6 11       		.byte	0x11
 5316 06b7 3C050000 		.4byte	0x53c
 5317 06bb 5C       		.byte	0x5c
 5318 06bc 08       		.uleb128 0x8
 5319 06bd 6C7200   		.ascii	"lr\000"
 5320 06c0 04       		.byte	0x4
 5321 06c1 0F01     		.2byte	0x10f
 5322 06c3 11       		.byte	0x11
 5323 06c4 3C050000 		.4byte	0x53c
 5324 06c8 60       		.byte	0x60
ARM GAS  /tmp/ccqhiTbD.s 			page 95


 5325 06c9 00       		.byte	0
 5326 06ca 0A       		.uleb128 0xa
 5327 06cb 04       		.byte	0x4
 5328 06cc 6F050000 		.4byte	0x56f
 5329 06d0 16       		.uleb128 0x16
 5330 06d1 10       		.byte	0x10
 5331 06d2 0F       		.byte	0xf
 5332 06d3 51       		.byte	0x51
 5333 06d4 09       		.byte	0x9
 5334 06d5 0E070000 		.4byte	0x70e
 5335 06d9 07       		.uleb128 0x7
 5336 06da 440C0000 		.4byte	.LASF94
 5337 06de 0F       		.byte	0xf
 5338 06df 55       		.byte	0x55
 5339 06e0 19       		.byte	0x19
 5340 06e1 43010000 		.4byte	0x143
 5341 06e5 00       		.byte	0
 5342 06e6 07       		.uleb128 0x7
 5343 06e7 10010000 		.4byte	.LASF95
 5344 06eb 0F       		.byte	0xf
 5345 06ec 59       		.byte	0x59
 5346 06ed 1A       		.byte	0x1a
 5347 06ee A1020000 		.4byte	0x2a1
 5348 06f2 04       		.byte	0x4
 5349 06f3 07       		.uleb128 0x7
 5350 06f4 02060000 		.4byte	.LASF96
 5351 06f8 0F       		.byte	0xf
 5352 06f9 5D       		.byte	0x5d
 5353 06fa 1A       		.byte	0x1a
 5354 06fb 93030000 		.4byte	0x393
 5355 06ff 08       		.byte	0x8
 5356 0700 07       		.uleb128 0x7
 5357 0701 20040000 		.4byte	.LASF97
 5358 0705 0F       		.byte	0xf
 5359 0706 61       		.byte	0x61
 5360 0707 19       		.byte	0x19
 5361 0708 73000000 		.4byte	0x73
 5362 070c 0C       		.byte	0xc
 5363 070d 00       		.byte	0
 5364 070e 03       		.uleb128 0x3
 5365 070f 12050000 		.4byte	.LASF98
 5366 0713 0F       		.byte	0xf
 5367 0714 62       		.byte	0x62
 5368 0715 03       		.byte	0x3
 5369 0716 D0060000 		.4byte	0x6d0
 5370 071a 17       		.uleb128 0x17
 5371 071b 0804     		.2byte	0x408
 5372 071d 0F       		.byte	0xf
 5373 071e 67       		.byte	0x67
 5374 071f 09       		.byte	0x9
 5375 0720 4C070000 		.4byte	0x74c
 5376 0724 07       		.uleb128 0x7
 5377 0725 C7050000 		.4byte	.LASF99
 5378 0729 0F       		.byte	0xf
 5379 072a 6B       		.byte	0x6b
 5380 072b 19       		.byte	0x19
 5381 072c 38000000 		.4byte	0x38
ARM GAS  /tmp/ccqhiTbD.s 			page 96


 5382 0730 00       		.byte	0
 5383 0731 07       		.uleb128 0x7
 5384 0732 5A0C0000 		.4byte	.LASF100
 5385 0736 0F       		.byte	0xf
 5386 0737 6F       		.byte	0x6f
 5387 0738 1A       		.byte	0x1a
 5388 0739 4C070000 		.4byte	0x74c
 5389 073d 04       		.byte	0x4
 5390 073e 07       		.uleb128 0x7
 5391 073f AC060000 		.4byte	.LASF101
 5392 0743 0F       		.byte	0xf
 5393 0744 73       		.byte	0x73
 5394 0745 19       		.byte	0x19
 5395 0746 52070000 		.4byte	0x752
 5396 074a 08       		.byte	0x8
 5397 074b 00       		.byte	0
 5398 074c 0A       		.uleb128 0xa
 5399 074d 04       		.byte	0x4
 5400 074e 0E070000 		.4byte	0x70e
 5401 0752 18       		.uleb128 0x18
 5402 0753 0E070000 		.4byte	0x70e
 5403 0757 62070000 		.4byte	0x762
 5404 075b 19       		.uleb128 0x19
 5405 075c 38000000 		.4byte	0x38
 5406 0760 3F       		.byte	0x3f
 5407 0761 00       		.byte	0
 5408 0762 03       		.uleb128 0x3
 5409 0763 BB030000 		.4byte	.LASF102
 5410 0767 0F       		.byte	0xf
 5411 0768 74       		.byte	0x74
 5412 0769 03       		.byte	0x3
 5413 076a 1A070000 		.4byte	0x71a
 5414 076e 16       		.uleb128 0x16
 5415 076f 04       		.byte	0x4
 5416 0770 10       		.byte	0x10
 5417 0771 38       		.byte	0x38
 5418 0772 09       		.byte	0x9
 5419 0773 85070000 		.4byte	0x785
 5420 0777 07       		.uleb128 0x7
 5421 0778 A5060000 		.4byte	.LASF103
 5422 077c 10       		.byte	0x10
 5423 077d 3C       		.byte	0x3c
 5424 077e 19       		.byte	0x19
 5425 077f BF000000 		.4byte	0xbf
 5426 0783 00       		.byte	0
 5427 0784 00       		.byte	0
 5428 0785 03       		.uleb128 0x3
 5429 0786 D6080000 		.4byte	.LASF104
 5430 078a 10       		.byte	0x10
 5431 078b 3D       		.byte	0x3d
 5432 078c 03       		.byte	0x3
 5433 078d 6E070000 		.4byte	0x76e
 5434 0791 16       		.uleb128 0x16
 5435 0792 18       		.byte	0x18
 5436 0793 10       		.byte	0x10
 5437 0794 48       		.byte	0x48
 5438 0795 09       		.byte	0x9
ARM GAS  /tmp/ccqhiTbD.s 			page 97


 5439 0796 DA070000 		.4byte	0x7da
 5440 079a 07       		.uleb128 0x7
 5441 079b 7A080000 		.4byte	.LASF105
 5442 079f 10       		.byte	0x10
 5443 07a0 49       		.byte	0x49
 5444 07a1 19       		.byte	0x19
 5445 07a2 BF000000 		.4byte	0xbf
 5446 07a6 00       		.byte	0
 5447 07a7 07       		.uleb128 0x7
 5448 07a8 8F030000 		.4byte	.LASF106
 5449 07ac 10       		.byte	0x10
 5450 07ad 4A       		.byte	0x4a
 5451 07ae 19       		.byte	0x19
 5452 07af BF000000 		.4byte	0xbf
 5453 07b3 04       		.byte	0x4
 5454 07b4 07       		.uleb128 0x7
 5455 07b5 6A0C0000 		.4byte	.LASF107
 5456 07b9 10       		.byte	0x10
 5457 07ba 4B       		.byte	0x4b
 5458 07bb 19       		.byte	0x19
 5459 07bc BF000000 		.4byte	0xbf
 5460 07c0 08       		.byte	0x8
 5461 07c1 15       		.uleb128 0x15
 5462 07c2 6E00     		.ascii	"n\000"
 5463 07c4 10       		.byte	0x10
 5464 07c5 4C       		.byte	0x4c
 5465 07c6 19       		.byte	0x19
 5466 07c7 37010000 		.4byte	0x137
 5467 07cb 0C       		.byte	0xc
 5468 07cc 07       		.uleb128 0x7
 5469 07cd 85020000 		.4byte	.LASF108
 5470 07d1 10       		.byte	0x10
 5471 07d2 4D       		.byte	0x4d
 5472 07d3 19       		.byte	0x19
 5473 07d4 CB000000 		.4byte	0xcb
 5474 07d8 10       		.byte	0x10
 5475 07d9 00       		.byte	0
 5476 07da 03       		.uleb128 0x3
 5477 07db 28010000 		.4byte	.LASF109
 5478 07df 10       		.byte	0x10
 5479 07e0 4E       		.byte	0x4e
 5480 07e1 03       		.byte	0x3
 5481 07e2 91070000 		.4byte	0x791
 5482 07e6 16       		.uleb128 0x16
 5483 07e7 38       		.byte	0x38
 5484 07e8 11       		.byte	0x11
 5485 07e9 38       		.byte	0x38
 5486 07ea 09       		.byte	0x9
 5487 07eb 24080000 		.4byte	0x824
 5488 07ef 07       		.uleb128 0x7
 5489 07f0 21050000 		.4byte	.LASF110
 5490 07f4 11       		.byte	0x11
 5491 07f5 39       		.byte	0x39
 5492 07f6 19       		.byte	0x19
 5493 07f7 37010000 		.4byte	0x137
 5494 07fb 00       		.byte	0
 5495 07fc 07       		.uleb128 0x7
ARM GAS  /tmp/ccqhiTbD.s 			page 98


 5496 07fd 57030000 		.4byte	.LASF111
 5497 0801 11       		.byte	0x11
 5498 0802 3A       		.byte	0x3a
 5499 0803 19       		.byte	0x19
 5500 0804 37010000 		.4byte	0x137
 5501 0808 04       		.byte	0x4
 5502 0809 07       		.uleb128 0x7
 5503 080a 36040000 		.4byte	.LASF112
 5504 080e 11       		.byte	0x11
 5505 080f 3B       		.byte	0x3b
 5506 0810 19       		.byte	0x19
 5507 0811 DA070000 		.4byte	0x7da
 5508 0815 08       		.byte	0x8
 5509 0816 07       		.uleb128 0x7
 5510 0817 15040000 		.4byte	.LASF113
 5511 081b 11       		.byte	0x11
 5512 081c 3D       		.byte	0x3d
 5513 081d 19       		.byte	0x19
 5514 081e DA070000 		.4byte	0x7da
 5515 0822 20       		.byte	0x20
 5516 0823 00       		.byte	0
 5517 0824 03       		.uleb128 0x3
 5518 0825 8D060000 		.4byte	.LASF114
 5519 0829 11       		.byte	0x11
 5520 082a 3F       		.byte	0x3f
 5521 082b 03       		.byte	0x3
 5522 082c E6070000 		.4byte	0x7e6
 5523 0830 1A       		.uleb128 0x1a
 5524 0831 04       		.byte	0x4
 5525 0832 06       		.byte	0x6
 5526 0833 FA       		.byte	0xfa
 5527 0834 03       		.byte	0x3
 5528 0835 95080000 		.4byte	0x895
 5529 0839 1B       		.uleb128 0x1b
 5530 083a E40B0000 		.4byte	.LASF115
 5531 083e 06       		.byte	0x6
 5532 083f 0101     		.2byte	0x101
 5533 0841 19       		.byte	0x19
 5534 0842 13010000 		.4byte	0x113
 5535 0846 1B       		.uleb128 0x1b
 5536 0847 7E010000 		.4byte	.LASF116
 5537 084b 06       		.byte	0x6
 5538 084c 0801     		.2byte	0x108
 5539 084e 19       		.byte	0x19
 5540 084f 13010000 		.4byte	0x113
 5541 0853 1B       		.uleb128 0x1b
 5542 0854 50030000 		.4byte	.LASF117
 5543 0858 06       		.byte	0x6
 5544 0859 0F01     		.2byte	0x10f
 5545 085b 1A       		.byte	0x1a
 5546 085c 93030000 		.4byte	0x393
 5547 0860 1B       		.uleb128 0x1b
 5548 0861 D4020000 		.4byte	.LASF118
 5549 0865 06       		.byte	0x6
 5550 0866 1601     		.2byte	0x116
 5551 0868 1A       		.byte	0x1a
 5552 0869 95080000 		.4byte	0x895
ARM GAS  /tmp/ccqhiTbD.s 			page 99


 5553 086d 1B       		.uleb128 0x1b
 5554 086e 0F000000 		.4byte	.LASF119
 5555 0872 06       		.byte	0x6
 5556 0873 1E01     		.2byte	0x11e
 5557 0875 1A       		.byte	0x1a
 5558 0876 C3080000 		.4byte	0x8c3
 5559 087a 1B       		.uleb128 0x1b
 5560 087b D8030000 		.4byte	.LASF120
 5561 087f 06       		.byte	0x6
 5562 0880 2701     		.2byte	0x127
 5563 0882 1A       		.byte	0x1a
 5564 0883 0B090000 		.4byte	0x90b
 5565 0887 1B       		.uleb128 0x1b
 5566 0888 87010000 		.4byte	.LASF121
 5567 088c 06       		.byte	0x6
 5568 088d 2F01     		.2byte	0x12f
 5569 088f 19       		.byte	0x19
 5570 0890 1F010000 		.4byte	0x11f
 5571 0894 00       		.byte	0
 5572 0895 0A       		.uleb128 0xa
 5573 0896 04       		.byte	0x4
 5574 0897 95020000 		.4byte	0x295
 5575 089b 06       		.uleb128 0x6
 5576 089c A3040000 		.4byte	.LASF122
 5577 08a0 0C       		.byte	0xc
 5578 08a1 12       		.byte	0x12
 5579 08a2 34       		.byte	0x34
 5580 08a3 10       		.byte	0x10
 5581 08a4 C3080000 		.4byte	0x8c3
 5582 08a8 07       		.uleb128 0x7
 5583 08a9 F6080000 		.4byte	.LASF123
 5584 08ad 12       		.byte	0x12
 5585 08ae 35       		.byte	0x35
 5586 08af 19       		.byte	0x19
 5587 08b0 CE020000 		.4byte	0x2ce
 5588 08b4 00       		.byte	0
 5589 08b5 07       		.uleb128 0x7
 5590 08b6 66070000 		.4byte	.LASF124
 5591 08ba 12       		.byte	0x12
 5592 08bb 37       		.byte	0x37
 5593 08bc 19       		.byte	0x19
 5594 08bd 2B010000 		.4byte	0x12b
 5595 08c1 08       		.byte	0x8
 5596 08c2 00       		.byte	0
 5597 08c3 0A       		.uleb128 0xa
 5598 08c4 04       		.byte	0x4
 5599 08c5 9B080000 		.4byte	0x89b
 5600 08c9 06       		.uleb128 0x6
 5601 08ca 11090000 		.4byte	.LASF125
 5602 08ce 14       		.byte	0x14
 5603 08cf 13       		.byte	0x13
 5604 08d0 39       		.byte	0x39
 5605 08d1 08       		.byte	0x8
 5606 08d2 0B090000 		.4byte	0x90b
 5607 08d6 07       		.uleb128 0x7
 5608 08d7 8A050000 		.4byte	.LASF126
 5609 08db 13       		.byte	0x13
ARM GAS  /tmp/ccqhiTbD.s 			page 100


 5610 08dc 3A       		.byte	0x3a
 5611 08dd 19       		.byte	0x19
 5612 08de CE020000 		.4byte	0x2ce
 5613 08e2 00       		.byte	0
 5614 08e3 07       		.uleb128 0x7
 5615 08e4 6F010000 		.4byte	.LASF127
 5616 08e8 13       		.byte	0x13
 5617 08e9 3C       		.byte	0x3c
 5618 08ea 1A       		.byte	0x1a
 5619 08eb A1020000 		.4byte	0x2a1
 5620 08ef 08       		.byte	0x8
 5621 08f0 07       		.uleb128 0x7
 5622 08f1 530C0000 		.4byte	.LASF128
 5623 08f5 13       		.byte	0x13
 5624 08f6 3E       		.byte	0x3e
 5625 08f7 1A       		.byte	0x1a
 5626 08f8 7D0A0000 		.4byte	0xa7d
 5627 08fc 0C       		.byte	0xc
 5628 08fd 07       		.uleb128 0x7
 5629 08fe 4A030000 		.4byte	.LASF129
 5630 0902 13       		.byte	0x13
 5631 0903 41       		.byte	0x41
 5632 0904 19       		.byte	0x19
 5633 0905 2B010000 		.4byte	0x12b
 5634 0909 10       		.byte	0x10
 5635 090a 00       		.byte	0
 5636 090b 0A       		.uleb128 0xa
 5637 090c 04       		.byte	0x4
 5638 090d C9080000 		.4byte	0x8c9
 5639 0911 0A       		.uleb128 0xa
 5640 0912 04       		.byte	0x4
 5641 0913 23090000 		.4byte	0x923
 5642 0917 05       		.uleb128 0x5
 5643 0918 11090000 		.4byte	0x911
 5644 091c 04       		.uleb128 0x4
 5645 091d 01       		.byte	0x1
 5646 091e 08       		.byte	0x8
 5647 091f 2D030000 		.4byte	.LASF130
 5648 0923 0B       		.uleb128 0xb
 5649 0924 1C090000 		.4byte	0x91c
 5650 0928 0A       		.uleb128 0xa
 5651 0929 04       		.byte	0x4
 5652 092a 48050000 		.4byte	0x548
 5653 092e 0A       		.uleb128 0xa
 5654 092f 04       		.byte	0x4
 5655 0930 9A030000 		.4byte	0x39a
 5656 0934 18       		.uleb128 0x18
 5657 0935 48050000 		.4byte	0x548
 5658 0939 44090000 		.4byte	0x944
 5659 093d 19       		.uleb128 0x19
 5660 093e 38000000 		.4byte	0x38
 5661 0942 30       		.byte	0x30
 5662 0943 00       		.byte	0
 5663 0944 1C       		.uleb128 0x1c
 5664 0945 636800   		.ascii	"ch\000"
 5665 0948 06       		.byte	0x6
 5666 0949 0902     		.2byte	0x209
ARM GAS  /tmp/ccqhiTbD.s 			page 101


 5667 094b 14       		.byte	0x14
 5668 094c A2040000 		.4byte	0x4a2
 5669 0950 16       		.uleb128 0x16
 5670 0951 16       		.byte	0x16
 5671 0952 14       		.byte	0x14
 5672 0953 34       		.byte	0x34
 5673 0954 09       		.byte	0x9
 5674 0955 440A0000 		.4byte	0xa44
 5675 0959 07       		.uleb128 0x7
 5676 095a 2C000000 		.4byte	.LASF131
 5677 095e 14       		.byte	0x14
 5678 095f 35       		.byte	0x35
 5679 0960 0D       		.byte	0xd
 5680 0961 440A0000 		.4byte	0xa44
 5681 0965 00       		.byte	0
 5682 0966 07       		.uleb128 0x7
 5683 0967 5F040000 		.4byte	.LASF132
 5684 096b 14       		.byte	0x14
 5685 096c 36       		.byte	0x36
 5686 096d 0D       		.byte	0xd
 5687 096e 73000000 		.4byte	0x73
 5688 0972 04       		.byte	0x4
 5689 0973 07       		.uleb128 0x7
 5690 0974 140C0000 		.4byte	.LASF133
 5691 0978 14       		.byte	0x14
 5692 0979 37       		.byte	0x37
 5693 097a 0D       		.byte	0xd
 5694 097b 73000000 		.4byte	0x73
 5695 097f 05       		.byte	0x5
 5696 0980 07       		.uleb128 0x7
 5697 0981 7F050000 		.4byte	.LASF134
 5698 0985 14       		.byte	0x14
 5699 0986 38       		.byte	0x38
 5700 0987 0D       		.byte	0xd
 5701 0988 86000000 		.4byte	0x86
 5702 098c 06       		.byte	0x6
 5703 098d 07       		.uleb128 0x7
 5704 098e 05010000 		.4byte	.LASF135
 5705 0992 14       		.byte	0x14
 5706 0993 39       		.byte	0x39
 5707 0994 0D       		.byte	0xd
 5708 0995 73000000 		.4byte	0x73
 5709 0999 08       		.byte	0x8
 5710 099a 07       		.uleb128 0x7
 5711 099b 81060000 		.4byte	.LASF136
 5712 099f 14       		.byte	0x14
 5713 09a0 3A       		.byte	0x3a
 5714 09a1 0D       		.byte	0xd
 5715 09a2 73000000 		.4byte	0x73
 5716 09a6 09       		.byte	0x9
 5717 09a7 07       		.uleb128 0x7
 5718 09a8 8E010000 		.4byte	.LASF137
 5719 09ac 14       		.byte	0x14
 5720 09ad 3B       		.byte	0x3b
 5721 09ae 0D       		.byte	0xd
 5722 09af 73000000 		.4byte	0x73
 5723 09b3 0A       		.byte	0xa
ARM GAS  /tmp/ccqhiTbD.s 			page 102


 5724 09b4 07       		.uleb128 0x7
 5725 09b5 83030000 		.4byte	.LASF138
 5726 09b9 14       		.byte	0x14
 5727 09ba 3C       		.byte	0x3c
 5728 09bb 0D       		.byte	0xd
 5729 09bc 73000000 		.4byte	0x73
 5730 09c0 0B       		.byte	0xb
 5731 09c1 07       		.uleb128 0x7
 5732 09c2 81000000 		.4byte	.LASF139
 5733 09c6 14       		.byte	0x14
 5734 09c7 3D       		.byte	0x3d
 5735 09c8 0D       		.byte	0xd
 5736 09c9 73000000 		.4byte	0x73
 5737 09cd 0C       		.byte	0xc
 5738 09ce 07       		.uleb128 0x7
 5739 09cf 60030000 		.4byte	.LASF140
 5740 09d3 14       		.byte	0x14
 5741 09d4 3E       		.byte	0x3e
 5742 09d5 0D       		.byte	0xd
 5743 09d6 73000000 		.4byte	0x73
 5744 09da 0D       		.byte	0xd
 5745 09db 07       		.uleb128 0x7
 5746 09dc 5E090000 		.4byte	.LASF141
 5747 09e0 14       		.byte	0x14
 5748 09e1 3F       		.byte	0x3f
 5749 09e2 0D       		.byte	0xd
 5750 09e3 73000000 		.4byte	0x73
 5751 09e7 0E       		.byte	0xe
 5752 09e8 07       		.uleb128 0x7
 5753 09e9 16000000 		.4byte	.LASF142
 5754 09ed 14       		.byte	0x14
 5755 09ee 40       		.byte	0x40
 5756 09ef 0D       		.byte	0xd
 5757 09f0 73000000 		.4byte	0x73
 5758 09f4 0F       		.byte	0xf
 5759 09f5 07       		.uleb128 0x7
 5760 09f6 EA090000 		.4byte	.LASF143
 5761 09fa 14       		.byte	0x14
 5762 09fb 41       		.byte	0x41
 5763 09fc 0D       		.byte	0xd
 5764 09fd 73000000 		.4byte	0x73
 5765 0a01 10       		.byte	0x10
 5766 0a02 07       		.uleb128 0x7
 5767 0a03 E6010000 		.4byte	.LASF144
 5768 0a07 14       		.byte	0x14
 5769 0a08 43       		.byte	0x43
 5770 0a09 0D       		.byte	0xd
 5771 0a0a 73000000 		.4byte	0x73
 5772 0a0e 11       		.byte	0x11
 5773 0a0f 07       		.uleb128 0x7
 5774 0a10 DB070000 		.4byte	.LASF145
 5775 0a14 14       		.byte	0x14
 5776 0a15 44       		.byte	0x44
 5777 0a16 0D       		.byte	0xd
 5778 0a17 73000000 		.4byte	0x73
 5779 0a1b 12       		.byte	0x12
 5780 0a1c 07       		.uleb128 0x7
ARM GAS  /tmp/ccqhiTbD.s 			page 103


 5781 0a1d BD060000 		.4byte	.LASF146
 5782 0a21 14       		.byte	0x14
 5783 0a22 45       		.byte	0x45
 5784 0a23 0D       		.byte	0xd
 5785 0a24 73000000 		.4byte	0x73
 5786 0a28 13       		.byte	0x13
 5787 0a29 07       		.uleb128 0x7
 5788 0a2a 40050000 		.4byte	.LASF147
 5789 0a2e 14       		.byte	0x14
 5790 0a2f 46       		.byte	0x46
 5791 0a30 0D       		.byte	0xd
 5792 0a31 73000000 		.4byte	0x73
 5793 0a35 14       		.byte	0x14
 5794 0a36 07       		.uleb128 0x7
 5795 0a37 33070000 		.4byte	.LASF148
 5796 0a3b 14       		.byte	0x14
 5797 0a3c 48       		.byte	0x48
 5798 0a3d 0D       		.byte	0xd
 5799 0a3e 73000000 		.4byte	0x73
 5800 0a42 15       		.byte	0x15
 5801 0a43 00       		.byte	0
 5802 0a44 18       		.uleb128 0x18
 5803 0a45 1C090000 		.4byte	0x91c
 5804 0a49 540A0000 		.4byte	0xa54
 5805 0a4d 19       		.uleb128 0x19
 5806 0a4e 38000000 		.4byte	0x38
 5807 0a52 03       		.byte	0x3
 5808 0a53 00       		.byte	0
 5809 0a54 03       		.uleb128 0x3
 5810 0a55 0A0C0000 		.4byte	.LASF149
 5811 0a59 14       		.byte	0x14
 5812 0a5a 49       		.byte	0x49
 5813 0a5b 03       		.byte	0x3
 5814 0a5c 50090000 		.4byte	0x950
 5815 0a60 0B       		.uleb128 0xb
 5816 0a61 540A0000 		.4byte	0xa54
 5817 0a65 14       		.uleb128 0x14
 5818 0a66 48000000 		.4byte	.LASF150
 5819 0a6a 14       		.byte	0x14
 5820 0a6b 6E       		.byte	0x6e
 5821 0a6c 1D       		.byte	0x1d
 5822 0a6d 600A0000 		.4byte	0xa60
 5823 0a71 03       		.uleb128 0x3
 5824 0a72 DA090000 		.4byte	.LASF151
 5825 0a76 13       		.byte	0x13
 5826 0a77 34       		.byte	0x34
 5827 0a78 19       		.byte	0x19
 5828 0a79 C9080000 		.4byte	0x8c9
 5829 0a7d 0A       		.uleb128 0xa
 5830 0a7e 04       		.byte	0x4
 5831 0a7f 710A0000 		.4byte	0xa71
 5832 0a83 06       		.uleb128 0x6
 5833 0a84 92050000 		.4byte	.LASF152
 5834 0a88 08       		.byte	0x8
 5835 0a89 15       		.byte	0x15
 5836 0a8a 3B       		.byte	0x3b
 5837 0a8b 10       		.byte	0x10
ARM GAS  /tmp/ccqhiTbD.s 			page 104


 5838 0a8c 9E0A0000 		.4byte	0xa9e
 5839 0a90 07       		.uleb128 0x7
 5840 0a91 6C070000 		.4byte	.LASF153
 5841 0a95 15       		.byte	0x15
 5842 0a96 3C       		.byte	0x3c
 5843 0a97 19       		.byte	0x19
 5844 0a98 CE020000 		.4byte	0x2ce
 5845 0a9c 00       		.byte	0
 5846 0a9d 00       		.byte	0
 5847 0a9e 03       		.uleb128 0x3
 5848 0a9f 71040000 		.4byte	.LASF154
 5849 0aa3 15       		.byte	0x15
 5850 0aa4 3E       		.byte	0x3e
 5851 0aa5 03       		.byte	0x3
 5852 0aa6 830A0000 		.4byte	0xa83
 5853 0aaa 06       		.uleb128 0x6
 5854 0aab 38090000 		.4byte	.LASF155
 5855 0aaf 10       		.byte	0x10
 5856 0ab0 16       		.byte	0x16
 5857 0ab1 3B       		.byte	0x3b
 5858 0ab2 08       		.byte	0x8
 5859 0ab3 EC0A0000 		.4byte	0xaec
 5860 0ab7 07       		.uleb128 0x7
 5861 0ab8 E7080000 		.4byte	.LASF156
 5862 0abc 16       		.byte	0x16
 5863 0abd 3C       		.byte	0x3c
 5864 0abe 0F       		.byte	0xf
 5865 0abf 11090000 		.4byte	0x911
 5866 0ac3 00       		.byte	0
 5867 0ac4 07       		.uleb128 0x7
 5868 0ac5 B5030000 		.4byte	.LASF157
 5869 0ac9 16       		.byte	0x16
 5870 0aca 3D       		.byte	0x3d
 5871 0acb 0A       		.byte	0xa
 5872 0acc F20A0000 		.4byte	0xaf2
 5873 0ad0 04       		.byte	0x4
 5874 0ad1 07       		.uleb128 0x7
 5875 0ad2 9C060000 		.4byte	.LASF158
 5876 0ad6 16       		.byte	0x16
 5877 0ad7 3E       		.byte	0x3e
 5878 0ad8 0A       		.byte	0xa
 5879 0ad9 F20A0000 		.4byte	0xaf2
 5880 0add 08       		.byte	0x8
 5881 0ade 07       		.uleb128 0x7
 5882 0adf 05080000 		.4byte	.LASF159
 5883 0ae3 16       		.byte	0x16
 5884 0ae4 3F       		.byte	0x3f
 5885 0ae5 0A       		.byte	0xa
 5886 0ae6 F20A0000 		.4byte	0xaf2
 5887 0aea 0C       		.byte	0xc
 5888 0aeb 00       		.byte	0
 5889 0aec 0B       		.uleb128 0xb
 5890 0aed AA0A0000 		.4byte	0xaaa
 5891 0af1 1D       		.uleb128 0x1d
 5892 0af2 0A       		.uleb128 0xa
 5893 0af3 04       		.byte	0x4
 5894 0af4 F10A0000 		.4byte	0xaf1
ARM GAS  /tmp/ccqhiTbD.s 			page 105


 5895 0af8 17       		.uleb128 0x17
 5896 0af9 D809     		.2byte	0x9d8
 5897 0afb 16       		.byte	0x16
 5898 0afc 44       		.byte	0x44
 5899 0afd 03       		.byte	0x3
 5900 0afe 430B0000 		.4byte	0xb43
 5901 0b02 15       		.uleb128 0x15
 5902 0b03 543000   		.ascii	"T0\000"
 5903 0b06 16       		.byte	0x16
 5904 0b07 45       		.byte	0x45
 5905 0b08 05       		.byte	0x5
 5906 0b09 430B0000 		.4byte	0xb43
 5907 0b0d 00       		.byte	0
 5908 0b0e 1E       		.uleb128 0x1e
 5909 0b0f 543100   		.ascii	"T1\000"
 5910 0b12 16       		.byte	0x16
 5911 0b13 46       		.byte	0x46
 5912 0b14 05       		.byte	0x5
 5913 0b15 430B0000 		.4byte	0xb43
 5914 0b19 F801     		.2byte	0x1f8
 5915 0b1b 1E       		.uleb128 0x1e
 5916 0b1c 543200   		.ascii	"T2\000"
 5917 0b1f 16       		.byte	0x16
 5918 0b20 47       		.byte	0x47
 5919 0b21 05       		.byte	0x5
 5920 0b22 430B0000 		.4byte	0xb43
 5921 0b26 F003     		.2byte	0x3f0
 5922 0b28 1E       		.uleb128 0x1e
 5923 0b29 543300   		.ascii	"T3\000"
 5924 0b2c 16       		.byte	0x16
 5925 0b2d 48       		.byte	0x48
 5926 0b2e 05       		.byte	0x5
 5927 0b2f 430B0000 		.4byte	0xb43
 5928 0b33 E805     		.2byte	0x5e8
 5929 0b35 1E       		.uleb128 0x1e
 5930 0b36 543400   		.ascii	"T4\000"
 5931 0b39 16       		.byte	0x16
 5932 0b3a 49       		.byte	0x49
 5933 0b3b 05       		.byte	0x5
 5934 0b3c 430B0000 		.4byte	0xb43
 5935 0b40 E007     		.2byte	0x7e0
 5936 0b42 00       		.byte	0
 5937 0b43 18       		.uleb128 0x18
 5938 0b44 48050000 		.4byte	0x548
 5939 0b48 530B0000 		.4byte	0xb53
 5940 0b4c 19       		.uleb128 0x19
 5941 0b4d 38000000 		.4byte	0x38
 5942 0b51 3E       		.byte	0x3e
 5943 0b52 00       		.byte	0
 5944 0b53 1F       		.uleb128 0x1f
 5945 0b54 5B000000 		.4byte	.LASF247
 5946 0b58 D809     		.2byte	0x9d8
 5947 0b5a 16       		.byte	0x16
 5948 0b5b 43       		.byte	0x43
 5949 0b5c 07       		.byte	0x7
 5950 0b5d 790B0000 		.4byte	0xb79
 5951 0b61 20       		.uleb128 0x20
ARM GAS  /tmp/ccqhiTbD.s 			page 106


 5952 0b62 776100   		.ascii	"wa\000"
 5953 0b65 16       		.byte	0x16
 5954 0b66 4A       		.byte	0x4a
 5955 0b67 05       		.byte	0x5
 5956 0b68 F80A0000 		.4byte	0xaf8
 5957 0b6c 21       		.uleb128 0x21
 5958 0b6d AE030000 		.4byte	.LASF160
 5959 0b71 16       		.byte	0x16
 5960 0b72 4B       		.byte	0x4b
 5961 0b73 0B       		.byte	0xb
 5962 0b74 790B0000 		.4byte	0xb79
 5963 0b78 00       		.byte	0
 5964 0b79 18       		.uleb128 0x18
 5965 0b7a 73000000 		.4byte	0x73
 5966 0b7e 8A0B0000 		.4byte	0xb8a
 5967 0b82 22       		.uleb128 0x22
 5968 0b83 38000000 		.4byte	0x38
 5969 0b87 D709     		.2byte	0x9d7
 5970 0b89 00       		.byte	0
 5971 0b8a 14       		.uleb128 0x14
 5972 0b8b 2B080000 		.4byte	.LASF161
 5973 0b8f 16       		.byte	0x16
 5974 0b90 4F       		.byte	0x4f
 5975 0b91 0D       		.byte	0xd
 5976 0b92 960B0000 		.4byte	0xb96
 5977 0b96 04       		.uleb128 0x4
 5978 0b97 01       		.byte	0x1
 5979 0b98 02       		.byte	0x2
 5980 0b99 16030000 		.4byte	.LASF162
 5981 0b9d 18       		.uleb128 0x18
 5982 0b9e A1020000 		.4byte	0x2a1
 5983 0ba2 AD0B0000 		.4byte	0xbad
 5984 0ba6 19       		.uleb128 0x19
 5985 0ba7 38000000 		.4byte	0x38
 5986 0bab 04       		.byte	0x4
 5987 0bac 00       		.byte	0
 5988 0bad 14       		.uleb128 0x14
 5989 0bae 97080000 		.4byte	.LASF163
 5990 0bb2 16       		.byte	0x16
 5991 0bb3 A7       		.byte	0xa7
 5992 0bb4 12       		.byte	0x12
 5993 0bb5 9D0B0000 		.4byte	0xb9d
 5994 0bb9 14       		.uleb128 0x14
 5995 0bba 04020000 		.4byte	.LASF164
 5996 0bbe 16       		.byte	0x16
 5997 0bbf A8       		.byte	0xa8
 5998 0bc0 1B       		.byte	0x1b
 5999 0bc1 530B0000 		.4byte	0xb53
 6000 0bc5 18       		.uleb128 0x18
 6001 0bc6 95030000 		.4byte	0x395
 6002 0bca D00B0000 		.4byte	0xbd0
 6003 0bce 23       		.uleb128 0x23
 6004 0bcf 00       		.byte	0
 6005 0bd0 0B       		.uleb128 0xb
 6006 0bd1 C50B0000 		.4byte	0xbc5
 6007 0bd5 24       		.uleb128 0x24
 6008 0bd6 776100   		.ascii	"wa\000"
ARM GAS  /tmp/ccqhiTbD.s 			page 107


 6009 0bd9 16       		.byte	0x16
 6010 0bda A9       		.byte	0xa9
 6011 0bdb 18       		.byte	0x18
 6012 0bdc D00B0000 		.4byte	0xbd0
 6013 0be0 14       		.uleb128 0x14
 6014 0be1 ED030000 		.4byte	.LASF165
 6015 0be5 16       		.byte	0x16
 6016 0be6 AA       		.byte	0xaa
 6017 0be7 0D       		.byte	0xd
 6018 0be8 960B0000 		.4byte	0xb96
 6019 0bec 25       		.uleb128 0x25
 6020 0bed 6D3100   		.ascii	"m1\000"
 6021 0bf0 01       		.byte	0x1
 6022 0bf1 44       		.byte	0x44
 6023 0bf2 08       		.byte	0x8
 6024 0bf3 710A0000 		.4byte	0xa71
 6025 0bf7 05       		.uleb128 0x5
 6026 0bf8 03       		.byte	0x3
 6027 0bf9 00000000 		.4byte	m1
 6028 0bfd 25       		.uleb128 0x25
 6029 0bfe 6D3200   		.ascii	"m2\000"
 6030 0c01 01       		.byte	0x1
 6031 0c02 45       		.byte	0x45
 6032 0c03 08       		.byte	0x8
 6033 0c04 710A0000 		.4byte	0xa71
 6034 0c08 05       		.uleb128 0x5
 6035 0c09 03       		.byte	0x3
 6036 0c0a 00000000 		.4byte	m2
 6037 0c0e 25       		.uleb128 0x25
 6038 0c0f 633100   		.ascii	"c1\000"
 6039 0c12 01       		.byte	0x1
 6040 0c13 47       		.byte	0x47
 6041 0c14 08       		.byte	0x8
 6042 0c15 9E0A0000 		.4byte	0xa9e
 6043 0c19 05       		.uleb128 0x5
 6044 0c1a 03       		.byte	0x3
 6045 0c1b 00000000 		.4byte	c1
 6046 0c1f 26       		.uleb128 0x26
 6047 0c20 6B090000 		.4byte	.LASF166
 6048 0c24 01       		.byte	0x1
 6049 0c25 6F       		.byte	0x6f
 6050 0c26 1A       		.byte	0x1a
 6051 0c27 EC0A0000 		.4byte	0xaec
 6052 0c2b 05       		.uleb128 0x5
 6053 0c2c 03       		.byte	0x3
 6054 0c2d 00000000 		.4byte	testmtx1
 6055 0c31 26       		.uleb128 0x26
 6056 0c32 74090000 		.4byte	.LASF167
 6057 0c36 01       		.byte	0x1
 6058 0c37 C7       		.byte	0xc7
 6059 0c38 1A       		.byte	0x1a
 6060 0c39 EC0A0000 		.4byte	0xaec
 6061 0c3d 05       		.uleb128 0x5
 6062 0c3e 03       		.byte	0x3
 6063 0c3f 00000000 		.4byte	testmtx2
 6064 0c43 27       		.uleb128 0x27
 6065 0c44 7D090000 		.4byte	.LASF168
ARM GAS  /tmp/ccqhiTbD.s 			page 108


 6066 0c48 01       		.byte	0x1
 6067 0c49 3A01     		.2byte	0x13a
 6068 0c4b 1A       		.byte	0x1a
 6069 0c4c EC0A0000 		.4byte	0xaec
 6070 0c50 05       		.uleb128 0x5
 6071 0c51 03       		.byte	0x3
 6072 0c52 00000000 		.4byte	testmtx3
 6073 0c56 27       		.uleb128 0x27
 6074 0c57 86090000 		.4byte	.LASF169
 6075 0c5b 01       		.byte	0x1
 6076 0c5c 9101     		.2byte	0x191
 6077 0c5e 1A       		.byte	0x1a
 6078 0c5f EC0A0000 		.4byte	0xaec
 6079 0c63 05       		.uleb128 0x5
 6080 0c64 03       		.byte	0x3
 6081 0c65 00000000 		.4byte	testmtx4
 6082 0c69 27       		.uleb128 0x27
 6083 0c6a 8F090000 		.4byte	.LASF170
 6084 0c6e 01       		.byte	0x1
 6085 0c6f C201     		.2byte	0x1c2
 6086 0c71 1A       		.byte	0x1a
 6087 0c72 EC0A0000 		.4byte	0xaec
 6088 0c76 05       		.uleb128 0x5
 6089 0c77 03       		.byte	0x3
 6090 0c78 00000000 		.4byte	testmtx5
 6091 0c7c 27       		.uleb128 0x27
 6092 0c7d 98090000 		.4byte	.LASF171
 6093 0c81 01       		.byte	0x1
 6094 0c82 F701     		.2byte	0x1f7
 6095 0c84 1A       		.byte	0x1a
 6096 0c85 EC0A0000 		.4byte	0xaec
 6097 0c89 05       		.uleb128 0x5
 6098 0c8a 03       		.byte	0x3
 6099 0c8b 00000000 		.4byte	testmtx6
 6100 0c8f 27       		.uleb128 0x27
 6101 0c90 A1090000 		.4byte	.LASF172
 6102 0c94 01       		.byte	0x1
 6103 0c95 1B02     		.2byte	0x21b
 6104 0c97 1A       		.byte	0x1a
 6105 0c98 EC0A0000 		.4byte	0xaec
 6106 0c9c 05       		.uleb128 0x5
 6107 0c9d 03       		.byte	0x3
 6108 0c9e 00000000 		.4byte	testmtx7
 6109 0ca2 27       		.uleb128 0x27
 6110 0ca3 AA090000 		.4byte	.LASF173
 6111 0ca7 01       		.byte	0x1
 6112 0ca8 5302     		.2byte	0x253
 6113 0caa 1A       		.byte	0x1a
 6114 0cab EC0A0000 		.4byte	0xaec
 6115 0caf 05       		.uleb128 0x5
 6116 0cb0 03       		.byte	0x3
 6117 0cb1 00000000 		.4byte	testmtx8
 6118 0cb5 18       		.uleb128 0x18
 6119 0cb6 D00C0000 		.4byte	0xcd0
 6120 0cba C50C0000 		.4byte	0xcc5
 6121 0cbe 19       		.uleb128 0x19
 6122 0cbf 38000000 		.4byte	0x38
ARM GAS  /tmp/ccqhiTbD.s 			page 109


 6123 0cc3 08       		.byte	0x8
 6124 0cc4 00       		.byte	0
 6125 0cc5 0B       		.uleb128 0xb
 6126 0cc6 B50C0000 		.4byte	0xcb5
 6127 0cca 0A       		.uleb128 0xa
 6128 0ccb 04       		.byte	0x4
 6129 0ccc EC0A0000 		.4byte	0xaec
 6130 0cd0 0B       		.uleb128 0xb
 6131 0cd1 CA0C0000 		.4byte	0xcca
 6132 0cd5 27       		.uleb128 0x27
 6133 0cd6 DF060000 		.4byte	.LASF174
 6134 0cda 01       		.byte	0x1
 6135 0cdb 5F02     		.2byte	0x25f
 6136 0cdd 25       		.byte	0x25
 6137 0cde C50C0000 		.4byte	0xcc5
 6138 0ce2 05       		.uleb128 0x5
 6139 0ce3 03       		.byte	0x3
 6140 0ce4 00000000 		.4byte	patternmtx
 6141 0ce8 28       		.uleb128 0x28
 6142 0ce9 86040000 		.4byte	.LASF176
 6143 0ced 01       		.byte	0x1
 6144 0cee 4702     		.2byte	0x247
 6145 0cf0 0D       		.byte	0xd
 6146 0cf1 00000000 		.4byte	.LFB248
 6147 0cf5 B8000000 		.4byte	.LFE248-.LFB248
 6148 0cf9 01       		.uleb128 0x1
 6149 0cfa 9C       		.byte	0x9c
 6150 0cfb 380E0000 		.4byte	0xe38
 6151 0cff 29       		.uleb128 0x29
 6152 0d00 4D010000 		.4byte	.LASF175
 6153 0d04 01       		.byte	0x1
 6154 0d05 4902     		.2byte	0x249
 6155 0d07 0B       		.byte	0xb
 6156 0d08 07010000 		.4byte	0x107
 6157 0d0c 04000000 		.4byte	.LLST20
 6158 0d10 00000000 		.4byte	.LVUS20
 6159 0d14 2A       		.uleb128 0x2a
 6160 0d15 B62A0000 		.4byte	0x2ab6
 6161 0d19 20000000 		.4byte	.LBI351
 6162 0d1d 01       		.byte	.LVU508
 6163 0d1e 28010000 		.4byte	.Ldebug_ranges0+0x128
 6164 0d22 01       		.byte	0x1
 6165 0d23 4902     		.2byte	0x249
 6166 0d25 12       		.byte	0x12
 6167 0d26 3C0D0000 		.4byte	0xd3c
 6168 0d2a 2B       		.uleb128 0x2b
 6169 0d2b C32A0000 		.4byte	0x2ac3
 6170 0d2f 20000000 		.4byte	.LBI353
 6171 0d33 03       		.byte	.LVU510
 6172 0d34 50010000 		.4byte	.Ldebug_ranges0+0x150
 6173 0d38 02       		.byte	0x2
 6174 0d39 BD       		.byte	0xbd
 6175 0d3a 0A       		.byte	0xa
 6176 0d3b 00       		.byte	0
 6177 0d3c 2C       		.uleb128 0x2c
 6178 0d3d 2A000000 		.4byte	.LVL184
 6179 0d41 292C0000 		.4byte	0x2c29
ARM GAS  /tmp/ccqhiTbD.s 			page 110


 6180 0d45 710D0000 		.4byte	0xd71
 6181 0d49 2D       		.uleb128 0x2d
 6182 0d4a 01       		.uleb128 0x1
 6183 0d4b 50       		.byte	0x50
 6184 0d4c 03       		.uleb128 0x3
 6185 0d4d 76       		.byte	0x76
 6186 0d4e 00       		.sleb128 0
 6187 0d4f 06       		.byte	0x6
 6188 0d50 2D       		.uleb128 0x2d
 6189 0d51 01       		.uleb128 0x1
 6190 0d52 51       		.byte	0x51
 6191 0d53 03       		.uleb128 0x3
 6192 0d54 0A       		.byte	0xa
 6193 0d55 F801     		.2byte	0x1f8
 6194 0d57 2D       		.uleb128 0x2d
 6195 0d58 01       		.uleb128 0x1
 6196 0d59 52       		.byte	0x52
 6197 0d5a 02       		.uleb128 0x2
 6198 0d5b 75       		.byte	0x75
 6199 0d5c 01       		.sleb128 1
 6200 0d5d 2D       		.uleb128 0x2d
 6201 0d5e 01       		.uleb128 0x1
 6202 0d5f 53       		.byte	0x53
 6203 0d60 05       		.uleb128 0x5
 6204 0d61 03       		.byte	0x3
 6205 0d62 00000000 		.4byte	thread11
 6206 0d66 2D       		.uleb128 0x2d
 6207 0d67 02       		.uleb128 0x2
 6208 0d68 7D       		.byte	0x7d
 6209 0d69 00       		.sleb128 0
 6210 0d6a 05       		.uleb128 0x5
 6211 0d6b 03       		.byte	0x3
 6212 0d6c 10000000 		.4byte	.LC4
 6213 0d70 00       		.byte	0
 6214 0d71 2C       		.uleb128 0x2c
 6215 0d72 40000000 		.4byte	.LVL185
 6216 0d76 292C0000 		.4byte	0x2c29
 6217 0d7a A60D0000 		.4byte	0xda6
 6218 0d7e 2D       		.uleb128 0x2d
 6219 0d7f 01       		.uleb128 0x1
 6220 0d80 50       		.byte	0x50
 6221 0d81 03       		.uleb128 0x3
 6222 0d82 76       		.byte	0x76
 6223 0d83 04       		.sleb128 4
 6224 0d84 06       		.byte	0x6
 6225 0d85 2D       		.uleb128 0x2d
 6226 0d86 01       		.uleb128 0x1
 6227 0d87 51       		.byte	0x51
 6228 0d88 03       		.uleb128 0x3
 6229 0d89 0A       		.byte	0xa
 6230 0d8a F801     		.2byte	0x1f8
 6231 0d8c 2D       		.uleb128 0x2d
 6232 0d8d 01       		.uleb128 0x1
 6233 0d8e 52       		.byte	0x52
 6234 0d8f 02       		.uleb128 0x2
 6235 0d90 75       		.byte	0x75
 6236 0d91 02       		.sleb128 2
ARM GAS  /tmp/ccqhiTbD.s 			page 111


 6237 0d92 2D       		.uleb128 0x2d
 6238 0d93 01       		.uleb128 0x1
 6239 0d94 53       		.byte	0x53
 6240 0d95 05       		.uleb128 0x5
 6241 0d96 03       		.byte	0x3
 6242 0d97 00000000 		.4byte	thread10
 6243 0d9b 2D       		.uleb128 0x2d
 6244 0d9c 02       		.uleb128 0x2
 6245 0d9d 7D       		.byte	0x7d
 6246 0d9e 00       		.sleb128 0
 6247 0d9f 05       		.uleb128 0x5
 6248 0da0 03       		.byte	0x3
 6249 0da1 08000000 		.4byte	.LC2
 6250 0da5 00       		.byte	0
 6251 0da6 2C       		.uleb128 0x2c
 6252 0da7 56000000 		.4byte	.LVL186
 6253 0dab 292C0000 		.4byte	0x2c29
 6254 0daf DB0D0000 		.4byte	0xddb
 6255 0db3 2D       		.uleb128 0x2d
 6256 0db4 01       		.uleb128 0x1
 6257 0db5 50       		.byte	0x50
 6258 0db6 03       		.uleb128 0x3
 6259 0db7 76       		.byte	0x76
 6260 0db8 08       		.sleb128 8
 6261 0db9 06       		.byte	0x6
 6262 0dba 2D       		.uleb128 0x2d
 6263 0dbb 01       		.uleb128 0x1
 6264 0dbc 51       		.byte	0x51
 6265 0dbd 03       		.uleb128 0x3
 6266 0dbe 0A       		.byte	0xa
 6267 0dbf F801     		.2byte	0x1f8
 6268 0dc1 2D       		.uleb128 0x2d
 6269 0dc2 01       		.uleb128 0x1
 6270 0dc3 52       		.byte	0x52
 6271 0dc4 02       		.uleb128 0x2
 6272 0dc5 75       		.byte	0x75
 6273 0dc6 03       		.sleb128 3
 6274 0dc7 2D       		.uleb128 0x2d
 6275 0dc8 01       		.uleb128 0x1
 6276 0dc9 53       		.byte	0x53
 6277 0dca 05       		.uleb128 0x5
 6278 0dcb 03       		.byte	0x3
 6279 0dcc 00000000 		.4byte	thread12
 6280 0dd0 2D       		.uleb128 0x2d
 6281 0dd1 02       		.uleb128 0x2
 6282 0dd2 7D       		.byte	0x7d
 6283 0dd3 00       		.sleb128 0
 6284 0dd4 05       		.uleb128 0x5
 6285 0dd5 03       		.byte	0x3
 6286 0dd6 0C000000 		.4byte	.LC3
 6287 0dda 00       		.byte	0
 6288 0ddb 2C       		.uleb128 0x2c
 6289 0ddc 60000000 		.4byte	.LVL187
 6290 0de0 352C0000 		.4byte	0x2c35
 6291 0de4 F20D0000 		.4byte	0xdf2
 6292 0de8 2D       		.uleb128 0x2d
 6293 0de9 01       		.uleb128 0x1
ARM GAS  /tmp/ccqhiTbD.s 			page 112


 6294 0dea 50       		.byte	0x50
 6295 0deb 05       		.uleb128 0x5
 6296 0dec 03       		.byte	0x3
 6297 0ded 00000000 		.4byte	.LANCHOR3
 6298 0df1 00       		.byte	0
 6299 0df2 2C       		.uleb128 0x2c
 6300 0df3 66000000 		.4byte	.LVL188
 6301 0df7 352C0000 		.4byte	0x2c35
 6302 0dfb 090E0000 		.4byte	0xe09
 6303 0dff 2D       		.uleb128 0x2d
 6304 0e00 01       		.uleb128 0x1
 6305 0e01 50       		.byte	0x50
 6306 0e02 05       		.uleb128 0x5
 6307 0e03 03       		.byte	0x3
 6308 0e04 00000000 		.4byte	.LANCHOR3
 6309 0e08 00       		.byte	0
 6310 0e09 2E       		.uleb128 0x2e
 6311 0e0a 6A000000 		.4byte	.LVL189
 6312 0e0e 412C0000 		.4byte	0x2c41
 6313 0e12 2F       		.uleb128 0x2f
 6314 0e13 82000000 		.4byte	.LVL191
 6315 0e17 4D2C0000 		.4byte	0x2c4d
 6316 0e1b 2E0E0000 		.4byte	0xe2e
 6317 0e1f 2D       		.uleb128 0x2d
 6318 0e20 01       		.uleb128 0x1
 6319 0e21 50       		.byte	0x50
 6320 0e22 01       		.uleb128 0x1
 6321 0e23 31       		.byte	0x31
 6322 0e24 2D       		.uleb128 0x2d
 6323 0e25 01       		.uleb128 0x1
 6324 0e26 51       		.byte	0x51
 6325 0e27 05       		.uleb128 0x5
 6326 0e28 03       		.byte	0x3
 6327 0e29 00000000 		.4byte	.LC30
 6328 0e2d 00       		.byte	0
 6329 0e2e 2E       		.uleb128 0x2e
 6330 0e2f 86000000 		.4byte	.LVL192
 6331 0e33 592C0000 		.4byte	0x2c59
 6332 0e37 00       		.byte	0
 6333 0e38 28       		.uleb128 0x28
 6334 0e39 1F010000 		.4byte	.LASF177
 6335 0e3d 01       		.byte	0x1
 6336 0e3e 4002     		.2byte	0x240
 6337 0e40 08       		.byte	0x8
 6338 0e41 00000000 		.4byte	.LFB247
 6339 0e45 40000000 		.4byte	.LFE247-.LFB247
 6340 0e49 01       		.uleb128 0x1
 6341 0e4a 9C       		.byte	0x9c
 6342 0e4b A30E0000 		.4byte	0xea3
 6343 0e4f 30       		.uleb128 0x30
 6344 0e50 7000     		.ascii	"p\000"
 6345 0e52 01       		.byte	0x1
 6346 0e53 4002     		.2byte	0x240
 6347 0e55 08       		.byte	0x8
 6348 0e56 93030000 		.4byte	0x393
 6349 0e5a 2A000000 		.4byte	.LLST2
 6350 0e5e 22000000 		.4byte	.LVUS2
ARM GAS  /tmp/ccqhiTbD.s 			page 113


 6351 0e62 2C       		.uleb128 0x2c
 6352 0e63 16000000 		.4byte	.LVL23
 6353 0e67 622C0000 		.4byte	0x2c62
 6354 0e6b 790E0000 		.4byte	0xe79
 6355 0e6f 2D       		.uleb128 0x2d
 6356 0e70 01       		.uleb128 0x1
 6357 0e71 50       		.byte	0x50
 6358 0e72 05       		.uleb128 0x5
 6359 0e73 03       		.byte	0x3
 6360 0e74 00000000 		.4byte	.LANCHOR1
 6361 0e78 00       		.byte	0
 6362 0e79 2E       		.uleb128 0x2e
 6363 0e7a 1C000000 		.4byte	.LVL24
 6364 0e7e 6E2C0000 		.4byte	0x2c6e
 6365 0e82 2F       		.uleb128 0x2f
 6366 0e83 32000000 		.4byte	.LVL26
 6367 0e87 7A2C0000 		.4byte	0x2c7a
 6368 0e8b 990E0000 		.4byte	0xe99
 6369 0e8f 2D       		.uleb128 0x2d
 6370 0e90 01       		.uleb128 0x1
 6371 0e91 50       		.byte	0x50
 6372 0e92 05       		.uleb128 0x5
 6373 0e93 03       		.byte	0x3
 6374 0e94 00000000 		.4byte	.LANCHOR1
 6375 0e98 00       		.byte	0
 6376 0e99 2E       		.uleb128 0x2e
 6377 0e9a 36000000 		.4byte	.LVL27
 6378 0e9e 592C0000 		.4byte	0x2c59
 6379 0ea2 00       		.byte	0
 6380 0ea3 28       		.uleb128 0x28
 6381 0ea4 16010000 		.4byte	.LASF178
 6382 0ea8 01       		.byte	0x1
 6383 0ea9 3202     		.2byte	0x232
 6384 0eab 08       		.byte	0x8
 6385 0eac 00000000 		.4byte	.LFB246
 6386 0eb0 5C000000 		.4byte	.LFE246-.LFB246
 6387 0eb4 01       		.uleb128 0x1
 6388 0eb5 9C       		.byte	0x9c
 6389 0eb6 590F0000 		.4byte	0xf59
 6390 0eba 30       		.uleb128 0x30
 6391 0ebb 7000     		.ascii	"p\000"
 6392 0ebd 01       		.byte	0x1
 6393 0ebe 3202     		.2byte	0x232
 6394 0ec0 08       		.byte	0x8
 6395 0ec1 93030000 		.4byte	0x393
 6396 0ec5 69000000 		.4byte	.LLST21
 6397 0ec9 61000000 		.4byte	.LVUS21
 6398 0ecd 2C       		.uleb128 0x2c
 6399 0ece 16000000 		.4byte	.LVL195
 6400 0ed2 622C0000 		.4byte	0x2c62
 6401 0ed6 E40E0000 		.4byte	0xee4
 6402 0eda 2D       		.uleb128 0x2d
 6403 0edb 01       		.uleb128 0x1
 6404 0edc 50       		.byte	0x50
 6405 0edd 05       		.uleb128 0x5
 6406 0ede 03       		.byte	0x3
 6407 0edf 00000000 		.4byte	.LANCHOR1
ARM GAS  /tmp/ccqhiTbD.s 			page 114


 6408 0ee3 00       		.byte	0
 6409 0ee4 2C       		.uleb128 0x2c
 6410 0ee5 1C000000 		.4byte	.LVL196
 6411 0ee9 622C0000 		.4byte	0x2c62
 6412 0eed FB0E0000 		.4byte	0xefb
 6413 0ef1 2D       		.uleb128 0x2d
 6414 0ef2 01       		.uleb128 0x1
 6415 0ef3 50       		.byte	0x50
 6416 0ef4 05       		.uleb128 0x5
 6417 0ef5 03       		.byte	0x3
 6418 0ef6 00000000 		.4byte	.LANCHOR0
 6419 0efa 00       		.byte	0
 6420 0efb 2C       		.uleb128 0x2c
 6421 0efc 26000000 		.4byte	.LVL197
 6422 0f00 862C0000 		.4byte	0x2c86
 6423 0f04 180F0000 		.4byte	0xf18
 6424 0f08 2D       		.uleb128 0x2d
 6425 0f09 01       		.uleb128 0x1
 6426 0f0a 50       		.byte	0x50
 6427 0f0b 05       		.uleb128 0x5
 6428 0f0c 03       		.byte	0x3
 6429 0f0d 00000000 		.4byte	.LANCHOR3
 6430 0f11 2D       		.uleb128 0x2d
 6431 0f12 01       		.uleb128 0x1
 6432 0f13 51       		.byte	0x51
 6433 0f14 02       		.uleb128 0x2
 6434 0f15 09       		.byte	0x9
 6435 0f16 FF       		.byte	0xff
 6436 0f17 00       		.byte	0
 6437 0f18 2E       		.uleb128 0x2e
 6438 0f19 2C000000 		.4byte	.LVL198
 6439 0f1d 6E2C0000 		.4byte	0x2c6e
 6440 0f21 2C       		.uleb128 0x2c
 6441 0f22 32000000 		.4byte	.LVL199
 6442 0f26 7A2C0000 		.4byte	0x2c7a
 6443 0f2a 380F0000 		.4byte	0xf38
 6444 0f2e 2D       		.uleb128 0x2d
 6445 0f2f 01       		.uleb128 0x1
 6446 0f30 50       		.byte	0x50
 6447 0f31 05       		.uleb128 0x5
 6448 0f32 03       		.byte	0x3
 6449 0f33 00000000 		.4byte	.LANCHOR0
 6450 0f37 00       		.byte	0
 6451 0f38 2F       		.uleb128 0x2f
 6452 0f39 48000000 		.4byte	.LVL201
 6453 0f3d 7A2C0000 		.4byte	0x2c7a
 6454 0f41 4F0F0000 		.4byte	0xf4f
 6455 0f45 2D       		.uleb128 0x2d
 6456 0f46 01       		.uleb128 0x1
 6457 0f47 50       		.byte	0x50
 6458 0f48 05       		.uleb128 0x5
 6459 0f49 03       		.byte	0x3
 6460 0f4a 00000000 		.4byte	.LANCHOR1
 6461 0f4e 00       		.byte	0
 6462 0f4f 2E       		.uleb128 0x2e
 6463 0f50 4C000000 		.4byte	.LVL202
 6464 0f54 592C0000 		.4byte	0x2c59
ARM GAS  /tmp/ccqhiTbD.s 			page 115


 6465 0f58 00       		.byte	0
 6466 0f59 28       		.uleb128 0x28
 6467 0f5a 81070000 		.4byte	.LASF179
 6468 0f5e 01       		.byte	0x1
 6469 0f5f 2B02     		.2byte	0x22b
 6470 0f61 0D       		.byte	0xd
 6471 0f62 00000000 		.4byte	.LFB245
 6472 0f66 44000000 		.4byte	.LFE245-.LFB245
 6473 0f6a 01       		.uleb128 0x1
 6474 0f6b 9C       		.byte	0x9c
 6475 0f6c BF0F0000 		.4byte	0xfbf
 6476 0f70 2C       		.uleb128 0x2c
 6477 0f71 14000000 		.4byte	.LVL168
 6478 0f75 922C0000 		.4byte	0x2c92
 6479 0f79 870F0000 		.4byte	0xf87
 6480 0f7d 2D       		.uleb128 0x2d
 6481 0f7e 01       		.uleb128 0x1
 6482 0f7f 50       		.byte	0x50
 6483 0f80 05       		.uleb128 0x5
 6484 0f81 03       		.byte	0x3
 6485 0f82 00000000 		.4byte	.LANCHOR3
 6486 0f86 00       		.byte	0
 6487 0f87 2C       		.uleb128 0x2c
 6488 0f88 1A000000 		.4byte	.LVL169
 6489 0f8c 9E2C0000 		.4byte	0x2c9e
 6490 0f90 9E0F0000 		.4byte	0xf9e
 6491 0f94 2D       		.uleb128 0x2d
 6492 0f95 01       		.uleb128 0x1
 6493 0f96 50       		.byte	0x50
 6494 0f97 05       		.uleb128 0x5
 6495 0f98 03       		.byte	0x3
 6496 0f99 00000000 		.4byte	.LANCHOR0
 6497 0f9d 00       		.byte	0
 6498 0f9e 2F       		.uleb128 0x2f
 6499 0f9f 30000000 		.4byte	.LVL170
 6500 0fa3 9E2C0000 		.4byte	0x2c9e
 6501 0fa7 B50F0000 		.4byte	0xfb5
 6502 0fab 2D       		.uleb128 0x2d
 6503 0fac 01       		.uleb128 0x1
 6504 0fad 50       		.byte	0x50
 6505 0fae 05       		.uleb128 0x5
 6506 0faf 03       		.byte	0x3
 6507 0fb0 00000000 		.4byte	.LANCHOR1
 6508 0fb4 00       		.byte	0
 6509 0fb5 2E       		.uleb128 0x2e
 6510 0fb6 34000000 		.4byte	.LVL171
 6511 0fba 592C0000 		.4byte	0x2c59
 6512 0fbe 00       		.byte	0
 6513 0fbf 28       		.uleb128 0x28
 6514 0fc0 E4000000 		.4byte	.LASF180
 6515 0fc4 01       		.byte	0x1
 6516 0fc5 0E02     		.2byte	0x20e
 6517 0fc7 0D       		.byte	0xd
 6518 0fc8 00000000 		.4byte	.LFB244
 6519 0fcc DC000000 		.4byte	.LFE244-.LFB244
 6520 0fd0 01       		.uleb128 0x1
 6521 0fd1 9C       		.byte	0x9c
ARM GAS  /tmp/ccqhiTbD.s 			page 116


 6522 0fd2 62110000 		.4byte	0x1162
 6523 0fd6 29       		.uleb128 0x29
 6524 0fd7 4D010000 		.4byte	.LASF175
 6525 0fdb 01       		.byte	0x1
 6526 0fdc 1002     		.2byte	0x210
 6527 0fde 0B       		.byte	0xb
 6528 0fdf 07010000 		.4byte	0x107
 6529 0fe3 A4000000 		.4byte	.LLST19
 6530 0fe7 A0000000 		.4byte	.LVUS19
 6531 0feb 2A       		.uleb128 0x2a
 6532 0fec B62A0000 		.4byte	0x2ab6
 6533 0ff0 20000000 		.4byte	.LBI339
 6534 0ff4 01       		.byte	.LVU457
 6535 0ff5 E8000000 		.4byte	.Ldebug_ranges0+0xe8
 6536 0ff9 01       		.byte	0x1
 6537 0ffa 1002     		.2byte	0x210
 6538 0ffc 12       		.byte	0x12
 6539 0ffd 13100000 		.4byte	0x1013
 6540 1001 2B       		.uleb128 0x2b
 6541 1002 C32A0000 		.4byte	0x2ac3
 6542 1006 20000000 		.4byte	.LBI341
 6543 100a 03       		.byte	.LVU459
 6544 100b 10010000 		.4byte	.Ldebug_ranges0+0x110
 6545 100f 02       		.byte	0x2
 6546 1010 BD       		.byte	0xbd
 6547 1011 0A       		.byte	0xa
 6548 1012 00       		.byte	0
 6549 1013 2C       		.uleb128 0x2c
 6550 1014 2A000000 		.4byte	.LVL173
 6551 1018 292C0000 		.4byte	0x2c29
 6552 101c 48100000 		.4byte	0x1048
 6553 1020 2D       		.uleb128 0x2d
 6554 1021 01       		.uleb128 0x1
 6555 1022 50       		.byte	0x50
 6556 1023 03       		.uleb128 0x3
 6557 1024 76       		.byte	0x76
 6558 1025 00       		.sleb128 0
 6559 1026 06       		.byte	0x6
 6560 1027 2D       		.uleb128 0x2d
 6561 1028 01       		.uleb128 0x1
 6562 1029 51       		.byte	0x51
 6563 102a 03       		.uleb128 0x3
 6564 102b 0A       		.byte	0xa
 6565 102c F801     		.2byte	0x1f8
 6566 102e 2D       		.uleb128 0x2d
 6567 102f 01       		.uleb128 0x1
 6568 1030 52       		.byte	0x52
 6569 1031 02       		.uleb128 0x2
 6570 1032 75       		.byte	0x75
 6571 1033 01       		.sleb128 1
 6572 1034 2D       		.uleb128 0x2d
 6573 1035 01       		.uleb128 0x1
 6574 1036 53       		.byte	0x53
 6575 1037 05       		.uleb128 0x5
 6576 1038 03       		.byte	0x3
 6577 1039 00000000 		.4byte	thread10
 6578 103d 2D       		.uleb128 0x2d
ARM GAS  /tmp/ccqhiTbD.s 			page 117


 6579 103e 02       		.uleb128 0x2
 6580 103f 7D       		.byte	0x7d
 6581 1040 00       		.sleb128 0
 6582 1041 05       		.uleb128 0x5
 6583 1042 03       		.byte	0x3
 6584 1043 00000000 		.4byte	.LC0
 6585 1047 00       		.byte	0
 6586 1048 2C       		.uleb128 0x2c
 6587 1049 40000000 		.4byte	.LVL174
 6588 104d 292C0000 		.4byte	0x2c29
 6589 1051 7D100000 		.4byte	0x107d
 6590 1055 2D       		.uleb128 0x2d
 6591 1056 01       		.uleb128 0x1
 6592 1057 50       		.byte	0x50
 6593 1058 03       		.uleb128 0x3
 6594 1059 76       		.byte	0x76
 6595 105a 04       		.sleb128 4
 6596 105b 06       		.byte	0x6
 6597 105c 2D       		.uleb128 0x2d
 6598 105d 01       		.uleb128 0x1
 6599 105e 51       		.byte	0x51
 6600 105f 03       		.uleb128 0x3
 6601 1060 0A       		.byte	0xa
 6602 1061 F801     		.2byte	0x1f8
 6603 1063 2D       		.uleb128 0x2d
 6604 1064 01       		.uleb128 0x1
 6605 1065 52       		.byte	0x52
 6606 1066 02       		.uleb128 0x2
 6607 1067 75       		.byte	0x75
 6608 1068 02       		.sleb128 2
 6609 1069 2D       		.uleb128 0x2d
 6610 106a 01       		.uleb128 0x1
 6611 106b 53       		.byte	0x53
 6612 106c 05       		.uleb128 0x5
 6613 106d 03       		.byte	0x3
 6614 106e 00000000 		.4byte	thread10
 6615 1072 2D       		.uleb128 0x2d
 6616 1073 02       		.uleb128 0x2
 6617 1074 7D       		.byte	0x7d
 6618 1075 00       		.sleb128 0
 6619 1076 05       		.uleb128 0x5
 6620 1077 03       		.byte	0x3
 6621 1078 04000000 		.4byte	.LC1
 6622 107c 00       		.byte	0
 6623 107d 2C       		.uleb128 0x2c
 6624 107e 56000000 		.4byte	.LVL175
 6625 1082 292C0000 		.4byte	0x2c29
 6626 1086 B2100000 		.4byte	0x10b2
 6627 108a 2D       		.uleb128 0x2d
 6628 108b 01       		.uleb128 0x1
 6629 108c 50       		.byte	0x50
 6630 108d 03       		.uleb128 0x3
 6631 108e 76       		.byte	0x76
 6632 108f 08       		.sleb128 8
 6633 1090 06       		.byte	0x6
 6634 1091 2D       		.uleb128 0x2d
 6635 1092 01       		.uleb128 0x1
ARM GAS  /tmp/ccqhiTbD.s 			page 118


 6636 1093 51       		.byte	0x51
 6637 1094 03       		.uleb128 0x3
 6638 1095 0A       		.byte	0xa
 6639 1096 F801     		.2byte	0x1f8
 6640 1098 2D       		.uleb128 0x2d
 6641 1099 01       		.uleb128 0x1
 6642 109a 52       		.byte	0x52
 6643 109b 02       		.uleb128 0x2
 6644 109c 75       		.byte	0x75
 6645 109d 03       		.sleb128 3
 6646 109e 2D       		.uleb128 0x2d
 6647 109f 01       		.uleb128 0x1
 6648 10a0 53       		.byte	0x53
 6649 10a1 05       		.uleb128 0x5
 6650 10a2 03       		.byte	0x3
 6651 10a3 00000000 		.4byte	thread10
 6652 10a7 2D       		.uleb128 0x2d
 6653 10a8 02       		.uleb128 0x2
 6654 10a9 7D       		.byte	0x7d
 6655 10aa 00       		.sleb128 0
 6656 10ab 05       		.uleb128 0x5
 6657 10ac 03       		.byte	0x3
 6658 10ad 08000000 		.4byte	.LC2
 6659 10b1 00       		.byte	0
 6660 10b2 2C       		.uleb128 0x2c
 6661 10b3 6C000000 		.4byte	.LVL176
 6662 10b7 292C0000 		.4byte	0x2c29
 6663 10bb E7100000 		.4byte	0x10e7
 6664 10bf 2D       		.uleb128 0x2d
 6665 10c0 01       		.uleb128 0x1
 6666 10c1 50       		.byte	0x50
 6667 10c2 03       		.uleb128 0x3
 6668 10c3 76       		.byte	0x76
 6669 10c4 0C       		.sleb128 12
 6670 10c5 06       		.byte	0x6
 6671 10c6 2D       		.uleb128 0x2d
 6672 10c7 01       		.uleb128 0x1
 6673 10c8 51       		.byte	0x51
 6674 10c9 03       		.uleb128 0x3
 6675 10ca 0A       		.byte	0xa
 6676 10cb F801     		.2byte	0x1f8
 6677 10cd 2D       		.uleb128 0x2d
 6678 10ce 01       		.uleb128 0x1
 6679 10cf 52       		.byte	0x52
 6680 10d0 02       		.uleb128 0x2
 6681 10d1 75       		.byte	0x75
 6682 10d2 04       		.sleb128 4
 6683 10d3 2D       		.uleb128 0x2d
 6684 10d4 01       		.uleb128 0x1
 6685 10d5 53       		.byte	0x53
 6686 10d6 05       		.uleb128 0x5
 6687 10d7 03       		.byte	0x3
 6688 10d8 00000000 		.4byte	thread10
 6689 10dc 2D       		.uleb128 0x2d
 6690 10dd 02       		.uleb128 0x2
 6691 10de 7D       		.byte	0x7d
 6692 10df 00       		.sleb128 0
ARM GAS  /tmp/ccqhiTbD.s 			page 119


 6693 10e0 05       		.uleb128 0x5
 6694 10e1 03       		.byte	0x3
 6695 10e2 0C000000 		.4byte	.LC3
 6696 10e6 00       		.byte	0
 6697 10e7 2C       		.uleb128 0x2c
 6698 10e8 82000000 		.4byte	.LVL177
 6699 10ec 292C0000 		.4byte	0x2c29
 6700 10f0 1C110000 		.4byte	0x111c
 6701 10f4 2D       		.uleb128 0x2d
 6702 10f5 01       		.uleb128 0x1
 6703 10f6 50       		.byte	0x50
 6704 10f7 03       		.uleb128 0x3
 6705 10f8 76       		.byte	0x76
 6706 10f9 10       		.sleb128 16
 6707 10fa 06       		.byte	0x6
 6708 10fb 2D       		.uleb128 0x2d
 6709 10fc 01       		.uleb128 0x1
 6710 10fd 51       		.byte	0x51
 6711 10fe 03       		.uleb128 0x3
 6712 10ff 0A       		.byte	0xa
 6713 1100 F801     		.2byte	0x1f8
 6714 1102 2D       		.uleb128 0x2d
 6715 1103 01       		.uleb128 0x1
 6716 1104 52       		.byte	0x52
 6717 1105 02       		.uleb128 0x2
 6718 1106 75       		.byte	0x75
 6719 1107 05       		.sleb128 5
 6720 1108 2D       		.uleb128 0x2d
 6721 1109 01       		.uleb128 0x1
 6722 110a 53       		.byte	0x53
 6723 110b 05       		.uleb128 0x5
 6724 110c 03       		.byte	0x3
 6725 110d 00000000 		.4byte	thread10
 6726 1111 2D       		.uleb128 0x2d
 6727 1112 02       		.uleb128 0x2
 6728 1113 7D       		.byte	0x7d
 6729 1114 00       		.sleb128 0
 6730 1115 05       		.uleb128 0x5
 6731 1116 03       		.byte	0x3
 6732 1117 10000000 		.4byte	.LC4
 6733 111b 00       		.byte	0
 6734 111c 2C       		.uleb128 0x2c
 6735 111d 8C000000 		.4byte	.LVL178
 6736 1121 AA2C0000 		.4byte	0x2caa
 6737 1125 33110000 		.4byte	0x1133
 6738 1129 2D       		.uleb128 0x2d
 6739 112a 01       		.uleb128 0x1
 6740 112b 50       		.byte	0x50
 6741 112c 05       		.uleb128 0x5
 6742 112d 03       		.byte	0x3
 6743 112e 00000000 		.4byte	.LANCHOR3
 6744 1132 00       		.byte	0
 6745 1133 2E       		.uleb128 0x2e
 6746 1134 90000000 		.4byte	.LVL179
 6747 1138 412C0000 		.4byte	0x2c41
 6748 113c 2F       		.uleb128 0x2f
 6749 113d A8000000 		.4byte	.LVL181
ARM GAS  /tmp/ccqhiTbD.s 			page 120


 6750 1141 4D2C0000 		.4byte	0x2c4d
 6751 1145 58110000 		.4byte	0x1158
 6752 1149 2D       		.uleb128 0x2d
 6753 114a 01       		.uleb128 0x1
 6754 114b 50       		.byte	0x50
 6755 114c 01       		.uleb128 0x1
 6756 114d 31       		.byte	0x31
 6757 114e 2D       		.uleb128 0x2d
 6758 114f 01       		.uleb128 0x1
 6759 1150 51       		.byte	0x51
 6760 1151 05       		.uleb128 0x5
 6761 1152 03       		.byte	0x3
 6762 1153 14000000 		.4byte	.LC5
 6763 1157 00       		.byte	0
 6764 1158 2E       		.uleb128 0x2e
 6765 1159 AC000000 		.4byte	.LVL182
 6766 115d 592C0000 		.4byte	0x2c59
 6767 1161 00       		.byte	0
 6768 1162 31       		.uleb128 0x31
 6769 1163 78030000 		.4byte	.LASF184
 6770 1167 01       		.byte	0x1
 6771 1168 0802     		.2byte	0x208
 6772 116a 0D       		.byte	0xd
 6773 116b 28       		.uleb128 0x28
 6774 116c 51090000 		.4byte	.LASF181
 6775 1170 01       		.byte	0x1
 6776 1171 E301     		.2byte	0x1e3
 6777 1173 0D       		.byte	0xd
 6778 1174 00000000 		.4byte	.LFB242
 6779 1178 30010000 		.4byte	.LFE242-.LFB242
 6780 117c 01       		.uleb128 0x1
 6781 117d 9C       		.byte	0x9c
 6782 117e 50140000 		.4byte	0x1450
 6783 1182 29       		.uleb128 0x29
 6784 1183 4D010000 		.4byte	.LASF175
 6785 1187 01       		.byte	0x1
 6786 1188 E501     		.2byte	0x1e5
 6787 118a 0B       		.byte	0xb
 6788 118b 07010000 		.4byte	0x107
 6789 118f C6000000 		.4byte	.LLST27
 6790 1193 C2000000 		.4byte	.LVUS27
 6791 1197 2A       		.uleb128 0x2a
 6792 1198 B62A0000 		.4byte	0x2ab6
 6793 119c 20000000 		.4byte	.LBI463
 6794 11a0 01       		.byte	.LVU661
 6795 11a1 60020000 		.4byte	.Ldebug_ranges0+0x260
 6796 11a5 01       		.byte	0x1
 6797 11a6 E501     		.2byte	0x1e5
 6798 11a8 12       		.byte	0x12
 6799 11a9 BF110000 		.4byte	0x11bf
 6800 11ad 2B       		.uleb128 0x2b
 6801 11ae C32A0000 		.4byte	0x2ac3
 6802 11b2 20000000 		.4byte	.LBI465
 6803 11b6 03       		.byte	.LVU663
 6804 11b7 88020000 		.4byte	.Ldebug_ranges0+0x288
 6805 11bb 02       		.byte	0x2
 6806 11bc BD       		.byte	0xbd
ARM GAS  /tmp/ccqhiTbD.s 			page 121


 6807 11bd 0A       		.byte	0xa
 6808 11be 00       		.byte	0
 6809 11bf 2A       		.uleb128 0x2a
 6810 11c0 2E2B0000 		.4byte	0x2b2e
 6811 11c4 86000000 		.4byte	.LBI475
 6812 11c8 01       		.byte	.LVU694
 6813 11c9 A0020000 		.4byte	.Ldebug_ranges0+0x2a0
 6814 11cd 01       		.byte	0x1
 6815 11ce EB01     		.2byte	0x1eb
 6816 11d0 03       		.byte	0x3
 6817 11d1 1F120000 		.4byte	0x121f
 6818 11d5 2A       		.uleb128 0x2a
 6819 11d6 682B0000 		.4byte	0x2b68
 6820 11da 86000000 		.4byte	.LBI477
 6821 11de 03       		.byte	.LVU696
 6822 11df C0020000 		.4byte	.Ldebug_ranges0+0x2c0
 6823 11e3 03       		.byte	0x3
 6824 11e4 5C01     		.2byte	0x15c
 6825 11e6 03       		.byte	0x3
 6826 11e7 0C120000 		.4byte	0x120c
 6827 11eb 32       		.uleb128 0x32
 6828 11ec 722B0000 		.4byte	0x2b72
 6829 11f0 86000000 		.4byte	.LBI478
 6830 11f4 05       		.byte	.LVU698
 6831 11f5 E0020000 		.4byte	.Ldebug_ranges0+0x2e0
 6832 11f9 04       		.byte	0x4
 6833 11fa BF01     		.2byte	0x1bf
 6834 11fc 03       		.byte	0x3
 6835 11fd 33       		.uleb128 0x33
 6836 11fe 802B0000 		.4byte	0x2b80
 6837 1202 E6000000 		.4byte	.LLST28
 6838 1206 E4000000 		.4byte	.LVUS28
 6839 120a 00       		.byte	0
 6840 120b 00       		.byte	0
 6841 120c 2E       		.uleb128 0x2e
 6842 120d 8E000000 		.4byte	.LVL236
 6843 1211 B62C0000 		.4byte	0x2cb6
 6844 1215 2E       		.uleb128 0x2e
 6845 1216 92000000 		.4byte	.LVL237
 6846 121a C22C0000 		.4byte	0x2cc2
 6847 121e 00       		.byte	0
 6848 121f 2A       		.uleb128 0x2a
 6849 1220 FB2A0000 		.4byte	0x2afb
 6850 1224 B4000000 		.4byte	.LBI488
 6851 1228 01       		.byte	.LVU710
 6852 1229 F8020000 		.4byte	.Ldebug_ranges0+0x2f8
 6853 122d 01       		.byte	0x1
 6854 122e F201     		.2byte	0x1f2
 6855 1230 03       		.byte	0x3
 6856 1231 9C120000 		.4byte	0x129c
 6857 1235 34       		.uleb128 0x34
 6858 1236 F8020000 		.4byte	.Ldebug_ranges0+0x2f8
 6859 123a 2A       		.uleb128 0x2a
 6860 123b 5E2B0000 		.4byte	0x2b5e
 6861 123f CC000000 		.4byte	.LBI490
 6862 1243 02       		.byte	.LVU718
 6863 1244 18030000 		.4byte	.Ldebug_ranges0+0x318
ARM GAS  /tmp/ccqhiTbD.s 			page 122


 6864 1248 03       		.byte	0x3
 6865 1249 7301     		.2byte	0x173
 6866 124b 03       		.byte	0x3
 6867 124c 75120000 		.4byte	0x1275
 6868 1250 35       		.uleb128 0x35
 6869 1251 722B0000 		.4byte	0x2b72
 6870 1255 CC000000 		.4byte	.LBI491
 6871 1259 04       		.byte	.LVU720
 6872 125a CC000000 		.4byte	.LBB491
 6873 125e 06000000 		.4byte	.LBE491-.LBB491
 6874 1262 04       		.byte	0x4
 6875 1263 CD01     		.2byte	0x1cd
 6876 1265 03       		.byte	0x3
 6877 1266 33       		.uleb128 0x33
 6878 1267 802B0000 		.4byte	0x2b80
 6879 126b FD000000 		.4byte	.LLST29
 6880 126f FB000000 		.4byte	.LVUS29
 6881 1273 00       		.byte	0
 6882 1274 00       		.byte	0
 6883 1275 2E       		.uleb128 0x2e
 6884 1276 B8000000 		.4byte	.LVL244
 6885 127a CE2C0000 		.4byte	0x2cce
 6886 127e 2E       		.uleb128 0x2e
 6887 127f BC000000 		.4byte	.LVL245
 6888 1283 DA2C0000 		.4byte	0x2cda
 6889 1287 36       		.uleb128 0x36
 6890 1288 F4000000 		.4byte	.LVL251
 6891 128c E62C0000 		.4byte	0x2ce6
 6892 1290 2D       		.uleb128 0x2d
 6893 1291 01       		.uleb128 0x1
 6894 1292 50       		.byte	0x50
 6895 1293 05       		.uleb128 0x5
 6896 1294 03       		.byte	0x3
 6897 1295 00000000 		.4byte	.LANCHOR2
 6898 1299 00       		.byte	0
 6899 129a 00       		.byte	0
 6900 129b 00       		.byte	0
 6901 129c 2C       		.uleb128 0x2c
 6902 129d 2A000000 		.4byte	.LVL229
 6903 12a1 292C0000 		.4byte	0x2c29
 6904 12a5 D1120000 		.4byte	0x12d1
 6905 12a9 2D       		.uleb128 0x2d
 6906 12aa 01       		.uleb128 0x1
 6907 12ab 50       		.byte	0x50
 6908 12ac 03       		.uleb128 0x3
 6909 12ad 76       		.byte	0x76
 6910 12ae 00       		.sleb128 0
 6911 12af 06       		.byte	0x6
 6912 12b0 2D       		.uleb128 0x2d
 6913 12b1 01       		.uleb128 0x1
 6914 12b2 51       		.byte	0x51
 6915 12b3 03       		.uleb128 0x3
 6916 12b4 0A       		.byte	0xa
 6917 12b5 F801     		.2byte	0x1f8
 6918 12b7 2D       		.uleb128 0x2d
 6919 12b8 01       		.uleb128 0x1
 6920 12b9 52       		.byte	0x52
ARM GAS  /tmp/ccqhiTbD.s 			page 123


 6921 12ba 02       		.uleb128 0x2
 6922 12bb 75       		.byte	0x75
 6923 12bc 01       		.sleb128 1
 6924 12bd 2D       		.uleb128 0x2d
 6925 12be 01       		.uleb128 0x1
 6926 12bf 53       		.byte	0x53
 6927 12c0 05       		.uleb128 0x5
 6928 12c1 03       		.byte	0x3
 6929 12c2 00000000 		.4byte	thread10
 6930 12c6 2D       		.uleb128 0x2d
 6931 12c7 02       		.uleb128 0x2
 6932 12c8 7D       		.byte	0x7d
 6933 12c9 00       		.sleb128 0
 6934 12ca 05       		.uleb128 0x5
 6935 12cb 03       		.byte	0x3
 6936 12cc 00000000 		.4byte	.LC0
 6937 12d0 00       		.byte	0
 6938 12d1 2C       		.uleb128 0x2c
 6939 12d2 40000000 		.4byte	.LVL230
 6940 12d6 292C0000 		.4byte	0x2c29
 6941 12da 06130000 		.4byte	0x1306
 6942 12de 2D       		.uleb128 0x2d
 6943 12df 01       		.uleb128 0x1
 6944 12e0 50       		.byte	0x50
 6945 12e1 03       		.uleb128 0x3
 6946 12e2 76       		.byte	0x76
 6947 12e3 04       		.sleb128 4
 6948 12e4 06       		.byte	0x6
 6949 12e5 2D       		.uleb128 0x2d
 6950 12e6 01       		.uleb128 0x1
 6951 12e7 51       		.byte	0x51
 6952 12e8 03       		.uleb128 0x3
 6953 12e9 0A       		.byte	0xa
 6954 12ea F801     		.2byte	0x1f8
 6955 12ec 2D       		.uleb128 0x2d
 6956 12ed 01       		.uleb128 0x1
 6957 12ee 52       		.byte	0x52
 6958 12ef 02       		.uleb128 0x2
 6959 12f0 75       		.byte	0x75
 6960 12f1 02       		.sleb128 2
 6961 12f2 2D       		.uleb128 0x2d
 6962 12f3 01       		.uleb128 0x1
 6963 12f4 53       		.byte	0x53
 6964 12f5 05       		.uleb128 0x5
 6965 12f6 03       		.byte	0x3
 6966 12f7 00000000 		.4byte	thread10
 6967 12fb 2D       		.uleb128 0x2d
 6968 12fc 02       		.uleb128 0x2
 6969 12fd 7D       		.byte	0x7d
 6970 12fe 00       		.sleb128 0
 6971 12ff 05       		.uleb128 0x5
 6972 1300 03       		.byte	0x3
 6973 1301 04000000 		.4byte	.LC1
 6974 1305 00       		.byte	0
 6975 1306 2C       		.uleb128 0x2c
 6976 1307 56000000 		.4byte	.LVL231
 6977 130b 292C0000 		.4byte	0x2c29
ARM GAS  /tmp/ccqhiTbD.s 			page 124


 6978 130f 3B130000 		.4byte	0x133b
 6979 1313 2D       		.uleb128 0x2d
 6980 1314 01       		.uleb128 0x1
 6981 1315 50       		.byte	0x50
 6982 1316 03       		.uleb128 0x3
 6983 1317 76       		.byte	0x76
 6984 1318 08       		.sleb128 8
 6985 1319 06       		.byte	0x6
 6986 131a 2D       		.uleb128 0x2d
 6987 131b 01       		.uleb128 0x1
 6988 131c 51       		.byte	0x51
 6989 131d 03       		.uleb128 0x3
 6990 131e 0A       		.byte	0xa
 6991 131f F801     		.2byte	0x1f8
 6992 1321 2D       		.uleb128 0x2d
 6993 1322 01       		.uleb128 0x1
 6994 1323 52       		.byte	0x52
 6995 1324 02       		.uleb128 0x2
 6996 1325 75       		.byte	0x75
 6997 1326 03       		.sleb128 3
 6998 1327 2D       		.uleb128 0x2d
 6999 1328 01       		.uleb128 0x1
 7000 1329 53       		.byte	0x53
 7001 132a 05       		.uleb128 0x5
 7002 132b 03       		.byte	0x3
 7003 132c 00000000 		.4byte	thread10
 7004 1330 2D       		.uleb128 0x2d
 7005 1331 02       		.uleb128 0x2
 7006 1332 7D       		.byte	0x7d
 7007 1333 00       		.sleb128 0
 7008 1334 05       		.uleb128 0x5
 7009 1335 03       		.byte	0x3
 7010 1336 08000000 		.4byte	.LC2
 7011 133a 00       		.byte	0
 7012 133b 2C       		.uleb128 0x2c
 7013 133c 6C000000 		.4byte	.LVL232
 7014 1340 292C0000 		.4byte	0x2c29
 7015 1344 70130000 		.4byte	0x1370
 7016 1348 2D       		.uleb128 0x2d
 7017 1349 01       		.uleb128 0x1
 7018 134a 50       		.byte	0x50
 7019 134b 03       		.uleb128 0x3
 7020 134c 76       		.byte	0x76
 7021 134d 0C       		.sleb128 12
 7022 134e 06       		.byte	0x6
 7023 134f 2D       		.uleb128 0x2d
 7024 1350 01       		.uleb128 0x1
 7025 1351 51       		.byte	0x51
 7026 1352 03       		.uleb128 0x3
 7027 1353 0A       		.byte	0xa
 7028 1354 F801     		.2byte	0x1f8
 7029 1356 2D       		.uleb128 0x2d
 7030 1357 01       		.uleb128 0x1
 7031 1358 52       		.byte	0x52
 7032 1359 02       		.uleb128 0x2
 7033 135a 75       		.byte	0x75
 7034 135b 04       		.sleb128 4
ARM GAS  /tmp/ccqhiTbD.s 			page 125


 7035 135c 2D       		.uleb128 0x2d
 7036 135d 01       		.uleb128 0x1
 7037 135e 53       		.byte	0x53
 7038 135f 05       		.uleb128 0x5
 7039 1360 03       		.byte	0x3
 7040 1361 00000000 		.4byte	thread10
 7041 1365 2D       		.uleb128 0x2d
 7042 1366 02       		.uleb128 0x2
 7043 1367 7D       		.byte	0x7d
 7044 1368 00       		.sleb128 0
 7045 1369 05       		.uleb128 0x5
 7046 136a 03       		.byte	0x3
 7047 136b 0C000000 		.4byte	.LC3
 7048 136f 00       		.byte	0
 7049 1370 2C       		.uleb128 0x2c
 7050 1371 82000000 		.4byte	.LVL233
 7051 1375 292C0000 		.4byte	0x2c29
 7052 1379 A5130000 		.4byte	0x13a5
 7053 137d 2D       		.uleb128 0x2d
 7054 137e 01       		.uleb128 0x1
 7055 137f 50       		.byte	0x50
 7056 1380 03       		.uleb128 0x3
 7057 1381 76       		.byte	0x76
 7058 1382 10       		.sleb128 16
 7059 1383 06       		.byte	0x6
 7060 1384 2D       		.uleb128 0x2d
 7061 1385 01       		.uleb128 0x1
 7062 1386 51       		.byte	0x51
 7063 1387 03       		.uleb128 0x3
 7064 1388 0A       		.byte	0xa
 7065 1389 F801     		.2byte	0x1f8
 7066 138b 2D       		.uleb128 0x2d
 7067 138c 01       		.uleb128 0x1
 7068 138d 52       		.byte	0x52
 7069 138e 02       		.uleb128 0x2
 7070 138f 75       		.byte	0x75
 7071 1390 05       		.sleb128 5
 7072 1391 2D       		.uleb128 0x2d
 7073 1392 01       		.uleb128 0x1
 7074 1393 53       		.byte	0x53
 7075 1394 05       		.uleb128 0x5
 7076 1395 03       		.byte	0x3
 7077 1396 00000000 		.4byte	thread10
 7078 139a 2D       		.uleb128 0x2d
 7079 139b 02       		.uleb128 0x2
 7080 139c 7D       		.byte	0x7d
 7081 139d 00       		.sleb128 0
 7082 139e 05       		.uleb128 0x5
 7083 139f 03       		.byte	0x3
 7084 13a0 10000000 		.4byte	.LC4
 7085 13a4 00       		.byte	0
 7086 13a5 2C       		.uleb128 0x2c
 7087 13a6 98000000 		.4byte	.LVL238
 7088 13aa F32C0000 		.4byte	0x2cf3
 7089 13ae BC130000 		.4byte	0x13bc
 7090 13b2 2D       		.uleb128 0x2d
 7091 13b3 01       		.uleb128 0x1
ARM GAS  /tmp/ccqhiTbD.s 			page 126


 7092 13b4 50       		.byte	0x50
 7093 13b5 05       		.uleb128 0x5
 7094 13b6 03       		.byte	0x3
 7095 13b7 00000000 		.4byte	.LANCHOR3
 7096 13bb 00       		.byte	0
 7097 13bc 2C       		.uleb128 0x2c
 7098 13bd 9E000000 		.4byte	.LVL239
 7099 13c1 F32C0000 		.4byte	0x2cf3
 7100 13c5 D3130000 		.4byte	0x13d3
 7101 13c9 2D       		.uleb128 0x2d
 7102 13ca 01       		.uleb128 0x1
 7103 13cb 50       		.byte	0x50
 7104 13cc 05       		.uleb128 0x5
 7105 13cd 03       		.byte	0x3
 7106 13ce 00000000 		.4byte	.LANCHOR3
 7107 13d2 00       		.byte	0
 7108 13d3 2C       		.uleb128 0x2c
 7109 13d4 A4000000 		.4byte	.LVL240
 7110 13d8 F32C0000 		.4byte	0x2cf3
 7111 13dc EA130000 		.4byte	0x13ea
 7112 13e0 2D       		.uleb128 0x2d
 7113 13e1 01       		.uleb128 0x1
 7114 13e2 50       		.byte	0x50
 7115 13e3 05       		.uleb128 0x5
 7116 13e4 03       		.byte	0x3
 7117 13e5 00000000 		.4byte	.LANCHOR3
 7118 13e9 00       		.byte	0
 7119 13ea 2C       		.uleb128 0x2c
 7120 13eb AA000000 		.4byte	.LVL241
 7121 13ef F32C0000 		.4byte	0x2cf3
 7122 13f3 01140000 		.4byte	0x1401
 7123 13f7 2D       		.uleb128 0x2d
 7124 13f8 01       		.uleb128 0x1
 7125 13f9 50       		.byte	0x50
 7126 13fa 05       		.uleb128 0x5
 7127 13fb 03       		.byte	0x3
 7128 13fc 00000000 		.4byte	.LANCHOR3
 7129 1400 00       		.byte	0
 7130 1401 2C       		.uleb128 0x2c
 7131 1402 B0000000 		.4byte	.LVL242
 7132 1406 F32C0000 		.4byte	0x2cf3
 7133 140a 18140000 		.4byte	0x1418
 7134 140e 2D       		.uleb128 0x2d
 7135 140f 01       		.uleb128 0x1
 7136 1410 50       		.byte	0x50
 7137 1411 05       		.uleb128 0x5
 7138 1412 03       		.byte	0x3
 7139 1413 00000000 		.4byte	.LANCHOR3
 7140 1417 00       		.byte	0
 7141 1418 2E       		.uleb128 0x2e
 7142 1419 B4000000 		.4byte	.LVL243
 7143 141d FF2C0000 		.4byte	0x2cff
 7144 1421 2E       		.uleb128 0x2e
 7145 1422 D6000000 		.4byte	.LVL248
 7146 1426 412C0000 		.4byte	0x2c41
 7147 142a 2F       		.uleb128 0x2f
 7148 142b EE000000 		.4byte	.LVL250
ARM GAS  /tmp/ccqhiTbD.s 			page 127


 7149 142f 4D2C0000 		.4byte	0x2c4d
 7150 1433 46140000 		.4byte	0x1446
 7151 1437 2D       		.uleb128 0x2d
 7152 1438 01       		.uleb128 0x1
 7153 1439 50       		.byte	0x50
 7154 143a 01       		.uleb128 0x1
 7155 143b 31       		.byte	0x31
 7156 143c 2D       		.uleb128 0x2d
 7157 143d 01       		.uleb128 0x1
 7158 143e 51       		.byte	0x51
 7159 143f 05       		.uleb128 0x5
 7160 1440 03       		.byte	0x3
 7161 1441 14000000 		.4byte	.LC5
 7162 1445 00       		.byte	0
 7163 1446 2E       		.uleb128 0x2e
 7164 1447 FA000000 		.4byte	.LVL252
 7165 144b 592C0000 		.4byte	0x2c59
 7166 144f 00       		.byte	0
 7167 1450 28       		.uleb128 0x28
 7168 1451 28090000 		.4byte	.LASF182
 7169 1455 01       		.byte	0x1
 7170 1456 DB01     		.2byte	0x1db
 7171 1458 08       		.byte	0x8
 7172 1459 00000000 		.4byte	.LFB241
 7173 145d 48000000 		.4byte	.LFE241-.LFB241
 7174 1461 01       		.uleb128 0x1
 7175 1462 9C       		.byte	0x9c
 7176 1463 D2140000 		.4byte	0x14d2
 7177 1467 30       		.uleb128 0x30
 7178 1468 7000     		.ascii	"p\000"
 7179 146a 01       		.byte	0x1
 7180 146b DB01     		.2byte	0x1db
 7181 146d 08       		.byte	0x8
 7182 146e 93030000 		.4byte	0x393
 7183 1472 19010000 		.4byte	.LLST18
 7184 1476 11010000 		.4byte	.LVUS18
 7185 147a 2C       		.uleb128 0x2c
 7186 147b 16000000 		.4byte	.LVL159
 7187 147f 622C0000 		.4byte	0x2c62
 7188 1483 91140000 		.4byte	0x1491
 7189 1487 2D       		.uleb128 0x2d
 7190 1488 01       		.uleb128 0x1
 7191 1489 50       		.byte	0x50
 7192 148a 05       		.uleb128 0x5
 7193 148b 03       		.byte	0x3
 7194 148c 00000000 		.4byte	.LANCHOR0
 7195 1490 00       		.byte	0
 7196 1491 2C       		.uleb128 0x2c
 7197 1492 1C000000 		.4byte	.LVL160
 7198 1496 0C2D0000 		.4byte	0x2d0c
 7199 149a A8140000 		.4byte	0x14a8
 7200 149e 2D       		.uleb128 0x2d
 7201 149f 01       		.uleb128 0x1
 7202 14a0 50       		.byte	0x50
 7203 14a1 05       		.uleb128 0x5
 7204 14a2 03       		.byte	0x3
 7205 14a3 00000000 		.4byte	.LANCHOR3
ARM GAS  /tmp/ccqhiTbD.s 			page 128


 7206 14a7 00       		.byte	0
 7207 14a8 2E       		.uleb128 0x2e
 7208 14a9 22000000 		.4byte	.LVL161
 7209 14ad 6E2C0000 		.4byte	0x2c6e
 7210 14b1 2F       		.uleb128 0x2f
 7211 14b2 38000000 		.4byte	.LVL163
 7212 14b6 7A2C0000 		.4byte	0x2c7a
 7213 14ba C8140000 		.4byte	0x14c8
 7214 14be 2D       		.uleb128 0x2d
 7215 14bf 01       		.uleb128 0x1
 7216 14c0 50       		.byte	0x50
 7217 14c1 05       		.uleb128 0x5
 7218 14c2 03       		.byte	0x3
 7219 14c3 00000000 		.4byte	.LANCHOR0
 7220 14c7 00       		.byte	0
 7221 14c8 2E       		.uleb128 0x2e
 7222 14c9 3C000000 		.4byte	.LVL164
 7223 14cd 592C0000 		.4byte	0x2c59
 7224 14d1 00       		.byte	0
 7225 14d2 28       		.uleb128 0x28
 7226 14d3 22030000 		.4byte	.LASF183
 7227 14d7 01       		.byte	0x1
 7228 14d8 D501     		.2byte	0x1d5
 7229 14da 0D       		.byte	0xd
 7230 14db 00000000 		.4byte	.LFB240
 7231 14df 3C000000 		.4byte	.LFE240-.LFB240
 7232 14e3 01       		.uleb128 0x1
 7233 14e4 9C       		.byte	0x9c
 7234 14e5 21150000 		.4byte	0x1521
 7235 14e9 2C       		.uleb128 0x2c
 7236 14ea 14000000 		.4byte	.LVL165
 7237 14ee 922C0000 		.4byte	0x2c92
 7238 14f2 00150000 		.4byte	0x1500
 7239 14f6 2D       		.uleb128 0x2d
 7240 14f7 01       		.uleb128 0x1
 7241 14f8 50       		.byte	0x50
 7242 14f9 05       		.uleb128 0x5
 7243 14fa 03       		.byte	0x3
 7244 14fb 00000000 		.4byte	.LANCHOR3
 7245 14ff 00       		.byte	0
 7246 1500 2F       		.uleb128 0x2f
 7247 1501 2A000000 		.4byte	.LVL166
 7248 1505 9E2C0000 		.4byte	0x2c9e
 7249 1509 17150000 		.4byte	0x1517
 7250 150d 2D       		.uleb128 0x2d
 7251 150e 01       		.uleb128 0x1
 7252 150f 50       		.byte	0x50
 7253 1510 05       		.uleb128 0x5
 7254 1511 03       		.byte	0x3
 7255 1512 00000000 		.4byte	.LANCHOR0
 7256 1516 00       		.byte	0
 7257 1517 2E       		.uleb128 0x2e
 7258 1518 2E000000 		.4byte	.LVL167
 7259 151c 592C0000 		.4byte	0x2c59
 7260 1520 00       		.byte	0
 7261 1521 37       		.uleb128 0x37
 7262 1522 C9060000 		.4byte	.LASF209
ARM GAS  /tmp/ccqhiTbD.s 			page 129


 7263 1526 01       		.byte	0x1
 7264 1527 A701     		.2byte	0x1a7
 7265 1529 0D       		.byte	0xd
 7266 152a 01       		.byte	0x1
 7267 152b 31       		.uleb128 0x31
 7268 152c B8080000 		.4byte	.LASF185
 7269 1530 01       		.byte	0x1
 7270 1531 A201     		.2byte	0x1a2
 7271 1533 0D       		.byte	0xd
 7272 1534 28       		.uleb128 0x28
 7273 1535 29040000 		.4byte	.LASF186
 7274 1539 01       		.byte	0x1
 7275 153a 6201     		.2byte	0x162
 7276 153c 0D       		.byte	0xd
 7277 153d 00000000 		.4byte	.LFB237
 7278 1541 AC020000 		.4byte	.LFE237-.LFB237
 7279 1545 01       		.uleb128 0x1
 7280 1546 9C       		.byte	0x9c
 7281 1547 361C0000 		.4byte	0x1c36
 7282 154b 38       		.uleb128 0x38
 7283 154c 7000     		.ascii	"p\000"
 7284 154e 01       		.byte	0x1
 7285 154f 6301     		.2byte	0x163
 7286 1551 0B       		.byte	0xb
 7287 1552 07010000 		.4byte	0x107
 7288 1556 54010000 		.4byte	.LLST13
 7289 155a 50010000 		.4byte	.LVUS13
 7290 155e 38       		.uleb128 0x38
 7291 155f 703100   		.ascii	"p1\000"
 7292 1562 01       		.byte	0x1
 7293 1563 6301     		.2byte	0x163
 7294 1565 0E       		.byte	0xe
 7295 1566 07010000 		.4byte	0x107
 7296 156a 78010000 		.4byte	.LLST14
 7297 156e 72010000 		.4byte	.LVUS14
 7298 1572 38       		.uleb128 0x38
 7299 1573 703200   		.ascii	"p2\000"
 7300 1576 01       		.byte	0x1
 7301 1577 6301     		.2byte	0x163
 7302 1579 12       		.byte	0x12
 7303 157a 07010000 		.4byte	0x107
 7304 157e A5010000 		.4byte	.LLST15
 7305 1582 A1010000 		.4byte	.LVUS15
 7306 1586 2A       		.uleb128 0x2a
 7307 1587 B62A0000 		.4byte	0x2ab6
 7308 158b 26000000 		.4byte	.LBI253
 7309 158f 02       		.byte	.LVU227
 7310 1590 40000000 		.4byte	.Ldebug_ranges0+0x40
 7311 1594 01       		.byte	0x1
 7312 1595 6501     		.2byte	0x165
 7313 1597 07       		.byte	0x7
 7314 1598 AE150000 		.4byte	0x15ae
 7315 159c 2B       		.uleb128 0x2b
 7316 159d C32A0000 		.4byte	0x2ac3
 7317 15a1 26000000 		.4byte	.LBI255
 7318 15a5 04       		.byte	.LVU229
 7319 15a6 68000000 		.4byte	.Ldebug_ranges0+0x68
ARM GAS  /tmp/ccqhiTbD.s 			page 130


 7320 15aa 02       		.byte	0x2
 7321 15ab BD       		.byte	0xbd
 7322 15ac 0A       		.byte	0xa
 7323 15ad 00       		.byte	0
 7324 15ae 39       		.uleb128 0x39
 7325 15af B62A0000 		.4byte	0x2ab6
 7326 15b3 5A000000 		.4byte	.LBI265
 7327 15b7 01       		.byte	.LVU249
 7328 15b8 5A000000 		.4byte	.LBB265
 7329 15bc 02000000 		.4byte	.LBE265-.LBB265
 7330 15c0 01       		.byte	0x1
 7331 15c1 6B01     		.2byte	0x16b
 7332 15c3 03       		.byte	0x3
 7333 15c4 DE150000 		.4byte	0x15de
 7334 15c8 3A       		.uleb128 0x3a
 7335 15c9 C32A0000 		.4byte	0x2ac3
 7336 15cd 5A000000 		.4byte	.LBI267
 7337 15d1 03       		.byte	.LVU251
 7338 15d2 5A000000 		.4byte	.LBB267
 7339 15d6 00000000 		.4byte	.LBE267-.LBB267
 7340 15da 02       		.byte	0x2
 7341 15db BD       		.byte	0xbd
 7342 15dc 0A       		.byte	0xa
 7343 15dd 00       		.byte	0
 7344 15de 39       		.uleb128 0x39
 7345 15df B62A0000 		.4byte	0x2ab6
 7346 15e3 86000000 		.4byte	.LBI269
 7347 15e7 01       		.byte	.LVU259
 7348 15e8 86000000 		.4byte	.LBB269
 7349 15ec 02000000 		.4byte	.LBE269-.LBB269
 7350 15f0 01       		.byte	0x1
 7351 15f1 6D01     		.2byte	0x16d
 7352 15f3 03       		.byte	0x3
 7353 15f4 0E160000 		.4byte	0x160e
 7354 15f8 3A       		.uleb128 0x3a
 7355 15f9 C32A0000 		.4byte	0x2ac3
 7356 15fd 86000000 		.4byte	.LBI271
 7357 1601 03       		.byte	.LVU261
 7358 1602 86000000 		.4byte	.LBB271
 7359 1606 00000000 		.4byte	.LBE271-.LBB271
 7360 160a 02       		.byte	0x2
 7361 160b BD       		.byte	0xbd
 7362 160c 0A       		.byte	0xa
 7363 160d 00       		.byte	0
 7364 160e 39       		.uleb128 0x39
 7365 160f B62A0000 		.4byte	0x2ab6
 7366 1613 A2000000 		.4byte	.LBI273
 7367 1617 01       		.byte	.LVU268
 7368 1618 A2000000 		.4byte	.LBB273
 7369 161c 02000000 		.4byte	.LBE273-.LBB273
 7370 1620 01       		.byte	0x1
 7371 1621 6F01     		.2byte	0x16f
 7372 1623 03       		.byte	0x3
 7373 1624 3E160000 		.4byte	0x163e
 7374 1628 3A       		.uleb128 0x3a
 7375 1629 C32A0000 		.4byte	0x2ac3
 7376 162d A2000000 		.4byte	.LBI275
ARM GAS  /tmp/ccqhiTbD.s 			page 131


 7377 1631 03       		.byte	.LVU270
 7378 1632 A2000000 		.4byte	.LBB275
 7379 1636 00000000 		.4byte	.LBE275-.LBB275
 7380 163a 02       		.byte	0x2
 7381 163b BD       		.byte	0xbd
 7382 163c 0A       		.byte	0xa
 7383 163d 00       		.byte	0
 7384 163e 39       		.uleb128 0x39
 7385 163f B62A0000 		.4byte	0x2ab6
 7386 1643 BE000000 		.4byte	.LBI277
 7387 1647 01       		.byte	.LVU277
 7388 1648 BE000000 		.4byte	.LBB277
 7389 164c 02000000 		.4byte	.LBE277-.LBB277
 7390 1650 01       		.byte	0x1
 7391 1651 7101     		.2byte	0x171
 7392 1653 03       		.byte	0x3
 7393 1654 6E160000 		.4byte	0x166e
 7394 1658 3A       		.uleb128 0x3a
 7395 1659 C32A0000 		.4byte	0x2ac3
 7396 165d BE000000 		.4byte	.LBI279
 7397 1661 03       		.byte	.LVU279
 7398 1662 BE000000 		.4byte	.LBB279
 7399 1666 00000000 		.4byte	.LBE279-.LBB279
 7400 166a 02       		.byte	0x2
 7401 166b BD       		.byte	0xbd
 7402 166c 0A       		.byte	0xa
 7403 166d 00       		.byte	0
 7404 166e 39       		.uleb128 0x39
 7405 166f B62A0000 		.4byte	0x2ab6
 7406 1673 DC000000 		.4byte	.LBI281
 7407 1677 01       		.byte	.LVU286
 7408 1678 DC000000 		.4byte	.LBB281
 7409 167c 02000000 		.4byte	.LBE281-.LBB281
 7410 1680 01       		.byte	0x1
 7411 1681 7301     		.2byte	0x173
 7412 1683 03       		.byte	0x3
 7413 1684 9E160000 		.4byte	0x169e
 7414 1688 3A       		.uleb128 0x3a
 7415 1689 C32A0000 		.4byte	0x2ac3
 7416 168d DC000000 		.4byte	.LBI283
 7417 1691 03       		.byte	.LVU288
 7418 1692 DC000000 		.4byte	.LBB283
 7419 1696 00000000 		.4byte	.LBE283-.LBB283
 7420 169a 02       		.byte	0x2
 7421 169b BD       		.byte	0xbd
 7422 169c 0A       		.byte	0xa
 7423 169d 00       		.byte	0
 7424 169e 39       		.uleb128 0x39
 7425 169f B62A0000 		.4byte	0x2ab6
 7426 16a3 F8000000 		.4byte	.LBI285
 7427 16a7 01       		.byte	.LVU295
 7428 16a8 F8000000 		.4byte	.LBB285
 7429 16ac 02000000 		.4byte	.LBE285-.LBB285
 7430 16b0 01       		.byte	0x1
 7431 16b1 7501     		.2byte	0x175
 7432 16b3 03       		.byte	0x3
 7433 16b4 CE160000 		.4byte	0x16ce
ARM GAS  /tmp/ccqhiTbD.s 			page 132


 7434 16b8 3A       		.uleb128 0x3a
 7435 16b9 C32A0000 		.4byte	0x2ac3
 7436 16bd F8000000 		.4byte	.LBI287
 7437 16c1 03       		.byte	.LVU297
 7438 16c2 F8000000 		.4byte	.LBB287
 7439 16c6 00000000 		.4byte	.LBE287-.LBB287
 7440 16ca 02       		.byte	0x2
 7441 16cb BD       		.byte	0xbd
 7442 16cc 0A       		.byte	0xa
 7443 16cd 00       		.byte	0
 7444 16ce 39       		.uleb128 0x39
 7445 16cf B62A0000 		.4byte	0x2ab6
 7446 16d3 12010000 		.4byte	.LBI289
 7447 16d7 01       		.byte	.LVU304
 7448 16d8 12010000 		.4byte	.LBB289
 7449 16dc 02000000 		.4byte	.LBE289-.LBB289
 7450 16e0 01       		.byte	0x1
 7451 16e1 7701     		.2byte	0x177
 7452 16e3 03       		.byte	0x3
 7453 16e4 FE160000 		.4byte	0x16fe
 7454 16e8 3A       		.uleb128 0x3a
 7455 16e9 C32A0000 		.4byte	0x2ac3
 7456 16ed 12010000 		.4byte	.LBI291
 7457 16f1 03       		.byte	.LVU306
 7458 16f2 12010000 		.4byte	.LBB291
 7459 16f6 00000000 		.4byte	.LBE291-.LBB291
 7460 16fa 02       		.byte	0x2
 7461 16fb BD       		.byte	0xbd
 7462 16fc 0A       		.byte	0xa
 7463 16fd 00       		.byte	0
 7464 16fe 39       		.uleb128 0x39
 7465 16ff B62A0000 		.4byte	0x2ab6
 7466 1703 5E010000 		.4byte	.LBI293
 7467 1707 01       		.byte	.LVU324
 7468 1708 5E010000 		.4byte	.LBB293
 7469 170c 02000000 		.4byte	.LBE293-.LBB293
 7470 1710 01       		.byte	0x1
 7471 1711 7E01     		.2byte	0x17e
 7472 1713 03       		.byte	0x3
 7473 1714 2E170000 		.4byte	0x172e
 7474 1718 3A       		.uleb128 0x3a
 7475 1719 C32A0000 		.4byte	0x2ac3
 7476 171d 5E010000 		.4byte	.LBI295
 7477 1721 03       		.byte	.LVU326
 7478 1722 5E010000 		.4byte	.LBB295
 7479 1726 00000000 		.4byte	.LBE295-.LBB295
 7480 172a 02       		.byte	0x2
 7481 172b BD       		.byte	0xbd
 7482 172c 0A       		.byte	0xa
 7483 172d 00       		.byte	0
 7484 172e 39       		.uleb128 0x39
 7485 172f B62A0000 		.4byte	0x2ab6
 7486 1733 7C010000 		.4byte	.LBI297
 7487 1737 01       		.byte	.LVU333
 7488 1738 7C010000 		.4byte	.LBB297
 7489 173c 02000000 		.4byte	.LBE297-.LBB297
 7490 1740 01       		.byte	0x1
ARM GAS  /tmp/ccqhiTbD.s 			page 133


 7491 1741 8001     		.2byte	0x180
 7492 1743 03       		.byte	0x3
 7493 1744 5E170000 		.4byte	0x175e
 7494 1748 3A       		.uleb128 0x3a
 7495 1749 C32A0000 		.4byte	0x2ac3
 7496 174d 7C010000 		.4byte	.LBI299
 7497 1751 03       		.byte	.LVU335
 7498 1752 7C010000 		.4byte	.LBB299
 7499 1756 00000000 		.4byte	.LBE299-.LBB299
 7500 175a 02       		.byte	0x2
 7501 175b BD       		.byte	0xbd
 7502 175c 0A       		.byte	0xa
 7503 175d 00       		.byte	0
 7504 175e 39       		.uleb128 0x39
 7505 175f B62A0000 		.4byte	0x2ab6
 7506 1763 9A010000 		.4byte	.LBI301
 7507 1767 01       		.byte	.LVU342
 7508 1768 9A010000 		.4byte	.LBB301
 7509 176c 02000000 		.4byte	.LBE301-.LBB301
 7510 1770 01       		.byte	0x1
 7511 1771 8201     		.2byte	0x182
 7512 1773 03       		.byte	0x3
 7513 1774 8E170000 		.4byte	0x178e
 7514 1778 3A       		.uleb128 0x3a
 7515 1779 C32A0000 		.4byte	0x2ac3
 7516 177d 9A010000 		.4byte	.LBI303
 7517 1781 03       		.byte	.LVU344
 7518 1782 9A010000 		.4byte	.LBB303
 7519 1786 00000000 		.4byte	.LBE303-.LBB303
 7520 178a 02       		.byte	0x2
 7521 178b BD       		.byte	0xbd
 7522 178c 0A       		.byte	0xa
 7523 178d 00       		.byte	0
 7524 178e 39       		.uleb128 0x39
 7525 178f B62A0000 		.4byte	0x2ab6
 7526 1793 B8010000 		.4byte	.LBI305
 7527 1797 01       		.byte	.LVU351
 7528 1798 B8010000 		.4byte	.LBB305
 7529 179c 02000000 		.4byte	.LBE305-.LBB305
 7530 17a0 01       		.byte	0x1
 7531 17a1 8401     		.2byte	0x184
 7532 17a3 03       		.byte	0x3
 7533 17a4 BE170000 		.4byte	0x17be
 7534 17a8 3A       		.uleb128 0x3a
 7535 17a9 C32A0000 		.4byte	0x2ac3
 7536 17ad B8010000 		.4byte	.LBI307
 7537 17b1 03       		.byte	.LVU353
 7538 17b2 B8010000 		.4byte	.LBB307
 7539 17b6 00000000 		.4byte	.LBE307-.LBB307
 7540 17ba 02       		.byte	0x2
 7541 17bb BD       		.byte	0xbd
 7542 17bc 0A       		.byte	0xa
 7543 17bd 00       		.byte	0
 7544 17be 2A       		.uleb128 0x2a
 7545 17bf 2E2B0000 		.4byte	0x2b2e
 7546 17c3 D4010000 		.4byte	.LBI309
 7547 17c7 02       		.byte	.LVU359
ARM GAS  /tmp/ccqhiTbD.s 			page 134


 7548 17c8 80000000 		.4byte	.Ldebug_ranges0+0x80
 7549 17cc 01       		.byte	0x1
 7550 17cd 8501     		.2byte	0x185
 7551 17cf 03       		.byte	0x3
 7552 17d0 22180000 		.4byte	0x1822
 7553 17d4 2A       		.uleb128 0x2a
 7554 17d5 682B0000 		.4byte	0x2b68
 7555 17d9 D4010000 		.4byte	.LBI311
 7556 17dd 04       		.byte	.LVU361
 7557 17de 98000000 		.4byte	.Ldebug_ranges0+0x98
 7558 17e2 03       		.byte	0x3
 7559 17e3 5C01     		.2byte	0x15c
 7560 17e5 03       		.byte	0x3
 7561 17e6 0F180000 		.4byte	0x180f
 7562 17ea 35       		.uleb128 0x35
 7563 17eb 722B0000 		.4byte	0x2b72
 7564 17ef D4010000 		.4byte	.LBI312
 7565 17f3 06       		.byte	.LVU363
 7566 17f4 D4010000 		.4byte	.LBB312
 7567 17f8 06000000 		.4byte	.LBE312-.LBB312
 7568 17fc 04       		.byte	0x4
 7569 17fd BF01     		.2byte	0x1bf
 7570 17ff 03       		.byte	0x3
 7571 1800 33       		.uleb128 0x33
 7572 1801 802B0000 		.4byte	0x2b80
 7573 1805 C5010000 		.4byte	.LLST16
 7574 1809 C3010000 		.4byte	.LVUS16
 7575 180d 00       		.byte	0
 7576 180e 00       		.byte	0
 7577 180f 2E       		.uleb128 0x2e
 7578 1810 DE010000 		.4byte	.LVL140
 7579 1814 B62C0000 		.4byte	0x2cb6
 7580 1818 2E       		.uleb128 0x2e
 7581 1819 E2010000 		.4byte	.LVL141
 7582 181d C22C0000 		.4byte	0x2cc2
 7583 1821 00       		.byte	0
 7584 1822 2A       		.uleb128 0x2a
 7585 1823 FB2A0000 		.4byte	0x2afb
 7586 1827 EC010000 		.4byte	.LBI317
 7587 182b 01       		.byte	.LVU371
 7588 182c B0000000 		.4byte	.Ldebug_ranges0+0xb0
 7589 1830 01       		.byte	0x1
 7590 1831 8801     		.2byte	0x188
 7591 1833 03       		.byte	0x3
 7592 1834 9F180000 		.4byte	0x189f
 7593 1838 34       		.uleb128 0x34
 7594 1839 B0000000 		.4byte	.Ldebug_ranges0+0xb0
 7595 183d 2A       		.uleb128 0x2a
 7596 183e 5E2B0000 		.4byte	0x2b5e
 7597 1842 04020000 		.4byte	.LBI319
 7598 1846 02       		.byte	.LVU379
 7599 1847 D0000000 		.4byte	.Ldebug_ranges0+0xd0
 7600 184b 03       		.byte	0x3
 7601 184c 7301     		.2byte	0x173
 7602 184e 03       		.byte	0x3
 7603 184f 78180000 		.4byte	0x1878
 7604 1853 35       		.uleb128 0x35
ARM GAS  /tmp/ccqhiTbD.s 			page 135


 7605 1854 722B0000 		.4byte	0x2b72
 7606 1858 04020000 		.4byte	.LBI320
 7607 185c 04       		.byte	.LVU381
 7608 185d 04020000 		.4byte	.LBB320
 7609 1861 06000000 		.4byte	.LBE320-.LBB320
 7610 1865 04       		.byte	0x4
 7611 1866 CD01     		.2byte	0x1cd
 7612 1868 03       		.byte	0x3
 7613 1869 33       		.uleb128 0x33
 7614 186a 802B0000 		.4byte	0x2b80
 7615 186e DC010000 		.4byte	.LLST17
 7616 1872 DA010000 		.4byte	.LVUS17
 7617 1876 00       		.byte	0
 7618 1877 00       		.byte	0
 7619 1878 2E       		.uleb128 0x2e
 7620 1879 F0010000 		.4byte	.LVL144
 7621 187d CE2C0000 		.4byte	0x2cce
 7622 1881 2E       		.uleb128 0x2e
 7623 1882 F4010000 		.4byte	.LVL145
 7624 1886 DA2C0000 		.4byte	0x2cda
 7625 188a 36       		.uleb128 0x36
 7626 188b 74020000 		.4byte	.LVL156
 7627 188f E62C0000 		.4byte	0x2ce6
 7628 1893 2D       		.uleb128 0x2d
 7629 1894 01       		.uleb128 0x1
 7630 1895 50       		.byte	0x50
 7631 1896 05       		.uleb128 0x5
 7632 1897 03       		.byte	0x3
 7633 1898 00000000 		.4byte	.LANCHOR2
 7634 189c 00       		.byte	0
 7635 189d 00       		.byte	0
 7636 189e 00       		.byte	0
 7637 189f 39       		.uleb128 0x39
 7638 18a0 B62A0000 		.4byte	0x2ab6
 7639 18a4 0A020000 		.4byte	.LBI326
 7640 18a8 02       		.byte	.LVU385
 7641 18a9 0A020000 		.4byte	.LBB326
 7642 18ad 02000000 		.4byte	.LBE326-.LBB326
 7643 18b1 01       		.byte	0x1
 7644 18b2 8901     		.2byte	0x189
 7645 18b4 03       		.byte	0x3
 7646 18b5 CF180000 		.4byte	0x18cf
 7647 18b9 3A       		.uleb128 0x3a
 7648 18ba C32A0000 		.4byte	0x2ac3
 7649 18be 0A020000 		.4byte	.LBI328
 7650 18c2 04       		.byte	.LVU387
 7651 18c3 0A020000 		.4byte	.LBB328
 7652 18c7 00000000 		.4byte	.LBE328-.LBB328
 7653 18cb 02       		.byte	0x2
 7654 18cc BD       		.byte	0xbd
 7655 18cd 0A       		.byte	0xa
 7656 18ce 00       		.byte	0
 7657 18cf 39       		.uleb128 0x39
 7658 18d0 B62A0000 		.4byte	0x2ab6
 7659 18d4 26020000 		.4byte	.LBI330
 7660 18d8 01       		.byte	.LVU394
 7661 18d9 26020000 		.4byte	.LBB330
ARM GAS  /tmp/ccqhiTbD.s 			page 136


 7662 18dd 02000000 		.4byte	.LBE330-.LBB330
 7663 18e1 01       		.byte	0x1
 7664 18e2 8B01     		.2byte	0x18b
 7665 18e4 03       		.byte	0x3
 7666 18e5 FF180000 		.4byte	0x18ff
 7667 18e9 3A       		.uleb128 0x3a
 7668 18ea C32A0000 		.4byte	0x2ac3
 7669 18ee 26020000 		.4byte	.LBI332
 7670 18f2 03       		.byte	.LVU396
 7671 18f3 26020000 		.4byte	.LBB332
 7672 18f7 00000000 		.4byte	.LBE332-.LBB332
 7673 18fb 02       		.byte	0x2
 7674 18fc BD       		.byte	0xbd
 7675 18fd 0A       		.byte	0xa
 7676 18fe 00       		.byte	0
 7677 18ff 39       		.uleb128 0x39
 7678 1900 B62A0000 		.4byte	0x2ab6
 7679 1904 40020000 		.4byte	.LBI334
 7680 1908 01       		.byte	.LVU403
 7681 1909 40020000 		.4byte	.LBB334
 7682 190d 02000000 		.4byte	.LBE334-.LBB334
 7683 1911 01       		.byte	0x1
 7684 1912 8D01     		.2byte	0x18d
 7685 1914 03       		.byte	0x3
 7686 1915 2F190000 		.4byte	0x192f
 7687 1919 3A       		.uleb128 0x3a
 7688 191a C32A0000 		.4byte	0x2ac3
 7689 191e 40020000 		.4byte	.LBI336
 7690 1922 03       		.byte	.LVU405
 7691 1923 40020000 		.4byte	.LBB336
 7692 1927 00000000 		.4byte	.LBE336-.LBB336
 7693 192b 02       		.byte	0x2
 7694 192c BD       		.byte	0xbd
 7695 192d 0A       		.byte	0xa
 7696 192e 00       		.byte	0
 7697 192f 2C       		.uleb128 0x2c
 7698 1930 30000000 		.4byte	.LVL109
 7699 1934 292C0000 		.4byte	0x2c29
 7700 1938 63190000 		.4byte	0x1963
 7701 193c 2D       		.uleb128 0x2d
 7702 193d 01       		.uleb128 0x1
 7703 193e 50       		.byte	0x50
 7704 193f 02       		.uleb128 0x2
 7705 1940 7A       		.byte	0x7a
 7706 1941 00       		.sleb128 0
 7707 1942 2D       		.uleb128 0x2d
 7708 1943 01       		.uleb128 0x1
 7709 1944 51       		.byte	0x51
 7710 1945 03       		.uleb128 0x3
 7711 1946 0A       		.byte	0xa
 7712 1947 F801     		.2byte	0x1f8
 7713 1949 2D       		.uleb128 0x2d
 7714 194a 01       		.uleb128 0x1
 7715 194b 52       		.byte	0x52
 7716 194c 02       		.uleb128 0x2
 7717 194d 77       		.byte	0x77
 7718 194e 00       		.sleb128 0
ARM GAS  /tmp/ccqhiTbD.s 			page 137


 7719 194f 2D       		.uleb128 0x2d
 7720 1950 01       		.uleb128 0x1
 7721 1951 53       		.byte	0x53
 7722 1952 05       		.uleb128 0x5
 7723 1953 03       		.byte	0x3
 7724 1954 00000000 		.4byte	thread4a
 7725 1958 2D       		.uleb128 0x2d
 7726 1959 02       		.uleb128 0x2
 7727 195a 7D       		.byte	0x7d
 7728 195b 00       		.sleb128 0
 7729 195c 05       		.uleb128 0x5
 7730 195d 03       		.byte	0x3
 7731 195e 0C000000 		.4byte	.LC3
 7732 1962 00       		.byte	0
 7733 1963 2C       		.uleb128 0x2c
 7734 1964 50000000 		.4byte	.LVL111
 7735 1968 292C0000 		.4byte	0x2c29
 7736 196c 8D190000 		.4byte	0x198d
 7737 1970 2D       		.uleb128 0x2d
 7738 1971 01       		.uleb128 0x1
 7739 1972 50       		.byte	0x50
 7740 1973 02       		.uleb128 0x2
 7741 1974 79       		.byte	0x79
 7742 1975 00       		.sleb128 0
 7743 1976 2D       		.uleb128 0x2d
 7744 1977 01       		.uleb128 0x1
 7745 1978 51       		.byte	0x51
 7746 1979 03       		.uleb128 0x3
 7747 197a 0A       		.byte	0xa
 7748 197b F801     		.2byte	0x1f8
 7749 197d 2D       		.uleb128 0x2d
 7750 197e 01       		.uleb128 0x1
 7751 197f 52       		.byte	0x52
 7752 1980 02       		.uleb128 0x2
 7753 1981 78       		.byte	0x78
 7754 1982 00       		.sleb128 0
 7755 1983 2D       		.uleb128 0x2d
 7756 1984 01       		.uleb128 0x1
 7757 1985 53       		.byte	0x53
 7758 1986 05       		.uleb128 0x5
 7759 1987 03       		.byte	0x3
 7760 1988 00000000 		.4byte	thread4b
 7761 198c 00       		.byte	0
 7762 198d 2C       		.uleb128 0x2c
 7763 198e 5A000000 		.4byte	.LVL112
 7764 1992 622C0000 		.4byte	0x2c62
 7765 1996 A4190000 		.4byte	0x19a4
 7766 199a 2D       		.uleb128 0x2d
 7767 199b 01       		.uleb128 0x1
 7768 199c 50       		.byte	0x50
 7769 199d 05       		.uleb128 0x5
 7770 199e 03       		.byte	0x3
 7771 199f 00000000 		.4byte	.LANCHOR1
 7772 19a3 00       		.byte	0
 7773 19a4 2C       		.uleb128 0x2c
 7774 19a5 6C000000 		.4byte	.LVL113
 7775 19a9 182D0000 		.4byte	0x2d18
ARM GAS  /tmp/ccqhiTbD.s 			page 138


 7776 19ad B7190000 		.4byte	0x19b7
 7777 19b1 2D       		.uleb128 0x2d
 7778 19b2 01       		.uleb128 0x1
 7779 19b3 50       		.byte	0x50
 7780 19b4 01       		.uleb128 0x1
 7781 19b5 31       		.byte	0x31
 7782 19b6 00       		.byte	0
 7783 19b7 2C       		.uleb128 0x2c
 7784 19b8 86000000 		.4byte	.LVL115
 7785 19bc 242D0000 		.4byte	0x2d24
 7786 19c0 CB190000 		.4byte	0x19cb
 7787 19c4 2D       		.uleb128 0x2d
 7788 19c5 01       		.uleb128 0x1
 7789 19c6 50       		.byte	0x50
 7790 19c7 02       		.uleb128 0x2
 7791 19c8 08       		.byte	0x8
 7792 19c9 64       		.byte	0x64
 7793 19ca 00       		.byte	0
 7794 19cb 2C       		.uleb128 0x2c
 7795 19cc 98000000 		.4byte	.LVL116
 7796 19d0 182D0000 		.4byte	0x2d18
 7797 19d4 DE190000 		.4byte	0x19de
 7798 19d8 2D       		.uleb128 0x2d
 7799 19d9 01       		.uleb128 0x1
 7800 19da 50       		.byte	0x50
 7801 19db 01       		.uleb128 0x1
 7802 19dc 32       		.byte	0x32
 7803 19dd 00       		.byte	0
 7804 19de 2C       		.uleb128 0x2c
 7805 19df A2000000 		.4byte	.LVL117
 7806 19e3 622C0000 		.4byte	0x2c62
 7807 19e7 F5190000 		.4byte	0x19f5
 7808 19eb 2D       		.uleb128 0x2d
 7809 19ec 01       		.uleb128 0x1
 7810 19ed 50       		.byte	0x50
 7811 19ee 05       		.uleb128 0x5
 7812 19ef 03       		.byte	0x3
 7813 19f0 00000000 		.4byte	.LANCHOR0
 7814 19f4 00       		.byte	0
 7815 19f5 2C       		.uleb128 0x2c
 7816 19f6 B4000000 		.4byte	.LVL118
 7817 19fa 182D0000 		.4byte	0x2d18
 7818 19fe 081A0000 		.4byte	0x1a08
 7819 1a02 2D       		.uleb128 0x2d
 7820 1a03 01       		.uleb128 0x1
 7821 1a04 50       		.byte	0x50
 7822 1a05 01       		.uleb128 0x1
 7823 1a06 33       		.byte	0x33
 7824 1a07 00       		.byte	0
 7825 1a08 2C       		.uleb128 0x2c
 7826 1a09 BE000000 		.4byte	.LVL119
 7827 1a0d 242D0000 		.4byte	0x2d24
 7828 1a11 1C1A0000 		.4byte	0x1a1c
 7829 1a15 2D       		.uleb128 0x2d
 7830 1a16 01       		.uleb128 0x1
 7831 1a17 50       		.byte	0x50
 7832 1a18 02       		.uleb128 0x2
ARM GAS  /tmp/ccqhiTbD.s 			page 139


 7833 1a19 08       		.byte	0x8
 7834 1a1a 64       		.byte	0x64
 7835 1a1b 00       		.byte	0
 7836 1a1c 2C       		.uleb128 0x2c
 7837 1a1d D2000000 		.4byte	.LVL120
 7838 1a21 182D0000 		.4byte	0x2d18
 7839 1a25 2F1A0000 		.4byte	0x1a2f
 7840 1a29 2D       		.uleb128 0x2d
 7841 1a2a 01       		.uleb128 0x1
 7842 1a2b 50       		.byte	0x50
 7843 1a2c 01       		.uleb128 0x1
 7844 1a2d 34       		.byte	0x34
 7845 1a2e 00       		.byte	0
 7846 1a2f 2C       		.uleb128 0x2c
 7847 1a30 DC000000 		.4byte	.LVL121
 7848 1a34 7A2C0000 		.4byte	0x2c7a
 7849 1a38 461A0000 		.4byte	0x1a46
 7850 1a3c 2D       		.uleb128 0x2d
 7851 1a3d 01       		.uleb128 0x1
 7852 1a3e 50       		.byte	0x50
 7853 1a3f 05       		.uleb128 0x5
 7854 1a40 03       		.byte	0x3
 7855 1a41 00000000 		.4byte	.LANCHOR0
 7856 1a45 00       		.byte	0
 7857 1a46 2C       		.uleb128 0x2c
 7858 1a47 EE000000 		.4byte	.LVL122
 7859 1a4b 182D0000 		.4byte	0x2d18
 7860 1a4f 591A0000 		.4byte	0x1a59
 7861 1a53 2D       		.uleb128 0x2d
 7862 1a54 01       		.uleb128 0x1
 7863 1a55 50       		.byte	0x50
 7864 1a56 01       		.uleb128 0x1
 7865 1a57 35       		.byte	0x35
 7866 1a58 00       		.byte	0
 7867 1a59 2C       		.uleb128 0x2c
 7868 1a5a F8000000 		.4byte	.LVL123
 7869 1a5e 242D0000 		.4byte	0x2d24
 7870 1a62 6D1A0000 		.4byte	0x1a6d
 7871 1a66 2D       		.uleb128 0x2d
 7872 1a67 01       		.uleb128 0x1
 7873 1a68 50       		.byte	0x50
 7874 1a69 02       		.uleb128 0x2
 7875 1a6a 08       		.byte	0x8
 7876 1a6b 64       		.byte	0x64
 7877 1a6c 00       		.byte	0
 7878 1a6d 2C       		.uleb128 0x2c
 7879 1a6e 0A010000 		.4byte	.LVL124
 7880 1a72 182D0000 		.4byte	0x2d18
 7881 1a76 801A0000 		.4byte	0x1a80
 7882 1a7a 2D       		.uleb128 0x2d
 7883 1a7b 01       		.uleb128 0x1
 7884 1a7c 50       		.byte	0x50
 7885 1a7d 01       		.uleb128 0x1
 7886 1a7e 36       		.byte	0x36
 7887 1a7f 00       		.byte	0
 7888 1a80 2E       		.uleb128 0x2e
 7889 1a81 12010000 		.4byte	.LVL125
ARM GAS  /tmp/ccqhiTbD.s 			page 140


 7890 1a85 302D0000 		.4byte	0x2d30
 7891 1a89 2C       		.uleb128 0x2c
 7892 1a8a 24010000 		.4byte	.LVL126
 7893 1a8e 182D0000 		.4byte	0x2d18
 7894 1a92 9C1A0000 		.4byte	0x1a9c
 7895 1a96 2D       		.uleb128 0x2d
 7896 1a97 01       		.uleb128 0x1
 7897 1a98 50       		.byte	0x50
 7898 1a99 01       		.uleb128 0x1
 7899 1a9a 37       		.byte	0x37
 7900 1a9b 00       		.byte	0
 7901 1a9c 2E       		.uleb128 0x2e
 7902 1a9d 2C010000 		.4byte	.LVL127
 7903 1aa1 412C0000 		.4byte	0x2c41
 7904 1aa5 2C       		.uleb128 0x2c
 7905 1aa6 3E010000 		.4byte	.LVL128
 7906 1aaa 292C0000 		.4byte	0x2c29
 7907 1aae D91A0000 		.4byte	0x1ad9
 7908 1ab2 2D       		.uleb128 0x2d
 7909 1ab3 01       		.uleb128 0x1
 7910 1ab4 50       		.byte	0x50
 7911 1ab5 02       		.uleb128 0x2
 7912 1ab6 7A       		.byte	0x7a
 7913 1ab7 00       		.sleb128 0
 7914 1ab8 2D       		.uleb128 0x2d
 7915 1ab9 01       		.uleb128 0x1
 7916 1aba 51       		.byte	0x51
 7917 1abb 03       		.uleb128 0x3
 7918 1abc 0A       		.byte	0xa
 7919 1abd F801     		.2byte	0x1f8
 7920 1abf 2D       		.uleb128 0x2d
 7921 1ac0 01       		.uleb128 0x1
 7922 1ac1 52       		.byte	0x52
 7923 1ac2 02       		.uleb128 0x2
 7924 1ac3 77       		.byte	0x77
 7925 1ac4 00       		.sleb128 0
 7926 1ac5 2D       		.uleb128 0x2d
 7927 1ac6 01       		.uleb128 0x1
 7928 1ac7 53       		.byte	0x53
 7929 1ac8 05       		.uleb128 0x5
 7930 1ac9 03       		.byte	0x3
 7931 1aca 00000000 		.4byte	thread4a
 7932 1ace 2D       		.uleb128 0x2d
 7933 1acf 02       		.uleb128 0x2
 7934 1ad0 7D       		.byte	0x7d
 7935 1ad1 00       		.sleb128 0
 7936 1ad2 05       		.uleb128 0x5
 7937 1ad3 03       		.byte	0x3
 7938 1ad4 04000000 		.4byte	.LC1
 7939 1ad8 00       		.byte	0
 7940 1ad9 2C       		.uleb128 0x2c
 7941 1ada 54010000 		.4byte	.LVL129
 7942 1ade 292C0000 		.4byte	0x2c29
 7943 1ae2 031B0000 		.4byte	0x1b03
 7944 1ae6 2D       		.uleb128 0x2d
 7945 1ae7 01       		.uleb128 0x1
 7946 1ae8 50       		.byte	0x50
ARM GAS  /tmp/ccqhiTbD.s 			page 141


 7947 1ae9 02       		.uleb128 0x2
 7948 1aea 79       		.byte	0x79
 7949 1aeb 00       		.sleb128 0
 7950 1aec 2D       		.uleb128 0x2d
 7951 1aed 01       		.uleb128 0x1
 7952 1aee 51       		.byte	0x51
 7953 1aef 03       		.uleb128 0x3
 7954 1af0 0A       		.byte	0xa
 7955 1af1 F801     		.2byte	0x1f8
 7956 1af3 2D       		.uleb128 0x2d
 7957 1af4 01       		.uleb128 0x1
 7958 1af5 52       		.byte	0x52
 7959 1af6 02       		.uleb128 0x2
 7960 1af7 78       		.byte	0x78
 7961 1af8 00       		.sleb128 0
 7962 1af9 2D       		.uleb128 0x2d
 7963 1afa 01       		.uleb128 0x1
 7964 1afb 53       		.byte	0x53
 7965 1afc 05       		.uleb128 0x5
 7966 1afd 03       		.byte	0x3
 7967 1afe 00000000 		.4byte	thread4b
 7968 1b02 00       		.byte	0
 7969 1b03 2C       		.uleb128 0x2c
 7970 1b04 5E010000 		.4byte	.LVL130
 7971 1b08 622C0000 		.4byte	0x2c62
 7972 1b0c 1A1B0000 		.4byte	0x1b1a
 7973 1b10 2D       		.uleb128 0x2d
 7974 1b11 01       		.uleb128 0x1
 7975 1b12 50       		.byte	0x50
 7976 1b13 05       		.uleb128 0x5
 7977 1b14 03       		.byte	0x3
 7978 1b15 00000000 		.4byte	.LANCHOR1
 7979 1b19 00       		.byte	0
 7980 1b1a 2C       		.uleb128 0x2c
 7981 1b1b 70010000 		.4byte	.LVL131
 7982 1b1f 182D0000 		.4byte	0x2d18
 7983 1b23 2D1B0000 		.4byte	0x1b2d
 7984 1b27 2D       		.uleb128 0x2d
 7985 1b28 01       		.uleb128 0x1
 7986 1b29 50       		.byte	0x50
 7987 1b2a 01       		.uleb128 0x1
 7988 1b2b 38       		.byte	0x38
 7989 1b2c 00       		.byte	0
 7990 1b2d 2C       		.uleb128 0x2c
 7991 1b2e 7C010000 		.4byte	.LVL132
 7992 1b32 242D0000 		.4byte	0x2d24
 7993 1b36 411B0000 		.4byte	0x1b41
 7994 1b3a 2D       		.uleb128 0x2d
 7995 1b3b 01       		.uleb128 0x1
 7996 1b3c 50       		.byte	0x50
 7997 1b3d 02       		.uleb128 0x2
 7998 1b3e 08       		.byte	0x8
 7999 1b3f 64       		.byte	0x64
 8000 1b40 00       		.byte	0
 8001 1b41 2C       		.uleb128 0x2c
 8002 1b42 8E010000 		.4byte	.LVL133
 8003 1b46 182D0000 		.4byte	0x2d18
ARM GAS  /tmp/ccqhiTbD.s 			page 142


 8004 1b4a 541B0000 		.4byte	0x1b54
 8005 1b4e 2D       		.uleb128 0x2d
 8006 1b4f 01       		.uleb128 0x1
 8007 1b50 50       		.byte	0x50
 8008 1b51 01       		.uleb128 0x1
 8009 1b52 39       		.byte	0x39
 8010 1b53 00       		.byte	0
 8011 1b54 2C       		.uleb128 0x2c
 8012 1b55 9A010000 		.4byte	.LVL134
 8013 1b59 622C0000 		.4byte	0x2c62
 8014 1b5d 6B1B0000 		.4byte	0x1b6b
 8015 1b61 2D       		.uleb128 0x2d
 8016 1b62 01       		.uleb128 0x1
 8017 1b63 50       		.byte	0x50
 8018 1b64 05       		.uleb128 0x5
 8019 1b65 03       		.byte	0x3
 8020 1b66 00000000 		.4byte	.LANCHOR0
 8021 1b6a 00       		.byte	0
 8022 1b6b 2C       		.uleb128 0x2c
 8023 1b6c AC010000 		.4byte	.LVL135
 8024 1b70 182D0000 		.4byte	0x2d18
 8025 1b74 7E1B0000 		.4byte	0x1b7e
 8026 1b78 2D       		.uleb128 0x2d
 8027 1b79 01       		.uleb128 0x1
 8028 1b7a 50       		.byte	0x50
 8029 1b7b 01       		.uleb128 0x1
 8030 1b7c 3A       		.byte	0x3a
 8031 1b7d 00       		.byte	0
 8032 1b7e 2C       		.uleb128 0x2c
 8033 1b7f B8010000 		.4byte	.LVL136
 8034 1b83 242D0000 		.4byte	0x2d24
 8035 1b87 921B0000 		.4byte	0x1b92
 8036 1b8b 2D       		.uleb128 0x2d
 8037 1b8c 01       		.uleb128 0x1
 8038 1b8d 50       		.byte	0x50
 8039 1b8e 02       		.uleb128 0x2
 8040 1b8f 08       		.byte	0x8
 8041 1b90 64       		.byte	0x64
 8042 1b91 00       		.byte	0
 8043 1b92 2C       		.uleb128 0x2c
 8044 1b93 CE010000 		.4byte	.LVL137
 8045 1b97 182D0000 		.4byte	0x2d18
 8046 1b9b A51B0000 		.4byte	0x1ba5
 8047 1b9f 2D       		.uleb128 0x2d
 8048 1ba0 01       		.uleb128 0x1
 8049 1ba1 50       		.byte	0x50
 8050 1ba2 01       		.uleb128 0x1
 8051 1ba3 3B       		.byte	0x3b
 8052 1ba4 00       		.byte	0
 8053 1ba5 2C       		.uleb128 0x2c
 8054 1ba6 E8010000 		.4byte	.LVL142
 8055 1baa 3C2D0000 		.4byte	0x2d3c
 8056 1bae BC1B0000 		.4byte	0x1bbc
 8057 1bb2 2D       		.uleb128 0x2d
 8058 1bb3 01       		.uleb128 0x1
 8059 1bb4 50       		.byte	0x50
 8060 1bb5 05       		.uleb128 0x5
ARM GAS  /tmp/ccqhiTbD.s 			page 143


 8061 1bb6 03       		.byte	0x3
 8062 1bb7 00000000 		.4byte	.LANCHOR0
 8063 1bbb 00       		.byte	0
 8064 1bbc 2E       		.uleb128 0x2e
 8065 1bbd EC010000 		.4byte	.LVL143
 8066 1bc1 FF2C0000 		.4byte	0x2cff
 8067 1bc5 2C       		.uleb128 0x2c
 8068 1bc6 1A020000 		.4byte	.LVL148
 8069 1bca 182D0000 		.4byte	0x2d18
 8070 1bce E01B0000 		.4byte	0x1be0
 8071 1bd2 2D       		.uleb128 0x2d
 8072 1bd3 01       		.uleb128 0x1
 8073 1bd4 50       		.byte	0x50
 8074 1bd5 01       		.uleb128 0x1
 8075 1bd6 3C       		.byte	0x3c
 8076 1bd7 2D       		.uleb128 0x2d
 8077 1bd8 01       		.uleb128 0x1
 8078 1bd9 51       		.byte	0x51
 8079 1bda 04       		.uleb128 0x4
 8080 1bdb 76       		.byte	0x76
 8081 1bdc 00       		.sleb128 0
 8082 1bdd 30       		.byte	0x30
 8083 1bde 29       		.byte	0x29
 8084 1bdf 00       		.byte	0
 8085 1be0 2C       		.uleb128 0x2c
 8086 1be1 26020000 		.4byte	.LVL149
 8087 1be5 242D0000 		.4byte	0x2d24
 8088 1be9 F41B0000 		.4byte	0x1bf4
 8089 1bed 2D       		.uleb128 0x2d
 8090 1bee 01       		.uleb128 0x1
 8091 1bef 50       		.byte	0x50
 8092 1bf0 02       		.uleb128 0x2
 8093 1bf1 08       		.byte	0x8
 8094 1bf2 64       		.byte	0x64
 8095 1bf3 00       		.byte	0
 8096 1bf4 2C       		.uleb128 0x2c
 8097 1bf5 36020000 		.4byte	.LVL150
 8098 1bf9 182D0000 		.4byte	0x2d18
 8099 1bfd 071C0000 		.4byte	0x1c07
 8100 1c01 2D       		.uleb128 0x2d
 8101 1c02 01       		.uleb128 0x1
 8102 1c03 50       		.byte	0x50
 8103 1c04 01       		.uleb128 0x1
 8104 1c05 3D       		.byte	0x3d
 8105 1c06 00       		.byte	0
 8106 1c07 2E       		.uleb128 0x2e
 8107 1c08 40020000 		.4byte	.LVL151
 8108 1c0c 302D0000 		.4byte	0x2d30
 8109 1c10 2C       		.uleb128 0x2c
 8110 1c11 50020000 		.4byte	.LVL152
 8111 1c15 182D0000 		.4byte	0x2d18
 8112 1c19 231C0000 		.4byte	0x1c23
 8113 1c1d 2D       		.uleb128 0x2d
 8114 1c1e 01       		.uleb128 0x1
 8115 1c1f 50       		.byte	0x50
 8116 1c20 01       		.uleb128 0x1
 8117 1c21 3E       		.byte	0x3e
ARM GAS  /tmp/ccqhiTbD.s 			page 144


 8118 1c22 00       		.byte	0
 8119 1c23 3B       		.uleb128 0x3b
 8120 1c24 6A020000 		.4byte	.LVL154
 8121 1c28 412C0000 		.4byte	0x2c41
 8122 1c2c 2E       		.uleb128 0x2e
 8123 1c2d 6E020000 		.4byte	.LVL155
 8124 1c31 592C0000 		.4byte	0x2c59
 8125 1c35 00       		.byte	0
 8126 1c36 28       		.uleb128 0x28
 8127 1c37 CB020000 		.4byte	.LASF187
 8128 1c3b 01       		.byte	0x1
 8129 1c3c 5A01     		.2byte	0x15a
 8130 1c3e 08       		.byte	0x8
 8131 1c3f 00000000 		.4byte	.LFB236
 8132 1c43 3C000000 		.4byte	.LFE236-.LFB236
 8133 1c47 01       		.uleb128 0x1
 8134 1c48 9C       		.byte	0x9c
 8135 1c49 AC1C0000 		.4byte	0x1cac
 8136 1c4d 30       		.uleb128 0x30
 8137 1c4e 7000     		.ascii	"p\000"
 8138 1c50 01       		.byte	0x1
 8139 1c51 5A01     		.2byte	0x15a
 8140 1c53 08       		.byte	0x8
 8141 1c54 93030000 		.4byte	0x393
 8142 1c58 F4010000 		.4byte	.LLST11
 8143 1c5c F0010000 		.4byte	.LVUS11
 8144 1c60 2C       		.uleb128 0x2c
 8145 1c61 14000000 		.4byte	.LVL98
 8146 1c65 242D0000 		.4byte	0x2d24
 8147 1c69 741C0000 		.4byte	0x1c74
 8148 1c6d 2D       		.uleb128 0x2d
 8149 1c6e 01       		.uleb128 0x1
 8150 1c6f 50       		.byte	0x50
 8151 1c70 02       		.uleb128 0x2
 8152 1c71 08       		.byte	0x8
 8153 1c72 96       		.byte	0x96
 8154 1c73 00       		.byte	0
 8155 1c74 2C       		.uleb128 0x2c
 8156 1c75 1A000000 		.4byte	.LVL99
 8157 1c79 622C0000 		.4byte	0x2c62
 8158 1c7d 8B1C0000 		.4byte	0x1c8b
 8159 1c81 2D       		.uleb128 0x2d
 8160 1c82 01       		.uleb128 0x1
 8161 1c83 50       		.byte	0x50
 8162 1c84 05       		.uleb128 0x5
 8163 1c85 03       		.byte	0x3
 8164 1c86 00000000 		.4byte	.LANCHOR0
 8165 1c8a 00       		.byte	0
 8166 1c8b 2F       		.uleb128 0x2f
 8167 1c8c 30000000 		.4byte	.LVL100
 8168 1c90 7A2C0000 		.4byte	0x2c7a
 8169 1c94 A21C0000 		.4byte	0x1ca2
 8170 1c98 2D       		.uleb128 0x2d
 8171 1c99 01       		.uleb128 0x1
 8172 1c9a 50       		.byte	0x50
 8173 1c9b 05       		.uleb128 0x5
 8174 1c9c 03       		.byte	0x3
ARM GAS  /tmp/ccqhiTbD.s 			page 145


 8175 1c9d 00000000 		.4byte	.LANCHOR0
 8176 1ca1 00       		.byte	0
 8177 1ca2 2E       		.uleb128 0x2e
 8178 1ca3 34000000 		.4byte	.LVL101
 8179 1ca7 592C0000 		.4byte	0x2c59
 8180 1cab 00       		.byte	0
 8181 1cac 28       		.uleb128 0x28
 8182 1cad C2020000 		.4byte	.LASF188
 8183 1cb1 01       		.byte	0x1
 8184 1cb2 5201     		.2byte	0x152
 8185 1cb4 08       		.byte	0x8
 8186 1cb5 00000000 		.4byte	.LFB235
 8187 1cb9 3C000000 		.4byte	.LFE235-.LFB235
 8188 1cbd 01       		.uleb128 0x1
 8189 1cbe 9C       		.byte	0x9c
 8190 1cbf 221D0000 		.4byte	0x1d22
 8191 1cc3 30       		.uleb128 0x30
 8192 1cc4 7000     		.ascii	"p\000"
 8193 1cc6 01       		.byte	0x1
 8194 1cc7 5201     		.2byte	0x152
 8195 1cc9 08       		.byte	0x8
 8196 1cca 93030000 		.4byte	0x393
 8197 1cce 19020000 		.4byte	.LLST12
 8198 1cd2 15020000 		.4byte	.LVUS12
 8199 1cd6 2C       		.uleb128 0x2c
 8200 1cd7 14000000 		.4byte	.LVL104
 8201 1cdb 242D0000 		.4byte	0x2d24
 8202 1cdf EA1C0000 		.4byte	0x1cea
 8203 1ce3 2D       		.uleb128 0x2d
 8204 1ce4 01       		.uleb128 0x1
 8205 1ce5 50       		.byte	0x50
 8206 1ce6 02       		.uleb128 0x2
 8207 1ce7 08       		.byte	0x8
 8208 1ce8 32       		.byte	0x32
 8209 1ce9 00       		.byte	0
 8210 1cea 2C       		.uleb128 0x2c
 8211 1ceb 1A000000 		.4byte	.LVL105
 8212 1cef 622C0000 		.4byte	0x2c62
 8213 1cf3 011D0000 		.4byte	0x1d01
 8214 1cf7 2D       		.uleb128 0x2d
 8215 1cf8 01       		.uleb128 0x1
 8216 1cf9 50       		.byte	0x50
 8217 1cfa 05       		.uleb128 0x5
 8218 1cfb 03       		.byte	0x3
 8219 1cfc 00000000 		.4byte	.LANCHOR1
 8220 1d00 00       		.byte	0
 8221 1d01 2F       		.uleb128 0x2f
 8222 1d02 30000000 		.4byte	.LVL106
 8223 1d06 7A2C0000 		.4byte	0x2c7a
 8224 1d0a 181D0000 		.4byte	0x1d18
 8225 1d0e 2D       		.uleb128 0x2d
 8226 1d0f 01       		.uleb128 0x1
 8227 1d10 50       		.byte	0x50
 8228 1d11 05       		.uleb128 0x5
 8229 1d12 03       		.byte	0x3
 8230 1d13 00000000 		.4byte	.LANCHOR1
 8231 1d17 00       		.byte	0
ARM GAS  /tmp/ccqhiTbD.s 			page 146


 8232 1d18 2E       		.uleb128 0x2e
 8233 1d19 34000000 		.4byte	.LVL107
 8234 1d1d 592C0000 		.4byte	0x2c59
 8235 1d21 00       		.byte	0
 8236 1d22 31       		.uleb128 0x31
 8237 1d23 09020000 		.4byte	.LASF189
 8238 1d27 01       		.byte	0x1
 8239 1d28 4C01     		.2byte	0x14c
 8240 1d2a 0D       		.byte	0xd
 8241 1d2b 28       		.uleb128 0x28
 8242 1d2c 5B020000 		.4byte	.LASF190
 8243 1d30 01       		.byte	0x1
 8244 1d31 2B01     		.2byte	0x12b
 8245 1d33 0D       		.byte	0xd
 8246 1d34 00000000 		.4byte	.LFB233
 8247 1d38 2C010000 		.4byte	.LFE233-.LFB233
 8248 1d3c 01       		.uleb128 0x1
 8249 1d3d 9C       		.byte	0x9c
 8250 1d3e 74200000 		.4byte	0x2074
 8251 1d42 29       		.uleb128 0x29
 8252 1d43 92080000 		.4byte	.LASF191
 8253 1d47 01       		.byte	0x1
 8254 1d48 2C01     		.2byte	0x12c
 8255 1d4a 0D       		.byte	0xd
 8256 1d4b 43010000 		.4byte	0x143
 8257 1d4f 42020000 		.4byte	.LLST30
 8258 1d53 3A020000 		.4byte	.LVUS30
 8259 1d57 2A       		.uleb128 0x2a
 8260 1d58 D02A0000 		.4byte	0x2ad0
 8261 1d5c 14000000 		.4byte	.LBI532
 8262 1d60 01       		.byte	.LVU734
 8263 1d61 30030000 		.4byte	.Ldebug_ranges0+0x330
 8264 1d65 01       		.byte	0x1
 8265 1d66 2F01     		.2byte	0x12f
 8266 1d68 0A       		.byte	0xa
 8267 1d69 6D1E0000 		.4byte	0x1e6d
 8268 1d6d 34       		.uleb128 0x34
 8269 1d6e 30030000 		.4byte	.Ldebug_ranges0+0x330
 8270 1d72 3C       		.uleb128 0x3c
 8271 1d73 E12A0000 		.4byte	0x2ae1
 8272 1d77 7F020000 		.4byte	.LLST31
 8273 1d7b 79020000 		.4byte	.LVUS31
 8274 1d7f 3D       		.uleb128 0x3d
 8275 1d80 2E2B0000 		.4byte	0x2b2e
 8276 1d84 14000000 		.4byte	.LBI534
 8277 1d88 04       		.byte	.LVU737
 8278 1d89 58030000 		.4byte	.Ldebug_ranges0+0x358
 8279 1d8d 07       		.byte	0x7
 8280 1d8e FA       		.byte	0xfa
 8281 1d8f 03       		.byte	0x3
 8282 1d90 E21D0000 		.4byte	0x1de2
 8283 1d94 2A       		.uleb128 0x2a
 8284 1d95 682B0000 		.4byte	0x2b68
 8285 1d99 14000000 		.4byte	.LBI536
 8286 1d9d 06       		.byte	.LVU739
 8287 1d9e 78030000 		.4byte	.Ldebug_ranges0+0x378
 8288 1da2 03       		.byte	0x3
ARM GAS  /tmp/ccqhiTbD.s 			page 147


 8289 1da3 5C01     		.2byte	0x15c
 8290 1da5 03       		.byte	0x3
 8291 1da6 CF1D0000 		.4byte	0x1dcf
 8292 1daa 35       		.uleb128 0x35
 8293 1dab 722B0000 		.4byte	0x2b72
 8294 1daf 14000000 		.4byte	.LBI537
 8295 1db3 08       		.byte	.LVU741
 8296 1db4 14000000 		.4byte	.LBB537
 8297 1db8 06000000 		.4byte	.LBE537-.LBB537
 8298 1dbc 04       		.byte	0x4
 8299 1dbd BF01     		.2byte	0x1bf
 8300 1dbf 03       		.byte	0x3
 8301 1dc0 33       		.uleb128 0x33
 8302 1dc1 802B0000 		.4byte	0x2b80
 8303 1dc5 AD020000 		.4byte	.LLST32
 8304 1dc9 AB020000 		.4byte	.LVUS32
 8305 1dcd 00       		.byte	0
 8306 1dce 00       		.byte	0
 8307 1dcf 2E       		.uleb128 0x2e
 8308 1dd0 20000000 		.4byte	.LVL255
 8309 1dd4 B62C0000 		.4byte	0x2cb6
 8310 1dd8 2E       		.uleb128 0x2e
 8311 1dd9 24000000 		.4byte	.LVL256
 8312 1ddd C22C0000 		.4byte	0x2cc2
 8313 1de1 00       		.byte	0
 8314 1de2 2B       		.uleb128 0x2b
 8315 1de3 EE2A0000 		.4byte	0x2aee
 8316 1de7 24000000 		.4byte	.LBI543
 8317 1deb 01       		.byte	.LVU749
 8318 1dec 90030000 		.4byte	.Ldebug_ranges0+0x390
 8319 1df0 07       		.byte	0x7
 8320 1df1 FB       		.byte	0xfb
 8321 1df2 0D       		.byte	0xd
 8322 1df3 3E       		.uleb128 0x3e
 8323 1df4 FB2A0000 		.4byte	0x2afb
 8324 1df8 28000000 		.4byte	.LBI548
 8325 1dfc 02       		.byte	.LVU754
 8326 1dfd A8030000 		.4byte	.Ldebug_ranges0+0x3a8
 8327 1e01 07       		.byte	0x7
 8328 1e02 FC       		.byte	0xfc
 8329 1e03 03       		.byte	0x3
 8330 1e04 34       		.uleb128 0x34
 8331 1e05 A8030000 		.4byte	.Ldebug_ranges0+0x3a8
 8332 1e09 2A       		.uleb128 0x2a
 8333 1e0a 5E2B0000 		.4byte	0x2b5e
 8334 1e0e 40000000 		.4byte	.LBI550
 8335 1e12 02       		.byte	.LVU762
 8336 1e13 C8030000 		.4byte	.Ldebug_ranges0+0x3c8
 8337 1e17 03       		.byte	0x3
 8338 1e18 7301     		.2byte	0x173
 8339 1e1a 03       		.byte	0x3
 8340 1e1b 441E0000 		.4byte	0x1e44
 8341 1e1f 35       		.uleb128 0x35
 8342 1e20 722B0000 		.4byte	0x2b72
 8343 1e24 40000000 		.4byte	.LBI551
 8344 1e28 04       		.byte	.LVU764
 8345 1e29 40000000 		.4byte	.LBB551
ARM GAS  /tmp/ccqhiTbD.s 			page 148


 8346 1e2d 06000000 		.4byte	.LBE551-.LBB551
 8347 1e31 04       		.byte	0x4
 8348 1e32 CD01     		.2byte	0x1cd
 8349 1e34 03       		.byte	0x3
 8350 1e35 33       		.uleb128 0x33
 8351 1e36 802B0000 		.4byte	0x2b80
 8352 1e3a C4020000 		.4byte	.LLST33
 8353 1e3e C2020000 		.4byte	.LVUS33
 8354 1e42 00       		.byte	0
 8355 1e43 00       		.byte	0
 8356 1e44 2E       		.uleb128 0x2e
 8357 1e45 2C000000 		.4byte	.LVL258
 8358 1e49 CE2C0000 		.4byte	0x2cce
 8359 1e4d 2E       		.uleb128 0x2e
 8360 1e4e 30000000 		.4byte	.LVL259
 8361 1e52 DA2C0000 		.4byte	0x2cda
 8362 1e56 36       		.uleb128 0x36
 8363 1e57 DC000000 		.4byte	.LVL270
 8364 1e5b E62C0000 		.4byte	0x2ce6
 8365 1e5f 2D       		.uleb128 0x2d
 8366 1e60 01       		.uleb128 0x1
 8367 1e61 50       		.byte	0x50
 8368 1e62 05       		.uleb128 0x5
 8369 1e63 03       		.byte	0x3
 8370 1e64 00000000 		.4byte	.LANCHOR2
 8371 1e68 00       		.byte	0
 8372 1e69 00       		.byte	0
 8373 1e6a 00       		.byte	0
 8374 1e6b 00       		.byte	0
 8375 1e6c 00       		.byte	0
 8376 1e6d 39       		.uleb128 0x39
 8377 1e6e B62A0000 		.4byte	0x2ab6
 8378 1e72 46000000 		.4byte	.LBI563
 8379 1e76 04       		.byte	.LVU770
 8380 1e77 46000000 		.4byte	.LBB563
 8381 1e7b 02000000 		.4byte	.LBE563-.LBB563
 8382 1e7f 01       		.byte	0x1
 8383 1e80 3001     		.2byte	0x130
 8384 1e82 32       		.byte	0x32
 8385 1e83 9D1E0000 		.4byte	0x1e9d
 8386 1e87 3A       		.uleb128 0x3a
 8387 1e88 C32A0000 		.4byte	0x2ac3
 8388 1e8c 46000000 		.4byte	.LBI565
 8389 1e90 06       		.byte	.LVU772
 8390 1e91 46000000 		.4byte	.LBB565
 8391 1e95 00000000 		.4byte	.LBE565-.LBB565
 8392 1e99 02       		.byte	0x2
 8393 1e9a BD       		.byte	0xbd
 8394 1e9b 0A       		.byte	0xa
 8395 1e9c 00       		.byte	0
 8396 1e9d 2A       		.uleb128 0x2a
 8397 1e9e B62A0000 		.4byte	0x2ab6
 8398 1ea2 62000000 		.4byte	.LBI567
 8399 1ea6 01       		.byte	.LVU780
 8400 1ea7 E0030000 		.4byte	.Ldebug_ranges0+0x3e0
 8401 1eab 01       		.byte	0x1
 8402 1eac 3101     		.2byte	0x131
ARM GAS  /tmp/ccqhiTbD.s 			page 149


 8403 1eae 32       		.byte	0x32
 8404 1eaf C91E0000 		.4byte	0x1ec9
 8405 1eb3 3A       		.uleb128 0x3a
 8406 1eb4 C32A0000 		.4byte	0x2ac3
 8407 1eb8 62000000 		.4byte	.LBI569
 8408 1ebc 03       		.byte	.LVU782
 8409 1ebd 62000000 		.4byte	.LBB569
 8410 1ec1 00000000 		.4byte	.LBE569-.LBB569
 8411 1ec5 02       		.byte	0x2
 8412 1ec6 BD       		.byte	0xbd
 8413 1ec7 0A       		.byte	0xa
 8414 1ec8 00       		.byte	0
 8415 1ec9 2A       		.uleb128 0x2a
 8416 1eca B62A0000 		.4byte	0x2ab6
 8417 1ece 78000000 		.4byte	.LBI573
 8418 1ed2 01       		.byte	.LVU788
 8419 1ed3 F8030000 		.4byte	.Ldebug_ranges0+0x3f8
 8420 1ed7 01       		.byte	0x1
 8421 1ed8 3201     		.2byte	0x132
 8422 1eda 32       		.byte	0x32
 8423 1edb F51E0000 		.4byte	0x1ef5
 8424 1edf 3A       		.uleb128 0x3a
 8425 1ee0 C32A0000 		.4byte	0x2ac3
 8426 1ee4 78000000 		.4byte	.LBI575
 8427 1ee8 03       		.byte	.LVU790
 8428 1ee9 78000000 		.4byte	.LBB575
 8429 1eed 00000000 		.4byte	.LBE575-.LBB575
 8430 1ef1 02       		.byte	0x2
 8431 1ef2 BD       		.byte	0xbd
 8432 1ef3 0A       		.byte	0xa
 8433 1ef4 00       		.byte	0
 8434 1ef5 2A       		.uleb128 0x2a
 8435 1ef6 B62A0000 		.4byte	0x2ab6
 8436 1efa 8E000000 		.4byte	.LBI579
 8437 1efe 01       		.byte	.LVU796
 8438 1eff 10040000 		.4byte	.Ldebug_ranges0+0x410
 8439 1f03 01       		.byte	0x1
 8440 1f04 3301     		.2byte	0x133
 8441 1f06 32       		.byte	0x32
 8442 1f07 211F0000 		.4byte	0x1f21
 8443 1f0b 3A       		.uleb128 0x3a
 8444 1f0c C32A0000 		.4byte	0x2ac3
 8445 1f10 8E000000 		.4byte	.LBI581
 8446 1f14 03       		.byte	.LVU798
 8447 1f15 8E000000 		.4byte	.LBB581
 8448 1f19 00000000 		.4byte	.LBE581-.LBB581
 8449 1f1d 02       		.byte	0x2
 8450 1f1e BD       		.byte	0xbd
 8451 1f1f 0A       		.byte	0xa
 8452 1f20 00       		.byte	0
 8453 1f21 2A       		.uleb128 0x2a
 8454 1f22 B62A0000 		.4byte	0x2ab6
 8455 1f26 A4000000 		.4byte	.LBI585
 8456 1f2a 01       		.byte	.LVU804
 8457 1f2b 28040000 		.4byte	.Ldebug_ranges0+0x428
 8458 1f2f 01       		.byte	0x1
 8459 1f30 3401     		.2byte	0x134
ARM GAS  /tmp/ccqhiTbD.s 			page 150


 8460 1f32 32       		.byte	0x32
 8461 1f33 4D1F0000 		.4byte	0x1f4d
 8462 1f37 3A       		.uleb128 0x3a
 8463 1f38 C32A0000 		.4byte	0x2ac3
 8464 1f3c A4000000 		.4byte	.LBI587
 8465 1f40 03       		.byte	.LVU806
 8466 1f41 A4000000 		.4byte	.LBB587
 8467 1f45 00000000 		.4byte	.LBE587-.LBB587
 8468 1f49 02       		.byte	0x2
 8469 1f4a BD       		.byte	0xbd
 8470 1f4b 0A       		.byte	0xa
 8471 1f4c 00       		.byte	0
 8472 1f4d 2E       		.uleb128 0x2e
 8473 1f4e 14000000 		.4byte	.LVL253
 8474 1f52 482D0000 		.4byte	0x2d48
 8475 1f56 2C       		.uleb128 0x2c
 8476 1f57 5C000000 		.4byte	.LVL262
 8477 1f5b 292C0000 		.4byte	0x2c29
 8478 1f5f 821F0000 		.4byte	0x1f82
 8479 1f63 2D       		.uleb128 0x2d
 8480 1f64 01       		.uleb128 0x1
 8481 1f65 50       		.byte	0x50
 8482 1f66 03       		.uleb128 0x3
 8483 1f67 77       		.byte	0x77
 8484 1f68 00       		.sleb128 0
 8485 1f69 06       		.byte	0x6
 8486 1f6a 2D       		.uleb128 0x2d
 8487 1f6b 01       		.uleb128 0x1
 8488 1f6c 51       		.byte	0x51
 8489 1f6d 03       		.uleb128 0x3
 8490 1f6e 0A       		.byte	0xa
 8491 1f6f F801     		.2byte	0x1f8
 8492 1f71 2D       		.uleb128 0x2d
 8493 1f72 01       		.uleb128 0x1
 8494 1f73 53       		.byte	0x53
 8495 1f74 05       		.uleb128 0x5
 8496 1f75 03       		.byte	0x3
 8497 1f76 00000000 		.4byte	thread3LL
 8498 1f7a 2D       		.uleb128 0x2d
 8499 1f7b 02       		.uleb128 0x2
 8500 1f7c 7D       		.byte	0x7d
 8501 1f7d 00       		.sleb128 0
 8502 1f7e 02       		.uleb128 0x2
 8503 1f7f 75       		.byte	0x75
 8504 1f80 00       		.sleb128 0
 8505 1f81 00       		.byte	0
 8506 1f82 2C       		.uleb128 0x2c
 8507 1f83 74000000 		.4byte	.LVL263
 8508 1f87 292C0000 		.4byte	0x2c29
 8509 1f8b AE1F0000 		.4byte	0x1fae
 8510 1f8f 2D       		.uleb128 0x2d
 8511 1f90 01       		.uleb128 0x1
 8512 1f91 50       		.byte	0x50
 8513 1f92 03       		.uleb128 0x3
 8514 1f93 77       		.byte	0x77
 8515 1f94 04       		.sleb128 4
 8516 1f95 06       		.byte	0x6
ARM GAS  /tmp/ccqhiTbD.s 			page 151


 8517 1f96 2D       		.uleb128 0x2d
 8518 1f97 01       		.uleb128 0x1
 8519 1f98 51       		.byte	0x51
 8520 1f99 03       		.uleb128 0x3
 8521 1f9a 0A       		.byte	0xa
 8522 1f9b F801     		.2byte	0x1f8
 8523 1f9d 2D       		.uleb128 0x2d
 8524 1f9e 01       		.uleb128 0x1
 8525 1f9f 53       		.byte	0x53
 8526 1fa0 05       		.uleb128 0x5
 8527 1fa1 03       		.byte	0x3
 8528 1fa2 00000000 		.4byte	thread3L
 8529 1fa6 2D       		.uleb128 0x2d
 8530 1fa7 02       		.uleb128 0x2
 8531 1fa8 7D       		.byte	0x7d
 8532 1fa9 00       		.sleb128 0
 8533 1faa 02       		.uleb128 0x2
 8534 1fab 75       		.byte	0x75
 8535 1fac 00       		.sleb128 0
 8536 1fad 00       		.byte	0
 8537 1fae 2C       		.uleb128 0x2c
 8538 1faf 8A000000 		.4byte	.LVL264
 8539 1fb3 292C0000 		.4byte	0x2c29
 8540 1fb7 DA1F0000 		.4byte	0x1fda
 8541 1fbb 2D       		.uleb128 0x2d
 8542 1fbc 01       		.uleb128 0x1
 8543 1fbd 50       		.byte	0x50
 8544 1fbe 03       		.uleb128 0x3
 8545 1fbf 77       		.byte	0x77
 8546 1fc0 08       		.sleb128 8
 8547 1fc1 06       		.byte	0x6
 8548 1fc2 2D       		.uleb128 0x2d
 8549 1fc3 01       		.uleb128 0x1
 8550 1fc4 51       		.byte	0x51
 8551 1fc5 03       		.uleb128 0x3
 8552 1fc6 0A       		.byte	0xa
 8553 1fc7 F801     		.2byte	0x1f8
 8554 1fc9 2D       		.uleb128 0x2d
 8555 1fca 01       		.uleb128 0x1
 8556 1fcb 53       		.byte	0x53
 8557 1fcc 05       		.uleb128 0x5
 8558 1fcd 03       		.byte	0x3
 8559 1fce 00000000 		.4byte	thread3M
 8560 1fd2 2D       		.uleb128 0x2d
 8561 1fd3 02       		.uleb128 0x2
 8562 1fd4 7D       		.byte	0x7d
 8563 1fd5 00       		.sleb128 0
 8564 1fd6 02       		.uleb128 0x2
 8565 1fd7 75       		.byte	0x75
 8566 1fd8 00       		.sleb128 0
 8567 1fd9 00       		.byte	0
 8568 1fda 2C       		.uleb128 0x2c
 8569 1fdb A0000000 		.4byte	.LVL265
 8570 1fdf 292C0000 		.4byte	0x2c29
 8571 1fe3 06200000 		.4byte	0x2006
 8572 1fe7 2D       		.uleb128 0x2d
 8573 1fe8 01       		.uleb128 0x1
ARM GAS  /tmp/ccqhiTbD.s 			page 152


 8574 1fe9 50       		.byte	0x50
 8575 1fea 03       		.uleb128 0x3
 8576 1feb 77       		.byte	0x77
 8577 1fec 0C       		.sleb128 12
 8578 1fed 06       		.byte	0x6
 8579 1fee 2D       		.uleb128 0x2d
 8580 1fef 01       		.uleb128 0x1
 8581 1ff0 51       		.byte	0x51
 8582 1ff1 03       		.uleb128 0x3
 8583 1ff2 0A       		.byte	0xa
 8584 1ff3 F801     		.2byte	0x1f8
 8585 1ff5 2D       		.uleb128 0x2d
 8586 1ff6 01       		.uleb128 0x1
 8587 1ff7 53       		.byte	0x53
 8588 1ff8 05       		.uleb128 0x5
 8589 1ff9 03       		.byte	0x3
 8590 1ffa 00000000 		.4byte	thread3H
 8591 1ffe 2D       		.uleb128 0x2d
 8592 1fff 02       		.uleb128 0x2
 8593 2000 7D       		.byte	0x7d
 8594 2001 00       		.sleb128 0
 8595 2002 02       		.uleb128 0x2
 8596 2003 75       		.byte	0x75
 8597 2004 00       		.sleb128 0
 8598 2005 00       		.byte	0
 8599 2006 2C       		.uleb128 0x2c
 8600 2007 B6000000 		.4byte	.LVL266
 8601 200b 292C0000 		.4byte	0x2c29
 8602 200f 32200000 		.4byte	0x2032
 8603 2013 2D       		.uleb128 0x2d
 8604 2014 01       		.uleb128 0x1
 8605 2015 50       		.byte	0x50
 8606 2016 03       		.uleb128 0x3
 8607 2017 77       		.byte	0x77
 8608 2018 10       		.sleb128 16
 8609 2019 06       		.byte	0x6
 8610 201a 2D       		.uleb128 0x2d
 8611 201b 01       		.uleb128 0x1
 8612 201c 51       		.byte	0x51
 8613 201d 03       		.uleb128 0x3
 8614 201e 0A       		.byte	0xa
 8615 201f F801     		.2byte	0x1f8
 8616 2021 2D       		.uleb128 0x2d
 8617 2022 01       		.uleb128 0x1
 8618 2023 53       		.byte	0x53
 8619 2024 05       		.uleb128 0x5
 8620 2025 03       		.byte	0x3
 8621 2026 00000000 		.4byte	thread3HH
 8622 202a 2D       		.uleb128 0x2d
 8623 202b 02       		.uleb128 0x2
 8624 202c 7D       		.byte	0x7d
 8625 202d 00       		.sleb128 0
 8626 202e 02       		.uleb128 0x2
 8627 202f 75       		.byte	0x75
 8628 2030 00       		.sleb128 0
 8629 2031 00       		.byte	0
 8630 2032 2E       		.uleb128 0x2e
ARM GAS  /tmp/ccqhiTbD.s 			page 153


 8631 2033 BC000000 		.4byte	.LVL267
 8632 2037 412C0000 		.4byte	0x2c41
 8633 203b 2C       		.uleb128 0x2c
 8634 203c C4000000 		.4byte	.LVL268
 8635 2040 4D2C0000 		.4byte	0x2c4d
 8636 2044 57200000 		.4byte	0x2057
 8637 2048 2D       		.uleb128 0x2d
 8638 2049 01       		.uleb128 0x1
 8639 204a 50       		.byte	0x50
 8640 204b 01       		.uleb128 0x1
 8641 204c 31       		.byte	0x31
 8642 204d 2D       		.uleb128 0x2d
 8643 204e 01       		.uleb128 0x1
 8644 204f 51       		.byte	0x51
 8645 2050 05       		.uleb128 0x5
 8646 2051 03       		.byte	0x3
 8647 2052 14000000 		.4byte	.LC5
 8648 2056 00       		.byte	0
 8649 2057 2F       		.uleb128 0x2f
 8650 2058 FA000000 		.4byte	.LVL273
 8651 205c 542D0000 		.4byte	0x2d54
 8652 2060 6A200000 		.4byte	0x206a
 8653 2064 2D       		.uleb128 0x2d
 8654 2065 01       		.uleb128 0x1
 8655 2066 50       		.byte	0x50
 8656 2067 01       		.uleb128 0x1
 8657 2068 32       		.byte	0x32
 8658 2069 00       		.byte	0
 8659 206a 2E       		.uleb128 0x2e
 8660 206b FE000000 		.4byte	.LVL274
 8661 206f 592C0000 		.4byte	0x2c59
 8662 2073 00       		.byte	0
 8663 2074 28       		.uleb128 0x28
 8664 2075 51000000 		.4byte	.LASF192
 8665 2079 01       		.byte	0x1
 8666 207a 2101     		.2byte	0x121
 8667 207c 08       		.byte	0x8
 8668 207d 00000000 		.4byte	.LFB232
 8669 2081 48000000 		.4byte	.LFE232-.LFB232
 8670 2085 01       		.uleb128 0x1
 8671 2086 9C       		.byte	0x9c
 8672 2087 11210000 		.4byte	0x2111
 8673 208b 30       		.uleb128 0x30
 8674 208c 7000     		.ascii	"p\000"
 8675 208e 01       		.byte	0x1
 8676 208f 2101     		.2byte	0x121
 8677 2091 08       		.byte	0x8
 8678 2092 93030000 		.4byte	0x393
 8679 2096 DC020000 		.4byte	.LLST7
 8680 209a D8020000 		.4byte	.LVUS7
 8681 209e 2C       		.uleb128 0x2c
 8682 209f 14000000 		.4byte	.LVL64
 8683 20a3 242D0000 		.4byte	0x2d24
 8684 20a7 B2200000 		.4byte	0x20b2
 8685 20ab 2D       		.uleb128 0x2d
 8686 20ac 01       		.uleb128 0x1
 8687 20ad 50       		.byte	0x50
ARM GAS  /tmp/ccqhiTbD.s 			page 154


 8688 20ae 02       		.uleb128 0x2
 8689 20af 08       		.byte	0x8
 8690 20b0 32       		.byte	0x32
 8691 20b1 00       		.byte	0
 8692 20b2 2C       		.uleb128 0x2c
 8693 20b3 1A000000 		.4byte	.LVL65
 8694 20b7 622C0000 		.4byte	0x2c62
 8695 20bb C9200000 		.4byte	0x20c9
 8696 20bf 2D       		.uleb128 0x2d
 8697 20c0 01       		.uleb128 0x1
 8698 20c1 50       		.byte	0x50
 8699 20c2 05       		.uleb128 0x5
 8700 20c3 03       		.byte	0x3
 8701 20c4 00000000 		.4byte	.LANCHOR1
 8702 20c8 00       		.byte	0
 8703 20c9 2C       		.uleb128 0x2c
 8704 20ca 20000000 		.4byte	.LVL66
 8705 20ce 602D0000 		.4byte	0x2d60
 8706 20d2 DC200000 		.4byte	0x20dc
 8707 20d6 2D       		.uleb128 0x2d
 8708 20d7 01       		.uleb128 0x1
 8709 20d8 50       		.byte	0x50
 8710 20d9 01       		.uleb128 0x1
 8711 20da 3A       		.byte	0x3a
 8712 20db 00       		.byte	0
 8713 20dc 2C       		.uleb128 0x2c
 8714 20dd 26000000 		.4byte	.LVL67
 8715 20e1 7A2C0000 		.4byte	0x2c7a
 8716 20e5 F3200000 		.4byte	0x20f3
 8717 20e9 2D       		.uleb128 0x2d
 8718 20ea 01       		.uleb128 0x1
 8719 20eb 50       		.byte	0x50
 8720 20ec 05       		.uleb128 0x5
 8721 20ed 03       		.byte	0x3
 8722 20ee 00000000 		.4byte	.LANCHOR1
 8723 20f2 00       		.byte	0
 8724 20f3 2F       		.uleb128 0x2f
 8725 20f4 3C000000 		.4byte	.LVL68
 8726 20f8 6E2C0000 		.4byte	0x2c6e
 8727 20fc 07210000 		.4byte	0x2107
 8728 2100 2D       		.uleb128 0x2d
 8729 2101 01       		.uleb128 0x1
 8730 2102 50       		.byte	0x50
 8731 2103 02       		.uleb128 0x2
 8732 2104 08       		.byte	0x8
 8733 2105 41       		.byte	0x41
 8734 2106 00       		.byte	0
 8735 2107 2E       		.uleb128 0x2e
 8736 2108 40000000 		.4byte	.LVL69
 8737 210c 592C0000 		.4byte	0x2c59
 8738 2110 00       		.byte	0
 8739 2111 28       		.uleb128 0x28
 8740 2112 49020000 		.4byte	.LASF193
 8741 2116 01       		.byte	0x1
 8742 2117 1801     		.2byte	0x118
 8743 2119 08       		.byte	0x8
 8744 211a 00000000 		.4byte	.LFB231
ARM GAS  /tmp/ccqhiTbD.s 			page 155


 8745 211e 38000000 		.4byte	.LFE231-.LFB231
 8746 2122 01       		.uleb128 0x1
 8747 2123 9C       		.byte	0x9c
 8748 2124 80210000 		.4byte	0x2180
 8749 2128 30       		.uleb128 0x30
 8750 2129 7000     		.ascii	"p\000"
 8751 212b 01       		.byte	0x1
 8752 212c 1801     		.2byte	0x118
 8753 212e 08       		.byte	0x8
 8754 212f 93030000 		.4byte	0x393
 8755 2133 01030000 		.4byte	.LLST8
 8756 2137 FD020000 		.4byte	.LVUS8
 8757 213b 2C       		.uleb128 0x2c
 8758 213c 14000000 		.4byte	.LVL72
 8759 2140 242D0000 		.4byte	0x2d24
 8760 2144 4F210000 		.4byte	0x214f
 8761 2148 2D       		.uleb128 0x2d
 8762 2149 01       		.uleb128 0x1
 8763 214a 50       		.byte	0x50
 8764 214b 02       		.uleb128 0x2
 8765 214c 08       		.byte	0x8
 8766 214d 28       		.byte	0x28
 8767 214e 00       		.byte	0
 8768 214f 2C       		.uleb128 0x2c
 8769 2150 1A000000 		.4byte	.LVL73
 8770 2154 602D0000 		.4byte	0x2d60
 8771 2158 62210000 		.4byte	0x2162
 8772 215c 2D       		.uleb128 0x2d
 8773 215d 01       		.uleb128 0x1
 8774 215e 50       		.byte	0x50
 8775 215f 01       		.uleb128 0x1
 8776 2160 44       		.byte	0x44
 8777 2161 00       		.byte	0
 8778 2162 2F       		.uleb128 0x2f
 8779 2163 30000000 		.4byte	.LVL74
 8780 2167 6E2C0000 		.4byte	0x2c6e
 8781 216b 76210000 		.4byte	0x2176
 8782 216f 2D       		.uleb128 0x2d
 8783 2170 01       		.uleb128 0x1
 8784 2171 50       		.byte	0x50
 8785 2172 02       		.uleb128 0x2
 8786 2173 08       		.byte	0x8
 8787 2174 42       		.byte	0x42
 8788 2175 00       		.byte	0
 8789 2176 2E       		.uleb128 0x2e
 8790 2177 34000000 		.4byte	.LVL75
 8791 217b 592C0000 		.4byte	0x2c59
 8792 217f 00       		.byte	0
 8793 2180 28       		.uleb128 0x28
 8794 2181 52020000 		.4byte	.LASF194
 8795 2185 01       		.byte	0x1
 8796 2186 0D01     		.2byte	0x10d
 8797 2188 08       		.byte	0x8
 8798 2189 00000000 		.4byte	.LFB230
 8799 218d 48000000 		.4byte	.LFE230-.LFB230
 8800 2191 01       		.uleb128 0x1
 8801 2192 9C       		.byte	0x9c
ARM GAS  /tmp/ccqhiTbD.s 			page 156


 8802 2193 1C220000 		.4byte	0x221c
 8803 2197 30       		.uleb128 0x30
 8804 2198 7000     		.ascii	"p\000"
 8805 219a 01       		.byte	0x1
 8806 219b 0D01     		.2byte	0x10d
 8807 219d 08       		.byte	0x8
 8808 219e 93030000 		.4byte	0x393
 8809 21a2 26030000 		.4byte	.LLST9
 8810 21a6 22030000 		.4byte	.LVUS9
 8811 21aa 2C       		.uleb128 0x2c
 8812 21ab 14000000 		.4byte	.LVL78
 8813 21af 242D0000 		.4byte	0x2d24
 8814 21b3 BD210000 		.4byte	0x21bd
 8815 21b7 2D       		.uleb128 0x2d
 8816 21b8 01       		.uleb128 0x1
 8817 21b9 50       		.byte	0x50
 8818 21ba 01       		.uleb128 0x1
 8819 21bb 44       		.byte	0x44
 8820 21bc 00       		.byte	0
 8821 21bd 2C       		.uleb128 0x2c
 8822 21be 1A000000 		.4byte	.LVL79
 8823 21c2 622C0000 		.4byte	0x2c62
 8824 21c6 D4210000 		.4byte	0x21d4
 8825 21ca 2D       		.uleb128 0x2d
 8826 21cb 01       		.uleb128 0x1
 8827 21cc 50       		.byte	0x50
 8828 21cd 05       		.uleb128 0x5
 8829 21ce 03       		.byte	0x3
 8830 21cf 00000000 		.4byte	.LANCHOR1
 8831 21d3 00       		.byte	0
 8832 21d4 2C       		.uleb128 0x2c
 8833 21d5 20000000 		.4byte	.LVL80
 8834 21d9 602D0000 		.4byte	0x2d60
 8835 21dd E7210000 		.4byte	0x21e7
 8836 21e1 2D       		.uleb128 0x2d
 8837 21e2 01       		.uleb128 0x1
 8838 21e3 50       		.byte	0x50
 8839 21e4 01       		.uleb128 0x1
 8840 21e5 3A       		.byte	0x3a
 8841 21e6 00       		.byte	0
 8842 21e7 2C       		.uleb128 0x2c
 8843 21e8 26000000 		.4byte	.LVL81
 8844 21ec 7A2C0000 		.4byte	0x2c7a
 8845 21f0 FE210000 		.4byte	0x21fe
 8846 21f4 2D       		.uleb128 0x2d
 8847 21f5 01       		.uleb128 0x1
 8848 21f6 50       		.byte	0x50
 8849 21f7 05       		.uleb128 0x5
 8850 21f8 03       		.byte	0x3
 8851 21f9 00000000 		.4byte	.LANCHOR1
 8852 21fd 00       		.byte	0
 8853 21fe 2F       		.uleb128 0x2f
 8854 21ff 3C000000 		.4byte	.LVL82
 8855 2203 6E2C0000 		.4byte	0x2c6e
 8856 2207 12220000 		.4byte	0x2212
 8857 220b 2D       		.uleb128 0x2d
 8858 220c 01       		.uleb128 0x1
ARM GAS  /tmp/ccqhiTbD.s 			page 157


 8859 220d 50       		.byte	0x50
 8860 220e 02       		.uleb128 0x2
 8861 220f 08       		.byte	0x8
 8862 2210 43       		.byte	0x43
 8863 2211 00       		.byte	0
 8864 2212 2E       		.uleb128 0x2e
 8865 2213 40000000 		.4byte	.LVL83
 8866 2217 592C0000 		.4byte	0x2c59
 8867 221b 00       		.byte	0
 8868 221c 3F       		.uleb128 0x3f
 8869 221d 610C0000 		.4byte	.LASF195
 8870 2221 01       		.byte	0x1
 8871 2222 FE       		.byte	0xfe
 8872 2223 08       		.byte	0x8
 8873 2224 00000000 		.4byte	.LFB229
 8874 2228 64000000 		.4byte	.LFE229-.LFB229
 8875 222c 01       		.uleb128 0x1
 8876 222d 9C       		.byte	0x9c
 8877 222e 0A230000 		.4byte	0x230a
 8878 2232 40       		.uleb128 0x40
 8879 2233 7000     		.ascii	"p\000"
 8880 2235 01       		.byte	0x1
 8881 2236 FE       		.byte	0xfe
 8882 2237 08       		.byte	0x8
 8883 2238 93030000 		.4byte	0x393
 8884 223c 4B030000 		.4byte	.LLST10
 8885 2240 47030000 		.4byte	.LVUS10
 8886 2244 2C       		.uleb128 0x2c
 8887 2245 14000000 		.4byte	.LVL86
 8888 2249 242D0000 		.4byte	0x2d24
 8889 224d 57220000 		.4byte	0x2257
 8890 2251 2D       		.uleb128 0x2d
 8891 2252 01       		.uleb128 0x1
 8892 2253 50       		.byte	0x50
 8893 2254 01       		.uleb128 0x1
 8894 2255 3A       		.byte	0x3a
 8895 2256 00       		.byte	0
 8896 2257 2C       		.uleb128 0x2c
 8897 2258 1A000000 		.4byte	.LVL87
 8898 225c 622C0000 		.4byte	0x2c62
 8899 2260 6E220000 		.4byte	0x226e
 8900 2264 2D       		.uleb128 0x2d
 8901 2265 01       		.uleb128 0x1
 8902 2266 50       		.byte	0x50
 8903 2267 05       		.uleb128 0x5
 8904 2268 03       		.byte	0x3
 8905 2269 00000000 		.4byte	.LANCHOR1
 8906 226d 00       		.byte	0
 8907 226e 2C       		.uleb128 0x2c
 8908 226f 20000000 		.4byte	.LVL88
 8909 2273 602D0000 		.4byte	0x2d60
 8910 2277 81220000 		.4byte	0x2281
 8911 227b 2D       		.uleb128 0x2d
 8912 227c 01       		.uleb128 0x1
 8913 227d 50       		.byte	0x50
 8914 227e 01       		.uleb128 0x1
 8915 227f 44       		.byte	0x44
ARM GAS  /tmp/ccqhiTbD.s 			page 158


 8916 2280 00       		.byte	0
 8917 2281 2C       		.uleb128 0x2c
 8918 2282 26000000 		.4byte	.LVL89
 8919 2286 622C0000 		.4byte	0x2c62
 8920 228a 98220000 		.4byte	0x2298
 8921 228e 2D       		.uleb128 0x2d
 8922 228f 01       		.uleb128 0x1
 8923 2290 50       		.byte	0x50
 8924 2291 05       		.uleb128 0x5
 8925 2292 03       		.byte	0x3
 8926 2293 00000000 		.4byte	.LANCHOR0
 8927 2297 00       		.byte	0
 8928 2298 2C       		.uleb128 0x2c
 8929 2299 2C000000 		.4byte	.LVL90
 8930 229d 602D0000 		.4byte	0x2d60
 8931 22a1 AB220000 		.4byte	0x22ab
 8932 22a5 2D       		.uleb128 0x2d
 8933 22a6 01       		.uleb128 0x1
 8934 22a7 50       		.byte	0x50
 8935 22a8 01       		.uleb128 0x1
 8936 22a9 3A       		.byte	0x3a
 8937 22aa 00       		.byte	0
 8938 22ab 2C       		.uleb128 0x2c
 8939 22ac 32000000 		.4byte	.LVL91
 8940 22b0 7A2C0000 		.4byte	0x2c7a
 8941 22b4 C2220000 		.4byte	0x22c2
 8942 22b8 2D       		.uleb128 0x2d
 8943 22b9 01       		.uleb128 0x1
 8944 22ba 50       		.byte	0x50
 8945 22bb 05       		.uleb128 0x5
 8946 22bc 03       		.byte	0x3
 8947 22bd 00000000 		.4byte	.LANCHOR0
 8948 22c1 00       		.byte	0
 8949 22c2 2C       		.uleb128 0x2c
 8950 22c3 38000000 		.4byte	.LVL92
 8951 22c7 602D0000 		.4byte	0x2d60
 8952 22cb D5220000 		.4byte	0x22d5
 8953 22cf 2D       		.uleb128 0x2d
 8954 22d0 01       		.uleb128 0x1
 8955 22d1 50       		.byte	0x50
 8956 22d2 01       		.uleb128 0x1
 8957 22d3 3A       		.byte	0x3a
 8958 22d4 00       		.byte	0
 8959 22d5 2C       		.uleb128 0x2c
 8960 22d6 3E000000 		.4byte	.LVL93
 8961 22da 7A2C0000 		.4byte	0x2c7a
 8962 22de EC220000 		.4byte	0x22ec
 8963 22e2 2D       		.uleb128 0x2d
 8964 22e3 01       		.uleb128 0x1
 8965 22e4 50       		.byte	0x50
 8966 22e5 05       		.uleb128 0x5
 8967 22e6 03       		.byte	0x3
 8968 22e7 00000000 		.4byte	.LANCHOR1
 8969 22eb 00       		.byte	0
 8970 22ec 2F       		.uleb128 0x2f
 8971 22ed 54000000 		.4byte	.LVL94
 8972 22f1 6E2C0000 		.4byte	0x2c6e
ARM GAS  /tmp/ccqhiTbD.s 			page 159


 8973 22f5 00230000 		.4byte	0x2300
 8974 22f9 2D       		.uleb128 0x2d
 8975 22fa 01       		.uleb128 0x1
 8976 22fb 50       		.byte	0x50
 8977 22fc 02       		.uleb128 0x2
 8978 22fd 08       		.byte	0x8
 8979 22fe 44       		.byte	0x44
 8980 22ff 00       		.byte	0
 8981 2300 2E       		.uleb128 0x2e
 8982 2301 58000000 		.4byte	.LVL95
 8983 2305 592C0000 		.4byte	0x2c59
 8984 2309 00       		.byte	0
 8985 230a 3F       		.uleb128 0x3f
 8986 230b FA010000 		.4byte	.LASF196
 8987 230f 01       		.byte	0x1
 8988 2310 F4       		.byte	0xf4
 8989 2311 08       		.byte	0x8
 8990 2312 00000000 		.4byte	.LFB228
 8991 2316 44000000 		.4byte	.LFE228-.LFB228
 8992 231a 01       		.uleb128 0x1
 8993 231b 9C       		.byte	0x9c
 8994 231c 91230000 		.4byte	0x2391
 8995 2320 40       		.uleb128 0x40
 8996 2321 7000     		.ascii	"p\000"
 8997 2323 01       		.byte	0x1
 8998 2324 F4       		.byte	0xf4
 8999 2325 08       		.byte	0x8
 9000 2326 93030000 		.4byte	0x393
 9001 232a 70030000 		.4byte	.LLST4
 9002 232e 6C030000 		.4byte	.LVUS4
 9003 2332 2C       		.uleb128 0x2c
 9004 2333 14000000 		.4byte	.LVL43
 9005 2337 622C0000 		.4byte	0x2c62
 9006 233b 49230000 		.4byte	0x2349
 9007 233f 2D       		.uleb128 0x2d
 9008 2340 01       		.uleb128 0x1
 9009 2341 50       		.byte	0x50
 9010 2342 05       		.uleb128 0x5
 9011 2343 03       		.byte	0x3
 9012 2344 00000000 		.4byte	.LANCHOR0
 9013 2348 00       		.byte	0
 9014 2349 2C       		.uleb128 0x2c
 9015 234a 1A000000 		.4byte	.LVL44
 9016 234e 602D0000 		.4byte	0x2d60
 9017 2352 5C230000 		.4byte	0x235c
 9018 2356 2D       		.uleb128 0x2d
 9019 2357 01       		.uleb128 0x1
 9020 2358 50       		.byte	0x50
 9021 2359 01       		.uleb128 0x1
 9022 235a 4E       		.byte	0x4e
 9023 235b 00       		.byte	0
 9024 235c 2C       		.uleb128 0x2c
 9025 235d 20000000 		.4byte	.LVL45
 9026 2361 7A2C0000 		.4byte	0x2c7a
 9027 2365 73230000 		.4byte	0x2373
 9028 2369 2D       		.uleb128 0x2d
 9029 236a 01       		.uleb128 0x1
ARM GAS  /tmp/ccqhiTbD.s 			page 160


 9030 236b 50       		.byte	0x50
 9031 236c 05       		.uleb128 0x5
 9032 236d 03       		.byte	0x3
 9033 236e 00000000 		.4byte	.LANCHOR0
 9034 2372 00       		.byte	0
 9035 2373 2F       		.uleb128 0x2f
 9036 2374 36000000 		.4byte	.LVL46
 9037 2378 6E2C0000 		.4byte	0x2c6e
 9038 237c 87230000 		.4byte	0x2387
 9039 2380 2D       		.uleb128 0x2d
 9040 2381 01       		.uleb128 0x1
 9041 2382 50       		.byte	0x50
 9042 2383 02       		.uleb128 0x2
 9043 2384 08       		.byte	0x8
 9044 2385 45       		.byte	0x45
 9045 2386 00       		.byte	0
 9046 2387 2E       		.uleb128 0x2e
 9047 2388 3A000000 		.4byte	.LVL47
 9048 238c 592C0000 		.4byte	0x2c59
 9049 2390 00       		.byte	0
 9050 2391 3F       		.uleb128 0x3f
 9051 2392 64010000 		.4byte	.LASF197
 9052 2396 01       		.byte	0x1
 9053 2397 ED       		.byte	0xed
 9054 2398 0D       		.byte	0xd
 9055 2399 00000000 		.4byte	.LFB227
 9056 239d 3C000000 		.4byte	.LFE227-.LFB227
 9057 23a1 01       		.uleb128 0x1
 9058 23a2 9C       		.byte	0x9c
 9059 23a3 DF230000 		.4byte	0x23df
 9060 23a7 2C       		.uleb128 0x2c
 9061 23a8 14000000 		.4byte	.LVL30
 9062 23ac 9E2C0000 		.4byte	0x2c9e
 9063 23b0 BE230000 		.4byte	0x23be
 9064 23b4 2D       		.uleb128 0x2d
 9065 23b5 01       		.uleb128 0x1
 9066 23b6 50       		.byte	0x50
 9067 23b7 05       		.uleb128 0x5
 9068 23b8 03       		.byte	0x3
 9069 23b9 00000000 		.4byte	.LANCHOR0
 9070 23bd 00       		.byte	0
 9071 23be 2F       		.uleb128 0x2f
 9072 23bf 2A000000 		.4byte	.LVL31
 9073 23c3 9E2C0000 		.4byte	0x2c9e
 9074 23c7 D5230000 		.4byte	0x23d5
 9075 23cb 2D       		.uleb128 0x2d
 9076 23cc 01       		.uleb128 0x1
 9077 23cd 50       		.byte	0x50
 9078 23ce 05       		.uleb128 0x5
 9079 23cf 03       		.byte	0x3
 9080 23d0 00000000 		.4byte	.LANCHOR1
 9081 23d4 00       		.byte	0
 9082 23d5 2E       		.uleb128 0x2e
 9083 23d6 2E000000 		.4byte	.LVL32
 9084 23da 592C0000 		.4byte	0x2c59
 9085 23de 00       		.byte	0
 9086 23df 3F       		.uleb128 0x3f
ARM GAS  /tmp/ccqhiTbD.s 			page 161


 9087 23e0 270C0000 		.4byte	.LASF198
 9088 23e4 01       		.byte	0x1
 9089 23e5 BA       		.byte	0xba
 9090 23e6 0D       		.byte	0xd
 9091 23e7 00000000 		.4byte	.LFB226
 9092 23eb F8000000 		.4byte	.LFE226-.LFB226
 9093 23ef 01       		.uleb128 0x1
 9094 23f0 9C       		.byte	0x9c
 9095 23f1 72260000 		.4byte	0x2672
 9096 23f5 41       		.uleb128 0x41
 9097 23f6 92080000 		.4byte	.LASF191
 9098 23fa 01       		.byte	0x1
 9099 23fb BB       		.byte	0xbb
 9100 23fc 0D       		.byte	0xd
 9101 23fd 43010000 		.4byte	0x143
 9102 2401 99030000 		.4byte	.LLST23
 9103 2405 91030000 		.4byte	.LVUS23
 9104 2409 3D       		.uleb128 0x3d
 9105 240a D02A0000 		.4byte	0x2ad0
 9106 240e 14000000 		.4byte	.LBI401
 9107 2412 01       		.byte	.LVU576
 9108 2413 80010000 		.4byte	.Ldebug_ranges0+0x180
 9109 2417 01       		.byte	0x1
 9110 2418 BE       		.byte	0xbe
 9111 2419 0A       		.byte	0xa
 9112 241a 1E250000 		.4byte	0x251e
 9113 241e 34       		.uleb128 0x34
 9114 241f 80010000 		.4byte	.Ldebug_ranges0+0x180
 9115 2423 3C       		.uleb128 0x3c
 9116 2424 E12A0000 		.4byte	0x2ae1
 9117 2428 D6030000 		.4byte	.LLST24
 9118 242c D0030000 		.4byte	.LVUS24
 9119 2430 3D       		.uleb128 0x3d
 9120 2431 2E2B0000 		.4byte	0x2b2e
 9121 2435 14000000 		.4byte	.LBI403
 9122 2439 04       		.byte	.LVU579
 9123 243a A8010000 		.4byte	.Ldebug_ranges0+0x1a8
 9124 243e 07       		.byte	0x7
 9125 243f FA       		.byte	0xfa
 9126 2440 03       		.byte	0x3
 9127 2441 93240000 		.4byte	0x2493
 9128 2445 2A       		.uleb128 0x2a
 9129 2446 682B0000 		.4byte	0x2b68
 9130 244a 14000000 		.4byte	.LBI405
 9131 244e 06       		.byte	.LVU581
 9132 244f C8010000 		.4byte	.Ldebug_ranges0+0x1c8
 9133 2453 03       		.byte	0x3
 9134 2454 5C01     		.2byte	0x15c
 9135 2456 03       		.byte	0x3
 9136 2457 80240000 		.4byte	0x2480
 9137 245b 35       		.uleb128 0x35
 9138 245c 722B0000 		.4byte	0x2b72
 9139 2460 14000000 		.4byte	.LBI406
 9140 2464 08       		.byte	.LVU583
 9141 2465 14000000 		.4byte	.LBB406
 9142 2469 06000000 		.4byte	.LBE406-.LBB406
 9143 246d 04       		.byte	0x4
ARM GAS  /tmp/ccqhiTbD.s 			page 162


 9144 246e BF01     		.2byte	0x1bf
 9145 2470 03       		.byte	0x3
 9146 2471 33       		.uleb128 0x33
 9147 2472 802B0000 		.4byte	0x2b80
 9148 2476 04040000 		.4byte	.LLST25
 9149 247a 02040000 		.4byte	.LVUS25
 9150 247e 00       		.byte	0
 9151 247f 00       		.byte	0
 9152 2480 2E       		.uleb128 0x2e
 9153 2481 20000000 		.4byte	.LVL210
 9154 2485 B62C0000 		.4byte	0x2cb6
 9155 2489 2E       		.uleb128 0x2e
 9156 248a 24000000 		.4byte	.LVL211
 9157 248e C22C0000 		.4byte	0x2cc2
 9158 2492 00       		.byte	0
 9159 2493 2B       		.uleb128 0x2b
 9160 2494 EE2A0000 		.4byte	0x2aee
 9161 2498 24000000 		.4byte	.LBI412
 9162 249c 01       		.byte	.LVU591
 9163 249d E0010000 		.4byte	.Ldebug_ranges0+0x1e0
 9164 24a1 07       		.byte	0x7
 9165 24a2 FB       		.byte	0xfb
 9166 24a3 0D       		.byte	0xd
 9167 24a4 3E       		.uleb128 0x3e
 9168 24a5 FB2A0000 		.4byte	0x2afb
 9169 24a9 28000000 		.4byte	.LBI417
 9170 24ad 02       		.byte	.LVU596
 9171 24ae F8010000 		.4byte	.Ldebug_ranges0+0x1f8
 9172 24b2 07       		.byte	0x7
 9173 24b3 FC       		.byte	0xfc
 9174 24b4 03       		.byte	0x3
 9175 24b5 34       		.uleb128 0x34
 9176 24b6 F8010000 		.4byte	.Ldebug_ranges0+0x1f8
 9177 24ba 2A       		.uleb128 0x2a
 9178 24bb 5E2B0000 		.4byte	0x2b5e
 9179 24bf 40000000 		.4byte	.LBI419
 9180 24c3 02       		.byte	.LVU604
 9181 24c4 18020000 		.4byte	.Ldebug_ranges0+0x218
 9182 24c8 03       		.byte	0x3
 9183 24c9 7301     		.2byte	0x173
 9184 24cb 03       		.byte	0x3
 9185 24cc F5240000 		.4byte	0x24f5
 9186 24d0 35       		.uleb128 0x35
 9187 24d1 722B0000 		.4byte	0x2b72
 9188 24d5 40000000 		.4byte	.LBI420
 9189 24d9 04       		.byte	.LVU606
 9190 24da 40000000 		.4byte	.LBB420
 9191 24de 06000000 		.4byte	.LBE420-.LBB420
 9192 24e2 04       		.byte	0x4
 9193 24e3 CD01     		.2byte	0x1cd
 9194 24e5 03       		.byte	0x3
 9195 24e6 33       		.uleb128 0x33
 9196 24e7 802B0000 		.4byte	0x2b80
 9197 24eb 1B040000 		.4byte	.LLST26
 9198 24ef 19040000 		.4byte	.LVUS26
 9199 24f3 00       		.byte	0
 9200 24f4 00       		.byte	0
ARM GAS  /tmp/ccqhiTbD.s 			page 163


 9201 24f5 2E       		.uleb128 0x2e
 9202 24f6 2C000000 		.4byte	.LVL213
 9203 24fa CE2C0000 		.4byte	0x2cce
 9204 24fe 2E       		.uleb128 0x2e
 9205 24ff 30000000 		.4byte	.LVL214
 9206 2503 DA2C0000 		.4byte	0x2cda
 9207 2507 36       		.uleb128 0x36
 9208 2508 B0000000 		.4byte	.LVL223
 9209 250c E62C0000 		.4byte	0x2ce6
 9210 2510 2D       		.uleb128 0x2d
 9211 2511 01       		.uleb128 0x1
 9212 2512 50       		.byte	0x50
 9213 2513 05       		.uleb128 0x5
 9214 2514 03       		.byte	0x3
 9215 2515 00000000 		.4byte	.LANCHOR2
 9216 2519 00       		.byte	0
 9217 251a 00       		.byte	0
 9218 251b 00       		.byte	0
 9219 251c 00       		.byte	0
 9220 251d 00       		.byte	0
 9221 251e 42       		.uleb128 0x42
 9222 251f B62A0000 		.4byte	0x2ab6
 9223 2523 46000000 		.4byte	.LBI432
 9224 2527 04       		.byte	.LVU612
 9225 2528 46000000 		.4byte	.LBB432
 9226 252c 02000000 		.4byte	.LBE432-.LBB432
 9227 2530 01       		.byte	0x1
 9228 2531 BF       		.byte	0xbf
 9229 2532 32       		.byte	0x32
 9230 2533 4D250000 		.4byte	0x254d
 9231 2537 3A       		.uleb128 0x3a
 9232 2538 C32A0000 		.4byte	0x2ac3
 9233 253c 46000000 		.4byte	.LBI434
 9234 2540 06       		.byte	.LVU614
 9235 2541 46000000 		.4byte	.LBB434
 9236 2545 00000000 		.4byte	.LBE434-.LBB434
 9237 2549 02       		.byte	0x2
 9238 254a BD       		.byte	0xbd
 9239 254b 0A       		.byte	0xa
 9240 254c 00       		.byte	0
 9241 254d 3D       		.uleb128 0x3d
 9242 254e B62A0000 		.4byte	0x2ab6
 9243 2552 62000000 		.4byte	.LBI436
 9244 2556 01       		.byte	.LVU622
 9245 2557 30020000 		.4byte	.Ldebug_ranges0+0x230
 9246 255b 01       		.byte	0x1
 9247 255c C0       		.byte	0xc0
 9248 255d 32       		.byte	0x32
 9249 255e 78250000 		.4byte	0x2578
 9250 2562 3A       		.uleb128 0x3a
 9251 2563 C32A0000 		.4byte	0x2ac3
 9252 2567 62000000 		.4byte	.LBI438
 9253 256b 03       		.byte	.LVU624
 9254 256c 62000000 		.4byte	.LBB438
 9255 2570 00000000 		.4byte	.LBE438-.LBB438
 9256 2574 02       		.byte	0x2
 9257 2575 BD       		.byte	0xbd
ARM GAS  /tmp/ccqhiTbD.s 			page 164


 9258 2576 0A       		.byte	0xa
 9259 2577 00       		.byte	0
 9260 2578 3D       		.uleb128 0x3d
 9261 2579 B62A0000 		.4byte	0x2ab6
 9262 257d 78000000 		.4byte	.LBI442
 9263 2581 01       		.byte	.LVU630
 9264 2582 48020000 		.4byte	.Ldebug_ranges0+0x248
 9265 2586 01       		.byte	0x1
 9266 2587 C1       		.byte	0xc1
 9267 2588 32       		.byte	0x32
 9268 2589 A3250000 		.4byte	0x25a3
 9269 258d 3A       		.uleb128 0x3a
 9270 258e C32A0000 		.4byte	0x2ac3
 9271 2592 78000000 		.4byte	.LBI444
 9272 2596 03       		.byte	.LVU632
 9273 2597 78000000 		.4byte	.LBB444
 9274 259b 00000000 		.4byte	.LBE444-.LBB444
 9275 259f 02       		.byte	0x2
 9276 25a0 BD       		.byte	0xbd
 9277 25a1 0A       		.byte	0xa
 9278 25a2 00       		.byte	0
 9279 25a3 2E       		.uleb128 0x2e
 9280 25a4 14000000 		.4byte	.LVL208
 9281 25a8 482D0000 		.4byte	0x2d48
 9282 25ac 2C       		.uleb128 0x2c
 9283 25ad 5C000000 		.4byte	.LVL217
 9284 25b1 292C0000 		.4byte	0x2c29
 9285 25b5 D8250000 		.4byte	0x25d8
 9286 25b9 2D       		.uleb128 0x2d
 9287 25ba 01       		.uleb128 0x1
 9288 25bb 50       		.byte	0x50
 9289 25bc 03       		.uleb128 0x3
 9290 25bd 77       		.byte	0x77
 9291 25be 00       		.sleb128 0
 9292 25bf 06       		.byte	0x6
 9293 25c0 2D       		.uleb128 0x2d
 9294 25c1 01       		.uleb128 0x1
 9295 25c2 51       		.byte	0x51
 9296 25c3 03       		.uleb128 0x3
 9297 25c4 0A       		.byte	0xa
 9298 25c5 F801     		.2byte	0x1f8
 9299 25c7 2D       		.uleb128 0x2d
 9300 25c8 01       		.uleb128 0x1
 9301 25c9 53       		.byte	0x53
 9302 25ca 05       		.uleb128 0x5
 9303 25cb 03       		.byte	0x3
 9304 25cc 00000000 		.4byte	thread2H
 9305 25d0 2D       		.uleb128 0x2d
 9306 25d1 02       		.uleb128 0x2
 9307 25d2 7D       		.byte	0x7d
 9308 25d3 00       		.sleb128 0
 9309 25d4 02       		.uleb128 0x2
 9310 25d5 75       		.byte	0x75
 9311 25d6 00       		.sleb128 0
 9312 25d7 00       		.byte	0
 9313 25d8 2C       		.uleb128 0x2c
 9314 25d9 74000000 		.4byte	.LVL218
ARM GAS  /tmp/ccqhiTbD.s 			page 165


 9315 25dd 292C0000 		.4byte	0x2c29
 9316 25e1 04260000 		.4byte	0x2604
 9317 25e5 2D       		.uleb128 0x2d
 9318 25e6 01       		.uleb128 0x1
 9319 25e7 50       		.byte	0x50
 9320 25e8 03       		.uleb128 0x3
 9321 25e9 77       		.byte	0x77
 9322 25ea 04       		.sleb128 4
 9323 25eb 06       		.byte	0x6
 9324 25ec 2D       		.uleb128 0x2d
 9325 25ed 01       		.uleb128 0x1
 9326 25ee 51       		.byte	0x51
 9327 25ef 03       		.uleb128 0x3
 9328 25f0 0A       		.byte	0xa
 9329 25f1 F801     		.2byte	0x1f8
 9330 25f3 2D       		.uleb128 0x2d
 9331 25f4 01       		.uleb128 0x1
 9332 25f5 53       		.byte	0x53
 9333 25f6 05       		.uleb128 0x5
 9334 25f7 03       		.byte	0x3
 9335 25f8 00000000 		.4byte	thread2M
 9336 25fc 2D       		.uleb128 0x2d
 9337 25fd 02       		.uleb128 0x2
 9338 25fe 7D       		.byte	0x7d
 9339 25ff 00       		.sleb128 0
 9340 2600 02       		.uleb128 0x2
 9341 2601 75       		.byte	0x75
 9342 2602 00       		.sleb128 0
 9343 2603 00       		.byte	0
 9344 2604 2C       		.uleb128 0x2c
 9345 2605 8A000000 		.4byte	.LVL219
 9346 2609 292C0000 		.4byte	0x2c29
 9347 260d 30260000 		.4byte	0x2630
 9348 2611 2D       		.uleb128 0x2d
 9349 2612 01       		.uleb128 0x1
 9350 2613 50       		.byte	0x50
 9351 2614 03       		.uleb128 0x3
 9352 2615 77       		.byte	0x77
 9353 2616 08       		.sleb128 8
 9354 2617 06       		.byte	0x6
 9355 2618 2D       		.uleb128 0x2d
 9356 2619 01       		.uleb128 0x1
 9357 261a 51       		.byte	0x51
 9358 261b 03       		.uleb128 0x3
 9359 261c 0A       		.byte	0xa
 9360 261d F801     		.2byte	0x1f8
 9361 261f 2D       		.uleb128 0x2d
 9362 2620 01       		.uleb128 0x1
 9363 2621 53       		.byte	0x53
 9364 2622 05       		.uleb128 0x5
 9365 2623 03       		.byte	0x3
 9366 2624 00000000 		.4byte	thread2L
 9367 2628 2D       		.uleb128 0x2d
 9368 2629 02       		.uleb128 0x2
 9369 262a 7D       		.byte	0x7d
 9370 262b 00       		.sleb128 0
 9371 262c 02       		.uleb128 0x2
ARM GAS  /tmp/ccqhiTbD.s 			page 166


 9372 262d 75       		.byte	0x75
 9373 262e 00       		.sleb128 0
 9374 262f 00       		.byte	0
 9375 2630 2E       		.uleb128 0x2e
 9376 2631 90000000 		.4byte	.LVL220
 9377 2635 412C0000 		.4byte	0x2c41
 9378 2639 2C       		.uleb128 0x2c
 9379 263a 98000000 		.4byte	.LVL221
 9380 263e 4D2C0000 		.4byte	0x2c4d
 9381 2642 55260000 		.4byte	0x2655
 9382 2646 2D       		.uleb128 0x2d
 9383 2647 01       		.uleb128 0x1
 9384 2648 50       		.byte	0x50
 9385 2649 01       		.uleb128 0x1
 9386 264a 31       		.byte	0x31
 9387 264b 2D       		.uleb128 0x2d
 9388 264c 01       		.uleb128 0x1
 9389 264d 51       		.byte	0x51
 9390 264e 05       		.uleb128 0x5
 9391 264f 03       		.byte	0x3
 9392 2650 00000000 		.4byte	.LC30
 9393 2654 00       		.byte	0
 9394 2655 2F       		.uleb128 0x2f
 9395 2656 CE000000 		.4byte	.LVL226
 9396 265a 542D0000 		.4byte	0x2d54
 9397 265e 68260000 		.4byte	0x2668
 9398 2662 2D       		.uleb128 0x2d
 9399 2663 01       		.uleb128 0x1
 9400 2664 50       		.byte	0x50
 9401 2665 01       		.uleb128 0x1
 9402 2666 32       		.byte	0x32
 9403 2667 00       		.byte	0
 9404 2668 2E       		.uleb128 0x2e
 9405 2669 D2000000 		.4byte	.LVL227
 9406 266d 592C0000 		.4byte	0x2c59
 9407 2671 00       		.byte	0
 9408 2672 3F       		.uleb128 0x3f
 9409 2673 A4010000 		.4byte	.LASF199
 9410 2677 01       		.byte	0x1
 9411 2678 B0       		.byte	0xb0
 9412 2679 08       		.byte	0x8
 9413 267a 00000000 		.4byte	.LFB225
 9414 267e 48000000 		.4byte	.LFE225-.LFB225
 9415 2682 01       		.uleb128 0x1
 9416 2683 9C       		.byte	0x9c
 9417 2684 0D270000 		.4byte	0x270d
 9418 2688 40       		.uleb128 0x40
 9419 2689 7000     		.ascii	"p\000"
 9420 268b 01       		.byte	0x1
 9421 268c B0       		.byte	0xb0
 9422 268d 08       		.byte	0x8
 9423 268e 93030000 		.4byte	0x393
 9424 2692 33040000 		.4byte	.LLST6
 9425 2696 2F040000 		.4byte	.LVUS6
 9426 269a 2C       		.uleb128 0x2c
 9427 269b 14000000 		.4byte	.LVL56
 9428 269f 242D0000 		.4byte	0x2d24
ARM GAS  /tmp/ccqhiTbD.s 			page 167


 9429 26a3 AE260000 		.4byte	0x26ae
 9430 26a7 2D       		.uleb128 0x2d
 9431 26a8 01       		.uleb128 0x1
 9432 26a9 50       		.byte	0x50
 9433 26aa 02       		.uleb128 0x2
 9434 26ab 08       		.byte	0x8
 9435 26ac 28       		.byte	0x28
 9436 26ad 00       		.byte	0
 9437 26ae 2C       		.uleb128 0x2c
 9438 26af 1A000000 		.4byte	.LVL57
 9439 26b3 622C0000 		.4byte	0x2c62
 9440 26b7 C5260000 		.4byte	0x26c5
 9441 26bb 2D       		.uleb128 0x2d
 9442 26bc 01       		.uleb128 0x1
 9443 26bd 50       		.byte	0x50
 9444 26be 05       		.uleb128 0x5
 9445 26bf 03       		.byte	0x3
 9446 26c0 00000000 		.4byte	.LANCHOR0
 9447 26c4 00       		.byte	0
 9448 26c5 2C       		.uleb128 0x2c
 9449 26c6 20000000 		.4byte	.LVL58
 9450 26ca 602D0000 		.4byte	0x2d60
 9451 26ce D8260000 		.4byte	0x26d8
 9452 26d2 2D       		.uleb128 0x2d
 9453 26d3 01       		.uleb128 0x1
 9454 26d4 50       		.byte	0x50
 9455 26d5 01       		.uleb128 0x1
 9456 26d6 3A       		.byte	0x3a
 9457 26d7 00       		.byte	0
 9458 26d8 2C       		.uleb128 0x2c
 9459 26d9 26000000 		.4byte	.LVL59
 9460 26dd 7A2C0000 		.4byte	0x2c7a
 9461 26e1 EF260000 		.4byte	0x26ef
 9462 26e5 2D       		.uleb128 0x2d
 9463 26e6 01       		.uleb128 0x1
 9464 26e7 50       		.byte	0x50
 9465 26e8 05       		.uleb128 0x5
 9466 26e9 03       		.byte	0x3
 9467 26ea 00000000 		.4byte	.LANCHOR0
 9468 26ee 00       		.byte	0
 9469 26ef 2F       		.uleb128 0x2f
 9470 26f0 3C000000 		.4byte	.LVL60
 9471 26f4 6E2C0000 		.4byte	0x2c6e
 9472 26f8 03270000 		.4byte	0x2703
 9473 26fc 2D       		.uleb128 0x2d
 9474 26fd 01       		.uleb128 0x1
 9475 26fe 50       		.byte	0x50
 9476 26ff 02       		.uleb128 0x2
 9477 2700 08       		.byte	0x8
 9478 2701 41       		.byte	0x41
 9479 2702 00       		.byte	0
 9480 2703 2E       		.uleb128 0x2e
 9481 2704 40000000 		.4byte	.LVL61
 9482 2708 592C0000 		.4byte	0x2c59
 9483 270c 00       		.byte	0
 9484 270d 3F       		.uleb128 0x3f
 9485 270e B5010000 		.4byte	.LASF200
ARM GAS  /tmp/ccqhiTbD.s 			page 168


 9486 2712 01       		.byte	0x1
 9487 2713 A7       		.byte	0xa7
 9488 2714 08       		.byte	0x8
 9489 2715 00000000 		.4byte	.LFB224
 9490 2719 38000000 		.4byte	.LFE224-.LFB224
 9491 271d 01       		.uleb128 0x1
 9492 271e 9C       		.byte	0x9c
 9493 271f 7A270000 		.4byte	0x277a
 9494 2723 40       		.uleb128 0x40
 9495 2724 7000     		.ascii	"p\000"
 9496 2726 01       		.byte	0x1
 9497 2727 A7       		.byte	0xa7
 9498 2728 08       		.byte	0x8
 9499 2729 93030000 		.4byte	0x393
 9500 272d 58040000 		.4byte	.LLST5
 9501 2731 54040000 		.4byte	.LVUS5
 9502 2735 2C       		.uleb128 0x2c
 9503 2736 14000000 		.4byte	.LVL50
 9504 273a 242D0000 		.4byte	0x2d24
 9505 273e 48270000 		.4byte	0x2748
 9506 2742 2D       		.uleb128 0x2d
 9507 2743 01       		.uleb128 0x1
 9508 2744 50       		.byte	0x50
 9509 2745 01       		.uleb128 0x1
 9510 2746 44       		.byte	0x44
 9511 2747 00       		.byte	0
 9512 2748 2C       		.uleb128 0x2c
 9513 2749 1A000000 		.4byte	.LVL51
 9514 274d 602D0000 		.4byte	0x2d60
 9515 2751 5C270000 		.4byte	0x275c
 9516 2755 2D       		.uleb128 0x2d
 9517 2756 01       		.uleb128 0x1
 9518 2757 50       		.byte	0x50
 9519 2758 02       		.uleb128 0x2
 9520 2759 08       		.byte	0x8
 9521 275a 28       		.byte	0x28
 9522 275b 00       		.byte	0
 9523 275c 2F       		.uleb128 0x2f
 9524 275d 30000000 		.4byte	.LVL52
 9525 2761 6E2C0000 		.4byte	0x2c6e
 9526 2765 70270000 		.4byte	0x2770
 9527 2769 2D       		.uleb128 0x2d
 9528 276a 01       		.uleb128 0x1
 9529 276b 50       		.byte	0x50
 9530 276c 02       		.uleb128 0x2
 9531 276d 08       		.byte	0x8
 9532 276e 42       		.byte	0x42
 9533 276f 00       		.byte	0
 9534 2770 2E       		.uleb128 0x2e
 9535 2771 34000000 		.4byte	.LVL53
 9536 2775 592C0000 		.4byte	0x2c59
 9537 2779 00       		.byte	0
 9538 277a 3F       		.uleb128 0x3f
 9539 277b E8070000 		.4byte	.LASF201
 9540 277f 01       		.byte	0x1
 9541 2780 9C       		.byte	0x9c
 9542 2781 08       		.byte	0x8
ARM GAS  /tmp/ccqhiTbD.s 			page 169


 9543 2782 00000000 		.4byte	.LFB223
 9544 2786 48000000 		.4byte	.LFE223-.LFB223
 9545 278a 01       		.uleb128 0x1
 9546 278b 9C       		.byte	0x9c
 9547 278c 15280000 		.4byte	0x2815
 9548 2790 40       		.uleb128 0x40
 9549 2791 7000     		.ascii	"p\000"
 9550 2793 01       		.byte	0x1
 9551 2794 9C       		.byte	0x9c
 9552 2795 08       		.byte	0x8
 9553 2796 93030000 		.4byte	0x393
 9554 279a 7D040000 		.4byte	.LLST3
 9555 279e 79040000 		.4byte	.LVUS3
 9556 27a2 2C       		.uleb128 0x2c
 9557 27a3 14000000 		.4byte	.LVL35
 9558 27a7 622C0000 		.4byte	0x2c62
 9559 27ab B9270000 		.4byte	0x27b9
 9560 27af 2D       		.uleb128 0x2d
 9561 27b0 01       		.uleb128 0x1
 9562 27b1 50       		.byte	0x50
 9563 27b2 05       		.uleb128 0x5
 9564 27b3 03       		.byte	0x3
 9565 27b4 00000000 		.4byte	.LANCHOR0
 9566 27b8 00       		.byte	0
 9567 27b9 2C       		.uleb128 0x2c
 9568 27ba 1A000000 		.4byte	.LVL36
 9569 27be 602D0000 		.4byte	0x2d60
 9570 27c2 CD270000 		.4byte	0x27cd
 9571 27c6 2D       		.uleb128 0x2d
 9572 27c7 01       		.uleb128 0x1
 9573 27c8 50       		.byte	0x50
 9574 27c9 02       		.uleb128 0x2
 9575 27ca 08       		.byte	0x8
 9576 27cb 28       		.byte	0x28
 9577 27cc 00       		.byte	0
 9578 27cd 2C       		.uleb128 0x2c
 9579 27ce 20000000 		.4byte	.LVL37
 9580 27d2 7A2C0000 		.4byte	0x2c7a
 9581 27d6 E4270000 		.4byte	0x27e4
 9582 27da 2D       		.uleb128 0x2d
 9583 27db 01       		.uleb128 0x1
 9584 27dc 50       		.byte	0x50
 9585 27dd 05       		.uleb128 0x5
 9586 27de 03       		.byte	0x3
 9587 27df 00000000 		.4byte	.LANCHOR0
 9588 27e3 00       		.byte	0
 9589 27e4 2C       		.uleb128 0x2c
 9590 27e5 26000000 		.4byte	.LVL38
 9591 27e9 602D0000 		.4byte	0x2d60
 9592 27ed F7270000 		.4byte	0x27f7
 9593 27f1 2D       		.uleb128 0x2d
 9594 27f2 01       		.uleb128 0x1
 9595 27f3 50       		.byte	0x50
 9596 27f4 01       		.uleb128 0x1
 9597 27f5 3A       		.byte	0x3a
 9598 27f6 00       		.byte	0
 9599 27f7 2F       		.uleb128 0x2f
ARM GAS  /tmp/ccqhiTbD.s 			page 170


 9600 27f8 3C000000 		.4byte	.LVL39
 9601 27fc 6E2C0000 		.4byte	0x2c6e
 9602 2800 0B280000 		.4byte	0x280b
 9603 2804 2D       		.uleb128 0x2d
 9604 2805 01       		.uleb128 0x1
 9605 2806 50       		.byte	0x50
 9606 2807 02       		.uleb128 0x2
 9607 2808 08       		.byte	0x8
 9608 2809 43       		.byte	0x43
 9609 280a 00       		.byte	0
 9610 280b 2E       		.uleb128 0x2e
 9611 280c 40000000 		.4byte	.LVL40
 9612 2810 592C0000 		.4byte	0x2c59
 9613 2814 00       		.byte	0
 9614 2815 43       		.uleb128 0x43
 9615 2816 F1000000 		.4byte	.LASF202
 9616 281a 01       		.byte	0x1
 9617 281b 96       		.byte	0x96
 9618 281c 0D       		.byte	0xd
 9619 281d 3F       		.uleb128 0x3f
 9620 281e 48070000 		.4byte	.LASF203
 9621 2822 01       		.byte	0x1
 9622 2823 60       		.byte	0x60
 9623 2824 0D       		.byte	0xd
 9624 2825 00000000 		.4byte	.LFB221
 9625 2829 04010000 		.4byte	.LFE221-.LFB221
 9626 282d 01       		.uleb128 0x1
 9627 282e 9C       		.byte	0x9c
 9628 282f 162A0000 		.4byte	0x2a16
 9629 2833 41       		.uleb128 0x41
 9630 2834 4D010000 		.4byte	.LASF175
 9631 2838 01       		.byte	0x1
 9632 2839 62       		.byte	0x62
 9633 283a 0B       		.byte	0xb
 9634 283b 07010000 		.4byte	0x107
 9635 283f A2040000 		.4byte	.LLST0
 9636 2843 9E040000 		.4byte	.LVUS0
 9637 2847 3D       		.uleb128 0x3d
 9638 2848 B62A0000 		.4byte	0x2ab6
 9639 284c 1A000000 		.4byte	.LBI167
 9640 2850 01       		.byte	.LVU11
 9641 2851 00000000 		.4byte	.Ldebug_ranges0+0
 9642 2855 01       		.byte	0x1
 9643 2856 62       		.byte	0x62
 9644 2857 12       		.byte	0x12
 9645 2858 6E280000 		.4byte	0x286e
 9646 285c 2B       		.uleb128 0x2b
 9647 285d C32A0000 		.4byte	0x2ac3
 9648 2861 1A000000 		.4byte	.LBI169
 9649 2865 03       		.byte	.LVU13
 9650 2866 28000000 		.4byte	.Ldebug_ranges0+0x28
 9651 286a 02       		.byte	0x2
 9652 286b BD       		.byte	0xbd
 9653 286c 0A       		.byte	0xa
 9654 286d 00       		.byte	0
 9655 286e 42       		.uleb128 0x42
 9656 286f B62A0000 		.4byte	0x2ab6
ARM GAS  /tmp/ccqhiTbD.s 			page 171


 9657 2873 96000000 		.4byte	.LBI179
 9658 2877 01       		.byte	.LVU48
 9659 2878 96000000 		.4byte	.LBB179
 9660 287c 02000000 		.4byte	.LBE179-.LBB179
 9661 2880 01       		.byte	0x1
 9662 2881 6B       		.byte	0x6b
 9663 2882 03       		.byte	0x3
 9664 2883 9D280000 		.4byte	0x289d
 9665 2887 3A       		.uleb128 0x3a
 9666 2888 C32A0000 		.4byte	0x2ac3
 9667 288c 96000000 		.4byte	.LBI181
 9668 2890 03       		.byte	.LVU50
 9669 2891 96000000 		.4byte	.LBB181
 9670 2895 00000000 		.4byte	.LBE181-.LBB181
 9671 2899 02       		.byte	0x2
 9672 289a BD       		.byte	0xbd
 9673 289b 0A       		.byte	0xa
 9674 289c 00       		.byte	0
 9675 289d 2C       		.uleb128 0x2c
 9676 289e 1E000000 		.4byte	.LVL1
 9677 28a2 622C0000 		.4byte	0x2c62
 9678 28a6 B4280000 		.4byte	0x28b4
 9679 28aa 2D       		.uleb128 0x2d
 9680 28ab 01       		.uleb128 0x1
 9681 28ac 50       		.byte	0x50
 9682 28ad 05       		.uleb128 0x5
 9683 28ae 03       		.byte	0x3
 9684 28af 00000000 		.4byte	.LANCHOR0
 9685 28b3 00       		.byte	0
 9686 28b4 2C       		.uleb128 0x2c
 9687 28b5 30000000 		.4byte	.LVL2
 9688 28b9 292C0000 		.4byte	0x2c29
 9689 28bd E9280000 		.4byte	0x28e9
 9690 28c1 2D       		.uleb128 0x2d
 9691 28c2 01       		.uleb128 0x1
 9692 28c3 50       		.byte	0x50
 9693 28c4 03       		.uleb128 0x3
 9694 28c5 76       		.byte	0x76
 9695 28c6 00       		.sleb128 0
 9696 28c7 06       		.byte	0x6
 9697 28c8 2D       		.uleb128 0x2d
 9698 28c9 01       		.uleb128 0x1
 9699 28ca 51       		.byte	0x51
 9700 28cb 03       		.uleb128 0x3
 9701 28cc 0A       		.byte	0xa
 9702 28cd F801     		.2byte	0x1f8
 9703 28cf 2D       		.uleb128 0x2d
 9704 28d0 01       		.uleb128 0x1
 9705 28d1 52       		.byte	0x52
 9706 28d2 02       		.uleb128 0x2
 9707 28d3 74       		.byte	0x74
 9708 28d4 01       		.sleb128 1
 9709 28d5 2D       		.uleb128 0x2d
 9710 28d6 01       		.uleb128 0x1
 9711 28d7 53       		.byte	0x53
 9712 28d8 05       		.uleb128 0x5
 9713 28d9 03       		.byte	0x3
ARM GAS  /tmp/ccqhiTbD.s 			page 172


 9714 28da 00000000 		.4byte	thread1
 9715 28de 2D       		.uleb128 0x2d
 9716 28df 02       		.uleb128 0x2
 9717 28e0 7D       		.byte	0x7d
 9718 28e1 00       		.sleb128 0
 9719 28e2 05       		.uleb128 0x5
 9720 28e3 03       		.byte	0x3
 9721 28e4 00000000 		.4byte	.LC0
 9722 28e8 00       		.byte	0
 9723 28e9 2C       		.uleb128 0x2c
 9724 28ea 46000000 		.4byte	.LVL3
 9725 28ee 292C0000 		.4byte	0x2c29
 9726 28f2 1E290000 		.4byte	0x291e
 9727 28f6 2D       		.uleb128 0x2d
 9728 28f7 01       		.uleb128 0x1
 9729 28f8 50       		.byte	0x50
 9730 28f9 03       		.uleb128 0x3
 9731 28fa 76       		.byte	0x76
 9732 28fb 04       		.sleb128 4
 9733 28fc 06       		.byte	0x6
 9734 28fd 2D       		.uleb128 0x2d
 9735 28fe 01       		.uleb128 0x1
 9736 28ff 51       		.byte	0x51
 9737 2900 03       		.uleb128 0x3
 9738 2901 0A       		.byte	0xa
 9739 2902 F801     		.2byte	0x1f8
 9740 2904 2D       		.uleb128 0x2d
 9741 2905 01       		.uleb128 0x1
 9742 2906 52       		.byte	0x52
 9743 2907 02       		.uleb128 0x2
 9744 2908 74       		.byte	0x74
 9745 2909 02       		.sleb128 2
 9746 290a 2D       		.uleb128 0x2d
 9747 290b 01       		.uleb128 0x1
 9748 290c 53       		.byte	0x53
 9749 290d 05       		.uleb128 0x5
 9750 290e 03       		.byte	0x3
 9751 290f 00000000 		.4byte	thread1
 9752 2913 2D       		.uleb128 0x2d
 9753 2914 02       		.uleb128 0x2
 9754 2915 7D       		.byte	0x7d
 9755 2916 00       		.sleb128 0
 9756 2917 05       		.uleb128 0x5
 9757 2918 03       		.byte	0x3
 9758 2919 04000000 		.4byte	.LC1
 9759 291d 00       		.byte	0
 9760 291e 2C       		.uleb128 0x2c
 9761 291f 5C000000 		.4byte	.LVL4
 9762 2923 292C0000 		.4byte	0x2c29
 9763 2927 53290000 		.4byte	0x2953
 9764 292b 2D       		.uleb128 0x2d
 9765 292c 01       		.uleb128 0x1
 9766 292d 50       		.byte	0x50
 9767 292e 03       		.uleb128 0x3
 9768 292f 76       		.byte	0x76
 9769 2930 08       		.sleb128 8
 9770 2931 06       		.byte	0x6
ARM GAS  /tmp/ccqhiTbD.s 			page 173


 9771 2932 2D       		.uleb128 0x2d
 9772 2933 01       		.uleb128 0x1
 9773 2934 51       		.byte	0x51
 9774 2935 03       		.uleb128 0x3
 9775 2936 0A       		.byte	0xa
 9776 2937 F801     		.2byte	0x1f8
 9777 2939 2D       		.uleb128 0x2d
 9778 293a 01       		.uleb128 0x1
 9779 293b 52       		.byte	0x52
 9780 293c 02       		.uleb128 0x2
 9781 293d 74       		.byte	0x74
 9782 293e 03       		.sleb128 3
 9783 293f 2D       		.uleb128 0x2d
 9784 2940 01       		.uleb128 0x1
 9785 2941 53       		.byte	0x53
 9786 2942 05       		.uleb128 0x5
 9787 2943 03       		.byte	0x3
 9788 2944 00000000 		.4byte	thread1
 9789 2948 2D       		.uleb128 0x2d
 9790 2949 02       		.uleb128 0x2
 9791 294a 7D       		.byte	0x7d
 9792 294b 00       		.sleb128 0
 9793 294c 05       		.uleb128 0x5
 9794 294d 03       		.byte	0x3
 9795 294e 08000000 		.4byte	.LC2
 9796 2952 00       		.byte	0
 9797 2953 2C       		.uleb128 0x2c
 9798 2954 72000000 		.4byte	.LVL5
 9799 2958 292C0000 		.4byte	0x2c29
 9800 295c 88290000 		.4byte	0x2988
 9801 2960 2D       		.uleb128 0x2d
 9802 2961 01       		.uleb128 0x1
 9803 2962 50       		.byte	0x50
 9804 2963 03       		.uleb128 0x3
 9805 2964 76       		.byte	0x76
 9806 2965 0C       		.sleb128 12
 9807 2966 06       		.byte	0x6
 9808 2967 2D       		.uleb128 0x2d
 9809 2968 01       		.uleb128 0x1
 9810 2969 51       		.byte	0x51
 9811 296a 03       		.uleb128 0x3
 9812 296b 0A       		.byte	0xa
 9813 296c F801     		.2byte	0x1f8
 9814 296e 2D       		.uleb128 0x2d
 9815 296f 01       		.uleb128 0x1
 9816 2970 52       		.byte	0x52
 9817 2971 02       		.uleb128 0x2
 9818 2972 74       		.byte	0x74
 9819 2973 04       		.sleb128 4
 9820 2974 2D       		.uleb128 0x2d
 9821 2975 01       		.uleb128 0x1
 9822 2976 53       		.byte	0x53
 9823 2977 05       		.uleb128 0x5
 9824 2978 03       		.byte	0x3
 9825 2979 00000000 		.4byte	thread1
 9826 297d 2D       		.uleb128 0x2d
 9827 297e 02       		.uleb128 0x2
ARM GAS  /tmp/ccqhiTbD.s 			page 174


 9828 297f 7D       		.byte	0x7d
 9829 2980 00       		.sleb128 0
 9830 2981 05       		.uleb128 0x5
 9831 2982 03       		.byte	0x3
 9832 2983 0C000000 		.4byte	.LC3
 9833 2987 00       		.byte	0
 9834 2988 2C       		.uleb128 0x2c
 9835 2989 88000000 		.4byte	.LVL6
 9836 298d 292C0000 		.4byte	0x2c29
 9837 2991 BD290000 		.4byte	0x29bd
 9838 2995 2D       		.uleb128 0x2d
 9839 2996 01       		.uleb128 0x1
 9840 2997 50       		.byte	0x50
 9841 2998 03       		.uleb128 0x3
 9842 2999 76       		.byte	0x76
 9843 299a 10       		.sleb128 16
 9844 299b 06       		.byte	0x6
 9845 299c 2D       		.uleb128 0x2d
 9846 299d 01       		.uleb128 0x1
 9847 299e 51       		.byte	0x51
 9848 299f 03       		.uleb128 0x3
 9849 29a0 0A       		.byte	0xa
 9850 29a1 F801     		.2byte	0x1f8
 9851 29a3 2D       		.uleb128 0x2d
 9852 29a4 01       		.uleb128 0x1
 9853 29a5 52       		.byte	0x52
 9854 29a6 02       		.uleb128 0x2
 9855 29a7 74       		.byte	0x74
 9856 29a8 05       		.sleb128 5
 9857 29a9 2D       		.uleb128 0x2d
 9858 29aa 01       		.uleb128 0x1
 9859 29ab 53       		.byte	0x53
 9860 29ac 05       		.uleb128 0x5
 9861 29ad 03       		.byte	0x3
 9862 29ae 00000000 		.4byte	thread1
 9863 29b2 2D       		.uleb128 0x2d
 9864 29b3 02       		.uleb128 0x2
 9865 29b4 7D       		.byte	0x7d
 9866 29b5 00       		.sleb128 0
 9867 29b6 05       		.uleb128 0x5
 9868 29b7 03       		.byte	0x3
 9869 29b8 10000000 		.4byte	.LC4
 9870 29bc 00       		.byte	0
 9871 29bd 2C       		.uleb128 0x2c
 9872 29be 92000000 		.4byte	.LVL7
 9873 29c2 7A2C0000 		.4byte	0x2c7a
 9874 29c6 D4290000 		.4byte	0x29d4
 9875 29ca 2D       		.uleb128 0x2d
 9876 29cb 01       		.uleb128 0x1
 9877 29cc 50       		.byte	0x50
 9878 29cd 05       		.uleb128 0x5
 9879 29ce 03       		.byte	0x3
 9880 29cf 00000000 		.4byte	.LANCHOR0
 9881 29d3 00       		.byte	0
 9882 29d4 2E       		.uleb128 0x2e
 9883 29d5 96000000 		.4byte	.LVL8
 9884 29d9 412C0000 		.4byte	0x2c41
ARM GAS  /tmp/ccqhiTbD.s 			page 175


 9885 29dd 2C       		.uleb128 0x2c
 9886 29de A8000000 		.4byte	.LVL9
 9887 29e2 182D0000 		.4byte	0x2d18
 9888 29e6 F0290000 		.4byte	0x29f0
 9889 29ea 2D       		.uleb128 0x2d
 9890 29eb 01       		.uleb128 0x1
 9891 29ec 50       		.byte	0x50
 9892 29ed 01       		.uleb128 0x1
 9893 29ee 31       		.byte	0x31
 9894 29ef 00       		.byte	0
 9895 29f0 2F       		.uleb128 0x2f
 9896 29f1 CE000000 		.4byte	.LVL12
 9897 29f5 4D2C0000 		.4byte	0x2c4d
 9898 29f9 0C2A0000 		.4byte	0x2a0c
 9899 29fd 2D       		.uleb128 0x2d
 9900 29fe 01       		.uleb128 0x1
 9901 29ff 50       		.byte	0x50
 9902 2a00 01       		.uleb128 0x1
 9903 2a01 32       		.byte	0x32
 9904 2a02 2D       		.uleb128 0x2d
 9905 2a03 01       		.uleb128 0x1
 9906 2a04 51       		.byte	0x51
 9907 2a05 05       		.uleb128 0x5
 9908 2a06 03       		.byte	0x3
 9909 2a07 14000000 		.4byte	.LC5
 9910 2a0b 00       		.byte	0
 9911 2a0c 2E       		.uleb128 0x2e
 9912 2a0d D2000000 		.4byte	.LVL13
 9913 2a11 592C0000 		.4byte	0x2c59
 9914 2a15 00       		.byte	0
 9915 2a16 3F       		.uleb128 0x3f
 9916 2a17 4C080000 		.4byte	.LASF204
 9917 2a1b 01       		.byte	0x1
 9918 2a1c 59       		.byte	0x59
 9919 2a1d 08       		.byte	0x8
 9920 2a1e 00000000 		.4byte	.LFB220
 9921 2a22 40000000 		.4byte	.LFE220-.LFB220
 9922 2a26 01       		.uleb128 0x1
 9923 2a27 9C       		.byte	0x9c
 9924 2a28 7F2A0000 		.4byte	0x2a7f
 9925 2a2c 40       		.uleb128 0x40
 9926 2a2d 7000     		.ascii	"p\000"
 9927 2a2f 01       		.byte	0x1
 9928 2a30 59       		.byte	0x59
 9929 2a31 08       		.byte	0x8
 9930 2a32 93030000 		.4byte	0x393
 9931 2a36 C8040000 		.4byte	.LLST1
 9932 2a3a C0040000 		.4byte	.LVUS1
 9933 2a3e 2C       		.uleb128 0x2c
 9934 2a3f 16000000 		.4byte	.LVL16
 9935 2a43 622C0000 		.4byte	0x2c62
 9936 2a47 552A0000 		.4byte	0x2a55
 9937 2a4b 2D       		.uleb128 0x2d
 9938 2a4c 01       		.uleb128 0x1
 9939 2a4d 50       		.byte	0x50
 9940 2a4e 05       		.uleb128 0x5
 9941 2a4f 03       		.byte	0x3
ARM GAS  /tmp/ccqhiTbD.s 			page 176


 9942 2a50 00000000 		.4byte	.LANCHOR0
 9943 2a54 00       		.byte	0
 9944 2a55 2E       		.uleb128 0x2e
 9945 2a56 1C000000 		.4byte	.LVL17
 9946 2a5a 6E2C0000 		.4byte	0x2c6e
 9947 2a5e 2F       		.uleb128 0x2f
 9948 2a5f 32000000 		.4byte	.LVL19
 9949 2a63 7A2C0000 		.4byte	0x2c7a
 9950 2a67 752A0000 		.4byte	0x2a75
 9951 2a6b 2D       		.uleb128 0x2d
 9952 2a6c 01       		.uleb128 0x1
 9953 2a6d 50       		.byte	0x50
 9954 2a6e 05       		.uleb128 0x5
 9955 2a6f 03       		.byte	0x3
 9956 2a70 00000000 		.4byte	.LANCHOR0
 9957 2a74 00       		.byte	0
 9958 2a75 2E       		.uleb128 0x2e
 9959 2a76 36000000 		.4byte	.LVL20
 9960 2a7a 592C0000 		.4byte	0x2c59
 9961 2a7e 00       		.byte	0
 9962 2a7f 3F       		.uleb128 0x3f
 9963 2a80 87080000 		.4byte	.LASF205
 9964 2a84 01       		.byte	0x1
 9965 2a85 54       		.byte	0x54
 9966 2a86 0D       		.byte	0xd
 9967 2a87 00000000 		.4byte	.LFB219
 9968 2a8b 30000000 		.4byte	.LFE219-.LFB219
 9969 2a8f 01       		.uleb128 0x1
 9970 2a90 9C       		.byte	0x9c
 9971 2a91 B62A0000 		.4byte	0x2ab6
 9972 2a95 2F       		.uleb128 0x2f
 9973 2a96 24000000 		.4byte	.LVL28
 9974 2a9a 9E2C0000 		.4byte	0x2c9e
 9975 2a9e AC2A0000 		.4byte	0x2aac
 9976 2aa2 2D       		.uleb128 0x2d
 9977 2aa3 01       		.uleb128 0x1
 9978 2aa4 50       		.byte	0x50
 9979 2aa5 05       		.uleb128 0x5
 9980 2aa6 03       		.byte	0x3
 9981 2aa7 00000000 		.4byte	.LANCHOR0
 9982 2aab 00       		.byte	0
 9983 2aac 2E       		.uleb128 0x2e
 9984 2aad 28000000 		.4byte	.LVL29
 9985 2ab1 592C0000 		.4byte	0x2c59
 9986 2ab5 00       		.byte	0
 9987 2ab6 44       		.uleb128 0x44
 9988 2ab7 AC000000 		.4byte	.LASF206
 9989 2abb 02       		.byte	0x2
 9990 2abc BB       		.byte	0xbb
 9991 2abd 17       		.byte	0x17
 9992 2abe 07010000 		.4byte	0x107
 9993 2ac2 03       		.byte	0x3
 9994 2ac3 44       		.uleb128 0x44
 9995 2ac4 1A090000 		.4byte	.LASF207
 9996 2ac8 02       		.byte	0x2
 9997 2ac9 AE       		.byte	0xae
 9998 2aca 19       		.byte	0x19
ARM GAS  /tmp/ccqhiTbD.s 			page 177


 9999 2acb A1020000 		.4byte	0x2a1
 10000 2acf 03       		.byte	0x3
 10001 2ad0 45       		.uleb128 0x45
 10002 2ad1 3B010000 		.4byte	.LASF211
 10003 2ad5 07       		.byte	0x7
 10004 2ad6 F7       		.byte	0xf7
 10005 2ad7 19       		.byte	0x19
 10006 2ad8 43010000 		.4byte	0x143
 10007 2adc 03       		.byte	0x3
 10008 2add EE2A0000 		.4byte	0x2aee
 10009 2ae1 46       		.uleb128 0x46
 10010 2ae2 9C010000 		.4byte	.LASF248
 10011 2ae6 07       		.byte	0x7
 10012 2ae7 F8       		.byte	0xf8
 10013 2ae8 0D       		.byte	0xd
 10014 2ae9 43010000 		.4byte	0x143
 10015 2aed 00       		.byte	0
 10016 2aee 44       		.uleb128 0x44
 10017 2aef 09070000 		.4byte	.LASF208
 10018 2af3 07       		.byte	0x7
 10019 2af4 E4       		.byte	0xe4
 10020 2af5 19       		.byte	0x19
 10021 2af6 43010000 		.4byte	0x143
 10022 2afa 03       		.byte	0x3
 10023 2afb 47       		.uleb128 0x47
 10024 2afc 41040000 		.4byte	.LASF215
 10025 2b00 03       		.byte	0x3
 10026 2b01 6601     		.2byte	0x166
 10027 2b03 14       		.byte	0x14
 10028 2b04 03       		.byte	0x3
 10029 2b05 192B0000 		.4byte	0x2b19
 10030 2b09 48       		.uleb128 0x48
 10031 2b0a CD000000 		.4byte	.LASF249
 10032 2b0e 292B0000 		.4byte	0x2b29
 10033 2b12 05       		.uleb128 0x5
 10034 2b13 03       		.byte	0x3
 10035 2b14 00000000 		.4byte	__func__.7261
 10036 2b18 00       		.byte	0
 10037 2b19 18       		.uleb128 0x18
 10038 2b1a 23090000 		.4byte	0x923
 10039 2b1e 292B0000 		.4byte	0x2b29
 10040 2b22 19       		.uleb128 0x19
 10041 2b23 38000000 		.4byte	0x38
 10042 2b27 0B       		.byte	0xb
 10043 2b28 00       		.byte	0
 10044 2b29 0B       		.uleb128 0xb
 10045 2b2a 192B0000 		.4byte	0x2b19
 10046 2b2e 37       		.uleb128 0x37
 10047 2b2f 67040000 		.4byte	.LASF210
 10048 2b33 03       		.byte	0x3
 10049 2b34 5A01     		.2byte	0x15a
 10050 2b36 14       		.byte	0x14
 10051 2b37 03       		.byte	0x3
 10052 2b38 49       		.uleb128 0x49
 10053 2b39 ED040000 		.4byte	.LASF212
 10054 2b3d 06       		.byte	0x6
 10055 2b3e 6802     		.2byte	0x268
ARM GAS  /tmp/ccqhiTbD.s 			page 178


 10056 2b40 14       		.byte	0x14
 10057 2b41 960B0000 		.4byte	0xb96
 10058 2b45 03       		.byte	0x3
 10059 2b46 582B0000 		.4byte	0x2b58
 10060 2b4a 4A       		.uleb128 0x4a
 10061 2b4b 74717000 		.ascii	"tqp\000"
 10062 2b4f 06       		.byte	0x6
 10063 2b50 6802     		.2byte	0x268
 10064 2b52 39       		.byte	0x39
 10065 2b53 582B0000 		.4byte	0x2b58
 10066 2b57 00       		.byte	0
 10067 2b58 0A       		.uleb128 0xa
 10068 2b59 04       		.byte	0x4
 10069 2b5a DA020000 		.4byte	0x2da
 10070 2b5e 37       		.uleb128 0x37
 10071 2b5f CE010000 		.4byte	.LASF213
 10072 2b63 04       		.byte	0x4
 10073 2b64 CA01     		.2byte	0x1ca
 10074 2b66 14       		.byte	0x14
 10075 2b67 03       		.byte	0x3
 10076 2b68 37       		.uleb128 0x37
 10077 2b69 EC080000 		.4byte	.LASF214
 10078 2b6d 04       		.byte	0x4
 10079 2b6e BC01     		.2byte	0x1bc
 10080 2b70 14       		.byte	0x14
 10081 2b71 03       		.byte	0x3
 10082 2b72 47       		.uleb128 0x47
 10083 2b73 6C080000 		.4byte	.LASF216
 10084 2b77 05       		.byte	0x5
 10085 2b78 2002     		.2byte	0x220
 10086 2b7a 39       		.byte	0x39
 10087 2b7b 03       		.byte	0x3
 10088 2b7c 8E2B0000 		.4byte	0x2b8e
 10089 2b80 4B       		.uleb128 0x4b
 10090 2b81 1C030000 		.4byte	.LASF217
 10091 2b85 05       		.byte	0x5
 10092 2b86 2002     		.2byte	0x220
 10093 2b88 50       		.byte	0x50
 10094 2b89 99000000 		.4byte	0x99
 10095 2b8d 00       		.byte	0
 10096 2b8e 4C       		.uleb128 0x4c
 10097 2b8f 21150000 		.4byte	0x1521
 10098 2b93 00000000 		.4byte	.LFB239
 10099 2b97 64000000 		.4byte	.LFE239-.LFB239
 10100 2b9b 01       		.uleb128 0x1
 10101 2b9c 9C       		.byte	0x9c
 10102 2b9d 292C0000 		.4byte	0x2c29
 10103 2ba1 39       		.uleb128 0x39
 10104 2ba2 382B0000 		.4byte	0x2b38
 10105 2ba6 1A000000 		.4byte	.LBI369
 10106 2baa 01       		.byte	.LVU558
 10107 2bab 1A000000 		.4byte	.LBB369
 10108 2baf 02000000 		.4byte	.LBE369-.LBB369
 10109 2bb3 01       		.byte	0x1
 10110 2bb4 BE01     		.2byte	0x1be
 10111 2bb6 03       		.byte	0x3
 10112 2bb7 C92B0000 		.4byte	0x2bc9
ARM GAS  /tmp/ccqhiTbD.s 			page 179


 10113 2bbb 33       		.uleb128 0x33
 10114 2bbc 4A2B0000 		.4byte	0x2b4a
 10115 2bc0 01050000 		.4byte	.LLST22
 10116 2bc4 FF040000 		.4byte	.LVUS22
 10117 2bc8 00       		.byte	0
 10118 2bc9 2A       		.uleb128 0x2a
 10119 2bca 21150000 		.4byte	0x1521
 10120 2bce 3A000000 		.4byte	.LBI371
 10121 2bd2 00       		.byte	.LVU565
 10122 2bd3 68010000 		.4byte	.Ldebug_ranges0+0x168
 10123 2bd7 01       		.byte	0x1
 10124 2bd8 A701     		.2byte	0x1a7
 10125 2bda 0D       		.byte	0xd
 10126 2bdb EF2B0000 		.4byte	0x2bef
 10127 2bdf 4D       		.uleb128 0x4d
 10128 2be0 56000000 		.4byte	.LVL206
 10129 2be4 182D0000 		.4byte	0x2d18
 10130 2be8 2D       		.uleb128 0x2d
 10131 2be9 01       		.uleb128 0x1
 10132 2bea 50       		.byte	0x50
 10133 2beb 01       		.uleb128 0x1
 10134 2bec 37       		.byte	0x37
 10135 2bed 00       		.byte	0
 10136 2bee 00       		.byte	0
 10137 2bef 2C       		.uleb128 0x2c
 10138 2bf0 16000000 		.4byte	.LVL203
 10139 2bf4 622C0000 		.4byte	0x2c62
 10140 2bf8 032C0000 		.4byte	0x2c03
 10141 2bfc 2D       		.uleb128 0x2d
 10142 2bfd 01       		.uleb128 0x1
 10143 2bfe 50       		.byte	0x50
 10144 2bff 02       		.uleb128 0x2
 10145 2c00 74       		.byte	0x74
 10146 2c01 00       		.sleb128 0
 10147 2c02 00       		.byte	0
 10148 2c03 2E       		.uleb128 0x2e
 10149 2c04 1A000000 		.4byte	.LVL204
 10150 2c08 302D0000 		.4byte	0x2d30
 10151 2c0c 2C       		.uleb128 0x2c
 10152 2c0d 2A000000 		.4byte	.LVL205
 10153 2c11 182D0000 		.4byte	0x2d18
 10154 2c15 1F2C0000 		.4byte	0x2c1f
 10155 2c19 2D       		.uleb128 0x2d
 10156 2c1a 01       		.uleb128 0x1
 10157 2c1b 50       		.byte	0x50
 10158 2c1c 01       		.uleb128 0x1
 10159 2c1d 36       		.byte	0x36
 10160 2c1e 00       		.byte	0
 10161 2c1f 2E       		.uleb128 0x2e
 10162 2c20 5A000000 		.4byte	.LVL207
 10163 2c24 592C0000 		.4byte	0x2c59
 10164 2c28 00       		.byte	0
 10165 2c29 4E       		.uleb128 0x4e
 10166 2c2a AD050000 		.4byte	.LASF218
 10167 2c2e AD050000 		.4byte	.LASF218
 10168 2c32 02       		.byte	0x2
 10169 2c33 89       		.byte	0x89
ARM GAS  /tmp/ccqhiTbD.s 			page 180


 10170 2c34 0D       		.byte	0xd
 10171 2c35 4E       		.uleb128 0x4e
 10172 2c36 5F080000 		.4byte	.LASF219
 10173 2c3a 5F080000 		.4byte	.LASF219
 10174 2c3e 15       		.byte	0x15
 10175 2c3f 5E       		.byte	0x5e
 10176 2c40 08       		.byte	0x8
 10177 2c41 4E       		.uleb128 0x4e
 10178 2c42 CF050000 		.4byte	.LASF220
 10179 2c46 CF050000 		.4byte	.LASF220
 10180 2c4a 16       		.byte	0x16
 10181 2c4b 5E       		.byte	0x5e
 10182 2c4c 08       		.byte	0x8
 10183 2c4d 4E       		.uleb128 0x4e
 10184 2c4e B3090000 		.4byte	.LASF221
 10185 2c52 B3090000 		.4byte	.LASF221
 10186 2c56 16       		.byte	0x16
 10187 2c57 5B       		.byte	0x5b
 10188 2c58 08       		.byte	0x8
 10189 2c59 4F       		.uleb128 0x4f
 10190 2c5a 60050000 		.4byte	.LASF250
 10191 2c5e 60050000 		.4byte	.LASF250
 10192 2c62 4E       		.uleb128 0x4e
 10193 2c63 E1050000 		.4byte	.LASF222
 10194 2c67 E1050000 		.4byte	.LASF222
 10195 2c6b 13       		.byte	0x13
 10196 2c6c 68       		.byte	0x68
 10197 2c6d 08       		.byte	0x8
 10198 2c6e 4E       		.uleb128 0x4e
 10199 2c6f FD030000 		.4byte	.LASF223
 10200 2c73 FD030000 		.4byte	.LASF223
 10201 2c77 16       		.byte	0x16
 10202 2c78 58       		.byte	0x58
 10203 2c79 08       		.byte	0x8
 10204 2c7a 4E       		.uleb128 0x4e
 10205 2c7b DA010000 		.4byte	.LASF224
 10206 2c7f DA010000 		.4byte	.LASF224
 10207 2c83 13       		.byte	0x13
 10208 2c84 6C       		.byte	0x6c
 10209 2c85 08       		.byte	0x8
 10210 2c86 4E       		.uleb128 0x4e
 10211 2c87 B60B0000 		.4byte	.LASF225
 10212 2c8b B60B0000 		.4byte	.LASF225
 10213 2c8f 15       		.byte	0x15
 10214 2c90 65       		.byte	0x65
 10215 2c91 09       		.byte	0x9
 10216 2c92 4E       		.uleb128 0x4e
 10217 2c93 32030000 		.4byte	.LASF226
 10218 2c97 32030000 		.4byte	.LASF226
 10219 2c9b 15       		.byte	0x15
 10220 2c9c 5D       		.byte	0x5d
 10221 2c9d 08       		.byte	0x8
 10222 2c9e 4E       		.uleb128 0x4e
 10223 2c9f 340C0000 		.4byte	.LASF227
 10224 2ca3 340C0000 		.4byte	.LASF227
 10225 2ca7 13       		.byte	0x13
 10226 2ca8 67       		.byte	0x67
ARM GAS  /tmp/ccqhiTbD.s 			page 181


 10227 2ca9 08       		.byte	0x8
 10228 2caa 4E       		.uleb128 0x4e
 10229 2cab B4070000 		.4byte	.LASF228
 10230 2caf B4070000 		.4byte	.LASF228
 10231 2cb3 15       		.byte	0x15
 10232 2cb4 60       		.byte	0x60
 10233 2cb5 08       		.byte	0x8
 10234 2cb6 4E       		.uleb128 0x4e
 10235 2cb7 0D080000 		.4byte	.LASF229
 10236 2cbb 0D080000 		.4byte	.LASF229
 10237 2cbf 11       		.byte	0x11
 10238 2cc0 4F       		.byte	0x4f
 10239 2cc1 08       		.byte	0x8
 10240 2cc2 4E       		.uleb128 0x4e
 10241 2cc3 3C080000 		.4byte	.LASF230
 10242 2cc7 3C080000 		.4byte	.LASF230
 10243 2ccb 0F       		.byte	0xf
 10244 2ccc D8       		.byte	0xd8
 10245 2ccd 08       		.byte	0x8
 10246 2cce 4E       		.uleb128 0x4e
 10247 2ccf 52010000 		.4byte	.LASF231
 10248 2cd3 52010000 		.4byte	.LASF231
 10249 2cd7 0F       		.byte	0xf
 10250 2cd8 D9       		.byte	0xd9
 10251 2cd9 08       		.byte	0x8
 10252 2cda 4E       		.uleb128 0x4e
 10253 2cdb 68020000 		.4byte	.LASF232
 10254 2cdf 68020000 		.4byte	.LASF232
 10255 2ce3 11       		.byte	0x11
 10256 2ce4 50       		.byte	0x50
 10257 2ce5 08       		.byte	0x8
 10258 2ce6 50       		.uleb128 0x50
 10259 2ce7 D0090000 		.4byte	.LASF233
 10260 2ceb D0090000 		.4byte	.LASF233
 10261 2cef 03       		.byte	0x3
 10262 2cf0 1601     		.2byte	0x116
 10263 2cf2 08       		.byte	0x8
 10264 2cf3 4E       		.uleb128 0x4e
 10265 2cf4 D6000000 		.4byte	.LASF234
 10266 2cf8 D6000000 		.4byte	.LASF234
 10267 2cfc 15       		.byte	0x15
 10268 2cfd 5F       		.byte	0x5f
 10269 2cfe 08       		.byte	0x8
 10270 2cff 50       		.uleb128 0x50
 10271 2d00 4F050000 		.4byte	.LASF235
 10272 2d04 4F050000 		.4byte	.LASF235
 10273 2d08 06       		.byte	0x6
 10274 2d09 1702     		.2byte	0x217
 10275 2d0b 08       		.byte	0x8
 10276 2d0c 4E       		.uleb128 0x4e
 10277 2d0d 9F080000 		.4byte	.LASF236
 10278 2d11 9F080000 		.4byte	.LASF236
 10279 2d15 15       		.byte	0x15
 10280 2d16 62       		.byte	0x62
 10281 2d17 09       		.byte	0x9
 10282 2d18 4E       		.uleb128 0x4e
 10283 2d19 D70B0000 		.4byte	.LASF237
ARM GAS  /tmp/ccqhiTbD.s 			page 182


 10284 2d1d D70B0000 		.4byte	.LASF237
 10285 2d21 16       		.byte	0x16
 10286 2d22 5A       		.byte	0x5a
 10287 2d23 08       		.byte	0x8
 10288 2d24 4E       		.uleb128 0x4e
 10289 2d25 9B030000 		.4byte	.LASF238
 10290 2d29 9B030000 		.4byte	.LASF238
 10291 2d2d 02       		.byte	0x2
 10292 2d2e 96       		.byte	0x96
 10293 2d2f 08       		.byte	0x8
 10294 2d30 4E       		.uleb128 0x4e
 10295 2d31 C80B0000 		.4byte	.LASF239
 10296 2d35 C80B0000 		.4byte	.LASF239
 10297 2d39 13       		.byte	0x13
 10298 2d3a 6E       		.byte	0x6e
 10299 2d3b 08       		.byte	0x8
 10300 2d3c 4E       		.uleb128 0x4e
 10301 2d3d 14060000 		.4byte	.LASF240
 10302 2d41 14060000 		.4byte	.LASF240
 10303 2d45 13       		.byte	0x13
 10304 2d46 6D       		.byte	0x6d
 10305 2d47 08       		.byte	0x8
 10306 2d48 4E       		.uleb128 0x4e
 10307 2d49 21060000 		.4byte	.LASF241
 10308 2d4d 21060000 		.4byte	.LASF241
 10309 2d51 16       		.byte	0x16
 10310 2d52 5F       		.byte	0x5f
 10311 2d53 0D       		.byte	0xd
 10312 2d54 4E       		.uleb128 0x4e
 10313 2d55 27050000 		.4byte	.LASF242
 10314 2d59 27050000 		.4byte	.LASF242
 10315 2d5d 16       		.byte	0x16
 10316 2d5e 5C       		.byte	0x5c
 10317 2d5f 08       		.byte	0x8
 10318 2d60 4E       		.uleb128 0x4e
 10319 2d61 BE000000 		.4byte	.LASF243
 10320 2d65 BE000000 		.4byte	.LASF243
 10321 2d69 16       		.byte	0x16
 10322 2d6a 62       		.byte	0x62
 10323 2d6b 08       		.byte	0x8
 10324 2d6c 00       		.byte	0
 10325              		.section	.debug_abbrev,"",%progbits
 10326              	.Ldebug_abbrev0:
 10327 0000 01       		.uleb128 0x1
 10328 0001 11       		.uleb128 0x11
 10329 0002 01       		.byte	0x1
 10330 0003 25       		.uleb128 0x25
 10331 0004 0E       		.uleb128 0xe
 10332 0005 13       		.uleb128 0x13
 10333 0006 0B       		.uleb128 0xb
 10334 0007 03       		.uleb128 0x3
 10335 0008 0E       		.uleb128 0xe
 10336 0009 1B       		.uleb128 0x1b
 10337 000a 0E       		.uleb128 0xe
 10338 000b 55       		.uleb128 0x55
 10339 000c 17       		.uleb128 0x17
 10340 000d 11       		.uleb128 0x11
ARM GAS  /tmp/ccqhiTbD.s 			page 183


 10341 000e 01       		.uleb128 0x1
 10342 000f 10       		.uleb128 0x10
 10343 0010 17       		.uleb128 0x17
 10344 0011 00       		.byte	0
 10345 0012 00       		.byte	0
 10346 0013 02       		.uleb128 0x2
 10347 0014 24       		.uleb128 0x24
 10348 0015 00       		.byte	0
 10349 0016 0B       		.uleb128 0xb
 10350 0017 0B       		.uleb128 0xb
 10351 0018 3E       		.uleb128 0x3e
 10352 0019 0B       		.uleb128 0xb
 10353 001a 03       		.uleb128 0x3
 10354 001b 08       		.uleb128 0x8
 10355 001c 00       		.byte	0
 10356 001d 00       		.byte	0
 10357 001e 03       		.uleb128 0x3
 10358 001f 16       		.uleb128 0x16
 10359 0020 00       		.byte	0
 10360 0021 03       		.uleb128 0x3
 10361 0022 0E       		.uleb128 0xe
 10362 0023 3A       		.uleb128 0x3a
 10363 0024 0B       		.uleb128 0xb
 10364 0025 3B       		.uleb128 0x3b
 10365 0026 0B       		.uleb128 0xb
 10366 0027 39       		.uleb128 0x39
 10367 0028 0B       		.uleb128 0xb
 10368 0029 49       		.uleb128 0x49
 10369 002a 13       		.uleb128 0x13
 10370 002b 00       		.byte	0
 10371 002c 00       		.byte	0
 10372 002d 04       		.uleb128 0x4
 10373 002e 24       		.uleb128 0x24
 10374 002f 00       		.byte	0
 10375 0030 0B       		.uleb128 0xb
 10376 0031 0B       		.uleb128 0xb
 10377 0032 3E       		.uleb128 0x3e
 10378 0033 0B       		.uleb128 0xb
 10379 0034 03       		.uleb128 0x3
 10380 0035 0E       		.uleb128 0xe
 10381 0036 00       		.byte	0
 10382 0037 00       		.byte	0
 10383 0038 05       		.uleb128 0x5
 10384 0039 35       		.uleb128 0x35
 10385 003a 00       		.byte	0
 10386 003b 49       		.uleb128 0x49
 10387 003c 13       		.uleb128 0x13
 10388 003d 00       		.byte	0
 10389 003e 00       		.byte	0
 10390 003f 06       		.uleb128 0x6
 10391 0040 13       		.uleb128 0x13
 10392 0041 01       		.byte	0x1
 10393 0042 03       		.uleb128 0x3
 10394 0043 0E       		.uleb128 0xe
 10395 0044 0B       		.uleb128 0xb
 10396 0045 0B       		.uleb128 0xb
 10397 0046 3A       		.uleb128 0x3a
ARM GAS  /tmp/ccqhiTbD.s 			page 184


 10398 0047 0B       		.uleb128 0xb
 10399 0048 3B       		.uleb128 0x3b
 10400 0049 0B       		.uleb128 0xb
 10401 004a 39       		.uleb128 0x39
 10402 004b 0B       		.uleb128 0xb
 10403 004c 01       		.uleb128 0x1
 10404 004d 13       		.uleb128 0x13
 10405 004e 00       		.byte	0
 10406 004f 00       		.byte	0
 10407 0050 07       		.uleb128 0x7
 10408 0051 0D       		.uleb128 0xd
 10409 0052 00       		.byte	0
 10410 0053 03       		.uleb128 0x3
 10411 0054 0E       		.uleb128 0xe
 10412 0055 3A       		.uleb128 0x3a
 10413 0056 0B       		.uleb128 0xb
 10414 0057 3B       		.uleb128 0x3b
 10415 0058 0B       		.uleb128 0xb
 10416 0059 39       		.uleb128 0x39
 10417 005a 0B       		.uleb128 0xb
 10418 005b 49       		.uleb128 0x49
 10419 005c 13       		.uleb128 0x13
 10420 005d 38       		.uleb128 0x38
 10421 005e 0B       		.uleb128 0xb
 10422 005f 00       		.byte	0
 10423 0060 00       		.byte	0
 10424 0061 08       		.uleb128 0x8
 10425 0062 0D       		.uleb128 0xd
 10426 0063 00       		.byte	0
 10427 0064 03       		.uleb128 0x3
 10428 0065 08       		.uleb128 0x8
 10429 0066 3A       		.uleb128 0x3a
 10430 0067 0B       		.uleb128 0xb
 10431 0068 3B       		.uleb128 0x3b
 10432 0069 05       		.uleb128 0x5
 10433 006a 39       		.uleb128 0x39
 10434 006b 0B       		.uleb128 0xb
 10435 006c 49       		.uleb128 0x49
 10436 006d 13       		.uleb128 0x13
 10437 006e 38       		.uleb128 0x38
 10438 006f 0B       		.uleb128 0xb
 10439 0070 00       		.byte	0
 10440 0071 00       		.byte	0
 10441 0072 09       		.uleb128 0x9
 10442 0073 0D       		.uleb128 0xd
 10443 0074 00       		.byte	0
 10444 0075 03       		.uleb128 0x3
 10445 0076 0E       		.uleb128 0xe
 10446 0077 3A       		.uleb128 0x3a
 10447 0078 0B       		.uleb128 0xb
 10448 0079 3B       		.uleb128 0x3b
 10449 007a 05       		.uleb128 0x5
 10450 007b 39       		.uleb128 0x39
 10451 007c 0B       		.uleb128 0xb
 10452 007d 49       		.uleb128 0x49
 10453 007e 13       		.uleb128 0x13
 10454 007f 38       		.uleb128 0x38
ARM GAS  /tmp/ccqhiTbD.s 			page 185


 10455 0080 0B       		.uleb128 0xb
 10456 0081 00       		.byte	0
 10457 0082 00       		.byte	0
 10458 0083 0A       		.uleb128 0xa
 10459 0084 0F       		.uleb128 0xf
 10460 0085 00       		.byte	0
 10461 0086 0B       		.uleb128 0xb
 10462 0087 0B       		.uleb128 0xb
 10463 0088 49       		.uleb128 0x49
 10464 0089 13       		.uleb128 0x13
 10465 008a 00       		.byte	0
 10466 008b 00       		.byte	0
 10467 008c 0B       		.uleb128 0xb
 10468 008d 26       		.uleb128 0x26
 10469 008e 00       		.byte	0
 10470 008f 49       		.uleb128 0x49
 10471 0090 13       		.uleb128 0x13
 10472 0091 00       		.byte	0
 10473 0092 00       		.byte	0
 10474 0093 0C       		.uleb128 0xc
 10475 0094 13       		.uleb128 0x13
 10476 0095 01       		.byte	0x1
 10477 0096 03       		.uleb128 0x3
 10478 0097 0E       		.uleb128 0xe
 10479 0098 0B       		.uleb128 0xb
 10480 0099 0B       		.uleb128 0xb
 10481 009a 3A       		.uleb128 0x3a
 10482 009b 0B       		.uleb128 0xb
 10483 009c 3B       		.uleb128 0x3b
 10484 009d 05       		.uleb128 0x5
 10485 009e 39       		.uleb128 0x39
 10486 009f 0B       		.uleb128 0xb
 10487 00a0 01       		.uleb128 0x1
 10488 00a1 13       		.uleb128 0x13
 10489 00a2 00       		.byte	0
 10490 00a3 00       		.byte	0
 10491 00a4 0D       		.uleb128 0xd
 10492 00a5 15       		.uleb128 0x15
 10493 00a6 01       		.byte	0x1
 10494 00a7 27       		.uleb128 0x27
 10495 00a8 19       		.uleb128 0x19
 10496 00a9 01       		.uleb128 0x1
 10497 00aa 13       		.uleb128 0x13
 10498 00ab 00       		.byte	0
 10499 00ac 00       		.byte	0
 10500 00ad 0E       		.uleb128 0xe
 10501 00ae 05       		.uleb128 0x5
 10502 00af 00       		.byte	0
 10503 00b0 49       		.uleb128 0x49
 10504 00b1 13       		.uleb128 0x13
 10505 00b2 00       		.byte	0
 10506 00b3 00       		.byte	0
 10507 00b4 0F       		.uleb128 0xf
 10508 00b5 0F       		.uleb128 0xf
 10509 00b6 00       		.byte	0
 10510 00b7 0B       		.uleb128 0xb
 10511 00b8 0B       		.uleb128 0xb
ARM GAS  /tmp/ccqhiTbD.s 			page 186


 10512 00b9 00       		.byte	0
 10513 00ba 00       		.byte	0
 10514 00bb 10       		.uleb128 0x10
 10515 00bc 13       		.uleb128 0x13
 10516 00bd 01       		.byte	0x1
 10517 00be 03       		.uleb128 0x3
 10518 00bf 0E       		.uleb128 0xe
 10519 00c0 0B       		.uleb128 0xb
 10520 00c1 05       		.uleb128 0x5
 10521 00c2 3A       		.uleb128 0x3a
 10522 00c3 0B       		.uleb128 0xb
 10523 00c4 3B       		.uleb128 0x3b
 10524 00c5 05       		.uleb128 0x5
 10525 00c6 39       		.uleb128 0x39
 10526 00c7 0B       		.uleb128 0xb
 10527 00c8 01       		.uleb128 0x1
 10528 00c9 13       		.uleb128 0x13
 10529 00ca 00       		.byte	0
 10530 00cb 00       		.byte	0
 10531 00cc 11       		.uleb128 0x11
 10532 00cd 0D       		.uleb128 0xd
 10533 00ce 00       		.byte	0
 10534 00cf 03       		.uleb128 0x3
 10535 00d0 0E       		.uleb128 0xe
 10536 00d1 3A       		.uleb128 0x3a
 10537 00d2 0B       		.uleb128 0xb
 10538 00d3 3B       		.uleb128 0x3b
 10539 00d4 05       		.uleb128 0x5
 10540 00d5 39       		.uleb128 0x39
 10541 00d6 0B       		.uleb128 0xb
 10542 00d7 49       		.uleb128 0x49
 10543 00d8 13       		.uleb128 0x13
 10544 00d9 38       		.uleb128 0x38
 10545 00da 05       		.uleb128 0x5
 10546 00db 00       		.byte	0
 10547 00dc 00       		.byte	0
 10548 00dd 12       		.uleb128 0x12
 10549 00de 0D       		.uleb128 0xd
 10550 00df 00       		.byte	0
 10551 00e0 03       		.uleb128 0x3
 10552 00e1 08       		.uleb128 0x8
 10553 00e2 3A       		.uleb128 0x3a
 10554 00e3 0B       		.uleb128 0xb
 10555 00e4 3B       		.uleb128 0x3b
 10556 00e5 05       		.uleb128 0x5
 10557 00e6 39       		.uleb128 0x39
 10558 00e7 0B       		.uleb128 0xb
 10559 00e8 49       		.uleb128 0x49
 10560 00e9 13       		.uleb128 0x13
 10561 00ea 38       		.uleb128 0x38
 10562 00eb 05       		.uleb128 0x5
 10563 00ec 00       		.byte	0
 10564 00ed 00       		.byte	0
 10565 00ee 13       		.uleb128 0x13
 10566 00ef 34       		.uleb128 0x34
 10567 00f0 00       		.byte	0
 10568 00f1 03       		.uleb128 0x3
ARM GAS  /tmp/ccqhiTbD.s 			page 187


 10569 00f2 0E       		.uleb128 0xe
 10570 00f3 3A       		.uleb128 0x3a
 10571 00f4 0B       		.uleb128 0xb
 10572 00f5 3B       		.uleb128 0x3b
 10573 00f6 05       		.uleb128 0x5
 10574 00f7 39       		.uleb128 0x39
 10575 00f8 0B       		.uleb128 0xb
 10576 00f9 49       		.uleb128 0x49
 10577 00fa 13       		.uleb128 0x13
 10578 00fb 3F       		.uleb128 0x3f
 10579 00fc 19       		.uleb128 0x19
 10580 00fd 3C       		.uleb128 0x3c
 10581 00fe 19       		.uleb128 0x19
 10582 00ff 00       		.byte	0
 10583 0100 00       		.byte	0
 10584 0101 14       		.uleb128 0x14
 10585 0102 34       		.uleb128 0x34
 10586 0103 00       		.byte	0
 10587 0104 03       		.uleb128 0x3
 10588 0105 0E       		.uleb128 0xe
 10589 0106 3A       		.uleb128 0x3a
 10590 0107 0B       		.uleb128 0xb
 10591 0108 3B       		.uleb128 0x3b
 10592 0109 0B       		.uleb128 0xb
 10593 010a 39       		.uleb128 0x39
 10594 010b 0B       		.uleb128 0xb
 10595 010c 49       		.uleb128 0x49
 10596 010d 13       		.uleb128 0x13
 10597 010e 3F       		.uleb128 0x3f
 10598 010f 19       		.uleb128 0x19
 10599 0110 3C       		.uleb128 0x3c
 10600 0111 19       		.uleb128 0x19
 10601 0112 00       		.byte	0
 10602 0113 00       		.byte	0
 10603 0114 15       		.uleb128 0x15
 10604 0115 0D       		.uleb128 0xd
 10605 0116 00       		.byte	0
 10606 0117 03       		.uleb128 0x3
 10607 0118 08       		.uleb128 0x8
 10608 0119 3A       		.uleb128 0x3a
 10609 011a 0B       		.uleb128 0xb
 10610 011b 3B       		.uleb128 0x3b
 10611 011c 0B       		.uleb128 0xb
 10612 011d 39       		.uleb128 0x39
 10613 011e 0B       		.uleb128 0xb
 10614 011f 49       		.uleb128 0x49
 10615 0120 13       		.uleb128 0x13
 10616 0121 38       		.uleb128 0x38
 10617 0122 0B       		.uleb128 0xb
 10618 0123 00       		.byte	0
 10619 0124 00       		.byte	0
 10620 0125 16       		.uleb128 0x16
 10621 0126 13       		.uleb128 0x13
 10622 0127 01       		.byte	0x1
 10623 0128 0B       		.uleb128 0xb
 10624 0129 0B       		.uleb128 0xb
 10625 012a 3A       		.uleb128 0x3a
ARM GAS  /tmp/ccqhiTbD.s 			page 188


 10626 012b 0B       		.uleb128 0xb
 10627 012c 3B       		.uleb128 0x3b
 10628 012d 0B       		.uleb128 0xb
 10629 012e 39       		.uleb128 0x39
 10630 012f 0B       		.uleb128 0xb
 10631 0130 01       		.uleb128 0x1
 10632 0131 13       		.uleb128 0x13
 10633 0132 00       		.byte	0
 10634 0133 00       		.byte	0
 10635 0134 17       		.uleb128 0x17
 10636 0135 13       		.uleb128 0x13
 10637 0136 01       		.byte	0x1
 10638 0137 0B       		.uleb128 0xb
 10639 0138 05       		.uleb128 0x5
 10640 0139 3A       		.uleb128 0x3a
 10641 013a 0B       		.uleb128 0xb
 10642 013b 3B       		.uleb128 0x3b
 10643 013c 0B       		.uleb128 0xb
 10644 013d 39       		.uleb128 0x39
 10645 013e 0B       		.uleb128 0xb
 10646 013f 01       		.uleb128 0x1
 10647 0140 13       		.uleb128 0x13
 10648 0141 00       		.byte	0
 10649 0142 00       		.byte	0
 10650 0143 18       		.uleb128 0x18
 10651 0144 01       		.uleb128 0x1
 10652 0145 01       		.byte	0x1
 10653 0146 49       		.uleb128 0x49
 10654 0147 13       		.uleb128 0x13
 10655 0148 01       		.uleb128 0x1
 10656 0149 13       		.uleb128 0x13
 10657 014a 00       		.byte	0
 10658 014b 00       		.byte	0
 10659 014c 19       		.uleb128 0x19
 10660 014d 21       		.uleb128 0x21
 10661 014e 00       		.byte	0
 10662 014f 49       		.uleb128 0x49
 10663 0150 13       		.uleb128 0x13
 10664 0151 2F       		.uleb128 0x2f
 10665 0152 0B       		.uleb128 0xb
 10666 0153 00       		.byte	0
 10667 0154 00       		.byte	0
 10668 0155 1A       		.uleb128 0x1a
 10669 0156 17       		.uleb128 0x17
 10670 0157 01       		.byte	0x1
 10671 0158 0B       		.uleb128 0xb
 10672 0159 0B       		.uleb128 0xb
 10673 015a 3A       		.uleb128 0x3a
 10674 015b 0B       		.uleb128 0xb
 10675 015c 3B       		.uleb128 0x3b
 10676 015d 0B       		.uleb128 0xb
 10677 015e 39       		.uleb128 0x39
 10678 015f 0B       		.uleb128 0xb
 10679 0160 01       		.uleb128 0x1
 10680 0161 13       		.uleb128 0x13
 10681 0162 00       		.byte	0
 10682 0163 00       		.byte	0
ARM GAS  /tmp/ccqhiTbD.s 			page 189


 10683 0164 1B       		.uleb128 0x1b
 10684 0165 0D       		.uleb128 0xd
 10685 0166 00       		.byte	0
 10686 0167 03       		.uleb128 0x3
 10687 0168 0E       		.uleb128 0xe
 10688 0169 3A       		.uleb128 0x3a
 10689 016a 0B       		.uleb128 0xb
 10690 016b 3B       		.uleb128 0x3b
 10691 016c 05       		.uleb128 0x5
 10692 016d 39       		.uleb128 0x39
 10693 016e 0B       		.uleb128 0xb
 10694 016f 49       		.uleb128 0x49
 10695 0170 13       		.uleb128 0x13
 10696 0171 00       		.byte	0
 10697 0172 00       		.byte	0
 10698 0173 1C       		.uleb128 0x1c
 10699 0174 34       		.uleb128 0x34
 10700 0175 00       		.byte	0
 10701 0176 03       		.uleb128 0x3
 10702 0177 08       		.uleb128 0x8
 10703 0178 3A       		.uleb128 0x3a
 10704 0179 0B       		.uleb128 0xb
 10705 017a 3B       		.uleb128 0x3b
 10706 017b 05       		.uleb128 0x5
 10707 017c 39       		.uleb128 0x39
 10708 017d 0B       		.uleb128 0xb
 10709 017e 49       		.uleb128 0x49
 10710 017f 13       		.uleb128 0x13
 10711 0180 3F       		.uleb128 0x3f
 10712 0181 19       		.uleb128 0x19
 10713 0182 3C       		.uleb128 0x3c
 10714 0183 19       		.uleb128 0x19
 10715 0184 00       		.byte	0
 10716 0185 00       		.byte	0
 10717 0186 1D       		.uleb128 0x1d
 10718 0187 15       		.uleb128 0x15
 10719 0188 00       		.byte	0
 10720 0189 27       		.uleb128 0x27
 10721 018a 19       		.uleb128 0x19
 10722 018b 00       		.byte	0
 10723 018c 00       		.byte	0
 10724 018d 1E       		.uleb128 0x1e
 10725 018e 0D       		.uleb128 0xd
 10726 018f 00       		.byte	0
 10727 0190 03       		.uleb128 0x3
 10728 0191 08       		.uleb128 0x8
 10729 0192 3A       		.uleb128 0x3a
 10730 0193 0B       		.uleb128 0xb
 10731 0194 3B       		.uleb128 0x3b
 10732 0195 0B       		.uleb128 0xb
 10733 0196 39       		.uleb128 0x39
 10734 0197 0B       		.uleb128 0xb
 10735 0198 49       		.uleb128 0x49
 10736 0199 13       		.uleb128 0x13
 10737 019a 38       		.uleb128 0x38
 10738 019b 05       		.uleb128 0x5
 10739 019c 00       		.byte	0
ARM GAS  /tmp/ccqhiTbD.s 			page 190


 10740 019d 00       		.byte	0
 10741 019e 1F       		.uleb128 0x1f
 10742 019f 17       		.uleb128 0x17
 10743 01a0 01       		.byte	0x1
 10744 01a1 03       		.uleb128 0x3
 10745 01a2 0E       		.uleb128 0xe
 10746 01a3 0B       		.uleb128 0xb
 10747 01a4 05       		.uleb128 0x5
 10748 01a5 3A       		.uleb128 0x3a
 10749 01a6 0B       		.uleb128 0xb
 10750 01a7 3B       		.uleb128 0x3b
 10751 01a8 0B       		.uleb128 0xb
 10752 01a9 39       		.uleb128 0x39
 10753 01aa 0B       		.uleb128 0xb
 10754 01ab 01       		.uleb128 0x1
 10755 01ac 13       		.uleb128 0x13
 10756 01ad 00       		.byte	0
 10757 01ae 00       		.byte	0
 10758 01af 20       		.uleb128 0x20
 10759 01b0 0D       		.uleb128 0xd
 10760 01b1 00       		.byte	0
 10761 01b2 03       		.uleb128 0x3
 10762 01b3 08       		.uleb128 0x8
 10763 01b4 3A       		.uleb128 0x3a
 10764 01b5 0B       		.uleb128 0xb
 10765 01b6 3B       		.uleb128 0x3b
 10766 01b7 0B       		.uleb128 0xb
 10767 01b8 39       		.uleb128 0x39
 10768 01b9 0B       		.uleb128 0xb
 10769 01ba 49       		.uleb128 0x49
 10770 01bb 13       		.uleb128 0x13
 10771 01bc 00       		.byte	0
 10772 01bd 00       		.byte	0
 10773 01be 21       		.uleb128 0x21
 10774 01bf 0D       		.uleb128 0xd
 10775 01c0 00       		.byte	0
 10776 01c1 03       		.uleb128 0x3
 10777 01c2 0E       		.uleb128 0xe
 10778 01c3 3A       		.uleb128 0x3a
 10779 01c4 0B       		.uleb128 0xb
 10780 01c5 3B       		.uleb128 0x3b
 10781 01c6 0B       		.uleb128 0xb
 10782 01c7 39       		.uleb128 0x39
 10783 01c8 0B       		.uleb128 0xb
 10784 01c9 49       		.uleb128 0x49
 10785 01ca 13       		.uleb128 0x13
 10786 01cb 00       		.byte	0
 10787 01cc 00       		.byte	0
 10788 01cd 22       		.uleb128 0x22
 10789 01ce 21       		.uleb128 0x21
 10790 01cf 00       		.byte	0
 10791 01d0 49       		.uleb128 0x49
 10792 01d1 13       		.uleb128 0x13
 10793 01d2 2F       		.uleb128 0x2f
 10794 01d3 05       		.uleb128 0x5
 10795 01d4 00       		.byte	0
 10796 01d5 00       		.byte	0
ARM GAS  /tmp/ccqhiTbD.s 			page 191


 10797 01d6 23       		.uleb128 0x23
 10798 01d7 21       		.uleb128 0x21
 10799 01d8 00       		.byte	0
 10800 01d9 00       		.byte	0
 10801 01da 00       		.byte	0
 10802 01db 24       		.uleb128 0x24
 10803 01dc 34       		.uleb128 0x34
 10804 01dd 00       		.byte	0
 10805 01de 03       		.uleb128 0x3
 10806 01df 08       		.uleb128 0x8
 10807 01e0 3A       		.uleb128 0x3a
 10808 01e1 0B       		.uleb128 0xb
 10809 01e2 3B       		.uleb128 0x3b
 10810 01e3 0B       		.uleb128 0xb
 10811 01e4 39       		.uleb128 0x39
 10812 01e5 0B       		.uleb128 0xb
 10813 01e6 49       		.uleb128 0x49
 10814 01e7 13       		.uleb128 0x13
 10815 01e8 3F       		.uleb128 0x3f
 10816 01e9 19       		.uleb128 0x19
 10817 01ea 3C       		.uleb128 0x3c
 10818 01eb 19       		.uleb128 0x19
 10819 01ec 00       		.byte	0
 10820 01ed 00       		.byte	0
 10821 01ee 25       		.uleb128 0x25
 10822 01ef 34       		.uleb128 0x34
 10823 01f0 00       		.byte	0
 10824 01f1 03       		.uleb128 0x3
 10825 01f2 08       		.uleb128 0x8
 10826 01f3 3A       		.uleb128 0x3a
 10827 01f4 0B       		.uleb128 0xb
 10828 01f5 3B       		.uleb128 0x3b
 10829 01f6 0B       		.uleb128 0xb
 10830 01f7 39       		.uleb128 0x39
 10831 01f8 0B       		.uleb128 0xb
 10832 01f9 49       		.uleb128 0x49
 10833 01fa 13       		.uleb128 0x13
 10834 01fb 02       		.uleb128 0x2
 10835 01fc 18       		.uleb128 0x18
 10836 01fd 00       		.byte	0
 10837 01fe 00       		.byte	0
 10838 01ff 26       		.uleb128 0x26
 10839 0200 34       		.uleb128 0x34
 10840 0201 00       		.byte	0
 10841 0202 03       		.uleb128 0x3
 10842 0203 0E       		.uleb128 0xe
 10843 0204 3A       		.uleb128 0x3a
 10844 0205 0B       		.uleb128 0xb
 10845 0206 3B       		.uleb128 0x3b
 10846 0207 0B       		.uleb128 0xb
 10847 0208 39       		.uleb128 0x39
 10848 0209 0B       		.uleb128 0xb
 10849 020a 49       		.uleb128 0x49
 10850 020b 13       		.uleb128 0x13
 10851 020c 3F       		.uleb128 0x3f
 10852 020d 19       		.uleb128 0x19
 10853 020e 02       		.uleb128 0x2
ARM GAS  /tmp/ccqhiTbD.s 			page 192


 10854 020f 18       		.uleb128 0x18
 10855 0210 00       		.byte	0
 10856 0211 00       		.byte	0
 10857 0212 27       		.uleb128 0x27
 10858 0213 34       		.uleb128 0x34
 10859 0214 00       		.byte	0
 10860 0215 03       		.uleb128 0x3
 10861 0216 0E       		.uleb128 0xe
 10862 0217 3A       		.uleb128 0x3a
 10863 0218 0B       		.uleb128 0xb
 10864 0219 3B       		.uleb128 0x3b
 10865 021a 05       		.uleb128 0x5
 10866 021b 39       		.uleb128 0x39
 10867 021c 0B       		.uleb128 0xb
 10868 021d 49       		.uleb128 0x49
 10869 021e 13       		.uleb128 0x13
 10870 021f 3F       		.uleb128 0x3f
 10871 0220 19       		.uleb128 0x19
 10872 0221 02       		.uleb128 0x2
 10873 0222 18       		.uleb128 0x18
 10874 0223 00       		.byte	0
 10875 0224 00       		.byte	0
 10876 0225 28       		.uleb128 0x28
 10877 0226 2E       		.uleb128 0x2e
 10878 0227 01       		.byte	0x1
 10879 0228 03       		.uleb128 0x3
 10880 0229 0E       		.uleb128 0xe
 10881 022a 3A       		.uleb128 0x3a
 10882 022b 0B       		.uleb128 0xb
 10883 022c 3B       		.uleb128 0x3b
 10884 022d 05       		.uleb128 0x5
 10885 022e 39       		.uleb128 0x39
 10886 022f 0B       		.uleb128 0xb
 10887 0230 27       		.uleb128 0x27
 10888 0231 19       		.uleb128 0x19
 10889 0232 11       		.uleb128 0x11
 10890 0233 01       		.uleb128 0x1
 10891 0234 12       		.uleb128 0x12
 10892 0235 06       		.uleb128 0x6
 10893 0236 40       		.uleb128 0x40
 10894 0237 18       		.uleb128 0x18
 10895 0238 9742     		.uleb128 0x2117
 10896 023a 19       		.uleb128 0x19
 10897 023b 01       		.uleb128 0x1
 10898 023c 13       		.uleb128 0x13
 10899 023d 00       		.byte	0
 10900 023e 00       		.byte	0
 10901 023f 29       		.uleb128 0x29
 10902 0240 34       		.uleb128 0x34
 10903 0241 00       		.byte	0
 10904 0242 03       		.uleb128 0x3
 10905 0243 0E       		.uleb128 0xe
 10906 0244 3A       		.uleb128 0x3a
 10907 0245 0B       		.uleb128 0xb
 10908 0246 3B       		.uleb128 0x3b
 10909 0247 05       		.uleb128 0x5
 10910 0248 39       		.uleb128 0x39
ARM GAS  /tmp/ccqhiTbD.s 			page 193


 10911 0249 0B       		.uleb128 0xb
 10912 024a 49       		.uleb128 0x49
 10913 024b 13       		.uleb128 0x13
 10914 024c 02       		.uleb128 0x2
 10915 024d 17       		.uleb128 0x17
 10916 024e B742     		.uleb128 0x2137
 10917 0250 17       		.uleb128 0x17
 10918 0251 00       		.byte	0
 10919 0252 00       		.byte	0
 10920 0253 2A       		.uleb128 0x2a
 10921 0254 1D       		.uleb128 0x1d
 10922 0255 01       		.byte	0x1
 10923 0256 31       		.uleb128 0x31
 10924 0257 13       		.uleb128 0x13
 10925 0258 52       		.uleb128 0x52
 10926 0259 01       		.uleb128 0x1
 10927 025a B842     		.uleb128 0x2138
 10928 025c 0B       		.uleb128 0xb
 10929 025d 55       		.uleb128 0x55
 10930 025e 17       		.uleb128 0x17
 10931 025f 58       		.uleb128 0x58
 10932 0260 0B       		.uleb128 0xb
 10933 0261 59       		.uleb128 0x59
 10934 0262 05       		.uleb128 0x5
 10935 0263 57       		.uleb128 0x57
 10936 0264 0B       		.uleb128 0xb
 10937 0265 01       		.uleb128 0x1
 10938 0266 13       		.uleb128 0x13
 10939 0267 00       		.byte	0
 10940 0268 00       		.byte	0
 10941 0269 2B       		.uleb128 0x2b
 10942 026a 1D       		.uleb128 0x1d
 10943 026b 00       		.byte	0
 10944 026c 31       		.uleb128 0x31
 10945 026d 13       		.uleb128 0x13
 10946 026e 52       		.uleb128 0x52
 10947 026f 01       		.uleb128 0x1
 10948 0270 B842     		.uleb128 0x2138
 10949 0272 0B       		.uleb128 0xb
 10950 0273 55       		.uleb128 0x55
 10951 0274 17       		.uleb128 0x17
 10952 0275 58       		.uleb128 0x58
 10953 0276 0B       		.uleb128 0xb
 10954 0277 59       		.uleb128 0x59
 10955 0278 0B       		.uleb128 0xb
 10956 0279 57       		.uleb128 0x57
 10957 027a 0B       		.uleb128 0xb
 10958 027b 00       		.byte	0
 10959 027c 00       		.byte	0
 10960 027d 2C       		.uleb128 0x2c
 10961 027e 898201   		.uleb128 0x4109
 10962 0281 01       		.byte	0x1
 10963 0282 11       		.uleb128 0x11
 10964 0283 01       		.uleb128 0x1
 10965 0284 31       		.uleb128 0x31
 10966 0285 13       		.uleb128 0x13
 10967 0286 01       		.uleb128 0x1
ARM GAS  /tmp/ccqhiTbD.s 			page 194


 10968 0287 13       		.uleb128 0x13
 10969 0288 00       		.byte	0
 10970 0289 00       		.byte	0
 10971 028a 2D       		.uleb128 0x2d
 10972 028b 8A8201   		.uleb128 0x410a
 10973 028e 00       		.byte	0
 10974 028f 02       		.uleb128 0x2
 10975 0290 18       		.uleb128 0x18
 10976 0291 9142     		.uleb128 0x2111
 10977 0293 18       		.uleb128 0x18
 10978 0294 00       		.byte	0
 10979 0295 00       		.byte	0
 10980 0296 2E       		.uleb128 0x2e
 10981 0297 898201   		.uleb128 0x4109
 10982 029a 00       		.byte	0
 10983 029b 11       		.uleb128 0x11
 10984 029c 01       		.uleb128 0x1
 10985 029d 31       		.uleb128 0x31
 10986 029e 13       		.uleb128 0x13
 10987 029f 00       		.byte	0
 10988 02a0 00       		.byte	0
 10989 02a1 2F       		.uleb128 0x2f
 10990 02a2 898201   		.uleb128 0x4109
 10991 02a5 01       		.byte	0x1
 10992 02a6 11       		.uleb128 0x11
 10993 02a7 01       		.uleb128 0x1
 10994 02a8 9542     		.uleb128 0x2115
 10995 02aa 19       		.uleb128 0x19
 10996 02ab 31       		.uleb128 0x31
 10997 02ac 13       		.uleb128 0x13
 10998 02ad 01       		.uleb128 0x1
 10999 02ae 13       		.uleb128 0x13
 11000 02af 00       		.byte	0
 11001 02b0 00       		.byte	0
 11002 02b1 30       		.uleb128 0x30
 11003 02b2 05       		.uleb128 0x5
 11004 02b3 00       		.byte	0
 11005 02b4 03       		.uleb128 0x3
 11006 02b5 08       		.uleb128 0x8
 11007 02b6 3A       		.uleb128 0x3a
 11008 02b7 0B       		.uleb128 0xb
 11009 02b8 3B       		.uleb128 0x3b
 11010 02b9 05       		.uleb128 0x5
 11011 02ba 39       		.uleb128 0x39
 11012 02bb 0B       		.uleb128 0xb
 11013 02bc 49       		.uleb128 0x49
 11014 02bd 13       		.uleb128 0x13
 11015 02be 02       		.uleb128 0x2
 11016 02bf 17       		.uleb128 0x17
 11017 02c0 B742     		.uleb128 0x2137
 11018 02c2 17       		.uleb128 0x17
 11019 02c3 00       		.byte	0
 11020 02c4 00       		.byte	0
 11021 02c5 31       		.uleb128 0x31
 11022 02c6 2E       		.uleb128 0x2e
 11023 02c7 00       		.byte	0
 11024 02c8 03       		.uleb128 0x3
ARM GAS  /tmp/ccqhiTbD.s 			page 195


 11025 02c9 0E       		.uleb128 0xe
 11026 02ca 3A       		.uleb128 0x3a
 11027 02cb 0B       		.uleb128 0xb
 11028 02cc 3B       		.uleb128 0x3b
 11029 02cd 05       		.uleb128 0x5
 11030 02ce 39       		.uleb128 0x39
 11031 02cf 0B       		.uleb128 0xb
 11032 02d0 27       		.uleb128 0x27
 11033 02d1 19       		.uleb128 0x19
 11034 02d2 00       		.byte	0
 11035 02d3 00       		.byte	0
 11036 02d4 32       		.uleb128 0x32
 11037 02d5 1D       		.uleb128 0x1d
 11038 02d6 01       		.byte	0x1
 11039 02d7 31       		.uleb128 0x31
 11040 02d8 13       		.uleb128 0x13
 11041 02d9 52       		.uleb128 0x52
 11042 02da 01       		.uleb128 0x1
 11043 02db B842     		.uleb128 0x2138
 11044 02dd 0B       		.uleb128 0xb
 11045 02de 55       		.uleb128 0x55
 11046 02df 17       		.uleb128 0x17
 11047 02e0 58       		.uleb128 0x58
 11048 02e1 0B       		.uleb128 0xb
 11049 02e2 59       		.uleb128 0x59
 11050 02e3 05       		.uleb128 0x5
 11051 02e4 57       		.uleb128 0x57
 11052 02e5 0B       		.uleb128 0xb
 11053 02e6 00       		.byte	0
 11054 02e7 00       		.byte	0
 11055 02e8 33       		.uleb128 0x33
 11056 02e9 05       		.uleb128 0x5
 11057 02ea 00       		.byte	0
 11058 02eb 31       		.uleb128 0x31
 11059 02ec 13       		.uleb128 0x13
 11060 02ed 02       		.uleb128 0x2
 11061 02ee 17       		.uleb128 0x17
 11062 02ef B742     		.uleb128 0x2137
 11063 02f1 17       		.uleb128 0x17
 11064 02f2 00       		.byte	0
 11065 02f3 00       		.byte	0
 11066 02f4 34       		.uleb128 0x34
 11067 02f5 0B       		.uleb128 0xb
 11068 02f6 01       		.byte	0x1
 11069 02f7 55       		.uleb128 0x55
 11070 02f8 17       		.uleb128 0x17
 11071 02f9 00       		.byte	0
 11072 02fa 00       		.byte	0
 11073 02fb 35       		.uleb128 0x35
 11074 02fc 1D       		.uleb128 0x1d
 11075 02fd 01       		.byte	0x1
 11076 02fe 31       		.uleb128 0x31
 11077 02ff 13       		.uleb128 0x13
 11078 0300 52       		.uleb128 0x52
 11079 0301 01       		.uleb128 0x1
 11080 0302 B842     		.uleb128 0x2138
 11081 0304 0B       		.uleb128 0xb
ARM GAS  /tmp/ccqhiTbD.s 			page 196


 11082 0305 11       		.uleb128 0x11
 11083 0306 01       		.uleb128 0x1
 11084 0307 12       		.uleb128 0x12
 11085 0308 06       		.uleb128 0x6
 11086 0309 58       		.uleb128 0x58
 11087 030a 0B       		.uleb128 0xb
 11088 030b 59       		.uleb128 0x59
 11089 030c 05       		.uleb128 0x5
 11090 030d 57       		.uleb128 0x57
 11091 030e 0B       		.uleb128 0xb
 11092 030f 00       		.byte	0
 11093 0310 00       		.byte	0
 11094 0311 36       		.uleb128 0x36
 11095 0312 898201   		.uleb128 0x4109
 11096 0315 01       		.byte	0x1
 11097 0316 11       		.uleb128 0x11
 11098 0317 01       		.uleb128 0x1
 11099 0318 31       		.uleb128 0x31
 11100 0319 13       		.uleb128 0x13
 11101 031a 00       		.byte	0
 11102 031b 00       		.byte	0
 11103 031c 37       		.uleb128 0x37
 11104 031d 2E       		.uleb128 0x2e
 11105 031e 00       		.byte	0
 11106 031f 03       		.uleb128 0x3
 11107 0320 0E       		.uleb128 0xe
 11108 0321 3A       		.uleb128 0x3a
 11109 0322 0B       		.uleb128 0xb
 11110 0323 3B       		.uleb128 0x3b
 11111 0324 05       		.uleb128 0x5
 11112 0325 39       		.uleb128 0x39
 11113 0326 0B       		.uleb128 0xb
 11114 0327 27       		.uleb128 0x27
 11115 0328 19       		.uleb128 0x19
 11116 0329 20       		.uleb128 0x20
 11117 032a 0B       		.uleb128 0xb
 11118 032b 00       		.byte	0
 11119 032c 00       		.byte	0
 11120 032d 38       		.uleb128 0x38
 11121 032e 34       		.uleb128 0x34
 11122 032f 00       		.byte	0
 11123 0330 03       		.uleb128 0x3
 11124 0331 08       		.uleb128 0x8
 11125 0332 3A       		.uleb128 0x3a
 11126 0333 0B       		.uleb128 0xb
 11127 0334 3B       		.uleb128 0x3b
 11128 0335 05       		.uleb128 0x5
 11129 0336 39       		.uleb128 0x39
 11130 0337 0B       		.uleb128 0xb
 11131 0338 49       		.uleb128 0x49
 11132 0339 13       		.uleb128 0x13
 11133 033a 02       		.uleb128 0x2
 11134 033b 17       		.uleb128 0x17
 11135 033c B742     		.uleb128 0x2137
 11136 033e 17       		.uleb128 0x17
 11137 033f 00       		.byte	0
 11138 0340 00       		.byte	0
ARM GAS  /tmp/ccqhiTbD.s 			page 197


 11139 0341 39       		.uleb128 0x39
 11140 0342 1D       		.uleb128 0x1d
 11141 0343 01       		.byte	0x1
 11142 0344 31       		.uleb128 0x31
 11143 0345 13       		.uleb128 0x13
 11144 0346 52       		.uleb128 0x52
 11145 0347 01       		.uleb128 0x1
 11146 0348 B842     		.uleb128 0x2138
 11147 034a 0B       		.uleb128 0xb
 11148 034b 11       		.uleb128 0x11
 11149 034c 01       		.uleb128 0x1
 11150 034d 12       		.uleb128 0x12
 11151 034e 06       		.uleb128 0x6
 11152 034f 58       		.uleb128 0x58
 11153 0350 0B       		.uleb128 0xb
 11154 0351 59       		.uleb128 0x59
 11155 0352 05       		.uleb128 0x5
 11156 0353 57       		.uleb128 0x57
 11157 0354 0B       		.uleb128 0xb
 11158 0355 01       		.uleb128 0x1
 11159 0356 13       		.uleb128 0x13
 11160 0357 00       		.byte	0
 11161 0358 00       		.byte	0
 11162 0359 3A       		.uleb128 0x3a
 11163 035a 1D       		.uleb128 0x1d
 11164 035b 00       		.byte	0
 11165 035c 31       		.uleb128 0x31
 11166 035d 13       		.uleb128 0x13
 11167 035e 52       		.uleb128 0x52
 11168 035f 01       		.uleb128 0x1
 11169 0360 B842     		.uleb128 0x2138
 11170 0362 0B       		.uleb128 0xb
 11171 0363 11       		.uleb128 0x11
 11172 0364 01       		.uleb128 0x1
 11173 0365 12       		.uleb128 0x12
 11174 0366 06       		.uleb128 0x6
 11175 0367 58       		.uleb128 0x58
 11176 0368 0B       		.uleb128 0xb
 11177 0369 59       		.uleb128 0x59
 11178 036a 0B       		.uleb128 0xb
 11179 036b 57       		.uleb128 0x57
 11180 036c 0B       		.uleb128 0xb
 11181 036d 00       		.byte	0
 11182 036e 00       		.byte	0
 11183 036f 3B       		.uleb128 0x3b
 11184 0370 898201   		.uleb128 0x4109
 11185 0373 00       		.byte	0
 11186 0374 11       		.uleb128 0x11
 11187 0375 01       		.uleb128 0x1
 11188 0376 9542     		.uleb128 0x2115
 11189 0378 19       		.uleb128 0x19
 11190 0379 31       		.uleb128 0x31
 11191 037a 13       		.uleb128 0x13
 11192 037b 00       		.byte	0
 11193 037c 00       		.byte	0
 11194 037d 3C       		.uleb128 0x3c
 11195 037e 34       		.uleb128 0x34
ARM GAS  /tmp/ccqhiTbD.s 			page 198


 11196 037f 00       		.byte	0
 11197 0380 31       		.uleb128 0x31
 11198 0381 13       		.uleb128 0x13
 11199 0382 02       		.uleb128 0x2
 11200 0383 17       		.uleb128 0x17
 11201 0384 B742     		.uleb128 0x2137
 11202 0386 17       		.uleb128 0x17
 11203 0387 00       		.byte	0
 11204 0388 00       		.byte	0
 11205 0389 3D       		.uleb128 0x3d
 11206 038a 1D       		.uleb128 0x1d
 11207 038b 01       		.byte	0x1
 11208 038c 31       		.uleb128 0x31
 11209 038d 13       		.uleb128 0x13
 11210 038e 52       		.uleb128 0x52
 11211 038f 01       		.uleb128 0x1
 11212 0390 B842     		.uleb128 0x2138
 11213 0392 0B       		.uleb128 0xb
 11214 0393 55       		.uleb128 0x55
 11215 0394 17       		.uleb128 0x17
 11216 0395 58       		.uleb128 0x58
 11217 0396 0B       		.uleb128 0xb
 11218 0397 59       		.uleb128 0x59
 11219 0398 0B       		.uleb128 0xb
 11220 0399 57       		.uleb128 0x57
 11221 039a 0B       		.uleb128 0xb
 11222 039b 01       		.uleb128 0x1
 11223 039c 13       		.uleb128 0x13
 11224 039d 00       		.byte	0
 11225 039e 00       		.byte	0
 11226 039f 3E       		.uleb128 0x3e
 11227 03a0 1D       		.uleb128 0x1d
 11228 03a1 01       		.byte	0x1
 11229 03a2 31       		.uleb128 0x31
 11230 03a3 13       		.uleb128 0x13
 11231 03a4 52       		.uleb128 0x52
 11232 03a5 01       		.uleb128 0x1
 11233 03a6 B842     		.uleb128 0x2138
 11234 03a8 0B       		.uleb128 0xb
 11235 03a9 55       		.uleb128 0x55
 11236 03aa 17       		.uleb128 0x17
 11237 03ab 58       		.uleb128 0x58
 11238 03ac 0B       		.uleb128 0xb
 11239 03ad 59       		.uleb128 0x59
 11240 03ae 0B       		.uleb128 0xb
 11241 03af 57       		.uleb128 0x57
 11242 03b0 0B       		.uleb128 0xb
 11243 03b1 00       		.byte	0
 11244 03b2 00       		.byte	0
 11245 03b3 3F       		.uleb128 0x3f
 11246 03b4 2E       		.uleb128 0x2e
 11247 03b5 01       		.byte	0x1
 11248 03b6 03       		.uleb128 0x3
 11249 03b7 0E       		.uleb128 0xe
 11250 03b8 3A       		.uleb128 0x3a
 11251 03b9 0B       		.uleb128 0xb
 11252 03ba 3B       		.uleb128 0x3b
ARM GAS  /tmp/ccqhiTbD.s 			page 199


 11253 03bb 0B       		.uleb128 0xb
 11254 03bc 39       		.uleb128 0x39
 11255 03bd 0B       		.uleb128 0xb
 11256 03be 27       		.uleb128 0x27
 11257 03bf 19       		.uleb128 0x19
 11258 03c0 11       		.uleb128 0x11
 11259 03c1 01       		.uleb128 0x1
 11260 03c2 12       		.uleb128 0x12
 11261 03c3 06       		.uleb128 0x6
 11262 03c4 40       		.uleb128 0x40
 11263 03c5 18       		.uleb128 0x18
 11264 03c6 9742     		.uleb128 0x2117
 11265 03c8 19       		.uleb128 0x19
 11266 03c9 01       		.uleb128 0x1
 11267 03ca 13       		.uleb128 0x13
 11268 03cb 00       		.byte	0
 11269 03cc 00       		.byte	0
 11270 03cd 40       		.uleb128 0x40
 11271 03ce 05       		.uleb128 0x5
 11272 03cf 00       		.byte	0
 11273 03d0 03       		.uleb128 0x3
 11274 03d1 08       		.uleb128 0x8
 11275 03d2 3A       		.uleb128 0x3a
 11276 03d3 0B       		.uleb128 0xb
 11277 03d4 3B       		.uleb128 0x3b
 11278 03d5 0B       		.uleb128 0xb
 11279 03d6 39       		.uleb128 0x39
 11280 03d7 0B       		.uleb128 0xb
 11281 03d8 49       		.uleb128 0x49
 11282 03d9 13       		.uleb128 0x13
 11283 03da 02       		.uleb128 0x2
 11284 03db 17       		.uleb128 0x17
 11285 03dc B742     		.uleb128 0x2137
 11286 03de 17       		.uleb128 0x17
 11287 03df 00       		.byte	0
 11288 03e0 00       		.byte	0
 11289 03e1 41       		.uleb128 0x41
 11290 03e2 34       		.uleb128 0x34
 11291 03e3 00       		.byte	0
 11292 03e4 03       		.uleb128 0x3
 11293 03e5 0E       		.uleb128 0xe
 11294 03e6 3A       		.uleb128 0x3a
 11295 03e7 0B       		.uleb128 0xb
 11296 03e8 3B       		.uleb128 0x3b
 11297 03e9 0B       		.uleb128 0xb
 11298 03ea 39       		.uleb128 0x39
 11299 03eb 0B       		.uleb128 0xb
 11300 03ec 49       		.uleb128 0x49
 11301 03ed 13       		.uleb128 0x13
 11302 03ee 02       		.uleb128 0x2
 11303 03ef 17       		.uleb128 0x17
 11304 03f0 B742     		.uleb128 0x2137
 11305 03f2 17       		.uleb128 0x17
 11306 03f3 00       		.byte	0
 11307 03f4 00       		.byte	0
 11308 03f5 42       		.uleb128 0x42
 11309 03f6 1D       		.uleb128 0x1d
ARM GAS  /tmp/ccqhiTbD.s 			page 200


 11310 03f7 01       		.byte	0x1
 11311 03f8 31       		.uleb128 0x31
 11312 03f9 13       		.uleb128 0x13
 11313 03fa 52       		.uleb128 0x52
 11314 03fb 01       		.uleb128 0x1
 11315 03fc B842     		.uleb128 0x2138
 11316 03fe 0B       		.uleb128 0xb
 11317 03ff 11       		.uleb128 0x11
 11318 0400 01       		.uleb128 0x1
 11319 0401 12       		.uleb128 0x12
 11320 0402 06       		.uleb128 0x6
 11321 0403 58       		.uleb128 0x58
 11322 0404 0B       		.uleb128 0xb
 11323 0405 59       		.uleb128 0x59
 11324 0406 0B       		.uleb128 0xb
 11325 0407 57       		.uleb128 0x57
 11326 0408 0B       		.uleb128 0xb
 11327 0409 01       		.uleb128 0x1
 11328 040a 13       		.uleb128 0x13
 11329 040b 00       		.byte	0
 11330 040c 00       		.byte	0
 11331 040d 43       		.uleb128 0x43
 11332 040e 2E       		.uleb128 0x2e
 11333 040f 00       		.byte	0
 11334 0410 03       		.uleb128 0x3
 11335 0411 0E       		.uleb128 0xe
 11336 0412 3A       		.uleb128 0x3a
 11337 0413 0B       		.uleb128 0xb
 11338 0414 3B       		.uleb128 0x3b
 11339 0415 0B       		.uleb128 0xb
 11340 0416 39       		.uleb128 0x39
 11341 0417 0B       		.uleb128 0xb
 11342 0418 27       		.uleb128 0x27
 11343 0419 19       		.uleb128 0x19
 11344 041a 00       		.byte	0
 11345 041b 00       		.byte	0
 11346 041c 44       		.uleb128 0x44
 11347 041d 2E       		.uleb128 0x2e
 11348 041e 00       		.byte	0
 11349 041f 03       		.uleb128 0x3
 11350 0420 0E       		.uleb128 0xe
 11351 0421 3A       		.uleb128 0x3a
 11352 0422 0B       		.uleb128 0xb
 11353 0423 3B       		.uleb128 0x3b
 11354 0424 0B       		.uleb128 0xb
 11355 0425 39       		.uleb128 0x39
 11356 0426 0B       		.uleb128 0xb
 11357 0427 27       		.uleb128 0x27
 11358 0428 19       		.uleb128 0x19
 11359 0429 49       		.uleb128 0x49
 11360 042a 13       		.uleb128 0x13
 11361 042b 20       		.uleb128 0x20
 11362 042c 0B       		.uleb128 0xb
 11363 042d 00       		.byte	0
 11364 042e 00       		.byte	0
 11365 042f 45       		.uleb128 0x45
 11366 0430 2E       		.uleb128 0x2e
ARM GAS  /tmp/ccqhiTbD.s 			page 201


 11367 0431 01       		.byte	0x1
 11368 0432 03       		.uleb128 0x3
 11369 0433 0E       		.uleb128 0xe
 11370 0434 3A       		.uleb128 0x3a
 11371 0435 0B       		.uleb128 0xb
 11372 0436 3B       		.uleb128 0x3b
 11373 0437 0B       		.uleb128 0xb
 11374 0438 39       		.uleb128 0x39
 11375 0439 0B       		.uleb128 0xb
 11376 043a 27       		.uleb128 0x27
 11377 043b 19       		.uleb128 0x19
 11378 043c 49       		.uleb128 0x49
 11379 043d 13       		.uleb128 0x13
 11380 043e 20       		.uleb128 0x20
 11381 043f 0B       		.uleb128 0xb
 11382 0440 01       		.uleb128 0x1
 11383 0441 13       		.uleb128 0x13
 11384 0442 00       		.byte	0
 11385 0443 00       		.byte	0
 11386 0444 46       		.uleb128 0x46
 11387 0445 34       		.uleb128 0x34
 11388 0446 00       		.byte	0
 11389 0447 03       		.uleb128 0x3
 11390 0448 0E       		.uleb128 0xe
 11391 0449 3A       		.uleb128 0x3a
 11392 044a 0B       		.uleb128 0xb
 11393 044b 3B       		.uleb128 0x3b
 11394 044c 0B       		.uleb128 0xb
 11395 044d 39       		.uleb128 0x39
 11396 044e 0B       		.uleb128 0xb
 11397 044f 49       		.uleb128 0x49
 11398 0450 13       		.uleb128 0x13
 11399 0451 00       		.byte	0
 11400 0452 00       		.byte	0
 11401 0453 47       		.uleb128 0x47
 11402 0454 2E       		.uleb128 0x2e
 11403 0455 01       		.byte	0x1
 11404 0456 03       		.uleb128 0x3
 11405 0457 0E       		.uleb128 0xe
 11406 0458 3A       		.uleb128 0x3a
 11407 0459 0B       		.uleb128 0xb
 11408 045a 3B       		.uleb128 0x3b
 11409 045b 05       		.uleb128 0x5
 11410 045c 39       		.uleb128 0x39
 11411 045d 0B       		.uleb128 0xb
 11412 045e 27       		.uleb128 0x27
 11413 045f 19       		.uleb128 0x19
 11414 0460 20       		.uleb128 0x20
 11415 0461 0B       		.uleb128 0xb
 11416 0462 01       		.uleb128 0x1
 11417 0463 13       		.uleb128 0x13
 11418 0464 00       		.byte	0
 11419 0465 00       		.byte	0
 11420 0466 48       		.uleb128 0x48
 11421 0467 34       		.uleb128 0x34
 11422 0468 00       		.byte	0
 11423 0469 03       		.uleb128 0x3
ARM GAS  /tmp/ccqhiTbD.s 			page 202


 11424 046a 0E       		.uleb128 0xe
 11425 046b 49       		.uleb128 0x49
 11426 046c 13       		.uleb128 0x13
 11427 046d 34       		.uleb128 0x34
 11428 046e 19       		.uleb128 0x19
 11429 046f 02       		.uleb128 0x2
 11430 0470 18       		.uleb128 0x18
 11431 0471 00       		.byte	0
 11432 0472 00       		.byte	0
 11433 0473 49       		.uleb128 0x49
 11434 0474 2E       		.uleb128 0x2e
 11435 0475 01       		.byte	0x1
 11436 0476 03       		.uleb128 0x3
 11437 0477 0E       		.uleb128 0xe
 11438 0478 3A       		.uleb128 0x3a
 11439 0479 0B       		.uleb128 0xb
 11440 047a 3B       		.uleb128 0x3b
 11441 047b 05       		.uleb128 0x5
 11442 047c 39       		.uleb128 0x39
 11443 047d 0B       		.uleb128 0xb
 11444 047e 27       		.uleb128 0x27
 11445 047f 19       		.uleb128 0x19
 11446 0480 49       		.uleb128 0x49
 11447 0481 13       		.uleb128 0x13
 11448 0482 20       		.uleb128 0x20
 11449 0483 0B       		.uleb128 0xb
 11450 0484 01       		.uleb128 0x1
 11451 0485 13       		.uleb128 0x13
 11452 0486 00       		.byte	0
 11453 0487 00       		.byte	0
 11454 0488 4A       		.uleb128 0x4a
 11455 0489 05       		.uleb128 0x5
 11456 048a 00       		.byte	0
 11457 048b 03       		.uleb128 0x3
 11458 048c 08       		.uleb128 0x8
 11459 048d 3A       		.uleb128 0x3a
 11460 048e 0B       		.uleb128 0xb
 11461 048f 3B       		.uleb128 0x3b
 11462 0490 05       		.uleb128 0x5
 11463 0491 39       		.uleb128 0x39
 11464 0492 0B       		.uleb128 0xb
 11465 0493 49       		.uleb128 0x49
 11466 0494 13       		.uleb128 0x13
 11467 0495 00       		.byte	0
 11468 0496 00       		.byte	0
 11469 0497 4B       		.uleb128 0x4b
 11470 0498 05       		.uleb128 0x5
 11471 0499 00       		.byte	0
 11472 049a 03       		.uleb128 0x3
 11473 049b 0E       		.uleb128 0xe
 11474 049c 3A       		.uleb128 0x3a
 11475 049d 0B       		.uleb128 0xb
 11476 049e 3B       		.uleb128 0x3b
 11477 049f 05       		.uleb128 0x5
 11478 04a0 39       		.uleb128 0x39
 11479 04a1 0B       		.uleb128 0xb
 11480 04a2 49       		.uleb128 0x49
ARM GAS  /tmp/ccqhiTbD.s 			page 203


 11481 04a3 13       		.uleb128 0x13
 11482 04a4 00       		.byte	0
 11483 04a5 00       		.byte	0
 11484 04a6 4C       		.uleb128 0x4c
 11485 04a7 2E       		.uleb128 0x2e
 11486 04a8 01       		.byte	0x1
 11487 04a9 31       		.uleb128 0x31
 11488 04aa 13       		.uleb128 0x13
 11489 04ab 11       		.uleb128 0x11
 11490 04ac 01       		.uleb128 0x1
 11491 04ad 12       		.uleb128 0x12
 11492 04ae 06       		.uleb128 0x6
 11493 04af 40       		.uleb128 0x40
 11494 04b0 18       		.uleb128 0x18
 11495 04b1 9742     		.uleb128 0x2117
 11496 04b3 19       		.uleb128 0x19
 11497 04b4 01       		.uleb128 0x1
 11498 04b5 13       		.uleb128 0x13
 11499 04b6 00       		.byte	0
 11500 04b7 00       		.byte	0
 11501 04b8 4D       		.uleb128 0x4d
 11502 04b9 898201   		.uleb128 0x4109
 11503 04bc 01       		.byte	0x1
 11504 04bd 11       		.uleb128 0x11
 11505 04be 01       		.uleb128 0x1
 11506 04bf 9542     		.uleb128 0x2115
 11507 04c1 19       		.uleb128 0x19
 11508 04c2 31       		.uleb128 0x31
 11509 04c3 13       		.uleb128 0x13
 11510 04c4 00       		.byte	0
 11511 04c5 00       		.byte	0
 11512 04c6 4E       		.uleb128 0x4e
 11513 04c7 2E       		.uleb128 0x2e
 11514 04c8 00       		.byte	0
 11515 04c9 3F       		.uleb128 0x3f
 11516 04ca 19       		.uleb128 0x19
 11517 04cb 3C       		.uleb128 0x3c
 11518 04cc 19       		.uleb128 0x19
 11519 04cd 6E       		.uleb128 0x6e
 11520 04ce 0E       		.uleb128 0xe
 11521 04cf 03       		.uleb128 0x3
 11522 04d0 0E       		.uleb128 0xe
 11523 04d1 3A       		.uleb128 0x3a
 11524 04d2 0B       		.uleb128 0xb
 11525 04d3 3B       		.uleb128 0x3b
 11526 04d4 0B       		.uleb128 0xb
 11527 04d5 39       		.uleb128 0x39
 11528 04d6 0B       		.uleb128 0xb
 11529 04d7 00       		.byte	0
 11530 04d8 00       		.byte	0
 11531 04d9 4F       		.uleb128 0x4f
 11532 04da 2E       		.uleb128 0x2e
 11533 04db 00       		.byte	0
 11534 04dc 3F       		.uleb128 0x3f
 11535 04dd 19       		.uleb128 0x19
 11536 04de 3C       		.uleb128 0x3c
 11537 04df 19       		.uleb128 0x19
ARM GAS  /tmp/ccqhiTbD.s 			page 204


 11538 04e0 6E       		.uleb128 0x6e
 11539 04e1 0E       		.uleb128 0xe
 11540 04e2 03       		.uleb128 0x3
 11541 04e3 0E       		.uleb128 0xe
 11542 04e4 00       		.byte	0
 11543 04e5 00       		.byte	0
 11544 04e6 50       		.uleb128 0x50
 11545 04e7 2E       		.uleb128 0x2e
 11546 04e8 00       		.byte	0
 11547 04e9 3F       		.uleb128 0x3f
 11548 04ea 19       		.uleb128 0x19
 11549 04eb 3C       		.uleb128 0x3c
 11550 04ec 19       		.uleb128 0x19
 11551 04ed 6E       		.uleb128 0x6e
 11552 04ee 0E       		.uleb128 0xe
 11553 04ef 03       		.uleb128 0x3
 11554 04f0 0E       		.uleb128 0xe
 11555 04f1 3A       		.uleb128 0x3a
 11556 04f2 0B       		.uleb128 0xb
 11557 04f3 3B       		.uleb128 0x3b
 11558 04f4 05       		.uleb128 0x5
 11559 04f5 39       		.uleb128 0x39
 11560 04f6 0B       		.uleb128 0xb
 11561 04f7 00       		.byte	0
 11562 04f8 00       		.byte	0
 11563 04f9 00       		.byte	0
 11564              		.section	.debug_loc,"",%progbits
 11565              	.Ldebug_loc0:
 11566              	.LVUS20:
 11567 0000 05       		.uleb128 .LVU512
 11568 0001 00       		.uleb128 .LVU534
 11569 0002 00       		.uleb128 .LVU535
 11570 0003 00       		.uleb128 0
 11571              	.LLST20:
 11572 0004 20000000 		.4byte	.LVL183
 11573 0008 7E000000 		.4byte	.LVL190
 11574 000c 0100     		.2byte	0x1
 11575 000e 55       		.byte	0x55
 11576 000f 82000000 		.4byte	.LVL191
 11577 0013 B8000000 		.4byte	.LFE248
 11578 0017 0100     		.2byte	0x1
 11579 0019 55       		.byte	0x55
 11580 001a 00000000 		.4byte	0
 11581 001e 00000000 		.4byte	0
 11582              	.LVUS2:
 11583 0022 00       		.uleb128 0
 11584 0023 00       		.uleb128 .LVU75
 11585 0024 00       		.uleb128 .LVU75
 11586 0025 00       		.uleb128 .LVU80
 11587 0026 00       		.uleb128 .LVU80
 11588 0027 00       		.uleb128 .LVU81
 11589 0028 00       		.uleb128 .LVU81
 11590 0029 00       		.uleb128 0
 11591              	.LLST2:
 11592 002a 00000000 		.4byte	.LVL21
 11593 002e 0A000000 		.4byte	.LVL22
 11594 0032 0100     		.2byte	0x1
ARM GAS  /tmp/ccqhiTbD.s 			page 205


 11595 0034 50       		.byte	0x50
 11596 0035 0A000000 		.4byte	.LVL22
 11597 0039 2E000000 		.4byte	.LVL25
 11598 003d 0100     		.2byte	0x1
 11599 003f 54       		.byte	0x54
 11600 0040 2E000000 		.4byte	.LVL25
 11601 0044 32000000 		.4byte	.LVL26
 11602 0048 0400     		.2byte	0x4
 11603 004a F3       		.byte	0xf3
 11604 004b 01       		.uleb128 0x1
 11605 004c 50       		.byte	0x50
 11606 004d 9F       		.byte	0x9f
 11607 004e 32000000 		.4byte	.LVL26
 11608 0052 40000000 		.4byte	.LFE247
 11609 0056 0100     		.2byte	0x1
 11610 0058 54       		.byte	0x54
 11611 0059 00000000 		.4byte	0
 11612 005d 00000000 		.4byte	0
 11613              	.LVUS21:
 11614 0061 00       		.uleb128 0
 11615 0062 00       		.uleb128 .LVU540
 11616 0063 00       		.uleb128 .LVU540
 11617 0064 00       		.uleb128 .LVU548
 11618 0065 00       		.uleb128 .LVU548
 11619 0066 00       		.uleb128 .LVU549
 11620 0067 00       		.uleb128 .LVU549
 11621 0068 00       		.uleb128 0
 11622              	.LLST21:
 11623 0069 00000000 		.4byte	.LVL193
 11624 006d 0A000000 		.4byte	.LVL194
 11625 0071 0100     		.2byte	0x1
 11626 0073 50       		.byte	0x50
 11627 0074 0A000000 		.4byte	.LVL194
 11628 0078 44000000 		.4byte	.LVL200
 11629 007c 0100     		.2byte	0x1
 11630 007e 54       		.byte	0x54
 11631 007f 44000000 		.4byte	.LVL200
 11632 0083 48000000 		.4byte	.LVL201
 11633 0087 0400     		.2byte	0x4
 11634 0089 F3       		.byte	0xf3
 11635 008a 01       		.uleb128 0x1
 11636 008b 50       		.byte	0x50
 11637 008c 9F       		.byte	0x9f
 11638 008d 48000000 		.4byte	.LVL201
 11639 0091 5C000000 		.4byte	.LFE246
 11640 0095 0100     		.2byte	0x1
 11641 0097 54       		.byte	0x54
 11642 0098 00000000 		.4byte	0
 11643 009c 00000000 		.4byte	0
 11644              	.LVUS19:
 11645 00a0 05       		.uleb128 .LVU461
 11646 00a1 00       		.uleb128 .LVU494
 11647 00a2 00       		.uleb128 .LVU495
 11648 00a3 00       		.uleb128 0
 11649              	.LLST19:
 11650 00a4 20000000 		.4byte	.LVL172
 11651 00a8 A4000000 		.4byte	.LVL180
ARM GAS  /tmp/ccqhiTbD.s 			page 206


 11652 00ac 0100     		.2byte	0x1
 11653 00ae 55       		.byte	0x55
 11654 00af A8000000 		.4byte	.LVL181
 11655 00b3 DC000000 		.4byte	.LFE244
 11656 00b7 0100     		.2byte	0x1
 11657 00b9 55       		.byte	0x55
 11658 00ba 00000000 		.4byte	0
 11659 00be 00000000 		.4byte	0
 11660              	.LVUS27:
 11661 00c2 05       		.uleb128 .LVU665
 11662 00c3 00       		.uleb128 .LVU726
 11663 00c4 00       		.uleb128 .LVU727
 11664 00c5 00       		.uleb128 0
 11665              	.LLST27:
 11666 00c6 20000000 		.4byte	.LVL228
 11667 00ca EA000000 		.4byte	.LVL249
 11668 00ce 0100     		.2byte	0x1
 11669 00d0 55       		.byte	0x55
 11670 00d1 EE000000 		.4byte	.LVL250
 11671 00d5 30010000 		.4byte	.LFE242
 11672 00d9 0100     		.2byte	0x1
 11673 00db 55       		.byte	0x55
 11674 00dc 00000000 		.4byte	0
 11675 00e0 00000000 		.4byte	0
 11676              	.LVUS28:
 11677 00e4 05       		.uleb128 .LVU698
 11678 00e5 00       		.uleb128 .LVU700
 11679              	.LLST28:
 11680 00e6 86000000 		.4byte	.LVL234
 11681 00ea 8A000000 		.4byte	.LVL235
 11682 00ee 0300     		.2byte	0x3
 11683 00f0 08       		.byte	0x8
 11684 00f1 20       		.byte	0x20
 11685 00f2 9F       		.byte	0x9f
 11686 00f3 00000000 		.4byte	0
 11687 00f7 00000000 		.4byte	0
 11688              	.LVUS29:
 11689 00fb 04       		.uleb128 .LVU720
 11690 00fc 00       		.uleb128 .LVU722
 11691              	.LLST29:
 11692 00fd CC000000 		.4byte	.LVL246
 11693 0101 D2000000 		.4byte	.LVL247
 11694 0105 0200     		.2byte	0x2
 11695 0107 30       		.byte	0x30
 11696 0108 9F       		.byte	0x9f
 11697 0109 00000000 		.4byte	0
 11698 010d 00000000 		.4byte	0
 11699              	.LVUS18:
 11700 0111 00       		.uleb128 0
 11701 0112 00       		.uleb128 .LVU419
 11702 0113 00       		.uleb128 .LVU419
 11703 0114 00       		.uleb128 .LVU425
 11704 0115 00       		.uleb128 .LVU425
 11705 0116 00       		.uleb128 .LVU426
 11706 0117 00       		.uleb128 .LVU426
 11707 0118 00       		.uleb128 0
 11708              	.LLST18:
ARM GAS  /tmp/ccqhiTbD.s 			page 207


 11709 0119 00000000 		.4byte	.LVL157
 11710 011d 0A000000 		.4byte	.LVL158
 11711 0121 0100     		.2byte	0x1
 11712 0123 50       		.byte	0x50
 11713 0124 0A000000 		.4byte	.LVL158
 11714 0128 34000000 		.4byte	.LVL162
 11715 012c 0100     		.2byte	0x1
 11716 012e 54       		.byte	0x54
 11717 012f 34000000 		.4byte	.LVL162
 11718 0133 38000000 		.4byte	.LVL163
 11719 0137 0400     		.2byte	0x4
 11720 0139 F3       		.byte	0xf3
 11721 013a 01       		.uleb128 0x1
 11722 013b 50       		.byte	0x50
 11723 013c 9F       		.byte	0x9f
 11724 013d 38000000 		.4byte	.LVL163
 11725 0141 48000000 		.4byte	.LFE241
 11726 0145 0100     		.2byte	0x1
 11727 0147 54       		.byte	0x54
 11728 0148 00000000 		.4byte	0
 11729 014c 00000000 		.4byte	0
 11730              	.LVUS13:
 11731 0150 06       		.uleb128 .LVU231
 11732 0151 00       		.uleb128 .LVU412
 11733 0152 00       		.uleb128 .LVU413
 11734 0153 00       		.uleb128 0
 11735              	.LLST13:
 11736 0154 26000000 		.4byte	.LVL108
 11737 0158 66020000 		.4byte	.LVL153
 11738 015c 0100     		.2byte	0x1
 11739 015e 54       		.byte	0x54
 11740 015f 6A020000 		.4byte	.LVL154
 11741 0163 AC020000 		.4byte	.LFE237
 11742 0167 0100     		.2byte	0x1
 11743 0169 54       		.byte	0x54
 11744 016a 00000000 		.4byte	0
 11745 016e 00000000 		.4byte	0
 11746              	.LVUS14:
 11747 0172 08       		.uleb128 .LVU233
 11748 0173 00       		.uleb128 .LVU235
 11749 0174 00       		.uleb128 .LVU235
 11750 0175 00       		.uleb128 .LVU412
 11751 0176 00       		.uleb128 .LVU413
 11752 0177 00       		.uleb128 0
 11753              	.LLST14:
 11754 0178 26000000 		.4byte	.LVL108
 11755 017c 2F000000 		.4byte	.LVL109-1
 11756 0180 0100     		.2byte	0x1
 11757 0182 52       		.byte	0x52
 11758 0183 2F000000 		.4byte	.LVL109-1
 11759 0187 66020000 		.4byte	.LVL153
 11760 018b 0100     		.2byte	0x1
 11761 018d 57       		.byte	0x57
 11762 018e 6A020000 		.4byte	.LVL154
 11763 0192 AC020000 		.4byte	.LFE237
 11764 0196 0100     		.2byte	0x1
 11765 0198 57       		.byte	0x57
ARM GAS  /tmp/ccqhiTbD.s 			page 208


 11766 0199 00000000 		.4byte	0
 11767 019d 00000000 		.4byte	0
 11768              	.LVUS15:
 11769 01a1 00       		.uleb128 .LVU240
 11770 01a2 00       		.uleb128 .LVU412
 11771 01a3 00       		.uleb128 .LVU413
 11772 01a4 00       		.uleb128 0
 11773              	.LLST15:
 11774 01a5 40000000 		.4byte	.LVL110
 11775 01a9 66020000 		.4byte	.LVL153
 11776 01ad 0100     		.2byte	0x1
 11777 01af 58       		.byte	0x58
 11778 01b0 6A020000 		.4byte	.LVL154
 11779 01b4 AC020000 		.4byte	.LFE237
 11780 01b8 0100     		.2byte	0x1
 11781 01ba 58       		.byte	0x58
 11782 01bb 00000000 		.4byte	0
 11783 01bf 00000000 		.4byte	0
 11784              	.LVUS16:
 11785 01c3 06       		.uleb128 .LVU363
 11786 01c4 00       		.uleb128 .LVU365
 11787              	.LLST16:
 11788 01c5 D4010000 		.4byte	.LVL138
 11789 01c9 DA010000 		.4byte	.LVL139
 11790 01cd 0300     		.2byte	0x3
 11791 01cf 08       		.byte	0x8
 11792 01d0 20       		.byte	0x20
 11793 01d1 9F       		.byte	0x9f
 11794 01d2 00000000 		.4byte	0
 11795 01d6 00000000 		.4byte	0
 11796              	.LVUS17:
 11797 01da 04       		.uleb128 .LVU381
 11798 01db 00       		.uleb128 .LVU383
 11799              	.LLST17:
 11800 01dc 04020000 		.4byte	.LVL146
 11801 01e0 0A020000 		.4byte	.LVL147
 11802 01e4 0200     		.2byte	0x2
 11803 01e6 30       		.byte	0x30
 11804 01e7 9F       		.byte	0x9f
 11805 01e8 00000000 		.4byte	0
 11806 01ec 00000000 		.4byte	0
 11807              	.LVUS11:
 11808 01f0 00       		.uleb128 0
 11809 01f1 00       		.uleb128 .LVU196
 11810 01f2 00       		.uleb128 .LVU196
 11811 01f3 00       		.uleb128 0
 11812              	.LLST11:
 11813 01f4 00000000 		.4byte	.LVL96
 11814 01f8 08000000 		.4byte	.LVL97
 11815 01fc 0100     		.2byte	0x1
 11816 01fe 50       		.byte	0x50
 11817 01ff 08000000 		.4byte	.LVL97
 11818 0203 3C000000 		.4byte	.LFE236
 11819 0207 0400     		.2byte	0x4
 11820 0209 F3       		.byte	0xf3
 11821 020a 01       		.uleb128 0x1
 11822 020b 50       		.byte	0x50
ARM GAS  /tmp/ccqhiTbD.s 			page 209


 11823 020c 9F       		.byte	0x9f
 11824 020d 00000000 		.4byte	0
 11825 0211 00000000 		.4byte	0
 11826              	.LVUS12:
 11827 0215 00       		.uleb128 0
 11828 0216 00       		.uleb128 .LVU206
 11829 0217 00       		.uleb128 .LVU206
 11830 0218 00       		.uleb128 0
 11831              	.LLST12:
 11832 0219 00000000 		.4byte	.LVL102
 11833 021d 08000000 		.4byte	.LVL103
 11834 0221 0100     		.2byte	0x1
 11835 0223 50       		.byte	0x50
 11836 0224 08000000 		.4byte	.LVL103
 11837 0228 3C000000 		.4byte	.LFE235
 11838 022c 0400     		.2byte	0x4
 11839 022e F3       		.byte	0xf3
 11840 022f 01       		.uleb128 0x1
 11841 0230 50       		.byte	0x50
 11842 0231 9F       		.byte	0x9f
 11843 0232 00000000 		.4byte	0
 11844 0236 00000000 		.4byte	0
 11845              	.LVUS30:
 11846 023a 02       		.uleb128 .LVU768
 11847 023b 00       		.uleb128 .LVU815
 11848 023c 00       		.uleb128 .LVU816
 11849 023d 00       		.uleb128 .LVU820
 11850 023e 00       		.uleb128 .LVU820
 11851 023f 00       		.uleb128 .LVU821
 11852 0240 00       		.uleb128 .LVU821
 11853 0241 00       		.uleb128 0
 11854              	.LLST30:
 11855 0242 46000000 		.4byte	.LVL261
 11856 0246 D6000000 		.4byte	.LVL269
 11857 024a 0100     		.2byte	0x1
 11858 024c 58       		.byte	0x58
 11859 024d DE000000 		.4byte	.LVL271
 11860 0251 F6000000 		.4byte	.LVL272
 11861 0255 0100     		.2byte	0x1
 11862 0257 58       		.byte	0x58
 11863 0258 F6000000 		.4byte	.LVL272
 11864 025c F9000000 		.4byte	.LVL273-1
 11865 0260 0400     		.2byte	0x4
 11866 0262 71       		.byte	0x71
 11867 0263 927F     		.sleb128 -110
 11868 0265 9F       		.byte	0x9f
 11869 0266 FA000000 		.4byte	.LVL273
 11870 026a 2C010000 		.4byte	.LFE233
 11871 026e 0100     		.2byte	0x1
 11872 0270 58       		.byte	0x58
 11873 0271 00000000 		.4byte	0
 11874 0275 00000000 		.4byte	0
 11875              	.LVUS31:
 11876 0279 00       		.uleb128 .LVU752
 11877 027a 00       		.uleb128 .LVU820
 11878 027b 00       		.uleb128 .LVU820
 11879 027c 00       		.uleb128 .LVU821
ARM GAS  /tmp/ccqhiTbD.s 			page 210


 11880 027d 00       		.uleb128 .LVU821
 11881 027e 00       		.uleb128 0
 11882              	.LLST31:
 11883 027f 28000000 		.4byte	.LVL257
 11884 0283 F6000000 		.4byte	.LVL272
 11885 0287 0100     		.2byte	0x1
 11886 0289 58       		.byte	0x58
 11887 028a F6000000 		.4byte	.LVL272
 11888 028e F9000000 		.4byte	.LVL273-1
 11889 0292 0400     		.2byte	0x4
 11890 0294 71       		.byte	0x71
 11891 0295 927F     		.sleb128 -110
 11892 0297 9F       		.byte	0x9f
 11893 0298 FA000000 		.4byte	.LVL273
 11894 029c 2C010000 		.4byte	.LFE233
 11895 02a0 0100     		.2byte	0x1
 11896 02a2 58       		.byte	0x58
 11897 02a3 00000000 		.4byte	0
 11898 02a7 00000000 		.4byte	0
 11899              	.LVUS32:
 11900 02ab 08       		.uleb128 .LVU741
 11901 02ac 00       		.uleb128 .LVU743
 11902              	.LLST32:
 11903 02ad 14000000 		.4byte	.LVL253
 11904 02b1 1A000000 		.4byte	.LVL254
 11905 02b5 0300     		.2byte	0x3
 11906 02b7 08       		.byte	0x8
 11907 02b8 20       		.byte	0x20
 11908 02b9 9F       		.byte	0x9f
 11909 02ba 00000000 		.4byte	0
 11910 02be 00000000 		.4byte	0
 11911              	.LVUS33:
 11912 02c2 04       		.uleb128 .LVU764
 11913 02c3 00       		.uleb128 .LVU766
 11914              	.LLST33:
 11915 02c4 40000000 		.4byte	.LVL260
 11916 02c8 46000000 		.4byte	.LVL261
 11917 02cc 0200     		.2byte	0x2
 11918 02ce 30       		.byte	0x30
 11919 02cf 9F       		.byte	0x9f
 11920 02d0 00000000 		.4byte	0
 11921 02d4 00000000 		.4byte	0
 11922              	.LVUS7:
 11923 02d8 00       		.uleb128 0
 11924 02d9 00       		.uleb128 .LVU146
 11925 02da 00       		.uleb128 .LVU146
 11926 02db 00       		.uleb128 0
 11927              	.LLST7:
 11928 02dc 00000000 		.4byte	.LVL62
 11929 02e0 08000000 		.4byte	.LVL63
 11930 02e4 0100     		.2byte	0x1
 11931 02e6 50       		.byte	0x50
 11932 02e7 08000000 		.4byte	.LVL63
 11933 02eb 48000000 		.4byte	.LFE232
 11934 02ef 0400     		.2byte	0x4
 11935 02f1 F3       		.byte	0xf3
 11936 02f2 01       		.uleb128 0x1
ARM GAS  /tmp/ccqhiTbD.s 			page 211


 11937 02f3 50       		.byte	0x50
 11938 02f4 9F       		.byte	0x9f
 11939 02f5 00000000 		.4byte	0
 11940 02f9 00000000 		.4byte	0
 11941              	.LVUS8:
 11942 02fd 00       		.uleb128 0
 11943 02fe 00       		.uleb128 .LVU158
 11944 02ff 00       		.uleb128 .LVU158
 11945 0300 00       		.uleb128 0
 11946              	.LLST8:
 11947 0301 00000000 		.4byte	.LVL70
 11948 0305 08000000 		.4byte	.LVL71
 11949 0309 0100     		.2byte	0x1
 11950 030b 50       		.byte	0x50
 11951 030c 08000000 		.4byte	.LVL71
 11952 0310 38000000 		.4byte	.LFE231
 11953 0314 0400     		.2byte	0x4
 11954 0316 F3       		.byte	0xf3
 11955 0317 01       		.uleb128 0x1
 11956 0318 50       		.byte	0x50
 11957 0319 9F       		.byte	0x9f
 11958 031a 00000000 		.4byte	0
 11959 031e 00000000 		.4byte	0
 11960              	.LVUS9:
 11961 0322 00       		.uleb128 0
 11962 0323 00       		.uleb128 .LVU168
 11963 0324 00       		.uleb128 .LVU168
 11964 0325 00       		.uleb128 0
 11965              	.LLST9:
 11966 0326 00000000 		.4byte	.LVL76
 11967 032a 08000000 		.4byte	.LVL77
 11968 032e 0100     		.2byte	0x1
 11969 0330 50       		.byte	0x50
 11970 0331 08000000 		.4byte	.LVL77
 11971 0335 48000000 		.4byte	.LFE230
 11972 0339 0400     		.2byte	0x4
 11973 033b F3       		.byte	0xf3
 11974 033c 01       		.uleb128 0x1
 11975 033d 50       		.byte	0x50
 11976 033e 9F       		.byte	0x9f
 11977 033f 00000000 		.4byte	0
 11978 0343 00000000 		.4byte	0
 11979              	.LVUS10:
 11980 0347 00       		.uleb128 0
 11981 0348 00       		.uleb128 .LVU180
 11982 0349 00       		.uleb128 .LVU180
 11983 034a 00       		.uleb128 0
 11984              	.LLST10:
 11985 034b 00000000 		.4byte	.LVL84
 11986 034f 08000000 		.4byte	.LVL85
 11987 0353 0100     		.2byte	0x1
 11988 0355 50       		.byte	0x50
 11989 0356 08000000 		.4byte	.LVL85
 11990 035a 64000000 		.4byte	.LFE229
 11991 035e 0400     		.2byte	0x4
 11992 0360 F3       		.byte	0xf3
 11993 0361 01       		.uleb128 0x1
ARM GAS  /tmp/ccqhiTbD.s 			page 212


 11994 0362 50       		.byte	0x50
 11995 0363 9F       		.byte	0x9f
 11996 0364 00000000 		.4byte	0
 11997 0368 00000000 		.4byte	0
 11998              	.LVUS4:
 11999 036c 00       		.uleb128 0
 12000 036d 00       		.uleb128 .LVU112
 12001 036e 00       		.uleb128 .LVU112
 12002 036f 00       		.uleb128 0
 12003              	.LLST4:
 12004 0370 00000000 		.4byte	.LVL41
 12005 0374 06000000 		.4byte	.LVL42
 12006 0378 0100     		.2byte	0x1
 12007 037a 50       		.byte	0x50
 12008 037b 06000000 		.4byte	.LVL42
 12009 037f 44000000 		.4byte	.LFE228
 12010 0383 0400     		.2byte	0x4
 12011 0385 F3       		.byte	0xf3
 12012 0386 01       		.uleb128 0x1
 12013 0387 50       		.byte	0x50
 12014 0388 9F       		.byte	0x9f
 12015 0389 00000000 		.4byte	0
 12016 038d 00000000 		.4byte	0
 12017              	.LVUS23:
 12018 0391 02       		.uleb128 .LVU610
 12019 0392 00       		.uleb128 .LVU641
 12020 0393 00       		.uleb128 .LVU642
 12021 0394 00       		.uleb128 .LVU646
 12022 0395 00       		.uleb128 .LVU646
 12023 0396 00       		.uleb128 .LVU647
 12024 0397 00       		.uleb128 .LVU647
 12025 0398 00       		.uleb128 0
 12026              	.LLST23:
 12027 0399 46000000 		.4byte	.LVL216
 12028 039d AA000000 		.4byte	.LVL222
 12029 03a1 0100     		.2byte	0x1
 12030 03a3 58       		.byte	0x58
 12031 03a4 B2000000 		.4byte	.LVL224
 12032 03a8 CA000000 		.4byte	.LVL225
 12033 03ac 0100     		.2byte	0x1
 12034 03ae 58       		.byte	0x58
 12035 03af CA000000 		.4byte	.LVL225
 12036 03b3 CD000000 		.4byte	.LVL226-1
 12037 03b7 0400     		.2byte	0x4
 12038 03b9 71       		.byte	0x71
 12039 03ba 9C7F     		.sleb128 -100
 12040 03bc 9F       		.byte	0x9f
 12041 03bd CE000000 		.4byte	.LVL226
 12042 03c1 F8000000 		.4byte	.LFE226
 12043 03c5 0100     		.2byte	0x1
 12044 03c7 58       		.byte	0x58
 12045 03c8 00000000 		.4byte	0
 12046 03cc 00000000 		.4byte	0
 12047              	.LVUS24:
 12048 03d0 00       		.uleb128 .LVU594
 12049 03d1 00       		.uleb128 .LVU646
 12050 03d2 00       		.uleb128 .LVU646
ARM GAS  /tmp/ccqhiTbD.s 			page 213


 12051 03d3 00       		.uleb128 .LVU647
 12052 03d4 00       		.uleb128 .LVU647
 12053 03d5 00       		.uleb128 0
 12054              	.LLST24:
 12055 03d6 28000000 		.4byte	.LVL212
 12056 03da CA000000 		.4byte	.LVL225
 12057 03de 0100     		.2byte	0x1
 12058 03e0 58       		.byte	0x58
 12059 03e1 CA000000 		.4byte	.LVL225
 12060 03e5 CD000000 		.4byte	.LVL226-1
 12061 03e9 0400     		.2byte	0x4
 12062 03eb 71       		.byte	0x71
 12063 03ec 9C7F     		.sleb128 -100
 12064 03ee 9F       		.byte	0x9f
 12065 03ef CE000000 		.4byte	.LVL226
 12066 03f3 F8000000 		.4byte	.LFE226
 12067 03f7 0100     		.2byte	0x1
 12068 03f9 58       		.byte	0x58
 12069 03fa 00000000 		.4byte	0
 12070 03fe 00000000 		.4byte	0
 12071              	.LVUS25:
 12072 0402 08       		.uleb128 .LVU583
 12073 0403 00       		.uleb128 .LVU585
 12074              	.LLST25:
 12075 0404 14000000 		.4byte	.LVL208
 12076 0408 1A000000 		.4byte	.LVL209
 12077 040c 0300     		.2byte	0x3
 12078 040e 08       		.byte	0x8
 12079 040f 20       		.byte	0x20
 12080 0410 9F       		.byte	0x9f
 12081 0411 00000000 		.4byte	0
 12082 0415 00000000 		.4byte	0
 12083              	.LVUS26:
 12084 0419 04       		.uleb128 .LVU606
 12085 041a 00       		.uleb128 .LVU608
 12086              	.LLST26:
 12087 041b 40000000 		.4byte	.LVL215
 12088 041f 46000000 		.4byte	.LVL216
 12089 0423 0200     		.2byte	0x2
 12090 0425 30       		.byte	0x30
 12091 0426 9F       		.byte	0x9f
 12092 0427 00000000 		.4byte	0
 12093 042b 00000000 		.4byte	0
 12094              	.LVUS6:
 12095 042f 00       		.uleb128 0
 12096 0430 00       		.uleb128 .LVU134
 12097 0431 00       		.uleb128 .LVU134
 12098 0432 00       		.uleb128 0
 12099              	.LLST6:
 12100 0433 00000000 		.4byte	.LVL54
 12101 0437 08000000 		.4byte	.LVL55
 12102 043b 0100     		.2byte	0x1
 12103 043d 50       		.byte	0x50
 12104 043e 08000000 		.4byte	.LVL55
 12105 0442 48000000 		.4byte	.LFE225
 12106 0446 0400     		.2byte	0x4
 12107 0448 F3       		.byte	0xf3
ARM GAS  /tmp/ccqhiTbD.s 			page 214


 12108 0449 01       		.uleb128 0x1
 12109 044a 50       		.byte	0x50
 12110 044b 9F       		.byte	0x9f
 12111 044c 00000000 		.4byte	0
 12112 0450 00000000 		.4byte	0
 12113              	.LVUS5:
 12114 0454 00       		.uleb128 0
 12115 0455 00       		.uleb128 .LVU124
 12116 0456 00       		.uleb128 .LVU124
 12117 0457 00       		.uleb128 0
 12118              	.LLST5:
 12119 0458 00000000 		.4byte	.LVL48
 12120 045c 08000000 		.4byte	.LVL49
 12121 0460 0100     		.2byte	0x1
 12122 0462 50       		.byte	0x50
 12123 0463 08000000 		.4byte	.LVL49
 12124 0467 38000000 		.4byte	.LFE224
 12125 046b 0400     		.2byte	0x4
 12126 046d F3       		.byte	0xf3
 12127 046e 01       		.uleb128 0x1
 12128 046f 50       		.byte	0x50
 12129 0470 9F       		.byte	0x9f
 12130 0471 00000000 		.4byte	0
 12131 0475 00000000 		.4byte	0
 12132              	.LVUS3:
 12133 0479 00       		.uleb128 0
 12134 047a 00       		.uleb128 .LVU99
 12135 047b 00       		.uleb128 .LVU99
 12136 047c 00       		.uleb128 0
 12137              	.LLST3:
 12138 047d 00000000 		.4byte	.LVL33
 12139 0481 06000000 		.4byte	.LVL34
 12140 0485 0100     		.2byte	0x1
 12141 0487 50       		.byte	0x50
 12142 0488 06000000 		.4byte	.LVL34
 12143 048c 48000000 		.4byte	.LFE223
 12144 0490 0400     		.2byte	0x4
 12145 0492 F3       		.byte	0xf3
 12146 0493 01       		.uleb128 0x1
 12147 0494 50       		.byte	0x50
 12148 0495 9F       		.byte	0x9f
 12149 0496 00000000 		.4byte	0
 12150 049a 00000000 		.4byte	0
 12151              	.LVUS0:
 12152 049e 05       		.uleb128 .LVU15
 12153 049f 00       		.uleb128 .LVU60
 12154 04a0 00       		.uleb128 .LVU61
 12155 04a1 00       		.uleb128 0
 12156              	.LLST0:
 12157 04a2 1A000000 		.4byte	.LVL0
 12158 04a6 CA000000 		.4byte	.LVL11
 12159 04aa 0100     		.2byte	0x1
 12160 04ac 54       		.byte	0x54
 12161 04ad CE000000 		.4byte	.LVL12
 12162 04b1 04010000 		.4byte	.LFE221
 12163 04b5 0100     		.2byte	0x1
 12164 04b7 54       		.byte	0x54
ARM GAS  /tmp/ccqhiTbD.s 			page 215


 12165 04b8 00000000 		.4byte	0
 12166 04bc 00000000 		.4byte	0
 12167              	.LVUS1:
 12168 04c0 00       		.uleb128 0
 12169 04c1 00       		.uleb128 .LVU65
 12170 04c2 00       		.uleb128 .LVU65
 12171 04c3 00       		.uleb128 .LVU70
 12172 04c4 00       		.uleb128 .LVU70
 12173 04c5 00       		.uleb128 .LVU71
 12174 04c6 00       		.uleb128 .LVU71
 12175 04c7 00       		.uleb128 0
 12176              	.LLST1:
 12177 04c8 00000000 		.4byte	.LVL14
 12178 04cc 0A000000 		.4byte	.LVL15
 12179 04d0 0100     		.2byte	0x1
 12180 04d2 50       		.byte	0x50
 12181 04d3 0A000000 		.4byte	.LVL15
 12182 04d7 2E000000 		.4byte	.LVL18
 12183 04db 0100     		.2byte	0x1
 12184 04dd 54       		.byte	0x54
 12185 04de 2E000000 		.4byte	.LVL18
 12186 04e2 32000000 		.4byte	.LVL19
 12187 04e6 0400     		.2byte	0x4
 12188 04e8 F3       		.byte	0xf3
 12189 04e9 01       		.uleb128 0x1
 12190 04ea 50       		.byte	0x50
 12191 04eb 9F       		.byte	0x9f
 12192 04ec 32000000 		.4byte	.LVL19
 12193 04f0 40000000 		.4byte	.LFE220
 12194 04f4 0100     		.2byte	0x1
 12195 04f6 54       		.byte	0x54
 12196 04f7 00000000 		.4byte	0
 12197 04fb 00000000 		.4byte	0
 12198              	.LVUS22:
 12199 04ff 01       		.uleb128 .LVU558
 12200 0500 03       		.uleb128 .LVU560
 12201              	.LLST22:
 12202 0501 1A000000 		.4byte	.LVL204
 12203 0505 1A000000 		.4byte	.LVL204
 12204 0509 0600     		.2byte	0x6
 12205 050b 03       		.byte	0x3
 12206 050c 00000000 		.4byte	m1
 12207 0510 9F       		.byte	0x9f
 12208 0511 00000000 		.4byte	0
 12209 0515 00000000 		.4byte	0
 12210              		.section	.debug_aranges,"",%progbits
 12211 0000 E4000000 		.4byte	0xe4
 12212 0004 0200     		.2byte	0x2
 12213 0006 00000000 		.4byte	.Ldebug_info0
 12214 000a 04       		.byte	0x4
 12215 000b 00       		.byte	0
 12216 000c 0000     		.2byte	0
 12217 000e 0000     		.2byte	0
 12218 0010 00000000 		.4byte	.LFB221
 12219 0014 04010000 		.4byte	.LFE221-.LFB221
 12220 0018 00000000 		.4byte	.LFB220
 12221 001c 40000000 		.4byte	.LFE220-.LFB220
ARM GAS  /tmp/ccqhiTbD.s 			page 216


 12222 0020 00000000 		.4byte	.LFB247
 12223 0024 40000000 		.4byte	.LFE247-.LFB247
 12224 0028 00000000 		.4byte	.LFB219
 12225 002c 30000000 		.4byte	.LFE219-.LFB219
 12226 0030 00000000 		.4byte	.LFB227
 12227 0034 3C000000 		.4byte	.LFE227-.LFB227
 12228 0038 00000000 		.4byte	.LFB223
 12229 003c 48000000 		.4byte	.LFE223-.LFB223
 12230 0040 00000000 		.4byte	.LFB228
 12231 0044 44000000 		.4byte	.LFE228-.LFB228
 12232 0048 00000000 		.4byte	.LFB224
 12233 004c 38000000 		.4byte	.LFE224-.LFB224
 12234 0050 00000000 		.4byte	.LFB225
 12235 0054 48000000 		.4byte	.LFE225-.LFB225
 12236 0058 00000000 		.4byte	.LFB232
 12237 005c 48000000 		.4byte	.LFE232-.LFB232
 12238 0060 00000000 		.4byte	.LFB231
 12239 0064 38000000 		.4byte	.LFE231-.LFB231
 12240 0068 00000000 		.4byte	.LFB230
 12241 006c 48000000 		.4byte	.LFE230-.LFB230
 12242 0070 00000000 		.4byte	.LFB229
 12243 0074 64000000 		.4byte	.LFE229-.LFB229
 12244 0078 00000000 		.4byte	.LFB236
 12245 007c 3C000000 		.4byte	.LFE236-.LFB236
 12246 0080 00000000 		.4byte	.LFB235
 12247 0084 3C000000 		.4byte	.LFE235-.LFB235
 12248 0088 00000000 		.4byte	.LFB237
 12249 008c AC020000 		.4byte	.LFE237-.LFB237
 12250 0090 00000000 		.4byte	.LFB241
 12251 0094 48000000 		.4byte	.LFE241-.LFB241
 12252 0098 00000000 		.4byte	.LFB240
 12253 009c 3C000000 		.4byte	.LFE240-.LFB240
 12254 00a0 00000000 		.4byte	.LFB245
 12255 00a4 44000000 		.4byte	.LFE245-.LFB245
 12256 00a8 00000000 		.4byte	.LFB244
 12257 00ac DC000000 		.4byte	.LFE244-.LFB244
 12258 00b0 00000000 		.4byte	.LFB248
 12259 00b4 B8000000 		.4byte	.LFE248-.LFB248
 12260 00b8 00000000 		.4byte	.LFB246
 12261 00bc 5C000000 		.4byte	.LFE246-.LFB246
 12262 00c0 00000000 		.4byte	.LFB239
 12263 00c4 64000000 		.4byte	.LFE239-.LFB239
 12264 00c8 00000000 		.4byte	.LFB226
 12265 00cc F8000000 		.4byte	.LFE226-.LFB226
 12266 00d0 00000000 		.4byte	.LFB242
 12267 00d4 30010000 		.4byte	.LFE242-.LFB242
 12268 00d8 00000000 		.4byte	.LFB233
 12269 00dc 2C010000 		.4byte	.LFE233-.LFB233
 12270 00e0 00000000 		.4byte	0
 12271 00e4 00000000 		.4byte	0
 12272              		.section	.debug_ranges,"",%progbits
 12273              	.Ldebug_ranges0:
 12274 0000 02000000 		.4byte	.LBB167
 12275 0004 04000000 		.4byte	.LBE167
 12276 0008 06000000 		.4byte	.LBB176
 12277 000c 08000000 		.4byte	.LBE176
 12278 0010 0A000000 		.4byte	.LBB177
ARM GAS  /tmp/ccqhiTbD.s 			page 217


 12279 0014 0C000000 		.4byte	.LBE177
 12280 0018 1A000000 		.4byte	.LBB178
 12281 001c 1A000000 		.4byte	.LBE178
 12282 0020 00000000 		.4byte	0
 12283 0024 00000000 		.4byte	0
 12284 0028 02000000 		.4byte	.LBB169
 12285 002c 04000000 		.4byte	.LBE169
 12286 0030 1A000000 		.4byte	.LBB172
 12287 0034 1A000000 		.4byte	.LBE172
 12288 0038 00000000 		.4byte	0
 12289 003c 00000000 		.4byte	0
 12290 0040 04000000 		.4byte	.LBB253
 12291 0044 06000000 		.4byte	.LBE253
 12292 0048 08000000 		.4byte	.LBB262
 12293 004c 0A000000 		.4byte	.LBE262
 12294 0050 0E000000 		.4byte	.LBB263
 12295 0054 10000000 		.4byte	.LBE263
 12296 0058 26000000 		.4byte	.LBB264
 12297 005c 26000000 		.4byte	.LBE264
 12298 0060 00000000 		.4byte	0
 12299 0064 00000000 		.4byte	0
 12300 0068 04000000 		.4byte	.LBB255
 12301 006c 06000000 		.4byte	.LBE255
 12302 0070 26000000 		.4byte	.LBB258
 12303 0074 26000000 		.4byte	.LBE258
 12304 0078 00000000 		.4byte	0
 12305 007c 00000000 		.4byte	0
 12306 0080 D4010000 		.4byte	.LBB309
 12307 0084 D4010000 		.4byte	.LBE309
 12308 0088 D4010000 		.4byte	.LBB316
 12309 008c E2010000 		.4byte	.LBE316
 12310 0090 00000000 		.4byte	0
 12311 0094 00000000 		.4byte	0
 12312 0098 D4010000 		.4byte	.LBB311
 12313 009c D4010000 		.4byte	.LBE311
 12314 00a0 D4010000 		.4byte	.LBB314
 12315 00a4 DA010000 		.4byte	.LBE314
 12316 00a8 00000000 		.4byte	0
 12317 00ac 00000000 		.4byte	0
 12318 00b0 EC010000 		.4byte	.LBB317
 12319 00b4 04020000 		.4byte	.LBE317
 12320 00b8 04020000 		.4byte	.LBB325
 12321 00bc 0A020000 		.4byte	.LBE325
 12322 00c0 6E020000 		.4byte	.LBB338
 12323 00c4 AC020000 		.4byte	.LBE338
 12324 00c8 00000000 		.4byte	0
 12325 00cc 00000000 		.4byte	0
 12326 00d0 04020000 		.4byte	.LBB319
 12327 00d4 04020000 		.4byte	.LBE319
 12328 00d8 04020000 		.4byte	.LBB322
 12329 00dc 0A020000 		.4byte	.LBE322
 12330 00e0 00000000 		.4byte	0
 12331 00e4 00000000 		.4byte	0
 12332 00e8 02000000 		.4byte	.LBB339
 12333 00ec 04000000 		.4byte	.LBE339
 12334 00f0 06000000 		.4byte	.LBB348
 12335 00f4 08000000 		.4byte	.LBE348
ARM GAS  /tmp/ccqhiTbD.s 			page 218


 12336 00f8 0A000000 		.4byte	.LBB349
 12337 00fc 0C000000 		.4byte	.LBE349
 12338 0100 20000000 		.4byte	.LBB350
 12339 0104 20000000 		.4byte	.LBE350
 12340 0108 00000000 		.4byte	0
 12341 010c 00000000 		.4byte	0
 12342 0110 02000000 		.4byte	.LBB341
 12343 0114 04000000 		.4byte	.LBE341
 12344 0118 20000000 		.4byte	.LBB344
 12345 011c 20000000 		.4byte	.LBE344
 12346 0120 00000000 		.4byte	0
 12347 0124 00000000 		.4byte	0
 12348 0128 02000000 		.4byte	.LBB351
 12349 012c 04000000 		.4byte	.LBE351
 12350 0130 06000000 		.4byte	.LBB360
 12351 0134 08000000 		.4byte	.LBE360
 12352 0138 0A000000 		.4byte	.LBB361
 12353 013c 0C000000 		.4byte	.LBE361
 12354 0140 20000000 		.4byte	.LBB362
 12355 0144 20000000 		.4byte	.LBE362
 12356 0148 00000000 		.4byte	0
 12357 014c 00000000 		.4byte	0
 12358 0150 02000000 		.4byte	.LBB353
 12359 0154 04000000 		.4byte	.LBE353
 12360 0158 20000000 		.4byte	.LBB356
 12361 015c 20000000 		.4byte	.LBE356
 12362 0160 00000000 		.4byte	0
 12363 0164 00000000 		.4byte	0
 12364 0168 3A000000 		.4byte	.LBB371
 12365 016c 4C000000 		.4byte	.LBE371
 12366 0170 52000000 		.4byte	.LBB374
 12367 0174 56000000 		.4byte	.LBE374
 12368 0178 00000000 		.4byte	0
 12369 017c 00000000 		.4byte	0
 12370 0180 14000000 		.4byte	.LBB401
 12371 0184 14000000 		.4byte	.LBE401
 12372 0188 14000000 		.4byte	.LBB430
 12373 018c 40000000 		.4byte	.LBE430
 12374 0190 40000000 		.4byte	.LBB431
 12375 0194 46000000 		.4byte	.LBE431
 12376 0198 AA000000 		.4byte	.LBB448
 12377 019c B2000000 		.4byte	.LBE448
 12378 01a0 00000000 		.4byte	0
 12379 01a4 00000000 		.4byte	0
 12380 01a8 14000000 		.4byte	.LBB403
 12381 01ac 14000000 		.4byte	.LBE403
 12382 01b0 14000000 		.4byte	.LBB411
 12383 01b4 1A000000 		.4byte	.LBE411
 12384 01b8 1C000000 		.4byte	.LBB415
 12385 01bc 24000000 		.4byte	.LBE415
 12386 01c0 00000000 		.4byte	0
 12387 01c4 00000000 		.4byte	0
 12388 01c8 14000000 		.4byte	.LBB405
 12389 01cc 14000000 		.4byte	.LBE405
 12390 01d0 14000000 		.4byte	.LBB408
 12391 01d4 1A000000 		.4byte	.LBE408
 12392 01d8 00000000 		.4byte	0
ARM GAS  /tmp/ccqhiTbD.s 			page 219


 12393 01dc 00000000 		.4byte	0
 12394 01e0 1A000000 		.4byte	.LBB412
 12395 01e4 1C000000 		.4byte	.LBE412
 12396 01e8 24000000 		.4byte	.LBB416
 12397 01ec 28000000 		.4byte	.LBE416
 12398 01f0 00000000 		.4byte	0
 12399 01f4 00000000 		.4byte	0
 12400 01f8 28000000 		.4byte	.LBB417
 12401 01fc 40000000 		.4byte	.LBE417
 12402 0200 40000000 		.4byte	.LBB425
 12403 0204 46000000 		.4byte	.LBE425
 12404 0208 AA000000 		.4byte	.LBB426
 12405 020c B2000000 		.4byte	.LBE426
 12406 0210 00000000 		.4byte	0
 12407 0214 00000000 		.4byte	0
 12408 0218 40000000 		.4byte	.LBB419
 12409 021c 40000000 		.4byte	.LBE419
 12410 0220 40000000 		.4byte	.LBB422
 12411 0224 46000000 		.4byte	.LBE422
 12412 0228 00000000 		.4byte	0
 12413 022c 00000000 		.4byte	0
 12414 0230 5E000000 		.4byte	.LBB436
 12415 0234 60000000 		.4byte	.LBE436
 12416 0238 62000000 		.4byte	.LBB441
 12417 023c 62000000 		.4byte	.LBE441
 12418 0240 00000000 		.4byte	0
 12419 0244 00000000 		.4byte	0
 12420 0248 74000000 		.4byte	.LBB442
 12421 024c 76000000 		.4byte	.LBE442
 12422 0250 78000000 		.4byte	.LBB447
 12423 0254 78000000 		.4byte	.LBE447
 12424 0258 00000000 		.4byte	0
 12425 025c 00000000 		.4byte	0
 12426 0260 02000000 		.4byte	.LBB463
 12427 0264 04000000 		.4byte	.LBE463
 12428 0268 06000000 		.4byte	.LBB472
 12429 026c 08000000 		.4byte	.LBE472
 12430 0270 0A000000 		.4byte	.LBB473
 12431 0274 0C000000 		.4byte	.LBE473
 12432 0278 20000000 		.4byte	.LBB474
 12433 027c 20000000 		.4byte	.LBE474
 12434 0280 00000000 		.4byte	0
 12435 0284 00000000 		.4byte	0
 12436 0288 02000000 		.4byte	.LBB465
 12437 028c 04000000 		.4byte	.LBE465
 12438 0290 20000000 		.4byte	.LBB468
 12439 0294 20000000 		.4byte	.LBE468
 12440 0298 00000000 		.4byte	0
 12441 029c 00000000 		.4byte	0
 12442 02a0 82000000 		.4byte	.LBB475
 12443 02a4 84000000 		.4byte	.LBE475
 12444 02a8 86000000 		.4byte	.LBB486
 12445 02ac 86000000 		.4byte	.LBE486
 12446 02b0 86000000 		.4byte	.LBB487
 12447 02b4 92000000 		.4byte	.LBE487
 12448 02b8 00000000 		.4byte	0
 12449 02bc 00000000 		.4byte	0
ARM GAS  /tmp/ccqhiTbD.s 			page 220


 12450 02c0 82000000 		.4byte	.LBB477
 12451 02c4 84000000 		.4byte	.LBE477
 12452 02c8 86000000 		.4byte	.LBB482
 12453 02cc 86000000 		.4byte	.LBE482
 12454 02d0 86000000 		.4byte	.LBB483
 12455 02d4 8A000000 		.4byte	.LBE483
 12456 02d8 00000000 		.4byte	0
 12457 02dc 00000000 		.4byte	0
 12458 02e0 82000000 		.4byte	.LBB478
 12459 02e4 84000000 		.4byte	.LBE478
 12460 02e8 86000000 		.4byte	.LBB481
 12461 02ec 8A000000 		.4byte	.LBE481
 12462 02f0 00000000 		.4byte	0
 12463 02f4 00000000 		.4byte	0
 12464 02f8 B4000000 		.4byte	.LBB488
 12465 02fc CC000000 		.4byte	.LBE488
 12466 0300 CC000000 		.4byte	.LBB496
 12467 0304 D2000000 		.4byte	.LBE496
 12468 0308 EE000000 		.4byte	.LBB497
 12469 030c F6000000 		.4byte	.LBE497
 12470 0310 00000000 		.4byte	0
 12471 0314 00000000 		.4byte	0
 12472 0318 CC000000 		.4byte	.LBB490
 12473 031c CC000000 		.4byte	.LBE490
 12474 0320 CC000000 		.4byte	.LBB493
 12475 0324 D2000000 		.4byte	.LBE493
 12476 0328 00000000 		.4byte	0
 12477 032c 00000000 		.4byte	0
 12478 0330 14000000 		.4byte	.LBB532
 12479 0334 14000000 		.4byte	.LBE532
 12480 0338 14000000 		.4byte	.LBB561
 12481 033c 40000000 		.4byte	.LBE561
 12482 0340 40000000 		.4byte	.LBB562
 12483 0344 46000000 		.4byte	.LBE562
 12484 0348 D6000000 		.4byte	.LBB591
 12485 034c DE000000 		.4byte	.LBE591
 12486 0350 00000000 		.4byte	0
 12487 0354 00000000 		.4byte	0
 12488 0358 14000000 		.4byte	.LBB534
 12489 035c 14000000 		.4byte	.LBE534
 12490 0360 14000000 		.4byte	.LBB542
 12491 0364 1A000000 		.4byte	.LBE542
 12492 0368 1C000000 		.4byte	.LBB546
 12493 036c 24000000 		.4byte	.LBE546
 12494 0370 00000000 		.4byte	0
 12495 0374 00000000 		.4byte	0
 12496 0378 14000000 		.4byte	.LBB536
 12497 037c 14000000 		.4byte	.LBE536
 12498 0380 14000000 		.4byte	.LBB539
 12499 0384 1A000000 		.4byte	.LBE539
 12500 0388 00000000 		.4byte	0
 12501 038c 00000000 		.4byte	0
 12502 0390 1A000000 		.4byte	.LBB543
 12503 0394 1C000000 		.4byte	.LBE543
 12504 0398 24000000 		.4byte	.LBB547
 12505 039c 28000000 		.4byte	.LBE547
 12506 03a0 00000000 		.4byte	0
ARM GAS  /tmp/ccqhiTbD.s 			page 221


 12507 03a4 00000000 		.4byte	0
 12508 03a8 28000000 		.4byte	.LBB548
 12509 03ac 40000000 		.4byte	.LBE548
 12510 03b0 40000000 		.4byte	.LBB556
 12511 03b4 46000000 		.4byte	.LBE556
 12512 03b8 D6000000 		.4byte	.LBB557
 12513 03bc DE000000 		.4byte	.LBE557
 12514 03c0 00000000 		.4byte	0
 12515 03c4 00000000 		.4byte	0
 12516 03c8 40000000 		.4byte	.LBB550
 12517 03cc 40000000 		.4byte	.LBE550
 12518 03d0 40000000 		.4byte	.LBB553
 12519 03d4 46000000 		.4byte	.LBE553
 12520 03d8 00000000 		.4byte	0
 12521 03dc 00000000 		.4byte	0
 12522 03e0 5E000000 		.4byte	.LBB567
 12523 03e4 60000000 		.4byte	.LBE567
 12524 03e8 62000000 		.4byte	.LBB572
 12525 03ec 62000000 		.4byte	.LBE572
 12526 03f0 00000000 		.4byte	0
 12527 03f4 00000000 		.4byte	0
 12528 03f8 74000000 		.4byte	.LBB573
 12529 03fc 76000000 		.4byte	.LBE573
 12530 0400 78000000 		.4byte	.LBB578
 12531 0404 78000000 		.4byte	.LBE578
 12532 0408 00000000 		.4byte	0
 12533 040c 00000000 		.4byte	0
 12534 0410 8A000000 		.4byte	.LBB579
 12535 0414 8C000000 		.4byte	.LBE579
 12536 0418 8E000000 		.4byte	.LBB584
 12537 041c 8E000000 		.4byte	.LBE584
 12538 0420 00000000 		.4byte	0
 12539 0424 00000000 		.4byte	0
 12540 0428 A0000000 		.4byte	.LBB585
 12541 042c A2000000 		.4byte	.LBE585
 12542 0430 A4000000 		.4byte	.LBB590
 12543 0434 A4000000 		.4byte	.LBE590
 12544 0438 00000000 		.4byte	0
 12545 043c 00000000 		.4byte	0
 12546 0440 00000000 		.4byte	.LFB221
 12547 0444 04010000 		.4byte	.LFE221
 12548 0448 00000000 		.4byte	.LFB220
 12549 044c 40000000 		.4byte	.LFE220
 12550 0450 00000000 		.4byte	.LFB247
 12551 0454 40000000 		.4byte	.LFE247
 12552 0458 00000000 		.4byte	.LFB219
 12553 045c 30000000 		.4byte	.LFE219
 12554 0460 00000000 		.4byte	.LFB227
 12555 0464 3C000000 		.4byte	.LFE227
 12556 0468 00000000 		.4byte	.LFB223
 12557 046c 48000000 		.4byte	.LFE223
 12558 0470 00000000 		.4byte	.LFB228
 12559 0474 44000000 		.4byte	.LFE228
 12560 0478 00000000 		.4byte	.LFB224
 12561 047c 38000000 		.4byte	.LFE224
 12562 0480 00000000 		.4byte	.LFB225
 12563 0484 48000000 		.4byte	.LFE225
ARM GAS  /tmp/ccqhiTbD.s 			page 222


 12564 0488 00000000 		.4byte	.LFB232
 12565 048c 48000000 		.4byte	.LFE232
 12566 0490 00000000 		.4byte	.LFB231
 12567 0494 38000000 		.4byte	.LFE231
 12568 0498 00000000 		.4byte	.LFB230
 12569 049c 48000000 		.4byte	.LFE230
 12570 04a0 00000000 		.4byte	.LFB229
 12571 04a4 64000000 		.4byte	.LFE229
 12572 04a8 00000000 		.4byte	.LFB236
 12573 04ac 3C000000 		.4byte	.LFE236
 12574 04b0 00000000 		.4byte	.LFB235
 12575 04b4 3C000000 		.4byte	.LFE235
 12576 04b8 00000000 		.4byte	.LFB237
 12577 04bc AC020000 		.4byte	.LFE237
 12578 04c0 00000000 		.4byte	.LFB241
 12579 04c4 48000000 		.4byte	.LFE241
 12580 04c8 00000000 		.4byte	.LFB240
 12581 04cc 3C000000 		.4byte	.LFE240
 12582 04d0 00000000 		.4byte	.LFB245
 12583 04d4 44000000 		.4byte	.LFE245
 12584 04d8 00000000 		.4byte	.LFB244
 12585 04dc DC000000 		.4byte	.LFE244
 12586 04e0 00000000 		.4byte	.LFB248
 12587 04e4 B8000000 		.4byte	.LFE248
 12588 04e8 00000000 		.4byte	.LFB246
 12589 04ec 5C000000 		.4byte	.LFE246
 12590 04f0 00000000 		.4byte	.LFB239
 12591 04f4 64000000 		.4byte	.LFE239
 12592 04f8 00000000 		.4byte	.LFB226
 12593 04fc F8000000 		.4byte	.LFE226
 12594 0500 00000000 		.4byte	.LFB242
 12595 0504 30010000 		.4byte	.LFE242
 12596 0508 00000000 		.4byte	.LFB233
 12597 050c 2C010000 		.4byte	.LFE233
 12598 0510 00000000 		.4byte	0
 12599 0514 00000000 		.4byte	0
 12600              		.section	.debug_line,"",%progbits
 12601              	.Ldebug_line0:
 12602 0000 97110000 		.section	.debug_str,"MS",%progbits,1
 12602      03001602 
 12602      00000201 
 12602      FB0E0D00 
 12602      01010101 
 12603              	.LASF49:
 12604 0000 705F7374 		.ascii	"p_stats\000"
 12604      61747300 
 12605              	.LASF5:
 12606 0008 73697A65 		.ascii	"size_t\000"
 12606      5F7400
 12607              	.LASF119:
 12608 000f 77747365 		.ascii	"wtsemp\000"
 12608      6D7000
 12609              	.LASF142:
 12610 0016 63665F6F 		.ascii	"cf_off_name\000"
 12610      66665F6E 
 12610      616D6500 
 12611              	.LASF27:
ARM GAS  /tmp/ccqhiTbD.s 			page 223


 12612 0022 73797374 		.ascii	"systime_t\000"
 12612      696D655F 
 12612      7400
 12613              	.LASF131:
 12614 002c 63685F69 		.ascii	"ch_identifier\000"
 12614      64656E74 
 12614      69666965 
 12614      7200
 12615              	.LASF32:
 12616 003a 705F6374 		.ascii	"p_ctx\000"
 12616      7800
 12617              	.LASF22:
 12618 0040 74707269 		.ascii	"tprio_t\000"
 12618      6F5F7400 
 12619              	.LASF150:
 12620 0048 63685F64 		.ascii	"ch_debug\000"
 12620      65627567 
 12620      00
 12621              	.LASF192:
 12622 0051 74687265 		.ascii	"thread3HH\000"
 12622      61643348 
 12622      4800
 12623              	.LASF247:
 12624 005b 74657374 		.ascii	"test_buffers\000"
 12624      5F627566 
 12624      66657273 
 12624      00
 12625              	.LASF43:
 12626 0068 705F6D73 		.ascii	"p_msgqueue\000"
 12626      67717565 
 12626      756500
 12627              	.LASF60:
 12628 0073 725F6374 		.ascii	"r_ctx\000"
 12628      7800
 12629              	.LASF6:
 12630 0079 696E7433 		.ascii	"int32_t\000"
 12630      325F7400 
 12631              	.LASF139:
 12632 0081 63665F6F 		.ascii	"cf_off_ctx\000"
 12632      66665F63 
 12632      747800
 12633              	.LASF64:
 12634 008c 76746675 		.ascii	"vtfunc_t\000"
 12634      6E635F74 
 12634      00
 12635              	.LASF73:
 12636 0095 63685F76 		.ascii	"ch_virtual_timers_list\000"
 12636      69727475 
 12636      616C5F74 
 12636      696D6572 
 12636      735F6C69 
 12637              	.LASF206:
 12638 00ac 63685468 		.ascii	"chThdGetPriorityX\000"
 12638      64476574 
 12638      5072696F 
 12638      72697479 
 12638      5800
ARM GAS  /tmp/ccqhiTbD.s 			page 224


 12639              	.LASF243:
 12640 00be 74657374 		.ascii	"test_cpu_pulse\000"
 12640      5F637075 
 12640      5F70756C 
 12640      736500
 12641              	.LASF249:
 12642 00cd 5F5F6675 		.ascii	"__func__\000"
 12642      6E635F5F 
 12642      00
 12643              	.LASF234:
 12644 00d6 6368436F 		.ascii	"chCondSignalI\000"
 12644      6E645369 
 12644      676E616C 
 12644      4900
 12645              	.LASF180:
 12646 00e4 6D747837 		.ascii	"mtx7_execute\000"
 12646      5F657865 
 12646      63757465 
 12646      00
 12647              	.LASF202:
 12648 00f1 6D747832 		.ascii	"mtx2_setup\000"
 12648      5F736574 
 12648      757000
 12649              	.LASF79:
 12650 00fc 6C6F636B 		.ascii	"lock_cnt\000"
 12650      5F636E74 
 12650      00
 12651              	.LASF135:
 12652 0105 63685F70 		.ascii	"ch_ptrsize\000"
 12652      74727369 
 12652      7A6500
 12653              	.LASF95:
 12654 0110 73655F74 		.ascii	"se_tp\000"
 12654      7000
 12655              	.LASF178:
 12656 0116 74687265 		.ascii	"thread11\000"
 12656      61643131 
 12656      00
 12657              	.LASF177:
 12658 011f 74687265 		.ascii	"thread12\000"
 12658      61643132 
 12658      00
 12659              	.LASF109:
 12660 0128 74696D65 		.ascii	"time_measurement_t\000"
 12660      5F6D6561 
 12660      73757265 
 12660      6D656E74 
 12660      5F7400
 12661              	.LASF211:
 12662 013b 63685654 		.ascii	"chVTGetSystemTime\000"
 12662      47657453 
 12662      79737465 
 12662      6D54696D 
 12662      6500
 12663              	.LASF175:
 12664 014d 7072696F 		.ascii	"prio\000"
 12664      00
ARM GAS  /tmp/ccqhiTbD.s 			page 225


 12665              	.LASF231:
 12666 0152 5F646267 		.ascii	"_dbg_check_unlock\000"
 12666      5F636865 
 12666      636B5F75 
 12666      6E6C6F63 
 12666      6B00
 12667              	.LASF197:
 12668 0164 6D747833 		.ascii	"mtx3_setup\000"
 12668      5F736574 
 12668      757000
 12669              	.LASF127:
 12670 016f 6D5F6F77 		.ascii	"m_owner\000"
 12670      6E657200 
 12671              	.LASF71:
 12672 0177 76745F70 		.ascii	"vt_par\000"
 12672      617200
 12673              	.LASF116:
 12674 017e 65786974 		.ascii	"exitcode\000"
 12674      636F6465 
 12674      00
 12675              	.LASF121:
 12676 0187 65776D61 		.ascii	"ewmask\000"
 12676      736B00
 12677              	.LASF137:
 12678 018e 63685F74 		.ascii	"ch_threadsize\000"
 12678      68726561 
 12678      6473697A 
 12678      6500
 12679              	.LASF248:
 12680 019c 73797374 		.ascii	"systime\000"
 12680      696D6500 
 12681              	.LASF199:
 12682 01a4 74687265 		.ascii	"thread2H\000"
 12682      61643248 
 12682      00
 12683              	.LASF33:
 12684 01ad 705F6E65 		.ascii	"p_newer\000"
 12684      77657200 
 12685              	.LASF200:
 12686 01b5 74687265 		.ascii	"thread2M\000"
 12686      6164324D 
 12686      00
 12687              	.LASF7:
 12688 01be 6C6F6E67 		.ascii	"long int\000"
 12688      20696E74 
 12688      00
 12689              	.LASF29:
 12690 01c7 705F6E65 		.ascii	"p_next\000"
 12690      787400
 12691              	.LASF213:
 12692 01ce 706F7274 		.ascii	"port_unlock\000"
 12692      5F756E6C 
 12692      6F636B00 
 12693              	.LASF224:
 12694 01da 63684D74 		.ascii	"chMtxUnlock\000"
 12694      78556E6C 
 12694      6F636B00 
ARM GAS  /tmp/ccqhiTbD.s 			page 226


 12695              	.LASF144:
 12696 01e6 63665F6F 		.ascii	"cf_off_state\000"
 12696      66665F73 
 12696      74617465 
 12696      00
 12697              	.LASF30:
 12698 01f3 705F7072 		.ascii	"p_prev\000"
 12698      657600
 12699              	.LASF196:
 12700 01fa 74687265 		.ascii	"thread3LL\000"
 12700      6164334C 
 12700      4C00
 12701              	.LASF164:
 12702 0204 74657374 		.ascii	"test\000"
 12702      00
 12703              	.LASF189:
 12704 0209 6D747834 		.ascii	"mtx4_setup\000"
 12704      5F736574 
 12704      757000
 12705              	.LASF19:
 12706 0214 74737461 		.ascii	"tstate_t\000"
 12706      74655F74 
 12706      00
 12707              	.LASF17:
 12708 021d 72747469 		.ascii	"rttime_t\000"
 12708      6D655F74 
 12708      00
 12709              	.LASF54:
 12710 0226 74687265 		.ascii	"threads_queue_t\000"
 12710      6164735F 
 12710      71756575 
 12710      655F7400 
 12711              	.LASF46:
 12712 0236 705F6D74 		.ascii	"p_mtxlist\000"
 12712      786C6973 
 12712      7400
 12713              	.LASF90:
 12714 0240 72656761 		.ascii	"regarm_t\000"
 12714      726D5F74 
 12714      00
 12715              	.LASF193:
 12716 0249 74687265 		.ascii	"thread3H\000"
 12716      61643348 
 12716      00
 12717              	.LASF194:
 12718 0252 74687265 		.ascii	"thread3M\000"
 12718      6164334D 
 12718      00
 12719              	.LASF190:
 12720 025b 6D747833 		.ascii	"mtx3_execute\000"
 12720      5F657865 
 12720      63757465 
 12720      00
 12721              	.LASF232:
 12722 0268 5F737461 		.ascii	"_stats_stop_measure_crit_thd\000"
 12722      74735F73 
 12722      746F705F 
ARM GAS  /tmp/ccqhiTbD.s 			page 227


 12722      6D656173 
 12722      7572655F 
 12723              	.LASF108:
 12724 0285 63756D75 		.ascii	"cumulative\000"
 12724      6C617469 
 12724      766500
 12725              	.LASF3:
 12726 0290 7369676E 		.ascii	"signed char\000"
 12726      65642063 
 12726      68617200 
 12727              	.LASF40:
 12728 029c 705F7072 		.ascii	"p_preempt\000"
 12728      65656D70 
 12728      7400
 12729              	.LASF8:
 12730 02a6 75696E74 		.ascii	"uint8_t\000"
 12730      385F7400 
 12731              	.LASF24:
 12732 02ae 6576656E 		.ascii	"eventmask_t\000"
 12732      746D6173 
 12732      6B5F7400 
 12733              	.LASF92:
 12734 02ba 636F6E74 		.ascii	"context\000"
 12734      65787400 
 12735              	.LASF188:
 12736 02c2 74687265 		.ascii	"thread4a\000"
 12736      61643461 
 12736      00
 12737              	.LASF187:
 12738 02cb 74687265 		.ascii	"thread4b\000"
 12738      61643462 
 12738      00
 12739              	.LASF118:
 12740 02d4 77747472 		.ascii	"wttrp\000"
 12740      7000
 12741              	.LASF9:
 12742 02da 756E7369 		.ascii	"unsigned char\000"
 12742      676E6564 
 12742      20636861 
 12742      7200
 12743              	.LASF77:
 12744 02e8 70616E69 		.ascii	"panic_msg\000"
 12744      635F6D73 
 12744      6700
 12745              	.LASF80:
 12746 02f2 74726163 		.ascii	"trace_buffer\000"
 12746      655F6275 
 12746      66666572 
 12746      00
 12747              	.LASF61:
 12748 02ff 725F6E65 		.ascii	"r_newer\000"
 12748      77657200 
 12749              	.LASF75:
 12750 0307 73797374 		.ascii	"system_debug_t\000"
 12750      656D5F64 
 12750      65627567 
 12750      5F7400
ARM GAS  /tmp/ccqhiTbD.s 			page 228


 12751              	.LASF162:
 12752 0316 5F426F6F 		.ascii	"_Bool\000"
 12752      6C00
 12753              	.LASF217:
 12754 031c 76616C75 		.ascii	"value\000"
 12754      6500
 12755              	.LASF183:
 12756 0322 6D747836 		.ascii	"mtx6_setup\000"
 12756      5F736574 
 12756      757000
 12757              	.LASF130:
 12758 032d 63686172 		.ascii	"char\000"
 12758      00
 12759              	.LASF226:
 12760 0332 6368436F 		.ascii	"chCondObjectInit\000"
 12760      6E644F62 
 12760      6A656374 
 12760      496E6974 
 12760      00
 12761              	.LASF31:
 12762 0343 705F7072 		.ascii	"p_prio\000"
 12762      696F00
 12763              	.LASF129:
 12764 034a 6D5F636E 		.ascii	"m_cnt\000"
 12764      7400
 12765              	.LASF117:
 12766 0350 77746F62 		.ascii	"wtobjp\000"
 12766      6A7000
 12767              	.LASF111:
 12768 0357 6E5F6374 		.ascii	"n_ctxswc\000"
 12768      78737763 
 12768      00
 12769              	.LASF140:
 12770 0360 63665F6F 		.ascii	"cf_off_newer\000"
 12770      66665F6E 
 12770      65776572 
 12770      00
 12771              	.LASF91:
 12772 036d 73746B61 		.ascii	"stkalign_t\000"
 12772      6C69676E 
 12772      5F7400
 12773              	.LASF184:
 12774 0378 6D747837 		.ascii	"mtx7_setup\000"
 12774      5F736574 
 12774      757000
 12775              	.LASF138:
 12776 0383 63665F6F 		.ascii	"cf_off_prio\000"
 12776      66665F70 
 12776      72696F00 
 12777              	.LASF106:
 12778 038f 776F7273 		.ascii	"worst\000"
 12778      7400
 12779              	.LASF25:
 12780 0395 636E745F 		.ascii	"cnt_t\000"
 12780      7400
 12781              	.LASF238:
 12782 039b 63685468 		.ascii	"chThdSleep\000"
ARM GAS  /tmp/ccqhiTbD.s 			page 229


 12782      64536C65 
 12782      657000
 12783              	.LASF70:
 12784 03a6 76745F66 		.ascii	"vt_func\000"
 12784      756E6300 
 12785              	.LASF160:
 12786 03ae 62756666 		.ascii	"buffer\000"
 12786      657200
 12787              	.LASF157:
 12788 03b5 73657475 		.ascii	"setup\000"
 12788      7000
 12789              	.LASF102:
 12790 03bb 63685F74 		.ascii	"ch_trace_buffer_t\000"
 12790      72616365 
 12790      5F627566 
 12790      6665725F 
 12790      7400
 12791              	.LASF45:
 12792 03cd 705F6570 		.ascii	"p_epending\000"
 12792      656E6469 
 12792      6E6700
 12793              	.LASF120:
 12794 03d8 77746D74 		.ascii	"wtmtxp\000"
 12794      787000
 12795              	.LASF57:
 12796 03df 63685F72 		.ascii	"ch_ready_list\000"
 12796      65616479 
 12796      5F6C6973 
 12796      7400
 12797              	.LASF165:
 12798 03ed 74657374 		.ascii	"test_timer_done\000"
 12798      5F74696D 
 12798      65725F64 
 12798      6F6E6500 
 12799              	.LASF223:
 12800 03fd 74657374 		.ascii	"test_emit_token\000"
 12800      5F656D69 
 12800      745F746F 
 12800      6B656E00 
 12801              	.LASF78:
 12802 040d 6973725F 		.ascii	"isr_cnt\000"
 12802      636E7400 
 12803              	.LASF113:
 12804 0415 6D5F6372 		.ascii	"m_crit_isr\000"
 12804      69745F69 
 12804      737200
 12805              	.LASF97:
 12806 0420 73655F73 		.ascii	"se_state\000"
 12806      74617465 
 12806      00
 12807              	.LASF186:
 12808 0429 6D747834 		.ascii	"mtx4_execute\000"
 12808      5F657865 
 12808      63757465 
 12808      00
 12809              	.LASF112:
 12810 0436 6D5F6372 		.ascii	"m_crit_thd\000"
ARM GAS  /tmp/ccqhiTbD.s 			page 230


 12810      69745F74 
 12810      686400
 12811              	.LASF215:
 12812 0441 63685379 		.ascii	"chSysUnlock\000"
 12812      73556E6C 
 12812      6F636B00 
 12813              	.LASF13:
 12814 044d 6C6F6E67 		.ascii	"long unsigned int\000"
 12814      20756E73 
 12814      69676E65 
 12814      6420696E 
 12814      7400
 12815              	.LASF132:
 12816 045f 63685F7A 		.ascii	"ch_zero\000"
 12816      65726F00 
 12817              	.LASF210:
 12818 0467 63685379 		.ascii	"chSysLock\000"
 12818      734C6F63 
 12818      6B00
 12819              	.LASF154:
 12820 0471 636F6E64 		.ascii	"condition_variable_t\000"
 12820      6974696F 
 12820      6E5F7661 
 12820      72696162 
 12820      6C655F74 
 12821              	.LASF176:
 12822 0486 6D747838 		.ascii	"mtx8_execute\000"
 12822      5F657865 
 12822      63757465 
 12822      00
 12823              	.LASF89:
 12824 0493 53797374 		.ascii	"SystemCoreClock\000"
 12824      656D436F 
 12824      7265436C 
 12824      6F636B00 
 12825              	.LASF122:
 12826 04a3 63685F73 		.ascii	"ch_semaphore\000"
 12826      656D6170 
 12826      686F7265 
 12826      00
 12827              	.LASF52:
 12828 04b0 63685F74 		.ascii	"ch_thread\000"
 12828      68726561 
 12828      6400
 12829              	.LASF72:
 12830 04ba 76697274 		.ascii	"virtual_timers_list_t\000"
 12830      75616C5F 
 12830      74696D65 
 12830      72735F6C 
 12830      6973745F 
 12831              	.LASF65:
 12832 04d0 76697274 		.ascii	"virtual_timer_t\000"
 12832      75616C5F 
 12832      74696D65 
 12832      725F7400 
 12833              	.LASF56:
 12834 04e0 72656164 		.ascii	"ready_list_t\000"
ARM GAS  /tmp/ccqhiTbD.s 			page 231


 12834      795F6C69 
 12834      73745F74 
 12834      00
 12835              	.LASF212:
 12836 04ed 71756575 		.ascii	"queue_isempty\000"
 12836      655F6973 
 12836      656D7074 
 12836      7900
 12837              	.LASF26:
 12838 04fb 75636E74 		.ascii	"ucnt_t\000"
 12838      5F7400
 12839              	.LASF53:
 12840 0502 63685F74 		.ascii	"ch_threads_list\000"
 12840      68726561 
 12840      64735F6C 
 12840      69737400 
 12841              	.LASF98:
 12842 0512 63685F73 		.ascii	"ch_swc_event_t\000"
 12842      77635F65 
 12842      76656E74 
 12842      5F7400
 12843              	.LASF110:
 12844 0521 6E5F6972 		.ascii	"n_irq\000"
 12844      7100
 12845              	.LASF242:
 12846 0527 5F746573 		.ascii	"_test_assert_time_window\000"
 12846      745F6173 
 12846      73657274 
 12846      5F74696D 
 12846      655F7769 
 12847              	.LASF147:
 12848 0540 63665F6F 		.ascii	"cf_off_preempt\000"
 12848      66665F70 
 12848      7265656D 
 12848      707400
 12849              	.LASF235:
 12850 054f 63685363 		.ascii	"chSchRescheduleS\000"
 12850      68526573 
 12850      63686564 
 12850      756C6553 
 12850      00
 12851              	.LASF250:
 12852 0560 5F5F7374 		.ascii	"__stack_chk_fail\000"
 12852      61636B5F 
 12852      63686B5F 
 12852      6661696C 
 12852      00
 12853              	.LASF1:
 12854 0571 6C6F6E67 		.ascii	"long long int\000"
 12854      206C6F6E 
 12854      6720696E 
 12854      7400
 12855              	.LASF134:
 12856 057f 63685F76 		.ascii	"ch_version\000"
 12856      65727369 
 12856      6F6E00
 12857              	.LASF126:
ARM GAS  /tmp/ccqhiTbD.s 			page 232


 12858 058a 6D5F7175 		.ascii	"m_queue\000"
 12858      65756500 
 12859              	.LASF152:
 12860 0592 636F6E64 		.ascii	"condition_variable\000"
 12860      6974696F 
 12860      6E5F7661 
 12860      72696162 
 12860      6C6500
 12861              	.LASF67:
 12862 05a5 76745F6E 		.ascii	"vt_next\000"
 12862      65787400 
 12863              	.LASF218:
 12864 05ad 63685468 		.ascii	"chThdCreateStatic\000"
 12864      64437265 
 12864      61746553 
 12864      74617469 
 12864      6300
 12865              	.LASF68:
 12866 05bf 76745F70 		.ascii	"vt_prev\000"
 12866      72657600 
 12867              	.LASF99:
 12868 05c7 74625F73 		.ascii	"tb_size\000"
 12868      697A6500 
 12869              	.LASF220:
 12870 05cf 74657374 		.ascii	"test_wait_threads\000"
 12870      5F776169 
 12870      745F7468 
 12870      72656164 
 12870      7300
 12871              	.LASF222:
 12872 05e1 63684D74 		.ascii	"chMtxLock\000"
 12872      784C6F63 
 12872      6B00
 12873              	.LASF88:
 12874 05eb 49544D5F 		.ascii	"ITM_RxBuffer\000"
 12874      52784275 
 12874      66666572 
 12874      00
 12875              	.LASF42:
 12876 05f8 705F7761 		.ascii	"p_waiting\000"
 12876      6974696E 
 12876      6700
 12877              	.LASF96:
 12878 0602 73655F77 		.ascii	"se_wtobjp\000"
 12878      746F626A 
 12878      7000
 12879              	.LASF38:
 12880 060c 705F666C 		.ascii	"p_flags\000"
 12880      61677300 
 12881              	.LASF240:
 12882 0614 63684D74 		.ascii	"chMtxUnlockS\000"
 12882      78556E6C 
 12882      6F636B53 
 12882      00
 12883              	.LASF241:
 12884 0621 74657374 		.ascii	"test_wait_tick\000"
 12884      5F776169 
ARM GAS  /tmp/ccqhiTbD.s 			page 233


 12884      745F7469 
 12884      636B00
 12885              	.LASF87:
 12886 0630 69646C65 		.ascii	"idle_thread_wa\000"
 12886      5F746872 
 12886      6561645F 
 12886      776100
 12887              	.LASF0:
 12888 063f 756E7369 		.ascii	"unsigned int\000"
 12888      676E6564 
 12888      20696E74 
 12888      00
 12889              	.LASF245:
 12890 064c 2E2F2F43 		.ascii	".//ChibiOS//test/rt/testmtx.c\000"
 12890      68696269 
 12890      4F532F2F 
 12890      74657374 
 12890      2F72742F 
 12891              	.LASF16:
 12892 066a 7274636E 		.ascii	"rtcnt_t\000"
 12892      745F7400 
 12893              	.LASF48:
 12894 0672 705F6D70 		.ascii	"p_mpool\000"
 12894      6F6F6C00 
 12895              	.LASF39:
 12896 067a 705F7265 		.ascii	"p_refs\000"
 12896      667300
 12897              	.LASF136:
 12898 0681 63685F74 		.ascii	"ch_timesize\000"
 12898      696D6573 
 12898      697A6500 
 12899              	.LASF114:
 12900 068d 6B65726E 		.ascii	"kernel_stats_t\000"
 12900      656C5F73 
 12900      74617473 
 12900      5F7400
 12901              	.LASF158:
 12902 069c 74656172 		.ascii	"teardown\000"
 12902      646F776E 
 12902      00
 12903              	.LASF103:
 12904 06a5 6F666673 		.ascii	"offset\000"
 12904      657400
 12905              	.LASF101:
 12906 06ac 74625F62 		.ascii	"tb_buffer\000"
 12906      75666665 
 12906      7200
 12907              	.LASF41:
 12908 06b6 705F7469 		.ascii	"p_time\000"
 12908      6D6500
 12909              	.LASF146:
 12910 06bd 63665F6F 		.ascii	"cf_off_refs\000"
 12910      66665F72 
 12910      65667300 
 12911              	.LASF209:
 12912 06c9 6D747835 		.ascii	"mtx5_execute\000"
 12912      5F657865 
ARM GAS  /tmp/ccqhiTbD.s 			page 234


 12912      63757465 
 12912      00
 12913              	.LASF28:
 12914 06d6 74687265 		.ascii	"thread_t\000"
 12914      61645F74 
 12914      00
 12915              	.LASF174:
 12916 06df 70617474 		.ascii	"patternmtx\000"
 12916      65726E6D 
 12916      747800
 12917              	.LASF2:
 12918 06ea 6C6F6E67 		.ascii	"long double\000"
 12918      20646F75 
 12918      626C6500 
 12919              	.LASF50:
 12920 06f6 74687265 		.ascii	"thread_reference_t\000"
 12920      61645F72 
 12920      65666572 
 12920      656E6365 
 12920      5F7400
 12921              	.LASF208:
 12922 0709 63685654 		.ascii	"chVTGetSystemTimeX\000"
 12922      47657453 
 12922      79737465 
 12922      6D54696D 
 12922      655800
 12923              	.LASF47:
 12924 071c 705F7265 		.ascii	"p_realprio\000"
 12924      616C7072 
 12924      696F00
 12925              	.LASF93:
 12926 0727 706F7274 		.ascii	"port_intctx\000"
 12926      5F696E74 
 12926      63747800 
 12927              	.LASF148:
 12928 0733 63665F6F 		.ascii	"cf_off_time\000"
 12928      66665F74 
 12928      696D6500 
 12929              	.LASF69:
 12930 073f 76745F64 		.ascii	"vt_delta\000"
 12930      656C7461 
 12930      00
 12931              	.LASF203:
 12932 0748 6D747831 		.ascii	"mtx1_execute\000"
 12932      5F657865 
 12932      63757465 
 12932      00
 12933              	.LASF66:
 12934 0755 63685F76 		.ascii	"ch_virtual_timer\000"
 12934      69727475 
 12934      616C5F74 
 12934      696D6572 
 12934      00
 12935              	.LASF124:
 12936 0766 735F636E 		.ascii	"s_cnt\000"
 12936      7400
 12937              	.LASF153:
ARM GAS  /tmp/ccqhiTbD.s 			page 235


 12938 076c 635F7175 		.ascii	"c_queue\000"
 12938      65756500 
 12939              	.LASF86:
 12940 0774 6B65726E 		.ascii	"kernel_stats\000"
 12940      656C5F73 
 12940      74617473 
 12940      00
 12941              	.LASF179:
 12942 0781 6D747838 		.ascii	"mtx8_setup\000"
 12942      5F736574 
 12942      757000
 12943              	.LASF15:
 12944 078c 6C6F6E67 		.ascii	"long long unsigned int\000"
 12944      206C6F6E 
 12944      6720756E 
 12944      7369676E 
 12944      65642069 
 12945              	.LASF34:
 12946 07a3 705F6F6C 		.ascii	"p_older\000"
 12946      64657200 
 12947              	.LASF10:
 12948 07ab 75696E74 		.ascii	"uint16_t\000"
 12948      31365F74 
 12948      00
 12949              	.LASF228:
 12950 07b4 6368436F 		.ascii	"chCondBroadcast\000"
 12950      6E644272 
 12950      6F616463 
 12950      61737400 
 12951              	.LASF23:
 12952 07c4 6D73675F 		.ascii	"msg_t\000"
 12952      7400
 12953              	.LASF55:
 12954 07ca 63685F74 		.ascii	"ch_threads_queue\000"
 12954      68726561 
 12954      64735F71 
 12954      75657565 
 12954      00
 12955              	.LASF145:
 12956 07db 63665F6F 		.ascii	"cf_off_flags\000"
 12956      66665F66 
 12956      6C616773 
 12956      00
 12957              	.LASF201:
 12958 07e8 74687265 		.ascii	"thread2L\000"
 12958      6164324C 
 12958      00
 12959              	.LASF21:
 12960 07f1 74736C69 		.ascii	"tslices_t\000"
 12960      6365735F 
 12960      7400
 12961              	.LASF63:
 12962 07fb 725F6375 		.ascii	"r_current\000"
 12962      7272656E 
 12962      7400
 12963              	.LASF159:
 12964 0805 65786563 		.ascii	"execute\000"
ARM GAS  /tmp/ccqhiTbD.s 			page 236


 12964      75746500 
 12965              	.LASF229:
 12966 080d 5F737461 		.ascii	"_stats_start_measure_crit_thd\000"
 12966      74735F73 
 12966      74617274 
 12966      5F6D6561 
 12966      73757265 
 12967              	.LASF161:
 12968 082b 74657374 		.ascii	"test_global_fail\000"
 12968      5F676C6F 
 12968      62616C5F 
 12968      6661696C 
 12968      00
 12969              	.LASF230:
 12970 083c 5F646267 		.ascii	"_dbg_check_lock\000"
 12970      5F636865 
 12970      636B5F6C 
 12970      6F636B00 
 12971              	.LASF204:
 12972 084c 74687265 		.ascii	"thread1\000"
 12972      61643100 
 12973              	.LASF85:
 12974 0854 6D61696E 		.ascii	"mainthread\000"
 12974      74687265 
 12974      616400
 12975              	.LASF219:
 12976 085f 6368436F 		.ascii	"chCondSignal\000"
 12976      6E645369 
 12976      676E616C 
 12976      00
 12977              	.LASF216:
 12978 086c 5F5F7365 		.ascii	"__set_BASEPRI\000"
 12978      745F4241 
 12978      53455052 
 12978      4900
 12979              	.LASF105:
 12980 087a 62657374 		.ascii	"best\000"
 12980      00
 12981              	.LASF58:
 12982 087f 725F7175 		.ascii	"r_queue\000"
 12982      65756500 
 12983              	.LASF205:
 12984 0887 6D747831 		.ascii	"mtx1_setup\000"
 12984      5F736574 
 12984      757000
 12985              	.LASF191:
 12986 0892 74696D65 		.ascii	"time\000"
 12986      00
 12987              	.LASF163:
 12988 0897 74687265 		.ascii	"threads\000"
 12988      61647300 
 12989              	.LASF236:
 12990 089f 6368436F 		.ascii	"chCondWait\000"
 12990      6E645761 
 12990      697400
 12991              	.LASF83:
 12992 08aa 726C6973 		.ascii	"rlist\000"
ARM GAS  /tmp/ccqhiTbD.s 			page 237


 12992      7400
 12993              	.LASF18:
 12994 08b0 746D6F64 		.ascii	"tmode_t\000"
 12994      655F7400 
 12995              	.LASF185:
 12996 08b8 6D747835 		.ascii	"mtx5_setup\000"
 12996      5F736574 
 12996      757000
 12997              	.LASF74:
 12998 08c3 76745F73 		.ascii	"vt_systime\000"
 12998      79737469 
 12998      6D6500
 12999              	.LASF62:
 13000 08ce 725F6F6C 		.ascii	"r_older\000"
 13000      64657200 
 13001              	.LASF104:
 13002 08d6 746D5F63 		.ascii	"tm_calibration_t\000"
 13002      616C6962 
 13002      72617469 
 13002      6F6E5F74 
 13002      00
 13003              	.LASF156:
 13004 08e7 6E616D65 		.ascii	"name\000"
 13004      00
 13005              	.LASF214:
 13006 08ec 706F7274 		.ascii	"port_lock\000"
 13006      5F6C6F63 
 13006      6B00
 13007              	.LASF123:
 13008 08f6 735F7175 		.ascii	"s_queue\000"
 13008      65756500 
 13009              	.LASF4:
 13010 08fe 73686F72 		.ascii	"short int\000"
 13010      7420696E 
 13010      7400
 13011              	.LASF14:
 13012 0908 75696E74 		.ascii	"uint64_t\000"
 13012      36345F74 
 13012      00
 13013              	.LASF125:
 13014 0911 63685F6D 		.ascii	"ch_mutex\000"
 13014      75746578 
 13014      00
 13015              	.LASF207:
 13016 091a 63685468 		.ascii	"chThdGetSelfX\000"
 13016      64476574 
 13016      53656C66 
 13016      5800
 13017              	.LASF182:
 13018 0928 74687265 		.ascii	"thread10\000"
 13018      61643130 
 13018      00
 13019              	.LASF59:
 13020 0931 725F7072 		.ascii	"r_prio\000"
 13020      696F00
 13021              	.LASF155:
 13022 0938 74657374 		.ascii	"testcase\000"
ARM GAS  /tmp/ccqhiTbD.s 			page 238


 13022      63617365 
 13022      00
 13023              	.LASF76:
 13024 0941 63685F73 		.ascii	"ch_system_debug\000"
 13024      79737465 
 13024      6D5F6465 
 13024      62756700 
 13025              	.LASF181:
 13026 0951 6D747836 		.ascii	"mtx6_execute\000"
 13026      5F657865 
 13026      63757465 
 13026      00
 13027              	.LASF141:
 13028 095e 63665F6F 		.ascii	"cf_off_older\000"
 13028      66665F6F 
 13028      6C646572 
 13028      00
 13029              	.LASF166:
 13030 096b 74657374 		.ascii	"testmtx1\000"
 13030      6D747831 
 13030      00
 13031              	.LASF167:
 13032 0974 74657374 		.ascii	"testmtx2\000"
 13032      6D747832 
 13032      00
 13033              	.LASF168:
 13034 097d 74657374 		.ascii	"testmtx3\000"
 13034      6D747833 
 13034      00
 13035              	.LASF169:
 13036 0986 74657374 		.ascii	"testmtx4\000"
 13036      6D747834 
 13036      00
 13037              	.LASF170:
 13038 098f 74657374 		.ascii	"testmtx5\000"
 13038      6D747835 
 13038      00
 13039              	.LASF171:
 13040 0998 74657374 		.ascii	"testmtx6\000"
 13040      6D747836 
 13040      00
 13041              	.LASF172:
 13042 09a1 74657374 		.ascii	"testmtx7\000"
 13042      6D747837 
 13042      00
 13043              	.LASF173:
 13044 09aa 74657374 		.ascii	"testmtx8\000"
 13044      6D747838 
 13044      00
 13045              	.LASF221:
 13046 09b3 5F746573 		.ascii	"_test_assert_sequence\000"
 13046      745F6173 
 13046      73657274 
 13046      5F736571 
 13046      75656E63 
 13047              	.LASF84:
 13048 09c9 76746C69 		.ascii	"vtlist\000"
ARM GAS  /tmp/ccqhiTbD.s 			page 239


 13048      737400
 13049              	.LASF233:
 13050 09d0 63685379 		.ascii	"chSysHalt\000"
 13050      7348616C 
 13050      7400
 13051              	.LASF151:
 13052 09da 6D757465 		.ascii	"mutex_t\000"
 13052      785F7400 
 13053              	.LASF20:
 13054 09e2 74726566 		.ascii	"trefs_t\000"
 13054      735F7400 
 13055              	.LASF143:
 13056 09ea 63665F6F 		.ascii	"cf_off_stklimit\000"
 13056      66665F73 
 13056      746B6C69 
 13056      6D697400 
 13057              	.LASF51:
 13058 09fa 74687265 		.ascii	"threads_list_t\000"
 13058      6164735F 
 13058      6C697374 
 13058      5F7400
 13059              	.LASF244:
 13060 0a09 474E5520 		.ascii	"GNU C17 9.2.1 20191025 (release) [ARM/arm-9-branch "
 13060      43313720 
 13060      392E322E 
 13060      31203230 
 13060      31393130 
 13061 0a3c 72657669 		.ascii	"revision 277599] -mcpu=cortex-m4 -mfloat-abi=hard -"
 13061      73696F6E 
 13061      20323737 
 13061      3539395D 
 13061      202D6D63 
 13062 0a6f 6D667075 		.ascii	"mfpu=fpv4-sp-d16 -mno-thumb-interwork -mthumb -marc"
 13062      3D667076 
 13062      342D7370 
 13062      2D643136 
 13062      202D6D6E 
 13063 0aa2 683D6172 		.ascii	"h=armv7e-m+fp -ggdb -O2 -fomit-frame-pointer -falig"
 13063      6D763765 
 13063      2D6D2B66 
 13063      70202D67 
 13063      67646220 
 13064 0ad5 6E2D6675 		.ascii	"n-functions=16 -fno-strict-aliasing -fstack-protect"
 13064      6E637469 
 13064      6F6E733D 
 13064      3136202D 
 13064      666E6F2D 
 13065 0b08 6F722D61 		.ascii	"or-all -ffunction-sections -fdata-sections -fno-com"
 13065      6C6C202D 
 13065      6666756E 
 13065      6374696F 
 13065      6E2D7365 
 13066 0b3b 6D6F6E20 		.ascii	"mon -fsingle-precision-constant\000"
 13066      2D667369 
 13066      6E676C65 
 13066      2D707265 
 13066      63697369 
ARM GAS  /tmp/ccqhiTbD.s 			page 240


 13067              	.LASF246:
 13068 0b5b 2F686F6D 		.ascii	"/home/olof/Documents/MICRO-315/micro-315/tp4/lib/e-"
 13068      652F6F6C 
 13068      6F662F44 
 13068      6F63756D 
 13068      656E7473 
 13069 0b8e 7075636B 		.ascii	"puck2_main-processor\000"
 13069      325F6D61 
 13069      696E2D70 
 13069      726F6365 
 13069      73736F72 
 13070              	.LASF82:
 13071 0ba3 63685F73 		.ascii	"ch_system\000"
 13071      79737465 
 13071      6D00
 13072              	.LASF12:
 13073 0bad 75696E74 		.ascii	"uint32_t\000"
 13073      33325F74 
 13073      00
 13074              	.LASF225:
 13075 0bb6 6368436F 		.ascii	"chCondWaitTimeout\000"
 13075      6E645761 
 13075      69745469 
 13075      6D656F75 
 13075      7400
 13076              	.LASF239:
 13077 0bc8 63684D74 		.ascii	"chMtxUnlockAll\000"
 13077      78556E6C 
 13077      6F636B41 
 13077      6C6C00
 13078              	.LASF237:
 13079 0bd7 5F746573 		.ascii	"_test_assert\000"
 13079      745F6173 
 13079      73657274 
 13079      00
 13080              	.LASF115:
 13081 0be4 7264796D 		.ascii	"rdymsg\000"
 13081      736700
 13082              	.LASF11:
 13083 0beb 73686F72 		.ascii	"short unsigned int\000"
 13083      7420756E 
 13083      7369676E 
 13083      65642069 
 13083      6E7400
 13084              	.LASF81:
 13085 0bfe 63685F73 		.ascii	"ch_system_t\000"
 13085      79737465 
 13085      6D5F7400 
 13086              	.LASF149:
 13087 0c0a 63686465 		.ascii	"chdebug_t\000"
 13087      6275675F 
 13087      7400
 13088              	.LASF133:
 13089 0c14 63685F73 		.ascii	"ch_size\000"
 13089      697A6500 
 13090              	.LASF36:
 13091 0c1c 705F7374 		.ascii	"p_stklimit\000"
ARM GAS  /tmp/ccqhiTbD.s 			page 241


 13091      6B6C696D 
 13091      697400
 13092              	.LASF198:
 13093 0c27 6D747832 		.ascii	"mtx2_execute\000"
 13093      5F657865 
 13093      63757465 
 13093      00
 13094              	.LASF227:
 13095 0c34 63684D74 		.ascii	"chMtxObjectInit\000"
 13095      784F626A 
 13095      65637449 
 13095      6E697400 
 13096              	.LASF94:
 13097 0c44 73655F74 		.ascii	"se_time\000"
 13097      696D6500 
 13098              	.LASF35:
 13099 0c4c 705F6E61 		.ascii	"p_name\000"
 13099      6D6500
 13100              	.LASF128:
 13101 0c53 6D5F6E65 		.ascii	"m_next\000"
 13101      787400
 13102              	.LASF100:
 13103 0c5a 74625F70 		.ascii	"tb_ptr\000"
 13103      747200
 13104              	.LASF195:
 13105 0c61 74687265 		.ascii	"thread3L\000"
 13105      6164334C 
 13105      00
 13106              	.LASF107:
 13107 0c6a 6C617374 		.ascii	"last\000"
 13107      00
 13108              	.LASF44:
 13109 0c6f 705F6D73 		.ascii	"p_msg\000"
 13109      6700
 13110              	.LASF37:
 13111 0c75 705F7374 		.ascii	"p_state\000"
 13111      61746500 
 13112              		.ident	"GCC: (15:9-2019-q4-0ubuntu1) 9.2.1 20191025 (release) [ARM/arm-9-branch revision 277599]"
ARM GAS  /tmp/ccqhiTbD.s 			page 242


DEFINED SYMBOLS
                            *ABS*:0000000000000000 testmtx.c
     /tmp/ccqhiTbD.s:18     .rodata.mtx1_execute.str1.4:0000000000000000 $d
     /tmp/ccqhiTbD.s:37     .rodata.mtx1_execute.cst4:0000000000000000 $d
     /tmp/ccqhiTbD.s:41     .text.mtx1_execute:0000000000000000 $t
     /tmp/ccqhiTbD.s:49     .text.mtx1_execute:0000000000000000 mtx1_execute
     /tmp/ccqhiTbD.s:280    .text.mtx1_execute:00000000000000d4 $d
     /tmp/ccqhiTbD.s:307    .text.thread1:0000000000000000 thread1
     /tmp/ccqhiTbD.s:296    .rodata.thread1.cst4:0000000000000000 $d
     /tmp/ccqhiTbD.s:300    .text.thread1:0000000000000000 $t
     /tmp/ccqhiTbD.s:365    .text.thread1:0000000000000038 $d
     /tmp/ccqhiTbD.s:371    .rodata.thread12.cst4:0000000000000000 $d
     /tmp/ccqhiTbD.s:375    .text.thread12:0000000000000000 $t
     /tmp/ccqhiTbD.s:382    .text.thread12:0000000000000000 thread12
     /tmp/ccqhiTbD.s:440    .text.thread12:0000000000000038 $d
     /tmp/ccqhiTbD.s:446    .rodata.mtx1_setup.cst4:0000000000000000 $d
     /tmp/ccqhiTbD.s:450    .text.mtx1_setup:0000000000000000 $t
     /tmp/ccqhiTbD.s:457    .text.mtx1_setup:0000000000000000 mtx1_setup
     /tmp/ccqhiTbD.s:498    .text.mtx1_setup:0000000000000028 $d
     /tmp/ccqhiTbD.s:504    .rodata.mtx2_setup.cst4:0000000000000000 $d
     /tmp/ccqhiTbD.s:508    .text.mtx2_setup:0000000000000000 $t
     /tmp/ccqhiTbD.s:515    .text.mtx2_setup:0000000000000000 mtx2_setup
     /tmp/ccqhiTbD.s:548    .text.mtx2_setup:0000000000000028 $d
     /tmp/ccqhiTbD.s:553    .rodata.mtx5_setup.cst4:0000000000000000 $d
     /tmp/ccqhiTbD.s:557    .text.mtx5_setup:0000000000000000 $t
     /tmp/ccqhiTbD.s:564    .text.mtx5_setup:0000000000000000 mtx5_setup
     /tmp/ccqhiTbD.s:597    .text.mtx5_setup:0000000000000028 $d
     /tmp/ccqhiTbD.s:602    .rodata.mtx3_setup.cst4:0000000000000000 $d
     /tmp/ccqhiTbD.s:606    .text.mtx3_setup:0000000000000000 $t
     /tmp/ccqhiTbD.s:613    .text.mtx3_setup:0000000000000000 mtx3_setup
     /tmp/ccqhiTbD.s:661    .text.mtx3_setup:0000000000000030 $d
     /tmp/ccqhiTbD.s:668    .rodata.mtx4_setup.cst4:0000000000000000 $d
     /tmp/ccqhiTbD.s:672    .text.mtx4_setup:0000000000000000 $t
     /tmp/ccqhiTbD.s:679    .text.mtx4_setup:0000000000000000 mtx4_setup
     /tmp/ccqhiTbD.s:712    .text.mtx4_setup:0000000000000028 $d
     /tmp/ccqhiTbD.s:717    .rodata.thread2L.cst4:0000000000000000 $d
     /tmp/ccqhiTbD.s:721    .text.thread2L:0000000000000000 $t
     /tmp/ccqhiTbD.s:728    .text.thread2L:0000000000000000 thread2L
     /tmp/ccqhiTbD.s:791    .text.thread2L:0000000000000040 $d
     /tmp/ccqhiTbD.s:797    .rodata.thread3LL.cst4:0000000000000000 $d
     /tmp/ccqhiTbD.s:801    .text.thread3LL:0000000000000000 $t
     /tmp/ccqhiTbD.s:808    .text.thread3LL:0000000000000000 thread3LL
     /tmp/ccqhiTbD.s:867    .text.thread3LL:000000000000003c $d
     /tmp/ccqhiTbD.s:873    .rodata.thread2M.cst4:0000000000000000 $d
     /tmp/ccqhiTbD.s:877    .text.thread2M:0000000000000000 $t
     /tmp/ccqhiTbD.s:884    .text.thread2M:0000000000000000 thread2M
     /tmp/ccqhiTbD.s:938    .text.thread2M:0000000000000034 $d
     /tmp/ccqhiTbD.s:943    .rodata.thread2H.cst4:0000000000000000 $d
     /tmp/ccqhiTbD.s:947    .text.thread2H:0000000000000000 $t
     /tmp/ccqhiTbD.s:954    .text.thread2H:0000000000000000 thread2H
     /tmp/ccqhiTbD.s:1016   .text.thread2H:0000000000000040 $d
     /tmp/ccqhiTbD.s:1022   .rodata.thread3HH.cst4:0000000000000000 $d
     /tmp/ccqhiTbD.s:1026   .text.thread3HH:0000000000000000 $t
     /tmp/ccqhiTbD.s:1033   .text.thread3HH:0000000000000000 thread3HH
     /tmp/ccqhiTbD.s:1095   .text.thread3HH:0000000000000040 $d
     /tmp/ccqhiTbD.s:1101   .rodata.thread3H.cst4:0000000000000000 $d
     /tmp/ccqhiTbD.s:1105   .text.thread3H:0000000000000000 $t
ARM GAS  /tmp/ccqhiTbD.s 			page 243


     /tmp/ccqhiTbD.s:1112   .text.thread3H:0000000000000000 thread3H
     /tmp/ccqhiTbD.s:1166   .text.thread3H:0000000000000034 $d
     /tmp/ccqhiTbD.s:1171   .rodata.thread3M.cst4:0000000000000000 $d
     /tmp/ccqhiTbD.s:1175   .text.thread3M:0000000000000000 $t
     /tmp/ccqhiTbD.s:1182   .text.thread3M:0000000000000000 thread3M
     /tmp/ccqhiTbD.s:1244   .text.thread3M:0000000000000040 $d
     /tmp/ccqhiTbD.s:1250   .rodata.thread3L.cst4:0000000000000000 $d
     /tmp/ccqhiTbD.s:1254   .text.thread3L:0000000000000000 $t
     /tmp/ccqhiTbD.s:1261   .text.thread3L:0000000000000000 thread3L
     /tmp/ccqhiTbD.s:1339   .text.thread3L:0000000000000058 $d
     /tmp/ccqhiTbD.s:1346   .rodata.thread4b.cst4:0000000000000000 $d
     /tmp/ccqhiTbD.s:1350   .text.thread4b:0000000000000000 $t
     /tmp/ccqhiTbD.s:1357   .text.thread4b:0000000000000000 thread4b
     /tmp/ccqhiTbD.s:1411   .text.thread4b:0000000000000034 $d
     /tmp/ccqhiTbD.s:1417   .rodata.thread4a.cst4:0000000000000000 $d
     /tmp/ccqhiTbD.s:1421   .text.thread4a:0000000000000000 $t
     /tmp/ccqhiTbD.s:1428   .text.thread4a:0000000000000000 thread4a
     /tmp/ccqhiTbD.s:1482   .text.thread4a:0000000000000034 $d
     /tmp/ccqhiTbD.s:1488   .rodata.mtx4_execute.cst4:0000000000000000 $d
     /tmp/ccqhiTbD.s:1492   .text.mtx4_execute:0000000000000000 $t
     /tmp/ccqhiTbD.s:1499   .text.mtx4_execute:0000000000000000 mtx4_execute
     /tmp/ccqhiTbD.s:2248   .text.mtx4_execute:0000000000000278 $d
     /tmp/ccqhiTbD.s:2267   .rodata.thread10.cst4:0000000000000000 $d
     /tmp/ccqhiTbD.s:2271   .text.thread10:0000000000000000 $t
     /tmp/ccqhiTbD.s:2278   .text.thread10:0000000000000000 thread10
     /tmp/ccqhiTbD.s:2341   .text.thread10:000000000000003c $d
     /tmp/ccqhiTbD.s:2348   .rodata.mtx6_setup.cst4:0000000000000000 $d
     /tmp/ccqhiTbD.s:2352   .text.mtx6_setup:0000000000000000 $t
     /tmp/ccqhiTbD.s:2359   .text.mtx6_setup:0000000000000000 mtx6_setup
     /tmp/ccqhiTbD.s:2406   .text.mtx6_setup:0000000000000030 $d
     /tmp/ccqhiTbD.s:2413   .rodata.mtx7_setup.cst4:0000000000000000 $d
     /tmp/ccqhiTbD.s:2417   .text.mtx7_setup:0000000000000000 $t
     /tmp/ccqhiTbD.s:2424   .text.mtx7_setup:0000000000000000 mtx7_setup
     /tmp/ccqhiTbD.s:2457   .text.mtx7_setup:0000000000000028 $d
     /tmp/ccqhiTbD.s:2462   .rodata.mtx8_setup.cst4:0000000000000000 $d
     /tmp/ccqhiTbD.s:2466   .text.mtx8_setup:0000000000000000 $t
     /tmp/ccqhiTbD.s:2473   .text.mtx8_setup:0000000000000000 mtx8_setup
     /tmp/ccqhiTbD.s:2525   .text.mtx8_setup:0000000000000034 $d
     /tmp/ccqhiTbD.s:2533   .rodata.mtx7_execute.cst4:0000000000000000 $d
     /tmp/ccqhiTbD.s:2537   .text.mtx7_execute:0000000000000000 $t
     /tmp/ccqhiTbD.s:2544   .text.mtx7_execute:0000000000000000 mtx7_execute
     /tmp/ccqhiTbD.s:2726   .text.mtx7_execute:00000000000000ac $d
     /tmp/ccqhiTbD.s:2742   .rodata.mtx8_execute.str1.4:0000000000000000 $d
     /tmp/ccqhiTbD.s:2746   .rodata.mtx8_execute.cst4:0000000000000000 $d
     /tmp/ccqhiTbD.s:2750   .text.mtx8_execute:0000000000000000 $t
     /tmp/ccqhiTbD.s:2757   .text.mtx8_execute:0000000000000000 mtx8_execute
     /tmp/ccqhiTbD.s:2911   .text.mtx8_execute:0000000000000088 $d
     /tmp/ccqhiTbD.s:2938   .text.thread11:0000000000000000 thread11
     /tmp/ccqhiTbD.s:2927   .rodata.thread11.cst4:0000000000000000 $d
     /tmp/ccqhiTbD.s:2931   .text.thread11:0000000000000000 $t
     /tmp/ccqhiTbD.s:3010   .text.thread11:000000000000004c $d
     /tmp/ccqhiTbD.s:3018   .rodata.mtx5_execute.cst4:0000000000000000 $d
     /tmp/ccqhiTbD.s:3022   .text.mtx5_execute:0000000000000000 $t
     /tmp/ccqhiTbD.s:3029   .text.mtx5_execute:0000000000000000 mtx5_execute
     /tmp/ccqhiTbD.s:3131   .text.mtx5_execute:000000000000005c $d
     /tmp/ccqhiTbD.s:3137   .rodata.mtx2_execute.cst4:0000000000000000 $d
     /tmp/ccqhiTbD.s:3141   .text.mtx2_execute:0000000000000000 $t
ARM GAS  /tmp/ccqhiTbD.s 			page 244


     /tmp/ccqhiTbD.s:3148   .text.mtx2_execute:0000000000000000 mtx2_execute
     /tmp/ccqhiTbD.s:3481   .text.mtx2_execute:00000000000000d4 $d
     /tmp/ccqhiTbD.s:3494   .rodata.mtx6_execute.cst4:0000000000000000 $d
     /tmp/ccqhiTbD.s:3498   .text.mtx6_execute:0000000000000000 $t
     /tmp/ccqhiTbD.s:3505   .text.mtx6_execute:0000000000000000 mtx6_execute
     /tmp/ccqhiTbD.s:3824   .text.mtx6_execute:00000000000000fc $d
     /tmp/ccqhiTbD.s:3841   .rodata.mtx3_execute.cst4:0000000000000000 $d
     /tmp/ccqhiTbD.s:3845   .text.mtx3_execute:0000000000000000 $t
     /tmp/ccqhiTbD.s:3852   .text.mtx3_execute:0000000000000000 mtx3_execute
     /tmp/ccqhiTbD.s:4248   .text.mtx3_execute:0000000000000100 $d
     /tmp/ccqhiTbD.s:4337   .rodata.patternmtx:0000000000000000 patternmtx
     /tmp/ccqhiTbD.s:4414   .rodata.testmtx8:0000000000000000 testmtx8
     /tmp/ccqhiTbD.s:4265   .rodata.str1.4:0000000000000000 $d
     /tmp/ccqhiTbD.s:4405   .rodata.testmtx7:0000000000000000 testmtx7
     /tmp/ccqhiTbD.s:4396   .rodata.testmtx6:0000000000000000 testmtx6
     /tmp/ccqhiTbD.s:4387   .rodata.testmtx5:0000000000000000 testmtx5
     /tmp/ccqhiTbD.s:4378   .rodata.testmtx4:0000000000000000 testmtx4
     /tmp/ccqhiTbD.s:4369   .rodata.testmtx3:0000000000000000 testmtx3
     /tmp/ccqhiTbD.s:4360   .rodata.testmtx2:0000000000000000 testmtx2
     /tmp/ccqhiTbD.s:4351   .rodata.testmtx1:0000000000000000 testmtx1
     /tmp/ccqhiTbD.s:4297   .data.c1:0000000000000000 $d
     /tmp/ccqhiTbD.s:4301   .data.c1:0000000000000000 c1
     /tmp/ccqhiTbD.s:4305   .data.m1:0000000000000000 $d
     /tmp/ccqhiTbD.s:4309   .data.m1:0000000000000000 m1
     /tmp/ccqhiTbD.s:4316   .data.m2:0000000000000000 $d
     /tmp/ccqhiTbD.s:4320   .data.m2:0000000000000000 m2
     /tmp/ccqhiTbD.s:4327   .rodata.__func__.7261:0000000000000000 $d
     /tmp/ccqhiTbD.s:4331   .rodata.__func__.7261:0000000000000000 __func__.7261
     /tmp/ccqhiTbD.s:4334   .rodata.patternmtx:0000000000000000 $d
     /tmp/ccqhiTbD.s:4348   .rodata.testmtx1:0000000000000000 $d
     /tmp/ccqhiTbD.s:4357   .rodata.testmtx2:0000000000000000 $d
     /tmp/ccqhiTbD.s:4366   .rodata.testmtx3:0000000000000000 $d
     /tmp/ccqhiTbD.s:4375   .rodata.testmtx4:0000000000000000 $d
     /tmp/ccqhiTbD.s:4384   .rodata.testmtx5:0000000000000000 $d
     /tmp/ccqhiTbD.s:4393   .rodata.testmtx6:0000000000000000 $d
     /tmp/ccqhiTbD.s:4402   .rodata.testmtx7:0000000000000000 $d
     /tmp/ccqhiTbD.s:4411   .rodata.testmtx8:0000000000000000 $d

UNDEFINED SYMBOLS
__stack_chk_guard
chMtxLock
chThdCreateStatic
chMtxUnlock
test_wait_threads
_test_assert
_test_assert_sequence
__stack_chk_fail
ch
wa
threads
test_emit_token
chMtxObjectInit
test_cpu_pulse
chThdSleep
chMtxUnlockAll
_stats_start_measure_crit_thd
_dbg_check_lock
ARM GAS  /tmp/ccqhiTbD.s 			page 245


chMtxUnlockS
chSchRescheduleS
_dbg_check_unlock
_stats_stop_measure_crit_thd
chSysHalt
chCondWait
chCondObjectInit
chCondBroadcast
chCondSignal
chCondWaitTimeout
test_wait_tick
_test_assert_time_window
chCondSignalI
