ARM GAS  /tmp/ccjZydPD.s 			page 1


   1              		.cpu cortex-m4
   2              		.eabi_attribute 27, 1
   3              		.eabi_attribute 28, 1
   4              		.eabi_attribute 20, 1
   5              		.eabi_attribute 21, 1
   6              		.eabi_attribute 23, 3
   7              		.eabi_attribute 24, 1
   8              		.eabi_attribute 25, 1
   9              		.eabi_attribute 26, 1
  10              		.eabi_attribute 30, 2
  11              		.eabi_attribute 34, 1
  12              		.eabi_attribute 18, 4
  13              		.file	"testsys.c"
  14              		.text
  15              	.Ltext0:
  16              		.cfi_sections	.debug_frame
  17              		.section	.rodata.vtcb.cst4,"aM",%progbits,4
  18              		.align	2
  19              	.LC0:
  20 0000 00000000 		.word	__stack_chk_guard
  21              		.section	.text.vtcb,"ax",%progbits
  22              		.align	1
  23              		.p2align 4,,15
  24              		.arch armv7e-m
  25              		.syntax unified
  26              		.thumb
  27              		.thumb_func
  28              		.fpu fpv4-sp-d16
  29              		.type	vtcb, %function
  30              	vtcb:
  31              	.LVL0:
  32              	.LFB219:
  33              		.file 1 ".//ChibiOS//test/rt/testsys.c"
  34              		.loc 1 52 27 view -0
  35              		.cfi_startproc
  36              		@ args = 0, pretend = 0, frame = 8
  37              		@ frame_needed = 0, uses_anonymous_args = 0
  38              		.loc 1 52 27 is_stmt 0 view .LVU1
  39 0000 30B5     		push	{r4, r5, lr}
  40              		.cfi_def_cfa_offset 12
  41              		.cfi_offset 4, -12
  42              		.cfi_offset 5, -8
  43              		.cfi_offset 14, -4
  44 0002 164B     		ldr	r3, .L6
  45 0004 83B0     		sub	sp, sp, #12
  46              		.cfi_def_cfa_offset 24
  47              		.loc 1 52 27 view .LVU2
  48 0006 1B68     		ldr	r3, [r3]
  49 0008 0193     		str	r3, [sp, #4]
  50 000a 4FF00003 		mov	r3,#0
  51              		.loc 1 53 3 is_stmt 1 view .LVU3
  52              		.loc 1 55 3 view .LVU4
  53              		.loc 1 58 3 view .LVU5
  54              	.LBB241:
  55              	.LBI241:
  56              		.file 2 ".//ChibiOS//os/rt/include/chsys.h"
  57              		.loc 2 386 20 view .LVU6
ARM GAS  /tmp/ccjZydPD.s 			page 2


  58              	.LBB242:
  59              		.loc 2 388 3 view .LVU7
  60              	.LBB243:
  61              	.LBI243:
  62              		.file 3 ".//ChibiOS//os/rt/ports/ARMCMx/chcore_v7m.h"
  63              		.loc 3 473 20 view .LVU8
  64              	.LBE243:
  65              	.LBE242:
  66              	.LBE241:
  67              		.loc 3 475 3 view .LVU9
  68              	.LBB253:
  69              	.LBB250:
  70              	.LBB248:
  71              	.LBB244:
  72              	.LBI244:
  73              		.loc 3 444 20 view .LVU10
  74              	.LBE244:
  75              	.LBE248:
  76              	.LBE250:
  77              	.LBE253:
  78              		.loc 3 447 3 view .LVU11
  79              	.LVL1:
  80              	.LBB254:
  81              	.LBB251:
  82              	.LBB249:
  83              	.LBB247:
  84              	.LBB245:
  85              	.LBI245:
  86              		.file 4 ".//ChibiOS//os/ext/CMSIS/include/core_cmFunc.h"
  87              		.loc 4 544 57 view .LVU12
  88              	.LBB246:
  89              		.loc 4 546 3 view .LVU13
  90 000e 2025     		movs	r5, #32
  91              		.syntax unified
  92              	@ 546 ".//ChibiOS//os/ext/CMSIS/include/core_cmFunc.h" 1
  93 0010 85F31188 		MSR basepri, r5
  94              	@ 0 "" 2
  95              	.LVL2:
  96              		.loc 4 546 3 is_stmt 0 view .LVU14
  97              		.thumb
  98              		.syntax unified
  99              	.LBE246:
 100              	.LBE245:
 101              	.LBE247:
 102              	.LBE249:
 103              		.loc 2 389 3 is_stmt 1 view .LVU15
 104 0014 FFF7FEFF 		bl	_stats_start_measure_crit_isr
 105              	.LVL3:
 106              		.loc 2 390 3 view .LVU16
 107              	.LBE251:
 108              	.LBE254:
 109              	.LBB255:
 110              	.LBB256:
 111              	.LBB257:
 112              	.LBB258:
 113              	.LBB259:
 114              	.LBB260:
ARM GAS  /tmp/ccjZydPD.s 			page 3


 115              		.loc 4 546 3 is_stmt 0 view .LVU17
 116 0018 0024     		movs	r4, #0
 117              	.LBE260:
 118              	.LBE259:
 119              	.LBE258:
 120              	.LBE257:
 121              	.LBE256:
 122              	.LBE255:
 123              	.LBB271:
 124              	.LBB252:
 125              		.loc 2 390 3 view .LVU18
 126 001a FFF7FEFF 		bl	_dbg_check_lock_from_isr
 127              	.LVL4:
 128              	.LBE252:
 129              	.LBE271:
 130              		.loc 1 59 3 is_stmt 1 view .LVU19
 131              	.LBB272:
 132              	.LBI255:
 133              		.loc 2 406 20 view .LVU20
 134              	.LBB268:
 135              		.loc 2 408 3 view .LVU21
 136 001e FFF7FEFF 		bl	_dbg_check_unlock_from_isr
 137              	.LVL5:
 138              		.loc 2 409 3 view .LVU22
 139 0022 FFF7FEFF 		bl	_stats_stop_measure_crit_isr
 140              	.LVL6:
 141              		.loc 2 410 3 view .LVU23
 142              	.LBB265:
 143              	.LBI257:
 144              		.loc 3 484 20 view .LVU24
 145              	.LBE265:
 146              	.LBE268:
 147              	.LBE272:
 148              		.loc 3 486 3 view .LVU25
 149              	.LBB273:
 150              	.LBB269:
 151              	.LBB266:
 152              	.LBB263:
 153              	.LBI258:
 154              		.loc 3 458 20 view .LVU26
 155              	.LBE263:
 156              	.LBE266:
 157              	.LBE269:
 158              	.LBE273:
 159              		.loc 3 461 3 view .LVU27
 160              	.LBB274:
 161              	.LBB270:
 162              	.LBB267:
 163              	.LBB264:
 164              	.LBB262:
 165              	.LBI259:
 166              		.loc 4 544 57 view .LVU28
 167              	.LBB261:
 168              		.loc 4 546 3 view .LVU29
 169              		.syntax unified
 170              	@ 546 ".//ChibiOS//os/ext/CMSIS/include/core_cmFunc.h" 1
 171 0026 84F31188 		MSR basepri, r4
ARM GAS  /tmp/ccjZydPD.s 			page 4


 172              	@ 0 "" 2
 173              	.LVL7:
 174              		.loc 4 546 3 is_stmt 0 view .LVU30
 175              		.thumb
 176              		.syntax unified
 177              	.LBE261:
 178              	.LBE262:
 179              	.LBE264:
 180              	.LBE267:
 181              	.LBE270:
 182              	.LBE274:
 183              		.loc 1 62 3 is_stmt 1 view .LVU31
 184              	.LBB275:
 185              	.LBI275:
 186              		.loc 2 386 20 view .LVU32
 187              	.LBB276:
 188              		.loc 2 388 3 view .LVU33
 189              	.LBB277:
 190              	.LBI277:
 191              		.loc 3 473 20 view .LVU34
 192              	.LBE277:
 193              	.LBE276:
 194              	.LBE275:
 195              		.loc 3 475 3 view .LVU35
 196              	.LBB286:
 197              	.LBB284:
 198              	.LBB282:
 199              	.LBB278:
 200              	.LBI278:
 201              		.loc 3 444 20 view .LVU36
 202              	.LBE278:
 203              	.LBE282:
 204              	.LBE284:
 205              	.LBE286:
 206              		.loc 3 447 3 view .LVU37
 207              	.LBB287:
 208              	.LBB285:
 209              	.LBB283:
 210              	.LBB281:
 211              	.LBB279:
 212              	.LBI279:
 213              		.loc 4 544 57 view .LVU38
 214              	.LBB280:
 215              		.loc 4 546 3 view .LVU39
 216              		.syntax unified
 217              	@ 546 ".//ChibiOS//os/ext/CMSIS/include/core_cmFunc.h" 1
 218 002a 85F31188 		MSR basepri, r5
 219              	@ 0 "" 2
 220              	.LVL8:
 221              		.loc 4 546 3 is_stmt 0 view .LVU40
 222              		.thumb
 223              		.syntax unified
 224              	.LBE280:
 225              	.LBE279:
 226              	.LBE281:
 227              	.LBE283:
 228              		.loc 2 389 3 is_stmt 1 view .LVU41
ARM GAS  /tmp/ccjZydPD.s 			page 5


 229 002e FFF7FEFF 		bl	_stats_start_measure_crit_isr
 230              	.LVL9:
 231              		.loc 2 390 3 view .LVU42
 232 0032 FFF7FEFF 		bl	_dbg_check_lock_from_isr
 233              	.LVL10:
 234              	.LBE285:
 235              	.LBE287:
 236              		.loc 1 63 3 view .LVU43
 237              		.loc 1 63 9 is_stmt 0 view .LVU44
 238 0036 FFF7FEFF 		bl	chSysGetStatusAndLockX
 239              	.LVL11:
 240              		.loc 1 64 3 is_stmt 1 view .LVU45
 241 003a FFF7FEFF 		bl	chSysRestoreStatusX
 242              	.LVL12:
 243              		.loc 1 65 3 view .LVU46
 244              	.LBB288:
 245              	.LBI288:
 246              		.loc 2 406 20 view .LVU47
 247              	.LBB289:
 248              		.loc 2 408 3 view .LVU48
 249 003e FFF7FEFF 		bl	_dbg_check_unlock_from_isr
 250              	.LVL13:
 251              		.loc 2 409 3 view .LVU49
 252 0042 FFF7FEFF 		bl	_stats_stop_measure_crit_isr
 253              	.LVL14:
 254              		.loc 2 410 3 view .LVU50
 255              	.LBB290:
 256              	.LBI290:
 257              		.loc 3 484 20 view .LVU51
 258              	.LBE290:
 259              	.LBE289:
 260              	.LBE288:
 261              		.loc 3 486 3 view .LVU52
 262              	.LBB299:
 263              	.LBB297:
 264              	.LBB295:
 265              	.LBB291:
 266              	.LBI291:
 267              		.loc 3 458 20 view .LVU53
 268              	.LBE291:
 269              	.LBE295:
 270              	.LBE297:
 271              	.LBE299:
 272              		.loc 3 461 3 view .LVU54
 273              	.LBB300:
 274              	.LBB298:
 275              	.LBB296:
 276              	.LBB294:
 277              	.LBB292:
 278              	.LBI292:
 279              		.loc 4 544 57 view .LVU55
 280              	.LBB293:
 281              		.loc 4 546 3 view .LVU56
 282              		.syntax unified
 283              	@ 546 ".//ChibiOS//os/ext/CMSIS/include/core_cmFunc.h" 1
 284 0046 84F31188 		MSR basepri, r4
 285              	@ 0 "" 2
ARM GAS  /tmp/ccjZydPD.s 			page 6


 286              	.LVL15:
 287              		.loc 4 546 3 is_stmt 0 view .LVU57
 288              		.thumb
 289              		.syntax unified
 290              	.LBE293:
 291              	.LBE292:
 292              	.LBE294:
 293              	.LBE296:
 294              	.LBE298:
 295              	.LBE300:
 296              		.loc 1 66 1 view .LVU58
 297 004a 044B     		ldr	r3, .L6
 298 004c 1A68     		ldr	r2, [r3]
 299 004e 019B     		ldr	r3, [sp, #4]
 300 0050 5A40     		eors	r2, r3, r2
 301 0052 01D1     		bne	.L5
 302 0054 03B0     		add	sp, sp, #12
 303              		.cfi_remember_state
 304              		.cfi_def_cfa_offset 12
 305              		@ sp needed
 306 0056 30BD     		pop	{r4, r5, pc}
 307              	.L5:
 308              		.cfi_restore_state
 309 0058 FFF7FEFF 		bl	__stack_chk_fail
 310              	.LVL16:
 311              	.L7:
 312              		.align	2
 313              	.L6:
 314 005c 00000000 		.word	.LC0
 315              		.cfi_endproc
 316              	.LFE219:
 317              		.size	vtcb, .-vtcb
 318              		.section	.rodata.sys2_execute.cst4,"aM",%progbits,4
 319              		.align	2
 320              	.LC1:
 321 0000 00000000 		.word	__stack_chk_guard
 322              		.section	.text.sys2_execute,"ax",%progbits
 323              		.align	1
 324              		.p2align 4,,15
 325              		.syntax unified
 326              		.thumb
 327              		.thumb_func
 328              		.fpu fpv4-sp-d16
 329              		.type	sys2_execute, %function
 330              	sys2_execute:
 331              	.LFB221:
 332              		.loc 1 114 32 is_stmt 1 view -0
 333              		.cfi_startproc
 334              		@ args = 0, pretend = 0, frame = 8
 335              		@ frame_needed = 0, uses_anonymous_args = 0
 336 0000 10B5     		push	{r4, lr}
 337              		.cfi_def_cfa_offset 8
 338              		.cfi_offset 4, -8
 339              		.cfi_offset 14, -4
 340 0002 114B     		ldr	r3, .L12
 341 0004 82B0     		sub	sp, sp, #8
 342              		.cfi_def_cfa_offset 16
ARM GAS  /tmp/ccjZydPD.s 			page 7


 343              		.loc 1 114 32 is_stmt 0 view .LVU60
 344 0006 1B68     		ldr	r3, [r3]
 345 0008 0193     		str	r3, [sp, #4]
 346 000a 4FF00003 		mov	r3,#0
 347              		.loc 1 116 3 is_stmt 1 view .LVU61
 348              	.LBB301:
 349              	.LBI301:
 350              		.loc 2 320 20 view .LVU62
 351              	.LBB302:
 352              		.loc 2 322 3 view .LVU63
 353              	.LBB303:
 354              	.LBI303:
 355              		.loc 3 504 20 view .LVU64
 356              	.LBE303:
 357              	.LBE302:
 358              	.LBE301:
 359              		.loc 3 507 3 view .LVU65
 360              	.LVL17:
 361              	.LBB312:
 362              	.LBB310:
 363              	.LBB308:
 364              	.LBB304:
 365              	.LBI304:
 366              		.loc 4 544 57 view .LVU66
 367              	.LBB305:
 368              		.loc 4 546 3 view .LVU67
 369 000e 2024     		movs	r4, #32
 370              		.syntax unified
 371              	@ 546 ".//ChibiOS//os/ext/CMSIS/include/core_cmFunc.h" 1
 372 0010 84F31188 		MSR basepri, r4
 373              	@ 0 "" 2
 374              	.LVL18:
 375              		.loc 4 546 3 is_stmt 0 view .LVU68
 376              		.thumb
 377              		.syntax unified
 378              	.LBE305:
 379              	.LBE304:
 380              	.LBE308:
 381              	.LBE310:
 382              	.LBE312:
 383              		.loc 3 508 3 is_stmt 1 view .LVU69
 384              	.LBB313:
 385              	.LBB311:
 386              	.LBB309:
 387              	.LBB306:
 388              	.LBI306:
 389              		.loc 4 329 57 view .LVU70
 390              	.LBB307:
 391              		.loc 4 331 3 view .LVU71
 392              		.syntax unified
 393              	@ 331 ".//ChibiOS//os/ext/CMSIS/include/core_cmFunc.h" 1
 394 0014 62B6     		cpsie i
 395              	@ 0 "" 2
 396              		.thumb
 397              		.syntax unified
 398              	.LBE307:
 399              	.LBE306:
ARM GAS  /tmp/ccjZydPD.s 			page 8


 400              	.LBE309:
 401              		.loc 2 323 3 view .LVU72
 402 0016 FFF7FEFF 		bl	_dbg_check_suspend
 403              	.LVL19:
 404              	.LBE311:
 405              	.LBE313:
 406              		.loc 1 117 3 view .LVU73
 407              	.LBB314:
 408              	.LBI314:
 409              		.loc 2 303 20 view .LVU74
 410              	.LBB315:
 411              		.loc 2 305 3 view .LVU75
 412              	.LBB316:
 413              	.LBI316:
 414              		.loc 3 494 20 view .LVU76
 415              	.LBE316:
 416              	.LBE315:
 417              	.LBE314:
 418              		.loc 3 496 3 view .LVU77
 419              	.LBB321:
 420              	.LBB320:
 421              	.LBB319:
 422              	.LBB317:
 423              	.LBI317:
 424              		.loc 4 340 57 view .LVU78
 425              	.LBB318:
 426              		.loc 4 342 3 view .LVU79
 427              		.syntax unified
 428              	@ 342 ".//ChibiOS//os/ext/CMSIS/include/core_cmFunc.h" 1
 429 001a 72B6     		cpsid i
 430              	@ 0 "" 2
 431              		.thumb
 432              		.syntax unified
 433              	.LBE318:
 434              	.LBE317:
 435              	.LBE319:
 436              		.loc 2 306 3 view .LVU80
 437 001c FFF7FEFF 		bl	_dbg_check_disable
 438              	.LVL20:
 439              	.LBE320:
 440              	.LBE321:
 441              		.loc 1 118 3 view .LVU81
 442              	.LBB322:
 443              	.LBI322:
 444              		.loc 2 320 20 view .LVU82
 445              	.LBB323:
 446              		.loc 2 322 3 view .LVU83
 447              	.LBB324:
 448              	.LBI324:
 449              		.loc 3 504 20 view .LVU84
 450              	.LBE324:
 451              	.LBE323:
 452              	.LBE322:
 453              		.loc 3 507 3 view .LVU85
 454              	.LBB333:
 455              	.LBB331:
 456              	.LBB329:
ARM GAS  /tmp/ccjZydPD.s 			page 9


 457              	.LBB325:
 458              	.LBI325:
 459              		.loc 4 544 57 view .LVU86
 460              	.LBB326:
 461              		.loc 4 546 3 view .LVU87
 462              		.syntax unified
 463              	@ 546 ".//ChibiOS//os/ext/CMSIS/include/core_cmFunc.h" 1
 464 0020 84F31188 		MSR basepri, r4
 465              	@ 0 "" 2
 466              	.LVL21:
 467              		.loc 4 546 3 is_stmt 0 view .LVU88
 468              		.thumb
 469              		.syntax unified
 470              	.LBE326:
 471              	.LBE325:
 472              	.LBE329:
 473              	.LBE331:
 474              	.LBE333:
 475              		.loc 3 508 3 is_stmt 1 view .LVU89
 476              	.LBB334:
 477              	.LBB332:
 478              	.LBB330:
 479              	.LBB327:
 480              	.LBI327:
 481              		.loc 4 329 57 view .LVU90
 482              	.LBB328:
 483              		.loc 4 331 3 view .LVU91
 484              		.syntax unified
 485              	@ 331 ".//ChibiOS//os/ext/CMSIS/include/core_cmFunc.h" 1
 486 0024 62B6     		cpsie i
 487              	@ 0 "" 2
 488              		.thumb
 489              		.syntax unified
 490              	.LBE328:
 491              	.LBE327:
 492              	.LBE330:
 493              		.loc 2 323 3 view .LVU92
 494 0026 FFF7FEFF 		bl	_dbg_check_suspend
 495              	.LVL22:
 496              	.LBE332:
 497              	.LBE334:
 498              		.loc 1 119 3 view .LVU93
 499              	.LBB335:
 500              	.LBI335:
 501              		.loc 2 335 20 view .LVU94
 502              	.LBB336:
 503              		.loc 2 337 3 view .LVU95
 504 002a FFF7FEFF 		bl	_dbg_check_enable
 505              	.LVL23:
 506              		.loc 2 338 3 view .LVU96
 507              	.LBB337:
 508              	.LBI337:
 509              		.loc 3 518 20 view .LVU97
 510              	.LBE337:
 511              	.LBE336:
 512              	.LBE335:
 513              		.loc 3 521 3 view .LVU98
ARM GAS  /tmp/ccjZydPD.s 			page 10


 514              	.LBB346:
 515              	.LBB344:
 516              	.LBB342:
 517              	.LBB338:
 518              	.LBI338:
 519              		.loc 4 544 57 view .LVU99
 520              	.LBB339:
 521              		.loc 4 546 3 view .LVU100
 522 002e 0023     		movs	r3, #0
 523              		.syntax unified
 524              	@ 546 ".//ChibiOS//os/ext/CMSIS/include/core_cmFunc.h" 1
 525 0030 83F31188 		MSR basepri, r3
 526              	@ 0 "" 2
 527              	.LVL24:
 528              		.loc 4 546 3 is_stmt 0 view .LVU101
 529              		.thumb
 530              		.syntax unified
 531              	.LBE339:
 532              	.LBE338:
 533              	.LBE342:
 534              	.LBE344:
 535              	.LBE346:
 536              		.loc 3 523 3 is_stmt 1 view .LVU102
 537              	.LBB347:
 538              	.LBB345:
 539              	.LBB343:
 540              	.LBB340:
 541              	.LBI340:
 542              		.loc 4 329 57 view .LVU103
 543              	.LBB341:
 544              		.loc 4 331 3 view .LVU104
 545              		.syntax unified
 546              	@ 331 ".//ChibiOS//os/ext/CMSIS/include/core_cmFunc.h" 1
 547 0034 62B6     		cpsie i
 548              	@ 0 "" 2
 549              		.thumb
 550              		.syntax unified
 551              	.LBE341:
 552              	.LBE340:
 553              	.LBE343:
 554              	.LBE345:
 555              	.LBE347:
 556              		.loc 1 120 1 is_stmt 0 view .LVU105
 557 0036 044B     		ldr	r3, .L12
 558 0038 1A68     		ldr	r2, [r3]
 559 003a 019B     		ldr	r3, [sp, #4]
 560 003c 5A40     		eors	r2, r3, r2
 561 003e 01D1     		bne	.L11
 562 0040 02B0     		add	sp, sp, #8
 563              		.cfi_remember_state
 564              		.cfi_def_cfa_offset 8
 565              		@ sp needed
 566 0042 10BD     		pop	{r4, pc}
 567              	.L11:
 568              		.cfi_restore_state
 569 0044 FFF7FEFF 		bl	__stack_chk_fail
 570              	.LVL25:
ARM GAS  /tmp/ccjZydPD.s 			page 11


 571              	.L13:
 572              		.align	2
 573              	.L12:
 574 0048 00000000 		.word	.LC1
 575              		.cfi_endproc
 576              	.LFE221:
 577              		.size	sys2_execute, .-sys2_execute
 578              		.section	.rodata.sys3_execute.cst4,"aM",%progbits,4
 579              		.align	2
 580              	.LC2:
 581 0000 00000000 		.word	__stack_chk_guard
 582              		.section	.text.sys3_execute,"ax",%progbits
 583              		.align	1
 584              		.p2align 4,,15
 585              		.syntax unified
 586              		.thumb
 587              		.thumb_func
 588              		.fpu fpv4-sp-d16
 589              		.type	sys3_execute, %function
 590              	sys3_execute:
 591              	.LFB222:
 592              		.loc 1 137 32 is_stmt 1 view -0
 593              		.cfi_startproc
 594              		@ args = 0, pretend = 0, frame = 8
 595              		@ frame_needed = 0, uses_anonymous_args = 0
 596 0000 30B5     		push	{r4, r5, lr}
 597              		.cfi_def_cfa_offset 12
 598              		.cfi_offset 4, -12
 599              		.cfi_offset 5, -8
 600              		.cfi_offset 14, -4
 601 0002 564B     		ldr	r3, .L30
 602 0004 83B0     		sub	sp, sp, #12
 603              		.cfi_def_cfa_offset 24
 604              		.loc 1 137 32 is_stmt 0 view .LVU107
 605 0006 1B68     		ldr	r3, [r3]
 606 0008 0193     		str	r3, [sp, #4]
 607 000a 4FF00003 		mov	r3,#0
 608              		.loc 1 138 3 is_stmt 1 view .LVU108
 609              		.loc 1 140 3 view .LVU109
 610              	.LBB400:
 611              	.LBI400:
 612              		.loc 2 346 20 view .LVU110
 613              	.LBB401:
 614              		.loc 2 348 3 view .LVU111
 615              	.LBB402:
 616              	.LBI402:
 617              		.loc 3 444 20 view .LVU112
 618              	.LBE402:
 619              	.LBE401:
 620              	.LBE400:
 621              		.loc 3 447 3 view .LVU113
 622              	.LVL26:
 623              	.LBB407:
 624              	.LBB406:
 625              	.LBB405:
 626              	.LBB403:
 627              	.LBI403:
ARM GAS  /tmp/ccjZydPD.s 			page 12


 628              		.loc 4 544 57 view .LVU114
 629              	.LBB404:
 630              		.loc 4 546 3 view .LVU115
 631 000e 2023     		movs	r3, #32
 632              		.syntax unified
 633              	@ 546 ".//ChibiOS//os/ext/CMSIS/include/core_cmFunc.h" 1
 634 0010 83F31188 		MSR basepri, r3
 635              	@ 0 "" 2
 636              	.LVL27:
 637              		.loc 4 546 3 is_stmt 0 view .LVU116
 638              		.thumb
 639              		.syntax unified
 640              	.LBE404:
 641              	.LBE403:
 642              	.LBE405:
 643              		.loc 2 349 3 is_stmt 1 view .LVU117
 644 0014 FFF7FEFF 		bl	_stats_start_measure_crit_thd
 645              	.LVL28:
 646              		.loc 2 350 3 view .LVU118
 647 0018 FFF7FEFF 		bl	_dbg_check_lock
 648              	.LVL29:
 649              	.LBE406:
 650              	.LBE407:
 651              		.loc 1 141 3 view .LVU119
 652              		.loc 1 141 12 is_stmt 0 view .LVU120
 653 001c 0120     		movs	r0, #1
 654 001e FFF7FEFF 		bl	chSysIntegrityCheckI
 655              	.LVL30:
 656              	.LBB408:
 657              	.LBB409:
 658              		.loc 2 367 3 view .LVU121
 659 0022 4F4D     		ldr	r5, .L30+4
 660              	.LBE409:
 661              	.LBE408:
 662              		.loc 1 141 12 view .LVU122
 663 0024 0446     		mov	r4, r0
 664              	.LVL31:
 665              		.loc 1 142 3 is_stmt 1 view .LVU123
 666              	.LBB417:
 667              	.LBI408:
 668              		.loc 2 358 20 view .LVU124
 669              	.LBB414:
 670              		.loc 2 360 3 view .LVU125
 671 0026 FFF7FEFF 		bl	_dbg_check_unlock
 672              	.LVL32:
 673              		.loc 2 361 3 view .LVU126
 674 002a FFF7FEFF 		bl	_stats_stop_measure_crit_thd
 675              	.LVL33:
 676              		.loc 2 367 3 view .LVU127
 677              		.loc 2 367 3 view .LVU128
 678              		.loc 2 367 3 view .LVU129
 679 002e 2B68     		ldr	r3, [r5]
 680 0030 AB42     		cmp	r3, r5
 681 0032 04D0     		beq	.L15
 682 0034 AA69     		ldr	r2, [r5, #24]
 683 0036 9B68     		ldr	r3, [r3, #8]
 684 0038 9268     		ldr	r2, [r2, #8]
ARM GAS  /tmp/ccjZydPD.s 			page 13


 685 003a 9A42     		cmp	r2, r3
 686 003c 10D3     		bcc	.L26
 687              	.L15:
 688              		.loc 2 367 3 view .LVU130
 689              		.loc 2 371 3 view .LVU131
 690              	.LBB410:
 691              	.LBI410:
 692              		.loc 3 458 20 view .LVU132
 693              	.LBE410:
 694              	.LBE414:
 695              	.LBE417:
 696              		.loc 3 461 3 view .LVU133
 697              	.LVL34:
 698              	.LBB418:
 699              	.LBB415:
 700              	.LBB413:
 701              	.LBB411:
 702              	.LBI411:
 703              		.loc 4 544 57 view .LVU134
 704              	.LBB412:
 705              		.loc 4 546 3 view .LVU135
 706 003e 0023     		movs	r3, #0
 707              		.syntax unified
 708              	@ 546 ".//ChibiOS//os/ext/CMSIS/include/core_cmFunc.h" 1
 709 0040 83F31188 		MSR basepri, r3
 710              	@ 0 "" 2
 711              	.LVL35:
 712              		.loc 4 546 3 is_stmt 0 view .LVU136
 713              		.thumb
 714              		.syntax unified
 715              	.LBE412:
 716              	.LBE411:
 717              	.LBE413:
 718              	.LBE415:
 719              	.LBE418:
 720              		.loc 1 143 3 is_stmt 1 view .LVU137
 721 0044 84F00101 		eor	r1, r4, #1
 722 0048 C9B2     		uxtb	r1, r1
 723 004a 0120     		movs	r0, #1
 724 004c FFF7FEFF 		bl	_test_assert
 725              	.LVL36:
 726 0050 50B1     		cbz	r0, .L27
 727              	.LVL37:
 728              	.L14:
 729              		.loc 1 159 1 is_stmt 0 view .LVU138
 730 0052 424B     		ldr	r3, .L30
 731 0054 1A68     		ldr	r2, [r3]
 732 0056 019B     		ldr	r3, [sp, #4]
 733 0058 5A40     		eors	r2, r3, r2
 734 005a 7CD1     		bne	.L25
 735 005c 03B0     		add	sp, sp, #12
 736              		.cfi_remember_state
 737              		.cfi_def_cfa_offset 12
 738              		@ sp needed
 739 005e 30BD     		pop	{r4, r5, pc}
 740              	.LVL38:
 741              	.L26:
ARM GAS  /tmp/ccjZydPD.s 			page 14


 742              		.cfi_restore_state
 743              	.LBB419:
 744              	.LBB416:
 745              		.loc 2 367 3 is_stmt 1 view .LVU139
 746 0060 4048     		ldr	r0, .L30+8
 747 0062 FFF7FEFF 		bl	chSysHalt
 748              	.LVL39:
 749 0066 EAE7     		b	.L15
 750              	.L27:
 751              	.LBE416:
 752              	.LBE419:
 753              		.loc 1 143 61 view .LVU140
 754              		.loc 1 145 3 view .LVU141
 755              	.LBB420:
 756              	.LBI420:
 757              		.loc 2 346 20 view .LVU142
 758              	.LBB421:
 759              		.loc 2 348 3 view .LVU143
 760              	.LBB422:
 761              	.LBI422:
 762              		.loc 3 444 20 view .LVU144
 763              	.LBE422:
 764              	.LBE421:
 765              	.LBE420:
 766              		.loc 3 447 3 view .LVU145
 767              	.LVL40:
 768              	.LBB427:
 769              	.LBB426:
 770              	.LBB425:
 771              	.LBB423:
 772              	.LBI423:
 773              		.loc 4 544 57 view .LVU146
 774              	.LBB424:
 775              		.loc 4 546 3 view .LVU147
 776 0068 2023     		movs	r3, #32
 777              		.syntax unified
 778              	@ 546 ".//ChibiOS//os/ext/CMSIS/include/core_cmFunc.h" 1
 779 006a 83F31188 		MSR basepri, r3
 780              	@ 0 "" 2
 781              	.LVL41:
 782              		.loc 4 546 3 is_stmt 0 view .LVU148
 783              		.thumb
 784              		.syntax unified
 785              	.LBE424:
 786              	.LBE423:
 787              	.LBE425:
 788              		.loc 2 349 3 is_stmt 1 view .LVU149
 789 006e FFF7FEFF 		bl	_stats_start_measure_crit_thd
 790              	.LVL42:
 791              		.loc 2 350 3 view .LVU150
 792 0072 FFF7FEFF 		bl	_dbg_check_lock
 793              	.LVL43:
 794              	.LBE426:
 795              	.LBE427:
 796              		.loc 1 146 3 view .LVU151
 797              		.loc 1 146 12 is_stmt 0 view .LVU152
 798 0076 0220     		movs	r0, #2
ARM GAS  /tmp/ccjZydPD.s 			page 15


 799 0078 FFF7FEFF 		bl	chSysIntegrityCheckI
 800              	.LVL44:
 801 007c 0446     		mov	r4, r0
 802              	.LVL45:
 803              		.loc 1 147 3 is_stmt 1 view .LVU153
 804              	.LBB428:
 805              	.LBI428:
 806              		.loc 2 358 20 view .LVU154
 807              	.LBB429:
 808              		.loc 2 360 3 view .LVU155
 809 007e FFF7FEFF 		bl	_dbg_check_unlock
 810              	.LVL46:
 811              		.loc 2 361 3 view .LVU156
 812 0082 FFF7FEFF 		bl	_stats_stop_measure_crit_thd
 813              	.LVL47:
 814              		.loc 2 367 3 view .LVU157
 815              		.loc 2 367 3 view .LVU158
 816              		.loc 2 367 3 view .LVU159
 817 0086 2B68     		ldr	r3, [r5]
 818 0088 AB42     		cmp	r3, r5
 819 008a 04D0     		beq	.L18
 820 008c AA69     		ldr	r2, [r5, #24]
 821 008e 9B68     		ldr	r3, [r3, #8]
 822 0090 9268     		ldr	r2, [r2, #8]
 823 0092 9A42     		cmp	r2, r3
 824 0094 57D3     		bcc	.L28
 825              	.L18:
 826              		.loc 2 367 3 view .LVU160
 827              		.loc 2 371 3 view .LVU161
 828              	.LBB430:
 829              	.LBI430:
 830              		.loc 3 458 20 view .LVU162
 831              	.LBE430:
 832              	.LBE429:
 833              	.LBE428:
 834              		.loc 3 461 3 view .LVU163
 835              	.LVL48:
 836              	.LBB436:
 837              	.LBB434:
 838              	.LBB433:
 839              	.LBB431:
 840              	.LBI431:
 841              		.loc 4 544 57 view .LVU164
 842              	.LBB432:
 843              		.loc 4 546 3 view .LVU165
 844 0096 0023     		movs	r3, #0
 845              		.syntax unified
 846              	@ 546 ".//ChibiOS//os/ext/CMSIS/include/core_cmFunc.h" 1
 847 0098 83F31188 		MSR basepri, r3
 848              	@ 0 "" 2
 849              	.LVL49:
 850              		.loc 4 546 3 is_stmt 0 view .LVU166
 851              		.thumb
 852              		.syntax unified
 853              	.LBE432:
 854              	.LBE431:
 855              	.LBE433:
ARM GAS  /tmp/ccjZydPD.s 			page 16


 856              	.LBE434:
 857              	.LBE436:
 858              		.loc 1 148 3 is_stmt 1 view .LVU167
 859 009c 84F00101 		eor	r1, r4, #1
 860 00a0 C9B2     		uxtb	r1, r1
 861 00a2 0220     		movs	r0, #2
 862 00a4 FFF7FEFF 		bl	_test_assert
 863              	.LVL50:
 864 00a8 0028     		cmp	r0, #0
 865 00aa D2D1     		bne	.L14
 866              	.LBB437:
 867              	.LBI437:
 868              		.loc 1 137 13 view .LVU168
 869              	.LBB438:
 870              		.loc 1 148 70 view .LVU169
 871              		.loc 1 150 3 view .LVU170
 872              	.LBB439:
 873              	.LBI439:
 874              		.loc 2 346 20 view .LVU171
 875              	.LBB440:
 876              		.loc 2 348 3 view .LVU172
 877              	.LBB441:
 878              	.LBI441:
 879              		.loc 3 444 20 view .LVU173
 880              	.LBE441:
 881              	.LBE440:
 882              	.LBE439:
 883              	.LBE438:
 884              	.LBE437:
 885              		.loc 3 447 3 view .LVU174
 886              	.LVL51:
 887              	.LBB479:
 888              	.LBB473:
 889              	.LBB446:
 890              	.LBB445:
 891              	.LBB444:
 892              	.LBB442:
 893              	.LBI442:
 894              		.loc 4 544 57 view .LVU175
 895              	.LBB443:
 896              		.loc 4 546 3 view .LVU176
 897 00ac 2023     		movs	r3, #32
 898              		.syntax unified
 899              	@ 546 ".//ChibiOS//os/ext/CMSIS/include/core_cmFunc.h" 1
 900 00ae 83F31188 		MSR basepri, r3
 901              	@ 0 "" 2
 902              	.LVL52:
 903              		.loc 4 546 3 is_stmt 0 view .LVU177
 904              		.thumb
 905              		.syntax unified
 906              	.LBE443:
 907              	.LBE442:
 908              	.LBE444:
 909              		.loc 2 349 3 is_stmt 1 view .LVU178
 910 00b2 FFF7FEFF 		bl	_stats_start_measure_crit_thd
 911              	.LVL53:
 912              		.loc 2 350 3 view .LVU179
ARM GAS  /tmp/ccjZydPD.s 			page 17


 913 00b6 FFF7FEFF 		bl	_dbg_check_lock
 914              	.LVL54:
 915              	.LBE445:
 916              	.LBE446:
 917              		.loc 1 151 3 view .LVU180
 918              		.loc 1 151 12 is_stmt 0 view .LVU181
 919 00ba 0420     		movs	r0, #4
 920 00bc FFF7FEFF 		bl	chSysIntegrityCheckI
 921              	.LVL55:
 922 00c0 0446     		mov	r4, r0
 923              	.LVL56:
 924              		.loc 1 152 3 is_stmt 1 view .LVU182
 925              	.LBB447:
 926              	.LBI447:
 927              		.loc 2 358 20 view .LVU183
 928              	.LBB448:
 929              		.loc 2 360 3 view .LVU184
 930 00c2 FFF7FEFF 		bl	_dbg_check_unlock
 931              	.LVL57:
 932              		.loc 2 361 3 view .LVU185
 933 00c6 FFF7FEFF 		bl	_stats_stop_measure_crit_thd
 934              	.LVL58:
 935              		.loc 2 367 3 view .LVU186
 936              		.loc 2 367 3 view .LVU187
 937              		.loc 2 367 3 view .LVU188
 938 00ca 2B68     		ldr	r3, [r5]
 939 00cc AB42     		cmp	r3, r5
 940 00ce 07D0     		beq	.L20
 941 00d0 AA69     		ldr	r2, [r5, #24]
 942 00d2 9B68     		ldr	r3, [r3, #8]
 943 00d4 9268     		ldr	r2, [r2, #8]
 944 00d6 9A42     		cmp	r2, r3
 945 00d8 02D2     		bcs	.L20
 946              		.loc 2 367 3 view .LVU189
 947 00da 2248     		ldr	r0, .L30+8
 948 00dc FFF7FEFF 		bl	chSysHalt
 949              	.LVL59:
 950              	.L20:
 951              		.loc 2 367 3 view .LVU190
 952              		.loc 2 371 3 view .LVU191
 953              	.LBB449:
 954              	.LBI449:
 955              		.loc 3 458 20 view .LVU192
 956              	.LBE449:
 957              	.LBE448:
 958              	.LBE447:
 959              	.LBE473:
 960              	.LBE479:
 961              		.loc 3 461 3 view .LVU193
 962              	.LBB480:
 963              	.LBB474:
 964              	.LBB454:
 965              	.LBB453:
 966              	.LBB452:
 967              	.LBB450:
 968              	.LBI450:
 969              		.loc 4 544 57 view .LVU194
ARM GAS  /tmp/ccjZydPD.s 			page 18


 970              	.LBB451:
 971              		.loc 4 546 3 view .LVU195
 972 00e0 0023     		movs	r3, #0
 973              		.syntax unified
 974              	@ 546 ".//ChibiOS//os/ext/CMSIS/include/core_cmFunc.h" 1
 975 00e2 83F31188 		MSR basepri, r3
 976              	@ 0 "" 2
 977              	.LVL60:
 978              		.loc 4 546 3 is_stmt 0 view .LVU196
 979              		.thumb
 980              		.syntax unified
 981              	.LBE451:
 982              	.LBE450:
 983              	.LBE452:
 984              	.LBE453:
 985              	.LBE454:
 986              		.loc 1 153 3 is_stmt 1 view .LVU197
 987 00e6 84F00101 		eor	r1, r4, #1
 988 00ea C9B2     		uxtb	r1, r1
 989 00ec 0320     		movs	r0, #3
 990 00ee FFF7FEFF 		bl	_test_assert
 991              	.LVL61:
 992 00f2 0028     		cmp	r0, #0
 993 00f4 ADD1     		bne	.L14
 994              		.loc 1 153 64 view .LVU198
 995              		.loc 1 155 3 view .LVU199
 996              	.LBB455:
 997              	.LBI455:
 998              		.loc 2 346 20 view .LVU200
 999              	.LBB456:
 1000              		.loc 2 348 3 view .LVU201
 1001              	.LBB457:
 1002              	.LBI457:
 1003              		.loc 3 444 20 view .LVU202
 1004              	.LBE457:
 1005              	.LBE456:
 1006              	.LBE455:
 1007              	.LBE474:
 1008              	.LBE480:
 1009              		.loc 3 447 3 view .LVU203
 1010              	.LVL62:
 1011              	.LBB481:
 1012              	.LBB475:
 1013              	.LBB462:
 1014              	.LBB461:
 1015              	.LBB460:
 1016              	.LBB458:
 1017              	.LBI458:
 1018              		.loc 4 544 57 view .LVU204
 1019              	.LBB459:
 1020              		.loc 4 546 3 view .LVU205
 1021 00f6 2023     		movs	r3, #32
 1022              		.syntax unified
 1023              	@ 546 ".//ChibiOS//os/ext/CMSIS/include/core_cmFunc.h" 1
 1024 00f8 83F31188 		MSR basepri, r3
 1025              	@ 0 "" 2
 1026              	.LVL63:
ARM GAS  /tmp/ccjZydPD.s 			page 19


 1027              		.loc 4 546 3 is_stmt 0 view .LVU206
 1028              		.thumb
 1029              		.syntax unified
 1030              	.LBE459:
 1031              	.LBE458:
 1032              	.LBE460:
 1033              		.loc 2 349 3 is_stmt 1 view .LVU207
 1034 00fc FFF7FEFF 		bl	_stats_start_measure_crit_thd
 1035              	.LVL64:
 1036              		.loc 2 350 3 view .LVU208
 1037 0100 FFF7FEFF 		bl	_dbg_check_lock
 1038              	.LVL65:
 1039              	.LBE461:
 1040              	.LBE462:
 1041              		.loc 1 156 3 view .LVU209
 1042              		.loc 1 156 12 is_stmt 0 view .LVU210
 1043 0104 0820     		movs	r0, #8
 1044 0106 FFF7FEFF 		bl	chSysIntegrityCheckI
 1045              	.LVL66:
 1046 010a 0446     		mov	r4, r0
 1047              	.LVL67:
 1048              		.loc 1 157 3 is_stmt 1 view .LVU211
 1049              	.LBB463:
 1050              	.LBI463:
 1051              		.loc 2 358 20 view .LVU212
 1052              	.LBB464:
 1053              		.loc 2 360 3 view .LVU213
 1054 010c FFF7FEFF 		bl	_dbg_check_unlock
 1055              	.LVL68:
 1056              		.loc 2 361 3 view .LVU214
 1057 0110 FFF7FEFF 		bl	_stats_stop_measure_crit_thd
 1058              	.LVL69:
 1059              		.loc 2 367 3 view .LVU215
 1060              		.loc 2 367 3 view .LVU216
 1061              		.loc 2 367 3 view .LVU217
 1062 0114 2B68     		ldr	r3, [r5]
 1063 0116 AB42     		cmp	r3, r5
 1064 0118 04D0     		beq	.L21
 1065 011a AA69     		ldr	r2, [r5, #24]
 1066 011c 9B68     		ldr	r3, [r3, #8]
 1067 011e 9268     		ldr	r2, [r2, #8]
 1068 0120 9A42     		cmp	r2, r3
 1069 0122 14D3     		bcc	.L29
 1070              	.L21:
 1071              		.loc 2 367 3 view .LVU218
 1072              		.loc 2 371 3 view .LVU219
 1073              	.LBB465:
 1074              	.LBI465:
 1075              		.loc 3 458 20 view .LVU220
 1076              	.LBE465:
 1077              	.LBE464:
 1078              	.LBE463:
 1079              	.LBE475:
 1080              	.LBE481:
 1081              		.loc 3 461 3 view .LVU221
 1082              	.LVL70:
 1083              	.LBB482:
ARM GAS  /tmp/ccjZydPD.s 			page 20


 1084              	.LBB476:
 1085              	.LBB471:
 1086              	.LBB469:
 1087              	.LBB468:
 1088              	.LBB466:
 1089              	.LBI466:
 1090              		.loc 4 544 57 view .LVU222
 1091              	.LBB467:
 1092              		.loc 4 546 3 view .LVU223
 1093 0124 0023     		movs	r3, #0
 1094              		.syntax unified
 1095              	@ 546 ".//ChibiOS//os/ext/CMSIS/include/core_cmFunc.h" 1
 1096 0126 83F31188 		MSR basepri, r3
 1097              	@ 0 "" 2
 1098              	.LVL71:
 1099              		.loc 4 546 3 is_stmt 0 view .LVU224
 1100              		.thumb
 1101              		.syntax unified
 1102              	.LBE467:
 1103              	.LBE466:
 1104              	.LBE468:
 1105              	.LBE469:
 1106              	.LBE471:
 1107              		.loc 1 158 3 is_stmt 1 view .LVU225
 1108 012a 0C4B     		ldr	r3, .L30
 1109 012c 1A68     		ldr	r2, [r3]
 1110 012e 019B     		ldr	r3, [sp, #4]
 1111 0130 5A40     		eors	r2, r3, r2
 1112 0132 10D1     		bne	.L25
 1113 0134 84F00101 		eor	r1, r4, #1
 1114 0138 C9B2     		uxtb	r1, r1
 1115 013a 0420     		movs	r0, #4
 1116              	.LBE476:
 1117              	.LBE482:
 1118              		.loc 1 159 1 is_stmt 0 view .LVU226
 1119 013c 03B0     		add	sp, sp, #12
 1120              		.cfi_remember_state
 1121              		.cfi_def_cfa_offset 12
 1122              		@ sp needed
 1123 013e BDE83040 		pop	{r4, r5, lr}
 1124              		.cfi_restore 14
 1125              		.cfi_restore 5
 1126              		.cfi_restore 4
 1127              		.cfi_def_cfa_offset 0
 1128              	.LVL72:
 1129              	.LBB483:
 1130              	.LBB477:
 1131              		.loc 1 158 3 view .LVU227
 1132 0142 FFF7FEBF 		b	_test_assert
 1133              	.LVL73:
 1134              	.L28:
 1135              		.cfi_restore_state
 1136              		.loc 1 158 3 view .LVU228
 1137              	.LBE477:
 1138              	.LBE483:
 1139              	.LBB484:
 1140              	.LBB435:
ARM GAS  /tmp/ccjZydPD.s 			page 21


 1141              		.loc 2 367 3 is_stmt 1 view .LVU229
 1142 0146 0748     		ldr	r0, .L30+8
 1143 0148 FFF7FEFF 		bl	chSysHalt
 1144              	.LVL74:
 1145 014c A3E7     		b	.L18
 1146              	.LVL75:
 1147              	.L29:
 1148              		.loc 2 367 3 is_stmt 0 view .LVU230
 1149              	.LBE435:
 1150              	.LBE484:
 1151              	.LBB485:
 1152              	.LBB478:
 1153              	.LBB472:
 1154              	.LBB470:
 1155              		.loc 2 367 3 is_stmt 1 view .LVU231
 1156 014e 0548     		ldr	r0, .L30+8
 1157 0150 FFF7FEFF 		bl	chSysHalt
 1158              	.LVL76:
 1159 0154 E6E7     		b	.L21
 1160              	.LVL77:
 1161              	.L25:
 1162              		.loc 2 367 3 is_stmt 0 view .LVU232
 1163              	.LBE470:
 1164              	.LBE472:
 1165              	.LBE478:
 1166              	.LBE485:
 1167              		.loc 1 159 1 view .LVU233
 1168 0156 FFF7FEFF 		bl	__stack_chk_fail
 1169              	.LVL78:
 1170              	.L31:
 1171 015a 00BF     		.align	2
 1172              	.L30:
 1173 015c 00000000 		.word	.LC2
 1174 0160 00000000 		.word	ch
 1175 0164 00000000 		.word	.LANCHOR0
 1176              		.cfi_endproc
 1177              	.LFE222:
 1178              		.size	sys3_execute, .-sys3_execute
 1179              		.section	.rodata.sys1_execute.cst4,"aM",%progbits,4
 1180              		.align	2
 1181              	.LC3:
 1182 0000 00000000 		.word	__stack_chk_guard
 1183              		.section	.text.sys1_execute,"ax",%progbits
 1184              		.align	1
 1185              		.p2align 4,,15
 1186              		.syntax unified
 1187              		.thumb
 1188              		.thumb_func
 1189              		.fpu fpv4-sp-d16
 1190              		.type	sys1_execute, %function
 1191              	sys1_execute:
 1192              	.LFB220:
 1193              		.loc 1 68 32 is_stmt 1 view -0
 1194              		.cfi_startproc
 1195              		@ args = 0, pretend = 0, frame = 32
 1196              		@ frame_needed = 0, uses_anonymous_args = 0
 1197 0000 30B5     		push	{r4, r5, lr}
ARM GAS  /tmp/ccjZydPD.s 			page 22


 1198              		.cfi_def_cfa_offset 12
 1199              		.cfi_offset 4, -12
 1200              		.cfi_offset 5, -8
 1201              		.cfi_offset 14, -4
 1202 0002 794B     		ldr	r3, .L66
 1203 0004 89B0     		sub	sp, sp, #36
 1204              		.cfi_def_cfa_offset 48
 1205              		.loc 1 68 32 is_stmt 0 view .LVU235
 1206 0006 1B68     		ldr	r3, [r3]
 1207 0008 0793     		str	r3, [sp, #28]
 1208 000a 4FF00003 		mov	r3,#0
 1209              		.loc 1 69 3 is_stmt 1 view .LVU236
 1210              		.loc 1 70 3 view .LVU237
 1211              		.loc 1 73 3 view .LVU238
 1212              		.loc 1 73 9 is_stmt 0 view .LVU239
 1213 000e FFF7FEFF 		bl	chSysGetStatusAndLockX
 1214              	.LVL79:
 1215              		.loc 1 74 3 is_stmt 1 view .LVU240
 1216 0012 FFF7FEFF 		bl	chSysRestoreStatusX
 1217              	.LVL80:
 1218              		.loc 1 77 3 view .LVU241
 1219              	.LBB600:
 1220              	.LBI600:
 1221              		.loc 2 346 20 view .LVU242
 1222              	.LBB601:
 1223              		.loc 2 348 3 view .LVU243
 1224              	.LBB602:
 1225              	.LBI602:
 1226              		.loc 3 444 20 view .LVU244
 1227              	.LBE602:
 1228              	.LBE601:
 1229              	.LBE600:
 1230              		.loc 3 447 3 view .LVU245
 1231              	.LBB608:
 1232              	.LBB606:
 1233              	.LBB605:
 1234              	.LBB603:
 1235              	.LBI603:
 1236              		.loc 4 544 57 view .LVU246
 1237              	.LBB604:
 1238              		.loc 4 546 3 view .LVU247
 1239 0016 2023     		movs	r3, #32
 1240              		.syntax unified
 1241              	@ 546 ".//ChibiOS//os/ext/CMSIS/include/core_cmFunc.h" 1
 1242 0018 83F31188 		MSR basepri, r3
 1243              	@ 0 "" 2
 1244              	.LVL81:
 1245              		.loc 4 546 3 is_stmt 0 view .LVU248
 1246              		.thumb
 1247              		.syntax unified
 1248              	.LBE604:
 1249              	.LBE603:
 1250              	.LBE605:
 1251              		.loc 2 349 3 is_stmt 1 view .LVU249
 1252              	.LBE606:
 1253              	.LBE608:
 1254              	.LBB609:
ARM GAS  /tmp/ccjZydPD.s 			page 23


 1255              	.LBB610:
 1256              		.loc 2 367 3 is_stmt 0 view .LVU250
 1257 001c 734C     		ldr	r4, .L66+4
 1258              	.LBE610:
 1259              	.LBE609:
 1260              	.LBB623:
 1261              	.LBB607:
 1262              		.loc 2 349 3 view .LVU251
 1263 001e FFF7FEFF 		bl	_stats_start_measure_crit_thd
 1264              	.LVL82:
 1265              		.loc 2 350 3 is_stmt 1 view .LVU252
 1266 0022 FFF7FEFF 		bl	_dbg_check_lock
 1267              	.LVL83:
 1268              	.LBE607:
 1269              	.LBE623:
 1270              		.loc 1 78 3 view .LVU253
 1271              		.loc 1 78 9 is_stmt 0 view .LVU254
 1272 0026 FFF7FEFF 		bl	chSysGetStatusAndLockX
 1273              	.LVL84:
 1274              		.loc 1 79 3 is_stmt 1 view .LVU255
 1275 002a FFF7FEFF 		bl	chSysRestoreStatusX
 1276              	.LVL85:
 1277              		.loc 1 80 3 view .LVU256
 1278              	.LBB624:
 1279              	.LBI609:
 1280              		.loc 2 358 20 view .LVU257
 1281              	.LBB619:
 1282              		.loc 2 360 3 view .LVU258
 1283 002e FFF7FEFF 		bl	_dbg_check_unlock
 1284              	.LVL86:
 1285              		.loc 2 361 3 view .LVU259
 1286 0032 FFF7FEFF 		bl	_stats_stop_measure_crit_thd
 1287              	.LVL87:
 1288              		.loc 2 367 3 view .LVU260
 1289              		.loc 2 367 3 view .LVU261
 1290              		.loc 2 367 3 view .LVU262
 1291 0036 2368     		ldr	r3, [r4]
 1292 0038 A342     		cmp	r3, r4
 1293 003a 05D0     		beq	.L33
 1294 003c A269     		ldr	r2, [r4, #24]
 1295 003e 9B68     		ldr	r3, [r3, #8]
 1296 0040 9268     		ldr	r2, [r2, #8]
 1297 0042 9A42     		cmp	r2, r3
 1298 0044 C0F08780 		bcc	.L55
 1299              	.L33:
 1300              		.loc 2 367 3 view .LVU263
 1301              		.loc 2 371 3 view .LVU264
 1302              	.LBB611:
 1303              	.LBI611:
 1304              		.loc 3 458 20 view .LVU265
 1305              	.LBE611:
 1306              	.LBE619:
 1307              	.LBE624:
 1308              		.loc 3 461 3 view .LVU266
 1309              	.LVL88:
 1310              	.LBB625:
 1311              	.LBB620:
ARM GAS  /tmp/ccjZydPD.s 			page 24


 1312              	.LBB616:
 1313              	.LBB612:
 1314              	.LBI612:
 1315              		.loc 4 544 57 view .LVU267
 1316              	.LBB613:
 1317              		.loc 4 546 3 view .LVU268
 1318 0048 0023     		movs	r3, #0
 1319              		.syntax unified
 1320              	@ 546 ".//ChibiOS//os/ext/CMSIS/include/core_cmFunc.h" 1
 1321 004a 83F31188 		MSR basepri, r3
 1322              	@ 0 "" 2
 1323              	.LVL89:
 1324              		.loc 4 546 3 is_stmt 0 view .LVU269
 1325              		.thumb
 1326              		.syntax unified
 1327              	.LBE613:
 1328              	.LBE612:
 1329              	.LBE616:
 1330              	.LBE620:
 1331              	.LBE625:
 1332              		.loc 1 83 3 is_stmt 1 view .LVU270
 1333              	.LBB626:
 1334              	.LBI626:
 1335              		.loc 2 420 20 view .LVU271
 1336              	.LBB627:
 1337              		.loc 2 422 3 view .LVU272
 1338              	.LBB628:
 1339              	.LBI628:
 1340              		.loc 3 398 24 view .LVU273
 1341              	.LBB629:
 1342              		.loc 3 399 3 view .LVU274
 1343              		.loc 3 402 3 view .LVU275
 1344              	.LBB630:
 1345              	.LBI630:
 1346              		.loc 4 529 61 view .LVU276
 1347              	.LBB631:
 1348              		.loc 4 531 3 view .LVU277
 1349              		.loc 4 533 3 view .LVU278
 1350              		.syntax unified
 1351              	@ 533 ".//ChibiOS//os/ext/CMSIS/include/core_cmFunc.h" 1
 1352 004e EFF31283 		MRS r3, basepri_max
 1353              	@ 0 "" 2
 1354              	.LVL90:
 1355              		.loc 4 534 3 view .LVU279
 1356              		.loc 4 534 3 is_stmt 0 view .LVU280
 1357              		.thumb
 1358              		.syntax unified
 1359              	.LBE631:
 1360              	.LBE630:
 1361              		.loc 3 406 3 is_stmt 1 view .LVU281
 1362              		.loc 3 406 3 is_stmt 0 view .LVU282
 1363              	.LBE629:
 1364              	.LBE628:
 1365              	.LBE627:
 1366              	.LBE626:
 1367              		.loc 3 421 3 is_stmt 1 view .LVU283
 1368              	.LBB652:
ARM GAS  /tmp/ccjZydPD.s 			page 25


 1369              	.LBB648:
 1370              		.loc 2 422 6 is_stmt 0 view .LVU284
 1371 0052 002B     		cmp	r3, #0
 1372 0054 00F08A80 		beq	.L56
 1373              	.L34:
 1374              		.loc 2 422 6 view .LVU285
 1375              	.LBE648:
 1376              	.LBE652:
 1377              		.loc 1 84 3 is_stmt 1 view .LVU286
 1378              	.LBB653:
 1379              	.LBI653:
 1380              		.loc 2 420 20 view .LVU287
 1381              	.LBB654:
 1382              		.loc 2 422 3 view .LVU288
 1383              	.LBB655:
 1384              	.LBI655:
 1385              		.loc 3 398 24 view .LVU289
 1386              	.LBB656:
 1387              		.loc 3 399 3 view .LVU290
 1388              		.loc 3 402 3 view .LVU291
 1389              	.LBB657:
 1390              	.LBI657:
 1391              		.loc 4 529 61 view .LVU292
 1392              	.LBB658:
 1393              		.loc 4 531 3 view .LVU293
 1394              		.loc 4 533 3 view .LVU294
 1395              		.syntax unified
 1396              	@ 533 ".//ChibiOS//os/ext/CMSIS/include/core_cmFunc.h" 1
 1397 0058 EFF31283 		MRS r3, basepri_max
 1398              	@ 0 "" 2
 1399              	.LVL91:
 1400              		.loc 4 534 3 view .LVU295
 1401              		.loc 4 534 3 is_stmt 0 view .LVU296
 1402              		.thumb
 1403              		.syntax unified
 1404              	.LBE658:
 1405              	.LBE657:
 1406              		.loc 3 406 3 is_stmt 1 view .LVU297
 1407              		.loc 3 406 3 is_stmt 0 view .LVU298
 1408              	.LBE656:
 1409              	.LBE655:
 1410              	.LBE654:
 1411              	.LBE653:
 1412              		.loc 3 421 3 is_stmt 1 view .LVU299
 1413              	.LBB679:
 1414              	.LBB675:
 1415              		.loc 2 422 6 is_stmt 0 view .LVU300
 1416 005c 002B     		cmp	r3, #0
 1417 005e 00F09180 		beq	.L57
 1418              	.LVL92:
 1419              	.L35:
 1420              		.loc 2 422 6 view .LVU301
 1421              	.LBE675:
 1422              	.LBE679:
 1423              		.loc 1 85 3 is_stmt 1 view .LVU302
 1424              	.LBB680:
 1425              	.LBI680:
ARM GAS  /tmp/ccjZydPD.s 			page 26


 1426              		.loc 2 358 20 view .LVU303
 1427              	.LBB681:
 1428              		.loc 2 360 3 view .LVU304
 1429 0062 FFF7FEFF 		bl	_dbg_check_unlock
 1430              	.LVL93:
 1431              		.loc 2 361 3 view .LVU305
 1432 0066 FFF7FEFF 		bl	_stats_stop_measure_crit_thd
 1433              	.LVL94:
 1434              		.loc 2 367 3 view .LVU306
 1435              		.loc 2 367 3 view .LVU307
 1436              		.loc 2 367 3 view .LVU308
 1437 006a 2368     		ldr	r3, [r4]
 1438 006c A342     		cmp	r3, r4
 1439 006e 04D0     		beq	.L36
 1440 0070 A269     		ldr	r2, [r4, #24]
 1441 0072 9B68     		ldr	r3, [r3, #8]
 1442 0074 9268     		ldr	r2, [r2, #8]
 1443 0076 9A42     		cmp	r2, r3
 1444 0078 69D3     		bcc	.L58
 1445              	.L36:
 1446              		.loc 2 367 3 view .LVU309
 1447              		.loc 2 371 3 view .LVU310
 1448              	.LBB682:
 1449              	.LBI682:
 1450              		.loc 3 458 20 view .LVU311
 1451              	.LBE682:
 1452              	.LBE681:
 1453              	.LBE680:
 1454              		.loc 3 461 3 view .LVU312
 1455              	.LVL95:
 1456              	.LBB688:
 1457              	.LBB686:
 1458              	.LBB685:
 1459              	.LBB683:
 1460              	.LBI683:
 1461              		.loc 4 544 57 view .LVU313
 1462              	.LBB684:
 1463              		.loc 4 546 3 view .LVU314
 1464 007a 0023     		movs	r3, #0
 1465              		.syntax unified
 1466              	@ 546 ".//ChibiOS//os/ext/CMSIS/include/core_cmFunc.h" 1
 1467 007c 83F31188 		MSR basepri, r3
 1468              	@ 0 "" 2
 1469              	.LVL96:
 1470              		.loc 4 546 3 is_stmt 0 view .LVU315
 1471              		.thumb
 1472              		.syntax unified
 1473              	.LBE684:
 1474              	.LBE683:
 1475              	.LBE685:
 1476              	.LBE686:
 1477              	.LBE688:
 1478              		.loc 1 88 3 is_stmt 1 view .LVU316
 1479              	.LBB689:
 1480              	.LBI689:
 1481              		.loc 2 346 20 view .LVU317
 1482              	.LBB690:
ARM GAS  /tmp/ccjZydPD.s 			page 27


 1483              		.loc 2 348 3 view .LVU318
 1484              	.LBB691:
 1485              	.LBI691:
 1486              		.loc 3 444 20 view .LVU319
 1487              	.LBE691:
 1488              	.LBE690:
 1489              	.LBE689:
 1490              		.loc 3 447 3 view .LVU320
 1491              	.LBB696:
 1492              	.LBB695:
 1493              	.LBB694:
 1494              	.LBB692:
 1495              	.LBI692:
 1496              		.loc 4 544 57 view .LVU321
 1497              	.LBB693:
 1498              		.loc 4 546 3 view .LVU322
 1499 0080 2023     		movs	r3, #32
 1500              		.syntax unified
 1501              	@ 546 ".//ChibiOS//os/ext/CMSIS/include/core_cmFunc.h" 1
 1502 0082 83F31188 		MSR basepri, r3
 1503              	@ 0 "" 2
 1504              	.LVL97:
 1505              		.loc 4 546 3 is_stmt 0 view .LVU323
 1506              		.thumb
 1507              		.syntax unified
 1508              	.LBE693:
 1509              	.LBE692:
 1510              	.LBE694:
 1511              		.loc 2 349 3 is_stmt 1 view .LVU324
 1512 0086 FFF7FEFF 		bl	_stats_start_measure_crit_thd
 1513              	.LVL98:
 1514              		.loc 2 350 3 view .LVU325
 1515 008a FFF7FEFF 		bl	_dbg_check_lock
 1516              	.LVL99:
 1517              	.LBE695:
 1518              	.LBE696:
 1519              		.loc 1 89 3 view .LVU326
 1520              	.LBB697:
 1521              	.LBI697:
 1522              		.loc 2 434 20 view .LVU327
 1523              	.LBB698:
 1524              		.loc 2 436 3 view .LVU328
 1525              	.LBB699:
 1526              	.LBI699:
 1527              		.loc 3 398 24 view .LVU329
 1528              	.LBB700:
 1529              		.loc 3 399 3 view .LVU330
 1530              		.loc 3 402 3 view .LVU331
 1531              	.LBB701:
 1532              	.LBI701:
 1533              		.loc 4 529 61 view .LVU332
 1534              	.LBB702:
 1535              		.loc 4 531 3 view .LVU333
 1536              		.loc 4 533 3 view .LVU334
 1537              		.syntax unified
 1538              	@ 533 ".//ChibiOS//os/ext/CMSIS/include/core_cmFunc.h" 1
 1539 008e EFF31283 		MRS r3, basepri_max
ARM GAS  /tmp/ccjZydPD.s 			page 28


 1540              	@ 0 "" 2
 1541              	.LVL100:
 1542              		.loc 4 534 3 view .LVU335
 1543              		.loc 4 534 3 is_stmt 0 view .LVU336
 1544              		.thumb
 1545              		.syntax unified
 1546              	.LBE702:
 1547              	.LBE701:
 1548              		.loc 3 406 3 is_stmt 1 view .LVU337
 1549              		.loc 3 406 3 is_stmt 0 view .LVU338
 1550              	.LBE700:
 1551              	.LBE699:
 1552              	.LBE698:
 1553              	.LBE697:
 1554              		.loc 3 421 3 is_stmt 1 view .LVU339
 1555              	.LBB714:
 1556              	.LBB711:
 1557              		.loc 2 436 6 is_stmt 0 view .LVU340
 1558 0092 002B     		cmp	r3, #0
 1559 0094 40F08E80 		bne	.L59
 1560              	.LVL101:
 1561              	.L37:
 1562              		.loc 2 436 6 view .LVU341
 1563              	.LBE711:
 1564              	.LBE714:
 1565              		.loc 1 90 3 is_stmt 1 view .LVU342
 1566              	.LBB715:
 1567              	.LBI715:
 1568              		.loc 2 434 20 view .LVU343
 1569              	.LBB716:
 1570              		.loc 2 436 3 view .LVU344
 1571              	.LBB717:
 1572              	.LBI717:
 1573              		.loc 3 398 24 view .LVU345
 1574              	.LBB718:
 1575              		.loc 3 399 3 view .LVU346
 1576              		.loc 3 402 3 view .LVU347
 1577              	.LBB719:
 1578              	.LBI719:
 1579              		.loc 4 529 61 view .LVU348
 1580              	.LBB720:
 1581              		.loc 4 531 3 view .LVU349
 1582              		.loc 4 533 3 view .LVU350
 1583              		.syntax unified
 1584              	@ 533 ".//ChibiOS//os/ext/CMSIS/include/core_cmFunc.h" 1
 1585 0098 EFF31283 		MRS r3, basepri_max
 1586              	@ 0 "" 2
 1587              	.LVL102:
 1588              		.loc 4 534 3 view .LVU351
 1589              		.loc 4 534 3 is_stmt 0 view .LVU352
 1590              		.thumb
 1591              		.syntax unified
 1592              	.LBE720:
 1593              	.LBE719:
 1594              		.loc 3 406 3 is_stmt 1 view .LVU353
 1595              		.loc 3 406 3 is_stmt 0 view .LVU354
 1596              	.LBE718:
ARM GAS  /tmp/ccjZydPD.s 			page 29


 1597              	.LBE717:
 1598              	.LBE716:
 1599              	.LBE715:
 1600              		.loc 3 421 3 is_stmt 1 view .LVU355
 1601              	.LBB735:
 1602              	.LBB731:
 1603              		.loc 2 436 6 is_stmt 0 view .LVU356
 1604 009c 002B     		cmp	r3, #0
 1605 009e 79D1     		bne	.L60
 1606              	.LVL103:
 1607              	.L39:
 1608              		.loc 2 436 6 view .LVU357
 1609              	.LBE731:
 1610              	.LBE735:
 1611              		.loc 1 93 3 is_stmt 1 view .LVU358
 1612              	.LBB736:
 1613              	.LBI736:
 1614              		.file 5 ".//ChibiOS//os/rt/include/chvt.h"
 1615              		.loc 5 210 20 view .LVU359
 1616              	.LBB737:
 1617              		.loc 5 212 3 view .LVU360
 1618              		.loc 5 212 16 is_stmt 0 view .LVU361
 1619 00a0 0023     		movs	r3, #0
 1620 00a2 0593     		str	r3, [sp, #20]
 1621              	.LBE737:
 1622              	.LBE736:
 1623              		.loc 1 94 3 is_stmt 1 view .LVU362
 1624              	.LVL104:
 1625              	.LBB738:
 1626              	.LBI738:
 1627              		.loc 5 449 20 view .LVU363
 1628              		.loc 5 449 20 is_stmt 0 view .LVU364
 1629              	.LBE738:
 1630              		.loc 5 452 3 is_stmt 1 view .LVU365
 1631              	.LBB763:
 1632              	.LBB739:
 1633              	.LBI739:
 1634              		.loc 2 346 20 view .LVU366
 1635              	.LBB740:
 1636              		.loc 2 348 3 view .LVU367
 1637              	.LBB741:
 1638              	.LBI741:
 1639              		.loc 3 444 20 view .LVU368
 1640              	.LBE741:
 1641              	.LBE740:
 1642              	.LBE739:
 1643              	.LBE763:
 1644              		.loc 3 447 3 view .LVU369
 1645              	.LBB764:
 1646              	.LBB746:
 1647              	.LBB745:
 1648              	.LBB744:
 1649              	.LBB742:
 1650              	.LBI742:
 1651              		.loc 4 544 57 view .LVU370
 1652              	.LBB743:
 1653              		.loc 4 546 3 view .LVU371
ARM GAS  /tmp/ccjZydPD.s 			page 30


 1654 00a4 2023     		movs	r3, #32
 1655              		.syntax unified
 1656              	@ 546 ".//ChibiOS//os/ext/CMSIS/include/core_cmFunc.h" 1
 1657 00a6 83F31188 		MSR basepri, r3
 1658              	@ 0 "" 2
 1659              	.LVL105:
 1660              		.loc 4 546 3 is_stmt 0 view .LVU372
 1661              		.thumb
 1662              		.syntax unified
 1663              	.LBE743:
 1664              	.LBE742:
 1665              	.LBE744:
 1666              		.loc 2 349 3 is_stmt 1 view .LVU373
 1667 00aa FFF7FEFF 		bl	_stats_start_measure_crit_thd
 1668              	.LVL106:
 1669              		.loc 2 350 3 view .LVU374
 1670 00ae FFF7FEFF 		bl	_dbg_check_lock
 1671              	.LVL107:
 1672              	.LBE745:
 1673              	.LBE746:
 1674              	.LBE764:
 1675              		.loc 5 453 3 view .LVU375
 1676              	.LBB765:
 1677              	.LBB747:
 1678              	.LBI747:
 1679              		.loc 5 420 20 view .LVU376
 1680              	.LBB748:
 1681              		.loc 5 423 3 view .LVU377
 1682              	.LBB749:
 1683              	.LBI749:
 1684              		.loc 5 374 20 view .LVU378
 1685              	.LBB750:
 1686              		.loc 5 376 3 view .LVU379
 1687              	.LBB751:
 1688              	.LBI751:
 1689              		.loc 5 337 20 view .LVU380
 1690              	.LBB752:
 1691              		.loc 5 339 3 view .LVU381
 1692 00b2 FFF7FEFF 		bl	chDbgCheckClassI
 1693              	.LVL108:
 1694              		.loc 5 341 3 view .LVU382
 1695              	.LBE752:
 1696              	.LBE751:
 1697              		.loc 5 376 6 is_stmt 0 view .LVU383
 1698 00b6 059B     		ldr	r3, [sp, #20]
 1699              		.loc 5 377 5 view .LVU384
 1700 00b8 02A8     		add	r0, sp, #8
 1701              	.LVL109:
 1702              		.loc 5 376 6 view .LVU385
 1703 00ba 1BB1     		cbz	r3, .L41
 1704              		.loc 5 377 5 is_stmt 1 view .LVU386
 1705 00bc 0190     		str	r0, [sp, #4]
 1706 00be FFF7FEFF 		bl	chVTDoResetI
 1707              	.LVL110:
 1708              		.loc 5 377 5 is_stmt 0 view .LVU387
 1709 00c2 0198     		ldr	r0, [sp, #4]
 1710              	.LVL111:
ARM GAS  /tmp/ccjZydPD.s 			page 31


 1711              	.L41:
 1712              		.loc 5 377 5 view .LVU388
 1713              	.LBE750:
 1714              	.LBE749:
 1715              		.loc 5 424 3 is_stmt 1 view .LVU389
 1716 00c4 4A4A     		ldr	r2, .L66+8
 1717 00c6 0023     		movs	r3, #0
 1718 00c8 0121     		movs	r1, #1
 1719 00ca FFF7FEFF 		bl	chVTDoSetI
 1720              	.LVL112:
 1721              		.loc 5 424 3 is_stmt 0 view .LVU390
 1722              	.LBE748:
 1723              	.LBE747:
 1724              	.LBE765:
 1725              		.loc 5 454 3 is_stmt 1 view .LVU391
 1726              	.LBB766:
 1727              	.LBB753:
 1728              	.LBI753:
 1729              		.loc 2 358 20 view .LVU392
 1730              	.LBB754:
 1731              		.loc 2 360 3 view .LVU393
 1732 00ce FFF7FEFF 		bl	_dbg_check_unlock
 1733              	.LVL113:
 1734              		.loc 2 361 3 view .LVU394
 1735 00d2 FFF7FEFF 		bl	_stats_stop_measure_crit_thd
 1736              	.LVL114:
 1737              		.loc 2 367 3 view .LVU395
 1738              		.loc 2 367 3 view .LVU396
 1739              		.loc 2 367 3 view .LVU397
 1740 00d6 2368     		ldr	r3, [r4]
 1741 00d8 A342     		cmp	r3, r4
 1742 00da 04D0     		beq	.L42
 1743 00dc A269     		ldr	r2, [r4, #24]
 1744 00de 9B68     		ldr	r3, [r3, #8]
 1745 00e0 9268     		ldr	r2, [r2, #8]
 1746 00e2 9A42     		cmp	r2, r3
 1747 00e4 2FD3     		bcc	.L61
 1748              	.L42:
 1749              		.loc 2 367 3 view .LVU398
 1750              		.loc 2 371 3 view .LVU399
 1751              	.LBB755:
 1752              	.LBI755:
 1753              		.loc 3 458 20 view .LVU400
 1754              	.LBE755:
 1755              	.LBE754:
 1756              	.LBE753:
 1757              	.LBE766:
 1758              		.loc 3 461 3 view .LVU401
 1759              	.LVL115:
 1760              	.LBB767:
 1761              	.LBB761:
 1762              	.LBB759:
 1763              	.LBB758:
 1764              	.LBB756:
 1765              	.LBI756:
 1766              		.loc 4 544 57 view .LVU402
 1767              	.LBB757:
ARM GAS  /tmp/ccjZydPD.s 			page 32


 1768              		.loc 4 546 3 view .LVU403
 1769 00e6 0023     		movs	r3, #0
 1770              		.syntax unified
 1771              	@ 546 ".//ChibiOS//os/ext/CMSIS/include/core_cmFunc.h" 1
 1772 00e8 83F31188 		MSR basepri, r3
 1773              	@ 0 "" 2
 1774              	.LVL116:
 1775              		.loc 4 546 3 is_stmt 0 view .LVU404
 1776              		.thumb
 1777              		.syntax unified
 1778              	.LBE757:
 1779              	.LBE756:
 1780              	.LBE758:
 1781              	.LBE759:
 1782              	.LBE761:
 1783              	.LBE767:
 1784              		.loc 1 95 3 is_stmt 1 view .LVU405
 1785 00ec 0A20     		movs	r0, #10
 1786 00ee FFF7FEFF 		bl	chThdSleep
 1787              	.LVL117:
 1788              		.loc 1 97 3 view .LVU406
 1789              	.LBB768:
 1790              	.LBI768:
 1791              		.loc 5 354 20 view .LVU407
 1792              	.LBB769:
 1793              		.loc 5 355 3 view .LVU408
 1794              		.loc 5 357 3 view .LVU409
 1795              	.LBB770:
 1796              	.LBI770:
 1797              		.loc 2 346 20 view .LVU410
 1798              	.LBB771:
 1799              		.loc 2 348 3 view .LVU411
 1800              	.LBB772:
 1801              	.LBI772:
 1802              		.loc 3 444 20 view .LVU412
 1803              	.LBE772:
 1804              	.LBE771:
 1805              	.LBE770:
 1806              	.LBE769:
 1807              	.LBE768:
 1808              		.loc 3 447 3 view .LVU413
 1809              	.LBB793:
 1810              	.LBB790:
 1811              	.LBB777:
 1812              	.LBB776:
 1813              	.LBB775:
 1814              	.LBB773:
 1815              	.LBI773:
 1816              		.loc 4 544 57 view .LVU414
 1817              	.LBB774:
 1818              		.loc 4 546 3 view .LVU415
 1819 00f2 2023     		movs	r3, #32
 1820              		.syntax unified
 1821              	@ 546 ".//ChibiOS//os/ext/CMSIS/include/core_cmFunc.h" 1
 1822 00f4 83F31188 		MSR basepri, r3
 1823              	@ 0 "" 2
 1824              	.LVL118:
ARM GAS  /tmp/ccjZydPD.s 			page 33


 1825              		.loc 4 546 3 is_stmt 0 view .LVU416
 1826              		.thumb
 1827              		.syntax unified
 1828              	.LBE774:
 1829              	.LBE773:
 1830              	.LBE775:
 1831              		.loc 2 349 3 is_stmt 1 view .LVU417
 1832 00f8 FFF7FEFF 		bl	_stats_start_measure_crit_thd
 1833              	.LVL119:
 1834              		.loc 2 350 3 view .LVU418
 1835 00fc FFF7FEFF 		bl	_dbg_check_lock
 1836              	.LVL120:
 1837              	.LBE776:
 1838              	.LBE777:
 1839              		.loc 5 358 3 view .LVU419
 1840              	.LBB778:
 1841              	.LBI778:
 1842              		.loc 5 337 20 view .LVU420
 1843              	.LBB779:
 1844              		.loc 5 339 3 view .LVU421
 1845 0100 FFF7FEFF 		bl	chDbgCheckClassI
 1846              	.LVL121:
 1847              		.loc 5 341 3 view .LVU422
 1848              		.loc 5 341 20 is_stmt 0 view .LVU423
 1849 0104 059D     		ldr	r5, [sp, #20]
 1850              	.LVL122:
 1851              		.loc 5 341 20 view .LVU424
 1852              	.LBE779:
 1853              	.LBE778:
 1854              		.loc 5 359 3 is_stmt 1 view .LVU425
 1855              	.LBB780:
 1856              	.LBI780:
 1857              		.loc 2 358 20 view .LVU426
 1858              	.LBB781:
 1859              		.loc 2 360 3 view .LVU427
 1860 0106 FFF7FEFF 		bl	_dbg_check_unlock
 1861              	.LVL123:
 1862              		.loc 2 361 3 view .LVU428
 1863 010a FFF7FEFF 		bl	_stats_stop_measure_crit_thd
 1864              	.LVL124:
 1865              		.loc 2 367 3 view .LVU429
 1866              		.loc 2 367 3 view .LVU430
 1867              		.loc 2 367 3 view .LVU431
 1868 010e 2368     		ldr	r3, [r4]
 1869 0110 A342     		cmp	r3, r4
 1870 0112 04D0     		beq	.L43
 1871 0114 A269     		ldr	r2, [r4, #24]
 1872 0116 9B68     		ldr	r3, [r3, #8]
 1873 0118 9268     		ldr	r2, [r2, #8]
 1874 011a 9A42     		cmp	r2, r3
 1875 011c 0FD3     		bcc	.L62
 1876              	.L43:
 1877              		.loc 2 367 3 view .LVU432
 1878              		.loc 2 371 3 view .LVU433
 1879              	.LBB782:
 1880              	.LBI782:
 1881              		.loc 3 458 20 view .LVU434
ARM GAS  /tmp/ccjZydPD.s 			page 34


 1882              	.LBE782:
 1883              	.LBE781:
 1884              	.LBE780:
 1885              	.LBE790:
 1886              	.LBE793:
 1887              		.loc 3 461 3 view .LVU435
 1888              	.LVL125:
 1889              	.LBB794:
 1890              	.LBB791:
 1891              	.LBB788:
 1892              	.LBB786:
 1893              	.LBB785:
 1894              	.LBB783:
 1895              	.LBI783:
 1896              		.loc 4 544 57 view .LVU436
 1897              	.LBB784:
 1898              		.loc 4 546 3 view .LVU437
 1899 011e 0023     		movs	r3, #0
 1900              		.syntax unified
 1901              	@ 546 ".//ChibiOS//os/ext/CMSIS/include/core_cmFunc.h" 1
 1902 0120 83F31188 		MSR basepri, r3
 1903              	@ 0 "" 2
 1904              	.LVL126:
 1905              		.loc 4 546 3 is_stmt 0 view .LVU438
 1906              		.thumb
 1907              		.syntax unified
 1908              	.LBE784:
 1909              	.LBE783:
 1910              	.LBE785:
 1911              	.LBE786:
 1912              	.LBE788:
 1913              		.loc 5 361 3 is_stmt 1 view .LVU439
 1914              		.loc 5 361 3 is_stmt 0 view .LVU440
 1915              	.LBE791:
 1916              	.LBE794:
 1917              		.loc 1 97 3 view .LVU441
 1918 0124 B5FA85F1 		clz	r1, r5
 1919 0128 4909     		lsrs	r1, r1, #5
 1920 012a 0120     		movs	r0, #1
 1921 012c FFF7FEFF 		bl	_test_assert
 1922              	.LVL127:
 1923              		.loc 1 97 3 is_stmt 1 view .LVU442
 1924              		.loc 1 98 1 is_stmt 0 view .LVU443
 1925 0130 2D4B     		ldr	r3, .L66
 1926 0132 1A68     		ldr	r2, [r3]
 1927 0134 079B     		ldr	r3, [sp, #28]
 1928 0136 5A40     		eors	r2, r3, r2
 1929 0138 54D1     		bne	.L63
 1930 013a 09B0     		add	sp, sp, #36
 1931              		.cfi_remember_state
 1932              		.cfi_def_cfa_offset 12
 1933              		@ sp needed
 1934 013c 30BD     		pop	{r4, r5, pc}
 1935              	.LVL128:
 1936              	.L62:
 1937              		.cfi_restore_state
 1938              	.LBB795:
ARM GAS  /tmp/ccjZydPD.s 			page 35


 1939              	.LBB792:
 1940              	.LBB789:
 1941              	.LBB787:
 1942              		.loc 2 367 3 is_stmt 1 view .LVU444
 1943 013e 2D48     		ldr	r0, .L66+12
 1944 0140 FFF7FEFF 		bl	chSysHalt
 1945              	.LVL129:
 1946 0144 EBE7     		b	.L43
 1947              	.LVL130:
 1948              	.L61:
 1949              		.loc 2 367 3 is_stmt 0 view .LVU445
 1950              	.LBE787:
 1951              	.LBE789:
 1952              	.LBE792:
 1953              	.LBE795:
 1954              	.LBB796:
 1955              	.LBB762:
 1956              	.LBB760:
 1957              		.loc 2 367 3 is_stmt 1 view .LVU446
 1958 0146 2B48     		ldr	r0, .L66+12
 1959 0148 FFF7FEFF 		bl	chSysHalt
 1960              	.LVL131:
 1961 014c CBE7     		b	.L42
 1962              	.LVL132:
 1963              	.L58:
 1964              		.loc 2 367 3 is_stmt 0 view .LVU447
 1965              	.LBE760:
 1966              	.LBE762:
 1967              	.LBE796:
 1968              	.LBB797:
 1969              	.LBB687:
 1970              		.loc 2 367 3 is_stmt 1 view .LVU448
 1971 014e 2948     		ldr	r0, .L66+12
 1972 0150 FFF7FEFF 		bl	chSysHalt
 1973              	.LVL133:
 1974 0154 91E7     		b	.L36
 1975              	.L55:
 1976              	.LBE687:
 1977              	.LBE797:
 1978              	.LBB798:
 1979              	.LBB621:
 1980              		.loc 2 367 3 view .LVU449
 1981 0156 2748     		ldr	r0, .L66+12
 1982 0158 FFF7FEFF 		bl	chSysHalt
 1983              	.LVL134:
 1984              		.loc 2 367 3 view .LVU450
 1985              		.loc 2 371 3 view .LVU451
 1986              	.LBB617:
 1987              		.loc 3 458 20 view .LVU452
 1988              	.LBE617:
 1989              	.LBE621:
 1990              	.LBE798:
 1991              		.loc 3 461 3 view .LVU453
 1992              	.LBB799:
 1993              	.LBB622:
 1994              	.LBB618:
 1995              	.LBB615:
ARM GAS  /tmp/ccjZydPD.s 			page 36


 1996              		.loc 4 544 57 view .LVU454
 1997              	.LBB614:
 1998              		.loc 4 546 3 view .LVU455
 1999 015c 0023     		movs	r3, #0
 2000              		.syntax unified
 2001              	@ 546 ".//ChibiOS//os/ext/CMSIS/include/core_cmFunc.h" 1
 2002 015e 83F31188 		MSR basepri, r3
 2003              	@ 0 "" 2
 2004              	.LVL135:
 2005              		.loc 4 546 3 is_stmt 0 view .LVU456
 2006              		.thumb
 2007              		.syntax unified
 2008              	.LBE614:
 2009              	.LBE615:
 2010              	.LBE618:
 2011              	.LBE622:
 2012              	.LBE799:
 2013              		.loc 1 83 3 is_stmt 1 view .LVU457
 2014              	.LBB800:
 2015              		.loc 2 420 20 view .LVU458
 2016              	.LBB649:
 2017              		.loc 2 422 3 view .LVU459
 2018              	.LBB635:
 2019              		.loc 3 398 24 view .LVU460
 2020              	.LBB634:
 2021              		.loc 3 399 3 view .LVU461
 2022              		.loc 3 402 3 view .LVU462
 2023              	.LBB633:
 2024              		.loc 4 529 61 view .LVU463
 2025              	.LBB632:
 2026              		.loc 4 531 3 view .LVU464
 2027              		.loc 4 533 3 view .LVU465
 2028              		.syntax unified
 2029              	@ 533 ".//ChibiOS//os/ext/CMSIS/include/core_cmFunc.h" 1
 2030 0162 EFF31283 		MRS r3, basepri_max
 2031              	@ 0 "" 2
 2032              	.LVL136:
 2033              		.loc 4 534 3 view .LVU466
 2034              		.loc 4 534 3 is_stmt 0 view .LVU467
 2035              		.thumb
 2036              		.syntax unified
 2037              	.LBE632:
 2038              	.LBE633:
 2039              		.loc 3 406 3 is_stmt 1 view .LVU468
 2040              		.loc 3 406 3 is_stmt 0 view .LVU469
 2041              	.LBE634:
 2042              	.LBE635:
 2043              	.LBE649:
 2044              	.LBE800:
 2045              		.loc 3 421 3 is_stmt 1 view .LVU470
 2046              	.LBB801:
 2047              	.LBB650:
 2048              		.loc 2 422 6 is_stmt 0 view .LVU471
 2049 0166 002B     		cmp	r3, #0
 2050 0168 7FF476AF 		bne	.L34
 2051              	.L56:
 2052              	.LBB636:
ARM GAS  /tmp/ccjZydPD.s 			page 37


 2053              	.LBI636:
 2054              		.loc 2 420 20 is_stmt 1 view .LVU472
 2055              	.LBB637:
 2056              		.loc 2 423 5 view .LVU473
 2057              	.LBB638:
 2058              	.LBI638:
 2059              		.loc 2 346 20 view .LVU474
 2060              	.LBB639:
 2061              		.loc 2 348 3 view .LVU475
 2062              	.LBB640:
 2063              	.LBI640:
 2064              		.loc 3 444 20 view .LVU476
 2065              	.LBE640:
 2066              	.LBE639:
 2067              	.LBE638:
 2068              	.LBE637:
 2069              	.LBE636:
 2070              	.LBE650:
 2071              	.LBE801:
 2072              		.loc 3 447 3 view .LVU477
 2073              	.LVL137:
 2074              	.LBB802:
 2075              	.LBB651:
 2076              	.LBB647:
 2077              	.LBB646:
 2078              	.LBB645:
 2079              	.LBB644:
 2080              	.LBB643:
 2081              	.LBB641:
 2082              	.LBI641:
 2083              		.loc 4 544 57 view .LVU478
 2084              	.LBB642:
 2085              		.loc 4 546 3 view .LVU479
 2086 016c 2023     		movs	r3, #32
 2087              	.LVL138:
 2088              		.loc 4 546 3 is_stmt 0 view .LVU480
 2089              		.syntax unified
 2090              	@ 546 ".//ChibiOS//os/ext/CMSIS/include/core_cmFunc.h" 1
 2091 016e 83F31188 		MSR basepri, r3
 2092              	@ 0 "" 2
 2093              	.LVL139:
 2094              		.loc 4 546 3 view .LVU481
 2095              		.thumb
 2096              		.syntax unified
 2097              	.LBE642:
 2098              	.LBE641:
 2099              	.LBE643:
 2100              		.loc 2 349 3 is_stmt 1 view .LVU482
 2101 0172 FFF7FEFF 		bl	_stats_start_measure_crit_thd
 2102              	.LVL140:
 2103              		.loc 2 350 3 view .LVU483
 2104 0176 FFF7FEFF 		bl	_dbg_check_lock
 2105              	.LVL141:
 2106              	.LBE644:
 2107              	.LBE645:
 2108              	.LBE646:
 2109              	.LBE647:
ARM GAS  /tmp/ccjZydPD.s 			page 38


 2110              	.LBE651:
 2111              	.LBE802:
 2112              		.loc 1 84 3 view .LVU484
 2113              	.LBB803:
 2114              		.loc 2 420 20 view .LVU485
 2115              	.LBB676:
 2116              		.loc 2 422 3 view .LVU486
 2117              	.LBB662:
 2118              		.loc 3 398 24 view .LVU487
 2119              	.LBB661:
 2120              		.loc 3 399 3 view .LVU488
 2121              		.loc 3 402 3 view .LVU489
 2122              	.LBB660:
 2123              		.loc 4 529 61 view .LVU490
 2124              	.LBB659:
 2125              		.loc 4 531 3 view .LVU491
 2126              		.loc 4 533 3 view .LVU492
 2127              		.syntax unified
 2128              	@ 533 ".//ChibiOS//os/ext/CMSIS/include/core_cmFunc.h" 1
 2129 017a EFF31283 		MRS r3, basepri_max
 2130              	@ 0 "" 2
 2131              	.LVL142:
 2132              		.loc 4 534 3 view .LVU493
 2133              		.loc 4 534 3 is_stmt 0 view .LVU494
 2134              		.thumb
 2135              		.syntax unified
 2136              	.LBE659:
 2137              	.LBE660:
 2138              		.loc 3 406 3 is_stmt 1 view .LVU495
 2139              		.loc 3 406 3 is_stmt 0 view .LVU496
 2140              	.LBE661:
 2141              	.LBE662:
 2142              	.LBE676:
 2143              	.LBE803:
 2144              		.loc 3 421 3 is_stmt 1 view .LVU497
 2145              	.LBB804:
 2146              	.LBB677:
 2147              		.loc 2 422 6 is_stmt 0 view .LVU498
 2148 017e 002B     		cmp	r3, #0
 2149 0180 7FF46FAF 		bne	.L35
 2150              	.L57:
 2151              	.LBB663:
 2152              	.LBI663:
 2153              		.loc 2 420 20 is_stmt 1 view .LVU499
 2154              	.LBB664:
 2155              		.loc 2 423 5 view .LVU500
 2156              	.LBB665:
 2157              	.LBI665:
 2158              		.loc 2 346 20 view .LVU501
 2159              	.LBB666:
 2160              		.loc 2 348 3 view .LVU502
 2161              	.LBB667:
 2162              	.LBI667:
 2163              		.loc 3 444 20 view .LVU503
 2164              	.LBE667:
 2165              	.LBE666:
 2166              	.LBE665:
ARM GAS  /tmp/ccjZydPD.s 			page 39


 2167              	.LBE664:
 2168              	.LBE663:
 2169              	.LBE677:
 2170              	.LBE804:
 2171              		.loc 3 447 3 view .LVU504
 2172              	.LVL143:
 2173              	.LBB805:
 2174              	.LBB678:
 2175              	.LBB674:
 2176              	.LBB673:
 2177              	.LBB672:
 2178              	.LBB671:
 2179              	.LBB670:
 2180              	.LBB668:
 2181              	.LBI668:
 2182              		.loc 4 544 57 view .LVU505
 2183              	.LBB669:
 2184              		.loc 4 546 3 view .LVU506
 2185 0184 2023     		movs	r3, #32
 2186              	.LVL144:
 2187              		.loc 4 546 3 is_stmt 0 view .LVU507
 2188              		.syntax unified
 2189              	@ 546 ".//ChibiOS//os/ext/CMSIS/include/core_cmFunc.h" 1
 2190 0186 83F31188 		MSR basepri, r3
 2191              	@ 0 "" 2
 2192              	.LVL145:
 2193              		.loc 4 546 3 view .LVU508
 2194              		.thumb
 2195              		.syntax unified
 2196              	.LBE669:
 2197              	.LBE668:
 2198              	.LBE670:
 2199              		.loc 2 349 3 is_stmt 1 view .LVU509
 2200 018a FFF7FEFF 		bl	_stats_start_measure_crit_thd
 2201              	.LVL146:
 2202              		.loc 2 350 3 view .LVU510
 2203 018e FFF7FEFF 		bl	_dbg_check_lock
 2204              	.LVL147:
 2205              	.LBE671:
 2206              	.LBE672:
 2207              		.loc 2 425 1 is_stmt 0 view .LVU511
 2208 0192 66E7     		b	.L35
 2209              	.LVL148:
 2210              	.L60:
 2211              		.loc 2 425 1 view .LVU512
 2212              	.LBE673:
 2213              	.LBE674:
 2214              	.LBE678:
 2215              	.LBE805:
 2216              	.LBB806:
 2217              	.LBB732:
 2218              		.loc 2 437 5 is_stmt 1 view .LVU513
 2219              	.LBB721:
 2220              	.LBI721:
 2221              		.loc 2 358 20 view .LVU514
 2222              	.LBB722:
 2223              		.loc 2 360 3 view .LVU515
ARM GAS  /tmp/ccjZydPD.s 			page 40


 2224 0194 FFF7FEFF 		bl	_dbg_check_unlock
 2225              	.LVL149:
 2226              		.loc 2 361 3 view .LVU516
 2227 0198 FFF7FEFF 		bl	_stats_stop_measure_crit_thd
 2228              	.LVL150:
 2229              		.loc 2 367 3 view .LVU517
 2230              		.loc 2 367 3 view .LVU518
 2231              		.loc 2 367 3 view .LVU519
 2232 019c 2368     		ldr	r3, [r4]
 2233 019e A342     		cmp	r3, r4
 2234 01a0 04D0     		beq	.L40
 2235 01a2 A269     		ldr	r2, [r4, #24]
 2236 01a4 9B68     		ldr	r3, [r3, #8]
 2237 01a6 9268     		ldr	r2, [r2, #8]
 2238 01a8 9A42     		cmp	r2, r3
 2239 01aa 17D3     		bcc	.L64
 2240              	.L40:
 2241              		.loc 2 367 3 view .LVU520
 2242              		.loc 2 371 3 view .LVU521
 2243              	.LBB723:
 2244              	.LBI723:
 2245              		.loc 3 458 20 view .LVU522
 2246              	.LBE723:
 2247              	.LBE722:
 2248              	.LBE721:
 2249              	.LBE732:
 2250              	.LBE806:
 2251              		.loc 3 461 3 view .LVU523
 2252              	.LVL151:
 2253              	.LBB807:
 2254              	.LBB733:
 2255              	.LBB729:
 2256              	.LBB727:
 2257              	.LBB726:
 2258              	.LBB724:
 2259              	.LBI724:
 2260              		.loc 4 544 57 view .LVU524
 2261              	.LBB725:
 2262              		.loc 4 546 3 view .LVU525
 2263 01ac 0023     		movs	r3, #0
 2264              		.syntax unified
 2265              	@ 546 ".//ChibiOS//os/ext/CMSIS/include/core_cmFunc.h" 1
 2266 01ae 83F31188 		MSR basepri, r3
 2267              	@ 0 "" 2
 2268              	.LVL152:
 2269              		.loc 4 546 3 is_stmt 0 view .LVU526
 2270              		.thumb
 2271              		.syntax unified
 2272              	.LBE725:
 2273              	.LBE724:
 2274              	.LBE726:
 2275              		.loc 2 372 1 view .LVU527
 2276 01b2 75E7     		b	.L39
 2277              	.LVL153:
 2278              	.L59:
 2279              		.loc 2 372 1 view .LVU528
 2280              	.LBE727:
ARM GAS  /tmp/ccjZydPD.s 			page 41


 2281              	.LBE729:
 2282              	.LBE733:
 2283              	.LBE807:
 2284              	.LBB808:
 2285              	.LBB712:
 2286              		.loc 2 437 5 is_stmt 1 view .LVU529
 2287              	.LBB703:
 2288              	.LBI703:
 2289              		.loc 2 358 20 view .LVU530
 2290              	.LBB704:
 2291              		.loc 2 360 3 view .LVU531
 2292 01b4 FFF7FEFF 		bl	_dbg_check_unlock
 2293              	.LVL154:
 2294              		.loc 2 361 3 view .LVU532
 2295 01b8 FFF7FEFF 		bl	_stats_stop_measure_crit_thd
 2296              	.LVL155:
 2297              		.loc 2 367 3 view .LVU533
 2298              		.loc 2 367 3 view .LVU534
 2299              		.loc 2 367 3 view .LVU535
 2300 01bc 2368     		ldr	r3, [r4]
 2301 01be A342     		cmp	r3, r4
 2302 01c0 04D0     		beq	.L38
 2303 01c2 A269     		ldr	r2, [r4, #24]
 2304 01c4 9B68     		ldr	r3, [r3, #8]
 2305 01c6 9268     		ldr	r2, [r2, #8]
 2306 01c8 9A42     		cmp	r2, r3
 2307 01ca 03D3     		bcc	.L65
 2308              	.L38:
 2309              		.loc 2 367 3 view .LVU536
 2310              		.loc 2 371 3 view .LVU537
 2311              	.LBB705:
 2312              	.LBI705:
 2313              		.loc 3 458 20 view .LVU538
 2314              	.LBE705:
 2315              	.LBE704:
 2316              	.LBE703:
 2317              	.LBE712:
 2318              	.LBE808:
 2319              		.loc 3 461 3 view .LVU539
 2320              	.LVL156:
 2321              	.LBB809:
 2322              	.LBB713:
 2323              	.LBB710:
 2324              	.LBB709:
 2325              	.LBB708:
 2326              	.LBB706:
 2327              	.LBI706:
 2328              		.loc 4 544 57 view .LVU540
 2329              	.LBB707:
 2330              		.loc 4 546 3 view .LVU541
 2331 01cc 0023     		movs	r3, #0
 2332              		.syntax unified
 2333              	@ 546 ".//ChibiOS//os/ext/CMSIS/include/core_cmFunc.h" 1
 2334 01ce 83F31188 		MSR basepri, r3
 2335              	@ 0 "" 2
 2336              	.LVL157:
 2337              		.loc 4 546 3 is_stmt 0 view .LVU542
ARM GAS  /tmp/ccjZydPD.s 			page 42


 2338              		.thumb
 2339              		.syntax unified
 2340              	.LBE707:
 2341              	.LBE706:
 2342              	.LBE708:
 2343              		.loc 2 372 1 view .LVU543
 2344 01d2 61E7     		b	.L37
 2345              	.L65:
 2346              		.loc 2 367 3 is_stmt 1 view .LVU544
 2347 01d4 0748     		ldr	r0, .L66+12
 2348 01d6 FFF7FEFF 		bl	chSysHalt
 2349              	.LVL158:
 2350 01da F7E7     		b	.L38
 2351              	.L64:
 2352              		.loc 2 367 3 is_stmt 0 view .LVU545
 2353              	.LBE709:
 2354              	.LBE710:
 2355              	.LBE713:
 2356              	.LBE809:
 2357              	.LBB810:
 2358              	.LBB734:
 2359              	.LBB730:
 2360              	.LBB728:
 2361              		.loc 2 367 3 is_stmt 1 view .LVU546
 2362 01dc 0548     		ldr	r0, .L66+12
 2363 01de FFF7FEFF 		bl	chSysHalt
 2364              	.LVL159:
 2365 01e2 E3E7     		b	.L40
 2366              	.LVL160:
 2367              	.L63:
 2368              		.loc 2 367 3 is_stmt 0 view .LVU547
 2369              	.LBE728:
 2370              	.LBE730:
 2371              	.LBE734:
 2372              	.LBE810:
 2373              		.loc 1 98 1 view .LVU548
 2374 01e4 FFF7FEFF 		bl	__stack_chk_fail
 2375              	.LVL161:
 2376              	.L67:
 2377              		.align	2
 2378              	.L66:
 2379 01e8 00000000 		.word	.LC3
 2380 01ec 00000000 		.word	ch
 2381 01f0 00000000 		.word	vtcb
 2382 01f4 00000000 		.word	.LANCHOR0
 2383              		.cfi_endproc
 2384              	.LFE220:
 2385              		.size	sys1_execute, .-sys1_execute
 2386              		.global	patternsys
 2387              		.global	testsys3
 2388              		.section	.rodata.str1.4,"aMS",%progbits,1
 2389              		.align	2
 2390              	.LC4:
 2391 0000 53797374 		.ascii	"System, integrity\000"
 2391      656D2C20 
 2391      696E7465 
 2391      67726974 
ARM GAS  /tmp/ccjZydPD.s 			page 43


 2391      7900
 2392              		.global	testsys2
 2393 0012 0000     		.align	2
 2394              	.LC5:
 2395 0014 53797374 		.ascii	"System, interrupts handling\000"
 2395      656D2C20 
 2395      696E7465 
 2395      72727570 
 2395      74732068 
 2396              		.global	testsys1
 2397              		.align	2
 2398              	.LC6:
 2399 0030 53797374 		.ascii	"System, critical zones\000"
 2399      656D2C20 
 2399      63726974 
 2399      6963616C 
 2399      207A6F6E 
 2400              		.section	.rodata.__func__.7261,"a"
 2401              		.align	2
 2402              		.set	.LANCHOR0,. + 0
 2403              		.type	__func__.7261, %object
 2404              		.size	__func__.7261, 12
 2405              	__func__.7261:
 2406 0000 63685379 		.ascii	"chSysUnlock\000"
 2406      73556E6C 
 2406      6F636B00 
 2407              		.section	.rodata.patternsys,"a"
 2408              		.align	2
 2409              		.type	patternsys, %object
 2410              		.size	patternsys, 16
 2411              	patternsys:
 2412 0000 00000000 		.word	testsys1
 2413 0004 00000000 		.word	testsys2
 2414 0008 00000000 		.word	testsys3
 2415 000c 00000000 		.word	0
 2416              		.section	.rodata.testsys1,"a"
 2417              		.align	2
 2418              		.type	testsys1, %object
 2419              		.size	testsys1, 16
 2420              	testsys1:
 2421 0000 30000000 		.word	.LC6
 2422 0004 00000000 		.word	0
 2423 0008 00000000 		.word	0
 2424 000c 00000000 		.word	sys1_execute
 2425              		.section	.rodata.testsys2,"a"
 2426              		.align	2
 2427              		.type	testsys2, %object
 2428              		.size	testsys2, 16
 2429              	testsys2:
 2430 0000 14000000 		.word	.LC5
 2431 0004 00000000 		.word	0
 2432 0008 00000000 		.word	0
 2433 000c 00000000 		.word	sys2_execute
 2434              		.section	.rodata.testsys3,"a"
 2435              		.align	2
 2436              		.type	testsys3, %object
 2437              		.size	testsys3, 16
ARM GAS  /tmp/ccjZydPD.s 			page 44


 2438              	testsys3:
 2439 0000 00000000 		.word	.LC4
 2440 0004 00000000 		.word	0
 2441 0008 00000000 		.word	0
 2442 000c 00000000 		.word	sys3_execute
 2443              		.text
 2444              	.Letext0:
 2445              		.file 6 "/usr/lib/gcc/arm-none-eabi/9.2.1/include/stddef.h"
 2446              		.file 7 "/usr/lib/gcc/arm-none-eabi/9.2.1/include/stdint.h"
 2447              		.file 8 ".//ChibiOS//os/rt/ports/ARMCMx/compilers/GCC/chtypes.h"
 2448              		.file 9 ".//ChibiOS//os/rt/include/chsystypes.h"
 2449              		.file 10 ".//ChibiOS//os/rt/include/chschd.h"
 2450              		.file 11 ".//ChibiOS//os/ext/CMSIS/include/core_cm4.h"
 2451              		.file 12 ".//ChibiOS//os/ext/CMSIS/ST/system_stm32f4xx.h"
 2452              		.file 13 ".//ChibiOS//os/rt/ports/ARMCMx/chcore.h"
 2453              		.file 14 ".//ChibiOS//os/rt/include/chdebug.h"
 2454              		.file 15 ".//ChibiOS//os/rt/include/chtm.h"
 2455              		.file 16 ".//ChibiOS//os/rt/include/chstats.h"
 2456              		.file 17 ".//ChibiOS//os/rt/include/chsem.h"
 2457              		.file 18 ".//ChibiOS//os/rt/include/chmtx.h"
 2458              		.file 19 ".//ChibiOS//os/rt/include/chregistry.h"
 2459              		.file 20 ".//ChibiOS//test/rt/test.h"
 2460              		.file 21 ".//ChibiOS//os/rt/include/chthreads.h"