ARM GAS  /tmp/ccqhiTbD.s 			page 1


   1              		.cpu cortex-m4
   2              		.eabi_attribute 27, 1
   3              		.eabi_attribute 28, 1
   4              		.eabi_attribute 20, 1
   5              		.eabi_attribute 21, 1
   6              		.eabi_attribute 23, 3
   7              		.eabi_attribute 24, 1
   8              		.eabi_attribute 25, 1
   9              		.eabi_attribute 26, 1
  10              		.eabi_attribute 30, 2
  11              		.eabi_attribute 34, 1
  12              		.eabi_attribute 18, 4
  13              		.file	"testmtx.c"
  14              		.text
  15              	.Ltext0:
  16              		.cfi_sections	.debug_frame
  17              		.section	.rodata.mtx1_execute.str1.4,"aMS",%progbits,1
  18              		.align	2
  19              	.LC0:
  20 0000 4500     		.ascii	"E\000"
  21 0002 0000     		.align	2
  22              	.LC1:
  23 0004 4400     		.ascii	"D\000"
  24 0006 0000     		.align	2
  25              	.LC2:
  26 0008 4300     		.ascii	"C\000"
  27 000a 0000     		.align	2
  28              	.LC3:
  29 000c 4200     		.ascii	"B\000"
  30 000e 0000     		.align	2
  31              	.LC4:
  32 0010 4100     		.ascii	"A\000"
  33 0012 0000     		.align	2
  34              	.LC5:
  35 0014 41424344 		.ascii	"ABCDE\000"
  35      4500
  36              		.section	.rodata.mtx1_execute.cst4,"aM",%progbits,4
  37              		.align	2
  38              	.LC6:
  39 0000 00000000 		.word	__stack_chk_guard
  40              		.section	.text.mtx1_execute,"ax",%progbits
  41              		.align	1
  42              		.p2align 4,,15
  43              		.arch armv7e-m
  44              		.syntax unified
  45              		.thumb
  46              		.thumb_func
  47              		.fpu fpv4-sp-d16
  48              		.type	mtx1_execute, %function
  49              	mtx1_execute:
  50              	.LFB221:
  51              		.file 1 ".//ChibiOS//test/rt/testmtx.c"
  52              		.loc 1 96 32 view -0
  53              		.cfi_startproc
  54              		@ args = 0, pretend = 0, frame = 8
  55              		@ frame_needed = 0, uses_anonymous_args = 0
  56 0000 F0B5     		push	{r4, r5, r6, r7, lr}
ARM GAS  /tmp/ccqhiTbD.s 			page 2


  57              		.cfi_def_cfa_offset 20
  58              		.cfi_offset 4, -20
  59              		.cfi_offset 5, -16
  60              		.cfi_offset 6, -12
  61              		.cfi_offset 7, -8
  62              		.cfi_offset 14, -4
  63              	.LBB167:
  64              	.LBB168:
  65              	.LBB169:
  66              	.LBB170:
  67              		.file 2 ".//ChibiOS//os/rt/include/chthreads.h"
  68              		.loc 2 176 18 is_stmt 0 view .LVU1
  69 0002 344F     		ldr	r7, .L9
  70              	.LBE170:
  71              	.LBE169:
  72              	.LBE168:
  73              	.LBE167:
  74              		.loc 1 100 16 view .LVU2
  75 0004 344E     		ldr	r6, .L9+4
  76              	.LBB176:
  77              	.LBB173:
  78              		.loc 2 189 25 view .LVU3
  79 0006 BB69     		ldr	r3, [r7, #24]
  80              	.LBE173:
  81              	.LBE176:
  82              		.loc 1 99 3 view .LVU4
  83 0008 3448     		ldr	r0, .L9+8
  84              	.LBB177:
  85              	.LBB174:
  86              		.loc 2 189 25 view .LVU5
  87 000a 9C68     		ldr	r4, [r3, #8]
  88              	.LBE174:
  89              	.LBE177:
  90              		.loc 1 96 32 view .LVU6
  91 000c 344B     		ldr	r3, .L9+12
  92              		.loc 1 100 14 view .LVU7
  93 000e 354D     		ldr	r5, .L9+16
  94              		.loc 1 96 32 view .LVU8
  95 0010 85B0     		sub	sp, sp, #20
  96              		.cfi_def_cfa_offset 40
  97              		.loc 1 96 32 view .LVU9
  98 0012 1B68     		ldr	r3, [r3]
  99 0014 0393     		str	r3, [sp, #12]
 100 0016 4FF00003 		mov	r3,#0
 101              		.loc 1 98 3 is_stmt 1 view .LVU10
 102              	.LBB178:
 103              	.LBI167:
 104              		.loc 2 187 23 view .LVU11
 105              	.LBB175:
 106              		.loc 2 189 3 view .LVU12
 107              	.LBB172:
 108              	.LBI169:
 109              		.loc 2 174 25 view .LVU13
 110              	.LBB171:
 111              		.loc 2 176 3 view .LVU14
 112              	.LVL0:
 113              		.loc 2 176 3 is_stmt 0 view .LVU15
ARM GAS  /tmp/ccqhiTbD.s 			page 3


 114              	.LBE171:
 115              	.LBE172:
 116              	.LBE175:
 117              	.LBE178:
 118              		.loc 1 99 3 is_stmt 1 view .LVU16
 119 001a FFF7FEFF 		bl	chMtxLock
 120              	.LVL1:
 121              		.loc 1 100 3 view .LVU17
 122              		.loc 1 100 16 is_stmt 0 view .LVU18
 123 001e 324B     		ldr	r3, .L9+20
 124 0020 0093     		str	r3, [sp]
 125 0022 621C     		adds	r2, r4, #1
 126 0024 314B     		ldr	r3, .L9+24
 127 0026 3068     		ldr	r0, [r6]
 128 0028 4FF4FC71 		mov	r1, #504
 129 002c FFF7FEFF 		bl	chThdCreateStatic
 130              	.LVL2:
 131              		.loc 1 101 16 view .LVU19
 132 0030 2F4B     		ldr	r3, .L9+28
 133 0032 0093     		str	r3, [sp]
 134              		.loc 1 100 16 view .LVU20
 135 0034 0146     		mov	r1, r0
 136              		.loc 1 101 16 view .LVU21
 137 0036 2D4B     		ldr	r3, .L9+24
 138              		.loc 1 100 14 view .LVU22
 139 0038 2960     		str	r1, [r5]
 140              		.loc 1 101 3 is_stmt 1 view .LVU23
 141              		.loc 1 101 16 is_stmt 0 view .LVU24
 142 003a A21C     		adds	r2, r4, #2
 143 003c 4FF4FC71 		mov	r1, #504
 144 0040 7068     		ldr	r0, [r6, #4]
 145 0042 FFF7FEFF 		bl	chThdCreateStatic
 146              	.LVL3:
 147              		.loc 1 102 16 view .LVU25
 148 0046 2B4B     		ldr	r3, .L9+32
 149 0048 0093     		str	r3, [sp]
 150              		.loc 1 101 16 view .LVU26
 151 004a 0146     		mov	r1, r0
 152              		.loc 1 102 16 view .LVU27
 153 004c 274B     		ldr	r3, .L9+24
 154              		.loc 1 101 14 view .LVU28
 155 004e 6960     		str	r1, [r5, #4]
 156              		.loc 1 102 3 is_stmt 1 view .LVU29
 157              		.loc 1 102 16 is_stmt 0 view .LVU30
 158 0050 E21C     		adds	r2, r4, #3
 159 0052 4FF4FC71 		mov	r1, #504
 160 0056 B068     		ldr	r0, [r6, #8]
 161 0058 FFF7FEFF 		bl	chThdCreateStatic
 162              	.LVL4:
 163              		.loc 1 103 16 view .LVU31
 164 005c 264B     		ldr	r3, .L9+36
 165 005e 0093     		str	r3, [sp]
 166              		.loc 1 102 16 view .LVU32
 167 0060 0146     		mov	r1, r0
 168              		.loc 1 103 16 view .LVU33
 169 0062 224B     		ldr	r3, .L9+24
 170              		.loc 1 102 14 view .LVU34
ARM GAS  /tmp/ccqhiTbD.s 			page 4


 171 0064 A960     		str	r1, [r5, #8]
 172              		.loc 1 103 3 is_stmt 1 view .LVU35
 173              		.loc 1 103 16 is_stmt 0 view .LVU36
 174 0066 221D     		adds	r2, r4, #4
 175 0068 4FF4FC71 		mov	r1, #504
 176 006c F068     		ldr	r0, [r6, #12]
 177 006e FFF7FEFF 		bl	chThdCreateStatic
 178              	.LVL5:
 179              		.loc 1 104 16 view .LVU37
 180 0072 224B     		ldr	r3, .L9+40
 181 0074 0093     		str	r3, [sp]
 182              		.loc 1 103 16 view .LVU38
 183 0076 0146     		mov	r1, r0
 184              		.loc 1 104 16 view .LVU39
 185 0078 621D     		adds	r2, r4, #5
 186 007a 1C4B     		ldr	r3, .L9+24
 187              		.loc 1 103 14 view .LVU40
 188 007c E960     		str	r1, [r5, #12]
 189              		.loc 1 104 3 is_stmt 1 view .LVU41
 190              		.loc 1 104 16 is_stmt 0 view .LVU42
 191 007e 3069     		ldr	r0, [r6, #16]
 192 0080 4FF4FC71 		mov	r1, #504
 193 0084 FFF7FEFF 		bl	chThdCreateStatic
 194              	.LVL6:
 195 0088 0346     		mov	r3, r0
 196              		.loc 1 105 3 view .LVU43
 197 008a 1448     		ldr	r0, .L9+8
 198              		.loc 1 104 14 view .LVU44
 199 008c 2B61     		str	r3, [r5, #16]
 200              		.loc 1 105 3 is_stmt 1 view .LVU45
 201 008e FFF7FEFF 		bl	chMtxUnlock
 202              	.LVL7:
 203              		.loc 1 106 3 view .LVU46
 204 0092 FFF7FEFF 		bl	test_wait_threads
 205              	.LVL8:
 206              		.loc 1 107 3 view .LVU47
 207              	.LBB179:
 208              	.LBI179:
 209              		.loc 2 187 23 view .LVU48
 210              	.LBB180:
 211              		.loc 2 189 3 view .LVU49
 212              	.LBB181:
 213              	.LBI181:
 214              		.loc 2 174 25 view .LVU50
 215              	.LBB182:
 216              		.loc 2 176 3 view .LVU51
 217              	.LBE182:
 218              	.LBE181:
 219              		.loc 2 189 25 is_stmt 0 view .LVU52
 220 0096 BB69     		ldr	r3, [r7, #24]
 221              	.LBE180:
 222              	.LBE179:
 223              		.loc 1 107 3 view .LVU53
 224 0098 9968     		ldr	r1, [r3, #8]
 225 009a 091B     		subs	r1, r1, r4
 226 009c B1FA81F1 		clz	r1, r1
 227 00a0 0120     		movs	r0, #1
ARM GAS  /tmp/ccqhiTbD.s 			page 5


 228 00a2 4909     		lsrs	r1, r1, #5
 229 00a4 FFF7FEFF 		bl	_test_assert
 230              	.LVL9:
 231              		.loc 1 109 1 view .LVU54
 232 00a8 0D4B     		ldr	r3, .L9+12
 233              		.loc 1 107 3 view .LVU55
 234 00aa 28B1     		cbz	r0, .L8
 235              		.loc 1 109 1 view .LVU56
 236 00ac 1A68     		ldr	r2, [r3]
 237 00ae 039B     		ldr	r3, [sp, #12]
 238 00b0 5A40     		eors	r2, r3, r2
 239 00b2 0CD1     		bne	.L6
 240 00b4 05B0     		add	sp, sp, #20
 241              		.cfi_remember_state
 242              		.cfi_def_cfa_offset 20
 243              		@ sp needed
 244 00b6 F0BD     		pop	{r4, r5, r6, r7, pc}
 245              	.LVL10:
 246              	.L8:
 247              		.cfi_restore_state
 248              		.loc 1 107 70 is_stmt 1 discriminator 2 view .LVU57
 249              		.loc 1 108 3 discriminator 2 view .LVU58
 250 00b8 1A68     		ldr	r2, [r3]
 251 00ba 039B     		ldr	r3, [sp, #12]
 252 00bc 5A40     		eors	r2, r3, r2
 253 00be 06D1     		bne	.L6
 254 00c0 0F49     		ldr	r1, .L9+44
 255 00c2 0220     		movs	r0, #2
 256              		.loc 1 109 1 is_stmt 0 discriminator 2 view .LVU59
 257 00c4 05B0     		add	sp, sp, #20
 258              		.cfi_remember_state
 259              		.cfi_def_cfa_offset 20
 260              		@ sp needed
 261 00c6 BDE8F040 		pop	{r4, r5, r6, r7, lr}
 262              		.cfi_restore 14
 263              		.cfi_restore 7
 264              		.cfi_restore 6
 265              		.cfi_restore 5
 266              		.cfi_restore 4
 267              		.cfi_def_cfa_offset 0
 268              	.LVL11:
 269              		.loc 1 108 3 discriminator 2 view .LVU60
 270 00ca FFF7FEBF 		b	_test_assert_sequence
 271              	.LVL12:
 272              	.L6:
 273              		.cfi_restore_state
 274              		.loc 1 109 1 view .LVU61
 275 00ce FFF7FEFF 		bl	__stack_chk_fail
 276              	.LVL13:
 277              	.L10:
 278 00d2 00BF     		.align	2
 279              	.L9:
 280 00d4 00000000 		.word	ch
 281 00d8 00000000 		.word	wa
 282 00dc 00000000 		.word	.LANCHOR0
 283 00e0 00000000 		.word	.LC6
 284 00e4 00000000 		.word	threads
ARM GAS  /tmp/ccqhiTbD.s 			page 6


 285 00e8 00000000 		.word	.LC0
 286 00ec 00000000 		.word	thread1
 287 00f0 04000000 		.word	.LC1
 288 00f4 08000000 		.word	.LC2
 289 00f8 0C000000 		.word	.LC3
 290 00fc 10000000 		.word	.LC4
 291 0100 14000000 		.word	.LC5
 292              		.cfi_endproc
 293              	.LFE221:
 294              		.size	mtx1_execute, .-mtx1_execute
 295              		.section	.rodata.thread1.cst4,"aM",%progbits,4
 296              		.align	2
 297              	.LC7:
 298 0000 00000000 		.word	__stack_chk_guard
 299              		.section	.text.thread1,"ax",%progbits
 300              		.align	1
 301              		.p2align 4,,15
 302              		.syntax unified
 303              		.thumb
 304              		.thumb_func
 305              		.fpu fpv4-sp-d16
 306              		.type	thread1, %function
 307              	thread1:
 308              	.LVL14:
 309              	.LFB220:
 310              		.loc 1 89 33 is_stmt 1 view -0
 311              		.cfi_startproc
 312              		@ args = 0, pretend = 0, frame = 8
 313              		@ frame_needed = 0, uses_anonymous_args = 0
 314              		.loc 1 89 33 is_stmt 0 view .LVU63
 315 0000 10B5     		push	{r4, lr}
 316              		.cfi_def_cfa_offset 8
 317              		.cfi_offset 4, -8
 318              		.cfi_offset 14, -4
 319 0002 0D4B     		ldr	r3, .L16
 320 0004 0446     		mov	r4, r0
 321 0006 82B0     		sub	sp, sp, #8
 322              		.cfi_def_cfa_offset 16
 323              		.loc 1 91 3 view .LVU64
 324 0008 0C48     		ldr	r0, .L16+4
 325              	.LVL15:
 326              		.loc 1 89 33 view .LVU65
 327 000a 1B68     		ldr	r3, [r3]
 328 000c 0193     		str	r3, [sp, #4]
 329 000e 4FF00003 		mov	r3,#0
 330              		.loc 1 91 3 is_stmt 1 view .LVU66
 331 0012 FFF7FEFF 		bl	chMtxLock
 332              	.LVL16:
 333              		.loc 1 92 3 view .LVU67
 334 0016 2078     		ldrb	r0, [r4]	@ zero_extendqisi2
 335 0018 FFF7FEFF 		bl	test_emit_token
 336              	.LVL17:
 337              		.loc 1 93 3 view .LVU68
 338 001c 064B     		ldr	r3, .L16
 339 001e 1A68     		ldr	r2, [r3]
 340 0020 019B     		ldr	r3, [sp, #4]
 341 0022 5A40     		eors	r2, r3, r2
ARM GAS  /tmp/ccqhiTbD.s 			page 7


 342 0024 05D1     		bne	.L15
 343 0026 0548     		ldr	r0, .L16+4
 344              		.loc 1 94 1 is_stmt 0 view .LVU69
 345 0028 02B0     		add	sp, sp, #8
 346              		.cfi_remember_state
 347              		.cfi_def_cfa_offset 8
 348              		@ sp needed
 349 002a BDE81040 		pop	{r4, lr}
 350              		.cfi_restore 14
 351              		.cfi_restore 4
 352              		.cfi_def_cfa_offset 0
 353              	.LVL18:
 354              		.loc 1 93 3 view .LVU70
 355 002e FFF7FEBF 		b	chMtxUnlock
 356              	.LVL19:
 357              	.L15:
 358              		.cfi_restore_state
 359              		.loc 1 93 3 view .LVU71
 360 0032 FFF7FEFF 		bl	__stack_chk_fail
 361              	.LVL20:
 362              	.L17:
 363 0036 00BF     		.align	2
 364              	.L16:
 365 0038 00000000 		.word	.LC7
 366 003c 00000000 		.word	.LANCHOR0
 367              		.cfi_endproc
 368              	.LFE220:
 369              		.size	thread1, .-thread1
 370              		.section	.rodata.thread12.cst4,"aM",%progbits,4
 371              		.align	2
 372              	.LC8:
 373 0000 00000000 		.word	__stack_chk_guard
 374              		.section	.text.thread12,"ax",%progbits
 375              		.align	1
 376              		.p2align 4,,15
 377              		.syntax unified
 378              		.thumb
 379              		.thumb_func
 380              		.fpu fpv4-sp-d16
 381              		.type	thread12, %function
 382              	thread12:
 383              	.LVL21:
 384              	.LFB247:
 385              		.loc 1 576 34 is_stmt 1 view -0
 386              		.cfi_startproc
 387              		@ args = 0, pretend = 0, frame = 8
 388              		@ frame_needed = 0, uses_anonymous_args = 0
 389              		.loc 1 576 34 is_stmt 0 view .LVU73
 390 0000 10B5     		push	{r4, lr}
 391              		.cfi_def_cfa_offset 8
 392              		.cfi_offset 4, -8
 393              		.cfi_offset 14, -4
 394 0002 0D4B     		ldr	r3, .L23
 395 0004 0446     		mov	r4, r0
 396 0006 82B0     		sub	sp, sp, #8
 397              		.cfi_def_cfa_offset 16
 398              		.loc 1 578 3 view .LVU74
ARM GAS  /tmp/ccqhiTbD.s 			page 8


 399 0008 0C48     		ldr	r0, .L23+4
 400              	.LVL22:
 401              		.loc 1 576 34 view .LVU75
 402 000a 1B68     		ldr	r3, [r3]
 403 000c 0193     		str	r3, [sp, #4]
 404 000e 4FF00003 		mov	r3,#0
 405              		.loc 1 578 3 is_stmt 1 view .LVU76
 406 0012 FFF7FEFF 		bl	chMtxLock
 407              	.LVL23:
 408              		.loc 1 579 3 view .LVU77
 409 0016 2078     		ldrb	r0, [r4]	@ zero_extendqisi2
 410 0018 FFF7FEFF 		bl	test_emit_token
 411              	.LVL24:
 412              		.loc 1 580 3 view .LVU78
 413 001c 064B     		ldr	r3, .L23
 414 001e 1A68     		ldr	r2, [r3]
 415 0020 019B     		ldr	r3, [sp, #4]
 416 0022 5A40     		eors	r2, r3, r2
 417 0024 05D1     		bne	.L22
 418 0026 0548     		ldr	r0, .L23+4
 419              		.loc 1 581 1 is_stmt 0 view .LVU79
 420 0028 02B0     		add	sp, sp, #8
 421              		.cfi_remember_state
 422              		.cfi_def_cfa_offset 8
 423              		@ sp needed
 424 002a BDE81040 		pop	{r4, lr}
 425              		.cfi_restore 14
 426              		.cfi_restore 4
 427              		.cfi_def_cfa_offset 0
 428              	.LVL25:
 429              		.loc 1 580 3 view .LVU80
 430 002e FFF7FEBF 		b	chMtxUnlock
 431              	.LVL26:
 432              	.L22:
 433              		.cfi_restore_state
 434              		.loc 1 580 3 view .LVU81
 435 0032 FFF7FEFF 		bl	__stack_chk_fail
 436              	.LVL27:
 437              	.L24:
 438 0036 00BF     		.align	2
 439              	.L23:
 440 0038 00000000 		.word	.LC8
 441 003c 00000000 		.word	.LANCHOR1
 442              		.cfi_endproc
 443              	.LFE247:
 444              		.size	thread12, .-thread12
 445              		.section	.rodata.mtx1_setup.cst4,"aM",%progbits,4
 446              		.align	2
 447              	.LC9:
 448 0000 00000000 		.word	__stack_chk_guard
 449              		.section	.text.mtx1_setup,"ax",%progbits
 450              		.align	1
 451              		.p2align 4,,15
 452              		.syntax unified
 453              		.thumb
 454              		.thumb_func
 455              		.fpu fpv4-sp-d16
ARM GAS  /tmp/ccqhiTbD.s 			page 9


 456              		.type	mtx1_setup, %function
 457              	mtx1_setup:
 458              	.LFB219:
 459              		.loc 1 84 30 is_stmt 1 view -0
 460              		.cfi_startproc
 461              		@ args = 0, pretend = 0, frame = 8
 462              		@ frame_needed = 0, uses_anonymous_args = 0
 463 0000 00B5     		push	{lr}
 464              		.cfi_def_cfa_offset 4
 465              		.cfi_offset 14, -4
 466 0002 094B     		ldr	r3, .L30
 467 0004 83B0     		sub	sp, sp, #12
 468              		.cfi_def_cfa_offset 16
 469              		.loc 1 84 30 is_stmt 0 view .LVU83
 470 0006 1B68     		ldr	r3, [r3]
 471 0008 0193     		str	r3, [sp, #4]
 472 000a 4FF00003 		mov	r3,#0
 473              		.loc 1 86 3 is_stmt 1 view .LVU84
 474 000e 064B     		ldr	r3, .L30
 475 0010 1A68     		ldr	r2, [r3]
 476 0012 019B     		ldr	r3, [sp, #4]
 477 0014 5A40     		eors	r2, r3, r2
 478 0016 05D1     		bne	.L29
 479 0018 0448     		ldr	r0, .L30+4
 480              		.loc 1 87 1 is_stmt 0 view .LVU85
 481 001a 03B0     		add	sp, sp, #12
 482              		.cfi_remember_state
 483              		.cfi_def_cfa_offset 4
 484              		@ sp needed
 485 001c 5DF804EB 		ldr	lr, [sp], #4
 486              		.cfi_restore 14
 487              		.cfi_def_cfa_offset 0
 488              		.loc 1 86 3 view .LVU86
 489 0020 FFF7FEBF 		b	chMtxObjectInit
 490              	.LVL28:
 491              	.L29:
 492              		.cfi_restore_state
 493 0024 FFF7FEFF 		bl	__stack_chk_fail
 494              	.LVL29:
 495              	.L31:
 496              		.align	2
 497              	.L30:
 498 0028 00000000 		.word	.LC9
 499 002c 00000000 		.word	.LANCHOR0
 500              		.cfi_endproc
 501              	.LFE219:
 502              		.size	mtx1_setup, .-mtx1_setup
 503              		.section	.rodata.mtx2_setup.cst4,"aM",%progbits,4
 504              		.align	2
 505              	.LC10:
 506 0000 00000000 		.word	__stack_chk_guard
 507              		.section	.text.mtx2_setup,"ax",%progbits
 508              		.align	1
 509              		.p2align 4,,15
 510              		.syntax unified
 511              		.thumb
 512              		.thumb_func
ARM GAS  /tmp/ccqhiTbD.s 			page 10


 513              		.fpu fpv4-sp-d16
 514              		.type	mtx2_setup, %function
 515              	mtx2_setup:
 516              	.LFB251:
 517              		.cfi_startproc
 518              		@ args = 0, pretend = 0, frame = 8
 519              		@ frame_needed = 0, uses_anonymous_args = 0
 520 0000 00B5     		push	{lr}
 521              		.cfi_def_cfa_offset 4
 522              		.cfi_offset 14, -4
 523 0002 094B     		ldr	r3, .L37
 524 0004 83B0     		sub	sp, sp, #12
 525              		.cfi_def_cfa_offset 16
 526 0006 1B68     		ldr	r3, [r3]
 527 0008 0193     		str	r3, [sp, #4]
 528 000a 4FF00003 		mov	r3,#0
 529 000e 064B     		ldr	r3, .L37
 530 0010 1A68     		ldr	r2, [r3]
 531 0012 019B     		ldr	r3, [sp, #4]
 532 0014 5A40     		eors	r2, r3, r2
 533 0016 04D1     		bne	.L36
 534 0018 03B0     		add	sp, sp, #12
 535              		.cfi_remember_state
 536              		.cfi_def_cfa_offset 4
 537              		@ sp needed
 538 001a 5DF804EB 		ldr	lr, [sp], #4
 539              		.cfi_restore 14
 540              		.cfi_def_cfa_offset 0
 541 001e FFF7FEBF 		b	mtx1_setup
 542              	.L36:
 543              		.cfi_restore_state
 544 0022 FFF7FEFF 		bl	__stack_chk_fail
 545              	.L38:
 546 0026 00BF     		.align	2
 547              	.L37:
 548 0028 00000000 		.word	.LC10
 549              		.cfi_endproc
 550              	.LFE251:
 551              		.size	mtx2_setup, .-mtx2_setup
 552              		.section	.rodata.mtx5_setup.cst4,"aM",%progbits,4
 553              		.align	2
 554              	.LC11:
 555 0000 00000000 		.word	__stack_chk_guard
 556              		.section	.text.mtx5_setup,"ax",%progbits
 557              		.align	1
 558              		.p2align 4,,15
 559              		.syntax unified
 560              		.thumb
 561              		.thumb_func
 562              		.fpu fpv4-sp-d16
 563              		.type	mtx5_setup, %function
 564              	mtx5_setup:
 565              	.LFB253:
 566              		.cfi_startproc
 567              		@ args = 0, pretend = 0, frame = 8
 568              		@ frame_needed = 0, uses_anonymous_args = 0
 569 0000 00B5     		push	{lr}
ARM GAS  /tmp/ccqhiTbD.s 			page 11


 570              		.cfi_def_cfa_offset 4
 571              		.cfi_offset 14, -4
 572 0002 094B     		ldr	r3, .L44
 573 0004 83B0     		sub	sp, sp, #12
 574              		.cfi_def_cfa_offset 16
 575 0006 1B68     		ldr	r3, [r3]
 576 0008 0193     		str	r3, [sp, #4]
 577 000a 4FF00003 		mov	r3,#0
 578 000e 064B     		ldr	r3, .L44
 579 0010 1A68     		ldr	r2, [r3]
 580 0012 019B     		ldr	r3, [sp, #4]
 581 0014 5A40     		eors	r2, r3, r2
 582 0016 04D1     		bne	.L43
 583 0018 03B0     		add	sp, sp, #12
 584              		.cfi_remember_state
 585              		.cfi_def_cfa_offset 4
 586              		@ sp needed
 587 001a 5DF804EB 		ldr	lr, [sp], #4
 588              		.cfi_restore 14
 589              		.cfi_def_cfa_offset 0
 590 001e FFF7FEBF 		b	mtx1_setup
 591              	.L43:
 592              		.cfi_restore_state
 593 0022 FFF7FEFF 		bl	__stack_chk_fail
 594              	.L45:
 595 0026 00BF     		.align	2
 596              	.L44:
 597 0028 00000000 		.word	.LC11
 598              		.cfi_endproc
 599              	.LFE253:
 600              		.size	mtx5_setup, .-mtx5_setup
 601              		.section	.rodata.mtx3_setup.cst4,"aM",%progbits,4
 602              		.align	2
 603              	.LC12:
 604 0000 00000000 		.word	__stack_chk_guard
 605              		.section	.text.mtx3_setup,"ax",%progbits
 606              		.align	1
 607              		.p2align 4,,15
 608              		.syntax unified
 609              		.thumb
 610              		.thumb_func
 611              		.fpu fpv4-sp-d16
 612              		.type	mtx3_setup, %function
 613              	mtx3_setup:
 614              	.LFB227:
 615              		.loc 1 237 30 is_stmt 1 view -0
 616              		.cfi_startproc
 617              		@ args = 0, pretend = 0, frame = 8
 618              		@ frame_needed = 0, uses_anonymous_args = 0
 619              		.loc 1 237 30 is_stmt 0 view .LVU88
 620 0000 00B5     		push	{lr}
 621              		.cfi_def_cfa_offset 4
 622              		.cfi_offset 14, -4
 623 0002 0B4B     		ldr	r3, .L51
 624              		.loc 1 239 3 view .LVU89
 625 0004 0B48     		ldr	r0, .L51+4
 626              		.loc 1 237 30 view .LVU90
ARM GAS  /tmp/ccqhiTbD.s 			page 12


 627 0006 83B0     		sub	sp, sp, #12
 628              		.cfi_def_cfa_offset 16
 629              		.loc 1 237 30 view .LVU91
 630 0008 1B68     		ldr	r3, [r3]
 631 000a 0193     		str	r3, [sp, #4]
 632 000c 4FF00003 		mov	r3,#0
 633              		.loc 1 239 3 is_stmt 1 view .LVU92
 634 0010 FFF7FEFF 		bl	chMtxObjectInit
 635              	.LVL30:
 636              		.loc 1 240 3 view .LVU93
 637 0014 064B     		ldr	r3, .L51
 638 0016 1A68     		ldr	r2, [r3]
 639 0018 019B     		ldr	r3, [sp, #4]
 640 001a 5A40     		eors	r2, r3, r2
 641 001c 05D1     		bne	.L50
 642 001e 0648     		ldr	r0, .L51+8
 643              		.loc 1 241 1 is_stmt 0 view .LVU94
 644 0020 03B0     		add	sp, sp, #12
 645              		.cfi_remember_state
 646              		.cfi_def_cfa_offset 4
 647              		@ sp needed
 648 0022 5DF804EB 		ldr	lr, [sp], #4
 649              		.cfi_restore 14
 650              		.cfi_def_cfa_offset 0
 651              		.loc 1 240 3 view .LVU95
 652 0026 FFF7FEBF 		b	chMtxObjectInit
 653              	.LVL31:
 654              	.L50:
 655              		.cfi_restore_state
 656 002a FFF7FEFF 		bl	__stack_chk_fail
 657              	.LVL32:
 658              	.L52:
 659 002e 00BF     		.align	2
 660              	.L51:
 661 0030 00000000 		.word	.LC12
 662 0034 00000000 		.word	.LANCHOR0
 663 0038 00000000 		.word	.LANCHOR1
 664              		.cfi_endproc
 665              	.LFE227:
 666              		.size	mtx3_setup, .-mtx3_setup
 667              		.section	.rodata.mtx4_setup.cst4,"aM",%progbits,4
 668              		.align	2
 669              	.LC13:
 670 0000 00000000 		.word	__stack_chk_guard
 671              		.section	.text.mtx4_setup,"ax",%progbits
 672              		.align	1
 673              		.p2align 4,,15
 674              		.syntax unified
 675              		.thumb
 676              		.thumb_func
 677              		.fpu fpv4-sp-d16
 678              		.type	mtx4_setup, %function
 679              	mtx4_setup:
 680              	.LFB255:
 681              		.cfi_startproc
 682              		@ args = 0, pretend = 0, frame = 8
 683              		@ frame_needed = 0, uses_anonymous_args = 0
ARM GAS  /tmp/ccqhiTbD.s 			page 13


 684 0000 00B5     		push	{lr}
 685              		.cfi_def_cfa_offset 4
 686              		.cfi_offset 14, -4
 687 0002 094B     		ldr	r3, .L58
 688 0004 83B0     		sub	sp, sp, #12
 689              		.cfi_def_cfa_offset 16
 690 0006 1B68     		ldr	r3, [r3]
 691 0008 0193     		str	r3, [sp, #4]
 692 000a 4FF00003 		mov	r3,#0
 693 000e 064B     		ldr	r3, .L58
 694 0010 1A68     		ldr	r2, [r3]
 695 0012 019B     		ldr	r3, [sp, #4]
 696 0014 5A40     		eors	r2, r3, r2
 697 0016 04D1     		bne	.L57
 698 0018 03B0     		add	sp, sp, #12
 699              		.cfi_remember_state
 700              		.cfi_def_cfa_offset 4
 701              		@ sp needed
 702 001a 5DF804EB 		ldr	lr, [sp], #4
 703              		.cfi_restore 14
 704              		.cfi_def_cfa_offset 0
 705 001e FFF7FEBF 		b	mtx3_setup
 706              	.L57:
 707              		.cfi_restore_state
 708 0022 FFF7FEFF 		bl	__stack_chk_fail
 709              	.L59:
 710 0026 00BF     		.align	2
 711              	.L58:
 712 0028 00000000 		.word	.LC13
 713              		.cfi_endproc
 714              	.LFE255:
 715              		.size	mtx4_setup, .-mtx4_setup
 716              		.section	.rodata.thread2L.cst4,"aM",%progbits,4
 717              		.align	2
 718              	.LC14:
 719 0000 00000000 		.word	__stack_chk_guard
 720              		.section	.text.thread2L,"ax",%progbits
 721              		.align	1
 722              		.p2align 4,,15
 723              		.syntax unified
 724              		.thumb
 725              		.thumb_func
 726              		.fpu fpv4-sp-d16
 727              		.type	thread2L, %function
 728              	thread2L:
 729              	.LVL33:
 730              	.LFB223:
 731              		.loc 1 156 34 is_stmt 1 view -0
 732              		.cfi_startproc
 733              		@ args = 0, pretend = 0, frame = 8
 734              		@ frame_needed = 0, uses_anonymous_args = 0
 735              		.loc 1 156 34 is_stmt 0 view .LVU97
 736 0000 00B5     		push	{lr}
 737              		.cfi_def_cfa_offset 4
 738              		.cfi_offset 14, -4
 739 0002 0F4B     		ldr	r3, .L65
 740              		.loc 1 159 3 view .LVU98
ARM GAS  /tmp/ccqhiTbD.s 			page 14


 741 0004 0F48     		ldr	r0, .L65+4
 742              	.LVL34:
 743              		.loc 1 156 34 view .LVU99
 744 0006 83B0     		sub	sp, sp, #12
 745              		.cfi_def_cfa_offset 16
 746              		.loc 1 156 34 view .LVU100
 747 0008 1B68     		ldr	r3, [r3]
 748 000a 0193     		str	r3, [sp, #4]
 749 000c 4FF00003 		mov	r3,#0
 750              		.loc 1 158 3 is_stmt 1 view .LVU101
 751              		.loc 1 159 3 view .LVU102
 752 0010 FFF7FEFF 		bl	chMtxLock
 753              	.LVL35:
 754              		.loc 1 160 3 view .LVU103
 755 0014 2820     		movs	r0, #40
 756 0016 FFF7FEFF 		bl	test_cpu_pulse
 757              	.LVL36:
 758              		.loc 1 161 3 view .LVU104
 759 001a 0A48     		ldr	r0, .L65+4
 760 001c FFF7FEFF 		bl	chMtxUnlock
 761              	.LVL37:
 762              		.loc 1 162 3 view .LVU105
 763 0020 0A20     		movs	r0, #10
 764 0022 FFF7FEFF 		bl	test_cpu_pulse
 765              	.LVL38:
 766              		.loc 1 163 3 view .LVU106
 767 0026 064B     		ldr	r3, .L65
 768 0028 1A68     		ldr	r2, [r3]
 769 002a 019B     		ldr	r3, [sp, #4]
 770 002c 5A40     		eors	r2, r3, r2
 771 002e 05D1     		bne	.L64
 772 0030 4320     		movs	r0, #67
 773              		.loc 1 164 1 is_stmt 0 view .LVU107
 774 0032 03B0     		add	sp, sp, #12
 775              		.cfi_remember_state
 776              		.cfi_def_cfa_offset 4
 777              		@ sp needed
 778 0034 5DF804EB 		ldr	lr, [sp], #4
 779              		.cfi_restore 14
 780              		.cfi_def_cfa_offset 0
 781              		.loc 1 163 3 view .LVU108
 782 0038 FFF7FEBF 		b	test_emit_token
 783              	.LVL39:
 784              	.L64:
 785              		.cfi_restore_state
 786 003c FFF7FEFF 		bl	__stack_chk_fail
 787              	.LVL40:
 788              	.L66:
 789              		.align	2
 790              	.L65:
 791 0040 00000000 		.word	.LC14
 792 0044 00000000 		.word	.LANCHOR0
 793              		.cfi_endproc
 794              	.LFE223:
 795              		.size	thread2L, .-thread2L
 796              		.section	.rodata.thread3LL.cst4,"aM",%progbits,4
 797              		.align	2
ARM GAS  /tmp/ccqhiTbD.s 			page 15


 798              	.LC15:
 799 0000 00000000 		.word	__stack_chk_guard
 800              		.section	.text.thread3LL,"ax",%progbits
 801              		.align	1
 802              		.p2align 4,,15
 803              		.syntax unified
 804              		.thumb
 805              		.thumb_func
 806              		.fpu fpv4-sp-d16
 807              		.type	thread3LL, %function
 808              	thread3LL:
 809              	.LVL41:
 810              	.LFB228:
 811              		.loc 1 244 35 is_stmt 1 view -0
 812              		.cfi_startproc
 813              		@ args = 0, pretend = 0, frame = 8
 814              		@ frame_needed = 0, uses_anonymous_args = 0
 815              		.loc 1 244 35 is_stmt 0 view .LVU110
 816 0000 00B5     		push	{lr}
 817              		.cfi_def_cfa_offset 4
 818              		.cfi_offset 14, -4
 819 0002 0E4B     		ldr	r3, .L72
 820              		.loc 1 247 3 view .LVU111
 821 0004 0E48     		ldr	r0, .L72+4
 822              	.LVL42:
 823              		.loc 1 244 35 view .LVU112
 824 0006 83B0     		sub	sp, sp, #12
 825              		.cfi_def_cfa_offset 16
 826              		.loc 1 244 35 view .LVU113
 827 0008 1B68     		ldr	r3, [r3]
 828 000a 0193     		str	r3, [sp, #4]
 829 000c 4FF00003 		mov	r3,#0
 830              		.loc 1 246 3 is_stmt 1 view .LVU114
 831              		.loc 1 247 3 view .LVU115
 832 0010 FFF7FEFF 		bl	chMtxLock
 833              	.LVL43:
 834              		.loc 1 248 3 view .LVU116
 835 0014 1E20     		movs	r0, #30
 836 0016 FFF7FEFF 		bl	test_cpu_pulse
 837              	.LVL44:
 838              		.loc 1 249 3 view .LVU117
 839 001a 0948     		ldr	r0, .L72+4
 840 001c FFF7FEFF 		bl	chMtxUnlock
 841              	.LVL45:
 842              		.loc 1 250 3 view .LVU118
 843 0020 064B     		ldr	r3, .L72
 844 0022 1A68     		ldr	r2, [r3]
 845 0024 019B     		ldr	r3, [sp, #4]
 846 0026 5A40     		eors	r2, r3, r2
 847 0028 05D1     		bne	.L71
 848 002a 4520     		movs	r0, #69
 849              		.loc 1 251 1 is_stmt 0 view .LVU119
 850 002c 03B0     		add	sp, sp, #12
 851              		.cfi_remember_state
 852              		.cfi_def_cfa_offset 4
 853              		@ sp needed
 854 002e 5DF804EB 		ldr	lr, [sp], #4
ARM GAS  /tmp/ccqhiTbD.s 			page 16


 855              		.cfi_restore 14
 856              		.cfi_def_cfa_offset 0
 857              		.loc 1 250 3 view .LVU120
 858 0032 FFF7FEBF 		b	test_emit_token
 859              	.LVL46:
 860              	.L71:
 861              		.cfi_restore_state
 862 0036 FFF7FEFF 		bl	__stack_chk_fail
 863              	.LVL47:
 864              	.L73:
 865 003a 00BF     		.align	2
 866              	.L72:
 867 003c 00000000 		.word	.LC15
 868 0040 00000000 		.word	.LANCHOR0
 869              		.cfi_endproc
 870              	.LFE228:
 871              		.size	thread3LL, .-thread3LL
 872              		.section	.rodata.thread2M.cst4,"aM",%progbits,4
 873              		.align	2
 874              	.LC16:
 875 0000 00000000 		.word	__stack_chk_guard
 876              		.section	.text.thread2M,"ax",%progbits
 877              		.align	1
 878              		.p2align 4,,15
 879              		.syntax unified
 880              		.thumb
 881              		.thumb_func
 882              		.fpu fpv4-sp-d16
 883              		.type	thread2M, %function
 884              	thread2M:
 885              	.LVL48:
 886              	.LFB224:
 887              		.loc 1 167 34 is_stmt 1 view -0
 888              		.cfi_startproc
 889              		@ args = 0, pretend = 0, frame = 8
 890              		@ frame_needed = 0, uses_anonymous_args = 0
 891              		.loc 1 167 34 is_stmt 0 view .LVU122
 892 0000 00B5     		push	{lr}
 893              		.cfi_def_cfa_offset 4
 894              		.cfi_offset 14, -4
 895 0002 0C4B     		ldr	r3, .L79
 896 0004 83B0     		sub	sp, sp, #12
 897              		.cfi_def_cfa_offset 16
 898              		.loc 1 170 3 view .LVU123
 899 0006 1420     		movs	r0, #20
 900              	.LVL49:
 901              		.loc 1 167 34 view .LVU124
 902 0008 1B68     		ldr	r3, [r3]
 903 000a 0193     		str	r3, [sp, #4]
 904 000c 4FF00003 		mov	r3,#0
 905              		.loc 1 169 3 is_stmt 1 view .LVU125
 906              		.loc 1 170 3 view .LVU126
 907 0010 FFF7FEFF 		bl	chThdSleep
 908              	.LVL50:
 909              		.loc 1 171 3 view .LVU127
 910 0014 2820     		movs	r0, #40
 911 0016 FFF7FEFF 		bl	test_cpu_pulse
ARM GAS  /tmp/ccqhiTbD.s 			page 17


 912              	.LVL51:
 913              		.loc 1 172 3 view .LVU128
 914 001a 064B     		ldr	r3, .L79
 915 001c 1A68     		ldr	r2, [r3]
 916 001e 019B     		ldr	r3, [sp, #4]
 917 0020 5A40     		eors	r2, r3, r2
 918 0022 05D1     		bne	.L78
 919 0024 4220     		movs	r0, #66
 920              		.loc 1 173 1 is_stmt 0 view .LVU129
 921 0026 03B0     		add	sp, sp, #12
 922              		.cfi_remember_state
 923              		.cfi_def_cfa_offset 4
 924              		@ sp needed
 925 0028 5DF804EB 		ldr	lr, [sp], #4
 926              		.cfi_restore 14
 927              		.cfi_def_cfa_offset 0
 928              		.loc 1 172 3 view .LVU130
 929 002c FFF7FEBF 		b	test_emit_token
 930              	.LVL52:
 931              	.L78:
 932              		.cfi_restore_state
 933 0030 FFF7FEFF 		bl	__stack_chk_fail
 934              	.LVL53:
 935              	.L80:
 936              		.align	2
 937              	.L79:
 938 0034 00000000 		.word	.LC16
 939              		.cfi_endproc
 940              	.LFE224:
 941              		.size	thread2M, .-thread2M
 942              		.section	.rodata.thread2H.cst4,"aM",%progbits,4
 943              		.align	2
 944              	.LC17:
 945 0000 00000000 		.word	__stack_chk_guard
 946              		.section	.text.thread2H,"ax",%progbits
 947              		.align	1
 948              		.p2align 4,,15
 949              		.syntax unified
 950              		.thumb
 951              		.thumb_func
 952              		.fpu fpv4-sp-d16
 953              		.type	thread2H, %function
 954              	thread2H:
 955              	.LVL54:
 956              	.LFB225:
 957              		.loc 1 176 34 is_stmt 1 view -0
 958              		.cfi_startproc
 959              		@ args = 0, pretend = 0, frame = 8
 960              		@ frame_needed = 0, uses_anonymous_args = 0
 961              		.loc 1 176 34 is_stmt 0 view .LVU132
 962 0000 00B5     		push	{lr}
 963              		.cfi_def_cfa_offset 4
 964              		.cfi_offset 14, -4
 965 0002 0F4B     		ldr	r3, .L86
 966 0004 83B0     		sub	sp, sp, #12
 967              		.cfi_def_cfa_offset 16
 968              		.loc 1 179 3 view .LVU133
ARM GAS  /tmp/ccqhiTbD.s 			page 18


 969 0006 2820     		movs	r0, #40
 970              	.LVL55:
 971              		.loc 1 176 34 view .LVU134
 972 0008 1B68     		ldr	r3, [r3]
 973 000a 0193     		str	r3, [sp, #4]
 974 000c 4FF00003 		mov	r3,#0
 975              		.loc 1 178 3 is_stmt 1 view .LVU135
 976              		.loc 1 179 3 view .LVU136
 977 0010 FFF7FEFF 		bl	chThdSleep
 978              	.LVL56:
 979              		.loc 1 180 3 view .LVU137
 980 0014 0B48     		ldr	r0, .L86+4
 981 0016 FFF7FEFF 		bl	chMtxLock
 982              	.LVL57:
 983              		.loc 1 181 3 view .LVU138
 984 001a 0A20     		movs	r0, #10
 985 001c FFF7FEFF 		bl	test_cpu_pulse
 986              	.LVL58:
 987              		.loc 1 182 3 view .LVU139
 988 0020 0848     		ldr	r0, .L86+4
 989 0022 FFF7FEFF 		bl	chMtxUnlock
 990              	.LVL59:
 991              		.loc 1 183 3 view .LVU140
 992 0026 064B     		ldr	r3, .L86
 993 0028 1A68     		ldr	r2, [r3]
 994 002a 019B     		ldr	r3, [sp, #4]
 995 002c 5A40     		eors	r2, r3, r2
 996 002e 05D1     		bne	.L85
 997 0030 4120     		movs	r0, #65
 998              		.loc 1 184 1 is_stmt 0 view .LVU141
 999 0032 03B0     		add	sp, sp, #12
 1000              		.cfi_remember_state
 1001              		.cfi_def_cfa_offset 4
 1002              		@ sp needed
 1003 0034 5DF804EB 		ldr	lr, [sp], #4
 1004              		.cfi_restore 14
 1005              		.cfi_def_cfa_offset 0
 1006              		.loc 1 183 3 view .LVU142
 1007 0038 FFF7FEBF 		b	test_emit_token
 1008              	.LVL60:
 1009              	.L85:
 1010              		.cfi_restore_state
 1011 003c FFF7FEFF 		bl	__stack_chk_fail
 1012              	.LVL61:
 1013              	.L87:
 1014              		.align	2
 1015              	.L86:
 1016 0040 00000000 		.word	.LC17
 1017 0044 00000000 		.word	.LANCHOR0
 1018              		.cfi_endproc
 1019              	.LFE225:
 1020              		.size	thread2H, .-thread2H
 1021              		.section	.rodata.thread3HH.cst4,"aM",%progbits,4
 1022              		.align	2
 1023              	.LC18:
 1024 0000 00000000 		.word	__stack_chk_guard
 1025              		.section	.text.thread3HH,"ax",%progbits
ARM GAS  /tmp/ccqhiTbD.s 			page 19


 1026              		.align	1
 1027              		.p2align 4,,15
 1028              		.syntax unified
 1029              		.thumb
 1030              		.thumb_func
 1031              		.fpu fpv4-sp-d16
 1032              		.type	thread3HH, %function
 1033              	thread3HH:
 1034              	.LVL62:
 1035              	.LFB232:
 1036              		.loc 1 289 35 is_stmt 1 view -0
 1037              		.cfi_startproc
 1038              		@ args = 0, pretend = 0, frame = 8
 1039              		@ frame_needed = 0, uses_anonymous_args = 0
 1040              		.loc 1 289 35 is_stmt 0 view .LVU144
 1041 0000 00B5     		push	{lr}
 1042              		.cfi_def_cfa_offset 4
 1043              		.cfi_offset 14, -4
 1044 0002 0F4B     		ldr	r3, .L93
 1045 0004 83B0     		sub	sp, sp, #12
 1046              		.cfi_def_cfa_offset 16
 1047              		.loc 1 292 3 view .LVU145
 1048 0006 3220     		movs	r0, #50
 1049              	.LVL63:
 1050              		.loc 1 289 35 view .LVU146
 1051 0008 1B68     		ldr	r3, [r3]
 1052 000a 0193     		str	r3, [sp, #4]
 1053 000c 4FF00003 		mov	r3,#0
 1054              		.loc 1 291 3 is_stmt 1 view .LVU147
 1055              		.loc 1 292 3 view .LVU148
 1056 0010 FFF7FEFF 		bl	chThdSleep
 1057              	.LVL64:
 1058              		.loc 1 293 3 view .LVU149
 1059 0014 0B48     		ldr	r0, .L93+4
 1060 0016 FFF7FEFF 		bl	chMtxLock
 1061              	.LVL65:
 1062              		.loc 1 294 3 view .LVU150
 1063 001a 0A20     		movs	r0, #10
 1064 001c FFF7FEFF 		bl	test_cpu_pulse
 1065              	.LVL66:
 1066              		.loc 1 295 3 view .LVU151
 1067 0020 0848     		ldr	r0, .L93+4
 1068 0022 FFF7FEFF 		bl	chMtxUnlock
 1069              	.LVL67:
 1070              		.loc 1 296 3 view .LVU152
 1071 0026 064B     		ldr	r3, .L93
 1072 0028 1A68     		ldr	r2, [r3]
 1073 002a 019B     		ldr	r3, [sp, #4]
 1074 002c 5A40     		eors	r2, r3, r2
 1075 002e 05D1     		bne	.L92
 1076 0030 4120     		movs	r0, #65
 1077              		.loc 1 297 1 is_stmt 0 view .LVU153
 1078 0032 03B0     		add	sp, sp, #12
 1079              		.cfi_remember_state
 1080              		.cfi_def_cfa_offset 4
 1081              		@ sp needed
 1082 0034 5DF804EB 		ldr	lr, [sp], #4
ARM GAS  /tmp/ccqhiTbD.s 			page 20


 1083              		.cfi_restore 14
 1084              		.cfi_def_cfa_offset 0
 1085              		.loc 1 296 3 view .LVU154
 1086 0038 FFF7FEBF 		b	test_emit_token
 1087              	.LVL68:
 1088              	.L92:
 1089              		.cfi_restore_state
 1090 003c FFF7FEFF 		bl	__stack_chk_fail
 1091              	.LVL69:
 1092              	.L94:
 1093              		.align	2
 1094              	.L93:
 1095 0040 00000000 		.word	.LC18
 1096 0044 00000000 		.word	.LANCHOR1
 1097              		.cfi_endproc
 1098              	.LFE232:
 1099              		.size	thread3HH, .-thread3HH
 1100              		.section	.rodata.thread3H.cst4,"aM",%progbits,4
 1101              		.align	2
 1102              	.LC19:
 1103 0000 00000000 		.word	__stack_chk_guard
 1104              		.section	.text.thread3H,"ax",%progbits
 1105              		.align	1
 1106              		.p2align 4,,15
 1107              		.syntax unified
 1108              		.thumb
 1109              		.thumb_func
 1110              		.fpu fpv4-sp-d16
 1111              		.type	thread3H, %function
 1112              	thread3H:
 1113              	.LVL70:
 1114              	.LFB231:
 1115              		.loc 1 280 34 is_stmt 1 view -0
 1116              		.cfi_startproc
 1117              		@ args = 0, pretend = 0, frame = 8
 1118              		@ frame_needed = 0, uses_anonymous_args = 0
 1119              		.loc 1 280 34 is_stmt 0 view .LVU156
 1120 0000 00B5     		push	{lr}
 1121              		.cfi_def_cfa_offset 4
 1122              		.cfi_offset 14, -4
 1123 0002 0C4B     		ldr	r3, .L100
 1124 0004 83B0     		sub	sp, sp, #12
 1125              		.cfi_def_cfa_offset 16
 1126              		.loc 1 283 3 view .LVU157
 1127 0006 2820     		movs	r0, #40
 1128              	.LVL71:
 1129              		.loc 1 280 34 view .LVU158
 1130 0008 1B68     		ldr	r3, [r3]
 1131 000a 0193     		str	r3, [sp, #4]
 1132 000c 4FF00003 		mov	r3,#0
 1133              		.loc 1 282 3 is_stmt 1 view .LVU159
 1134              		.loc 1 283 3 view .LVU160
 1135 0010 FFF7FEFF 		bl	chThdSleep
 1136              	.LVL72:
 1137              		.loc 1 284 3 view .LVU161
 1138 0014 1420     		movs	r0, #20
 1139 0016 FFF7FEFF 		bl	test_cpu_pulse
ARM GAS  /tmp/ccqhiTbD.s 			page 21


 1140              	.LVL73:
 1141              		.loc 1 285 3 view .LVU162
 1142 001a 064B     		ldr	r3, .L100
 1143 001c 1A68     		ldr	r2, [r3]
 1144 001e 019B     		ldr	r3, [sp, #4]
 1145 0020 5A40     		eors	r2, r3, r2
 1146 0022 05D1     		bne	.L99
 1147 0024 4220     		movs	r0, #66
 1148              		.loc 1 286 1 is_stmt 0 view .LVU163
 1149 0026 03B0     		add	sp, sp, #12
 1150              		.cfi_remember_state
 1151              		.cfi_def_cfa_offset 4
 1152              		@ sp needed
 1153 0028 5DF804EB 		ldr	lr, [sp], #4
 1154              		.cfi_restore 14
 1155              		.cfi_def_cfa_offset 0
 1156              		.loc 1 285 3 view .LVU164
 1157 002c FFF7FEBF 		b	test_emit_token
 1158              	.LVL74:
 1159              	.L99:
 1160              		.cfi_restore_state
 1161 0030 FFF7FEFF 		bl	__stack_chk_fail
 1162              	.LVL75:
 1163              	.L101:
 1164              		.align	2
 1165              	.L100:
 1166 0034 00000000 		.word	.LC19
 1167              		.cfi_endproc
 1168              	.LFE231:
 1169              		.size	thread3H, .-thread3H
 1170              		.section	.rodata.thread3M.cst4,"aM",%progbits,4
 1171              		.align	2
 1172              	.LC20:
 1173 0000 00000000 		.word	__stack_chk_guard
 1174              		.section	.text.thread3M,"ax",%progbits
 1175              		.align	1
 1176              		.p2align 4,,15
 1177              		.syntax unified
 1178              		.thumb
 1179              		.thumb_func
 1180              		.fpu fpv4-sp-d16
 1181              		.type	thread3M, %function
 1182              	thread3M:
 1183              	.LVL76:
 1184              	.LFB230:
 1185              		.loc 1 269 34 is_stmt 1 view -0
 1186              		.cfi_startproc
 1187              		@ args = 0, pretend = 0, frame = 8
 1188              		@ frame_needed = 0, uses_anonymous_args = 0
 1189              		.loc 1 269 34 is_stmt 0 view .LVU166
 1190 0000 00B5     		push	{lr}
 1191              		.cfi_def_cfa_offset 4
 1192              		.cfi_offset 14, -4
 1193 0002 0F4B     		ldr	r3, .L107
 1194 0004 83B0     		sub	sp, sp, #12
 1195              		.cfi_def_cfa_offset 16
 1196              		.loc 1 272 3 view .LVU167
ARM GAS  /tmp/ccqhiTbD.s 			page 22


 1197 0006 1420     		movs	r0, #20
 1198              	.LVL77:
 1199              		.loc 1 269 34 view .LVU168
 1200 0008 1B68     		ldr	r3, [r3]
 1201 000a 0193     		str	r3, [sp, #4]
 1202 000c 4FF00003 		mov	r3,#0
 1203              		.loc 1 271 3 is_stmt 1 view .LVU169
 1204              		.loc 1 272 3 view .LVU170
 1205 0010 FFF7FEFF 		bl	chThdSleep
 1206              	.LVL78:
 1207              		.loc 1 273 3 view .LVU171
 1208 0014 0B48     		ldr	r0, .L107+4
 1209 0016 FFF7FEFF 		bl	chMtxLock
 1210              	.LVL79:
 1211              		.loc 1 274 3 view .LVU172
 1212 001a 0A20     		movs	r0, #10
 1213 001c FFF7FEFF 		bl	test_cpu_pulse
 1214              	.LVL80:
 1215              		.loc 1 275 3 view .LVU173
 1216 0020 0848     		ldr	r0, .L107+4
 1217 0022 FFF7FEFF 		bl	chMtxUnlock
 1218              	.LVL81:
 1219              		.loc 1 276 3 view .LVU174
 1220 0026 064B     		ldr	r3, .L107
 1221 0028 1A68     		ldr	r2, [r3]
 1222 002a 019B     		ldr	r3, [sp, #4]
 1223 002c 5A40     		eors	r2, r3, r2
 1224 002e 05D1     		bne	.L106
 1225 0030 4320     		movs	r0, #67
 1226              		.loc 1 277 1 is_stmt 0 view .LVU175
 1227 0032 03B0     		add	sp, sp, #12
 1228              		.cfi_remember_state
 1229              		.cfi_def_cfa_offset 4
 1230              		@ sp needed
 1231 0034 5DF804EB 		ldr	lr, [sp], #4
 1232              		.cfi_restore 14
 1233              		.cfi_def_cfa_offset 0
 1234              		.loc 1 276 3 view .LVU176
 1235 0038 FFF7FEBF 		b	test_emit_token
 1236              	.LVL82:
 1237              	.L106:
 1238              		.cfi_restore_state
 1239 003c FFF7FEFF 		bl	__stack_chk_fail
 1240              	.LVL83:
 1241              	.L108:
 1242              		.align	2
 1243              	.L107:
 1244 0040 00000000 		.word	.LC20
 1245 0044 00000000 		.word	.LANCHOR1
 1246              		.cfi_endproc
 1247              	.LFE230:
 1248              		.size	thread3M, .-thread3M
 1249              		.section	.rodata.thread3L.cst4,"aM",%progbits,4
 1250              		.align	2
 1251              	.LC21:
 1252 0000 00000000 		.word	__stack_chk_guard
 1253              		.section	.text.thread3L,"ax",%progbits
ARM GAS  /tmp/ccqhiTbD.s 			page 23


 1254              		.align	1
 1255              		.p2align 4,,15
 1256              		.syntax unified
 1257              		.thumb
 1258              		.thumb_func
 1259              		.fpu fpv4-sp-d16
 1260              		.type	thread3L, %function
 1261              	thread3L:
 1262              	.LVL84:
 1263              	.LFB229:
 1264              		.loc 1 254 34 is_stmt 1 view -0
 1265              		.cfi_startproc
 1266              		@ args = 0, pretend = 0, frame = 8
 1267              		@ frame_needed = 0, uses_anonymous_args = 0
 1268              		.loc 1 254 34 is_stmt 0 view .LVU178
 1269 0000 00B5     		push	{lr}
 1270              		.cfi_def_cfa_offset 4
 1271              		.cfi_offset 14, -4
 1272 0002 154B     		ldr	r3, .L114
 1273 0004 83B0     		sub	sp, sp, #12
 1274              		.cfi_def_cfa_offset 16
 1275              		.loc 1 257 3 view .LVU179
 1276 0006 0A20     		movs	r0, #10
 1277              	.LVL85:
 1278              		.loc 1 254 34 view .LVU180
 1279 0008 1B68     		ldr	r3, [r3]
 1280 000a 0193     		str	r3, [sp, #4]
 1281 000c 4FF00003 		mov	r3,#0
 1282              		.loc 1 256 3 is_stmt 1 view .LVU181
 1283              		.loc 1 257 3 view .LVU182
 1284 0010 FFF7FEFF 		bl	chThdSleep
 1285              	.LVL86:
 1286              		.loc 1 258 3 view .LVU183
 1287 0014 1148     		ldr	r0, .L114+4
 1288 0016 FFF7FEFF 		bl	chMtxLock
 1289              	.LVL87:
 1290              		.loc 1 259 3 view .LVU184
 1291 001a 1420     		movs	r0, #20
 1292 001c FFF7FEFF 		bl	test_cpu_pulse
 1293              	.LVL88:
 1294              		.loc 1 260 3 view .LVU185
 1295 0020 0F48     		ldr	r0, .L114+8
 1296 0022 FFF7FEFF 		bl	chMtxLock
 1297              	.LVL89:
 1298              		.loc 1 261 3 view .LVU186
 1299 0026 0A20     		movs	r0, #10
 1300 0028 FFF7FEFF 		bl	test_cpu_pulse
 1301              	.LVL90:
 1302              		.loc 1 262 3 view .LVU187
 1303 002c 0C48     		ldr	r0, .L114+8
 1304 002e FFF7FEFF 		bl	chMtxUnlock
 1305              	.LVL91:
 1306              		.loc 1 263 3 view .LVU188
 1307 0032 0A20     		movs	r0, #10
 1308 0034 FFF7FEFF 		bl	test_cpu_pulse
 1309              	.LVL92:
 1310              		.loc 1 264 3 view .LVU189
ARM GAS  /tmp/ccqhiTbD.s 			page 24


 1311 0038 0848     		ldr	r0, .L114+4
 1312 003a FFF7FEFF 		bl	chMtxUnlock
 1313              	.LVL93:
 1314              		.loc 1 265 3 view .LVU190
 1315 003e 064B     		ldr	r3, .L114
 1316 0040 1A68     		ldr	r2, [r3]
 1317 0042 019B     		ldr	r3, [sp, #4]
 1318 0044 5A40     		eors	r2, r3, r2
 1319 0046 05D1     		bne	.L113
 1320 0048 4420     		movs	r0, #68
 1321              		.loc 1 266 1 is_stmt 0 view .LVU191
 1322 004a 03B0     		add	sp, sp, #12
 1323              		.cfi_remember_state
 1324              		.cfi_def_cfa_offset 4
 1325              		@ sp needed
 1326 004c 5DF804EB 		ldr	lr, [sp], #4
 1327              		.cfi_restore 14
 1328              		.cfi_def_cfa_offset 0
 1329              		.loc 1 265 3 view .LVU192
 1330 0050 FFF7FEBF 		b	test_emit_token
 1331              	.LVL94:
 1332              	.L113:
 1333              		.cfi_restore_state
 1334 0054 FFF7FEFF 		bl	__stack_chk_fail
 1335              	.LVL95:
 1336              	.L115:
 1337              		.align	2
 1338              	.L114:
 1339 0058 00000000 		.word	.LC21
 1340 005c 00000000 		.word	.LANCHOR1
 1341 0060 00000000 		.word	.LANCHOR0
 1342              		.cfi_endproc
 1343              	.LFE229:
 1344              		.size	thread3L, .-thread3L
 1345              		.section	.rodata.thread4b.cst4,"aM",%progbits,4
 1346              		.align	2
 1347              	.LC22:
 1348 0000 00000000 		.word	__stack_chk_guard
 1349              		.section	.text.thread4b,"ax",%progbits
 1350              		.align	1
 1351              		.p2align 4,,15
 1352              		.syntax unified
 1353              		.thumb
 1354              		.thumb_func
 1355              		.fpu fpv4-sp-d16
 1356              		.type	thread4b, %function
 1357              	thread4b:
 1358              	.LVL96:
 1359              	.LFB236:
 1360              		.loc 1 346 34 is_stmt 1 view -0
 1361              		.cfi_startproc
 1362              		@ args = 0, pretend = 0, frame = 8
 1363              		@ frame_needed = 0, uses_anonymous_args = 0
 1364              		.loc 1 346 34 is_stmt 0 view .LVU194
 1365 0000 00B5     		push	{lr}
 1366              		.cfi_def_cfa_offset 4
 1367              		.cfi_offset 14, -4
ARM GAS  /tmp/ccqhiTbD.s 			page 25


 1368 0002 0C4B     		ldr	r3, .L121
 1369 0004 83B0     		sub	sp, sp, #12
 1370              		.cfi_def_cfa_offset 16
 1371              		.loc 1 349 3 view .LVU195
 1372 0006 9620     		movs	r0, #150
 1373              	.LVL97:
 1374              		.loc 1 346 34 view .LVU196
 1375 0008 1B68     		ldr	r3, [r3]
 1376 000a 0193     		str	r3, [sp, #4]
 1377 000c 4FF00003 		mov	r3,#0
 1378              		.loc 1 348 3 is_stmt 1 view .LVU197
 1379              		.loc 1 349 3 view .LVU198
 1380 0010 FFF7FEFF 		bl	chThdSleep
 1381              	.LVL98:
 1382              		.loc 1 350 3 view .LVU199
 1383 0014 0848     		ldr	r0, .L121+4
 1384 0016 FFF7FEFF 		bl	chMtxLock
 1385              	.LVL99:
 1386              		.loc 1 351 3 view .LVU200
 1387 001a 064B     		ldr	r3, .L121
 1388 001c 1A68     		ldr	r2, [r3]
 1389 001e 019B     		ldr	r3, [sp, #4]
 1390 0020 5A40     		eors	r2, r3, r2
 1391 0022 05D1     		bne	.L120
 1392 0024 0448     		ldr	r0, .L121+4
 1393              		.loc 1 352 1 is_stmt 0 view .LVU201
 1394 0026 03B0     		add	sp, sp, #12
 1395              		.cfi_remember_state
 1396              		.cfi_def_cfa_offset 4
 1397              		@ sp needed
 1398 0028 5DF804EB 		ldr	lr, [sp], #4
 1399              		.cfi_restore 14
 1400              		.cfi_def_cfa_offset 0
 1401              		.loc 1 351 3 view .LVU202
 1402 002c FFF7FEBF 		b	chMtxUnlock
 1403              	.LVL100:
 1404              	.L120:
 1405              		.cfi_restore_state
 1406 0030 FFF7FEFF 		bl	__stack_chk_fail
 1407              	.LVL101:
 1408              	.L122:
 1409              		.align	2
 1410              	.L121:
 1411 0034 00000000 		.word	.LC22
 1412 0038 00000000 		.word	.LANCHOR0
 1413              		.cfi_endproc
 1414              	.LFE236:
 1415              		.size	thread4b, .-thread4b
 1416              		.section	.rodata.thread4a.cst4,"aM",%progbits,4
 1417              		.align	2
 1418              	.LC23:
 1419 0000 00000000 		.word	__stack_chk_guard
 1420              		.section	.text.thread4a,"ax",%progbits
 1421              		.align	1
 1422              		.p2align 4,,15
 1423              		.syntax unified
 1424              		.thumb
ARM GAS  /tmp/ccqhiTbD.s 			page 26


 1425              		.thumb_func
 1426              		.fpu fpv4-sp-d16
 1427              		.type	thread4a, %function
 1428              	thread4a:
 1429              	.LVL102:
 1430              	.LFB235:
 1431              		.loc 1 338 34 is_stmt 1 view -0
 1432              		.cfi_startproc
 1433              		@ args = 0, pretend = 0, frame = 8
 1434              		@ frame_needed = 0, uses_anonymous_args = 0
 1435              		.loc 1 338 34 is_stmt 0 view .LVU204
 1436 0000 00B5     		push	{lr}
 1437              		.cfi_def_cfa_offset 4
 1438              		.cfi_offset 14, -4
 1439 0002 0C4B     		ldr	r3, .L128
 1440 0004 83B0     		sub	sp, sp, #12
 1441              		.cfi_def_cfa_offset 16
 1442              		.loc 1 341 3 view .LVU205
 1443 0006 3220     		movs	r0, #50
 1444              	.LVL103:
 1445              		.loc 1 338 34 view .LVU206
 1446 0008 1B68     		ldr	r3, [r3]
 1447 000a 0193     		str	r3, [sp, #4]
 1448 000c 4FF00003 		mov	r3,#0
 1449              		.loc 1 340 3 is_stmt 1 view .LVU207
 1450              		.loc 1 341 3 view .LVU208
 1451 0010 FFF7FEFF 		bl	chThdSleep
 1452              	.LVL104:
 1453              		.loc 1 342 3 view .LVU209
 1454 0014 0848     		ldr	r0, .L128+4
 1455 0016 FFF7FEFF 		bl	chMtxLock
 1456              	.LVL105:
 1457              		.loc 1 343 3 view .LVU210
 1458 001a 064B     		ldr	r3, .L128
 1459 001c 1A68     		ldr	r2, [r3]
 1460 001e 019B     		ldr	r3, [sp, #4]
 1461 0020 5A40     		eors	r2, r3, r2
 1462 0022 05D1     		bne	.L127
 1463 0024 0448     		ldr	r0, .L128+4
 1464              		.loc 1 344 1 is_stmt 0 view .LVU211
 1465 0026 03B0     		add	sp, sp, #12
 1466              		.cfi_remember_state
 1467              		.cfi_def_cfa_offset 4
 1468              		@ sp needed
 1469 0028 5DF804EB 		ldr	lr, [sp], #4
 1470              		.cfi_restore 14
 1471              		.cfi_def_cfa_offset 0
 1472              		.loc 1 343 3 view .LVU212
 1473 002c FFF7FEBF 		b	chMtxUnlock
 1474              	.LVL106:
 1475              	.L127:
 1476              		.cfi_restore_state
 1477 0030 FFF7FEFF 		bl	__stack_chk_fail
 1478              	.LVL107:
 1479              	.L129:
 1480              		.align	2
 1481              	.L128:
ARM GAS  /tmp/ccqhiTbD.s 			page 27


 1482 0034 00000000 		.word	.LC23
 1483 0038 00000000 		.word	.LANCHOR1
 1484              		.cfi_endproc
 1485              	.LFE235:
 1486              		.size	thread4a, .-thread4a
 1487              		.section	.rodata.mtx4_execute.cst4,"aM",%progbits,4
 1488              		.align	2
 1489              	.LC24:
 1490 0000 00000000 		.word	__stack_chk_guard
 1491              		.section	.text.mtx4_execute,"ax",%progbits
 1492              		.align	1
 1493              		.p2align 4,,15
 1494              		.syntax unified
 1495              		.thumb
 1496              		.thumb_func
 1497              		.fpu fpv4-sp-d16
 1498              		.type	mtx4_execute, %function
 1499              	mtx4_execute:
 1500              	.LFB237:
 1501              		.loc 1 354 32 is_stmt 1 view -0
 1502              		.cfi_startproc
 1503              		@ args = 0, pretend = 0, frame = 8
 1504              		@ frame_needed = 0, uses_anonymous_args = 0
 1505 0000 2DE9F047 		push	{r4, r5, r6, r7, r8, r9, r10, lr}
 1506              		.cfi_def_cfa_offset 32
 1507              		.cfi_offset 4, -32
 1508              		.cfi_offset 5, -28
 1509              		.cfi_offset 6, -24
 1510              		.cfi_offset 7, -20
 1511              		.cfi_offset 8, -16
 1512              		.cfi_offset 9, -12
 1513              		.cfi_offset 10, -8
 1514              		.cfi_offset 14, -4
 1515              	.LBB253:
 1516              	.LBB254:
 1517              	.LBB255:
 1518              	.LBB256:
 1519              		.loc 2 176 18 is_stmt 0 view .LVU214
 1520 0004 9C4D     		ldr	r5, .L141
 1521              	.LBE256:
 1522              	.LBE255:
 1523              	.LBE254:
 1524              	.LBE253:
 1525              		.loc 1 360 16 view .LVU215
 1526 0006 9D4E     		ldr	r6, .L141+4
 1527              	.LBB262:
 1528              	.LBB259:
 1529              		.loc 2 189 25 view .LVU216
 1530 0008 AB69     		ldr	r3, [r5, #24]
 1531              	.LBE259:
 1532              	.LBE262:
 1533              		.loc 1 360 16 view .LVU217
 1534 000a D6F800A0 		ldr	r10, [r6]
 1535              	.LBB263:
 1536              	.LBB260:
 1537              		.loc 2 189 25 view .LVU218
 1538 000e 9C68     		ldr	r4, [r3, #8]
ARM GAS  /tmp/ccqhiTbD.s 			page 28


 1539              	.LBE260:
 1540              	.LBE263:
 1541              		.loc 1 354 32 view .LVU219
 1542 0010 9B49     		ldr	r1, .L141+8
 1543              		.loc 1 360 16 view .LVU220
 1544 0012 9C4B     		ldr	r3, .L141+12
 1545              		.loc 1 354 32 view .LVU221
 1546 0014 84B0     		sub	sp, sp, #16
 1547              		.cfi_def_cfa_offset 48
 1548              		.loc 1 358 6 view .LVU222
 1549 0016 671C     		adds	r7, r4, #1
 1550              		.loc 1 360 16 view .LVU223
 1551 0018 0093     		str	r3, [sp]
 1552 001a 3A46     		mov	r2, r7
 1553 001c 9A4B     		ldr	r3, .L141+16
 1554              		.loc 1 354 32 view .LVU224
 1555 001e 0968     		ldr	r1, [r1]
 1556 0020 0391     		str	r1, [sp, #12]
 1557 0022 4FF00001 		mov	r1,#0
 1558              		.loc 1 355 3 is_stmt 1 view .LVU225
 1559              		.loc 1 357 3 view .LVU226
 1560              	.LBB264:
 1561              	.LBI253:
 1562              		.loc 2 187 23 view .LVU227
 1563              	.LBB261:
 1564              		.loc 2 189 3 view .LVU228
 1565              	.LBB258:
 1566              	.LBI255:
 1567              		.loc 2 174 25 view .LVU229
 1568              	.LBB257:
 1569              		.loc 2 176 3 view .LVU230
 1570              	.LVL108:
 1571              		.loc 2 176 3 is_stmt 0 view .LVU231
 1572              	.LBE257:
 1573              	.LBE258:
 1574              	.LBE261:
 1575              	.LBE264:
 1576              		.loc 1 358 3 is_stmt 1 view .LVU232
 1577              		.loc 1 359 3 view .LVU233
 1578              		.loc 1 360 16 is_stmt 0 view .LVU234
 1579 0026 5046     		mov	r0, r10
 1580 0028 4FF4FC71 		mov	r1, #504
 1581 002c FFF7FEFF 		bl	chThdCreateStatic
 1582              	.LVL109:
 1583              		.loc 1 361 16 view .LVU235
 1584 0030 D6F80490 		ldr	r9, [r6, #4]
 1585              		.loc 1 360 14 view .LVU236
 1586 0034 954E     		ldr	r6, .L141+20
 1587              		.loc 1 361 16 view .LVU237
 1588 0036 964B     		ldr	r3, .L141+24
 1589 0038 0093     		str	r3, [sp]
 1590              		.loc 1 360 16 view .LVU238
 1591 003a 0146     		mov	r1, r0
 1592              		.loc 1 359 6 view .LVU239
 1593 003c 04F10208 		add	r8, r4, #2
 1594              	.LVL110:
 1595              		.loc 1 360 3 is_stmt 1 view .LVU240
ARM GAS  /tmp/ccqhiTbD.s 			page 29


 1596              		.loc 1 361 16 is_stmt 0 view .LVU241
 1597 0040 944B     		ldr	r3, .L141+28
 1598              		.loc 1 360 14 view .LVU242
 1599 0042 3160     		str	r1, [r6]
 1600              		.loc 1 361 3 is_stmt 1 view .LVU243
 1601              		.loc 1 361 16 is_stmt 0 view .LVU244
 1602 0044 4246     		mov	r2, r8
 1603 0046 4FF4FC71 		mov	r1, #504
 1604 004a 4846     		mov	r0, r9
 1605 004c FFF7FEFF 		bl	chThdCreateStatic
 1606              	.LVL111:
 1607 0050 0346     		mov	r3, r0
 1608              		.loc 1 362 3 view .LVU245
 1609 0052 9148     		ldr	r0, .L141+32
 1610              		.loc 1 361 14 view .LVU246
 1611 0054 7360     		str	r3, [r6, #4]
 1612              		.loc 1 362 3 is_stmt 1 view .LVU247
 1613 0056 FFF7FEFF 		bl	chMtxLock
 1614              	.LVL112:
 1615              		.loc 1 363 3 view .LVU248
 1616              	.LBB265:
 1617              	.LBI265:
 1618              		.loc 2 187 23 view .LVU249
 1619              	.LBB266:
 1620              		.loc 2 189 3 view .LVU250
 1621              	.LBB267:
 1622              	.LBI267:
 1623              		.loc 2 174 25 view .LVU251
 1624              	.LBB268:
 1625              		.loc 2 176 3 view .LVU252
 1626              	.LBE268:
 1627              	.LBE267:
 1628              		.loc 2 189 25 is_stmt 0 view .LVU253
 1629 005a AB69     		ldr	r3, [r5, #24]
 1630              	.LBE266:
 1631              	.LBE265:
 1632              		.loc 1 363 3 view .LVU254
 1633 005c 9968     		ldr	r1, [r3, #8]
 1634 005e 091B     		subs	r1, r1, r4
 1635 0060 B1FA81F1 		clz	r1, r1
 1636 0064 0120     		movs	r0, #1
 1637 0066 4909     		lsrs	r1, r1, #5
 1638 0068 FFF7FEFF 		bl	_test_assert
 1639              	.LVL113:
 1640 006c 40B1     		cbz	r0, .L139
 1641              	.L130:
 1642              		.loc 1 399 1 view .LVU255
 1643 006e 844B     		ldr	r3, .L141+8
 1644 0070 1A68     		ldr	r2, [r3]
 1645 0072 039B     		ldr	r3, [sp, #12]
 1646 0074 5A40     		eors	r2, r3, r2
 1647 0076 40F0F880 		bne	.L138
 1648 007a 04B0     		add	sp, sp, #16
 1649              		.cfi_remember_state
 1650              		.cfi_def_cfa_offset 32
 1651              		@ sp needed
 1652 007c BDE8F087 		pop	{r4, r5, r6, r7, r8, r9, r10, pc}
ARM GAS  /tmp/ccqhiTbD.s 			page 30


 1653              	.LVL114:
 1654              	.L139:
 1655              		.cfi_restore_state
 1656              		.loc 1 363 67 is_stmt 1 discriminator 2 view .LVU256
 1657              		.loc 1 364 3 discriminator 2 view .LVU257
 1658 0080 6420     		movs	r0, #100
 1659 0082 FFF7FEFF 		bl	chThdSleep
 1660              	.LVL115:
 1661              		.loc 1 365 3 discriminator 2 view .LVU258
 1662              	.LBB269:
 1663              	.LBI269:
 1664              		.loc 2 187 23 discriminator 2 view .LVU259
 1665              	.LBB270:
 1666              		.loc 2 189 3 discriminator 2 view .LVU260
 1667              	.LBB271:
 1668              	.LBI271:
 1669              		.loc 2 174 25 discriminator 2 view .LVU261
 1670              	.LBB272:
 1671              		.loc 2 176 3 discriminator 2 view .LVU262
 1672              	.LBE272:
 1673              	.LBE271:
 1674              		.loc 2 189 25 is_stmt 0 discriminator 2 view .LVU263
 1675 0086 AB69     		ldr	r3, [r5, #24]
 1676              	.LBE270:
 1677              	.LBE269:
 1678              		.loc 1 365 3 discriminator 2 view .LVU264
 1679 0088 9968     		ldr	r1, [r3, #8]
 1680 008a C91B     		subs	r1, r1, r7
 1681 008c B1FA81F1 		clz	r1, r1
 1682 0090 0220     		movs	r0, #2
 1683 0092 4909     		lsrs	r1, r1, #5
 1684 0094 FFF7FEFF 		bl	_test_assert
 1685              	.LVL116:
 1686 0098 0028     		cmp	r0, #0
 1687 009a E8D1     		bne	.L130
 1688              		.loc 1 365 68 is_stmt 1 discriminator 2 view .LVU265
 1689              		.loc 1 366 3 discriminator 2 view .LVU266
 1690 009c 7F48     		ldr	r0, .L141+36
 1691 009e FFF7FEFF 		bl	chMtxLock
 1692              	.LVL117:
 1693              		.loc 1 367 3 discriminator 2 view .LVU267
 1694              	.LBB273:
 1695              	.LBI273:
 1696              		.loc 2 187 23 discriminator 2 view .LVU268
 1697              	.LBB274:
 1698              		.loc 2 189 3 discriminator 2 view .LVU269
 1699              	.LBB275:
 1700              	.LBI275:
 1701              		.loc 2 174 25 discriminator 2 view .LVU270
 1702              	.LBB276:
 1703              		.loc 2 176 3 discriminator 2 view .LVU271
 1704              	.LBE276:
 1705              	.LBE275:
 1706              		.loc 2 189 25 is_stmt 0 discriminator 2 view .LVU272
 1707 00a2 AB69     		ldr	r3, [r5, #24]
 1708              	.LBE274:
 1709              	.LBE273:
ARM GAS  /tmp/ccqhiTbD.s 			page 31


 1710              		.loc 1 367 3 discriminator 2 view .LVU273
 1711 00a4 9968     		ldr	r1, [r3, #8]
 1712 00a6 C91B     		subs	r1, r1, r7
 1713 00a8 B1FA81F1 		clz	r1, r1
 1714 00ac 0320     		movs	r0, #3
 1715 00ae 4909     		lsrs	r1, r1, #5
 1716 00b0 FFF7FEFF 		bl	_test_assert
 1717              	.LVL118:
 1718 00b4 0028     		cmp	r0, #0
 1719 00b6 DAD1     		bne	.L130
 1720              		.loc 1 367 68 is_stmt 1 discriminator 2 view .LVU274
 1721              		.loc 1 368 3 discriminator 2 view .LVU275
 1722 00b8 6420     		movs	r0, #100
 1723 00ba FFF7FEFF 		bl	chThdSleep
 1724              	.LVL119:
 1725              		.loc 1 369 3 discriminator 2 view .LVU276
 1726              	.LBB277:
 1727              	.LBI277:
 1728              		.loc 2 187 23 discriminator 2 view .LVU277
 1729              	.LBB278:
 1730              		.loc 2 189 3 discriminator 2 view .LVU278
 1731              	.LBB279:
 1732              	.LBI279:
 1733              		.loc 2 174 25 discriminator 2 view .LVU279
 1734              	.LBB280:
 1735              		.loc 2 176 3 discriminator 2 view .LVU280
 1736              	.LBE280:
 1737              	.LBE279:
 1738              		.loc 2 189 25 is_stmt 0 discriminator 2 view .LVU281
 1739 00be AB69     		ldr	r3, [r5, #24]
 1740              	.LBE278:
 1741              	.LBE277:
 1742              		.loc 1 369 3 discriminator 2 view .LVU282
 1743 00c0 9968     		ldr	r1, [r3, #8]
 1744 00c2 A1EB0801 		sub	r1, r1, r8
 1745 00c6 B1FA81F1 		clz	r1, r1
 1746 00ca 0420     		movs	r0, #4
 1747 00cc 4909     		lsrs	r1, r1, #5
 1748 00ce FFF7FEFF 		bl	_test_assert
 1749              	.LVL120:
 1750 00d2 0028     		cmp	r0, #0
 1751 00d4 CBD1     		bne	.L130
 1752              		.loc 1 369 68 is_stmt 1 discriminator 2 view .LVU283
 1753              		.loc 1 370 3 discriminator 2 view .LVU284
 1754 00d6 7148     		ldr	r0, .L141+36
 1755 00d8 FFF7FEFF 		bl	chMtxUnlock
 1756              	.LVL121:
 1757              		.loc 1 371 3 discriminator 2 view .LVU285
 1758              	.LBB281:
 1759              	.LBI281:
 1760              		.loc 2 187 23 discriminator 2 view .LVU286
 1761              	.LBB282:
 1762              		.loc 2 189 3 discriminator 2 view .LVU287
 1763              	.LBB283:
 1764              	.LBI283:
 1765              		.loc 2 174 25 discriminator 2 view .LVU288
 1766              	.LBB284:
ARM GAS  /tmp/ccqhiTbD.s 			page 32


 1767              		.loc 2 176 3 discriminator 2 view .LVU289
 1768              	.LBE284:
 1769              	.LBE283:
 1770              		.loc 2 189 25 is_stmt 0 discriminator 2 view .LVU290
 1771 00dc AB69     		ldr	r3, [r5, #24]
 1772              	.LBE282:
 1773              	.LBE281:
 1774              		.loc 1 371 3 discriminator 2 view .LVU291
 1775 00de 9968     		ldr	r1, [r3, #8]
 1776 00e0 C91B     		subs	r1, r1, r7
 1777 00e2 B1FA81F1 		clz	r1, r1
 1778 00e6 0520     		movs	r0, #5
 1779 00e8 4909     		lsrs	r1, r1, #5
 1780 00ea FFF7FEFF 		bl	_test_assert
 1781              	.LVL122:
 1782 00ee 0028     		cmp	r0, #0
 1783 00f0 BDD1     		bne	.L130
 1784              		.loc 1 371 68 is_stmt 1 discriminator 2 view .LVU292
 1785              		.loc 1 372 3 discriminator 2 view .LVU293
 1786 00f2 6420     		movs	r0, #100
 1787 00f4 FFF7FEFF 		bl	chThdSleep
 1788              	.LVL123:
 1789              		.loc 1 373 3 discriminator 2 view .LVU294
 1790              	.LBB285:
 1791              	.LBI285:
 1792              		.loc 2 187 23 discriminator 2 view .LVU295
 1793              	.LBB286:
 1794              		.loc 2 189 3 discriminator 2 view .LVU296
 1795              	.LBB287:
 1796              	.LBI287:
 1797              		.loc 2 174 25 discriminator 2 view .LVU297
 1798              	.LBB288:
 1799              		.loc 2 176 3 discriminator 2 view .LVU298
 1800              	.LBE288:
 1801              	.LBE287:
 1802              		.loc 2 189 25 is_stmt 0 discriminator 2 view .LVU299
 1803 00f8 AB69     		ldr	r3, [r5, #24]
 1804              	.LBE286:
 1805              	.LBE285:
 1806              		.loc 1 373 3 discriminator 2 view .LVU300
 1807 00fa 9968     		ldr	r1, [r3, #8]
 1808 00fc C91B     		subs	r1, r1, r7
 1809 00fe B1FA81F1 		clz	r1, r1
 1810 0102 0620     		movs	r0, #6
 1811 0104 4909     		lsrs	r1, r1, #5
 1812 0106 FFF7FEFF 		bl	_test_assert
 1813              	.LVL124:
 1814 010a 0028     		cmp	r0, #0
 1815 010c AFD1     		bne	.L130
 1816              		.loc 1 373 68 is_stmt 1 discriminator 2 view .LVU301
 1817              		.loc 1 374 3 discriminator 2 view .LVU302
 1818 010e FFF7FEFF 		bl	chMtxUnlockAll
 1819              	.LVL125:
 1820              		.loc 1 375 3 discriminator 2 view .LVU303
 1821              	.LBB289:
 1822              	.LBI289:
 1823              		.loc 2 187 23 discriminator 2 view .LVU304
ARM GAS  /tmp/ccqhiTbD.s 			page 33


 1824              	.LBB290:
 1825              		.loc 2 189 3 discriminator 2 view .LVU305
 1826              	.LBB291:
 1827              	.LBI291:
 1828              		.loc 2 174 25 discriminator 2 view .LVU306
 1829              	.LBB292:
 1830              		.loc 2 176 3 discriminator 2 view .LVU307
 1831              	.LBE292:
 1832              	.LBE291:
 1833              		.loc 2 189 25 is_stmt 0 discriminator 2 view .LVU308
 1834 0112 AB69     		ldr	r3, [r5, #24]
 1835              	.LBE290:
 1836              	.LBE289:
 1837              		.loc 1 375 3 discriminator 2 view .LVU309
 1838 0114 9968     		ldr	r1, [r3, #8]
 1839 0116 091B     		subs	r1, r1, r4
 1840 0118 B1FA81F1 		clz	r1, r1
 1841 011c 0720     		movs	r0, #7
 1842 011e 4909     		lsrs	r1, r1, #5
 1843 0120 FFF7FEFF 		bl	_test_assert
 1844              	.LVL126:
 1845 0124 0028     		cmp	r0, #0
 1846 0126 A2D1     		bne	.L130
 1847              		.loc 1 375 67 is_stmt 1 discriminator 2 view .LVU310
 1848              		.loc 1 376 3 discriminator 2 view .LVU311
 1849 0128 FFF7FEFF 		bl	test_wait_threads
 1850              	.LVL127:
 1851              		.loc 1 379 3 discriminator 2 view .LVU312
 1852              		.loc 1 379 16 is_stmt 0 discriminator 2 view .LVU313
 1853 012c 5C4B     		ldr	r3, .L141+40
 1854 012e 0093     		str	r3, [sp]
 1855 0130 3A46     		mov	r2, r7
 1856 0132 554B     		ldr	r3, .L141+16
 1857 0134 4FF4FC71 		mov	r1, #504
 1858 0138 5046     		mov	r0, r10
 1859 013a FFF7FEFF 		bl	chThdCreateStatic
 1860              	.LVL128:
 1861              		.loc 1 380 16 discriminator 2 view .LVU314
 1862 013e 594B     		ldr	r3, .L141+44
 1863 0140 0093     		str	r3, [sp]
 1864              		.loc 1 379 16 discriminator 2 view .LVU315
 1865 0142 0246     		mov	r2, r0
 1866              		.loc 1 380 16 discriminator 2 view .LVU316
 1867 0144 4FF4FC71 		mov	r1, #504
 1868 0148 524B     		ldr	r3, .L141+28
 1869              		.loc 1 379 14 discriminator 2 view .LVU317
 1870 014a 3260     		str	r2, [r6]
 1871              		.loc 1 380 3 is_stmt 1 discriminator 2 view .LVU318
 1872              		.loc 1 380 16 is_stmt 0 discriminator 2 view .LVU319
 1873 014c 4846     		mov	r0, r9
 1874 014e 4246     		mov	r2, r8
 1875 0150 FFF7FEFF 		bl	chThdCreateStatic
 1876              	.LVL129:
 1877 0154 0346     		mov	r3, r0
 1878              		.loc 1 381 3 discriminator 2 view .LVU320
 1879 0156 5048     		ldr	r0, .L141+32
 1880              		.loc 1 380 14 discriminator 2 view .LVU321
ARM GAS  /tmp/ccqhiTbD.s 			page 34


 1881 0158 7360     		str	r3, [r6, #4]
 1882              		.loc 1 381 3 is_stmt 1 discriminator 2 view .LVU322
 1883 015a FFF7FEFF 		bl	chMtxLock
 1884              	.LVL130:
 1885              		.loc 1 382 3 discriminator 2 view .LVU323
 1886              	.LBB293:
 1887              	.LBI293:
 1888              		.loc 2 187 23 discriminator 2 view .LVU324
 1889              	.LBB294:
 1890              		.loc 2 189 3 discriminator 2 view .LVU325
 1891              	.LBB295:
 1892              	.LBI295:
 1893              		.loc 2 174 25 discriminator 2 view .LVU326
 1894              	.LBB296:
 1895              		.loc 2 176 3 discriminator 2 view .LVU327
 1896              	.LBE296:
 1897              	.LBE295:
 1898              		.loc 2 189 25 is_stmt 0 discriminator 2 view .LVU328
 1899 015e AB69     		ldr	r3, [r5, #24]
 1900              	.LBE294:
 1901              	.LBE293:
 1902              		.loc 1 382 3 discriminator 2 view .LVU329
 1903 0160 9968     		ldr	r1, [r3, #8]
 1904 0162 091B     		subs	r1, r1, r4
 1905 0164 B1FA81F1 		clz	r1, r1
 1906 0168 0820     		movs	r0, #8
 1907 016a 4909     		lsrs	r1, r1, #5
 1908 016c FFF7FEFF 		bl	_test_assert
 1909              	.LVL131:
 1910 0170 0028     		cmp	r0, #0
 1911 0172 7FF47CAF 		bne	.L130
 1912              		.loc 1 382 67 is_stmt 1 discriminator 2 view .LVU330
 1913              		.loc 1 383 3 discriminator 2 view .LVU331
 1914 0176 6420     		movs	r0, #100
 1915 0178 FFF7FEFF 		bl	chThdSleep
 1916              	.LVL132:
 1917              		.loc 1 384 3 discriminator 2 view .LVU332
 1918              	.LBB297:
 1919              	.LBI297:
 1920              		.loc 2 187 23 discriminator 2 view .LVU333
 1921              	.LBB298:
 1922              		.loc 2 189 3 discriminator 2 view .LVU334
 1923              	.LBB299:
 1924              	.LBI299:
 1925              		.loc 2 174 25 discriminator 2 view .LVU335
 1926              	.LBB300:
 1927              		.loc 2 176 3 discriminator 2 view .LVU336
 1928              	.LBE300:
 1929              	.LBE299:
 1930              		.loc 2 189 25 is_stmt 0 discriminator 2 view .LVU337
 1931 017c AB69     		ldr	r3, [r5, #24]
 1932              	.LBE298:
 1933              	.LBE297:
 1934              		.loc 1 384 3 discriminator 2 view .LVU338
 1935 017e 9968     		ldr	r1, [r3, #8]
 1936 0180 C91B     		subs	r1, r1, r7
 1937 0182 B1FA81F1 		clz	r1, r1
ARM GAS  /tmp/ccqhiTbD.s 			page 35


 1938 0186 0920     		movs	r0, #9
 1939 0188 4909     		lsrs	r1, r1, #5
 1940 018a FFF7FEFF 		bl	_test_assert
 1941              	.LVL133:
 1942 018e 0028     		cmp	r0, #0
 1943 0190 7FF46DAF 		bne	.L130
 1944              		.loc 1 384 68 is_stmt 1 discriminator 2 view .LVU339
 1945              		.loc 1 385 3 discriminator 2 view .LVU340
 1946 0194 4148     		ldr	r0, .L141+36
 1947 0196 FFF7FEFF 		bl	chMtxLock
 1948              	.LVL134:
 1949              		.loc 1 386 3 discriminator 2 view .LVU341
 1950              	.LBB301:
 1951              	.LBI301:
 1952              		.loc 2 187 23 discriminator 2 view .LVU342
 1953              	.LBB302:
 1954              		.loc 2 189 3 discriminator 2 view .LVU343
 1955              	.LBB303:
 1956              	.LBI303:
 1957              		.loc 2 174 25 discriminator 2 view .LVU344
 1958              	.LBB304:
 1959              		.loc 2 176 3 discriminator 2 view .LVU345
 1960              	.LBE304:
 1961              	.LBE303:
 1962              		.loc 2 189 25 is_stmt 0 discriminator 2 view .LVU346
 1963 019a AB69     		ldr	r3, [r5, #24]
 1964              	.LBE302:
 1965              	.LBE301:
 1966              		.loc 1 386 3 discriminator 2 view .LVU347
 1967 019c 9968     		ldr	r1, [r3, #8]
 1968 019e C91B     		subs	r1, r1, r7
 1969 01a0 B1FA81F1 		clz	r1, r1
 1970 01a4 0A20     		movs	r0, #10
 1971 01a6 4909     		lsrs	r1, r1, #5
 1972 01a8 FFF7FEFF 		bl	_test_assert
 1973              	.LVL135:
 1974 01ac 0028     		cmp	r0, #0
 1975 01ae 7FF45EAF 		bne	.L130
 1976              		.loc 1 386 69 is_stmt 1 discriminator 2 view .LVU348
 1977              		.loc 1 387 3 discriminator 2 view .LVU349
 1978 01b2 6420     		movs	r0, #100
 1979 01b4 FFF7FEFF 		bl	chThdSleep
 1980              	.LVL136:
 1981              		.loc 1 388 3 discriminator 2 view .LVU350
 1982              	.LBB305:
 1983              	.LBI305:
 1984              		.loc 2 187 23 discriminator 2 view .LVU351
 1985              	.LBB306:
 1986              		.loc 2 189 3 discriminator 2 view .LVU352
 1987              	.LBB307:
 1988              	.LBI307:
 1989              		.loc 2 174 25 discriminator 2 view .LVU353
 1990              	.LBB308:
 1991              		.loc 2 176 3 discriminator 2 view .LVU354
 1992              	.LBE308:
 1993              	.LBE307:
 1994              		.loc 2 189 25 is_stmt 0 discriminator 2 view .LVU355
ARM GAS  /tmp/ccqhiTbD.s 			page 36


 1995 01b8 AB69     		ldr	r3, [r5, #24]
 1996              	.LBE306:
 1997              	.LBE305:
 1998              		.loc 1 388 3 discriminator 2 view .LVU356
 1999 01ba 9968     		ldr	r1, [r3, #8]
 2000 01bc A1EB080C 		sub	ip, r1, r8
 2001 01c0 DCF10001 		rsbs	r1, ip, #0
 2002 01c4 41EB0C01 		adc	r1, r1, ip
 2003 01c8 0B20     		movs	r0, #11
 2004 01ca FFF7FEFF 		bl	_test_assert
 2005              	.LVL137:
 2006 01ce 0028     		cmp	r0, #0
 2007 01d0 7FF44DAF 		bne	.L130
 2008              		.loc 1 388 69 is_stmt 1 view .LVU357
 2009              		.loc 1 389 3 view .LVU358
 2010              	.LBB309:
 2011              	.LBI309:
 2012              		.file 3 ".//ChibiOS//os/rt/include/chsys.h"
 2013              		.loc 3 346 20 view .LVU359
 2014              	.LBB310:
 2015              		.loc 3 348 3 view .LVU360
 2016              	.LBB311:
 2017              	.LBI311:
 2018              		.file 4 ".//ChibiOS//os/rt/ports/ARMCMx/chcore_v7m.h"
 2019              		.loc 4 444 20 view .LVU361
 2020              	.LBE311:
 2021              	.LBE310:
 2022              	.LBE309:
 2023              		.loc 4 447 3 view .LVU362
 2024              	.LVL138:
 2025              	.LBB316:
 2026              	.LBB315:
 2027              	.LBB314:
 2028              	.LBB312:
 2029              	.LBI312:
 2030              		.file 5 ".//ChibiOS//os/ext/CMSIS/include/core_cmFunc.h"
 2031              		.loc 5 544 57 view .LVU363
 2032              	.LBB313:
 2033              		.loc 5 546 3 view .LVU364
 2034 01d4 2023     		movs	r3, #32
 2035              		.syntax unified
 2036              	@ 546 ".//ChibiOS//os/ext/CMSIS/include/core_cmFunc.h" 1
 2037 01d6 83F31188 		MSR basepri, r3
 2038              	@ 0 "" 2
 2039              	.LVL139:
 2040              		.loc 5 546 3 is_stmt 0 view .LVU365
 2041              		.thumb
 2042              		.syntax unified
 2043              	.LBE313:
 2044              	.LBE312:
 2045              	.LBE314:
 2046              		.loc 3 349 3 is_stmt 1 view .LVU366
 2047 01da FFF7FEFF 		bl	_stats_start_measure_crit_thd
 2048              	.LVL140:
 2049              		.loc 3 350 3 view .LVU367
 2050 01de FFF7FEFF 		bl	_dbg_check_lock
 2051              	.LVL141:
ARM GAS  /tmp/ccqhiTbD.s 			page 37


 2052              	.LBE315:
 2053              	.LBE316:
 2054              		.loc 1 390 3 view .LVU368
 2055 01e2 2E48     		ldr	r0, .L141+36
 2056 01e4 FFF7FEFF 		bl	chMtxUnlockS
 2057              	.LVL142:
 2058              		.loc 1 391 3 view .LVU369
 2059 01e8 FFF7FEFF 		bl	chSchRescheduleS
 2060              	.LVL143:
 2061              		.loc 1 392 3 view .LVU370
 2062              	.LBB317:
 2063              	.LBI317:
 2064              		.loc 3 358 20 view .LVU371
 2065              	.LBB318:
 2066              		.loc 3 360 3 view .LVU372
 2067 01ec FFF7FEFF 		bl	_dbg_check_unlock
 2068              	.LVL144:
 2069              		.loc 3 361 3 view .LVU373
 2070 01f0 FFF7FEFF 		bl	_stats_stop_measure_crit_thd
 2071              	.LVL145:
 2072              		.loc 3 367 3 view .LVU374
 2073              		.loc 3 367 3 view .LVU375
 2074              		.loc 3 367 3 view .LVU376
 2075 01f4 2B68     		ldr	r3, [r5]
 2076 01f6 AB42     		cmp	r3, r5
 2077 01f8 04D0     		beq	.L134
 2078 01fa AA69     		ldr	r2, [r5, #24]
 2079 01fc 9B68     		ldr	r3, [r3, #8]
 2080 01fe 9268     		ldr	r2, [r2, #8]
 2081 0200 9A42     		cmp	r2, r3
 2082 0202 34D3     		bcc	.L140
 2083              	.L134:
 2084              		.loc 3 367 3 view .LVU377
 2085              		.loc 3 371 3 view .LVU378
 2086              	.LBB319:
 2087              	.LBI319:
 2088              		.loc 4 458 20 view .LVU379
 2089              	.LBE319:
 2090              	.LBE318:
 2091              	.LBE317:
 2092              		.loc 4 461 3 view .LVU380
 2093              	.LVL146:
 2094              	.LBB325:
 2095              	.LBB323:
 2096              	.LBB322:
 2097              	.LBB320:
 2098              	.LBI320:
 2099              		.loc 5 544 57 view .LVU381
 2100              	.LBB321:
 2101              		.loc 5 546 3 view .LVU382
 2102 0204 0023     		movs	r3, #0
 2103              		.syntax unified
 2104              	@ 546 ".//ChibiOS//os/ext/CMSIS/include/core_cmFunc.h" 1
 2105 0206 83F31188 		MSR basepri, r3
 2106              	@ 0 "" 2
 2107              	.LVL147:
 2108              		.loc 5 546 3 is_stmt 0 view .LVU383
ARM GAS  /tmp/ccqhiTbD.s 			page 38


 2109              		.thumb
 2110              		.syntax unified
 2111              	.LBE321:
 2112              	.LBE320:
 2113              	.LBE322:
 2114              	.LBE323:
 2115              	.LBE325:
 2116              		.loc 1 393 3 is_stmt 1 view .LVU384
 2117              	.LBB326:
 2118              	.LBI326:
 2119              		.loc 2 187 23 view .LVU385
 2120              	.LBB327:
 2121              		.loc 2 189 3 view .LVU386
 2122              	.LBB328:
 2123              	.LBI328:
 2124              		.loc 2 174 25 view .LVU387
 2125              	.LBB329:
 2126              		.loc 2 176 3 view .LVU388
 2127              	.LBE329:
 2128              	.LBE328:
 2129              		.loc 2 189 25 is_stmt 0 view .LVU389
 2130 020a AB69     		ldr	r3, [r5, #24]
 2131              	.LBE327:
 2132              	.LBE326:
 2133              		.loc 1 393 3 view .LVU390
 2134 020c 9968     		ldr	r1, [r3, #8]
 2135 020e CE1B     		subs	r6, r1, r7
 2136 0210 7142     		rsbs	r1, r6, #0
 2137 0212 7141     		adcs	r1, r1, r6
 2138 0214 0C20     		movs	r0, #12
 2139 0216 FFF7FEFF 		bl	_test_assert
 2140              	.LVL148:
 2141 021a 0028     		cmp	r0, #0
 2142 021c 7FF427AF 		bne	.L130
 2143              		.loc 1 393 69 is_stmt 1 discriminator 2 view .LVU391
 2144              		.loc 1 394 3 discriminator 2 view .LVU392
 2145 0220 6420     		movs	r0, #100
 2146 0222 FFF7FEFF 		bl	chThdSleep
 2147              	.LVL149:
 2148              		.loc 1 395 3 discriminator 2 view .LVU393
 2149              	.LBB330:
 2150              	.LBI330:
 2151              		.loc 2 187 23 discriminator 2 view .LVU394
 2152              	.LBB331:
 2153              		.loc 2 189 3 discriminator 2 view .LVU395
 2154              	.LBB332:
 2155              	.LBI332:
 2156              		.loc 2 174 25 discriminator 2 view .LVU396
 2157              	.LBB333:
 2158              		.loc 2 176 3 discriminator 2 view .LVU397
 2159              	.LBE333:
 2160              	.LBE332:
 2161              		.loc 2 189 25 is_stmt 0 discriminator 2 view .LVU398
 2162 0226 AB69     		ldr	r3, [r5, #24]
 2163              	.LBE331:
 2164              	.LBE330:
 2165              		.loc 1 395 3 discriminator 2 view .LVU399
ARM GAS  /tmp/ccqhiTbD.s 			page 39


 2166 0228 9968     		ldr	r1, [r3, #8]
 2167 022a CA1B     		subs	r2, r1, r7
 2168 022c 5142     		rsbs	r1, r2, #0
 2169 022e 5141     		adcs	r1, r1, r2
 2170 0230 0D20     		movs	r0, #13
 2171 0232 FFF7FEFF 		bl	_test_assert
 2172              	.LVL150:
 2173 0236 0028     		cmp	r0, #0
 2174 0238 7FF419AF 		bne	.L130
 2175              		.loc 1 395 69 is_stmt 1 discriminator 2 view .LVU400
 2176              		.loc 1 396 3 discriminator 2 view .LVU401
 2177 023c FFF7FEFF 		bl	chMtxUnlockAll
 2178              	.LVL151:
 2179              		.loc 1 397 3 discriminator 2 view .LVU402
 2180              	.LBB334:
 2181              	.LBI334:
 2182              		.loc 2 187 23 discriminator 2 view .LVU403
 2183              	.LBB335:
 2184              		.loc 2 189 3 discriminator 2 view .LVU404
 2185              	.LBB336:
 2186              	.LBI336:
 2187              		.loc 2 174 25 discriminator 2 view .LVU405
 2188              	.LBB337:
 2189              		.loc 2 176 3 discriminator 2 view .LVU406
 2190              	.LBE337:
 2191              	.LBE336:
 2192              		.loc 2 189 25 is_stmt 0 discriminator 2 view .LVU407
 2193 0240 AB69     		ldr	r3, [r5, #24]
 2194              	.LBE335:
 2195              	.LBE334:
 2196              		.loc 1 397 3 discriminator 2 view .LVU408
 2197 0242 9968     		ldr	r1, [r3, #8]
 2198 0244 0B1B     		subs	r3, r1, r4
 2199 0246 5942     		rsbs	r1, r3, #0
 2200 0248 5941     		adcs	r1, r1, r3
 2201 024a 0E20     		movs	r0, #14
 2202 024c FFF7FEFF 		bl	_test_assert
 2203              	.LVL152:
 2204 0250 0028     		cmp	r0, #0
 2205 0252 7FF40CAF 		bne	.L130
 2206              		.loc 1 397 68 is_stmt 1 discriminator 2 view .LVU409
 2207              		.loc 1 398 3 discriminator 2 view .LVU410
 2208 0256 0A4B     		ldr	r3, .L141+8
 2209 0258 1A68     		ldr	r2, [r3]
 2210 025a 039B     		ldr	r3, [sp, #12]
 2211 025c 5A40     		eors	r2, r3, r2
 2212 025e 04D1     		bne	.L138
 2213              		.loc 1 399 1 is_stmt 0 discriminator 2 view .LVU411
 2214 0260 04B0     		add	sp, sp, #16
 2215              		.cfi_remember_state
 2216              		.cfi_def_cfa_offset 32
 2217              		@ sp needed
 2218 0262 BDE8F047 		pop	{r4, r5, r6, r7, r8, r9, r10, lr}
 2219              		.cfi_restore 14
 2220              		.cfi_restore 10
 2221              		.cfi_restore 9
 2222              		.cfi_restore 8
ARM GAS  /tmp/ccqhiTbD.s 			page 40


 2223              		.cfi_restore 7
 2224              		.cfi_restore 6
 2225              		.cfi_restore 5
 2226              		.cfi_restore 4
 2227              		.cfi_def_cfa_offset 0
 2228              	.LVL153:
 2229              		.loc 1 398 3 discriminator 2 view .LVU412
 2230 0266 FFF7FEBF 		b	test_wait_threads
 2231              	.LVL154:
 2232              	.L138:
 2233              		.cfi_restore_state
 2234              		.loc 1 399 1 view .LVU413
 2235 026a FFF7FEFF 		bl	__stack_chk_fail
 2236              	.LVL155:
 2237              	.L140:
 2238              	.LBB338:
 2239              	.LBB324:
 2240              		.loc 3 367 3 is_stmt 1 view .LVU414
 2241 026e 0E48     		ldr	r0, .L141+48
 2242 0270 FFF7FEFF 		bl	chSysHalt
 2243              	.LVL156:
 2244 0274 C6E7     		b	.L134
 2245              	.L142:
 2246 0276 00BF     		.align	2
 2247              	.L141:
 2248 0278 00000000 		.word	ch
 2249 027c 00000000 		.word	wa
 2250 0280 00000000 		.word	.LC24
 2251 0284 0C000000 		.word	.LC3
 2252 0288 00000000 		.word	thread4a
 2253 028c 00000000 		.word	threads
 2254 0290 10000000 		.word	.LC4
 2255 0294 00000000 		.word	thread4b
 2256 0298 00000000 		.word	.LANCHOR1
 2257 029c 00000000 		.word	.LANCHOR0
 2258 02a0 04000000 		.word	.LC1
 2259 02a4 08000000 		.word	.LC2
 2260 02a8 00000000 		.word	.LANCHOR2
 2261              	.LBE324:
 2262              	.LBE338:
 2263              		.cfi_endproc
 2264              	.LFE237:
 2265              		.size	mtx4_execute, .-mtx4_execute
 2266              		.section	.rodata.thread10.cst4,"aM",%progbits,4
 2267              		.align	2
 2268              	.LC25:
 2269 0000 00000000 		.word	__stack_chk_guard
 2270              		.section	.text.thread10,"ax",%progbits
 2271              		.align	1
 2272              		.p2align 4,,15
 2273              		.syntax unified
 2274              		.thumb
 2275              		.thumb_func
 2276              		.fpu fpv4-sp-d16
 2277              		.type	thread10, %function
 2278              	thread10:
 2279              	.LVL157:
ARM GAS  /tmp/ccqhiTbD.s 			page 41


 2280              	.LFB241:
 2281              		.loc 1 475 34 view -0
 2282              		.cfi_startproc
 2283              		@ args = 0, pretend = 0, frame = 8
 2284              		@ frame_needed = 0, uses_anonymous_args = 0
 2285              		.loc 1 475 34 is_stmt 0 view .LVU416
 2286 0000 10B5     		push	{r4, lr}
 2287              		.cfi_def_cfa_offset 8
 2288              		.cfi_offset 4, -8
 2289              		.cfi_offset 14, -4
 2290 0002 0E4B     		ldr	r3, .L148
 2291 0004 82B0     		sub	sp, sp, #8
 2292              		.cfi_def_cfa_offset 16
 2293              		.loc 1 475 34 view .LVU417
 2294 0006 0446     		mov	r4, r0
 2295              		.loc 1 477 3 view .LVU418
 2296 0008 0D48     		ldr	r0, .L148+4
 2297              	.LVL158:
 2298              		.loc 1 475 34 view .LVU419
 2299 000a 1B68     		ldr	r3, [r3]
 2300 000c 0193     		str	r3, [sp, #4]
 2301 000e 4FF00003 		mov	r3,#0
 2302              		.loc 1 477 3 is_stmt 1 view .LVU420
 2303 0012 FFF7FEFF 		bl	chMtxLock
 2304              	.LVL159:
 2305              		.loc 1 478 3 view .LVU421
 2306 0016 0B48     		ldr	r0, .L148+8
 2307 0018 FFF7FEFF 		bl	chCondWait
 2308              	.LVL160:
 2309              		.loc 1 479 3 view .LVU422
 2310 001c 2078     		ldrb	r0, [r4]	@ zero_extendqisi2
 2311 001e FFF7FEFF 		bl	test_emit_token
 2312              	.LVL161:
 2313              		.loc 1 480 3 view .LVU423
 2314 0022 064B     		ldr	r3, .L148
 2315 0024 1A68     		ldr	r2, [r3]
 2316 0026 019B     		ldr	r3, [sp, #4]
 2317 0028 5A40     		eors	r2, r3, r2
 2318 002a 05D1     		bne	.L147
 2319 002c 0448     		ldr	r0, .L148+4
 2320              		.loc 1 481 1 is_stmt 0 view .LVU424
 2321 002e 02B0     		add	sp, sp, #8
 2322              		.cfi_remember_state
 2323              		.cfi_def_cfa_offset 8
 2324              		@ sp needed
 2325 0030 BDE81040 		pop	{r4, lr}
 2326              		.cfi_restore 14
 2327              		.cfi_restore 4
 2328              		.cfi_def_cfa_offset 0
 2329              	.LVL162:
 2330              		.loc 1 480 3 view .LVU425
 2331 0034 FFF7FEBF 		b	chMtxUnlock
 2332              	.LVL163:
 2333              	.L147:
 2334              		.cfi_restore_state
 2335              		.loc 1 480 3 view .LVU426
 2336 0038 FFF7FEFF 		bl	__stack_chk_fail
ARM GAS  /tmp/ccqhiTbD.s 			page 42


 2337              	.LVL164:
 2338              	.L149:
 2339              		.align	2
 2340              	.L148:
 2341 003c 00000000 		.word	.LC25
 2342 0040 00000000 		.word	.LANCHOR0
 2343 0044 00000000 		.word	.LANCHOR3
 2344              		.cfi_endproc
 2345              	.LFE241:
 2346              		.size	thread10, .-thread10
 2347              		.section	.rodata.mtx6_setup.cst4,"aM",%progbits,4
 2348              		.align	2
 2349              	.LC26:
 2350 0000 00000000 		.word	__stack_chk_guard
 2351              		.section	.text.mtx6_setup,"ax",%progbits
 2352              		.align	1
 2353              		.p2align 4,,15
 2354              		.syntax unified
 2355              		.thumb
 2356              		.thumb_func
 2357              		.fpu fpv4-sp-d16
 2358              		.type	mtx6_setup, %function
 2359              	mtx6_setup:
 2360              	.LFB240:
 2361              		.loc 1 469 30 is_stmt 1 view -0
 2362              		.cfi_startproc
 2363              		@ args = 0, pretend = 0, frame = 8
 2364              		@ frame_needed = 0, uses_anonymous_args = 0
 2365 0000 00B5     		push	{lr}
 2366              		.cfi_def_cfa_offset 4
 2367              		.cfi_offset 14, -4
 2368 0002 0B4B     		ldr	r3, .L155
 2369              		.loc 1 471 3 is_stmt 0 view .LVU428
 2370 0004 0B48     		ldr	r0, .L155+4
 2371              		.loc 1 469 30 view .LVU429
 2372 0006 83B0     		sub	sp, sp, #12
 2373              		.cfi_def_cfa_offset 16
 2374              		.loc 1 469 30 view .LVU430
 2375 0008 1B68     		ldr	r3, [r3]
 2376 000a 0193     		str	r3, [sp, #4]
 2377 000c 4FF00003 		mov	r3,#0
 2378              		.loc 1 471 3 is_stmt 1 view .LVU431
 2379 0010 FFF7FEFF 		bl	chCondObjectInit
 2380              	.LVL165:
 2381              		.loc 1 472 3 view .LVU432
 2382 0014 064B     		ldr	r3, .L155
 2383 0016 1A68     		ldr	r2, [r3]
 2384 0018 019B     		ldr	r3, [sp, #4]
 2385 001a 5A40     		eors	r2, r3, r2
 2386 001c 05D1     		bne	.L154
 2387 001e 0648     		ldr	r0, .L155+8
 2388              		.loc 1 473 1 is_stmt 0 view .LVU433
 2389 0020 03B0     		add	sp, sp, #12
 2390              		.cfi_remember_state
 2391              		.cfi_def_cfa_offset 4
 2392              		@ sp needed
 2393 0022 5DF804EB 		ldr	lr, [sp], #4
ARM GAS  /tmp/ccqhiTbD.s 			page 43


 2394              		.cfi_restore 14
 2395              		.cfi_def_cfa_offset 0
 2396              		.loc 1 472 3 view .LVU434
 2397 0026 FFF7FEBF 		b	chMtxObjectInit
 2398              	.LVL166:
 2399              	.L154:
 2400              		.cfi_restore_state
 2401 002a FFF7FEFF 		bl	__stack_chk_fail
 2402              	.LVL167:
 2403              	.L156:
 2404 002e 00BF     		.align	2
 2405              	.L155:
 2406 0030 00000000 		.word	.LC26
 2407 0034 00000000 		.word	.LANCHOR3
 2408 0038 00000000 		.word	.LANCHOR0
 2409              		.cfi_endproc
 2410              	.LFE240:
 2411              		.size	mtx6_setup, .-mtx6_setup
 2412              		.section	.rodata.mtx7_setup.cst4,"aM",%progbits,4
 2413              		.align	2
 2414              	.LC27:
 2415 0000 00000000 		.word	__stack_chk_guard
 2416              		.section	.text.mtx7_setup,"ax",%progbits
 2417              		.align	1
 2418              		.p2align 4,,15
 2419              		.syntax unified
 2420              		.thumb
 2421              		.thumb_func
 2422              		.fpu fpv4-sp-d16
 2423              		.type	mtx7_setup, %function
 2424              	mtx7_setup:
 2425              	.LFB257:
 2426              		.cfi_startproc
 2427              		@ args = 0, pretend = 0, frame = 8
 2428              		@ frame_needed = 0, uses_anonymous_args = 0
 2429 0000 00B5     		push	{lr}
 2430              		.cfi_def_cfa_offset 4
 2431              		.cfi_offset 14, -4
 2432 0002 094B     		ldr	r3, .L162
 2433 0004 83B0     		sub	sp, sp, #12
 2434              		.cfi_def_cfa_offset 16
 2435 0006 1B68     		ldr	r3, [r3]
 2436 0008 0193     		str	r3, [sp, #4]
 2437 000a 4FF00003 		mov	r3,#0
 2438 000e 064B     		ldr	r3, .L162
 2439 0010 1A68     		ldr	r2, [r3]
 2440 0012 019B     		ldr	r3, [sp, #4]
 2441 0014 5A40     		eors	r2, r3, r2
 2442 0016 04D1     		bne	.L161
 2443 0018 03B0     		add	sp, sp, #12
 2444              		.cfi_remember_state
 2445              		.cfi_def_cfa_offset 4
 2446              		@ sp needed
 2447 001a 5DF804EB 		ldr	lr, [sp], #4
 2448              		.cfi_restore 14
 2449              		.cfi_def_cfa_offset 0
 2450 001e FFF7FEBF 		b	mtx6_setup
ARM GAS  /tmp/ccqhiTbD.s 			page 44


 2451              	.L161:
 2452              		.cfi_restore_state
 2453 0022 FFF7FEFF 		bl	__stack_chk_fail
 2454              	.L163:
 2455 0026 00BF     		.align	2
 2456              	.L162:
 2457 0028 00000000 		.word	.LC27
 2458              		.cfi_endproc
 2459              	.LFE257:
 2460              		.size	mtx7_setup, .-mtx7_setup
 2461              		.section	.rodata.mtx8_setup.cst4,"aM",%progbits,4
 2462              		.align	2
 2463              	.LC28:
 2464 0000 00000000 		.word	__stack_chk_guard
 2465              		.section	.text.mtx8_setup,"ax",%progbits
 2466              		.align	1
 2467              		.p2align 4,,15
 2468              		.syntax unified
 2469              		.thumb
 2470              		.thumb_func
 2471              		.fpu fpv4-sp-d16
 2472              		.type	mtx8_setup, %function
 2473              	mtx8_setup:
 2474              	.LFB245:
 2475              		.loc 1 555 30 is_stmt 1 view -0
 2476              		.cfi_startproc
 2477              		@ args = 0, pretend = 0, frame = 8
 2478              		@ frame_needed = 0, uses_anonymous_args = 0
 2479              		.loc 1 555 30 is_stmt 0 view .LVU436
 2480 0000 00B5     		push	{lr}
 2481              		.cfi_def_cfa_offset 4
 2482              		.cfi_offset 14, -4
 2483 0002 0C4B     		ldr	r3, .L169
 2484              		.loc 1 557 3 view .LVU437
 2485 0004 0C48     		ldr	r0, .L169+4
 2486              		.loc 1 555 30 view .LVU438
 2487 0006 83B0     		sub	sp, sp, #12
 2488              		.cfi_def_cfa_offset 16
 2489              		.loc 1 555 30 view .LVU439
 2490 0008 1B68     		ldr	r3, [r3]
 2491 000a 0193     		str	r3, [sp, #4]
 2492 000c 4FF00003 		mov	r3,#0
 2493              		.loc 1 557 3 is_stmt 1 view .LVU440
 2494 0010 FFF7FEFF 		bl	chCondObjectInit
 2495              	.LVL168:
 2496              		.loc 1 558 3 view .LVU441
 2497 0014 0948     		ldr	r0, .L169+8
 2498 0016 FFF7FEFF 		bl	chMtxObjectInit
 2499              	.LVL169:
 2500              		.loc 1 559 3 view .LVU442
 2501 001a 064B     		ldr	r3, .L169
 2502 001c 1A68     		ldr	r2, [r3]
 2503 001e 019B     		ldr	r3, [sp, #4]
 2504 0020 5A40     		eors	r2, r3, r2
 2505 0022 05D1     		bne	.L168
 2506 0024 0648     		ldr	r0, .L169+12
 2507              		.loc 1 560 1 is_stmt 0 view .LVU443
ARM GAS  /tmp/ccqhiTbD.s 			page 45


 2508 0026 03B0     		add	sp, sp, #12
 2509              		.cfi_remember_state
 2510              		.cfi_def_cfa_offset 4
 2511              		@ sp needed
 2512 0028 5DF804EB 		ldr	lr, [sp], #4
 2513              		.cfi_restore 14
 2514              		.cfi_def_cfa_offset 0
 2515              		.loc 1 559 3 view .LVU444
 2516 002c FFF7FEBF 		b	chMtxObjectInit
 2517              	.LVL170:
 2518              	.L168:
 2519              		.cfi_restore_state
 2520 0030 FFF7FEFF 		bl	__stack_chk_fail
 2521              	.LVL171:
 2522              	.L170:
 2523              		.align	2
 2524              	.L169:
 2525 0034 00000000 		.word	.LC28
 2526 0038 00000000 		.word	.LANCHOR3
 2527 003c 00000000 		.word	.LANCHOR0
 2528 0040 00000000 		.word	.LANCHOR1
 2529              		.cfi_endproc
 2530              	.LFE245:
 2531              		.size	mtx8_setup, .-mtx8_setup
 2532              		.section	.rodata.mtx7_execute.cst4,"aM",%progbits,4
 2533              		.align	2
 2534              	.LC29:
 2535 0000 00000000 		.word	__stack_chk_guard
 2536              		.section	.text.mtx7_execute,"ax",%progbits
 2537              		.align	1
 2538              		.p2align 4,,15
 2539              		.syntax unified
 2540              		.thumb
 2541              		.thumb_func
 2542              		.fpu fpv4-sp-d16
 2543              		.type	mtx7_execute, %function
 2544              	mtx7_execute:
 2545              	.LFB244:
 2546              		.loc 1 526 32 is_stmt 1 view -0
 2547              		.cfi_startproc
 2548              		@ args = 0, pretend = 0, frame = 8
 2549              		@ frame_needed = 0, uses_anonymous_args = 0
 2550 0000 70B5     		push	{r4, r5, r6, lr}
 2551              		.cfi_def_cfa_offset 16
 2552              		.cfi_offset 4, -16
 2553              		.cfi_offset 5, -12
 2554              		.cfi_offset 6, -8
 2555              		.cfi_offset 14, -4
 2556              	.LBB339:
 2557              	.LBB340:
 2558              	.LBB341:
 2559              	.LBB342:
 2560              		.loc 2 176 18 is_stmt 0 view .LVU446
 2561 0002 2A4B     		ldr	r3, .L176
 2562              	.LBE342:
 2563              	.LBE341:
 2564              	.LBE340:
ARM GAS  /tmp/ccqhiTbD.s 			page 46


 2565              	.LBE339:
 2566              		.loc 1 529 16 view .LVU447
 2567 0004 2A4E     		ldr	r6, .L176+4
 2568              	.LBB348:
 2569              	.LBB345:
 2570              		.loc 2 189 25 view .LVU448
 2571 0006 9A69     		ldr	r2, [r3, #24]
 2572              	.LBE345:
 2573              	.LBE348:
 2574              		.loc 1 526 32 view .LVU449
 2575 0008 2A49     		ldr	r1, .L176+8
 2576              	.LBB349:
 2577              	.LBB346:
 2578              		.loc 2 189 25 view .LVU450
 2579 000a 9568     		ldr	r5, [r2, #8]
 2580              	.LBE346:
 2581              	.LBE349:
 2582              		.loc 1 529 16 view .LVU451
 2583 000c 2A4B     		ldr	r3, .L176+12
 2584 000e 3068     		ldr	r0, [r6]
 2585              		.loc 1 529 14 view .LVU452
 2586 0010 2A4C     		ldr	r4, .L176+16
 2587              		.loc 1 526 32 view .LVU453
 2588 0012 84B0     		sub	sp, sp, #16
 2589              		.cfi_def_cfa_offset 32
 2590              		.loc 1 529 16 view .LVU454
 2591 0014 6A1C     		adds	r2, r5, #1
 2592 0016 0093     		str	r3, [sp]
 2593              		.loc 1 526 32 view .LVU455
 2594 0018 0968     		ldr	r1, [r1]
 2595 001a 0391     		str	r1, [sp, #12]
 2596 001c 4FF00001 		mov	r1,#0
 2597              		.loc 1 528 3 is_stmt 1 view .LVU456
 2598              	.LBB350:
 2599              	.LBI339:
 2600              		.loc 2 187 23 view .LVU457
 2601              	.LBB347:
 2602              		.loc 2 189 3 view .LVU458
 2603              	.LBB344:
 2604              	.LBI341:
 2605              		.loc 2 174 25 view .LVU459
 2606              	.LBB343:
 2607              		.loc 2 176 3 view .LVU460
 2608              	.LVL172:
 2609              		.loc 2 176 3 is_stmt 0 view .LVU461
 2610              	.LBE343:
 2611              	.LBE344:
 2612              	.LBE347:
 2613              	.LBE350:
 2614              		.loc 1 529 3 is_stmt 1 view .LVU462
 2615              		.loc 1 529 16 is_stmt 0 view .LVU463
 2616 0020 274B     		ldr	r3, .L176+20
 2617 0022 4FF4FC71 		mov	r1, #504
 2618 0026 FFF7FEFF 		bl	chThdCreateStatic
 2619              	.LVL173:
 2620              		.loc 1 530 16 view .LVU464
 2621 002a 264B     		ldr	r3, .L176+24
ARM GAS  /tmp/ccqhiTbD.s 			page 47


 2622 002c 0093     		str	r3, [sp]
 2623              		.loc 1 529 16 view .LVU465
 2624 002e 0146     		mov	r1, r0
 2625              		.loc 1 530 16 view .LVU466
 2626 0030 234B     		ldr	r3, .L176+20
 2627              		.loc 1 529 14 view .LVU467
 2628 0032 2160     		str	r1, [r4]
 2629              		.loc 1 530 3 is_stmt 1 view .LVU468
 2630              		.loc 1 530 16 is_stmt 0 view .LVU469
 2631 0034 AA1C     		adds	r2, r5, #2
 2632 0036 4FF4FC71 		mov	r1, #504
 2633 003a 7068     		ldr	r0, [r6, #4]
 2634 003c FFF7FEFF 		bl	chThdCreateStatic
 2635              	.LVL174:
 2636              		.loc 1 531 16 view .LVU470
 2637 0040 214B     		ldr	r3, .L176+28
 2638 0042 0093     		str	r3, [sp]
 2639              		.loc 1 530 16 view .LVU471
 2640 0044 0146     		mov	r1, r0
 2641              		.loc 1 531 16 view .LVU472
 2642 0046 1E4B     		ldr	r3, .L176+20
 2643              		.loc 1 530 14 view .LVU473
 2644 0048 6160     		str	r1, [r4, #4]
 2645              		.loc 1 531 3 is_stmt 1 view .LVU474
 2646              		.loc 1 531 16 is_stmt 0 view .LVU475
 2647 004a EA1C     		adds	r2, r5, #3
 2648 004c 4FF4FC71 		mov	r1, #504
 2649 0050 B068     		ldr	r0, [r6, #8]
 2650 0052 FFF7FEFF 		bl	chThdCreateStatic
 2651              	.LVL175:
 2652              		.loc 1 532 16 view .LVU476
 2653 0056 1D4B     		ldr	r3, .L176+32
 2654 0058 0093     		str	r3, [sp]
 2655              		.loc 1 531 16 view .LVU477
 2656 005a 0146     		mov	r1, r0
 2657              		.loc 1 532 16 view .LVU478
 2658 005c 184B     		ldr	r3, .L176+20
 2659              		.loc 1 531 14 view .LVU479
 2660 005e A160     		str	r1, [r4, #8]
 2661              		.loc 1 532 3 is_stmt 1 view .LVU480
 2662              		.loc 1 532 16 is_stmt 0 view .LVU481
 2663 0060 2A1D     		adds	r2, r5, #4
 2664 0062 4FF4FC71 		mov	r1, #504
 2665 0066 F068     		ldr	r0, [r6, #12]
 2666 0068 FFF7FEFF 		bl	chThdCreateStatic
 2667              	.LVL176:
 2668              		.loc 1 533 16 view .LVU482
 2669 006c 184B     		ldr	r3, .L176+36
 2670 006e 0093     		str	r3, [sp]
 2671              		.loc 1 532 16 view .LVU483
 2672 0070 0146     		mov	r1, r0
 2673              		.loc 1 533 16 view .LVU484
 2674 0072 6A1D     		adds	r2, r5, #5
 2675 0074 124B     		ldr	r3, .L176+20
 2676              		.loc 1 532 14 view .LVU485
 2677 0076 E160     		str	r1, [r4, #12]
 2678              		.loc 1 533 3 is_stmt 1 view .LVU486
ARM GAS  /tmp/ccqhiTbD.s 			page 48


 2679              		.loc 1 533 16 is_stmt 0 view .LVU487
 2680 0078 3069     		ldr	r0, [r6, #16]
 2681 007a 4FF4FC71 		mov	r1, #504
 2682 007e FFF7FEFF 		bl	chThdCreateStatic
 2683              	.LVL177:
 2684 0082 0346     		mov	r3, r0
 2685              		.loc 1 534 3 view .LVU488
 2686 0084 1348     		ldr	r0, .L176+40
 2687              		.loc 1 533 14 view .LVU489
 2688 0086 2361     		str	r3, [r4, #16]
 2689              		.loc 1 534 3 is_stmt 1 view .LVU490
 2690 0088 FFF7FEFF 		bl	chCondBroadcast
 2691              	.LVL178:
 2692              		.loc 1 535 3 view .LVU491
 2693 008c FFF7FEFF 		bl	test_wait_threads
 2694              	.LVL179:
 2695              		.loc 1 536 3 view .LVU492
 2696 0090 084B     		ldr	r3, .L176+8
 2697 0092 1A68     		ldr	r2, [r3]
 2698 0094 039B     		ldr	r3, [sp, #12]
 2699 0096 5A40     		eors	r2, r3, r2
 2700 0098 06D1     		bne	.L175
 2701 009a 0F49     		ldr	r1, .L176+44
 2702 009c 0120     		movs	r0, #1
 2703              		.loc 1 537 1 is_stmt 0 view .LVU493
 2704 009e 04B0     		add	sp, sp, #16
 2705              		.cfi_remember_state
 2706              		.cfi_def_cfa_offset 16
 2707              		@ sp needed
 2708 00a0 BDE87040 		pop	{r4, r5, r6, lr}
 2709              		.cfi_restore 14
 2710              		.cfi_restore 6
 2711              		.cfi_restore 5
 2712              		.cfi_restore 4
 2713              		.cfi_def_cfa_offset 0
 2714              	.LVL180:
 2715              		.loc 1 536 3 view .LVU494
 2716 00a4 FFF7FEBF 		b	_test_assert_sequence
 2717              	.LVL181:
 2718              	.L175:
 2719              		.cfi_restore_state
 2720              		.loc 1 536 3 view .LVU495
 2721 00a8 FFF7FEFF 		bl	__stack_chk_fail
 2722              	.LVL182:
 2723              	.L177:
 2724              		.align	2
 2725              	.L176:
 2726 00ac 00000000 		.word	ch
 2727 00b0 00000000 		.word	wa
 2728 00b4 00000000 		.word	.LC29
 2729 00b8 00000000 		.word	.LC0
 2730 00bc 00000000 		.word	threads
 2731 00c0 00000000 		.word	thread10
 2732 00c4 04000000 		.word	.LC1
 2733 00c8 08000000 		.word	.LC2
 2734 00cc 0C000000 		.word	.LC3
 2735 00d0 10000000 		.word	.LC4
ARM GAS  /tmp/ccqhiTbD.s 			page 49


 2736 00d4 00000000 		.word	.LANCHOR3
 2737 00d8 14000000 		.word	.LC5
 2738              		.cfi_endproc
 2739              	.LFE244:
 2740              		.size	mtx7_execute, .-mtx7_execute
 2741              		.section	.rodata.mtx8_execute.str1.4,"aMS",%progbits,1
 2742              		.align	2
 2743              	.LC30:
 2744 0000 41424300 		.ascii	"ABC\000"
 2745              		.section	.rodata.mtx8_execute.cst4,"aM",%progbits,4
 2746              		.align	2
 2747              	.LC31:
 2748 0000 00000000 		.word	__stack_chk_guard
 2749              		.section	.text.mtx8_execute,"ax",%progbits
 2750              		.align	1
 2751              		.p2align 4,,15
 2752              		.syntax unified
 2753              		.thumb
 2754              		.thumb_func
 2755              		.fpu fpv4-sp-d16
 2756              		.type	mtx8_execute, %function
 2757              	mtx8_execute:
 2758              	.LFB248:
 2759              		.loc 1 583 32 is_stmt 1 view -0
 2760              		.cfi_startproc
 2761              		@ args = 0, pretend = 0, frame = 8
 2762              		@ frame_needed = 0, uses_anonymous_args = 0
 2763 0000 70B5     		push	{r4, r5, r6, lr}
 2764              		.cfi_def_cfa_offset 16
 2765              		.cfi_offset 4, -16
 2766              		.cfi_offset 5, -12
 2767              		.cfi_offset 6, -8
 2768              		.cfi_offset 14, -4
 2769              	.LBB351:
 2770              	.LBB352:
 2771              	.LBB353:
 2772              	.LBB354:
 2773              		.loc 2 176 18 is_stmt 0 view .LVU497
 2774 0002 214B     		ldr	r3, .L183
 2775              	.LBE354:
 2776              	.LBE353:
 2777              	.LBE352:
 2778              	.LBE351:
 2779              		.loc 1 586 16 view .LVU498
 2780 0004 214E     		ldr	r6, .L183+4
 2781              	.LBB360:
 2782              	.LBB357:
 2783              		.loc 2 189 25 view .LVU499
 2784 0006 9A69     		ldr	r2, [r3, #24]
 2785              	.LBE357:
 2786              	.LBE360:
 2787              		.loc 1 583 32 view .LVU500
 2788 0008 2149     		ldr	r1, .L183+8
 2789              	.LBB361:
 2790              	.LBB358:
 2791              		.loc 2 189 25 view .LVU501
 2792 000a 9568     		ldr	r5, [r2, #8]
ARM GAS  /tmp/ccqhiTbD.s 			page 50


 2793              	.LBE358:
 2794              	.LBE361:
 2795              		.loc 1 586 16 view .LVU502
 2796 000c 214B     		ldr	r3, .L183+12
 2797 000e 3068     		ldr	r0, [r6]
 2798              		.loc 1 586 14 view .LVU503
 2799 0010 214C     		ldr	r4, .L183+16
 2800              		.loc 1 583 32 view .LVU504
 2801 0012 84B0     		sub	sp, sp, #16
 2802              		.cfi_def_cfa_offset 32
 2803              		.loc 1 586 16 view .LVU505
 2804 0014 6A1C     		adds	r2, r5, #1
 2805 0016 0093     		str	r3, [sp]
 2806              		.loc 1 583 32 view .LVU506
 2807 0018 0968     		ldr	r1, [r1]
 2808 001a 0391     		str	r1, [sp, #12]
 2809 001c 4FF00001 		mov	r1,#0
 2810              		.loc 1 585 3 is_stmt 1 view .LVU507
 2811              	.LBB362:
 2812              	.LBI351:
 2813              		.loc 2 187 23 view .LVU508
 2814              	.LBB359:
 2815              		.loc 2 189 3 view .LVU509
 2816              	.LBB356:
 2817              	.LBI353:
 2818              		.loc 2 174 25 view .LVU510
 2819              	.LBB355:
 2820              		.loc 2 176 3 view .LVU511
 2821              	.LVL183:
 2822              		.loc 2 176 3 is_stmt 0 view .LVU512
 2823              	.LBE355:
 2824              	.LBE356:
 2825              	.LBE359:
 2826              	.LBE362:
 2827              		.loc 1 586 3 is_stmt 1 view .LVU513
 2828              		.loc 1 586 16 is_stmt 0 view .LVU514
 2829 0020 1E4B     		ldr	r3, .L183+20
 2830 0022 4FF4FC71 		mov	r1, #504
 2831 0026 FFF7FEFF 		bl	chThdCreateStatic
 2832              	.LVL184:
 2833              		.loc 1 587 16 view .LVU515
 2834 002a 1D4B     		ldr	r3, .L183+24
 2835 002c 0093     		str	r3, [sp]
 2836              		.loc 1 586 16 view .LVU516
 2837 002e 0146     		mov	r1, r0
 2838              		.loc 1 587 16 view .LVU517
 2839 0030 1C4B     		ldr	r3, .L183+28
 2840              		.loc 1 586 14 view .LVU518
 2841 0032 2160     		str	r1, [r4]
 2842              		.loc 1 587 3 is_stmt 1 view .LVU519
 2843              		.loc 1 587 16 is_stmt 0 view .LVU520
 2844 0034 AA1C     		adds	r2, r5, #2
 2845 0036 4FF4FC71 		mov	r1, #504
 2846 003a 7068     		ldr	r0, [r6, #4]
 2847 003c FFF7FEFF 		bl	chThdCreateStatic
 2848              	.LVL185:
 2849              		.loc 1 588 16 view .LVU521
ARM GAS  /tmp/ccqhiTbD.s 			page 51


 2850 0040 194B     		ldr	r3, .L183+32
 2851 0042 0093     		str	r3, [sp]
 2852              		.loc 1 587 16 view .LVU522
 2853 0044 0146     		mov	r1, r0
 2854              		.loc 1 588 16 view .LVU523
 2855 0046 EA1C     		adds	r2, r5, #3
 2856 0048 184B     		ldr	r3, .L183+36
 2857              		.loc 1 587 14 view .LVU524
 2858 004a 6160     		str	r1, [r4, #4]
 2859              		.loc 1 588 3 is_stmt 1 view .LVU525
 2860              		.loc 1 588 16 is_stmt 0 view .LVU526
 2861 004c B068     		ldr	r0, [r6, #8]
 2862 004e 4FF4FC71 		mov	r1, #504
 2863 0052 FFF7FEFF 		bl	chThdCreateStatic
 2864              	.LVL186:
 2865 0056 0346     		mov	r3, r0
 2866              		.loc 1 589 3 view .LVU527
 2867 0058 1548     		ldr	r0, .L183+40
 2868              		.loc 1 588 14 view .LVU528
 2869 005a A360     		str	r3, [r4, #8]
 2870              		.loc 1 589 3 is_stmt 1 view .LVU529
 2871 005c FFF7FEFF 		bl	chCondSignal
 2872              	.LVL187:
 2873              		.loc 1 590 3 view .LVU530
 2874 0060 1348     		ldr	r0, .L183+40
 2875 0062 FFF7FEFF 		bl	chCondSignal
 2876              	.LVL188:
 2877              		.loc 1 591 3 view .LVU531
 2878 0066 FFF7FEFF 		bl	test_wait_threads
 2879              	.LVL189:
 2880              		.loc 1 592 3 view .LVU532
 2881 006a 094B     		ldr	r3, .L183+8
 2882 006c 1A68     		ldr	r2, [r3]
 2883 006e 039B     		ldr	r3, [sp, #12]
 2884 0070 5A40     		eors	r2, r3, r2
 2885 0072 06D1     		bne	.L182
 2886 0074 0F49     		ldr	r1, .L183+44
 2887 0076 0120     		movs	r0, #1
 2888              		.loc 1 593 1 is_stmt 0 view .LVU533
 2889 0078 04B0     		add	sp, sp, #16
 2890              		.cfi_remember_state
 2891              		.cfi_def_cfa_offset 16
 2892              		@ sp needed
 2893 007a BDE87040 		pop	{r4, r5, r6, lr}
 2894              		.cfi_restore 14
 2895              		.cfi_restore 6
 2896              		.cfi_restore 5
 2897              		.cfi_restore 4
 2898              		.cfi_def_cfa_offset 0
 2899              	.LVL190:
 2900              		.loc 1 592 3 view .LVU534
 2901 007e FFF7FEBF 		b	_test_assert_sequence
 2902              	.LVL191:
 2903              	.L182:
 2904              		.cfi_restore_state
 2905              		.loc 1 592 3 view .LVU535
 2906 0082 FFF7FEFF 		bl	__stack_chk_fail
ARM GAS  /tmp/ccqhiTbD.s 			page 52


 2907              	.LVL192:
 2908              	.L184:
 2909 0086 00BF     		.align	2
 2910              	.L183:
 2911 0088 00000000 		.word	ch
 2912 008c 00000000 		.word	wa
 2913 0090 00000000 		.word	.LC31
 2914 0094 10000000 		.word	.LC4
 2915 0098 00000000 		.word	threads
 2916 009c 00000000 		.word	thread11
 2917 00a0 08000000 		.word	.LC2
 2918 00a4 00000000 		.word	thread10
 2919 00a8 0C000000 		.word	.LC3
 2920 00ac 00000000 		.word	thread12
 2921 00b0 00000000 		.word	.LANCHOR3
 2922 00b4 00000000 		.word	.LC30
 2923              		.cfi_endproc
 2924              	.LFE248:
 2925              		.size	mtx8_execute, .-mtx8_execute
 2926              		.section	.rodata.thread11.cst4,"aM",%progbits,4
 2927              		.align	2
 2928              	.LC32:
 2929 0000 00000000 		.word	__stack_chk_guard
 2930              		.section	.text.thread11,"ax",%progbits
 2931              		.align	1
 2932              		.p2align 4,,15
 2933              		.syntax unified
 2934              		.thumb
 2935              		.thumb_func
 2936              		.fpu fpv4-sp-d16
 2937              		.type	thread11, %function
 2938              	thread11:
 2939              	.LVL193:
 2940              	.LFB246:
 2941              		.loc 1 562 34 is_stmt 1 view -0
 2942              		.cfi_startproc
 2943              		@ args = 0, pretend = 0, frame = 8
 2944              		@ frame_needed = 0, uses_anonymous_args = 0
 2945              		.loc 1 562 34 is_stmt 0 view .LVU537
 2946 0000 10B5     		push	{r4, lr}
 2947              		.cfi_def_cfa_offset 8
 2948              		.cfi_offset 4, -8
 2949              		.cfi_offset 14, -4
 2950 0002 124B     		ldr	r3, .L190
 2951 0004 82B0     		sub	sp, sp, #8
 2952              		.cfi_def_cfa_offset 16
 2953              		.loc 1 562 34 view .LVU538
 2954 0006 0446     		mov	r4, r0
 2955              		.loc 1 564 3 view .LVU539
 2956 0008 1148     		ldr	r0, .L190+4
 2957              	.LVL194:
 2958              		.loc 1 562 34 view .LVU540
 2959 000a 1B68     		ldr	r3, [r3]
 2960 000c 0193     		str	r3, [sp, #4]
 2961 000e 4FF00003 		mov	r3,#0
 2962              		.loc 1 564 3 is_stmt 1 view .LVU541
 2963 0012 FFF7FEFF 		bl	chMtxLock
ARM GAS  /tmp/ccqhiTbD.s 			page 53


 2964              	.LVL195:
 2965              		.loc 1 565 3 view .LVU542
 2966 0016 0F48     		ldr	r0, .L190+8
 2967 0018 FFF7FEFF 		bl	chMtxLock
 2968              	.LVL196:
 2969              		.loc 1 567 3 view .LVU543
 2970 001c 4FF0FF31 		mov	r1, #-1
 2971 0020 0D48     		ldr	r0, .L190+12
 2972 0022 FFF7FEFF 		bl	chCondWaitTimeout
 2973              	.LVL197:
 2974              		.loc 1 571 3 view .LVU544
 2975 0026 2078     		ldrb	r0, [r4]	@ zero_extendqisi2
 2976 0028 FFF7FEFF 		bl	test_emit_token
 2977              	.LVL198:
 2978              		.loc 1 572 3 view .LVU545
 2979 002c 0948     		ldr	r0, .L190+8
 2980 002e FFF7FEFF 		bl	chMtxUnlock
 2981              	.LVL199:
 2982              		.loc 1 573 3 view .LVU546
 2983 0032 064B     		ldr	r3, .L190
 2984 0034 1A68     		ldr	r2, [r3]
 2985 0036 019B     		ldr	r3, [sp, #4]
 2986 0038 5A40     		eors	r2, r3, r2
 2987 003a 05D1     		bne	.L189
 2988 003c 0448     		ldr	r0, .L190+4
 2989              		.loc 1 574 1 is_stmt 0 view .LVU547
 2990 003e 02B0     		add	sp, sp, #8
 2991              		.cfi_remember_state
 2992              		.cfi_def_cfa_offset 8
 2993              		@ sp needed
 2994 0040 BDE81040 		pop	{r4, lr}
 2995              		.cfi_restore 14
 2996              		.cfi_restore 4
 2997              		.cfi_def_cfa_offset 0
 2998              	.LVL200:
 2999              		.loc 1 573 3 view .LVU548
 3000 0044 FFF7FEBF 		b	chMtxUnlock
 3001              	.LVL201:
 3002              	.L189:
 3003              		.cfi_restore_state
 3004              		.loc 1 573 3 view .LVU549
 3005 0048 FFF7FEFF 		bl	__stack_chk_fail
 3006              	.LVL202:
 3007              	.L191:
 3008              		.align	2
 3009              	.L190:
 3010 004c 00000000 		.word	.LC32
 3011 0050 00000000 		.word	.LANCHOR1
 3012 0054 00000000 		.word	.LANCHOR0
 3013 0058 00000000 		.word	.LANCHOR3
 3014              		.cfi_endproc
 3015              	.LFE246:
 3016              		.size	thread11, .-thread11
 3017              		.section	.rodata.mtx5_execute.cst4,"aM",%progbits,4
 3018              		.align	2
 3019              	.LC33:
 3020 0000 00000000 		.word	__stack_chk_guard
ARM GAS  /tmp/ccqhiTbD.s 			page 54


 3021              		.section	.text.mtx5_execute,"ax",%progbits
 3022              		.align	1
 3023              		.p2align 4,,15
 3024              		.syntax unified
 3025              		.thumb
 3026              		.thumb_func
 3027              		.fpu fpv4-sp-d16
 3028              		.type	mtx5_execute, %function
 3029              	mtx5_execute:
 3030              	.LFB239:
 3031              		.loc 1 423 32 is_stmt 1 view -0
 3032              		.cfi_startproc
 3033              		@ args = 0, pretend = 0, frame = 8
 3034              		@ frame_needed = 0, uses_anonymous_args = 0
 3035 0000 10B5     		push	{r4, lr}
 3036              		.cfi_def_cfa_offset 8
 3037              		.cfi_offset 4, -8
 3038              		.cfi_offset 14, -4
 3039              		.loc 1 444 3 is_stmt 0 view .LVU551
 3040 0002 164C     		ldr	r4, .L199
 3041              		.loc 1 423 32 view .LVU552
 3042 0004 164B     		ldr	r3, .L199+4
 3043 0006 82B0     		sub	sp, sp, #8
 3044              		.cfi_def_cfa_offset 16
 3045              		.loc 1 444 3 view .LVU553
 3046 0008 2046     		mov	r0, r4
 3047              		.loc 1 423 32 view .LVU554
 3048 000a 1B68     		ldr	r3, [r3]
 3049 000c 0193     		str	r3, [sp, #4]
 3050 000e 4FF00003 		mov	r3,#0
 3051              		.loc 1 444 3 is_stmt 1 view .LVU555
 3052 0012 FFF7FEFF 		bl	chMtxLock
 3053              	.LVL203:
 3054              		.loc 1 445 3 view .LVU556
 3055 0016 FFF7FEFF 		bl	chMtxUnlockAll
 3056              	.LVL204:
 3057              		.loc 1 446 3 view .LVU557
 3058              	.LBB369:
 3059              	.LBI369:
 3060              		.file 6 ".//ChibiOS//os/rt/include/chschd.h"
 3061              		.loc 6 616 20 view .LVU558
 3062              	.LBB370:
 3063              		.loc 6 618 3 view .LVU559
 3064              		.loc 6 618 10 is_stmt 0 view .LVU560
 3065 001a 2168     		ldr	r1, [r4]
 3066              	.LBE370:
 3067              	.LBE369:
 3068              		.loc 1 446 3 view .LVU561
 3069 001c 091B     		subs	r1, r1, r4
 3070 001e B1FA81F1 		clz	r1, r1
 3071 0022 0620     		movs	r0, #6
 3072 0024 4909     		lsrs	r1, r1, #5
 3073 0026 FFF7FEFF 		bl	_test_assert
 3074              	.LVL205:
 3075              		.loc 1 448 1 view .LVU562
 3076 002a 0D4B     		ldr	r3, .L199+4
 3077              		.loc 1 446 3 view .LVU563
ARM GAS  /tmp/ccqhiTbD.s 			page 55


 3078 002c 28B1     		cbz	r0, .L198
 3079              		.loc 1 448 1 view .LVU564
 3080 002e 1A68     		ldr	r2, [r3]
 3081 0030 019B     		ldr	r3, [sp, #4]
 3082 0032 5A40     		eors	r2, r3, r2
 3083 0034 0FD1     		bne	.L197
 3084 0036 02B0     		add	sp, sp, #8
 3085              		.cfi_remember_state
 3086              		.cfi_def_cfa_offset 8
 3087              		@ sp needed
 3088 0038 10BD     		pop	{r4, pc}
 3089              	.L198:
 3090              		.cfi_restore_state
 3091              	.LBB371:
 3092              	.LBI371:
 3093              		.loc 1 423 13 is_stmt 1 view .LVU565
 3094              	.LBB372:
 3095              		.loc 1 446 64 view .LVU566
 3096              		.loc 1 447 3 view .LVU567
 3097 003a 1A68     		ldr	r2, [r3]
 3098 003c 019B     		ldr	r3, [sp, #4]
 3099 003e 5A40     		eors	r2, r3, r2
 3100 0040 09D1     		bne	.L197
 3101 0042 A168     		ldr	r1, [r4, #8]
 3102 0044 B1FA81F1 		clz	r1, r1
 3103 0048 4909     		lsrs	r1, r1, #5
 3104 004a 0720     		movs	r0, #7
 3105              	.LBE372:
 3106              	.LBE371:
 3107              		.loc 1 448 1 is_stmt 0 view .LVU568
 3108 004c 02B0     		add	sp, sp, #8
 3109              		.cfi_remember_state
 3110              		.cfi_def_cfa_offset 8
 3111              		@ sp needed
 3112 004e BDE81040 		pop	{r4, lr}
 3113              		.cfi_restore 14
 3114              		.cfi_restore 4
 3115              		.cfi_def_cfa_offset 0
 3116              	.LBB374:
 3117              	.LBB373:
 3118              		.loc 1 447 3 view .LVU569
 3119 0052 FFF7FEBF 		b	_test_assert
 3120              	.LVL206:
 3121              	.L197:
 3122              		.cfi_restore_state
 3123              	.LBE373:
 3124              	.LBE374:
 3125              		.loc 1 448 1 view .LVU570
 3126 0056 FFF7FEFF 		bl	__stack_chk_fail
 3127              	.LVL207:
 3128              	.L200:
 3129 005a 00BF     		.align	2
 3130              	.L199:
 3131 005c 00000000 		.word	.LANCHOR0
 3132 0060 00000000 		.word	.LC33
 3133              		.cfi_endproc
 3134              	.LFE239:
ARM GAS  /tmp/ccqhiTbD.s 			page 56


 3135              		.size	mtx5_execute, .-mtx5_execute
 3136              		.section	.rodata.mtx2_execute.cst4,"aM",%progbits,4
 3137              		.align	2
 3138              	.LC34:
 3139 0000 00000000 		.word	__stack_chk_guard
 3140              		.section	.text.mtx2_execute,"ax",%progbits
 3141              		.align	1
 3142              		.p2align 4,,15
 3143              		.syntax unified
 3144              		.thumb
 3145              		.thumb_func
 3146              		.fpu fpv4-sp-d16
 3147              		.type	mtx2_execute, %function
 3148              	mtx2_execute:
 3149              	.LFB226:
 3150              		.loc 1 186 32 is_stmt 1 view -0
 3151              		.cfi_startproc
 3152              		@ args = 0, pretend = 0, frame = 8
 3153              		@ frame_needed = 0, uses_anonymous_args = 0
 3154 0000 2DE9F041 		push	{r4, r5, r6, r7, r8, lr}
 3155              		.cfi_def_cfa_offset 24
 3156              		.cfi_offset 4, -24
 3157              		.cfi_offset 5, -20
 3158              		.cfi_offset 6, -16
 3159              		.cfi_offset 7, -12
 3160              		.cfi_offset 8, -8
 3161              		.cfi_offset 14, -4
 3162 0004 334B     		ldr	r3, .L210
 3163 0006 84B0     		sub	sp, sp, #16
 3164              		.cfi_def_cfa_offset 40
 3165              		.loc 1 186 32 is_stmt 0 view .LVU572
 3166 0008 1B68     		ldr	r3, [r3]
 3167 000a 0393     		str	r3, [sp, #12]
 3168 000c 4FF00003 		mov	r3,#0
 3169              		.loc 1 187 3 is_stmt 1 view .LVU573
 3170              		.loc 1 189 3 view .LVU574
 3171 0010 FFF7FEFF 		bl	test_wait_tick
 3172              	.LVL208:
 3173              		.loc 1 190 3 view .LVU575
 3174              	.LBB401:
 3175              	.LBI401:
 3176              		.file 7 ".//ChibiOS//os/rt/include/chvt.h"
 3177              		.loc 7 247 25 view .LVU576
 3178              	.LBB402:
 3179              		.loc 7 248 3 view .LVU577
 3180              		.loc 7 250 3 view .LVU578
 3181              	.LBB403:
 3182              	.LBI403:
 3183              		.loc 3 346 20 view .LVU579
 3184              	.LBB404:
 3185              		.loc 3 348 3 view .LVU580
 3186              	.LBB405:
 3187              	.LBI405:
 3188              		.loc 4 444 20 view .LVU581
 3189              	.LBE405:
 3190              	.LBE404:
 3191              	.LBE403:
ARM GAS  /tmp/ccqhiTbD.s 			page 57


 3192              	.LBE402:
 3193              	.LBE401:
 3194              		.loc 4 447 3 view .LVU582
 3195              	.LBB430:
 3196              	.LBB427:
 3197              	.LBB411:
 3198              	.LBB409:
 3199              	.LBB408:
 3200              	.LBB406:
 3201              	.LBI406:
 3202              		.loc 5 544 57 view .LVU583
 3203              	.LBB407:
 3204              		.loc 5 546 3 view .LVU584
 3205 0014 2023     		movs	r3, #32
 3206              		.syntax unified
 3207              	@ 546 ".//ChibiOS//os/ext/CMSIS/include/core_cmFunc.h" 1
 3208 0016 83F31188 		MSR basepri, r3
 3209              	@ 0 "" 2
 3210              	.LVL209:
 3211              		.loc 5 546 3 is_stmt 0 view .LVU585
 3212              		.thumb
 3213              		.syntax unified
 3214              	.LBE407:
 3215              	.LBE406:
 3216              	.LBE408:
 3217              		.loc 3 349 3 is_stmt 1 view .LVU586
 3218              	.LBE409:
 3219              	.LBE411:
 3220              	.LBB412:
 3221              	.LBB413:
 3222              		.loc 7 231 19 is_stmt 0 view .LVU587
 3223 001a 2F4C     		ldr	r4, .L210+4
 3224              	.LBE413:
 3225              	.LBE412:
 3226              	.LBB415:
 3227              	.LBB410:
 3228              		.loc 3 349 3 view .LVU588
 3229 001c FFF7FEFF 		bl	_stats_start_measure_crit_thd
 3230              	.LVL210:
 3231              		.loc 3 350 3 is_stmt 1 view .LVU589
 3232 0020 FFF7FEFF 		bl	_dbg_check_lock
 3233              	.LVL211:
 3234              	.LBE410:
 3235              	.LBE415:
 3236              		.loc 7 251 3 view .LVU590
 3237              	.LBB416:
 3238              	.LBI412:
 3239              		.loc 7 228 25 view .LVU591
 3240              	.LBB414:
 3241              		.loc 7 231 3 view .LVU592
 3242              		.loc 7 231 19 is_stmt 0 view .LVU593
 3243 0024 D4F82880 		ldr	r8, [r4, #40]
 3244              	.LVL212:
 3245              		.loc 7 231 19 view .LVU594
 3246              	.LBE414:
 3247              	.LBE416:
 3248              		.loc 7 252 3 is_stmt 1 view .LVU595
ARM GAS  /tmp/ccqhiTbD.s 			page 58


 3249              	.LBB417:
 3250              	.LBI417:
 3251              		.loc 3 358 20 view .LVU596
 3252              	.LBB418:
 3253              		.loc 3 360 3 view .LVU597
 3254 0028 FFF7FEFF 		bl	_dbg_check_unlock
 3255              	.LVL213:
 3256              		.loc 3 361 3 view .LVU598
 3257 002c FFF7FEFF 		bl	_stats_stop_measure_crit_thd
 3258              	.LVL214:
 3259              		.loc 3 367 3 view .LVU599
 3260              		.loc 3 367 3 view .LVU600
 3261              		.loc 3 367 3 view .LVU601
 3262 0030 2368     		ldr	r3, [r4]
 3263 0032 A342     		cmp	r3, r4
 3264 0034 04D0     		beq	.L202
 3265 0036 A269     		ldr	r2, [r4, #24]
 3266 0038 9B68     		ldr	r3, [r3, #8]
 3267 003a 9268     		ldr	r2, [r2, #8]
 3268 003c 9A42     		cmp	r2, r3
 3269 003e 34D3     		bcc	.L208
 3270              	.L202:
 3271              		.loc 3 367 3 view .LVU602
 3272              		.loc 3 371 3 view .LVU603
 3273              	.LBB419:
 3274              	.LBI419:
 3275              		.loc 4 458 20 view .LVU604
 3276              	.LBE419:
 3277              	.LBE418:
 3278              	.LBE417:
 3279              	.LBE427:
 3280              	.LBE430:
 3281              		.loc 4 461 3 view .LVU605
 3282              	.LVL215:
 3283              	.LBB431:
 3284              	.LBB428:
 3285              	.LBB425:
 3286              	.LBB423:
 3287              	.LBB422:
 3288              	.LBB420:
 3289              	.LBI420:
 3290              		.loc 5 544 57 view .LVU606
 3291              	.LBB421:
 3292              		.loc 5 546 3 view .LVU607
 3293 0040 0025     		movs	r5, #0
 3294              		.syntax unified
 3295              	@ 546 ".//ChibiOS//os/ext/CMSIS/include/core_cmFunc.h" 1
 3296 0042 85F31188 		MSR basepri, r5
 3297              	@ 0 "" 2
 3298              	.LVL216:
 3299              		.loc 5 546 3 is_stmt 0 view .LVU608
 3300              		.thumb
 3301              		.syntax unified
 3302              	.LBE421:
 3303              	.LBE420:
 3304              	.LBE422:
 3305              	.LBE423:
ARM GAS  /tmp/ccqhiTbD.s 			page 59


 3306              	.LBE425:
 3307              		.loc 7 254 3 is_stmt 1 view .LVU609
 3308              		.loc 7 254 3 is_stmt 0 view .LVU610
 3309              	.LBE428:
 3310              	.LBE431:
 3311              		.loc 1 191 3 is_stmt 1 view .LVU611
 3312              	.LBB432:
 3313              	.LBI432:
 3314              		.loc 2 187 23 view .LVU612
 3315              	.LBB433:
 3316              		.loc 2 189 3 view .LVU613
 3317              	.LBB434:
 3318              	.LBI434:
 3319              		.loc 2 174 25 view .LVU614
 3320              	.LBB435:
 3321              		.loc 2 176 3 view .LVU615
 3322              	.LBE435:
 3323              	.LBE434:
 3324              		.loc 2 189 25 is_stmt 0 view .LVU616
 3325 0046 A369     		ldr	r3, [r4, #24]
 3326              	.LBE433:
 3327              	.LBE432:
 3328              		.loc 1 191 16 view .LVU617
 3329 0048 244F     		ldr	r7, .L210+8
 3330 004a 9A68     		ldr	r2, [r3, #8]
 3331 004c 3868     		ldr	r0, [r7]
 3332 004e 244B     		ldr	r3, .L210+12
 3333 0050 0095     		str	r5, [sp]
 3334 0052 013A     		subs	r2, r2, #1
 3335 0054 4FF4FC71 		mov	r1, #504
 3336 0058 FFF7FEFF 		bl	chThdCreateStatic
 3337              	.LVL217:
 3338              		.loc 1 191 14 view .LVU618
 3339 005c 214E     		ldr	r6, .L210+16
 3340              	.LBB436:
 3341              	.LBB437:
 3342              		.loc 2 189 25 view .LVU619
 3343 005e A369     		ldr	r3, [r4, #24]
 3344              	.LBE437:
 3345              	.LBE436:
 3346              		.loc 1 191 14 view .LVU620
 3347 0060 3060     		str	r0, [r6]
 3348              		.loc 1 192 3 is_stmt 1 view .LVU621
 3349              	.LBB441:
 3350              	.LBI436:
 3351              		.loc 2 187 23 view .LVU622
 3352              	.LBB440:
 3353              		.loc 2 189 3 view .LVU623
 3354              	.LBB438:
 3355              	.LBI438:
 3356              		.loc 2 174 25 view .LVU624
 3357              	.LBB439:
 3358              		.loc 2 176 3 view .LVU625
 3359              	.LBE439:
 3360              	.LBE438:
 3361              	.LBE440:
 3362              	.LBE441:
ARM GAS  /tmp/ccqhiTbD.s 			page 60


 3363              		.loc 1 192 16 is_stmt 0 view .LVU626
 3364 0062 9A68     		ldr	r2, [r3, #8]
 3365 0064 7868     		ldr	r0, [r7, #4]
 3366 0066 204B     		ldr	r3, .L210+20
 3367 0068 0095     		str	r5, [sp]
 3368 006a 023A     		subs	r2, r2, #2
 3369 006c 4FF4FC71 		mov	r1, #504
 3370 0070 FFF7FEFF 		bl	chThdCreateStatic
 3371              	.LVL218:
 3372              	.LBB442:
 3373              	.LBB443:
 3374              		.loc 2 189 25 view .LVU627
 3375 0074 A369     		ldr	r3, [r4, #24]
 3376              	.LBE443:
 3377              	.LBE442:
 3378              		.loc 1 192 14 view .LVU628
 3379 0076 7060     		str	r0, [r6, #4]
 3380              		.loc 1 193 3 is_stmt 1 view .LVU629
 3381              	.LBB447:
 3382              	.LBI442:
 3383              		.loc 2 187 23 view .LVU630
 3384              	.LBB446:
 3385              		.loc 2 189 3 view .LVU631
 3386              	.LBB444:
 3387              	.LBI444:
 3388              		.loc 2 174 25 view .LVU632
 3389              	.LBB445:
 3390              		.loc 2 176 3 view .LVU633
 3391              	.LBE445:
 3392              	.LBE444:
 3393              	.LBE446:
 3394              	.LBE447:
 3395              		.loc 1 193 16 is_stmt 0 view .LVU634
 3396 0078 9A68     		ldr	r2, [r3, #8]
 3397 007a B868     		ldr	r0, [r7, #8]
 3398 007c 1B4B     		ldr	r3, .L210+24
 3399 007e 0095     		str	r5, [sp]
 3400 0080 033A     		subs	r2, r2, #3
 3401 0082 4FF4FC71 		mov	r1, #504
 3402 0086 FFF7FEFF 		bl	chThdCreateStatic
 3403              	.LVL219:
 3404              		.loc 1 193 14 view .LVU635
 3405 008a B060     		str	r0, [r6, #8]
 3406              		.loc 1 194 3 is_stmt 1 view .LVU636
 3407 008c FFF7FEFF 		bl	test_wait_threads
 3408              	.LVL220:
 3409              		.loc 1 195 3 view .LVU637
 3410 0090 1749     		ldr	r1, .L210+28
 3411 0092 0120     		movs	r0, #1
 3412 0094 FFF7FEFF 		bl	_test_assert_sequence
 3413              	.LVL221:
 3414              		.loc 1 197 1 is_stmt 0 view .LVU638
 3415 0098 0E4B     		ldr	r3, .L210
 3416              		.loc 1 195 3 view .LVU639
 3417 009a 50B1     		cbz	r0, .L209
 3418              		.loc 1 197 1 view .LVU640
 3419 009c 1A68     		ldr	r2, [r3]
ARM GAS  /tmp/ccqhiTbD.s 			page 61


 3420 009e 039B     		ldr	r3, [sp, #12]
 3421 00a0 5A40     		eors	r2, r3, r2
 3422 00a2 14D1     		bne	.L207
 3423 00a4 04B0     		add	sp, sp, #16
 3424              		.cfi_remember_state
 3425              		.cfi_def_cfa_offset 24
 3426              		@ sp needed
 3427 00a6 BDE8F081 		pop	{r4, r5, r6, r7, r8, pc}
 3428              	.LVL222:
 3429              	.L208:
 3430              		.cfi_restore_state
 3431              	.LBB448:
 3432              	.LBB429:
 3433              	.LBB426:
 3434              	.LBB424:
 3435              		.loc 3 367 3 is_stmt 1 view .LVU641
 3436 00aa 1248     		ldr	r0, .L210+32
 3437 00ac FFF7FEFF 		bl	chSysHalt
 3438              	.LVL223:
 3439 00b0 C6E7     		b	.L202
 3440              	.LVL224:
 3441              	.L209:
 3442              		.loc 3 367 3 is_stmt 0 view .LVU642
 3443              	.LBE424:
 3444              	.LBE426:
 3445              	.LBE429:
 3446              	.LBE448:
 3447              		.loc 1 195 33 is_stmt 1 discriminator 2 view .LVU643
 3448              		.loc 1 196 3 discriminator 2 view .LVU644
 3449 00b2 1A68     		ldr	r2, [r3]
 3450 00b4 039B     		ldr	r3, [sp, #12]
 3451 00b6 5A40     		eors	r2, r3, r2
 3452 00b8 09D1     		bne	.L207
 3453 00ba 08F16902 		add	r2, r8, #105
 3454 00be 08F16401 		add	r1, r8, #100
 3455 00c2 0220     		movs	r0, #2
 3456              		.loc 1 197 1 is_stmt 0 discriminator 2 view .LVU645
 3457 00c4 04B0     		add	sp, sp, #16
 3458              		.cfi_remember_state
 3459              		.cfi_def_cfa_offset 24
 3460              		@ sp needed
 3461 00c6 BDE8F041 		pop	{r4, r5, r6, r7, r8, lr}
 3462              		.cfi_restore 14
 3463              		.cfi_restore 8
 3464              		.cfi_restore 7
 3465              		.cfi_restore 6
 3466              		.cfi_restore 5
 3467              		.cfi_restore 4
 3468              		.cfi_def_cfa_offset 0
 3469              	.LVL225:
 3470              		.loc 1 196 3 discriminator 2 view .LVU646
 3471 00ca FFF7FEBF 		b	_test_assert_time_window
 3472              	.LVL226:
 3473              	.L207:
 3474              		.cfi_restore_state
 3475              		.loc 1 197 1 view .LVU647
 3476 00ce FFF7FEFF 		bl	__stack_chk_fail
ARM GAS  /tmp/ccqhiTbD.s 			page 62


 3477              	.LVL227:
 3478              	.L211:
 3479 00d2 00BF     		.align	2
 3480              	.L210:
 3481 00d4 00000000 		.word	.LC34
 3482 00d8 00000000 		.word	ch
 3483 00dc 00000000 		.word	wa
 3484 00e0 00000000 		.word	thread2H
 3485 00e4 00000000 		.word	threads
 3486 00e8 00000000 		.word	thread2M
 3487 00ec 00000000 		.word	thread2L
 3488 00f0 00000000 		.word	.LC30
 3489 00f4 00000000 		.word	.LANCHOR2
 3490              		.cfi_endproc
 3491              	.LFE226:
 3492              		.size	mtx2_execute, .-mtx2_execute
 3493              		.section	.rodata.mtx6_execute.cst4,"aM",%progbits,4
 3494              		.align	2
 3495              	.LC35:
 3496 0000 00000000 		.word	__stack_chk_guard
 3497              		.section	.text.mtx6_execute,"ax",%progbits
 3498              		.align	1
 3499              		.p2align 4,,15
 3500              		.syntax unified
 3501              		.thumb
 3502              		.thumb_func
 3503              		.fpu fpv4-sp-d16
 3504              		.type	mtx6_execute, %function
 3505              	mtx6_execute:
 3506              	.LFB242:
 3507              		.loc 1 483 32 is_stmt 1 view -0
 3508              		.cfi_startproc
 3509              		@ args = 0, pretend = 0, frame = 8
 3510              		@ frame_needed = 0, uses_anonymous_args = 0
 3511 0000 F0B5     		push	{r4, r5, r6, r7, lr}
 3512              		.cfi_def_cfa_offset 20
 3513              		.cfi_offset 4, -20
 3514              		.cfi_offset 5, -16
 3515              		.cfi_offset 6, -12
 3516              		.cfi_offset 7, -8
 3517              		.cfi_offset 14, -4
 3518              	.LBB463:
 3519              	.LBB464:
 3520              	.LBB465:
 3521              	.LBB466:
 3522              		.loc 2 176 18 is_stmt 0 view .LVU649
 3523 0002 3E4F     		ldr	r7, .L219
 3524              	.LBE466:
 3525              	.LBE465:
 3526              	.LBE464:
 3527              	.LBE463:
 3528              		.loc 1 486 16 view .LVU650
 3529 0004 3E4E     		ldr	r6, .L219+4
 3530              	.LBB472:
 3531              	.LBB469:
 3532              		.loc 2 189 25 view .LVU651
 3533 0006 BA69     		ldr	r2, [r7, #24]
ARM GAS  /tmp/ccqhiTbD.s 			page 63


 3534              	.LBE469:
 3535              	.LBE472:
 3536              		.loc 1 486 16 view .LVU652
 3537 0008 3E4B     		ldr	r3, .L219+8
 3538              	.LBB473:
 3539              	.LBB470:
 3540              		.loc 2 189 25 view .LVU653
 3541 000a 9568     		ldr	r5, [r2, #8]
 3542              	.LBE470:
 3543              	.LBE473:
 3544              		.loc 1 483 32 view .LVU654
 3545 000c 3E49     		ldr	r1, .L219+12
 3546              		.loc 1 486 16 view .LVU655
 3547 000e 3068     		ldr	r0, [r6]
 3548              		.loc 1 486 14 view .LVU656
 3549 0010 3E4C     		ldr	r4, .L219+16
 3550              		.loc 1 483 32 view .LVU657
 3551 0012 85B0     		sub	sp, sp, #20
 3552              		.cfi_def_cfa_offset 40
 3553              		.loc 1 486 16 view .LVU658
 3554 0014 6A1C     		adds	r2, r5, #1
 3555 0016 0093     		str	r3, [sp]
 3556              		.loc 1 483 32 view .LVU659
 3557 0018 0968     		ldr	r1, [r1]
 3558 001a 0391     		str	r1, [sp, #12]
 3559 001c 4FF00001 		mov	r1,#0
 3560              		.loc 1 485 3 is_stmt 1 view .LVU660
 3561              	.LBB474:
 3562              	.LBI463:
 3563              		.loc 2 187 23 view .LVU661
 3564              	.LBB471:
 3565              		.loc 2 189 3 view .LVU662
 3566              	.LBB468:
 3567              	.LBI465:
 3568              		.loc 2 174 25 view .LVU663
 3569              	.LBB467:
 3570              		.loc 2 176 3 view .LVU664
 3571              	.LVL228:
 3572              		.loc 2 176 3 is_stmt 0 view .LVU665
 3573              	.LBE467:
 3574              	.LBE468:
 3575              	.LBE471:
 3576              	.LBE474:
 3577              		.loc 1 486 3 is_stmt 1 view .LVU666
 3578              		.loc 1 486 16 is_stmt 0 view .LVU667
 3579 0020 3B4B     		ldr	r3, .L219+20
 3580 0022 4FF4FC71 		mov	r1, #504
 3581 0026 FFF7FEFF 		bl	chThdCreateStatic
 3582              	.LVL229:
 3583              		.loc 1 487 16 view .LVU668
 3584 002a 3A4B     		ldr	r3, .L219+24
 3585 002c 0093     		str	r3, [sp]
 3586              		.loc 1 486 16 view .LVU669
 3587 002e 0146     		mov	r1, r0
 3588              		.loc 1 487 16 view .LVU670
 3589 0030 AA1C     		adds	r2, r5, #2
 3590              		.loc 1 486 14 view .LVU671
ARM GAS  /tmp/ccqhiTbD.s 			page 64


 3591 0032 2160     		str	r1, [r4]
 3592              		.loc 1 487 3 is_stmt 1 view .LVU672
 3593              		.loc 1 487 16 is_stmt 0 view .LVU673
 3594 0034 7068     		ldr	r0, [r6, #4]
 3595 0036 364B     		ldr	r3, .L219+20
 3596 0038 4FF4FC71 		mov	r1, #504
 3597 003c FFF7FEFF 		bl	chThdCreateStatic
 3598              	.LVL230:
 3599              		.loc 1 488 16 view .LVU674
 3600 0040 354B     		ldr	r3, .L219+28
 3601 0042 0093     		str	r3, [sp]
 3602              		.loc 1 487 16 view .LVU675
 3603 0044 0146     		mov	r1, r0
 3604              		.loc 1 488 16 view .LVU676
 3605 0046 EA1C     		adds	r2, r5, #3
 3606              		.loc 1 487 14 view .LVU677
 3607 0048 6160     		str	r1, [r4, #4]
 3608              		.loc 1 488 3 is_stmt 1 view .LVU678
 3609              		.loc 1 488 16 is_stmt 0 view .LVU679
 3610 004a B068     		ldr	r0, [r6, #8]
 3611 004c 304B     		ldr	r3, .L219+20
 3612 004e 4FF4FC71 		mov	r1, #504
 3613 0052 FFF7FEFF 		bl	chThdCreateStatic
 3614              	.LVL231:
 3615              		.loc 1 489 16 view .LVU680
 3616 0056 314B     		ldr	r3, .L219+32
 3617 0058 0093     		str	r3, [sp]
 3618              		.loc 1 488 16 view .LVU681
 3619 005a 0146     		mov	r1, r0
 3620              		.loc 1 489 16 view .LVU682
 3621 005c 2A1D     		adds	r2, r5, #4
 3622              		.loc 1 488 14 view .LVU683
 3623 005e A160     		str	r1, [r4, #8]
 3624              		.loc 1 489 3 is_stmt 1 view .LVU684
 3625              		.loc 1 489 16 is_stmt 0 view .LVU685
 3626 0060 F068     		ldr	r0, [r6, #12]
 3627 0062 2B4B     		ldr	r3, .L219+20
 3628 0064 4FF4FC71 		mov	r1, #504
 3629 0068 FFF7FEFF 		bl	chThdCreateStatic
 3630              	.LVL232:
 3631              		.loc 1 490 16 view .LVU686
 3632 006c 2C4B     		ldr	r3, .L219+36
 3633 006e 0093     		str	r3, [sp]
 3634              		.loc 1 489 16 view .LVU687
 3635 0070 0146     		mov	r1, r0
 3636              		.loc 1 489 14 view .LVU688
 3637 0072 E160     		str	r1, [r4, #12]
 3638              		.loc 1 490 3 is_stmt 1 view .LVU689
 3639              		.loc 1 490 16 is_stmt 0 view .LVU690
 3640 0074 3069     		ldr	r0, [r6, #16]
 3641 0076 264B     		ldr	r3, .L219+20
 3642 0078 6A1D     		adds	r2, r5, #5
 3643 007a 4FF4FC71 		mov	r1, #504
 3644 007e FFF7FEFF 		bl	chThdCreateStatic
 3645              	.LVL233:
 3646              	.LBB475:
 3647              	.LBB476:
ARM GAS  /tmp/ccqhiTbD.s 			page 65


 3648              	.LBB477:
 3649              	.LBB478:
 3650              	.LBB479:
 3651              		.loc 5 546 3 view .LVU691
 3652 0082 2023     		movs	r3, #32
 3653              	.LBE479:
 3654              	.LBE478:
 3655              	.LBE477:
 3656              	.LBE476:
 3657              	.LBE475:
 3658              		.loc 1 490 14 view .LVU692
 3659 0084 2061     		str	r0, [r4, #16]
 3660              		.loc 1 491 3 is_stmt 1 view .LVU693
 3661              	.LBB486:
 3662              	.LBI475:
 3663              		.loc 3 346 20 view .LVU694
 3664              	.LBB484:
 3665              		.loc 3 348 3 view .LVU695
 3666              	.LBB482:
 3667              	.LBI477:
 3668              		.loc 4 444 20 view .LVU696
 3669              	.LBE482:
 3670              	.LBE484:
 3671              	.LBE486:
 3672              		.loc 4 447 3 view .LVU697
 3673              	.LVL234:
 3674              	.LBB487:
 3675              	.LBB485:
 3676              	.LBB483:
 3677              	.LBB481:
 3678              	.LBI478:
 3679              		.loc 5 544 57 view .LVU698
 3680              	.LBB480:
 3681              		.loc 5 546 3 view .LVU699
 3682              		.syntax unified
 3683              	@ 546 ".//ChibiOS//os/ext/CMSIS/include/core_cmFunc.h" 1
 3684 0086 83F31188 		MSR basepri, r3
 3685              	@ 0 "" 2
 3686              	.LVL235:
 3687              		.loc 5 546 3 is_stmt 0 view .LVU700
 3688              		.thumb
 3689              		.syntax unified
 3690              	.LBE480:
 3691              	.LBE481:
 3692              	.LBE483:
 3693              		.loc 3 349 3 is_stmt 1 view .LVU701
 3694 008a FFF7FEFF 		bl	_stats_start_measure_crit_thd
 3695              	.LVL236:
 3696              		.loc 3 350 3 view .LVU702
 3697 008e FFF7FEFF 		bl	_dbg_check_lock
 3698              	.LVL237:
 3699              	.LBE485:
 3700              	.LBE487:
 3701              		.loc 1 492 3 view .LVU703
 3702 0092 2448     		ldr	r0, .L219+40
 3703 0094 FFF7FEFF 		bl	chCondSignalI
 3704              	.LVL238:
ARM GAS  /tmp/ccqhiTbD.s 			page 66


 3705              		.loc 1 493 3 view .LVU704
 3706 0098 2248     		ldr	r0, .L219+40
 3707 009a FFF7FEFF 		bl	chCondSignalI
 3708              	.LVL239:
 3709              		.loc 1 494 3 view .LVU705
 3710 009e 2148     		ldr	r0, .L219+40
 3711 00a0 FFF7FEFF 		bl	chCondSignalI
 3712              	.LVL240:
 3713              		.loc 1 495 3 view .LVU706
 3714 00a4 1F48     		ldr	r0, .L219+40
 3715 00a6 FFF7FEFF 		bl	chCondSignalI
 3716              	.LVL241:
 3717              		.loc 1 496 3 view .LVU707
 3718 00aa 1E48     		ldr	r0, .L219+40
 3719 00ac FFF7FEFF 		bl	chCondSignalI
 3720              	.LVL242:
 3721              		.loc 1 497 3 view .LVU708
 3722 00b0 FFF7FEFF 		bl	chSchRescheduleS
 3723              	.LVL243:
 3724              		.loc 1 498 3 view .LVU709
 3725              	.LBB488:
 3726              	.LBI488:
 3727              		.loc 3 358 20 view .LVU710
 3728              	.LBB489:
 3729              		.loc 3 360 3 view .LVU711
 3730 00b4 FFF7FEFF 		bl	_dbg_check_unlock
 3731              	.LVL244:
 3732              		.loc 3 361 3 view .LVU712
 3733 00b8 FFF7FEFF 		bl	_stats_stop_measure_crit_thd
 3734              	.LVL245:
 3735              		.loc 3 367 3 view .LVU713
 3736              		.loc 3 367 3 view .LVU714
 3737              		.loc 3 367 3 view .LVU715
 3738 00bc 3B68     		ldr	r3, [r7]
 3739 00be BB42     		cmp	r3, r7
 3740 00c0 04D0     		beq	.L213
 3741 00c2 BA69     		ldr	r2, [r7, #24]
 3742 00c4 9B68     		ldr	r3, [r3, #8]
 3743 00c6 9268     		ldr	r2, [r2, #8]
 3744 00c8 9A42     		cmp	r2, r3
 3745 00ca 10D3     		bcc	.L217
 3746              	.L213:
 3747              		.loc 3 367 3 view .LVU716
 3748              		.loc 3 371 3 view .LVU717
 3749              	.LBB490:
 3750              	.LBI490:
 3751              		.loc 4 458 20 view .LVU718
 3752              	.LBE490:
 3753              	.LBE489:
 3754              	.LBE488:
 3755              		.loc 4 461 3 view .LVU719
 3756              	.LVL246:
 3757              	.LBB496:
 3758              	.LBB494:
 3759              	.LBB493:
 3760              	.LBB491:
 3761              	.LBI491:
ARM GAS  /tmp/ccqhiTbD.s 			page 67


 3762              		.loc 5 544 57 view .LVU720
 3763              	.LBB492:
 3764              		.loc 5 546 3 view .LVU721
 3765 00cc 0023     		movs	r3, #0
 3766              		.syntax unified
 3767              	@ 546 ".//ChibiOS//os/ext/CMSIS/include/core_cmFunc.h" 1
 3768 00ce 83F31188 		MSR basepri, r3
 3769              	@ 0 "" 2
 3770              	.LVL247:
 3771              		.loc 5 546 3 is_stmt 0 view .LVU722
 3772              		.thumb
 3773              		.syntax unified
 3774              	.LBE492:
 3775              	.LBE491:
 3776              	.LBE493:
 3777              	.LBE494:
 3778              	.LBE496:
 3779              		.loc 1 499 3 is_stmt 1 view .LVU723
 3780 00d2 FFF7FEFF 		bl	test_wait_threads
 3781              	.LVL248:
 3782              		.loc 1 500 3 view .LVU724
 3783 00d6 0C4B     		ldr	r3, .L219+12
 3784 00d8 1A68     		ldr	r2, [r3]
 3785 00da 039B     		ldr	r3, [sp, #12]
 3786 00dc 5A40     		eors	r2, r3, r2
 3787 00de 0AD1     		bne	.L218
 3788 00e0 1149     		ldr	r1, .L219+44
 3789 00e2 0120     		movs	r0, #1
 3790              		.loc 1 501 1 is_stmt 0 view .LVU725
 3791 00e4 05B0     		add	sp, sp, #20
 3792              		.cfi_remember_state
 3793              		.cfi_def_cfa_offset 20
 3794              		@ sp needed
 3795 00e6 BDE8F040 		pop	{r4, r5, r6, r7, lr}
 3796              		.cfi_restore 14
 3797              		.cfi_restore 7
 3798              		.cfi_restore 6
 3799              		.cfi_restore 5
 3800              		.cfi_restore 4
 3801              		.cfi_def_cfa_offset 0
 3802              	.LVL249:
 3803              		.loc 1 500 3 view .LVU726
 3804 00ea FFF7FEBF 		b	_test_assert_sequence
 3805              	.LVL250:
 3806              	.L217:
 3807              		.cfi_restore_state
 3808              	.LBB497:
 3809              	.LBB495:
 3810              		.loc 3 367 3 is_stmt 1 view .LVU727
 3811 00ee 0F48     		ldr	r0, .L219+48
 3812 00f0 FFF7FEFF 		bl	chSysHalt
 3813              	.LVL251:
 3814 00f4 EAE7     		b	.L213
 3815              	.L218:
 3816              	.LBE495:
 3817              	.LBE497:
 3818              		.loc 1 500 3 is_stmt 0 view .LVU728
ARM GAS  /tmp/ccqhiTbD.s 			page 68


 3819 00f6 FFF7FEFF 		bl	__stack_chk_fail
 3820              	.LVL252:
 3821              	.L220:
 3822 00fa 00BF     		.align	2
 3823              	.L219:
 3824 00fc 00000000 		.word	ch
 3825 0100 00000000 		.word	wa
 3826 0104 00000000 		.word	.LC0
 3827 0108 00000000 		.word	.LC35
 3828 010c 00000000 		.word	threads
 3829 0110 00000000 		.word	thread10
 3830 0114 04000000 		.word	.LC1
 3831 0118 08000000 		.word	.LC2
 3832 011c 0C000000 		.word	.LC3
 3833 0120 10000000 		.word	.LC4
 3834 0124 00000000 		.word	.LANCHOR3
 3835 0128 14000000 		.word	.LC5
 3836 012c 00000000 		.word	.LANCHOR2
 3837              		.cfi_endproc
 3838              	.LFE242:
 3839              		.size	mtx6_execute, .-mtx6_execute
 3840              		.section	.rodata.mtx3_execute.cst4,"aM",%progbits,4
 3841              		.align	2
 3842              	.LC36:
 3843 0000 00000000 		.word	__stack_chk_guard
 3844              		.section	.text.mtx3_execute,"ax",%progbits
 3845              		.align	1
 3846              		.p2align 4,,15
 3847              		.syntax unified
 3848              		.thumb
 3849              		.thumb_func
 3850              		.fpu fpv4-sp-d16
 3851              		.type	mtx3_execute, %function
 3852              	mtx3_execute:
 3853              	.LFB233:
 3854              		.loc 1 299 32 is_stmt 1 view -0
 3855              		.cfi_startproc
 3856              		@ args = 0, pretend = 0, frame = 8
 3857              		@ frame_needed = 0, uses_anonymous_args = 0
 3858 0000 2DE9F041 		push	{r4, r5, r6, r7, r8, lr}
 3859              		.cfi_def_cfa_offset 24
 3860              		.cfi_offset 4, -24
 3861              		.cfi_offset 5, -20
 3862              		.cfi_offset 6, -16
 3863              		.cfi_offset 7, -12
 3864              		.cfi_offset 8, -8
 3865              		.cfi_offset 14, -4
 3866 0004 3E4B     		ldr	r3, .L230
 3867 0006 84B0     		sub	sp, sp, #16
 3868              		.cfi_def_cfa_offset 40
 3869              		.loc 1 299 32 is_stmt 0 view .LVU730
 3870 0008 1B68     		ldr	r3, [r3]
 3871 000a 0393     		str	r3, [sp, #12]
 3872 000c 4FF00003 		mov	r3,#0
 3873              		.loc 1 300 3 is_stmt 1 view .LVU731
 3874              		.loc 1 302 3 view .LVU732
 3875 0010 FFF7FEFF 		bl	test_wait_tick
ARM GAS  /tmp/ccqhiTbD.s 			page 69


 3876              	.LVL253:
 3877              		.loc 1 303 3 view .LVU733
 3878              	.LBB532:
 3879              	.LBI532:
 3880              		.loc 7 247 25 view .LVU734
 3881              	.LBB533:
 3882              		.loc 7 248 3 view .LVU735
 3883              		.loc 7 250 3 view .LVU736
 3884              	.LBB534:
 3885              	.LBI534:
 3886              		.loc 3 346 20 view .LVU737
 3887              	.LBB535:
 3888              		.loc 3 348 3 view .LVU738
 3889              	.LBB536:
 3890              	.LBI536:
 3891              		.loc 4 444 20 view .LVU739
 3892              	.LBE536:
 3893              	.LBE535:
 3894              	.LBE534:
 3895              	.LBE533:
 3896              	.LBE532:
 3897              		.loc 4 447 3 view .LVU740
 3898              	.LBB561:
 3899              	.LBB558:
 3900              	.LBB542:
 3901              	.LBB540:
 3902              	.LBB539:
 3903              	.LBB537:
 3904              	.LBI537:
 3905              		.loc 5 544 57 view .LVU741
 3906              	.LBB538:
 3907              		.loc 5 546 3 view .LVU742
 3908 0014 2023     		movs	r3, #32
 3909              		.syntax unified
 3910              	@ 546 ".//ChibiOS//os/ext/CMSIS/include/core_cmFunc.h" 1
 3911 0016 83F31188 		MSR basepri, r3
 3912              	@ 0 "" 2
 3913              	.LVL254:
 3914              		.loc 5 546 3 is_stmt 0 view .LVU743
 3915              		.thumb
 3916              		.syntax unified
 3917              	.LBE538:
 3918              	.LBE537:
 3919              	.LBE539:
 3920              		.loc 3 349 3 is_stmt 1 view .LVU744
 3921              	.LBE540:
 3922              	.LBE542:
 3923              	.LBB543:
 3924              	.LBB544:
 3925              		.loc 7 231 19 is_stmt 0 view .LVU745
 3926 001a 3A4C     		ldr	r4, .L230+4
 3927              	.LBE544:
 3928              	.LBE543:
 3929              	.LBB546:
 3930              	.LBB541:
 3931              		.loc 3 349 3 view .LVU746
 3932 001c FFF7FEFF 		bl	_stats_start_measure_crit_thd
ARM GAS  /tmp/ccqhiTbD.s 			page 70


 3933              	.LVL255:
 3934              		.loc 3 350 3 is_stmt 1 view .LVU747
 3935 0020 FFF7FEFF 		bl	_dbg_check_lock
 3936              	.LVL256:
 3937              	.LBE541:
 3938              	.LBE546:
 3939              		.loc 7 251 3 view .LVU748
 3940              	.LBB547:
 3941              	.LBI543:
 3942              		.loc 7 228 25 view .LVU749
 3943              	.LBB545:
 3944              		.loc 7 231 3 view .LVU750
 3945              		.loc 7 231 19 is_stmt 0 view .LVU751
 3946 0024 D4F82880 		ldr	r8, [r4, #40]
 3947              	.LVL257:
 3948              		.loc 7 231 19 view .LVU752
 3949              	.LBE545:
 3950              	.LBE547:
 3951              		.loc 7 252 3 is_stmt 1 view .LVU753
 3952              	.LBB548:
 3953              	.LBI548:
 3954              		.loc 3 358 20 view .LVU754
 3955              	.LBB549:
 3956              		.loc 3 360 3 view .LVU755
 3957 0028 FFF7FEFF 		bl	_dbg_check_unlock
 3958              	.LVL258:
 3959              		.loc 3 361 3 view .LVU756
 3960 002c FFF7FEFF 		bl	_stats_stop_measure_crit_thd
 3961              	.LVL259:
 3962              		.loc 3 367 3 view .LVU757
 3963              		.loc 3 367 3 view .LVU758
 3964              		.loc 3 367 3 view .LVU759
 3965 0030 2368     		ldr	r3, [r4]
 3966 0032 A342     		cmp	r3, r4
 3967 0034 04D0     		beq	.L222
 3968 0036 A269     		ldr	r2, [r4, #24]
 3969 0038 9B68     		ldr	r3, [r3, #8]
 3970 003a 9268     		ldr	r2, [r2, #8]
 3971 003c 9A42     		cmp	r2, r3
 3972 003e 4AD3     		bcc	.L228
 3973              	.L222:
 3974              		.loc 3 367 3 view .LVU760
 3975              		.loc 3 371 3 view .LVU761
 3976              	.LBB550:
 3977              	.LBI550:
 3978              		.loc 4 458 20 view .LVU762
 3979              	.LBE550:
 3980              	.LBE549:
 3981              	.LBE548:
 3982              	.LBE558:
 3983              	.LBE561:
 3984              		.loc 4 461 3 view .LVU763
 3985              	.LVL260:
 3986              	.LBB562:
 3987              	.LBB559:
 3988              	.LBB556:
 3989              	.LBB554:
ARM GAS  /tmp/ccqhiTbD.s 			page 71


 3990              	.LBB553:
 3991              	.LBB551:
 3992              	.LBI551:
 3993              		.loc 5 544 57 view .LVU764
 3994              	.LBB552:
 3995              		.loc 5 546 3 view .LVU765
 3996 0040 0025     		movs	r5, #0
 3997              		.syntax unified
 3998              	@ 546 ".//ChibiOS//os/ext/CMSIS/include/core_cmFunc.h" 1
 3999 0042 85F31188 		MSR basepri, r5
 4000              	@ 0 "" 2
 4001              	.LVL261:
 4002              		.loc 5 546 3 is_stmt 0 view .LVU766
 4003              		.thumb
 4004              		.syntax unified
 4005              	.LBE552:
 4006              	.LBE551:
 4007              	.LBE553:
 4008              	.LBE554:
 4009              	.LBE556:
 4010              		.loc 7 254 3 is_stmt 1 view .LVU767
 4011              		.loc 7 254 3 is_stmt 0 view .LVU768
 4012              	.LBE559:
 4013              	.LBE562:
 4014              		.loc 1 304 3 is_stmt 1 view .LVU769
 4015              	.LBB563:
 4016              	.LBI563:
 4017              		.loc 2 187 23 view .LVU770
 4018              	.LBB564:
 4019              		.loc 2 189 3 view .LVU771
 4020              	.LBB565:
 4021              	.LBI565:
 4022              		.loc 2 174 25 view .LVU772
 4023              	.LBB566:
 4024              		.loc 2 176 3 view .LVU773
 4025              	.LBE566:
 4026              	.LBE565:
 4027              		.loc 2 189 25 is_stmt 0 view .LVU774
 4028 0046 A369     		ldr	r3, [r4, #24]
 4029              	.LBE564:
 4030              	.LBE563:
 4031              		.loc 1 304 16 view .LVU775
 4032 0048 2F4F     		ldr	r7, .L230+8
 4033 004a 9A68     		ldr	r2, [r3, #8]
 4034 004c 3868     		ldr	r0, [r7]
 4035 004e 2F4B     		ldr	r3, .L230+12
 4036 0050 0095     		str	r5, [sp]
 4037 0052 053A     		subs	r2, r2, #5
 4038 0054 4FF4FC71 		mov	r1, #504
 4039 0058 FFF7FEFF 		bl	chThdCreateStatic
 4040              	.LVL262:
 4041              		.loc 1 304 14 view .LVU776
 4042 005c 2C4E     		ldr	r6, .L230+16
 4043              	.LBB567:
 4044              	.LBB568:
 4045              		.loc 2 189 25 view .LVU777
 4046 005e A369     		ldr	r3, [r4, #24]
ARM GAS  /tmp/ccqhiTbD.s 			page 72


 4047              	.LBE568:
 4048              	.LBE567:
 4049              		.loc 1 304 14 view .LVU778
 4050 0060 3060     		str	r0, [r6]
 4051              		.loc 1 305 3 is_stmt 1 view .LVU779
 4052              	.LBB572:
 4053              	.LBI567:
 4054              		.loc 2 187 23 view .LVU780
 4055              	.LBB571:
 4056              		.loc 2 189 3 view .LVU781
 4057              	.LBB569:
 4058              	.LBI569:
 4059              		.loc 2 174 25 view .LVU782
 4060              	.LBB570:
 4061              		.loc 2 176 3 view .LVU783
 4062              	.LBE570:
 4063              	.LBE569:
 4064              	.LBE571:
 4065              	.LBE572:
 4066              		.loc 1 305 16 is_stmt 0 view .LVU784
 4067 0062 9A68     		ldr	r2, [r3, #8]
 4068 0064 7868     		ldr	r0, [r7, #4]
 4069 0066 2B4B     		ldr	r3, .L230+20
 4070 0068 0095     		str	r5, [sp]
 4071 006a 043A     		subs	r2, r2, #4
 4072 006c 4FF4FC71 		mov	r1, #504
 4073 0070 FFF7FEFF 		bl	chThdCreateStatic
 4074              	.LVL263:
 4075              	.LBB573:
 4076              	.LBB574:
 4077              		.loc 2 189 25 view .LVU785
 4078 0074 A369     		ldr	r3, [r4, #24]
 4079              	.LBE574:
 4080              	.LBE573:
 4081              		.loc 1 305 14 view .LVU786
 4082 0076 7060     		str	r0, [r6, #4]
 4083              		.loc 1 306 3 is_stmt 1 view .LVU787
 4084              	.LBB578:
 4085              	.LBI573:
 4086              		.loc 2 187 23 view .LVU788
 4087              	.LBB577:
 4088              		.loc 2 189 3 view .LVU789
 4089              	.LBB575:
 4090              	.LBI575:
 4091              		.loc 2 174 25 view .LVU790
 4092              	.LBB576:
 4093              		.loc 2 176 3 view .LVU791
 4094              	.LBE576:
 4095              	.LBE575:
 4096              	.LBE577:
 4097              	.LBE578:
 4098              		.loc 1 306 16 is_stmt 0 view .LVU792
 4099 0078 9A68     		ldr	r2, [r3, #8]
 4100 007a B868     		ldr	r0, [r7, #8]
 4101 007c 264B     		ldr	r3, .L230+24
 4102 007e 0095     		str	r5, [sp]
 4103 0080 033A     		subs	r2, r2, #3
ARM GAS  /tmp/ccqhiTbD.s 			page 73


 4104 0082 4FF4FC71 		mov	r1, #504
 4105 0086 FFF7FEFF 		bl	chThdCreateStatic
 4106              	.LVL264:
 4107              	.LBB579:
 4108              	.LBB580:
 4109              		.loc 2 189 25 view .LVU793
 4110 008a A369     		ldr	r3, [r4, #24]
 4111              	.LBE580:
 4112              	.LBE579:
 4113              		.loc 1 306 14 view .LVU794
 4114 008c B060     		str	r0, [r6, #8]
 4115              		.loc 1 307 3 is_stmt 1 view .LVU795
 4116              	.LBB584:
 4117              	.LBI579:
 4118              		.loc 2 187 23 view .LVU796
 4119              	.LBB583:
 4120              		.loc 2 189 3 view .LVU797
 4121              	.LBB581:
 4122              	.LBI581:
 4123              		.loc 2 174 25 view .LVU798
 4124              	.LBB582:
 4125              		.loc 2 176 3 view .LVU799
 4126              	.LBE582:
 4127              	.LBE581:
 4128              	.LBE583:
 4129              	.LBE584:
 4130              		.loc 1 307 16 is_stmt 0 view .LVU800
 4131 008e 9A68     		ldr	r2, [r3, #8]
 4132 0090 F868     		ldr	r0, [r7, #12]
 4133 0092 224B     		ldr	r3, .L230+28
 4134 0094 0095     		str	r5, [sp]
 4135 0096 023A     		subs	r2, r2, #2
 4136 0098 4FF4FC71 		mov	r1, #504
 4137 009c FFF7FEFF 		bl	chThdCreateStatic
 4138              	.LVL265:
 4139              	.LBB585:
 4140              	.LBB586:
 4141              		.loc 2 189 25 view .LVU801
 4142 00a0 A369     		ldr	r3, [r4, #24]
 4143              	.LBE586:
 4144              	.LBE585:
 4145              		.loc 1 307 14 view .LVU802
 4146 00a2 F060     		str	r0, [r6, #12]
 4147              		.loc 1 308 3 is_stmt 1 view .LVU803
 4148              	.LBB590:
 4149              	.LBI585:
 4150              		.loc 2 187 23 view .LVU804
 4151              	.LBB589:
 4152              		.loc 2 189 3 view .LVU805
 4153              	.LBB587:
 4154              	.LBI587:
 4155              		.loc 2 174 25 view .LVU806
 4156              	.LBB588:
 4157              		.loc 2 176 3 view .LVU807
 4158              	.LBE588:
 4159              	.LBE587:
 4160              	.LBE589:
ARM GAS  /tmp/ccqhiTbD.s 			page 74


 4161              	.LBE590:
 4162              		.loc 1 308 16 is_stmt 0 view .LVU808
 4163 00a4 9A68     		ldr	r2, [r3, #8]
 4164 00a6 3869     		ldr	r0, [r7, #16]
 4165 00a8 1D4B     		ldr	r3, .L230+32
 4166 00aa 0095     		str	r5, [sp]
 4167 00ac 013A     		subs	r2, r2, #1
 4168 00ae 4FF4FC71 		mov	r1, #504
 4169 00b2 FFF7FEFF 		bl	chThdCreateStatic
 4170              	.LVL266:
 4171              		.loc 1 308 14 view .LVU809
 4172 00b6 3061     		str	r0, [r6, #16]
 4173              		.loc 1 309 3 is_stmt 1 view .LVU810
 4174 00b8 FFF7FEFF 		bl	test_wait_threads
 4175              	.LVL267:
 4176              		.loc 1 310 3 view .LVU811
 4177 00bc 1949     		ldr	r1, .L230+36
 4178 00be 0120     		movs	r0, #1
 4179 00c0 FFF7FEFF 		bl	_test_assert_sequence
 4180              	.LVL268:
 4181              		.loc 1 312 1 is_stmt 0 view .LVU812
 4182 00c4 0E4B     		ldr	r3, .L230
 4183              		.loc 1 310 3 view .LVU813
 4184 00c6 50B1     		cbz	r0, .L229
 4185              		.loc 1 312 1 view .LVU814
 4186 00c8 1A68     		ldr	r2, [r3]
 4187 00ca 039B     		ldr	r3, [sp, #12]
 4188 00cc 5A40     		eors	r2, r3, r2
 4189 00ce 14D1     		bne	.L227
 4190 00d0 04B0     		add	sp, sp, #16
 4191              		.cfi_remember_state
 4192              		.cfi_def_cfa_offset 24
 4193              		@ sp needed
 4194 00d2 BDE8F081 		pop	{r4, r5, r6, r7, r8, pc}
 4195              	.LVL269:
 4196              	.L228:
 4197              		.cfi_restore_state
 4198              	.LBB591:
 4199              	.LBB560:
 4200              	.LBB557:
 4201              	.LBB555:
 4202              		.loc 3 367 3 is_stmt 1 view .LVU815
 4203 00d6 1448     		ldr	r0, .L230+40
 4204 00d8 FFF7FEFF 		bl	chSysHalt
 4205              	.LVL270:
 4206 00dc B0E7     		b	.L222
 4207              	.LVL271:
 4208              	.L229:
 4209              		.loc 3 367 3 is_stmt 0 view .LVU816
 4210              	.LBE555:
 4211              	.LBE557:
 4212              	.LBE560:
 4213              	.LBE591:
 4214              		.loc 1 310 35 is_stmt 1 discriminator 2 view .LVU817
 4215              		.loc 1 311 3 discriminator 2 view .LVU818
 4216 00de 1A68     		ldr	r2, [r3]
 4217 00e0 039B     		ldr	r3, [sp, #12]
ARM GAS  /tmp/ccqhiTbD.s 			page 75


 4218 00e2 5A40     		eors	r2, r3, r2
 4219 00e4 09D1     		bne	.L227
 4220 00e6 08F17302 		add	r2, r8, #115
 4221 00ea 08F16E01 		add	r1, r8, #110
 4222 00ee 0220     		movs	r0, #2
 4223              		.loc 1 312 1 is_stmt 0 discriminator 2 view .LVU819
 4224 00f0 04B0     		add	sp, sp, #16
 4225              		.cfi_remember_state
 4226              		.cfi_def_cfa_offset 24
 4227              		@ sp needed
 4228 00f2 BDE8F041 		pop	{r4, r5, r6, r7, r8, lr}
 4229              		.cfi_restore 14
 4230              		.cfi_restore 8
 4231              		.cfi_restore 7
 4232              		.cfi_restore 6
 4233              		.cfi_restore 5
 4234              		.cfi_restore 4
 4235              		.cfi_def_cfa_offset 0
 4236              	.LVL272:
 4237              		.loc 1 311 3 discriminator 2 view .LVU820
 4238 00f6 FFF7FEBF 		b	_test_assert_time_window
 4239              	.LVL273:
 4240              	.L227:
 4241              		.cfi_restore_state
 4242              		.loc 1 312 1 view .LVU821
 4243 00fa FFF7FEFF 		bl	__stack_chk_fail
 4244              	.LVL274:
 4245              	.L231:
 4246 00fe 00BF     		.align	2
 4247              	.L230:
 4248 0100 00000000 		.word	.LC36
 4249 0104 00000000 		.word	ch
 4250 0108 00000000 		.word	wa
 4251 010c 00000000 		.word	thread3LL
 4252 0110 00000000 		.word	threads
 4253 0114 00000000 		.word	thread3L
 4254 0118 00000000 		.word	thread3M
 4255 011c 00000000 		.word	thread3H
 4256 0120 00000000 		.word	thread3HH
 4257 0124 14000000 		.word	.LC5
 4258 0128 00000000 		.word	.LANCHOR2
 4259              		.cfi_endproc
 4260              	.LFE233:
 4261              		.size	mtx3_execute, .-mtx3_execute
 4262              		.global	patternmtx
 4263              		.global	testmtx8
 4264              		.section	.rodata.str1.4,"aMS",%progbits,1
 4265              		.align	2
 4266              	.LC37:
 4267 0000 436F6E64 		.ascii	"CondVar, boost test\000"
 4267      5661722C 
 4267      20626F6F 
 4267      73742074 
 4267      65737400 
 4268              		.global	testmtx7
 4269              		.align	2
 4270              	.LC38:
ARM GAS  /tmp/ccqhiTbD.s 			page 76


 4271 0014 436F6E64 		.ascii	"CondVar, broadcast test\000"
 4271      5661722C 
 4271      2062726F 
 4271      61646361 
 4271      73742074 
 4272              		.global	testmtx6
 4273              		.align	2
 4274              	.LC39:
 4275 002c 436F6E64 		.ascii	"CondVar, signal test\000"
 4275      5661722C 
 4275      20736967 
 4275      6E616C20 
 4275      74657374 
 4276              		.global	testmtx5
 4277 0041 000000   		.align	2
 4278              	.LC40:
 4279 0044 4D757465 		.ascii	"Mutexes, status\000"
 4279      7865732C 
 4279      20737461 
 4279      74757300 
 4280              		.global	testmtx4
 4281              		.align	2
 4282              	.LC41:
 4283 0054 4D757465 		.ascii	"Mutexes, priority return\000"
 4283      7865732C 
 4283      20707269 
 4283      6F726974 
 4283      79207265 
 4284              		.global	testmtx3
 4285 006d 000000   		.align	2
 4286              	.LC42:
 4287 0070 4D757465 		.ascii	"Mutexes, priority inheritance, complex case\000"
 4287      7865732C 
 4287      20707269 
 4287      6F726974 
 4287      7920696E 
 4288              		.global	testmtx2
 4289              		.align	2
 4290              	.LC43:
 4291 009c 4D757465 		.ascii	"Mutexes, priority inheritance, simple case\000"
 4291      7865732C 
 4291      20707269 
 4291      6F726974 
 4291      7920696E 
 4292              		.global	testmtx1
 4293 00c7 00       		.align	2
 4294              	.LC44:
 4295 00c8 4D757465 		.ascii	"Mutexes, priority enqueuing test\000"
 4295      7865732C 
 4295      20707269 
 4295      6F726974 
 4295      7920656E 
 4296              		.section	.data.c1,"aw"
 4297              		.align	2
 4298              		.set	.LANCHOR3,. + 0
 4299              		.type	c1, %object
 4300              		.size	c1, 8
ARM GAS  /tmp/ccqhiTbD.s 			page 77


 4301              	c1:
 4302 0000 00000000 		.word	c1
 4303 0004 00000000 		.word	c1
 4304              		.section	.data.m1,"aw"
 4305              		.align	2
 4306              		.set	.LANCHOR0,. + 0
 4307              		.type	m1, %object
 4308              		.size	m1, 20
 4309              	m1:
 4310 0000 00000000 		.word	m1
 4311 0004 00000000 		.word	m1
 4312 0008 00000000 		.word	0
 4313 000c 00000000 		.word	0
 4314 0010 00000000 		.word	0
 4315              		.section	.data.m2,"aw"
 4316              		.align	2
 4317              		.set	.LANCHOR1,. + 0
 4318              		.type	m2, %object
 4319              		.size	m2, 20
 4320              	m2:
 4321 0000 00000000 		.word	m2
 4322 0004 00000000 		.word	m2
 4323 0008 00000000 		.word	0
 4324 000c 00000000 		.word	0
 4325 0010 00000000 		.word	0
 4326              		.section	.rodata.__func__.7261,"a"
 4327              		.align	2
 4328              		.set	.LANCHOR2,. + 0
 4329              		.type	__func__.7261, %object
 4330              		.size	__func__.7261, 12
 4331              	__func__.7261:
 4332 0000 63685379 		.ascii	"chSysUnlock\000"
 4332      73556E6C 
 4332      6F636B00 
 4333              		.section	.rodata.patternmtx,"a"
 4334              		.align	2
 4335              		.type	patternmtx, %object
 4336              		.size	patternmtx, 36
 4337              	patternmtx:
 4338 0000 00000000 		.word	testmtx1
 4339 0004 00000000 		.word	testmtx2
 4340 0008 00000000 		.word	testmtx3
 4341 000c 00000000 		.word	testmtx4
 4342 0010 00000000 		.word	testmtx5
 4343 0014 00000000 		.word	testmtx6
 4344 0018 00000000 		.word	testmtx7
 4345 001c 00000000 		.word	testmtx8
 4346 0020 00000000 		.word	0
 4347              		.section	.rodata.testmtx1,"a"
 4348              		.align	2
 4349              		.type	testmtx1, %object
 4350              		.size	testmtx1, 16
 4351              	testmtx1:
 4352 0000 C8000000 		.word	.LC44
 4353 0004 00000000 		.word	mtx1_setup
 4354 0008 00000000 		.word	0
 4355 000c 00000000 		.word	mtx1_execute
ARM GAS  /tmp/ccqhiTbD.s 			page 78


 4356              		.section	.rodata.testmtx2,"a"
 4357              		.align	2
 4358              		.type	testmtx2, %object
 4359              		.size	testmtx2, 16
 4360              	testmtx2:
 4361 0000 9C000000 		.word	.LC43
 4362 0004 00000000 		.word	mtx2_setup
 4363 0008 00000000 		.word	0
 4364 000c 00000000 		.word	mtx2_execute
 4365              		.section	.rodata.testmtx3,"a"
 4366              		.align	2
 4367              		.type	testmtx3, %object
 4368              		.size	testmtx3, 16
 4369              	testmtx3:
 4370 0000 70000000 		.word	.LC42
 4371 0004 00000000 		.word	mtx3_setup
 4372 0008 00000000 		.word	0
 4373 000c 00000000 		.word	mtx3_execute
 4374              		.section	.rodata.testmtx4,"a"
 4375              		.align	2
 4376              		.type	testmtx4, %object
 4377              		.size	testmtx4, 16
 4378              	testmtx4:
 4379 0000 54000000 		.word	.LC41
 4380 0004 00000000 		.word	mtx4_setup
 4381 0008 00000000 		.word	0
 4382 000c 00000000 		.word	mtx4_execute
 4383              		.section	.rodata.testmtx5,"a"
 4384              		.align	2
 4385              		.type	testmtx5, %object
 4386              		.size	testmtx5, 16
 4387              	testmtx5:
 4388 0000 44000000 		.word	.LC40
 4389 0004 00000000 		.word	mtx5_setup
 4390 0008 00000000 		.word	0
 4391 000c 00000000 		.word	mtx5_execute
 4392              		.section	.rodata.testmtx6,"a"
 4393              		.align	2
 4394              		.type	testmtx6, %object
 4395              		.size	testmtx6, 16
 4396              	testmtx6:
 4397 0000 2C000000 		.word	.LC39
 4398 0004 00000000 		.word	mtx6_setup
 4399 0008 00000000 		.word	0
 4400 000c 00000000 		.word	mtx6_execute
 4401              		.section	.rodata.testmtx7,"a"
 4402              		.align	2
 4403              		.type	testmtx7, %object
 4404              		.size	testmtx7, 16
 4405              	testmtx7:
 4406 0000 14000000 		.word	.LC38
 4407 0004 00000000 		.word	mtx7_setup
 4408 0008 00000000 		.word	0
 4409 000c 00000000 		.word	mtx7_execute
 4410              		.section	.rodata.testmtx8,"a"
 4411              		.align	2
 4412              		.type	testmtx8, %object
ARM GAS  /tmp/ccqhiTbD.s 			page 79


 4413              		.size	testmtx8, 16
 4414              	testmtx8:
 4415 0000 00000000 		.word	.LC37
 4416 0004 00000000 		.word	mtx8_setup
 4417 0008 00000000 		.word	0
 4418 000c 00000000 		.word	mtx8_execute
 4419              		.text
 4420              	.Letext0:
 4421              		.file 8 "/usr/lib/gcc/arm-none-eabi/9.2.1/include/stddef.h"
 4422              		.file 9 "/usr/lib/gcc/arm-none-eabi/9.2.1/include/stdint.h"
 4423              		.file 10 ".//ChibiOS//os/rt/ports/ARMCMx/compilers/GCC/chtypes.h"
 4424              		.file 11 ".//ChibiOS//os/rt/include/chsystypes.h"
 4425              		.file 12 ".//ChibiOS//os/ext/CMSIS/include/core_cm4.h"
 4426              		.file 13 ".//ChibiOS//os/ext/CMSIS/ST/system_stm32f4xx.h"
 4427              		.file 14 ".//ChibiOS//os/rt/ports/ARMCMx/chcore.h"
 4428              		.file 15 ".//ChibiOS//os/rt/include/chdebug.h"
 4429              		.file 16 ".//ChibiOS//os/rt/include/chtm.h"
 4430              		.file 17 ".//ChibiOS//os/rt/include/chstats.h"
 4431              		.file 18 ".//ChibiOS//os/rt/include/chsem.h"
 4432              		.file 19 ".//ChibiOS//os/rt/include/chmtx.h"
 4433              		.file 20 ".//ChibiOS//os/rt/include/chregistry.h"
 4434              		.file 21 ".//ChibiOS//os/rt/include/chcond.h"
 4435              		.file 22 ".//ChibiOS//test/rt/test.h"