ARM GAS  /tmp/ccvURch4.s 			page 1


   1              		.cpu cortex-m4
   2              		.eabi_attribute 27, 1
   3              		.eabi_attribute 28, 1
   4              		.eabi_attribute 20, 1
   5              		.eabi_attribute 21, 1
   6              		.eabi_attribute 23, 3
   7              		.eabi_attribute 24, 1
   8              		.eabi_attribute 25, 1
   9              		.eabi_attribute 26, 1
  10              		.eabi_attribute 30, 2
  11              		.eabi_attribute 34, 1
  12              		.eabi_attribute 18, 4
  13              		.file	"testbmk.c"
  14              		.text
  15              	.Ltext0:
  16              		.cfi_sections	.debug_frame
  17              		.section	.rodata.tmo.cst4,"aM",%progbits,4
  18              		.align	2
  19              	.LC0:
  20 0000 00000000 		.word	__stack_chk_guard
  21              		.section	.text.tmo,"ax",%progbits
  22              		.align	1
  23              		.p2align 4,,15
  24              		.arch armv7e-m
  25              		.syntax unified
  26              		.thumb
  27              		.thumb_func
  28              		.fpu fpv4-sp-d16
  29              		.type	tmo, %function
  30              	tmo:
  31              	.LVL0:
  32              	.LFB235:
  33              		.file 1 ".//ChibiOS//test/rt/testbmk.c"
  34              		.loc 1 505 30 view -0
  35              		.cfi_startproc
  36              		@ args = 0, pretend = 0, frame = 8
  37              		@ frame_needed = 0, uses_anonymous_args = 0
  38              		.loc 1 505 30 is_stmt 0 view .LVU1
  39 0000 00B5     		push	{lr}
  40              		.cfi_def_cfa_offset 4
  41              		.cfi_offset 14, -4
  42 0002 084B     		ldr	r3, .L6
  43 0004 83B0     		sub	sp, sp, #12
  44              		.cfi_def_cfa_offset 16
  45              		.loc 1 505 30 view .LVU2
  46 0006 1B68     		ldr	r3, [r3]
  47 0008 0193     		str	r3, [sp, #4]
  48 000a 4FF00003 		mov	r3,#0
  49              		.loc 1 505 31 is_stmt 1 view .LVU3
  50              		.loc 1 505 1 is_stmt 0 view .LVU4
  51 000e 054B     		ldr	r3, .L6
  52 0010 1A68     		ldr	r2, [r3]
  53 0012 019B     		ldr	r3, [sp, #4]
  54 0014 5A40     		eors	r2, r3, r2
  55 0016 02D1     		bne	.L5
  56 0018 03B0     		add	sp, sp, #12
  57              		.cfi_remember_state
ARM GAS  /tmp/ccvURch4.s 			page 2


  58              		.cfi_def_cfa_offset 4
  59              		@ sp needed
  60 001a 5DF804FB 		ldr	pc, [sp], #4
  61              	.L5:
  62              		.cfi_restore_state
  63 001e FFF7FEFF 		bl	__stack_chk_fail
  64              	.LVL1:
  65              	.L7:
  66              		.loc 1 505 1 view .LVU5
  67 0022 00BF     		.align	2
  68              	.L6:
  69 0024 00000000 		.word	.LC0
  70              		.cfi_endproc
  71              	.LFE235:
  72              		.size	tmo, .-tmo
  73              		.section	.rodata.bmk13_execute.str1.4,"aMS",%progbits,1
  74              		.align	2
  75              	.LC1:
  76 0000 2D2D2D20 		.ascii	"--- System: \000"
  76      53797374 
  76      656D3A20 
  76      00
  77 000d 000000   		.align	2
  78              	.LC2:
  79 0010 20627974 		.ascii	" bytes\000"
  79      657300
  80 0017 00       		.align	2
  81              	.LC3:
  82 0018 2D2D2D20 		.ascii	"--- Thread: \000"
  82      54687265 
  82      61643A20 
  82      00
  83 0025 000000   		.align	2
  84              	.LC4:
  85 0028 2D2D2D20 		.ascii	"--- Timer : \000"
  85      54696D65 
  85      72203A20 
  85      00
  86 0035 000000   		.align	2
  87              	.LC5:
  88 0038 2D2D2D20 		.ascii	"--- Semaph: \000"
  88      53656D61 
  88      70683A20 
  88      00
  89 0045 000000   		.align	2
  90              	.LC6:
  91 0048 2D2D2D20 		.ascii	"--- EventS: \000"
  91      4576656E 
  91      74533A20 
  91      00
  92 0055 000000   		.align	2
  93              	.LC7:
  94 0058 2D2D2D20 		.ascii	"--- EventL: \000"
  94      4576656E 
  94      744C3A20 
  94      00
  95 0065 000000   		.align	2
ARM GAS  /tmp/ccvURch4.s 			page 3


  96              	.LC8:
  97 0068 2D2D2D20 		.ascii	"--- Mutex : \000"
  97      4D757465 
  97      78203A20 
  97      00
  98 0075 000000   		.align	2
  99              	.LC9:
 100 0078 2D2D2D20 		.ascii	"--- CondV.: \000"
 100      436F6E64 
 100      562E3A20 
 100      00
 101 0085 000000   		.align	2
 102              	.LC10:
 103 0088 2D2D2D20 		.ascii	"--- Queue : \000"
 103      51756575 
 103      65203A20 
 103      00
 104 0095 000000   		.align	2
 105              	.LC11:
 106 0098 2D2D2D20 		.ascii	"--- MailB.: \000"
 106      4D61696C 
 106      422E3A20 
 106      00
 107              		.section	.rodata.bmk13_execute.cst4,"aM",%progbits,4
 108              		.align	2
 109              	.LC12:
 110 0000 00000000 		.word	__stack_chk_guard
 111              		.section	.text.bmk13_execute,"ax",%progbits
 112              		.align	1
 113              		.p2align 4,,15
 114              		.syntax unified
 115              		.thumb
 116              		.thumb_func
 117              		.fpu fpv4-sp-d16
 118              		.type	bmk13_execute, %function
 119              	bmk13_execute:
 120              	.LFB241:
 121              		.loc 1 640 33 is_stmt 1 view -0
 122              		.cfi_startproc
 123              		@ args = 0, pretend = 0, frame = 8
 124              		@ frame_needed = 0, uses_anonymous_args = 0
 125 0000 00B5     		push	{lr}
 126              		.cfi_def_cfa_offset 4
 127              		.cfi_offset 14, -4
 128 0002 354B     		ldr	r3, .L13
 129              		.loc 1 642 3 is_stmt 0 view .LVU7
 130 0004 3548     		ldr	r0, .L13+4
 131              		.loc 1 640 33 view .LVU8
 132 0006 83B0     		sub	sp, sp, #12
 133              		.cfi_def_cfa_offset 16
 134              		.loc 1 640 33 view .LVU9
 135 0008 1B68     		ldr	r3, [r3]
 136 000a 0193     		str	r3, [sp, #4]
 137 000c 4FF00003 		mov	r3,#0
 138              		.loc 1 642 3 is_stmt 1 view .LVU10
 139 0010 FFF7FEFF 		bl	test_print
 140              	.LVL2:
ARM GAS  /tmp/ccvURch4.s 			page 4


 141              		.loc 1 643 3 view .LVU11
 142 0014 4FF4CE60 		mov	r0, #1648
 143 0018 FFF7FEFF 		bl	test_printn
 144              	.LVL3:
 145              		.loc 1 644 3 view .LVU12
 146 001c 3048     		ldr	r0, .L13+8
 147 001e FFF7FEFF 		bl	test_println
 148              	.LVL4:
 149              		.loc 1 645 3 view .LVU13
 150 0022 3048     		ldr	r0, .L13+12
 151 0024 FFF7FEFF 		bl	test_print
 152              	.LVL5:
 153              		.loc 1 646 3 view .LVU14
 154 0028 6820     		movs	r0, #104
 155 002a FFF7FEFF 		bl	test_printn
 156              	.LVL6:
 157              		.loc 1 647 3 view .LVU15
 158 002e 2C48     		ldr	r0, .L13+8
 159 0030 FFF7FEFF 		bl	test_println
 160              	.LVL7:
 161              		.loc 1 648 3 view .LVU16
 162 0034 2C48     		ldr	r0, .L13+16
 163 0036 FFF7FEFF 		bl	test_print
 164              	.LVL8:
 165              		.loc 1 649 3 view .LVU17
 166 003a 1420     		movs	r0, #20
 167 003c FFF7FEFF 		bl	test_printn
 168              	.LVL9:
 169              		.loc 1 650 3 view .LVU18
 170 0040 2748     		ldr	r0, .L13+8
 171 0042 FFF7FEFF 		bl	test_println
 172              	.LVL10:
 173              		.loc 1 652 3 view .LVU19
 174 0046 2948     		ldr	r0, .L13+20
 175 0048 FFF7FEFF 		bl	test_print
 176              	.LVL11:
 177              		.loc 1 653 3 view .LVU20
 178 004c 0C20     		movs	r0, #12
 179 004e FFF7FEFF 		bl	test_printn
 180              	.LVL12:
 181              		.loc 1 654 3 view .LVU21
 182 0052 2348     		ldr	r0, .L13+8
 183 0054 FFF7FEFF 		bl	test_println
 184              	.LVL13:
 185              		.loc 1 657 3 view .LVU22
 186 0058 2548     		ldr	r0, .L13+24
 187 005a FFF7FEFF 		bl	test_print
 188              	.LVL14:
 189              		.loc 1 658 3 view .LVU23
 190 005e 0420     		movs	r0, #4
 191 0060 FFF7FEFF 		bl	test_printn
 192              	.LVL15:
 193              		.loc 1 659 3 view .LVU24
 194 0064 1E48     		ldr	r0, .L13+8
 195 0066 FFF7FEFF 		bl	test_println
 196              	.LVL16:
 197              		.loc 1 660 3 view .LVU25
ARM GAS  /tmp/ccvURch4.s 			page 5


 198 006a 2248     		ldr	r0, .L13+28
 199 006c FFF7FEFF 		bl	test_print
 200              	.LVL17:
 201              		.loc 1 661 3 view .LVU26
 202 0070 1420     		movs	r0, #20
 203 0072 FFF7FEFF 		bl	test_printn
 204              	.LVL18:
 205              		.loc 1 662 3 view .LVU27
 206 0076 1A48     		ldr	r0, .L13+8
 207 0078 FFF7FEFF 		bl	test_println
 208              	.LVL19:
 209              		.loc 1 665 3 view .LVU28
 210 007c 1E48     		ldr	r0, .L13+32
 211 007e FFF7FEFF 		bl	test_print
 212              	.LVL20:
 213              		.loc 1 666 3 view .LVU29
 214 0082 1420     		movs	r0, #20
 215 0084 FFF7FEFF 		bl	test_printn
 216              	.LVL21:
 217              		.loc 1 667 3 view .LVU30
 218 0088 1548     		ldr	r0, .L13+8
 219 008a FFF7FEFF 		bl	test_println
 220              	.LVL22:
 221              		.loc 1 670 3 view .LVU31
 222 008e 1B48     		ldr	r0, .L13+36
 223 0090 FFF7FEFF 		bl	test_print
 224              	.LVL23:
 225              		.loc 1 671 3 view .LVU32
 226 0094 0820     		movs	r0, #8
 227 0096 FFF7FEFF 		bl	test_printn
 228              	.LVL24:
 229              		.loc 1 672 3 view .LVU33
 230 009a 1148     		ldr	r0, .L13+8
 231 009c FFF7FEFF 		bl	test_println
 232              	.LVL25:
 233              		.loc 1 675 3 view .LVU34
 234 00a0 1748     		ldr	r0, .L13+40
 235 00a2 FFF7FEFF 		bl	test_print
 236              	.LVL26:
 237              		.loc 1 676 3 view .LVU35
 238 00a6 2420     		movs	r0, #36
 239 00a8 FFF7FEFF 		bl	test_printn
 240              	.LVL27:
 241              		.loc 1 677 3 view .LVU36
 242 00ac 0C48     		ldr	r0, .L13+8
 243 00ae FFF7FEFF 		bl	test_println
 244              	.LVL28:
 245              		.loc 1 680 3 view .LVU37
 246 00b2 1448     		ldr	r0, .L13+44
 247 00b4 FFF7FEFF 		bl	test_print
 248              	.LVL29:
 249              		.loc 1 681 3 view .LVU38
 250 00b8 2820     		movs	r0, #40
 251 00ba FFF7FEFF 		bl	test_printn
 252              	.LVL30:
 253              		.loc 1 682 3 view .LVU39
 254 00be 064B     		ldr	r3, .L13
ARM GAS  /tmp/ccvURch4.s 			page 6


 255 00c0 1A68     		ldr	r2, [r3]
 256 00c2 019B     		ldr	r3, [sp, #4]
 257 00c4 5A40     		eors	r2, r3, r2
 258 00c6 05D1     		bne	.L12
 259 00c8 0548     		ldr	r0, .L13+8
 260              		.loc 1 684 1 is_stmt 0 view .LVU40
 261 00ca 03B0     		add	sp, sp, #12
 262              		.cfi_remember_state
 263              		.cfi_def_cfa_offset 4
 264              		@ sp needed
 265 00cc 5DF804EB 		ldr	lr, [sp], #4
 266              		.cfi_restore 14
 267              		.cfi_def_cfa_offset 0
 268              		.loc 1 682 3 view .LVU41
 269 00d0 FFF7FEBF 		b	test_println
 270              	.LVL31:
 271              	.L12:
 272              		.cfi_restore_state
 273 00d4 FFF7FEFF 		bl	__stack_chk_fail
 274              	.LVL32:
 275              	.L14:
 276              		.align	2
 277              	.L13:
 278 00d8 00000000 		.word	.LC12
 279 00dc 00000000 		.word	.LC1
 280 00e0 10000000 		.word	.LC2
 281 00e4 18000000 		.word	.LC3
 282 00e8 28000000 		.word	.LC4
 283 00ec 38000000 		.word	.LC5
 284 00f0 48000000 		.word	.LC6
 285 00f4 58000000 		.word	.LC7
 286 00f8 68000000 		.word	.LC8
 287 00fc 78000000 		.word	.LC9
 288 0100 88000000 		.word	.LC10
 289 0104 98000000 		.word	.LC11
 290              		.cfi_endproc
 291              	.LFE241:
 292              		.size	bmk13_execute, .-bmk13_execute
 293              		.section	.rodata.thread2.cst4,"aM",%progbits,4
 294              		.align	2
 295              	.LC13:
 296 0000 00000000 		.word	__stack_chk_guard
 297              		.section	.text.thread2,"ax",%progbits
 298              		.align	1
 299              		.p2align 4,,15
 300              		.syntax unified
 301              		.thumb
 302              		.thumb_func
 303              		.fpu fpv4-sp-d16
 304              		.type	thread2, %function
 305              	thread2:
 306              	.LVL33:
 307              	.LFB220:
 308              		.loc 1 72 33 is_stmt 1 view -0
 309              		.cfi_startproc
 310              		@ args = 0, pretend = 0, frame = 8
 311              		@ frame_needed = 0, uses_anonymous_args = 0
ARM GAS  /tmp/ccvURch4.s 			page 7


 312              		.loc 1 72 33 is_stmt 0 view .LVU43
 313 0000 10B5     		push	{r4, lr}
 314              		.cfi_def_cfa_offset 8
 315              		.cfi_offset 4, -8
 316              		.cfi_offset 14, -4
 317 0002 0B4B     		ldr	r3, .L21
 318 0004 82B0     		sub	sp, sp, #8
 319              		.cfi_def_cfa_offset 16
 320              		.loc 1 72 33 view .LVU44
 321 0006 1B68     		ldr	r3, [r3]
 322 0008 0193     		str	r3, [sp, #4]
 323 000a 4FF00003 		mov	r3,#0
 324              	.LVL34:
 325              	.L16:
 326              		.loc 1 73 3 is_stmt 1 discriminator 1 view .LVU45
 327              		.loc 1 74 3 discriminator 1 view .LVU46
 328              		.loc 1 76 3 discriminator 1 view .LVU47
 329              		.loc 1 77 3 discriminator 1 view .LVU48
 330              		.loc 1 78 5 discriminator 1 view .LVU49
 331              		.loc 1 78 10 is_stmt 0 discriminator 1 view .LVU50
 332 000e FFF7FEFF 		bl	chMsgWait
 333              	.LVL35:
 334              		.loc 1 79 5 is_stmt 1 discriminator 1 view .LVU51
 335              	.LBB143:
 336              	.LBI143:
 337              		.file 2 ".//ChibiOS//os/rt/include/chmsg.h"
 338              		.loc 2 96 21 discriminator 1 view .LVU52
 339              	.LBB144:
 340              		.loc 2 98 3 discriminator 1 view .LVU53
 341              		.loc 2 98 12 is_stmt 0 discriminator 1 view .LVU54
 342 0012 846B     		ldr	r4, [r0, #56]
 343              	.LVL36:
 344              		.loc 2 98 12 discriminator 1 view .LVU55
 345              	.LBE144:
 346              	.LBE143:
 347              		.loc 1 80 5 is_stmt 1 discriminator 1 view .LVU56
 348 0014 2146     		mov	r1, r4
 349 0016 FFF7FEFF 		bl	chMsgRelease
 350              	.LVL37:
 351              		.loc 1 81 11 discriminator 1 view .LVU57
 352              		.loc 1 81 3 is_stmt 0 discriminator 1 view .LVU58
 353 001a 002C     		cmp	r4, #0
 354 001c F7D1     		bne	.L16
 355              		.loc 1 82 1 view .LVU59
 356 001e 044B     		ldr	r3, .L21
 357 0020 1A68     		ldr	r2, [r3]
 358 0022 019B     		ldr	r3, [sp, #4]
 359 0024 5A40     		eors	r2, r3, r2
 360 0026 01D1     		bne	.L20
 361 0028 02B0     		add	sp, sp, #8
 362              		.cfi_remember_state
 363              		.cfi_def_cfa_offset 8
 364              		@ sp needed
 365 002a 10BD     		pop	{r4, pc}
 366              	.LVL38:
 367              	.L20:
 368              		.cfi_restore_state
ARM GAS  /tmp/ccvURch4.s 			page 8


 369              		.loc 1 82 1 view .LVU60
 370 002c FFF7FEFF 		bl	__stack_chk_fail
 371              	.LVL39:
 372              	.L22:
 373              		.align	2
 374              	.L21:
 375 0030 00000000 		.word	.LC13
 376              		.cfi_endproc
 377              	.LFE220:
 378              		.size	thread2, .-thread2
 379              		.section	.rodata.bmk6_execute.str1.4,"aMS",%progbits,1
 380              		.align	2
 381              	.LC14:
 382 0000 2D2D2D20 		.ascii	"--- Score : \000"
 382      53636F72 
 382      65203A20 
 382      00
 383 000d 000000   		.align	2
 384              	.LC15:
 385 0010 20746872 		.ascii	" threads/S\000"
 385      65616473 
 385      2F5300
 386              		.section	.rodata.bmk6_execute.cst4,"aM",%progbits,4
 387              		.align	2
 388              	.LC16:
 389 0000 00000000 		.word	__stack_chk_guard
 390              		.section	.text.bmk6_execute,"ax",%progbits
 391              		.align	1
 392              		.p2align 4,,15
 393              		.syntax unified
 394              		.thumb
 395              		.thumb_func
 396              		.fpu fpv4-sp-d16
 397              		.type	bmk6_execute, %function
 398              	bmk6_execute:
 399              	.LFB228:
 400              		.loc 1 307 32 is_stmt 1 view -0
 401              		.cfi_startproc
 402              		@ args = 0, pretend = 0, frame = 8
 403              		@ frame_needed = 0, uses_anonymous_args = 0
 404 0000 2DE9F043 		push	{r4, r5, r6, r7, r8, r9, lr}
 405              		.cfi_def_cfa_offset 28
 406              		.cfi_offset 4, -28
 407              		.cfi_offset 5, -24
 408              		.cfi_offset 6, -20
 409              		.cfi_offset 7, -16
 410              		.cfi_offset 8, -12
 411              		.cfi_offset 9, -8
 412              		.cfi_offset 14, -4
 413              	.LBB145:
 414              	.LBB146:
 415              	.LBB147:
 416              	.LBB148:
 417              		.file 3 ".//ChibiOS//os/rt/include/chthreads.h"
 418              		.loc 3 176 18 is_stmt 0 view .LVU62
 419 0004 1B4A     		ldr	r2, .L31
 420              	.LBE148:
ARM GAS  /tmp/ccvURch4.s 			page 9


 421              	.LBE147:
 422              	.LBE146:
 423              	.LBE145:
 424              		.loc 1 310 9 view .LVU63
 425 0006 1C4B     		ldr	r3, .L31+4
 426              	.LBB153:
 427              	.LBB151:
 428              		.loc 3 189 25 view .LVU64
 429 0008 9269     		ldr	r2, [r2, #24]
 430              	.LBE151:
 431              	.LBE153:
 432              		.loc 1 307 32 view .LVU65
 433 000a 1C49     		ldr	r1, .L31+8
 434              		.loc 1 311 11 view .LVU66
 435 000c 9568     		ldr	r5, [r2, #8]
 436              		.loc 1 310 9 view .LVU67
 437 000e D3F80090 		ldr	r9, [r3]
 438 0012 DFF87880 		ldr	r8, .L31+24
 439              		.loc 1 315 5 view .LVU68
 440 0016 1A4F     		ldr	r7, .L31+12
 441              		.loc 1 307 32 view .LVU69
 442 0018 85B0     		sub	sp, sp, #20
 443              		.cfi_def_cfa_offset 48
 444              		.loc 1 307 32 view .LVU70
 445 001a 0968     		ldr	r1, [r1]
 446 001c 0391     		str	r1, [sp, #12]
 447 001e 4FF00001 		mov	r1,#0
 448              		.loc 1 309 3 is_stmt 1 view .LVU71
 449              	.LVL40:
 450              		.loc 1 310 3 view .LVU72
 451              		.loc 1 311 3 view .LVU73
 452              	.LBB154:
 453              	.LBI145:
 454              		.loc 3 187 23 view .LVU74
 455              	.LBB152:
 456              		.loc 3 189 3 view .LVU75
 457              	.LBB150:
 458              	.LBI147:
 459              		.loc 3 174 25 view .LVU76
 460              	.LBB149:
 461              		.loc 3 176 3 view .LVU77
 462              	.LBE149:
 463              	.LBE150:
 464              	.LBE152:
 465              	.LBE154:
 466              		.loc 1 312 3 is_stmt 0 view .LVU78
 467 0022 FFF7FEFF 		bl	test_wait_tick
 468              	.LVL41:
 469              		.loc 1 313 3 view .LVU79
 470 0026 4FF47A70 		mov	r0, #1000
 471 002a FFF7FEFF 		bl	test_start_timer
 472              	.LVL42:
 473              		.loc 1 309 12 view .LVU80
 474 002e 0024     		movs	r4, #0
 475              		.loc 1 311 11 view .LVU81
 476 0030 0135     		adds	r5, r5, #1
 477              	.LVL43:
ARM GAS  /tmp/ccvURch4.s 			page 10


 478              		.loc 1 312 3 is_stmt 1 view .LVU82
 479              		.loc 1 313 3 view .LVU83
 480              		.loc 1 315 5 is_stmt 0 view .LVU84
 481 0032 2646     		mov	r6, r4
 482              	.LVL44:
 483              	.L24:
 484              		.loc 1 314 3 is_stmt 1 discriminator 1 view .LVU85
 485              		.loc 1 315 5 discriminator 1 view .LVU86
 486 0034 4FF4FC71 		mov	r1, #504
 487 0038 0096     		str	r6, [sp]
 488 003a 3B46     		mov	r3, r7
 489 003c 2A46     		mov	r2, r5
 490 003e 4846     		mov	r0, r9
 491 0040 FFF7FEFF 		bl	chThdCreateStatic
 492              	.LVL45:
 493              		.loc 1 316 5 discriminator 1 view .LVU87
 494              		.loc 1 320 3 is_stmt 0 discriminator 1 view .LVU88
 495 0044 98F80010 		ldrb	r1, [r8]	@ zero_extendqisi2
 496              		.loc 1 316 6 discriminator 1 view .LVU89
 497 0048 0134     		adds	r4, r4, #1
 498              	.LVL46:
 499              		.loc 1 320 11 is_stmt 1 discriminator 1 view .LVU90
 500              		.loc 1 320 3 is_stmt 0 discriminator 1 view .LVU91
 501 004a 0029     		cmp	r1, #0
 502 004c F2D0     		beq	.L24
 503              		.loc 1 321 3 is_stmt 1 view .LVU92
 504 004e 0D48     		ldr	r0, .L31+16
 505 0050 FFF7FEFF 		bl	test_print
 506              	.LVL47:
 507              		.loc 1 322 3 view .LVU93
 508 0054 2046     		mov	r0, r4
 509 0056 FFF7FEFF 		bl	test_printn
 510              	.LVL48:
 511              		.loc 1 323 3 view .LVU94
 512 005a 084B     		ldr	r3, .L31+8
 513 005c 1A68     		ldr	r2, [r3]
 514 005e 039B     		ldr	r3, [sp, #12]
 515 0060 5A40     		eors	r2, r3, r2
 516 0062 05D1     		bne	.L30
 517 0064 0848     		ldr	r0, .L31+20
 518              		.loc 1 324 1 is_stmt 0 view .LVU95
 519 0066 05B0     		add	sp, sp, #20
 520              		.cfi_remember_state
 521              		.cfi_def_cfa_offset 28
 522              		@ sp needed
 523 0068 BDE8F043 		pop	{r4, r5, r6, r7, r8, r9, lr}
 524              		.cfi_restore 14
 525              		.cfi_restore 9
 526              		.cfi_restore 8
 527              		.cfi_restore 7
 528              		.cfi_restore 6
 529              		.cfi_restore 5
 530              		.cfi_restore 4
 531              		.cfi_def_cfa_offset 0
 532              	.LVL49:
 533              		.loc 1 323 3 view .LVU96
 534 006c FFF7FEBF 		b	test_println
ARM GAS  /tmp/ccvURch4.s 			page 11


 535              	.LVL50:
 536              	.L30:
 537              		.cfi_restore_state
 538              		.loc 1 323 3 view .LVU97
 539 0070 FFF7FEFF 		bl	__stack_chk_fail
 540              	.LVL51:
 541              	.L32:
 542              		.align	2
 543              	.L31:
 544 0074 00000000 		.word	ch
 545 0078 00000000 		.word	wa
 546 007c 00000000 		.word	.LC16
 547 0080 00000000 		.word	thread1
 548 0084 00000000 		.word	.LC14
 549 0088 10000000 		.word	.LC15
 550 008c 00000000 		.word	test_timer_done
 551              		.cfi_endproc
 552              	.LFE228:
 553              		.size	bmk6_execute, .-bmk6_execute
 554              		.section	.rodata.msg_loop_test.cst4,"aM",%progbits,4
 555              		.align	2
 556              	.LC17:
 557 0000 00000000 		.word	__stack_chk_guard
 558              		.section	.text.msg_loop_test,"ax",%progbits
 559              		.align	1
 560              		.p2align 4,,15
 561              		.syntax unified
 562              		.thumb
 563              		.thumb_func
 564              		.fpu fpv4-sp-d16
 565              		.type	msg_loop_test, %function
 566              	msg_loop_test:
 567              	.LVL52:
 568              	.LFB221:
 569              		.loc 1 87 49 is_stmt 1 view -0
 570              		.cfi_startproc
 571              		@ args = 0, pretend = 0, frame = 8
 572              		@ frame_needed = 0, uses_anonymous_args = 0
 573              		.loc 1 87 49 is_stmt 0 view .LVU99
 574 0000 70B5     		push	{r4, r5, r6, lr}
 575              		.cfi_def_cfa_offset 16
 576              		.cfi_offset 4, -16
 577              		.cfi_offset 5, -12
 578              		.cfi_offset 6, -8
 579              		.cfi_offset 14, -4
 580 0002 124B     		ldr	r3, .L40
 581 0004 124E     		ldr	r6, .L40+4
 582 0006 82B0     		sub	sp, sp, #8
 583              		.cfi_def_cfa_offset 24
 584              		.loc 1 87 49 view .LVU100
 585 0008 1B68     		ldr	r3, [r3]
 586 000a 0193     		str	r3, [sp, #4]
 587 000c 4FF00003 		mov	r3,#0
 588              		.loc 1 89 3 is_stmt 1 view .LVU101
 589              	.LVL53:
 590              		.loc 1 90 3 view .LVU102
 591              		.loc 1 87 49 is_stmt 0 view .LVU103
ARM GAS  /tmp/ccvURch4.s 			page 12


 592 0010 0546     		mov	r5, r0
 593              		.loc 1 90 3 view .LVU104
 594 0012 FFF7FEFF 		bl	test_wait_tick
 595              	.LVL54:
 596              		.loc 1 91 3 is_stmt 1 view .LVU105
 597 0016 4FF47A70 		mov	r0, #1000
 598 001a FFF7FEFF 		bl	test_start_timer
 599              	.LVL55:
 600              		.loc 1 89 12 is_stmt 0 view .LVU106
 601 001e 0024     		movs	r4, #0
 602              	.LVL56:
 603              	.L34:
 604              		.loc 1 92 3 is_stmt 1 discriminator 1 view .LVU107
 605              		.loc 1 93 5 discriminator 1 view .LVU108
 606              		.loc 1 93 11 is_stmt 0 discriminator 1 view .LVU109
 607 0020 0121     		movs	r1, #1
 608 0022 2846     		mov	r0, r5
 609 0024 FFF7FEFF 		bl	chMsgSend
 610              	.LVL57:
 611              		.loc 1 94 5 is_stmt 1 discriminator 1 view .LVU110
 612              		.loc 1 98 3 is_stmt 0 discriminator 1 view .LVU111
 613 0028 3378     		ldrb	r3, [r6]	@ zero_extendqisi2
 614              		.loc 1 94 6 discriminator 1 view .LVU112
 615 002a 0134     		adds	r4, r4, #1
 616              	.LVL58:
 617              		.loc 1 98 11 is_stmt 1 discriminator 1 view .LVU113
 618              		.loc 1 98 3 is_stmt 0 discriminator 1 view .LVU114
 619 002c 002B     		cmp	r3, #0
 620 002e F7D0     		beq	.L34
 621              		.loc 1 99 3 is_stmt 1 view .LVU115
 622              		.loc 1 99 9 is_stmt 0 view .LVU116
 623 0030 2846     		mov	r0, r5
 624 0032 0021     		movs	r1, #0
 625 0034 FFF7FEFF 		bl	chMsgSend
 626              	.LVL59:
 627              		.loc 1 100 3 is_stmt 1 view .LVU117
 628              		.loc 1 101 1 is_stmt 0 view .LVU118
 629 0038 044B     		ldr	r3, .L40
 630 003a 1A68     		ldr	r2, [r3]
 631 003c 019B     		ldr	r3, [sp, #4]
 632 003e 5A40     		eors	r2, r3, r2
 633 0040 02D1     		bne	.L39
 634 0042 2046     		mov	r0, r4
 635 0044 02B0     		add	sp, sp, #8
 636              		.cfi_remember_state
 637              		.cfi_def_cfa_offset 16
 638              		@ sp needed
 639 0046 70BD     		pop	{r4, r5, r6, pc}
 640              	.LVL60:
 641              	.L39:
 642              		.cfi_restore_state
 643              		.loc 1 101 1 view .LVU119
 644 0048 FFF7FEFF 		bl	__stack_chk_fail
 645              	.LVL61:
 646              	.L41:
 647              		.align	2
 648              	.L40:
ARM GAS  /tmp/ccvURch4.s 			page 13


 649 004c 00000000 		.word	.LC17
 650 0050 00000000 		.word	test_timer_done
 651              		.cfi_endproc
 652              	.LFE221:
 653              		.size	msg_loop_test, .-msg_loop_test
 654              		.section	.rodata.bmk1_execute.str1.4,"aMS",%progbits,1
 655              		.align	2
 656              	.LC18:
 657 0000 206D7367 		.ascii	" msgs/S, \000"
 657      732F532C 
 657      2000
 658 000a 0000     		.align	2
 659              	.LC19:
 660 000c 20637478 		.ascii	" ctxswc/S\000"
 660      7377632F 
 660      5300
 661              		.section	.rodata.bmk1_execute.cst4,"aM",%progbits,4
 662              		.align	2
 663              	.LC20:
 664 0000 00000000 		.word	__stack_chk_guard
 665              		.section	.text.bmk1_execute,"ax",%progbits
 666              		.align	1
 667              		.p2align 4,,15
 668              		.syntax unified
 669              		.thumb
 670              		.thumb_func
 671              		.fpu fpv4-sp-d16
 672              		.type	bmk1_execute, %function
 673              	bmk1_execute:
 674              	.LFB222:
 675              		.loc 1 112 32 is_stmt 1 view -0
 676              		.cfi_startproc
 677              		@ args = 0, pretend = 0, frame = 8
 678              		@ frame_needed = 0, uses_anonymous_args = 0
 679 0000 10B5     		push	{r4, lr}
 680              		.cfi_def_cfa_offset 8
 681              		.cfi_offset 4, -8
 682              		.cfi_offset 14, -4
 683              	.LBB155:
 684              	.LBB156:
 685              	.LBB157:
 686              	.LBB158:
 687              		.loc 3 176 18 is_stmt 0 view .LVU121
 688 0002 194B     		ldr	r3, .L47
 689              	.LBE158:
 690              	.LBE157:
 691              	.LBE156:
 692              	.LBE155:
 693              		.loc 1 115 16 view .LVU122
 694 0004 194A     		ldr	r2, .L47+4
 695              	.LBB163:
 696              	.LBB161:
 697              		.loc 3 189 25 view .LVU123
 698 0006 9B69     		ldr	r3, [r3, #24]
 699              	.LBE161:
 700              	.LBE163:
 701              		.loc 1 112 32 view .LVU124
ARM GAS  /tmp/ccvURch4.s 			page 14


 702 0008 1949     		ldr	r1, .L47+8
 703              		.loc 1 115 16 view .LVU125
 704 000a 1068     		ldr	r0, [r2]
 705 000c 9A68     		ldr	r2, [r3, #8]
 706 000e 194B     		ldr	r3, .L47+12
 707              		.loc 1 112 32 view .LVU126
 708 0010 84B0     		sub	sp, sp, #16
 709              		.cfi_def_cfa_offset 24
 710              		.loc 1 112 32 view .LVU127
 711 0012 0968     		ldr	r1, [r1]
 712 0014 0391     		str	r1, [sp, #12]
 713 0016 4FF00001 		mov	r1,#0
 714              		.loc 1 113 3 is_stmt 1 view .LVU128
 715              		.loc 1 115 3 view .LVU129
 716              	.LBB164:
 717              	.LBI155:
 718              		.loc 3 187 23 view .LVU130
 719              	.LBB162:
 720              		.loc 3 189 3 view .LVU131
 721              	.LBB160:
 722              	.LBI157:
 723              		.loc 3 174 25 view .LVU132
 724              	.LBB159:
 725              		.loc 3 176 3 view .LVU133
 726              	.LBE159:
 727              	.LBE160:
 728              	.LBE162:
 729              	.LBE164:
 730              		.loc 1 115 16 is_stmt 0 view .LVU134
 731 001a 0021     		movs	r1, #0
 732 001c 013A     		subs	r2, r2, #1
 733 001e 0091     		str	r1, [sp]
 734 0020 4FF4FC71 		mov	r1, #504
 735 0024 FFF7FEFF 		bl	chThdCreateStatic
 736              	.LVL62:
 737              		.loc 1 115 14 view .LVU135
 738 0028 134B     		ldr	r3, .L47+16
 739 002a 1860     		str	r0, [r3]
 740              		.loc 1 116 3 is_stmt 1 view .LVU136
 741              		.loc 1 116 7 is_stmt 0 view .LVU137
 742 002c FFF7FEFF 		bl	msg_loop_test
 743              	.LVL63:
 744 0030 0446     		mov	r4, r0
 745              	.LVL64:
 746              		.loc 1 117 3 is_stmt 1 view .LVU138
 747 0032 FFF7FEFF 		bl	test_wait_threads
 748              	.LVL65:
 749              		.loc 1 118 3 view .LVU139
 750 0036 1148     		ldr	r0, .L47+20
 751 0038 FFF7FEFF 		bl	test_print
 752              	.LVL66:
 753              		.loc 1 119 3 view .LVU140
 754 003c 2046     		mov	r0, r4
 755 003e FFF7FEFF 		bl	test_printn
 756              	.LVL67:
 757              		.loc 1 120 3 view .LVU141
 758 0042 0F48     		ldr	r0, .L47+24
ARM GAS  /tmp/ccvURch4.s 			page 15


 759 0044 FFF7FEFF 		bl	test_print
 760              	.LVL68:
 761              		.loc 1 121 3 view .LVU142
 762 0048 6000     		lsls	r0, r4, #1
 763 004a FFF7FEFF 		bl	test_printn
 764              	.LVL69:
 765              		.loc 1 122 3 view .LVU143
 766 004e 084B     		ldr	r3, .L47+8
 767 0050 1A68     		ldr	r2, [r3]
 768 0052 039B     		ldr	r3, [sp, #12]
 769 0054 5A40     		eors	r2, r3, r2
 770 0056 05D1     		bne	.L46
 771 0058 0A48     		ldr	r0, .L47+28
 772              		.loc 1 123 1 is_stmt 0 view .LVU144
 773 005a 04B0     		add	sp, sp, #16
 774              		.cfi_remember_state
 775              		.cfi_def_cfa_offset 8
 776              		@ sp needed
 777 005c BDE81040 		pop	{r4, lr}
 778              		.cfi_restore 14
 779              		.cfi_restore 4
 780              		.cfi_def_cfa_offset 0
 781              	.LVL70:
 782              		.loc 1 122 3 view .LVU145
 783 0060 FFF7FEBF 		b	test_println
 784              	.LVL71:
 785              	.L46:
 786              		.cfi_restore_state
 787              		.loc 1 122 3 view .LVU146
 788 0064 FFF7FEFF 		bl	__stack_chk_fail
 789              	.LVL72:
 790              	.L48:
 791              		.align	2
 792              	.L47:
 793 0068 00000000 		.word	ch
 794 006c 00000000 		.word	wa
 795 0070 00000000 		.word	.LC20
 796 0074 00000000 		.word	thread2
 797 0078 00000000 		.word	threads
 798 007c 00000000 		.word	.LC14
 799 0080 00000000 		.word	.LC18
 800 0084 0C000000 		.word	.LC19
 801              		.cfi_endproc
 802              	.LFE222:
 803              		.size	bmk1_execute, .-bmk1_execute
 804              		.section	.rodata.bmk2_execute.cst4,"aM",%progbits,4
 805              		.align	2
 806              	.LC21:
 807 0000 00000000 		.word	__stack_chk_guard
 808              		.section	.text.bmk2_execute,"ax",%progbits
 809              		.align	1
 810              		.p2align 4,,15
 811              		.syntax unified
 812              		.thumb
 813              		.thumb_func
 814              		.fpu fpv4-sp-d16
 815              		.type	bmk2_execute, %function
ARM GAS  /tmp/ccvURch4.s 			page 16


 816              	bmk2_execute:
 817              	.LFB223:
 818              		.loc 1 141 32 is_stmt 1 view -0
 819              		.cfi_startproc
 820              		@ args = 0, pretend = 0, frame = 8
 821              		@ frame_needed = 0, uses_anonymous_args = 0
 822 0000 10B5     		push	{r4, lr}
 823              		.cfi_def_cfa_offset 8
 824              		.cfi_offset 4, -8
 825              		.cfi_offset 14, -4
 826              	.LBB165:
 827              	.LBB166:
 828              	.LBB167:
 829              	.LBB168:
 830              		.loc 3 176 18 is_stmt 0 view .LVU148
 831 0002 194B     		ldr	r3, .L54
 832              	.LBE168:
 833              	.LBE167:
 834              	.LBE166:
 835              	.LBE165:
 836              		.loc 1 144 16 view .LVU149
 837 0004 194A     		ldr	r2, .L54+4
 838              	.LBB173:
 839              	.LBB171:
 840              		.loc 3 189 25 view .LVU150
 841 0006 9B69     		ldr	r3, [r3, #24]
 842              	.LBE171:
 843              	.LBE173:
 844              		.loc 1 141 32 view .LVU151
 845 0008 1949     		ldr	r1, .L54+8
 846              		.loc 1 144 16 view .LVU152
 847 000a 1068     		ldr	r0, [r2]
 848 000c 9A68     		ldr	r2, [r3, #8]
 849 000e 194B     		ldr	r3, .L54+12
 850              		.loc 1 141 32 view .LVU153
 851 0010 84B0     		sub	sp, sp, #16
 852              		.cfi_def_cfa_offset 24
 853              		.loc 1 141 32 view .LVU154
 854 0012 0968     		ldr	r1, [r1]
 855 0014 0391     		str	r1, [sp, #12]
 856 0016 4FF00001 		mov	r1,#0
 857              		.loc 1 142 3 is_stmt 1 view .LVU155
 858              		.loc 1 144 3 view .LVU156
 859              	.LBB174:
 860              	.LBI165:
 861              		.loc 3 187 23 view .LVU157
 862              	.LBB172:
 863              		.loc 3 189 3 view .LVU158
 864              	.LBB170:
 865              	.LBI167:
 866              		.loc 3 174 25 view .LVU159
 867              	.LBB169:
 868              		.loc 3 176 3 view .LVU160
 869              	.LBE169:
 870              	.LBE170:
 871              	.LBE172:
 872              	.LBE174:
ARM GAS  /tmp/ccvURch4.s 			page 17


 873              		.loc 1 144 16 is_stmt 0 view .LVU161
 874 001a 0021     		movs	r1, #0
 875 001c 0132     		adds	r2, r2, #1
 876 001e 0091     		str	r1, [sp]
 877 0020 4FF4FC71 		mov	r1, #504
 878 0024 FFF7FEFF 		bl	chThdCreateStatic
 879              	.LVL73:
 880              		.loc 1 144 14 view .LVU162
 881 0028 134B     		ldr	r3, .L54+16
 882 002a 1860     		str	r0, [r3]
 883              		.loc 1 145 3 is_stmt 1 view .LVU163
 884              		.loc 1 145 7 is_stmt 0 view .LVU164
 885 002c FFF7FEFF 		bl	msg_loop_test
 886              	.LVL74:
 887 0030 0446     		mov	r4, r0
 888              	.LVL75:
 889              		.loc 1 146 3 is_stmt 1 view .LVU165
 890 0032 FFF7FEFF 		bl	test_wait_threads
 891              	.LVL76:
 892              		.loc 1 147 3 view .LVU166
 893 0036 1148     		ldr	r0, .L54+20
 894 0038 FFF7FEFF 		bl	test_print
 895              	.LVL77:
 896              		.loc 1 148 3 view .LVU167
 897 003c 2046     		mov	r0, r4
 898 003e FFF7FEFF 		bl	test_printn
 899              	.LVL78:
 900              		.loc 1 149 3 view .LVU168
 901 0042 0F48     		ldr	r0, .L54+24
 902 0044 FFF7FEFF 		bl	test_print
 903              	.LVL79:
 904              		.loc 1 150 3 view .LVU169
 905 0048 6000     		lsls	r0, r4, #1
 906 004a FFF7FEFF 		bl	test_printn
 907              	.LVL80:
 908              		.loc 1 151 3 view .LVU170
 909 004e 084B     		ldr	r3, .L54+8
 910 0050 1A68     		ldr	r2, [r3]
 911 0052 039B     		ldr	r3, [sp, #12]
 912 0054 5A40     		eors	r2, r3, r2
 913 0056 05D1     		bne	.L53
 914 0058 0A48     		ldr	r0, .L54+28
 915              		.loc 1 152 1 is_stmt 0 view .LVU171
 916 005a 04B0     		add	sp, sp, #16
 917              		.cfi_remember_state
 918              		.cfi_def_cfa_offset 8
 919              		@ sp needed
 920 005c BDE81040 		pop	{r4, lr}
 921              		.cfi_restore 14
 922              		.cfi_restore 4
 923              		.cfi_def_cfa_offset 0
 924              	.LVL81:
 925              		.loc 1 151 3 view .LVU172
 926 0060 FFF7FEBF 		b	test_println
 927              	.LVL82:
 928              	.L53:
 929              		.cfi_restore_state
ARM GAS  /tmp/ccvURch4.s 			page 18


 930              		.loc 1 151 3 view .LVU173
 931 0064 FFF7FEFF 		bl	__stack_chk_fail
 932              	.LVL83:
 933              	.L55:
 934              		.align	2
 935              	.L54:
 936 0068 00000000 		.word	ch
 937 006c 00000000 		.word	wa
 938 0070 00000000 		.word	.LC21
 939 0074 00000000 		.word	thread2
 940 0078 00000000 		.word	threads
 941 007c 00000000 		.word	.LC14
 942 0080 00000000 		.word	.LC18
 943 0084 0C000000 		.word	.LC19
 944              		.cfi_endproc
 945              	.LFE223:
 946              		.size	bmk2_execute, .-bmk2_execute
 947              		.section	.rodata.bmk3_execute.cst4,"aM",%progbits,4
 948              		.align	2
 949              	.LC22:
 950 0000 00000000 		.word	__stack_chk_guard
 951              		.section	.text.bmk3_execute,"ax",%progbits
 952              		.align	1
 953              		.p2align 4,,15
 954              		.syntax unified
 955              		.thumb
 956              		.thumb_func
 957              		.fpu fpv4-sp-d16
 958              		.type	bmk3_execute, %function
 959              	bmk3_execute:
 960              	.LFB224:
 961              		.loc 1 171 32 is_stmt 1 view -0
 962              		.cfi_startproc
 963              		@ args = 0, pretend = 0, frame = 8
 964              		@ frame_needed = 0, uses_anonymous_args = 0
 965 0000 F0B5     		push	{r4, r5, r6, r7, lr}
 966              		.cfi_def_cfa_offset 20
 967              		.cfi_offset 4, -20
 968              		.cfi_offset 5, -16
 969              		.cfi_offset 6, -12
 970              		.cfi_offset 7, -8
 971              		.cfi_offset 14, -4
 972              	.LBB175:
 973              	.LBB176:
 974              	.LBB177:
 975              	.LBB178:
 976              		.loc 3 176 18 is_stmt 0 view .LVU175
 977 0002 304F     		ldr	r7, .L61
 978              	.LBE178:
 979              	.LBE177:
 980              	.LBE176:
 981              	.LBE175:
 982              		.loc 1 174 16 view .LVU176
 983 0004 304E     		ldr	r6, .L61+4
 984              	.LBB183:
 985              	.LBB181:
 986              		.loc 3 189 25 view .LVU177
ARM GAS  /tmp/ccvURch4.s 			page 19


 987 0006 BB69     		ldr	r3, [r7, #24]
 988              	.LBE181:
 989              	.LBE183:
 990              		.loc 1 171 32 view .LVU178
 991 0008 3049     		ldr	r1, .L61+8
 992              		.loc 1 174 16 view .LVU179
 993 000a 9A68     		ldr	r2, [r3, #8]
 994 000c 3068     		ldr	r0, [r6]
 995 000e 304B     		ldr	r3, .L61+12
 996              		.loc 1 174 14 view .LVU180
 997 0010 304C     		ldr	r4, .L61+16
 998              		.loc 1 171 32 view .LVU181
 999 0012 85B0     		sub	sp, sp, #20
 1000              		.cfi_def_cfa_offset 40
 1001              		.loc 1 174 16 view .LVU182
 1002 0014 0025     		movs	r5, #0
 1003              		.loc 1 171 32 view .LVU183
 1004 0016 0968     		ldr	r1, [r1]
 1005 0018 0391     		str	r1, [sp, #12]
 1006 001a 4FF00001 		mov	r1,#0
 1007              		.loc 1 172 3 is_stmt 1 view .LVU184
 1008              		.loc 1 174 3 view .LVU185
 1009              	.LBB184:
 1010              	.LBI175:
 1011              		.loc 3 187 23 view .LVU186
 1012              	.LBB182:
 1013              		.loc 3 189 3 view .LVU187
 1014              	.LBB180:
 1015              	.LBI177:
 1016              		.loc 3 174 25 view .LVU188
 1017              	.LBB179:
 1018              		.loc 3 176 3 view .LVU189
 1019              	.LBE179:
 1020              	.LBE180:
 1021              	.LBE182:
 1022              	.LBE184:
 1023              		.loc 1 174 16 is_stmt 0 view .LVU190
 1024 001e 0132     		adds	r2, r2, #1
 1025 0020 4FF4FC71 		mov	r1, #504
 1026 0024 0095     		str	r5, [sp]
 1027 0026 FFF7FEFF 		bl	chThdCreateStatic
 1028              	.LVL84:
 1029              	.LBB185:
 1030              	.LBB186:
 1031              		.loc 3 189 25 view .LVU191
 1032 002a BB69     		ldr	r3, [r7, #24]
 1033              	.LBE186:
 1034              	.LBE185:
 1035              		.loc 1 174 14 view .LVU192
 1036 002c 2060     		str	r0, [r4]
 1037              		.loc 1 175 3 is_stmt 1 view .LVU193
 1038              	.LBB190:
 1039              	.LBI185:
 1040              		.loc 3 187 23 view .LVU194
 1041              	.LBB189:
 1042              		.loc 3 189 3 view .LVU195
 1043              	.LBB187:
ARM GAS  /tmp/ccvURch4.s 			page 20


 1044              	.LBI187:
 1045              		.loc 3 174 25 view .LVU196
 1046              	.LBB188:
 1047              		.loc 3 176 3 view .LVU197
 1048              	.LBE188:
 1049              	.LBE187:
 1050              	.LBE189:
 1051              	.LBE190:
 1052              		.loc 1 175 16 is_stmt 0 view .LVU198
 1053 002e 9A68     		ldr	r2, [r3, #8]
 1054 0030 7068     		ldr	r0, [r6, #4]
 1055 0032 294B     		ldr	r3, .L61+20
 1056 0034 0095     		str	r5, [sp]
 1057 0036 023A     		subs	r2, r2, #2
 1058 0038 4FF4FC71 		mov	r1, #504
 1059 003c FFF7FEFF 		bl	chThdCreateStatic
 1060              	.LVL85:
 1061              	.LBB191:
 1062              	.LBB192:
 1063              		.loc 3 189 25 view .LVU199
 1064 0040 BB69     		ldr	r3, [r7, #24]
 1065              	.LBE192:
 1066              	.LBE191:
 1067              		.loc 1 175 14 view .LVU200
 1068 0042 6060     		str	r0, [r4, #4]
 1069              		.loc 1 176 3 is_stmt 1 view .LVU201
 1070              	.LBB196:
 1071              	.LBI191:
 1072              		.loc 3 187 23 view .LVU202
 1073              	.LBB195:
 1074              		.loc 3 189 3 view .LVU203
 1075              	.LBB193:
 1076              	.LBI193:
 1077              		.loc 3 174 25 view .LVU204
 1078              	.LBB194:
 1079              		.loc 3 176 3 view .LVU205
 1080              	.LBE194:
 1081              	.LBE193:
 1082              	.LBE195:
 1083              	.LBE196:
 1084              		.loc 1 176 16 is_stmt 0 view .LVU206
 1085 0044 9A68     		ldr	r2, [r3, #8]
 1086 0046 B068     		ldr	r0, [r6, #8]
 1087 0048 234B     		ldr	r3, .L61+20
 1088 004a 0095     		str	r5, [sp]
 1089 004c 033A     		subs	r2, r2, #3
 1090 004e 4FF4FC71 		mov	r1, #504
 1091 0052 FFF7FEFF 		bl	chThdCreateStatic
 1092              	.LVL86:
 1093              	.LBB197:
 1094              	.LBB198:
 1095              		.loc 3 189 25 view .LVU207
 1096 0056 BB69     		ldr	r3, [r7, #24]
 1097              	.LBE198:
 1098              	.LBE197:
 1099              		.loc 1 176 14 view .LVU208
 1100 0058 A060     		str	r0, [r4, #8]
ARM GAS  /tmp/ccvURch4.s 			page 21


 1101              		.loc 1 177 3 is_stmt 1 view .LVU209
 1102              	.LBB202:
 1103              	.LBI197:
 1104              		.loc 3 187 23 view .LVU210
 1105              	.LBB201:
 1106              		.loc 3 189 3 view .LVU211
 1107              	.LBB199:
 1108              	.LBI199:
 1109              		.loc 3 174 25 view .LVU212
 1110              	.LBB200:
 1111              		.loc 3 176 3 view .LVU213
 1112              	.LBE200:
 1113              	.LBE199:
 1114              	.LBE201:
 1115              	.LBE202:
 1116              		.loc 1 177 16 is_stmt 0 view .LVU214
 1117 005a 9A68     		ldr	r2, [r3, #8]
 1118 005c F068     		ldr	r0, [r6, #12]
 1119 005e 1E4B     		ldr	r3, .L61+20
 1120 0060 0095     		str	r5, [sp]
 1121 0062 043A     		subs	r2, r2, #4
 1122 0064 4FF4FC71 		mov	r1, #504
 1123 0068 FFF7FEFF 		bl	chThdCreateStatic
 1124              	.LVL87:
 1125              	.LBB203:
 1126              	.LBB204:
 1127              		.loc 3 189 25 view .LVU215
 1128 006c BB69     		ldr	r3, [r7, #24]
 1129              	.LBE204:
 1130              	.LBE203:
 1131              		.loc 1 177 14 view .LVU216
 1132 006e E060     		str	r0, [r4, #12]
 1133              		.loc 1 178 3 is_stmt 1 view .LVU217
 1134              	.LBB208:
 1135              	.LBI203:
 1136              		.loc 3 187 23 view .LVU218
 1137              	.LBB207:
 1138              		.loc 3 189 3 view .LVU219
 1139              	.LBB205:
 1140              	.LBI205:
 1141              		.loc 3 174 25 view .LVU220
 1142              	.LBB206:
 1143              		.loc 3 176 3 view .LVU221
 1144              	.LBE206:
 1145              	.LBE205:
 1146              	.LBE207:
 1147              	.LBE208:
 1148              		.loc 1 178 16 is_stmt 0 view .LVU222
 1149 0070 9A68     		ldr	r2, [r3, #8]
 1150 0072 3069     		ldr	r0, [r6, #16]
 1151 0074 184B     		ldr	r3, .L61+20
 1152 0076 0095     		str	r5, [sp]
 1153 0078 053A     		subs	r2, r2, #5
 1154 007a 4FF4FC71 		mov	r1, #504
 1155 007e FFF7FEFF 		bl	chThdCreateStatic
 1156              	.LVL88:
 1157 0082 0346     		mov	r3, r0
ARM GAS  /tmp/ccvURch4.s 			page 22


 1158              		.loc 1 179 7 view .LVU223
 1159 0084 2068     		ldr	r0, [r4]
 1160              		.loc 1 178 14 view .LVU224
 1161 0086 2361     		str	r3, [r4, #16]
 1162              		.loc 1 179 3 is_stmt 1 view .LVU225
 1163              		.loc 1 179 7 is_stmt 0 view .LVU226
 1164 0088 FFF7FEFF 		bl	msg_loop_test
 1165              	.LVL89:
 1166 008c 0446     		mov	r4, r0
 1167              	.LVL90:
 1168              		.loc 1 180 3 is_stmt 1 view .LVU227
 1169 008e FFF7FEFF 		bl	test_wait_threads
 1170              	.LVL91:
 1171              		.loc 1 181 3 view .LVU228
 1172 0092 1248     		ldr	r0, .L61+24
 1173 0094 FFF7FEFF 		bl	test_print
 1174              	.LVL92:
 1175              		.loc 1 182 3 view .LVU229
 1176 0098 2046     		mov	r0, r4
 1177 009a FFF7FEFF 		bl	test_printn
 1178              	.LVL93:
 1179              		.loc 1 183 3 view .LVU230
 1180 009e 1048     		ldr	r0, .L61+28
 1181 00a0 FFF7FEFF 		bl	test_print
 1182              	.LVL94:
 1183              		.loc 1 184 3 view .LVU231
 1184 00a4 6000     		lsls	r0, r4, #1
 1185 00a6 FFF7FEFF 		bl	test_printn
 1186              	.LVL95:
 1187              		.loc 1 185 3 view .LVU232
 1188 00aa 084B     		ldr	r3, .L61+8
 1189 00ac 1A68     		ldr	r2, [r3]
 1190 00ae 039B     		ldr	r3, [sp, #12]
 1191 00b0 5A40     		eors	r2, r3, r2
 1192 00b2 05D1     		bne	.L60
 1193 00b4 0B48     		ldr	r0, .L61+32
 1194              		.loc 1 186 1 is_stmt 0 view .LVU233
 1195 00b6 05B0     		add	sp, sp, #20
 1196              		.cfi_remember_state
 1197              		.cfi_def_cfa_offset 20
 1198              		@ sp needed
 1199 00b8 BDE8F040 		pop	{r4, r5, r6, r7, lr}
 1200              		.cfi_restore 14
 1201              		.cfi_restore 7
 1202              		.cfi_restore 6
 1203              		.cfi_restore 5
 1204              		.cfi_restore 4
 1205              		.cfi_def_cfa_offset 0
 1206              	.LVL96:
 1207              		.loc 1 185 3 view .LVU234
 1208 00bc FFF7FEBF 		b	test_println
 1209              	.LVL97:
 1210              	.L60:
 1211              		.cfi_restore_state
 1212              		.loc 1 185 3 view .LVU235
 1213 00c0 FFF7FEFF 		bl	__stack_chk_fail
 1214              	.LVL98:
ARM GAS  /tmp/ccvURch4.s 			page 23


 1215              	.L62:
 1216              		.align	2
 1217              	.L61:
 1218 00c4 00000000 		.word	ch
 1219 00c8 00000000 		.word	wa
 1220 00cc 00000000 		.word	.LC22
 1221 00d0 00000000 		.word	thread2
 1222 00d4 00000000 		.word	threads
 1223 00d8 00000000 		.word	thread1
 1224 00dc 00000000 		.word	.LC14
 1225 00e0 00000000 		.word	.LC18
 1226 00e4 0C000000 		.word	.LC19
 1227              		.cfi_endproc
 1228              	.LFE224:
 1229              		.size	bmk3_execute, .-bmk3_execute
 1230              		.section	.rodata.thread1.cst4,"aM",%progbits,4
 1231              		.align	2
 1232              	.LC23:
 1233 0000 00000000 		.word	__stack_chk_guard
 1234              		.section	.text.thread1,"ax",%progbits
 1235              		.align	1
 1236              		.p2align 4,,15
 1237              		.syntax unified
 1238              		.thumb
 1239              		.thumb_func
 1240              		.fpu fpv4-sp-d16
 1241              		.type	thread1, %function
 1242              	thread1:
 1243              	.LVL99:
 1244              	.LFB219:
 1245              		.loc 1 66 33 is_stmt 1 view -0
 1246              		.cfi_startproc
 1247              		@ args = 0, pretend = 0, frame = 8
 1248              		@ frame_needed = 0, uses_anonymous_args = 0
 1249              		.loc 1 66 33 is_stmt 0 view .LVU237
 1250 0000 00B5     		push	{lr}
 1251              		.cfi_def_cfa_offset 4
 1252              		.cfi_offset 14, -4
 1253 0002 094B     		ldr	r3, .L68
 1254 0004 83B0     		sub	sp, sp, #12
 1255              		.cfi_def_cfa_offset 16
 1256              		.loc 1 66 33 view .LVU238
 1257 0006 1B68     		ldr	r3, [r3]
 1258 0008 0193     		str	r3, [sp, #4]
 1259 000a 4FF00003 		mov	r3,#0
 1260              		.loc 1 68 3 is_stmt 1 view .LVU239
 1261 000e 064B     		ldr	r3, .L68
 1262 0010 1A68     		ldr	r2, [r3]
 1263 0012 019B     		ldr	r3, [sp, #4]
 1264 0014 5A40     		eors	r2, r3, r2
 1265 0016 04D1     		bne	.L67
 1266              		.loc 1 69 1 is_stmt 0 view .LVU240
 1267 0018 03B0     		add	sp, sp, #12
 1268              		.cfi_remember_state
 1269              		.cfi_def_cfa_offset 4
 1270              		@ sp needed
 1271 001a 5DF804EB 		ldr	lr, [sp], #4
ARM GAS  /tmp/ccvURch4.s 			page 24


 1272              		.cfi_restore 14
 1273              		.cfi_def_cfa_offset 0
 1274              		.loc 1 68 3 view .LVU241
 1275 001e FFF7FEBF 		b	chThdExit
 1276              	.LVL100:
 1277              	.L67:
 1278              		.cfi_restore_state
 1279              		.loc 1 68 3 view .LVU242
 1280 0022 FFF7FEFF 		bl	__stack_chk_fail
 1281              	.LVL101:
 1282              	.L69:
 1283              		.loc 1 68 3 view .LVU243
 1284 0026 00BF     		.align	2
 1285              	.L68:
 1286 0028 00000000 		.word	.LC23
 1287              		.cfi_endproc
 1288              	.LFE219:
 1289              		.size	thread1, .-thread1
 1290              		.section	.rodata.bmk5_execute.cst4,"aM",%progbits,4
 1291              		.align	2
 1292              	.LC24:
 1293 0000 00000000 		.word	__stack_chk_guard
 1294              		.section	.text.bmk5_execute,"ax",%progbits
 1295              		.align	1
 1296              		.p2align 4,,15
 1297              		.syntax unified
 1298              		.thumb
 1299              		.thumb_func
 1300              		.fpu fpv4-sp-d16
 1301              		.type	bmk5_execute, %function
 1302              	bmk5_execute:
 1303              	.LFB227:
 1304              		.loc 1 268 32 is_stmt 1 view -0
 1305              		.cfi_startproc
 1306              		@ args = 0, pretend = 0, frame = 8
 1307              		@ frame_needed = 0, uses_anonymous_args = 0
 1308 0000 2DE9F043 		push	{r4, r5, r6, r7, r8, r9, lr}
 1309              		.cfi_def_cfa_offset 28
 1310              		.cfi_offset 4, -28
 1311              		.cfi_offset 5, -24
 1312              		.cfi_offset 6, -20
 1313              		.cfi_offset 7, -16
 1314              		.cfi_offset 8, -12
 1315              		.cfi_offset 9, -8
 1316              		.cfi_offset 14, -4
 1317              	.LBB209:
 1318              	.LBB210:
 1319              	.LBB211:
 1320              	.LBB212:
 1321              		.loc 3 176 18 is_stmt 0 view .LVU245
 1322 0004 1C4A     		ldr	r2, .L78
 1323              	.LBE212:
 1324              	.LBE211:
 1325              	.LBE210:
 1326              	.LBE209:
 1327              		.loc 1 271 9 view .LVU246
 1328 0006 1D4B     		ldr	r3, .L78+4
ARM GAS  /tmp/ccvURch4.s 			page 25


 1329              	.LBB217:
 1330              	.LBB215:
 1331              		.loc 3 189 25 view .LVU247
 1332 0008 9269     		ldr	r2, [r2, #24]
 1333              	.LBE215:
 1334              	.LBE217:
 1335              		.loc 1 268 32 view .LVU248
 1336 000a 1D49     		ldr	r1, .L78+8
 1337              		.loc 1 272 11 view .LVU249
 1338 000c 9568     		ldr	r5, [r2, #8]
 1339              		.loc 1 271 9 view .LVU250
 1340 000e D3F80090 		ldr	r9, [r3]
 1341 0012 DFF87C80 		ldr	r8, .L78+24
 1342              		.loc 1 276 5 view .LVU251
 1343 0016 1B4F     		ldr	r7, .L78+12
 1344              		.loc 1 268 32 view .LVU252
 1345 0018 85B0     		sub	sp, sp, #20
 1346              		.cfi_def_cfa_offset 48
 1347              		.loc 1 268 32 view .LVU253
 1348 001a 0968     		ldr	r1, [r1]
 1349 001c 0391     		str	r1, [sp, #12]
 1350 001e 4FF00001 		mov	r1,#0
 1351              		.loc 1 270 3 is_stmt 1 view .LVU254
 1352              	.LVL102:
 1353              		.loc 1 271 3 view .LVU255
 1354              		.loc 1 272 3 view .LVU256
 1355              	.LBB218:
 1356              	.LBI209:
 1357              		.loc 3 187 23 view .LVU257
 1358              	.LBB216:
 1359              		.loc 3 189 3 view .LVU258
 1360              	.LBB214:
 1361              	.LBI211:
 1362              		.loc 3 174 25 view .LVU259
 1363              	.LBB213:
 1364              		.loc 3 176 3 view .LVU260
 1365              	.LBE213:
 1366              	.LBE214:
 1367              	.LBE216:
 1368              	.LBE218:
 1369              		.loc 1 273 3 is_stmt 0 view .LVU261
 1370 0022 FFF7FEFF 		bl	test_wait_tick
 1371              	.LVL103:
 1372              		.loc 1 274 3 view .LVU262
 1373 0026 4FF47A70 		mov	r0, #1000
 1374 002a FFF7FEFF 		bl	test_start_timer
 1375              	.LVL104:
 1376              		.loc 1 270 12 view .LVU263
 1377 002e 0024     		movs	r4, #0
 1378              		.loc 1 272 11 view .LVU264
 1379 0030 013D     		subs	r5, r5, #1
 1380              	.LVL105:
 1381              		.loc 1 273 3 is_stmt 1 view .LVU265
 1382              		.loc 1 274 3 view .LVU266
 1383              		.loc 1 276 5 is_stmt 0 view .LVU267
 1384 0032 2646     		mov	r6, r4
 1385              	.LVL106:
ARM GAS  /tmp/ccvURch4.s 			page 26


 1386              	.L71:
 1387              		.loc 1 275 3 is_stmt 1 discriminator 1 view .LVU268
 1388              		.loc 1 276 5 discriminator 1 view .LVU269
 1389 0034 4FF4FC71 		mov	r1, #504
 1390 0038 3B46     		mov	r3, r7
 1391 003a 2A46     		mov	r2, r5
 1392 003c 0096     		str	r6, [sp]
 1393 003e 4846     		mov	r0, r9
 1394 0040 FFF7FEFF 		bl	chThdCreateStatic
 1395              	.LVL107:
 1396 0044 FFF7FEFF 		bl	chThdWait
 1397              	.LVL108:
 1398              		.loc 1 277 5 discriminator 1 view .LVU270
 1399              		.loc 1 281 3 is_stmt 0 discriminator 1 view .LVU271
 1400 0048 98F80010 		ldrb	r1, [r8]	@ zero_extendqisi2
 1401              		.loc 1 277 6 discriminator 1 view .LVU272
 1402 004c 0134     		adds	r4, r4, #1
 1403              	.LVL109:
 1404              		.loc 1 281 11 is_stmt 1 discriminator 1 view .LVU273
 1405              		.loc 1 281 3 is_stmt 0 discriminator 1 view .LVU274
 1406 004e 0029     		cmp	r1, #0
 1407 0050 F0D0     		beq	.L71
 1408              		.loc 1 282 3 is_stmt 1 view .LVU275
 1409 0052 0D48     		ldr	r0, .L78+16
 1410 0054 FFF7FEFF 		bl	test_print
 1411              	.LVL110:
 1412              		.loc 1 283 3 view .LVU276
 1413 0058 2046     		mov	r0, r4
 1414 005a FFF7FEFF 		bl	test_printn
 1415              	.LVL111:
 1416              		.loc 1 284 3 view .LVU277
 1417 005e 084B     		ldr	r3, .L78+8
 1418 0060 1A68     		ldr	r2, [r3]
 1419 0062 039B     		ldr	r3, [sp, #12]
 1420 0064 5A40     		eors	r2, r3, r2
 1421 0066 05D1     		bne	.L77
 1422 0068 0848     		ldr	r0, .L78+20
 1423              		.loc 1 285 1 is_stmt 0 view .LVU278
 1424 006a 05B0     		add	sp, sp, #20
 1425              		.cfi_remember_state
 1426              		.cfi_def_cfa_offset 28
 1427              		@ sp needed
 1428 006c BDE8F043 		pop	{r4, r5, r6, r7, r8, r9, lr}
 1429              		.cfi_restore 14
 1430              		.cfi_restore 9
 1431              		.cfi_restore 8
 1432              		.cfi_restore 7
 1433              		.cfi_restore 6
 1434              		.cfi_restore 5
 1435              		.cfi_restore 4
 1436              		.cfi_def_cfa_offset 0
 1437              	.LVL112:
 1438              		.loc 1 284 3 view .LVU279
 1439 0070 FFF7FEBF 		b	test_println
 1440              	.LVL113:
 1441              	.L77:
 1442              		.cfi_restore_state
ARM GAS  /tmp/ccvURch4.s 			page 27


 1443              		.loc 1 284 3 view .LVU280
 1444 0074 FFF7FEFF 		bl	__stack_chk_fail
 1445              	.LVL114:
 1446              	.L79:
 1447              		.align	2
 1448              	.L78:
 1449 0078 00000000 		.word	ch
 1450 007c 00000000 		.word	wa
 1451 0080 00000000 		.word	.LC24
 1452 0084 00000000 		.word	thread1
 1453 0088 00000000 		.word	.LC14
 1454 008c 10000000 		.word	.LC15
 1455 0090 00000000 		.word	test_timer_done
 1456              		.cfi_endproc
 1457              	.LFE227:
 1458              		.size	bmk5_execute, .-bmk5_execute
 1459              		.section	.rodata.bmk7_execute.str1.4,"aMS",%progbits,1
 1460              		.align	2
 1461              	.LC25:
 1462 0000 20726573 		.ascii	" reschedules/S, \000"
 1462      63686564 
 1462      756C6573 
 1462      2F532C20 
 1462      00
 1463              		.section	.rodata.bmk7_execute.cst4,"aM",%progbits,4
 1464              		.align	2
 1465              	.LC26:
 1466 0000 00000000 		.word	__stack_chk_guard
 1467              		.section	.text.bmk7_execute,"ax",%progbits
 1468              		.align	1
 1469              		.p2align 4,,15
 1470              		.syntax unified
 1471              		.thumb
 1472              		.thumb_func
 1473              		.fpu fpv4-sp-d16
 1474              		.type	bmk7_execute, %function
 1475              	bmk7_execute:
 1476              	.LFB231:
 1477              		.loc 1 357 32 is_stmt 1 view -0
 1478              		.cfi_startproc
 1479              		@ args = 0, pretend = 0, frame = 8
 1480              		@ frame_needed = 0, uses_anonymous_args = 0
 1481 0000 2DE9F041 		push	{r4, r5, r6, r7, r8, lr}
 1482              		.cfi_def_cfa_offset 24
 1483              		.cfi_offset 4, -24
 1484              		.cfi_offset 5, -20
 1485              		.cfi_offset 6, -16
 1486              		.cfi_offset 7, -12
 1487              		.cfi_offset 8, -8
 1488              		.cfi_offset 14, -4
 1489              	.LBB219:
 1490              	.LBB220:
 1491              	.LBB221:
 1492              	.LBB222:
 1493              		.loc 3 176 18 is_stmt 0 view .LVU282
 1494 0004 DFF81481 		ldr	r8, .L88+36
 1495              	.LBE222:
ARM GAS  /tmp/ccvURch4.s 			page 28


 1496              	.LBE221:
 1497              	.LBE220:
 1498              	.LBE219:
 1499              		.loc 1 360 16 view .LVU283
 1500 0008 3B4D     		ldr	r5, .L88
 1501              	.LBB227:
 1502              	.LBB225:
 1503              		.loc 3 189 25 view .LVU284
 1504 000a D8F81830 		ldr	r3, [r8, #24]
 1505              	.LBE225:
 1506              	.LBE227:
 1507              		.loc 1 357 32 view .LVU285
 1508 000e 3B49     		ldr	r1, .L88+4
 1509              		.loc 1 360 16 view .LVU286
 1510 0010 9A68     		ldr	r2, [r3, #8]
 1511 0012 2868     		ldr	r0, [r5]
 1512 0014 3A4B     		ldr	r3, .L88+8
 1513              		.loc 1 360 14 view .LVU287
 1514 0016 3B4F     		ldr	r7, .L88+12
 1515 0018 3B4E     		ldr	r6, .L88+16
 1516              		.loc 1 357 32 view .LVU288
 1517 001a 84B0     		sub	sp, sp, #16
 1518              		.cfi_def_cfa_offset 40
 1519              		.loc 1 360 16 view .LVU289
 1520 001c 0024     		movs	r4, #0
 1521              		.loc 1 357 32 view .LVU290
 1522 001e 0968     		ldr	r1, [r1]
 1523 0020 0391     		str	r1, [sp, #12]
 1524 0022 4FF00001 		mov	r1,#0
 1525              		.loc 1 358 3 is_stmt 1 view .LVU291
 1526              		.loc 1 360 3 view .LVU292
 1527              	.LBB228:
 1528              	.LBI219:
 1529              		.loc 3 187 23 view .LVU293
 1530              	.LBB226:
 1531              		.loc 3 189 3 view .LVU294
 1532              	.LBB224:
 1533              	.LBI221:
 1534              		.loc 3 174 25 view .LVU295
 1535              	.LBB223:
 1536              		.loc 3 176 3 view .LVU296
 1537              	.LBE223:
 1538              	.LBE224:
 1539              	.LBE226:
 1540              	.LBE228:
 1541              		.loc 1 360 16 is_stmt 0 view .LVU297
 1542 0026 0532     		adds	r2, r2, #5
 1543 0028 4FF4FC71 		mov	r1, #504
 1544 002c 0094     		str	r4, [sp]
 1545 002e FFF7FEFF 		bl	chThdCreateStatic
 1546              	.LVL115:
 1547              	.LBB229:
 1548              	.LBB230:
 1549              		.loc 3 189 25 view .LVU298
 1550 0032 D8F81830 		ldr	r3, [r8, #24]
 1551              	.LBE230:
 1552              	.LBE229:
ARM GAS  /tmp/ccvURch4.s 			page 29


 1553              		.loc 1 360 14 view .LVU299
 1554 0036 3860     		str	r0, [r7]
 1555              		.loc 1 361 3 is_stmt 1 view .LVU300
 1556              	.LBB234:
 1557              	.LBI229:
 1558              		.loc 3 187 23 view .LVU301
 1559              	.LBB233:
 1560              		.loc 3 189 3 view .LVU302
 1561              	.LBB231:
 1562              	.LBI231:
 1563              		.loc 3 174 25 view .LVU303
 1564              	.LBB232:
 1565              		.loc 3 176 3 view .LVU304
 1566              	.LBE232:
 1567              	.LBE231:
 1568              	.LBE233:
 1569              	.LBE234:
 1570              		.loc 1 361 16 is_stmt 0 view .LVU305
 1571 0038 9A68     		ldr	r2, [r3, #8]
 1572 003a 6868     		ldr	r0, [r5, #4]
 1573 003c 304B     		ldr	r3, .L88+8
 1574 003e 0094     		str	r4, [sp]
 1575 0040 0432     		adds	r2, r2, #4
 1576 0042 4FF4FC71 		mov	r1, #504
 1577 0046 FFF7FEFF 		bl	chThdCreateStatic
 1578              	.LVL116:
 1579              	.LBB235:
 1580              	.LBB236:
 1581              		.loc 3 189 25 view .LVU306
 1582 004a D8F81830 		ldr	r3, [r8, #24]
 1583              	.LBE236:
 1584              	.LBE235:
 1585              		.loc 1 361 14 view .LVU307
 1586 004e 7860     		str	r0, [r7, #4]
 1587              		.loc 1 362 3 is_stmt 1 view .LVU308
 1588              	.LBB240:
 1589              	.LBI235:
 1590              		.loc 3 187 23 view .LVU309
 1591              	.LBB239:
 1592              		.loc 3 189 3 view .LVU310
 1593              	.LBB237:
 1594              	.LBI237:
 1595              		.loc 3 174 25 view .LVU311
 1596              	.LBB238:
 1597              		.loc 3 176 3 view .LVU312
 1598              	.LBE238:
 1599              	.LBE237:
 1600              	.LBE239:
 1601              	.LBE240:
 1602              		.loc 1 362 16 is_stmt 0 view .LVU313
 1603 0050 9A68     		ldr	r2, [r3, #8]
 1604 0052 A868     		ldr	r0, [r5, #8]
 1605 0054 2A4B     		ldr	r3, .L88+8
 1606 0056 0094     		str	r4, [sp]
 1607 0058 0332     		adds	r2, r2, #3
 1608 005a 4FF4FC71 		mov	r1, #504
 1609 005e FFF7FEFF 		bl	chThdCreateStatic
ARM GAS  /tmp/ccvURch4.s 			page 30


 1610              	.LVL117:
 1611              	.LBB241:
 1612              	.LBB242:
 1613              		.loc 3 189 25 view .LVU314
 1614 0062 D8F81830 		ldr	r3, [r8, #24]
 1615              	.LBE242:
 1616              	.LBE241:
 1617              		.loc 1 362 14 view .LVU315
 1618 0066 B860     		str	r0, [r7, #8]
 1619              		.loc 1 363 3 is_stmt 1 view .LVU316
 1620              	.LBB246:
 1621              	.LBI241:
 1622              		.loc 3 187 23 view .LVU317
 1623              	.LBB245:
 1624              		.loc 3 189 3 view .LVU318
 1625              	.LBB243:
 1626              	.LBI243:
 1627              		.loc 3 174 25 view .LVU319
 1628              	.LBB244:
 1629              		.loc 3 176 3 view .LVU320
 1630              	.LBE244:
 1631              	.LBE243:
 1632              	.LBE245:
 1633              	.LBE246:
 1634              		.loc 1 363 16 is_stmt 0 view .LVU321
 1635 0068 9A68     		ldr	r2, [r3, #8]
 1636 006a E868     		ldr	r0, [r5, #12]
 1637 006c 244B     		ldr	r3, .L88+8
 1638 006e 0094     		str	r4, [sp]
 1639 0070 0232     		adds	r2, r2, #2
 1640 0072 4FF4FC71 		mov	r1, #504
 1641 0076 FFF7FEFF 		bl	chThdCreateStatic
 1642              	.LVL118:
 1643              	.LBB247:
 1644              	.LBB248:
 1645              		.loc 3 189 25 view .LVU322
 1646 007a D8F81830 		ldr	r3, [r8, #24]
 1647              	.LBE248:
 1648              	.LBE247:
 1649              		.loc 1 363 14 view .LVU323
 1650 007e F860     		str	r0, [r7, #12]
 1651              		.loc 1 364 3 is_stmt 1 view .LVU324
 1652              	.LBB252:
 1653              	.LBI247:
 1654              		.loc 3 187 23 view .LVU325
 1655              	.LBB251:
 1656              		.loc 3 189 3 view .LVU326
 1657              	.LBB249:
 1658              	.LBI249:
 1659              		.loc 3 174 25 view .LVU327
 1660              	.LBB250:
 1661              		.loc 3 176 3 view .LVU328
 1662              	.LBE250:
 1663              	.LBE249:
 1664              	.LBE251:
 1665              	.LBE252:
 1666              		.loc 1 364 16 is_stmt 0 view .LVU329
ARM GAS  /tmp/ccvURch4.s 			page 31


 1667 0080 9A68     		ldr	r2, [r3, #8]
 1668 0082 2869     		ldr	r0, [r5, #16]
 1669 0084 1E4B     		ldr	r3, .L88+8
 1670 0086 0094     		str	r4, [sp]
 1671 0088 0132     		adds	r2, r2, #1
 1672 008a 4FF4FC71 		mov	r1, #504
 1673 008e FFF7FEFF 		bl	chThdCreateStatic
 1674              	.LVL119:
 1675              		.loc 1 364 14 view .LVU330
 1676 0092 3861     		str	r0, [r7, #16]
 1677              		.loc 1 366 3 is_stmt 1 view .LVU331
 1678              	.LVL120:
 1679              		.loc 1 367 3 view .LVU332
 1680 0094 FFF7FEFF 		bl	test_wait_tick
 1681              	.LVL121:
 1682              		.loc 1 368 3 view .LVU333
 1683 0098 4FF47A70 		mov	r0, #1000
 1684              		.loc 1 370 5 is_stmt 0 view .LVU334
 1685 009c 1B4D     		ldr	r5, .L88+20
 1686              		.loc 1 368 3 view .LVU335
 1687 009e FFF7FEFF 		bl	test_start_timer
 1688              	.LVL122:
 1689              	.L81:
 1690              		.loc 1 369 3 is_stmt 1 discriminator 1 view .LVU336
 1691              		.loc 1 370 5 discriminator 1 view .LVU337
 1692 00a2 0021     		movs	r1, #0
 1693 00a4 2846     		mov	r0, r5
 1694 00a6 FFF7FEFF 		bl	chSemReset
 1695              	.LVL123:
 1696              		.loc 1 371 5 discriminator 1 view .LVU338
 1697              		.loc 1 375 3 is_stmt 0 discriminator 1 view .LVU339
 1698 00aa 3378     		ldrb	r3, [r6]	@ zero_extendqisi2
 1699              		.loc 1 371 6 discriminator 1 view .LVU340
 1700 00ac 0134     		adds	r4, r4, #1
 1701              	.LVL124:
 1702              		.loc 1 375 11 is_stmt 1 discriminator 1 view .LVU341
 1703              		.loc 1 375 3 is_stmt 0 discriminator 1 view .LVU342
 1704 00ae 002B     		cmp	r3, #0
 1705 00b0 F7D0     		beq	.L81
 1706              		.loc 1 376 3 is_stmt 1 view .LVU343
 1707 00b2 FFF7FEFF 		bl	test_terminate_threads
 1708              	.LVL125:
 1709              		.loc 1 377 3 view .LVU344
 1710 00b6 0021     		movs	r1, #0
 1711 00b8 1448     		ldr	r0, .L88+20
 1712 00ba FFF7FEFF 		bl	chSemReset
 1713              	.LVL126:
 1714              		.loc 1 378 3 view .LVU345
 1715 00be FFF7FEFF 		bl	test_wait_threads
 1716              	.LVL127:
 1717              		.loc 1 380 3 view .LVU346
 1718 00c2 1348     		ldr	r0, .L88+24
 1719 00c4 FFF7FEFF 		bl	test_print
 1720              	.LVL128:
 1721              		.loc 1 381 3 view .LVU347
 1722 00c8 2046     		mov	r0, r4
 1723 00ca FFF7FEFF 		bl	test_printn
ARM GAS  /tmp/ccvURch4.s 			page 32


 1724              	.LVL129:
 1725              		.loc 1 382 3 view .LVU348
 1726              		.loc 1 383 3 is_stmt 0 view .LVU349
 1727 00ce 04EB4404 		add	r4, r4, r4, lsl #1
 1728              	.LVL130:
 1729              		.loc 1 382 3 view .LVU350
 1730 00d2 1048     		ldr	r0, .L88+28
 1731 00d4 FFF7FEFF 		bl	test_print
 1732              	.LVL131:
 1733              		.loc 1 383 3 is_stmt 1 view .LVU351
 1734 00d8 6000     		lsls	r0, r4, #1
 1735 00da FFF7FEFF 		bl	test_printn
 1736              	.LVL132:
 1737              		.loc 1 384 3 view .LVU352
 1738 00de 074B     		ldr	r3, .L88+4
 1739 00e0 1A68     		ldr	r2, [r3]
 1740 00e2 039B     		ldr	r3, [sp, #12]
 1741 00e4 5A40     		eors	r2, r3, r2
 1742 00e6 05D1     		bne	.L87
 1743 00e8 0B48     		ldr	r0, .L88+32
 1744              		.loc 1 385 1 is_stmt 0 view .LVU353
 1745 00ea 04B0     		add	sp, sp, #16
 1746              		.cfi_remember_state
 1747              		.cfi_def_cfa_offset 24
 1748              		@ sp needed
 1749 00ec BDE8F041 		pop	{r4, r5, r6, r7, r8, lr}
 1750              		.cfi_restore 14
 1751              		.cfi_restore 8
 1752              		.cfi_restore 7
 1753              		.cfi_restore 6
 1754              		.cfi_restore 5
 1755              		.cfi_restore 4
 1756              		.cfi_def_cfa_offset 0
 1757              		.loc 1 384 3 view .LVU354
 1758 00f0 FFF7FEBF 		b	test_println
 1759              	.LVL133:
 1760              	.L87:
 1761              		.cfi_restore_state
 1762 00f4 FFF7FEFF 		bl	__stack_chk_fail
 1763              	.LVL134:
 1764              	.L89:
 1765              		.align	2
 1766              	.L88:
 1767 00f8 00000000 		.word	wa
 1768 00fc 00000000 		.word	.LC26
 1769 0100 00000000 		.word	thread3
 1770 0104 00000000 		.word	threads
 1771 0108 00000000 		.word	test_timer_done
 1772 010c 00000000 		.word	.LANCHOR0
 1773 0110 00000000 		.word	.LC14
 1774 0114 00000000 		.word	.LC25
 1775 0118 0C000000 		.word	.LC19
 1776 011c 00000000 		.word	ch
 1777              		.cfi_endproc
 1778              	.LFE231:
 1779              		.size	bmk7_execute, .-bmk7_execute
 1780              		.section	.rodata.thread3.cst4,"aM",%progbits,4
ARM GAS  /tmp/ccvURch4.s 			page 33


 1781              		.align	2
 1782              	.LC27:
 1783 0000 00000000 		.word	__stack_chk_guard
 1784              		.section	.text.thread3,"ax",%progbits
 1785              		.align	1
 1786              		.p2align 4,,15
 1787              		.syntax unified
 1788              		.thumb
 1789              		.thumb_func
 1790              		.fpu fpv4-sp-d16
 1791              		.type	thread3, %function
 1792              	thread3:
 1793              	.LVL135:
 1794              	.LFB229:
 1795              		.loc 1 345 33 is_stmt 1 view -0
 1796              		.cfi_startproc
 1797              		@ args = 0, pretend = 0, frame = 8
 1798              		@ frame_needed = 0, uses_anonymous_args = 0
 1799              		.loc 1 345 33 is_stmt 0 view .LVU356
 1800 0000 30B5     		push	{r4, r5, lr}
 1801              		.cfi_def_cfa_offset 12
 1802              		.cfi_offset 4, -12
 1803              		.cfi_offset 5, -8
 1804              		.cfi_offset 14, -4
 1805 0002 0F4B     		ldr	r3, .L98
 1806              	.LBB253:
 1807              	.LBB254:
 1808              	.LBB255:
 1809              	.LBB256:
 1810              		.loc 3 176 18 view .LVU357
 1811 0004 0F4C     		ldr	r4, .L98+4
 1812              	.LBE256:
 1813              	.LBE255:
 1814              	.LBE254:
 1815              	.LBE253:
 1816              		.loc 1 345 33 view .LVU358
 1817 0006 83B0     		sub	sp, sp, #12
 1818              		.cfi_def_cfa_offset 24
 1819              		.loc 1 345 33 view .LVU359
 1820 0008 1B68     		ldr	r3, [r3]
 1821 000a 0193     		str	r3, [sp, #4]
 1822 000c 4FF00003 		mov	r3,#0
 1823              		.loc 1 347 3 is_stmt 1 view .LVU360
 1824              		.loc 1 348 3 view .LVU361
 1825              		.loc 1 348 9 view .LVU362
 1826              	.LBB263:
 1827              	.LBI253:
 1828              		.loc 3 231 20 view .LVU363
 1829              	.LBB261:
 1830              		.loc 3 233 3 view .LVU364
 1831              	.LBB259:
 1832              	.LBI255:
 1833              		.loc 3 174 25 view .LVU365
 1834              	.LBB257:
 1835              		.loc 3 176 3 view .LVU366
 1836              	.LBE257:
 1837              	.LBE259:
ARM GAS  /tmp/ccvURch4.s 			page 34


 1838              		.loc 3 233 33 is_stmt 0 view .LVU367
 1839 0010 A369     		ldr	r3, [r4, #24]
 1840              	.LBE261:
 1841              	.LBE263:
 1842              		.loc 1 348 9 view .LVU368
 1843 0012 93F82130 		ldrb	r3, [r3, #33]	@ zero_extendqisi2
 1844 0016 5A07     		lsls	r2, r3, #29
 1845 0018 08D4     		bmi	.L90
 1846              		.loc 1 349 5 view .LVU369
 1847 001a 0B4D     		ldr	r5, .L98+8
 1848              	.LVL136:
 1849              	.L92:
 1850              		.loc 1 349 5 is_stmt 1 view .LVU370
 1851 001c 2846     		mov	r0, r5
 1852 001e FFF7FEFF 		bl	chSemWait
 1853              	.LVL137:
 1854              		.loc 1 348 9 view .LVU371
 1855              	.LBB264:
 1856              		.loc 3 231 20 view .LVU372
 1857              	.LBB262:
 1858              		.loc 3 233 3 view .LVU373
 1859              	.LBB260:
 1860              		.loc 3 174 25 view .LVU374
 1861              	.LBB258:
 1862              		.loc 3 176 3 view .LVU375
 1863              	.LBE258:
 1864              	.LBE260:
 1865              		.loc 3 233 33 is_stmt 0 view .LVU376
 1866 0022 A369     		ldr	r3, [r4, #24]
 1867              	.LBE262:
 1868              	.LBE264:
 1869              		.loc 1 348 9 view .LVU377
 1870 0024 93F82130 		ldrb	r3, [r3, #33]	@ zero_extendqisi2
 1871 0028 5B07     		lsls	r3, r3, #29
 1872 002a F7D5     		bpl	.L92
 1873              	.L90:
 1874              		.loc 1 350 1 view .LVU378
 1875 002c 044B     		ldr	r3, .L98
 1876 002e 1A68     		ldr	r2, [r3]
 1877 0030 019B     		ldr	r3, [sp, #4]
 1878 0032 5A40     		eors	r2, r3, r2
 1879 0034 01D1     		bne	.L97
 1880 0036 03B0     		add	sp, sp, #12
 1881              		.cfi_remember_state
 1882              		.cfi_def_cfa_offset 12
 1883              		@ sp needed
 1884 0038 30BD     		pop	{r4, r5, pc}
 1885              	.L97:
 1886              		.cfi_restore_state
 1887 003a FFF7FEFF 		bl	__stack_chk_fail
 1888              	.LVL138:
 1889              	.L99:
 1890 003e 00BF     		.align	2
 1891              	.L98:
 1892 0040 00000000 		.word	.LC27
 1893 0044 00000000 		.word	ch
 1894 0048 00000000 		.word	.LANCHOR0
ARM GAS  /tmp/ccvURch4.s 			page 35


 1895              		.cfi_endproc
 1896              	.LFE229:
 1897              		.size	thread3, .-thread3
 1898              		.section	.rodata.bmk7_setup.cst4,"aM",%progbits,4
 1899              		.align	2
 1900              	.LC28:
 1901 0000 00000000 		.word	__stack_chk_guard
 1902              		.section	.text.bmk7_setup,"ax",%progbits
 1903              		.align	1
 1904              		.p2align 4,,15
 1905              		.syntax unified
 1906              		.thumb
 1907              		.thumb_func
 1908              		.fpu fpv4-sp-d16
 1909              		.type	bmk7_setup, %function
 1910              	bmk7_setup:
 1911              	.LFB230:
 1912              		.loc 1 352 30 is_stmt 1 view -0
 1913              		.cfi_startproc
 1914              		@ args = 0, pretend = 0, frame = 8
 1915              		@ frame_needed = 0, uses_anonymous_args = 0
 1916 0000 00B5     		push	{lr}
 1917              		.cfi_def_cfa_offset 4
 1918              		.cfi_offset 14, -4
 1919 0002 0A4B     		ldr	r3, .L105
 1920 0004 83B0     		sub	sp, sp, #12
 1921              		.cfi_def_cfa_offset 16
 1922              		.loc 1 352 30 is_stmt 0 view .LVU380
 1923 0006 1B68     		ldr	r3, [r3]
 1924 0008 0193     		str	r3, [sp, #4]
 1925 000a 4FF00003 		mov	r3,#0
 1926              		.loc 1 354 3 is_stmt 1 view .LVU381
 1927 000e 074B     		ldr	r3, .L105
 1928 0010 1A68     		ldr	r2, [r3]
 1929 0012 019B     		ldr	r3, [sp, #4]
 1930 0014 5A40     		eors	r2, r3, r2
 1931 0016 06D1     		bne	.L104
 1932 0018 0548     		ldr	r0, .L105+4
 1933 001a 0021     		movs	r1, #0
 1934              		.loc 1 355 1 is_stmt 0 view .LVU382
 1935 001c 03B0     		add	sp, sp, #12
 1936              		.cfi_remember_state
 1937              		.cfi_def_cfa_offset 4
 1938              		@ sp needed
 1939 001e 5DF804EB 		ldr	lr, [sp], #4
 1940              		.cfi_restore 14
 1941              		.cfi_def_cfa_offset 0
 1942              		.loc 1 354 3 view .LVU383
 1943 0022 FFF7FEBF 		b	chSemObjectInit
 1944              	.LVL139:
 1945              	.L104:
 1946              		.cfi_restore_state
 1947 0026 FFF7FEFF 		bl	__stack_chk_fail
 1948              	.LVL140:
 1949              	.L106:
 1950 002a 00BF     		.align	2
 1951              	.L105:
ARM GAS  /tmp/ccvURch4.s 			page 36


 1952 002c 00000000 		.word	.LC28
 1953 0030 00000000 		.word	.LANCHOR0
 1954              		.cfi_endproc
 1955              	.LFE230:
 1956              		.size	bmk7_setup, .-bmk7_setup
 1957              		.section	.rodata.bmk11_setup.cst4,"aM",%progbits,4
 1958              		.align	2
 1959              	.LC29:
 1960 0000 00000000 		.word	__stack_chk_guard
 1961              		.section	.text.bmk11_setup,"ax",%progbits
 1962              		.align	1
 1963              		.p2align 4,,15
 1964              		.syntax unified
 1965              		.thumb
 1966              		.thumb_func
 1967              		.fpu fpv4-sp-d16
 1968              		.type	bmk11_setup, %function
 1969              	bmk11_setup:
 1970              	.LFB237:
 1971              		.loc 1 548 31 is_stmt 1 view -0
 1972              		.cfi_startproc
 1973              		@ args = 0, pretend = 0, frame = 8
 1974              		@ frame_needed = 0, uses_anonymous_args = 0
 1975 0000 00B5     		push	{lr}
 1976              		.cfi_def_cfa_offset 4
 1977              		.cfi_offset 14, -4
 1978 0002 0A4B     		ldr	r3, .L112
 1979 0004 83B0     		sub	sp, sp, #12
 1980              		.cfi_def_cfa_offset 16
 1981              		.loc 1 548 31 is_stmt 0 view .LVU385
 1982 0006 1B68     		ldr	r3, [r3]
 1983 0008 0193     		str	r3, [sp, #4]
 1984 000a 4FF00003 		mov	r3,#0
 1985              		.loc 1 550 3 is_stmt 1 view .LVU386
 1986 000e 074B     		ldr	r3, .L112
 1987 0010 1A68     		ldr	r2, [r3]
 1988 0012 019B     		ldr	r3, [sp, #4]
 1989 0014 5A40     		eors	r2, r3, r2
 1990 0016 06D1     		bne	.L111
 1991 0018 0548     		ldr	r0, .L112+4
 1992 001a 0121     		movs	r1, #1
 1993              		.loc 1 551 1 is_stmt 0 view .LVU387
 1994 001c 03B0     		add	sp, sp, #12
 1995              		.cfi_remember_state
 1996              		.cfi_def_cfa_offset 4
 1997              		@ sp needed
 1998 001e 5DF804EB 		ldr	lr, [sp], #4
 1999              		.cfi_restore 14
 2000              		.cfi_def_cfa_offset 0
 2001              		.loc 1 550 3 view .LVU388
 2002 0022 FFF7FEBF 		b	chSemObjectInit
 2003              	.LVL141:
 2004              	.L111:
 2005              		.cfi_restore_state
 2006 0026 FFF7FEFF 		bl	__stack_chk_fail
 2007              	.LVL142:
 2008              	.L113:
ARM GAS  /tmp/ccvURch4.s 			page 37


 2009 002a 00BF     		.align	2
 2010              	.L112:
 2011 002c 00000000 		.word	.LC29
 2012 0030 00000000 		.word	.LANCHOR0
 2013              		.cfi_endproc
 2014              	.LFE237:
 2015              		.size	bmk11_setup, .-bmk11_setup
 2016              		.section	.rodata.bmk8_execute.cst4,"aM",%progbits,4
 2017              		.align	2
 2018              	.LC30:
 2019 0000 00000000 		.word	__stack_chk_guard
 2020              		.section	.text.bmk8_execute,"ax",%progbits
 2021              		.align	1
 2022              		.p2align 4,,15
 2023              		.syntax unified
 2024              		.thumb
 2025              		.thumb_func
 2026              		.fpu fpv4-sp-d16
 2027              		.type	bmk8_execute, %function
 2028              	bmk8_execute:
 2029              	.LFB233:
 2030              		.loc 1 419 32 is_stmt 1 view -0
 2031              		.cfi_startproc
 2032              		@ args = 0, pretend = 0, frame = 8
 2033              		@ frame_needed = 0, uses_anonymous_args = 0
 2034 0000 F0B5     		push	{r4, r5, r6, r7, lr}
 2035              		.cfi_def_cfa_offset 20
 2036              		.cfi_offset 4, -20
 2037              		.cfi_offset 5, -16
 2038              		.cfi_offset 6, -12
 2039              		.cfi_offset 7, -8
 2040              		.cfi_offset 14, -4
 2041 0002 304B     		ldr	r3, .L118
 2042              	.LBB265:
 2043              	.LBB266:
 2044              	.LBB267:
 2045              	.LBB268:
 2046              		.loc 3 176 18 is_stmt 0 view .LVU390
 2047 0004 304F     		ldr	r7, .L118+4
 2048              	.LBE268:
 2049              	.LBE267:
 2050              	.LBE266:
 2051              	.LBE265:
 2052              		.loc 1 425 16 view .LVU391
 2053 0006 314E     		ldr	r6, .L118+8
 2054              		.loc 1 425 14 view .LVU392
 2055 0008 314C     		ldr	r4, .L118+12
 2056              		.loc 1 419 32 view .LVU393
 2057 000a 85B0     		sub	sp, sp, #20
 2058              		.cfi_def_cfa_offset 40
 2059              		.loc 1 419 32 view .LVU394
 2060 000c 1B68     		ldr	r3, [r3]
 2061 000e 0393     		str	r3, [sp, #12]
 2062 0010 4FF00003 		mov	r3,#0
 2063              		.loc 1 420 3 is_stmt 1 view .LVU395
 2064              		.loc 1 422 3 view .LVU396
 2065              		.loc 1 422 5 is_stmt 0 view .LVU397
ARM GAS  /tmp/ccvURch4.s 			page 38


 2066 0014 0023     		movs	r3, #0
 2067 0016 0293     		str	r3, [sp, #8]
 2068              		.loc 1 423 3 is_stmt 1 view .LVU398
 2069 0018 FFF7FEFF 		bl	test_wait_tick
 2070              	.LVL143:
 2071              		.loc 1 425 3 view .LVU399
 2072              	.LBB272:
 2073              	.LBI265:
 2074              		.loc 3 187 23 view .LVU400
 2075              	.LBB271:
 2076              		.loc 3 189 3 view .LVU401
 2077              	.LBB270:
 2078              	.LBI267:
 2079              		.loc 3 174 25 view .LVU402
 2080              	.LBB269:
 2081              		.loc 3 176 3 view .LVU403
 2082              	.LBE269:
 2083              	.LBE270:
 2084              		.loc 3 189 25 is_stmt 0 view .LVU404
 2085 001c BB69     		ldr	r3, [r7, #24]
 2086              	.LBE271:
 2087              	.LBE272:
 2088              		.loc 1 425 16 view .LVU405
 2089 001e 3068     		ldr	r0, [r6]
 2090 0020 9A68     		ldr	r2, [r3, #8]
 2091 0022 2C4B     		ldr	r3, .L118+16
 2092 0024 02AD     		add	r5, sp, #8
 2093 0026 013A     		subs	r2, r2, #1
 2094 0028 4FF4FC71 		mov	r1, #504
 2095 002c 0095     		str	r5, [sp]
 2096 002e FFF7FEFF 		bl	chThdCreateStatic
 2097              	.LVL144:
 2098              	.LBB273:
 2099              	.LBB274:
 2100              		.loc 3 189 25 view .LVU406
 2101 0032 BB69     		ldr	r3, [r7, #24]
 2102              	.LBE274:
 2103              	.LBE273:
 2104              		.loc 1 425 14 view .LVU407
 2105 0034 2060     		str	r0, [r4]
 2106              		.loc 1 426 3 is_stmt 1 view .LVU408
 2107              	.LBB278:
 2108              	.LBI273:
 2109              		.loc 3 187 23 view .LVU409
 2110              	.LBB277:
 2111              		.loc 3 189 3 view .LVU410
 2112              	.LBB275:
 2113              	.LBI275:
 2114              		.loc 3 174 25 view .LVU411
 2115              	.LBB276:
 2116              		.loc 3 176 3 view .LVU412
 2117              	.LBE276:
 2118              	.LBE275:
 2119              	.LBE277:
 2120              	.LBE278:
 2121              		.loc 1 426 16 is_stmt 0 view .LVU413
 2122 0036 9A68     		ldr	r2, [r3, #8]
ARM GAS  /tmp/ccvURch4.s 			page 39


 2123 0038 7068     		ldr	r0, [r6, #4]
 2124 003a 264B     		ldr	r3, .L118+16
 2125 003c 0095     		str	r5, [sp]
 2126 003e 013A     		subs	r2, r2, #1
 2127 0040 4FF4FC71 		mov	r1, #504
 2128 0044 FFF7FEFF 		bl	chThdCreateStatic
 2129              	.LVL145:
 2130              	.LBB279:
 2131              	.LBB280:
 2132              		.loc 3 189 25 view .LVU414
 2133 0048 BB69     		ldr	r3, [r7, #24]
 2134              	.LBE280:
 2135              	.LBE279:
 2136              		.loc 1 426 14 view .LVU415
 2137 004a 6060     		str	r0, [r4, #4]
 2138              		.loc 1 427 3 is_stmt 1 view .LVU416
 2139              	.LBB284:
 2140              	.LBI279:
 2141              		.loc 3 187 23 view .LVU417
 2142              	.LBB283:
 2143              		.loc 3 189 3 view .LVU418
 2144              	.LBB281:
 2145              	.LBI281:
 2146              		.loc 3 174 25 view .LVU419
 2147              	.LBB282:
 2148              		.loc 3 176 3 view .LVU420
 2149              	.LBE282:
 2150              	.LBE281:
 2151              	.LBE283:
 2152              	.LBE284:
 2153              		.loc 1 427 16 is_stmt 0 view .LVU421
 2154 004c 9A68     		ldr	r2, [r3, #8]
 2155 004e B068     		ldr	r0, [r6, #8]
 2156 0050 204B     		ldr	r3, .L118+16
 2157 0052 0095     		str	r5, [sp]
 2158 0054 013A     		subs	r2, r2, #1
 2159 0056 4FF4FC71 		mov	r1, #504
 2160 005a FFF7FEFF 		bl	chThdCreateStatic
 2161              	.LVL146:
 2162              	.LBB285:
 2163              	.LBB286:
 2164              		.loc 3 189 25 view .LVU422
 2165 005e BB69     		ldr	r3, [r7, #24]
 2166              	.LBE286:
 2167              	.LBE285:
 2168              		.loc 1 427 14 view .LVU423
 2169 0060 A060     		str	r0, [r4, #8]
 2170              		.loc 1 428 3 is_stmt 1 view .LVU424
 2171              	.LBB290:
 2172              	.LBI285:
 2173              		.loc 3 187 23 view .LVU425
 2174              	.LBB289:
 2175              		.loc 3 189 3 view .LVU426
 2176              	.LBB287:
 2177              	.LBI287:
 2178              		.loc 3 174 25 view .LVU427
 2179              	.LBB288:
ARM GAS  /tmp/ccvURch4.s 			page 40


 2180              		.loc 3 176 3 view .LVU428
 2181              	.LBE288:
 2182              	.LBE287:
 2183              	.LBE289:
 2184              	.LBE290:
 2185              		.loc 1 428 16 is_stmt 0 view .LVU429
 2186 0062 9A68     		ldr	r2, [r3, #8]
 2187 0064 F068     		ldr	r0, [r6, #12]
 2188 0066 1B4B     		ldr	r3, .L118+16
 2189 0068 0095     		str	r5, [sp]
 2190 006a 013A     		subs	r2, r2, #1
 2191 006c 4FF4FC71 		mov	r1, #504
 2192 0070 FFF7FEFF 		bl	chThdCreateStatic
 2193              	.LVL147:
 2194              	.LBB291:
 2195              	.LBB292:
 2196              		.loc 3 189 25 view .LVU430
 2197 0074 BB69     		ldr	r3, [r7, #24]
 2198              	.LBE292:
 2199              	.LBE291:
 2200              		.loc 1 428 14 view .LVU431
 2201 0076 E060     		str	r0, [r4, #12]
 2202              		.loc 1 429 3 is_stmt 1 view .LVU432
 2203              	.LBB296:
 2204              	.LBI291:
 2205              		.loc 3 187 23 view .LVU433
 2206              	.LBB295:
 2207              		.loc 3 189 3 view .LVU434
 2208              	.LBB293:
 2209              	.LBI293:
 2210              		.loc 3 174 25 view .LVU435
 2211              	.LBB294:
 2212              		.loc 3 176 3 view .LVU436
 2213              	.LBE294:
 2214              	.LBE293:
 2215              	.LBE295:
 2216              	.LBE296:
 2217              		.loc 1 429 16 is_stmt 0 view .LVU437
 2218 0078 9A68     		ldr	r2, [r3, #8]
 2219 007a 3069     		ldr	r0, [r6, #16]
 2220 007c 154B     		ldr	r3, .L118+16
 2221 007e 0095     		str	r5, [sp]
 2222 0080 013A     		subs	r2, r2, #1
 2223 0082 4FF4FC71 		mov	r1, #504
 2224 0086 FFF7FEFF 		bl	chThdCreateStatic
 2225              	.LVL148:
 2226 008a 0346     		mov	r3, r0
 2227              		.loc 1 431 3 view .LVU438
 2228 008c 4FF47A70 		mov	r0, #1000
 2229              		.loc 1 429 14 view .LVU439
 2230 0090 2361     		str	r3, [r4, #16]
 2231              		.loc 1 431 3 is_stmt 1 view .LVU440
 2232 0092 FFF7FEFF 		bl	chThdSleep
 2233              	.LVL149:
 2234              		.loc 1 432 3 view .LVU441
 2235 0096 FFF7FEFF 		bl	test_terminate_threads
 2236              	.LVL150:
ARM GAS  /tmp/ccvURch4.s 			page 41


 2237              		.loc 1 433 3 view .LVU442
 2238 009a FFF7FEFF 		bl	test_wait_threads
 2239              	.LVL151:
 2240              		.loc 1 435 3 view .LVU443
 2241 009e 0E48     		ldr	r0, .L118+20
 2242 00a0 FFF7FEFF 		bl	test_print
 2243              	.LVL152:
 2244              		.loc 1 436 3 view .LVU444
 2245 00a4 0298     		ldr	r0, [sp, #8]
 2246 00a6 FFF7FEFF 		bl	test_printn
 2247              	.LVL153:
 2248              		.loc 1 437 3 view .LVU445
 2249 00aa 0C48     		ldr	r0, .L118+24
 2250 00ac FFF7FEFF 		bl	test_println
 2251              	.LVL154:
 2252              		.loc 1 438 1 is_stmt 0 view .LVU446
 2253 00b0 044B     		ldr	r3, .L118
 2254 00b2 1A68     		ldr	r2, [r3]
 2255 00b4 039B     		ldr	r3, [sp, #12]
 2256 00b6 5A40     		eors	r2, r3, r2
 2257 00b8 01D1     		bne	.L117
 2258 00ba 05B0     		add	sp, sp, #20
 2259              		.cfi_remember_state
 2260              		.cfi_def_cfa_offset 20
 2261              		@ sp needed
 2262 00bc F0BD     		pop	{r4, r5, r6, r7, pc}
 2263              	.L117:
 2264              		.cfi_restore_state
 2265 00be FFF7FEFF 		bl	__stack_chk_fail
 2266              	.LVL155:
 2267              	.L119:
 2268 00c2 00BF     		.align	2
 2269              	.L118:
 2270 00c4 00000000 		.word	.LC30
 2271 00c8 00000000 		.word	ch
 2272 00cc 00000000 		.word	wa
 2273 00d0 00000000 		.word	threads
 2274 00d4 00000000 		.word	thread8
 2275 00d8 00000000 		.word	.LC14
 2276 00dc 0C000000 		.word	.LC19
 2277              		.cfi_endproc
 2278              	.LFE233:
 2279              		.size	bmk8_execute, .-bmk8_execute
 2280              		.section	.rodata.thread8.cst4,"aM",%progbits,4
 2281              		.align	2
 2282              	.LC31:
 2283 0000 00000000 		.word	__stack_chk_guard
 2284              		.section	.text.thread8,"ax",%progbits
 2285              		.align	1
 2286              		.p2align 4,,15
 2287              		.syntax unified
 2288              		.thumb
 2289              		.thumb_func
 2290              		.fpu fpv4-sp-d16
 2291              		.type	thread8, %function
 2292              	thread8:
 2293              	.LVL156:
ARM GAS  /tmp/ccvURch4.s 			page 42


 2294              	.LFB232:
 2295              		.loc 1 405 33 is_stmt 1 view -0
 2296              		.cfi_startproc
 2297              		@ args = 0, pretend = 0, frame = 8
 2298              		@ frame_needed = 0, uses_anonymous_args = 0
 2299              		.loc 1 405 33 is_stmt 0 view .LVU448
 2300 0000 30B5     		push	{r4, r5, lr}
 2301              		.cfi_def_cfa_offset 12
 2302              		.cfi_offset 4, -12
 2303              		.cfi_offset 5, -8
 2304              		.cfi_offset 14, -4
 2305 0002 104B     		ldr	r3, .L127
 2306 0004 104D     		ldr	r5, .L127+4
 2307 0006 83B0     		sub	sp, sp, #12
 2308              		.cfi_def_cfa_offset 24
 2309              		.loc 1 405 33 view .LVU449
 2310 0008 1B68     		ldr	r3, [r3]
 2311 000a 0193     		str	r3, [sp, #4]
 2312 000c 4FF00003 		mov	r3,#0
 2313 0010 0446     		mov	r4, r0
 2314              	.LVL157:
 2315              	.L121:
 2316              		.loc 1 407 3 is_stmt 1 discriminator 1 view .LVU450
 2317              		.loc 1 408 5 discriminator 1 view .LVU451
 2318 0012 FFF7FEFF 		bl	chThdYield
 2319              	.LVL158:
 2320              		.loc 1 409 5 discriminator 1 view .LVU452
 2321 0016 FFF7FEFF 		bl	chThdYield
 2322              	.LVL159:
 2323              		.loc 1 410 5 discriminator 1 view .LVU453
 2324 001a FFF7FEFF 		bl	chThdYield
 2325              	.LVL160:
 2326              		.loc 1 411 5 discriminator 1 view .LVU454
 2327 001e FFF7FEFF 		bl	chThdYield
 2328              	.LVL161:
 2329              		.loc 1 412 5 discriminator 1 view .LVU455
 2330              		.loc 1 412 22 is_stmt 0 discriminator 1 view .LVU456
 2331 0022 2368     		ldr	r3, [r4]
 2332 0024 0433     		adds	r3, r3, #4
 2333 0026 2360     		str	r3, [r4]
 2334              		.loc 1 416 10 is_stmt 1 discriminator 1 view .LVU457
 2335              	.LBB297:
 2336              	.LBI297:
 2337              		.loc 3 231 20 discriminator 1 view .LVU458
 2338              	.LBB298:
 2339              		.loc 3 233 3 discriminator 1 view .LVU459
 2340              	.LBB299:
 2341              	.LBI299:
 2342              		.loc 3 174 25 discriminator 1 view .LVU460
 2343              	.LBB300:
 2344              		.loc 3 176 3 discriminator 1 view .LVU461
 2345              	.LBE300:
 2346              	.LBE299:
 2347              		.loc 3 233 33 is_stmt 0 discriminator 1 view .LVU462
 2348 0028 AB69     		ldr	r3, [r5, #24]
 2349              	.LBE298:
 2350              	.LBE297:
ARM GAS  /tmp/ccvURch4.s 			page 43


 2351              		.loc 1 416 3 discriminator 1 view .LVU463
 2352 002a 93F82130 		ldrb	r3, [r3, #33]	@ zero_extendqisi2
 2353 002e 5B07     		lsls	r3, r3, #29
 2354 0030 EFD5     		bpl	.L121
 2355              		.loc 1 417 1 view .LVU464
 2356 0032 044B     		ldr	r3, .L127
 2357 0034 1A68     		ldr	r2, [r3]
 2358 0036 019B     		ldr	r3, [sp, #4]
 2359 0038 5A40     		eors	r2, r3, r2
 2360 003a 01D1     		bne	.L126
 2361 003c 03B0     		add	sp, sp, #12
 2362              		.cfi_remember_state
 2363              		.cfi_def_cfa_offset 12
 2364              		@ sp needed
 2365 003e 30BD     		pop	{r4, r5, pc}
 2366              	.LVL162:
 2367              	.L126:
 2368              		.cfi_restore_state
 2369              		.loc 1 417 1 view .LVU465
 2370 0040 FFF7FEFF 		bl	__stack_chk_fail
 2371              	.LVL163:
 2372              	.L128:
 2373              		.align	2
 2374              	.L127:
 2375 0044 00000000 		.word	.LC31
 2376 0048 00000000 		.word	ch
 2377              		.cfi_endproc
 2378              	.LFE232:
 2379              		.size	thread8, .-thread8
 2380              		.section	.rodata.bmk11_execute.str1.4,"aMS",%progbits,1
 2381              		.align	2
 2382              	.LC32:
 2383 0000 20776169 		.ascii	" wait+signal/S\000"
 2383      742B7369 
 2383      676E616C 
 2383      2F5300
 2384              		.section	.rodata.bmk11_execute.cst4,"aM",%progbits,4
 2385              		.align	2
 2386              	.LC33:
 2387 0000 00000000 		.word	__stack_chk_guard
 2388              		.section	.text.bmk11_execute,"ax",%progbits
 2389              		.align	1
 2390              		.p2align 4,,15
 2391              		.syntax unified
 2392              		.thumb
 2393              		.thumb_func
 2394              		.fpu fpv4-sp-d16
 2395              		.type	bmk11_execute, %function
 2396              	bmk11_execute:
 2397              	.LFB238:
 2398              		.loc 1 553 33 is_stmt 1 view -0
 2399              		.cfi_startproc
 2400              		@ args = 0, pretend = 0, frame = 8
 2401              		@ frame_needed = 0, uses_anonymous_args = 0
 2402 0000 70B5     		push	{r4, r5, r6, lr}
 2403              		.cfi_def_cfa_offset 16
 2404              		.cfi_offset 4, -16
ARM GAS  /tmp/ccvURch4.s 			page 44


 2405              		.cfi_offset 5, -12
 2406              		.cfi_offset 6, -8
 2407              		.cfi_offset 14, -4
 2408 0002 1F4B     		ldr	r3, .L137
 2409 0004 1F4E     		ldr	r6, .L137+4
 2410              		.loc 1 559 5 is_stmt 0 view .LVU467
 2411 0006 204C     		ldr	r4, .L137+8
 2412              		.loc 1 553 33 view .LVU468
 2413 0008 82B0     		sub	sp, sp, #8
 2414              		.cfi_def_cfa_offset 24
 2415              		.loc 1 553 33 view .LVU469
 2416 000a 1B68     		ldr	r3, [r3]
 2417 000c 0193     		str	r3, [sp, #4]
 2418 000e 4FF00003 		mov	r3,#0
 2419              		.loc 1 554 3 is_stmt 1 view .LVU470
 2420              	.LVL164:
 2421              		.loc 1 556 3 view .LVU471
 2422 0012 FFF7FEFF 		bl	test_wait_tick
 2423              	.LVL165:
 2424              		.loc 1 557 3 view .LVU472
 2425 0016 4FF47A70 		mov	r0, #1000
 2426 001a FFF7FEFF 		bl	test_start_timer
 2427              	.LVL166:
 2428              		.loc 1 554 12 is_stmt 0 view .LVU473
 2429 001e 0025     		movs	r5, #0
 2430              	.LVL167:
 2431              	.L130:
 2432              		.loc 1 558 3 is_stmt 1 discriminator 1 view .LVU474
 2433              		.loc 1 559 5 discriminator 1 view .LVU475
 2434 0020 2046     		mov	r0, r4
 2435 0022 FFF7FEFF 		bl	chSemWait
 2436              	.LVL168:
 2437              		.loc 1 560 5 discriminator 1 view .LVU476
 2438 0026 2046     		mov	r0, r4
 2439 0028 FFF7FEFF 		bl	chSemSignal
 2440              	.LVL169:
 2441              		.loc 1 561 5 discriminator 1 view .LVU477
 2442 002c 2046     		mov	r0, r4
 2443 002e FFF7FEFF 		bl	chSemWait
 2444              	.LVL170:
 2445              		.loc 1 562 5 discriminator 1 view .LVU478
 2446 0032 2046     		mov	r0, r4
 2447 0034 FFF7FEFF 		bl	chSemSignal
 2448              	.LVL171:
 2449              		.loc 1 563 5 discriminator 1 view .LVU479
 2450 0038 2046     		mov	r0, r4
 2451 003a FFF7FEFF 		bl	chSemWait
 2452              	.LVL172:
 2453              		.loc 1 564 5 discriminator 1 view .LVU480
 2454 003e 2046     		mov	r0, r4
 2455 0040 FFF7FEFF 		bl	chSemSignal
 2456              	.LVL173:
 2457              		.loc 1 565 5 discriminator 1 view .LVU481
 2458 0044 2046     		mov	r0, r4
 2459 0046 FFF7FEFF 		bl	chSemWait
 2460              	.LVL174:
 2461              		.loc 1 566 5 discriminator 1 view .LVU482
ARM GAS  /tmp/ccvURch4.s 			page 45


 2462 004a 2046     		mov	r0, r4
 2463 004c FFF7FEFF 		bl	chSemSignal
 2464              	.LVL175:
 2465              		.loc 1 567 5 discriminator 1 view .LVU483
 2466              		.loc 1 571 3 is_stmt 0 discriminator 1 view .LVU484
 2467 0050 3378     		ldrb	r3, [r6]	@ zero_extendqisi2
 2468              		.loc 1 567 6 discriminator 1 view .LVU485
 2469 0052 0135     		adds	r5, r5, #1
 2470              	.LVL176:
 2471              		.loc 1 571 11 is_stmt 1 discriminator 1 view .LVU486
 2472              		.loc 1 571 3 is_stmt 0 discriminator 1 view .LVU487
 2473 0054 002B     		cmp	r3, #0
 2474 0056 E3D0     		beq	.L130
 2475              		.loc 1 572 3 is_stmt 1 view .LVU488
 2476 0058 0C48     		ldr	r0, .L137+12
 2477 005a FFF7FEFF 		bl	test_print
 2478              	.LVL177:
 2479              		.loc 1 573 3 view .LVU489
 2480 005e A800     		lsls	r0, r5, #2
 2481 0060 FFF7FEFF 		bl	test_printn
 2482              	.LVL178:
 2483              		.loc 1 574 3 view .LVU490
 2484 0064 064B     		ldr	r3, .L137
 2485 0066 1A68     		ldr	r2, [r3]
 2486 0068 019B     		ldr	r3, [sp, #4]
 2487 006a 5A40     		eors	r2, r3, r2
 2488 006c 05D1     		bne	.L136
 2489 006e 0848     		ldr	r0, .L137+16
 2490              		.loc 1 575 1 is_stmt 0 view .LVU491
 2491 0070 02B0     		add	sp, sp, #8
 2492              		.cfi_remember_state
 2493              		.cfi_def_cfa_offset 16
 2494              		@ sp needed
 2495 0072 BDE87040 		pop	{r4, r5, r6, lr}
 2496              		.cfi_restore 14
 2497              		.cfi_restore 6
 2498              		.cfi_restore 5
 2499              		.cfi_restore 4
 2500              		.cfi_def_cfa_offset 0
 2501              	.LVL179:
 2502              		.loc 1 574 3 view .LVU492
 2503 0076 FFF7FEBF 		b	test_println
 2504              	.LVL180:
 2505              	.L136:
 2506              		.cfi_restore_state
 2507              		.loc 1 574 3 view .LVU493
 2508 007a FFF7FEFF 		bl	__stack_chk_fail
 2509              	.LVL181:
 2510              	.L138:
 2511 007e 00BF     		.align	2
 2512              	.L137:
 2513 0080 00000000 		.word	.LC33
 2514 0084 00000000 		.word	test_timer_done
 2515 0088 00000000 		.word	.LANCHOR0
 2516 008c 00000000 		.word	.LC14
 2517 0090 00000000 		.word	.LC32
 2518              		.cfi_endproc
ARM GAS  /tmp/ccvURch4.s 			page 46


 2519              	.LFE238:
 2520              		.size	bmk11_execute, .-bmk11_execute
 2521              		.section	.rodata.bmk12_execute.str1.4,"aMS",%progbits,1
 2522              		.align	2
 2523              	.LC34:
 2524 0000 206C6F63 		.ascii	" lock+unlock/S\000"
 2524      6B2B756E 
 2524      6C6F636B 
 2524      2F5300
 2525              		.section	.rodata.bmk12_execute.cst4,"aM",%progbits,4
 2526              		.align	2
 2527              	.LC35:
 2528 0000 00000000 		.word	__stack_chk_guard
 2529              		.section	.text.bmk12_execute,"ax",%progbits
 2530              		.align	1
 2531              		.p2align 4,,15
 2532              		.syntax unified
 2533              		.thumb
 2534              		.thumb_func
 2535              		.fpu fpv4-sp-d16
 2536              		.type	bmk12_execute, %function
 2537              	bmk12_execute:
 2538              	.LFB240:
 2539              		.loc 1 601 33 is_stmt 1 view -0
 2540              		.cfi_startproc
 2541              		@ args = 0, pretend = 0, frame = 8
 2542              		@ frame_needed = 0, uses_anonymous_args = 0
 2543 0000 70B5     		push	{r4, r5, r6, lr}
 2544              		.cfi_def_cfa_offset 16
 2545              		.cfi_offset 4, -16
 2546              		.cfi_offset 5, -12
 2547              		.cfi_offset 6, -8
 2548              		.cfi_offset 14, -4
 2549 0002 1F4B     		ldr	r3, .L147
 2550 0004 1F4E     		ldr	r6, .L147+4
 2551              		.loc 1 607 5 is_stmt 0 view .LVU495
 2552 0006 204C     		ldr	r4, .L147+8
 2553              		.loc 1 601 33 view .LVU496
 2554 0008 82B0     		sub	sp, sp, #8
 2555              		.cfi_def_cfa_offset 24
 2556              		.loc 1 601 33 view .LVU497
 2557 000a 1B68     		ldr	r3, [r3]
 2558 000c 0193     		str	r3, [sp, #4]
 2559 000e 4FF00003 		mov	r3,#0
 2560              		.loc 1 602 3 is_stmt 1 view .LVU498
 2561              	.LVL182:
 2562              		.loc 1 604 3 view .LVU499
 2563 0012 FFF7FEFF 		bl	test_wait_tick
 2564              	.LVL183:
 2565              		.loc 1 605 3 view .LVU500
 2566 0016 4FF47A70 		mov	r0, #1000
 2567 001a FFF7FEFF 		bl	test_start_timer
 2568              	.LVL184:
 2569              		.loc 1 602 12 is_stmt 0 view .LVU501
 2570 001e 0025     		movs	r5, #0
 2571              	.LVL185:
 2572              	.L140:
ARM GAS  /tmp/ccvURch4.s 			page 47


 2573              		.loc 1 606 3 is_stmt 1 discriminator 1 view .LVU502
 2574              		.loc 1 607 5 discriminator 1 view .LVU503
 2575 0020 2046     		mov	r0, r4
 2576 0022 FFF7FEFF 		bl	chMtxLock
 2577              	.LVL186:
 2578              		.loc 1 608 5 discriminator 1 view .LVU504
 2579 0026 2046     		mov	r0, r4
 2580 0028 FFF7FEFF 		bl	chMtxUnlock
 2581              	.LVL187:
 2582              		.loc 1 609 5 discriminator 1 view .LVU505
 2583 002c 2046     		mov	r0, r4
 2584 002e FFF7FEFF 		bl	chMtxLock
 2585              	.LVL188:
 2586              		.loc 1 610 5 discriminator 1 view .LVU506
 2587 0032 2046     		mov	r0, r4
 2588 0034 FFF7FEFF 		bl	chMtxUnlock
 2589              	.LVL189:
 2590              		.loc 1 611 5 discriminator 1 view .LVU507
 2591 0038 2046     		mov	r0, r4
 2592 003a FFF7FEFF 		bl	chMtxLock
 2593              	.LVL190:
 2594              		.loc 1 612 5 discriminator 1 view .LVU508
 2595 003e 2046     		mov	r0, r4
 2596 0040 FFF7FEFF 		bl	chMtxUnlock
 2597              	.LVL191:
 2598              		.loc 1 613 5 discriminator 1 view .LVU509
 2599 0044 2046     		mov	r0, r4
 2600 0046 FFF7FEFF 		bl	chMtxLock
 2601              	.LVL192:
 2602              		.loc 1 614 5 discriminator 1 view .LVU510
 2603 004a 2046     		mov	r0, r4
 2604 004c FFF7FEFF 		bl	chMtxUnlock
 2605              	.LVL193:
 2606              		.loc 1 615 5 discriminator 1 view .LVU511
 2607              		.loc 1 619 3 is_stmt 0 discriminator 1 view .LVU512
 2608 0050 3378     		ldrb	r3, [r6]	@ zero_extendqisi2
 2609              		.loc 1 615 6 discriminator 1 view .LVU513
 2610 0052 0135     		adds	r5, r5, #1
 2611              	.LVL194:
 2612              		.loc 1 619 11 is_stmt 1 discriminator 1 view .LVU514
 2613              		.loc 1 619 3 is_stmt 0 discriminator 1 view .LVU515
 2614 0054 002B     		cmp	r3, #0
 2615 0056 E3D0     		beq	.L140
 2616              		.loc 1 620 3 is_stmt 1 view .LVU516
 2617 0058 0C48     		ldr	r0, .L147+12
 2618 005a FFF7FEFF 		bl	test_print
 2619              	.LVL195:
 2620              		.loc 1 621 3 view .LVU517
 2621 005e A800     		lsls	r0, r5, #2
 2622 0060 FFF7FEFF 		bl	test_printn
 2623              	.LVL196:
 2624              		.loc 1 622 3 view .LVU518
 2625 0064 064B     		ldr	r3, .L147
 2626 0066 1A68     		ldr	r2, [r3]
 2627 0068 019B     		ldr	r3, [sp, #4]
 2628 006a 5A40     		eors	r2, r3, r2
 2629 006c 05D1     		bne	.L146
ARM GAS  /tmp/ccvURch4.s 			page 48


 2630 006e 0848     		ldr	r0, .L147+16
 2631              		.loc 1 623 1 is_stmt 0 view .LVU519
 2632 0070 02B0     		add	sp, sp, #8
 2633              		.cfi_remember_state
 2634              		.cfi_def_cfa_offset 16
 2635              		@ sp needed
 2636 0072 BDE87040 		pop	{r4, r5, r6, lr}
 2637              		.cfi_restore 14
 2638              		.cfi_restore 6
 2639              		.cfi_restore 5
 2640              		.cfi_restore 4
 2641              		.cfi_def_cfa_offset 0
 2642              	.LVL197:
 2643              		.loc 1 622 3 view .LVU520
 2644 0076 FFF7FEBF 		b	test_println
 2645              	.LVL198:
 2646              	.L146:
 2647              		.cfi_restore_state
 2648              		.loc 1 622 3 view .LVU521
 2649 007a FFF7FEFF 		bl	__stack_chk_fail
 2650              	.LVL199:
 2651              	.L148:
 2652 007e 00BF     		.align	2
 2653              	.L147:
 2654 0080 00000000 		.word	.LC35
 2655 0084 00000000 		.word	test_timer_done
 2656 0088 00000000 		.word	.LANCHOR1
 2657 008c 00000000 		.word	.LC14
 2658 0090 00000000 		.word	.LC34
 2659              		.cfi_endproc
 2660              	.LFE240:
 2661              		.size	bmk12_execute, .-bmk12_execute
 2662              		.section	.rodata.bmk12_setup.cst4,"aM",%progbits,4
 2663              		.align	2
 2664              	.LC36:
 2665 0000 00000000 		.word	__stack_chk_guard
 2666              		.section	.text.bmk12_setup,"ax",%progbits
 2667              		.align	1
 2668              		.p2align 4,,15
 2669              		.syntax unified
 2670              		.thumb
 2671              		.thumb_func
 2672              		.fpu fpv4-sp-d16
 2673              		.type	bmk12_setup, %function
 2674              	bmk12_setup:
 2675              	.LFB239:
 2676              		.loc 1 596 31 is_stmt 1 view -0
 2677              		.cfi_startproc
 2678              		@ args = 0, pretend = 0, frame = 8
 2679              		@ frame_needed = 0, uses_anonymous_args = 0
 2680 0000 00B5     		push	{lr}
 2681              		.cfi_def_cfa_offset 4
 2682              		.cfi_offset 14, -4
 2683 0002 094B     		ldr	r3, .L154
 2684 0004 83B0     		sub	sp, sp, #12
 2685              		.cfi_def_cfa_offset 16
 2686              		.loc 1 596 31 is_stmt 0 view .LVU523
ARM GAS  /tmp/ccvURch4.s 			page 49


 2687 0006 1B68     		ldr	r3, [r3]
 2688 0008 0193     		str	r3, [sp, #4]
 2689 000a 4FF00003 		mov	r3,#0
 2690              		.loc 1 598 3 is_stmt 1 view .LVU524
 2691 000e 064B     		ldr	r3, .L154
 2692 0010 1A68     		ldr	r2, [r3]
 2693 0012 019B     		ldr	r3, [sp, #4]
 2694 0014 5A40     		eors	r2, r3, r2
 2695 0016 05D1     		bne	.L153
 2696 0018 0448     		ldr	r0, .L154+4
 2697              		.loc 1 599 1 is_stmt 0 view .LVU525
 2698 001a 03B0     		add	sp, sp, #12
 2699              		.cfi_remember_state
 2700              		.cfi_def_cfa_offset 4
 2701              		@ sp needed
 2702 001c 5DF804EB 		ldr	lr, [sp], #4
 2703              		.cfi_restore 14
 2704              		.cfi_def_cfa_offset 0
 2705              		.loc 1 598 3 view .LVU526
 2706 0020 FFF7FEBF 		b	chMtxObjectInit
 2707              	.LVL200:
 2708              	.L153:
 2709              		.cfi_restore_state
 2710 0024 FFF7FEFF 		bl	__stack_chk_fail
 2711              	.LVL201:
 2712              	.L155:
 2713              		.align	2
 2714              	.L154:
 2715 0028 00000000 		.word	.LC36
 2716 002c 00000000 		.word	.LANCHOR1
 2717              		.cfi_endproc
 2718              	.LFE239:
 2719              		.size	bmk12_setup, .-bmk12_setup
 2720              		.section	.rodata.bmk10_execute.str1.4,"aMS",%progbits,1
 2721              		.align	2
 2722              	.LC37:
 2723 0000 2074696D 		.ascii	" timers/S\000"
 2723      6572732F 
 2723      5300
 2724              		.section	.rodata.bmk10_execute.cst4,"aM",%progbits,4
 2725              		.align	2
 2726              	.LC38:
 2727 0000 00000000 		.word	__stack_chk_guard
 2728              		.section	.text.bmk10_execute,"ax",%progbits
 2729              		.align	1
 2730              		.p2align 4,,15
 2731              		.syntax unified
 2732              		.thumb
 2733              		.thumb_func
 2734              		.fpu fpv4-sp-d16
 2735              		.type	bmk10_execute, %function
 2736              	bmk10_execute:
 2737              	.LFB236:
 2738              		.loc 1 507 33 is_stmt 1 view -0
 2739              		.cfi_startproc
 2740              		@ args = 0, pretend = 0, frame = 8
 2741              		@ frame_needed = 0, uses_anonymous_args = 0
ARM GAS  /tmp/ccvURch4.s 			page 50


 2742 0000 2DE9F04F 		push	{r4, r5, r6, r7, r8, r9, r10, fp, lr}
 2743              		.cfi_def_cfa_offset 36
 2744              		.cfi_offset 4, -36
 2745              		.cfi_offset 5, -32
 2746              		.cfi_offset 6, -28
 2747              		.cfi_offset 7, -24
 2748              		.cfi_offset 8, -20
 2749              		.cfi_offset 9, -16
 2750              		.cfi_offset 10, -12
 2751              		.cfi_offset 11, -8
 2752              		.cfi_offset 14, -4
 2753 0004 2F4B     		ldr	r3, .L166
 2754 0006 304C     		ldr	r4, .L166+4
 2755 0008 DFF8D4A0 		ldr	r10, .L166+28
 2756              		.loc 1 515 5 is_stmt 0 view .LVU528
 2757 000c DFF8D4B0 		ldr	fp, .L166+32
 2758 0010 2E4F     		ldr	r7, .L166+8
 2759              		.loc 1 516 5 view .LVU529
 2760 0012 2F4E     		ldr	r6, .L166+12
 2761              		.loc 1 507 33 view .LVU530
 2762 0014 83B0     		sub	sp, sp, #12
 2763              		.cfi_def_cfa_offset 48
 2764              		.loc 1 507 33 view .LVU531
 2765 0016 1B68     		ldr	r3, [r3]
 2766 0018 0193     		str	r3, [sp, #4]
 2767 001a 4FF00003 		mov	r3,#0
 2768              		.loc 1 508 3 is_stmt 1 view .LVU532
 2769              		.loc 1 509 3 view .LVU533
 2770              	.LVL202:
 2771              		.loc 1 511 3 view .LVU534
 2772              		.loc 1 509 12 is_stmt 0 view .LVU535
 2773 001e 0025     		movs	r5, #0
 2774              		.loc 1 511 3 view .LVU536
 2775 0020 FFF7FEFF 		bl	test_wait_tick
 2776              	.LVL203:
 2777              		.loc 1 512 3 is_stmt 1 view .LVU537
 2778 0024 4FF47A70 		mov	r0, #1000
 2779 0028 FFF7FEFF 		bl	test_start_timer
 2780              	.LVL204:
 2781              		.loc 1 515 5 is_stmt 0 view .LVU538
 2782 002c A946     		mov	r9, r5
 2783              	.LBB311:
 2784              	.LBB312:
 2785              	.LBB313:
 2786              	.LBB314:
 2787              	.LBB315:
 2788              		.file 4 ".//ChibiOS//os/ext/CMSIS/include/core_cmFunc.h"
 2789              		.loc 4 546 3 view .LVU539
 2790 002e 4FF02008 		mov	r8, #32
 2791 0032 05E0     		b	.L158
 2792              	.LVL205:
 2793              	.L157:
 2794              		.loc 4 546 3 view .LVU540
 2795              	.LBE315:
 2796              	.LBE314:
 2797              	.LBE313:
 2798              	.LBE312:
ARM GAS  /tmp/ccvURch4.s 			page 51


 2799              	.LBE311:
 2800              	.LBB322:
 2801              	.LBB323:
 2802              		.file 5 ".//ChibiOS//os/rt/include/chsys.h"
 2803              		.loc 5 367 3 is_stmt 1 view .LVU541
 2804              		.loc 5 371 3 view .LVU542
 2805              	.LBB324:
 2806              	.LBI324:
 2807              		.file 6 ".//ChibiOS//os/rt/ports/ARMCMx/chcore_v7m.h"
 2808              		.loc 6 458 20 view .LVU543
 2809              	.LBE324:
 2810              	.LBE323:
 2811              	.LBE322:
 2812              		.loc 6 461 3 view .LVU544
 2813              	.LBB335:
 2814              	.LBB332:
 2815              	.LBB329:
 2816              	.LBB325:
 2817              	.LBI325:
 2818              		.loc 4 544 57 view .LVU545
 2819              	.LBB326:
 2820              		.loc 4 546 3 view .LVU546
 2821              		.syntax unified
 2822              	@ 546 ".//ChibiOS//os/ext/CMSIS/include/core_cmFunc.h" 1
 2823 0034 89F31188 		MSR basepri, r9
 2824              	@ 0 "" 2
 2825              	.LVL206:
 2826              		.loc 4 546 3 is_stmt 0 view .LVU547
 2827              		.thumb
 2828              		.syntax unified
 2829              	.LBE326:
 2830              	.LBE325:
 2831              	.LBE329:
 2832              	.LBE332:
 2833              	.LBE335:
 2834              		.loc 1 520 5 is_stmt 1 view .LVU548
 2835              		.loc 1 524 3 is_stmt 0 view .LVU549
 2836 0038 9AF80030 		ldrb	r3, [r10]	@ zero_extendqisi2
 2837              		.loc 1 520 6 view .LVU550
 2838 003c 0135     		adds	r5, r5, #1
 2839              	.LVL207:
 2840              		.loc 1 524 11 is_stmt 1 view .LVU551
 2841              		.loc 1 524 3 is_stmt 0 view .LVU552
 2842 003e 73BB     		cbnz	r3, .L164
 2843              	.LVL208:
 2844              	.L158:
 2845              		.loc 1 513 3 is_stmt 1 discriminator 1 view .LVU553
 2846              		.loc 1 514 5 discriminator 1 view .LVU554
 2847              	.LBB336:
 2848              	.LBI311:
 2849              		.loc 5 346 20 discriminator 1 view .LVU555
 2850              	.LBB320:
 2851              		.loc 5 348 3 discriminator 1 view .LVU556
 2852              	.LBB318:
 2853              	.LBI313:
 2854              		.loc 6 444 20 discriminator 1 view .LVU557
 2855              	.LBE318:
ARM GAS  /tmp/ccvURch4.s 			page 52


 2856              	.LBE320:
 2857              	.LBE336:
 2858              		.loc 6 447 3 discriminator 1 view .LVU558
 2859              	.LBB337:
 2860              	.LBB321:
 2861              	.LBB319:
 2862              	.LBB317:
 2863              	.LBI314:
 2864              		.loc 4 544 57 discriminator 1 view .LVU559
 2865              	.LBB316:
 2866              		.loc 4 546 3 discriminator 1 view .LVU560
 2867              		.syntax unified
 2868              	@ 546 ".//ChibiOS//os/ext/CMSIS/include/core_cmFunc.h" 1
 2869 0040 88F31188 		MSR basepri, r8
 2870              	@ 0 "" 2
 2871              	.LVL209:
 2872              		.loc 4 546 3 is_stmt 0 discriminator 1 view .LVU561
 2873              		.thumb
 2874              		.syntax unified
 2875              	.LBE316:
 2876              	.LBE317:
 2877              	.LBE319:
 2878              		.loc 5 349 3 is_stmt 1 discriminator 1 view .LVU562
 2879 0044 FFF7FEFF 		bl	_stats_start_measure_crit_thd
 2880              	.LVL210:
 2881              		.loc 5 350 3 discriminator 1 view .LVU563
 2882 0048 FFF7FEFF 		bl	_dbg_check_lock
 2883              	.LVL211:
 2884              	.LBE321:
 2885              	.LBE337:
 2886              		.loc 1 515 5 discriminator 1 view .LVU564
 2887 004c 5A46     		mov	r2, fp
 2888 004e 3846     		mov	r0, r7
 2889 0050 0023     		movs	r3, #0
 2890 0052 0121     		movs	r1, #1
 2891 0054 FFF7FEFF 		bl	chVTDoSetI
 2892              	.LVL212:
 2893              		.loc 1 516 5 discriminator 1 view .LVU565
 2894 0058 0023     		movs	r3, #0
 2895 005a 5A46     		mov	r2, fp
 2896 005c 42F21071 		movw	r1, #10000
 2897 0060 3046     		mov	r0, r6
 2898 0062 FFF7FEFF 		bl	chVTDoSetI
 2899              	.LVL213:
 2900              		.loc 1 517 5 discriminator 1 view .LVU566
 2901 0066 3846     		mov	r0, r7
 2902 0068 FFF7FEFF 		bl	chVTDoResetI
 2903              	.LVL214:
 2904              		.loc 1 518 5 discriminator 1 view .LVU567
 2905 006c 3046     		mov	r0, r6
 2906 006e FFF7FEFF 		bl	chVTDoResetI
 2907              	.LVL215:
 2908              		.loc 1 519 5 discriminator 1 view .LVU568
 2909              	.LBB338:
 2910              	.LBI322:
 2911              		.loc 5 358 20 discriminator 1 view .LVU569
 2912              	.LBB333:
ARM GAS  /tmp/ccvURch4.s 			page 53


 2913              		.loc 5 360 3 discriminator 1 view .LVU570
 2914 0072 FFF7FEFF 		bl	_dbg_check_unlock
 2915              	.LVL216:
 2916              		.loc 5 361 3 discriminator 1 view .LVU571
 2917 0076 FFF7FEFF 		bl	_stats_stop_measure_crit_thd
 2918              	.LVL217:
 2919              		.loc 5 367 3 discriminator 1 view .LVU572
 2920              		.loc 5 367 3 discriminator 1 view .LVU573
 2921              		.loc 5 367 3 discriminator 1 view .LVU574
 2922 007a 2368     		ldr	r3, [r4]
 2923 007c A342     		cmp	r3, r4
 2924 007e D9D0     		beq	.L157
 2925              		.loc 5 367 3 is_stmt 0 view .LVU575
 2926 0080 A269     		ldr	r2, [r4, #24]
 2927 0082 9B68     		ldr	r3, [r3, #8]
 2928 0084 9268     		ldr	r2, [r2, #8]
 2929 0086 9A42     		cmp	r2, r3
 2930 0088 D4D2     		bcs	.L157
 2931              		.loc 5 367 3 is_stmt 1 view .LVU576
 2932 008a 1248     		ldr	r0, .L166+16
 2933 008c FFF7FEFF 		bl	chSysHalt
 2934              	.LVL218:
 2935              		.loc 5 367 3 view .LVU577
 2936              		.loc 5 371 3 view .LVU578
 2937              	.LBB330:
 2938              		.loc 6 458 20 view .LVU579
 2939              	.LBE330:
 2940              	.LBE333:
 2941              	.LBE338:
 2942              		.loc 6 461 3 view .LVU580
 2943              	.LBB339:
 2944              	.LBB334:
 2945              	.LBB331:
 2946              	.LBB328:
 2947              		.loc 4 544 57 view .LVU581
 2948              	.LBB327:
 2949              		.loc 4 546 3 view .LVU582
 2950              		.syntax unified
 2951              	@ 546 ".//ChibiOS//os/ext/CMSIS/include/core_cmFunc.h" 1
 2952 0090 89F31188 		MSR basepri, r9
 2953              	@ 0 "" 2
 2954              	.LVL219:
 2955              		.loc 4 546 3 is_stmt 0 view .LVU583
 2956              		.thumb
 2957              		.syntax unified
 2958              	.LBE327:
 2959              	.LBE328:
 2960              	.LBE331:
 2961              	.LBE334:
 2962              	.LBE339:
 2963              		.loc 1 520 5 is_stmt 1 view .LVU584
 2964              		.loc 1 524 3 is_stmt 0 view .LVU585
 2965 0094 9AF80030 		ldrb	r3, [r10]	@ zero_extendqisi2
 2966              		.loc 1 520 6 view .LVU586
 2967 0098 0135     		adds	r5, r5, #1
 2968              	.LVL220:
 2969              		.loc 1 524 11 is_stmt 1 view .LVU587
ARM GAS  /tmp/ccvURch4.s 			page 54


 2970              		.loc 1 524 3 is_stmt 0 view .LVU588
 2971 009a 002B     		cmp	r3, #0
 2972 009c D0D0     		beq	.L158
 2973              	.L164:
 2974              		.loc 1 525 3 is_stmt 1 view .LVU589
 2975 009e 0E48     		ldr	r0, .L166+20
 2976 00a0 FFF7FEFF 		bl	test_print
 2977              	.LVL221:
 2978              		.loc 1 526 3 view .LVU590
 2979 00a4 6800     		lsls	r0, r5, #1
 2980 00a6 FFF7FEFF 		bl	test_printn
 2981              	.LVL222:
 2982              		.loc 1 527 3 view .LVU591
 2983 00aa 064B     		ldr	r3, .L166
 2984 00ac 1A68     		ldr	r2, [r3]
 2985 00ae 019B     		ldr	r3, [sp, #4]
 2986 00b0 5A40     		eors	r2, r3, r2
 2987 00b2 05D1     		bne	.L165
 2988              		.loc 1 527 3 is_stmt 0 view .LVU592
 2989 00b4 0948     		ldr	r0, .L166+24
 2990              		.loc 1 528 1 view .LVU593
 2991 00b6 03B0     		add	sp, sp, #12
 2992              		.cfi_remember_state
 2993              		.cfi_def_cfa_offset 36
 2994              		@ sp needed
 2995 00b8 BDE8F04F 		pop	{r4, r5, r6, r7, r8, r9, r10, fp, lr}
 2996              		.cfi_restore 14
 2997              		.cfi_restore 11
 2998              		.cfi_restore 10
 2999              		.cfi_restore 9
 3000              		.cfi_restore 8
 3001              		.cfi_restore 7
 3002              		.cfi_restore 6
 3003              		.cfi_restore 5
 3004              		.cfi_restore 4
 3005              		.cfi_def_cfa_offset 0
 3006              	.LVL223:
 3007              		.loc 1 527 3 view .LVU594
 3008 00bc FFF7FEBF 		b	test_println
 3009              	.LVL224:
 3010              	.L165:
 3011              		.cfi_restore_state
 3012              		.loc 1 527 3 view .LVU595
 3013 00c0 FFF7FEFF 		bl	__stack_chk_fail
 3014              	.LVL225:
 3015              	.L167:
 3016              		.align	2
 3017              	.L166:
 3018 00c4 00000000 		.word	.LC38
 3019 00c8 00000000 		.word	ch
 3020 00cc 00000000 		.word	.LANCHOR2
 3021 00d0 00000000 		.word	.LANCHOR3
 3022 00d4 00000000 		.word	.LANCHOR4
 3023 00d8 00000000 		.word	.LC14
 3024 00dc 00000000 		.word	.LC37
 3025 00e0 00000000 		.word	test_timer_done
 3026 00e4 00000000 		.word	tmo
ARM GAS  /tmp/ccvURch4.s 			page 55


 3027              		.cfi_endproc
 3028              	.LFE236:
 3029              		.size	bmk10_execute, .-bmk10_execute
 3030              		.section	.rodata.bmk9_execute.str1.4,"aMS",%progbits,1
 3031              		.align	2
 3032              	.LC39:
 3033 0000 20627974 		.ascii	" bytes/S\000"
 3033      65732F53 
 3033      00
 3034              		.section	.rodata.bmk9_execute.cst4,"aM",%progbits,4
 3035              		.align	2
 3036              	.LC40:
 3037 0000 00000000 		.word	__stack_chk_guard
 3038              		.section	.text.bmk9_execute,"ax",%progbits
 3039              		.align	1
 3040              		.p2align 4,,15
 3041              		.syntax unified
 3042              		.thumb
 3043              		.thumb_func
 3044              		.fpu fpv4-sp-d16
 3045              		.type	bmk9_execute, %function
 3046              	bmk9_execute:
 3047              	.LFB234:
 3048              		.loc 1 458 32 is_stmt 1 view -0
 3049              		.cfi_startproc
 3050              		@ args = 0, pretend = 0, frame = 8
 3051              		@ frame_needed = 0, uses_anonymous_args = 0
 3052 0000 2DE9F041 		push	{r4, r5, r6, r7, r8, lr}
 3053              		.cfi_def_cfa_offset 24
 3054              		.cfi_offset 4, -24
 3055              		.cfi_offset 5, -20
 3056              		.cfi_offset 6, -16
 3057              		.cfi_offset 7, -12
 3058              		.cfi_offset 8, -8
 3059              		.cfi_offset 14, -4
 3060 0004 84B0     		sub	sp, sp, #16
 3061              		.cfi_def_cfa_offset 40
 3062              		.loc 1 463 3 is_stmt 0 view .LVU597
 3063 0006 0026     		movs	r6, #0
 3064              		.loc 1 458 32 view .LVU598
 3065 0008 354C     		ldr	r4, .L178
 3066              		.loc 1 463 3 view .LVU599
 3067 000a 3649     		ldr	r1, .L178+4
 3068 000c 3648     		ldr	r0, .L178+8
 3069 000e 0096     		str	r6, [sp]
 3070 0010 3346     		mov	r3, r6
 3071 0012 1022     		movs	r2, #16
 3072              		.loc 1 458 32 view .LVU600
 3073 0014 2468     		ldr	r4, [r4]
 3074 0016 0394     		str	r4, [sp, #12]
 3075 0018 4FF00004 		mov	r4,#0
 3076              		.loc 1 459 3 is_stmt 1 view .LVU601
 3077              		.loc 1 460 3 view .LVU602
 3078              		.loc 1 461 3 view .LVU603
 3079              		.loc 1 463 3 view .LVU604
 3080 001c FFF7FEFF 		bl	chIQObjectInit
 3081              	.LVL226:
ARM GAS  /tmp/ccvURch4.s 			page 56


 3082              		.loc 1 464 3 view .LVU605
 3083              		.loc 1 465 3 view .LVU606
 3084 0020 FFF7FEFF 		bl	test_wait_tick
 3085              	.LVL227:
 3086              		.loc 1 466 3 view .LVU607
 3087 0024 4FF47A70 		mov	r0, #1000
 3088 0028 FFF7FEFF 		bl	test_start_timer
 3089              	.LVL228:
 3090 002c 2F4D     		ldr	r5, .L178+12
 3091 002e DFF8CC80 		ldr	r8, .L178+28
 3092              		.loc 1 469 5 is_stmt 0 view .LVU608
 3093 0032 2D4C     		ldr	r4, .L178+8
 3094 0034 3746     		mov	r7, r6
 3095 0036 19E0     		b	.L170
 3096              	.LVL229:
 3097              	.L169:
 3098              	.LBB358:
 3099              	.LBB359:
 3100              		.loc 5 367 3 is_stmt 1 view .LVU609
 3101              		.loc 5 371 3 view .LVU610
 3102              	.LBB360:
 3103              	.LBI360:
 3104              		.loc 6 458 20 view .LVU611
 3105              	.LBE360:
 3106              	.LBE359:
 3107              	.LBE358:
 3108              		.loc 6 461 3 view .LVU612
 3109              	.LBB366:
 3110              	.LBB364:
 3111              	.LBB363:
 3112              	.LBB361:
 3113              	.LBI361:
 3114              		.loc 4 544 57 view .LVU613
 3115              	.LBB362:
 3116              		.loc 4 546 3 view .LVU614
 3117              		.syntax unified
 3118              	@ 546 ".//ChibiOS//os/ext/CMSIS/include/core_cmFunc.h" 1
 3119 0038 87F31188 		MSR basepri, r7
 3120              	@ 0 "" 2
 3121              	.LVL230:
 3122              		.loc 4 546 3 is_stmt 0 view .LVU615
 3123              		.thumb
 3124              		.syntax unified
 3125              	.LBE362:
 3126              	.LBE361:
 3127              	.LBE363:
 3128              	.LBE364:
 3129              	.LBE366:
 3130              		.loc 1 474 5 is_stmt 1 view .LVU616
 3131              	.LBB367:
 3132              	.LBI367:
 3133              		.file 7 ".//ChibiOS//os/rt/include/chqueues.h"
 3134              		.loc 7 339 21 view .LVU617
 3135              	.LBB368:
 3136              		.loc 7 341 3 view .LVU618
 3137              		.loc 7 341 10 is_stmt 0 view .LVU619
 3138 003c 4FF0FF31 		mov	r1, #-1
ARM GAS  /tmp/ccvURch4.s 			page 57


 3139 0040 2046     		mov	r0, r4
 3140 0042 FFF7FEFF 		bl	chIQGetTimeout
 3141              	.LVL231:
 3142              		.loc 7 341 10 view .LVU620
 3143              	.LBE368:
 3144              	.LBE367:
 3145              		.loc 1 475 5 is_stmt 1 view .LVU621
 3146              	.LBB369:
 3147              	.LBI369:
 3148              		.loc 7 339 21 view .LVU622
 3149              	.LBB370:
 3150              		.loc 7 341 3 view .LVU623
 3151              		.loc 7 341 10 is_stmt 0 view .LVU624
 3152 0046 4FF0FF31 		mov	r1, #-1
 3153 004a 2046     		mov	r0, r4
 3154 004c FFF7FEFF 		bl	chIQGetTimeout
 3155              	.LVL232:
 3156              		.loc 7 341 10 view .LVU625
 3157              	.LBE370:
 3158              	.LBE369:
 3159              		.loc 1 476 5 is_stmt 1 view .LVU626
 3160              	.LBB371:
 3161              	.LBI371:
 3162              		.loc 7 339 21 view .LVU627
 3163              	.LBB372:
 3164              		.loc 7 341 3 view .LVU628
 3165              		.loc 7 341 10 is_stmt 0 view .LVU629
 3166 0050 4FF0FF31 		mov	r1, #-1
 3167 0054 2046     		mov	r0, r4
 3168 0056 FFF7FEFF 		bl	chIQGetTimeout
 3169              	.LVL233:
 3170              		.loc 7 341 10 view .LVU630
 3171              	.LBE372:
 3172              	.LBE371:
 3173              		.loc 1 477 5 is_stmt 1 view .LVU631
 3174              	.LBB373:
 3175              	.LBI373:
 3176              		.loc 7 339 21 view .LVU632
 3177              	.LBB374:
 3178              		.loc 7 341 3 view .LVU633
 3179              		.loc 7 341 10 is_stmt 0 view .LVU634
 3180 005a 2046     		mov	r0, r4
 3181 005c 4FF0FF31 		mov	r1, #-1
 3182 0060 FFF7FEFF 		bl	chIQGetTimeout
 3183              	.LVL234:
 3184              		.loc 7 341 10 view .LVU635
 3185              	.LBE374:
 3186              	.LBE373:
 3187              		.loc 1 478 5 is_stmt 1 view .LVU636
 3188              		.loc 1 482 3 is_stmt 0 view .LVU637
 3189 0064 98F80030 		ldrb	r3, [r8]	@ zero_extendqisi2
 3190              		.loc 1 478 6 view .LVU638
 3191 0068 0136     		adds	r6, r6, #1
 3192              	.LVL235:
 3193              		.loc 1 482 11 is_stmt 1 view .LVU639
 3194              		.loc 1 482 3 is_stmt 0 view .LVU640
 3195 006a 33BB     		cbnz	r3, .L176
ARM GAS  /tmp/ccvURch4.s 			page 58


 3196              	.LVL236:
 3197              	.L170:
 3198              		.loc 1 467 3 is_stmt 1 discriminator 1 view .LVU641
 3199              		.loc 1 468 5 discriminator 1 view .LVU642
 3200              	.LBB375:
 3201              	.LBI375:
 3202              		.loc 5 346 20 discriminator 1 view .LVU643
 3203              	.LBB376:
 3204              		.loc 5 348 3 discriminator 1 view .LVU644
 3205              	.LBB377:
 3206              	.LBI377:
 3207              		.loc 6 444 20 discriminator 1 view .LVU645
 3208              	.LBE377:
 3209              	.LBE376:
 3210              	.LBE375:
 3211              		.loc 6 447 3 discriminator 1 view .LVU646
 3212              	.LBB382:
 3213              	.LBB381:
 3214              	.LBB380:
 3215              	.LBB378:
 3216              	.LBI378:
 3217              		.loc 4 544 57 discriminator 1 view .LVU647
 3218              	.LBB379:
 3219              		.loc 4 546 3 discriminator 1 view .LVU648
 3220 006c 2023     		movs	r3, #32
 3221              		.syntax unified
 3222              	@ 546 ".//ChibiOS//os/ext/CMSIS/include/core_cmFunc.h" 1
 3223 006e 83F31188 		MSR basepri, r3
 3224              	@ 0 "" 2
 3225              	.LVL237:
 3226              		.loc 4 546 3 is_stmt 0 discriminator 1 view .LVU649
 3227              		.thumb
 3228              		.syntax unified
 3229              	.LBE379:
 3230              	.LBE378:
 3231              	.LBE380:
 3232              		.loc 5 349 3 is_stmt 1 discriminator 1 view .LVU650
 3233 0072 FFF7FEFF 		bl	_stats_start_measure_crit_thd
 3234              	.LVL238:
 3235              		.loc 5 350 3 discriminator 1 view .LVU651
 3236 0076 FFF7FEFF 		bl	_dbg_check_lock
 3237              	.LVL239:
 3238              	.LBE381:
 3239              	.LBE382:
 3240              		.loc 1 469 5 discriminator 1 view .LVU652
 3241 007a 0021     		movs	r1, #0
 3242 007c 2046     		mov	r0, r4
 3243 007e FFF7FEFF 		bl	chIQPutI
 3244              	.LVL240:
 3245              		.loc 1 470 5 discriminator 1 view .LVU653
 3246 0082 0121     		movs	r1, #1
 3247 0084 2046     		mov	r0, r4
 3248 0086 FFF7FEFF 		bl	chIQPutI
 3249              	.LVL241:
 3250              		.loc 1 471 5 discriminator 1 view .LVU654
 3251 008a 0221     		movs	r1, #2
 3252 008c 2046     		mov	r0, r4
ARM GAS  /tmp/ccvURch4.s 			page 59


 3253 008e FFF7FEFF 		bl	chIQPutI
 3254              	.LVL242:
 3255              		.loc 1 472 5 discriminator 1 view .LVU655
 3256 0092 0321     		movs	r1, #3
 3257 0094 2046     		mov	r0, r4
 3258 0096 FFF7FEFF 		bl	chIQPutI
 3259              	.LVL243:
 3260              		.loc 1 473 5 discriminator 1 view .LVU656
 3261              	.LBB383:
 3262              	.LBI358:
 3263              		.loc 5 358 20 discriminator 1 view .LVU657
 3264              	.LBB365:
 3265              		.loc 5 360 3 discriminator 1 view .LVU658
 3266 009a FFF7FEFF 		bl	_dbg_check_unlock
 3267              	.LVL244:
 3268              		.loc 5 361 3 discriminator 1 view .LVU659
 3269 009e FFF7FEFF 		bl	_stats_stop_measure_crit_thd
 3270              	.LVL245:
 3271              		.loc 5 367 3 discriminator 1 view .LVU660
 3272              		.loc 5 367 3 discriminator 1 view .LVU661
 3273              		.loc 5 367 3 discriminator 1 view .LVU662
 3274 00a2 2B68     		ldr	r3, [r5]
 3275 00a4 AB42     		cmp	r3, r5
 3276 00a6 C7D0     		beq	.L169
 3277              		.loc 5 367 3 is_stmt 0 view .LVU663
 3278 00a8 AA69     		ldr	r2, [r5, #24]
 3279 00aa 9B68     		ldr	r3, [r3, #8]
 3280 00ac 9268     		ldr	r2, [r2, #8]
 3281 00ae 9A42     		cmp	r2, r3
 3282 00b0 C2D2     		bcs	.L169
 3283              		.loc 5 367 3 is_stmt 1 view .LVU664
 3284 00b2 0F48     		ldr	r0, .L178+16
 3285 00b4 FFF7FEFF 		bl	chSysHalt
 3286              	.LVL246:
 3287 00b8 BEE7     		b	.L169
 3288              	.L176:
 3289              		.loc 5 367 3 is_stmt 0 view .LVU665
 3290              	.LBE365:
 3291              	.LBE383:
 3292              		.loc 1 483 3 is_stmt 1 view .LVU666
 3293 00ba 0E48     		ldr	r0, .L178+20
 3294 00bc FFF7FEFF 		bl	test_print
 3295              	.LVL247:
 3296              		.loc 1 484 3 view .LVU667
 3297 00c0 B000     		lsls	r0, r6, #2
 3298 00c2 FFF7FEFF 		bl	test_printn
 3299              	.LVL248:
 3300              		.loc 1 485 3 view .LVU668
 3301 00c6 064B     		ldr	r3, .L178
 3302 00c8 1A68     		ldr	r2, [r3]
 3303 00ca 039B     		ldr	r3, [sp, #12]
 3304 00cc 5A40     		eors	r2, r3, r2
 3305 00ce 05D1     		bne	.L177
 3306 00d0 0948     		ldr	r0, .L178+24
 3307              		.loc 1 486 1 is_stmt 0 view .LVU669
 3308 00d2 04B0     		add	sp, sp, #16
 3309              		.cfi_remember_state
ARM GAS  /tmp/ccvURch4.s 			page 60


 3310              		.cfi_def_cfa_offset 24
 3311              		@ sp needed
 3312 00d4 BDE8F041 		pop	{r4, r5, r6, r7, r8, lr}
 3313              		.cfi_restore 14
 3314              		.cfi_restore 8
 3315              		.cfi_restore 7
 3316              		.cfi_restore 6
 3317              		.cfi_restore 5
 3318              		.cfi_restore 4
 3319              		.cfi_def_cfa_offset 0
 3320              	.LVL249:
 3321              		.loc 1 485 3 view .LVU670
 3322 00d8 FFF7FEBF 		b	test_println
 3323              	.LVL250:
 3324              	.L177:
 3325              		.cfi_restore_state
 3326              		.loc 1 485 3 view .LVU671
 3327 00dc FFF7FEFF 		bl	__stack_chk_fail
 3328              	.LVL251:
 3329              	.L179:
 3330              		.align	2
 3331              	.L178:
 3332 00e0 00000000 		.word	.LC40
 3333 00e4 00000000 		.word	.LANCHOR5
 3334 00e8 00000000 		.word	.LANCHOR6
 3335 00ec 00000000 		.word	ch
 3336 00f0 00000000 		.word	.LANCHOR4
 3337 00f4 00000000 		.word	.LC14
 3338 00f8 00000000 		.word	.LC39
 3339 00fc 00000000 		.word	test_timer_done
 3340              		.cfi_endproc
 3341              	.LFE234:
 3342              		.size	bmk9_execute, .-bmk9_execute
 3343              		.section	.rodata.bmk4_execute.cst4,"aM",%progbits,4
 3344              		.align	2
 3345              	.LC41:
 3346 0000 00000000 		.word	__stack_chk_guard
 3347              		.section	.text.bmk4_execute,"ax",%progbits
 3348              		.align	1
 3349              		.p2align 4,,15
 3350              		.syntax unified
 3351              		.thumb
 3352              		.thumb_func
 3353              		.fpu fpv4-sp-d16
 3354              		.type	bmk4_execute, %function
 3355              	bmk4_execute:
 3356              	.LFB226:
 3357              		.loc 1 219 32 is_stmt 1 view -0
 3358              		.cfi_startproc
 3359              		@ args = 0, pretend = 0, frame = 8
 3360              		@ frame_needed = 0, uses_anonymous_args = 0
 3361 0000 2DE9F047 		push	{r4, r5, r6, r7, r8, r9, r10, lr}
 3362              		.cfi_def_cfa_offset 32
 3363              		.cfi_offset 4, -32
 3364              		.cfi_offset 5, -28
 3365              		.cfi_offset 6, -24
 3366              		.cfi_offset 7, -20
ARM GAS  /tmp/ccvURch4.s 			page 61


 3367              		.cfi_offset 8, -16
 3368              		.cfi_offset 9, -12
 3369              		.cfi_offset 10, -8
 3370              		.cfi_offset 14, -4
 3371              	.LBB408:
 3372              	.LBB409:
 3373              	.LBB410:
 3374              	.LBB411:
 3375              		.loc 3 176 18 is_stmt 0 view .LVU673
 3376 0004 444D     		ldr	r5, .L192
 3377              	.LBE411:
 3378              	.LBE410:
 3379              	.LBE409:
 3380              	.LBE408:
 3381              		.loc 1 223 21 view .LVU674
 3382 0006 454A     		ldr	r2, .L192+4
 3383              	.LBB416:
 3384              	.LBB414:
 3385              		.loc 3 189 25 view .LVU675
 3386 0008 AB69     		ldr	r3, [r5, #24]
 3387              	.LBE414:
 3388              	.LBE416:
 3389              		.loc 1 223 21 view .LVU676
 3390 000a 1068     		ldr	r0, [r2]
 3391              		.loc 1 219 32 view .LVU677
 3392 000c 4449     		ldr	r1, .L192+8
 3393              		.loc 1 223 21 view .LVU678
 3394 000e 9A68     		ldr	r2, [r3, #8]
 3395 0010 444B     		ldr	r3, .L192+12
 3396 0012 DFF82491 		ldr	r9, .L192+32
 3397              	.LBB417:
 3398              	.LBB418:
 3399              		.loc 5 367 3 view .LVU679
 3400 0016 DFF81CA1 		ldr	r10, .L192+28
 3401              	.LBE418:
 3402              	.LBE417:
 3403              		.loc 1 219 32 view .LVU680
 3404 001a 84B0     		sub	sp, sp, #16
 3405              		.cfi_def_cfa_offset 48
 3406              		.loc 1 223 21 view .LVU681
 3407 001c 0026     		movs	r6, #0
 3408              		.loc 1 219 32 view .LVU682
 3409 001e 0968     		ldr	r1, [r1]
 3410 0020 0391     		str	r1, [sp, #12]
 3411 0022 4FF00001 		mov	r1,#0
 3412              		.loc 1 220 3 is_stmt 1 view .LVU683
 3413              		.loc 1 221 3 view .LVU684
 3414              		.loc 1 223 3 view .LVU685
 3415              	.LBB431:
 3416              	.LBI408:
 3417              		.loc 3 187 23 view .LVU686
 3418              	.LBB415:
 3419              		.loc 3 189 3 view .LVU687
 3420              	.LBB413:
 3421              	.LBI410:
 3422              		.loc 3 174 25 view .LVU688
 3423              	.LBB412:
ARM GAS  /tmp/ccvURch4.s 			page 62


 3424              		.loc 3 176 3 view .LVU689
 3425              	.LBE412:
 3426              	.LBE413:
 3427              	.LBE415:
 3428              	.LBE431:
 3429              		.loc 1 223 21 is_stmt 0 view .LVU690
 3430 0026 0132     		adds	r2, r2, #1
 3431 0028 4FF4FC71 		mov	r1, #504
 3432 002c 0096     		str	r6, [sp]
 3433 002e FFF7FEFF 		bl	chThdCreateStatic
 3434              	.LVL252:
 3435              		.loc 1 223 19 view .LVU691
 3436 0032 3D4B     		ldr	r3, .L192+16
 3437              		.loc 1 223 21 view .LVU692
 3438 0034 0446     		mov	r4, r0
 3439              		.loc 1 223 19 view .LVU693
 3440 0036 1860     		str	r0, [r3]
 3441              	.LVL253:
 3442              		.loc 1 225 3 is_stmt 1 view .LVU694
 3443              		.loc 1 226 3 view .LVU695
 3444 0038 FFF7FEFF 		bl	test_wait_tick
 3445              	.LVL254:
 3446              		.loc 1 227 3 view .LVU696
 3447 003c 4FF47A70 		mov	r0, #1000
 3448 0040 FFF7FEFF 		bl	test_start_timer
 3449              	.LVL255:
 3450              		.loc 1 230 5 is_stmt 0 view .LVU697
 3451 0044 B046     		mov	r8, r6
 3452              	.LBB432:
 3453              	.LBB433:
 3454              	.LBB434:
 3455              	.LBB435:
 3456              	.LBB436:
 3457              		.loc 4 546 3 view .LVU698
 3458 0046 2027     		movs	r7, #32
 3459 0048 05E0     		b	.L182
 3460              	.LVL256:
 3461              	.L181:
 3462              		.loc 4 546 3 view .LVU699
 3463              	.LBE436:
 3464              	.LBE435:
 3465              	.LBE434:
 3466              	.LBE433:
 3467              	.LBE432:
 3468              	.LBB443:
 3469              	.LBB427:
 3470              		.loc 5 367 3 is_stmt 1 view .LVU700
 3471              		.loc 5 371 3 view .LVU701
 3472              	.LBB419:
 3473              	.LBI419:
 3474              		.loc 6 458 20 view .LVU702
 3475              	.LBE419:
 3476              	.LBE427:
 3477              	.LBE443:
 3478              		.loc 6 461 3 view .LVU703
 3479              	.LBB444:
 3480              	.LBB428:
ARM GAS  /tmp/ccvURch4.s 			page 63


 3481              	.LBB424:
 3482              	.LBB420:
 3483              	.LBI420:
 3484              		.loc 4 544 57 view .LVU704
 3485              	.LBB421:
 3486              		.loc 4 546 3 view .LVU705
 3487              		.syntax unified
 3488              	@ 546 ".//ChibiOS//os/ext/CMSIS/include/core_cmFunc.h" 1
 3489 004a 88F31188 		MSR basepri, r8
 3490              	@ 0 "" 2
 3491              	.LVL257:
 3492              		.loc 4 546 3 is_stmt 0 view .LVU706
 3493              		.thumb
 3494              		.syntax unified
 3495              	.LBE421:
 3496              	.LBE420:
 3497              	.LBE424:
 3498              	.LBE428:
 3499              	.LBE444:
 3500              		.loc 1 235 5 is_stmt 1 view .LVU707
 3501              		.loc 1 239 3 is_stmt 0 view .LVU708
 3502 004e 99F80030 		ldrb	r3, [r9]	@ zero_extendqisi2
 3503              		.loc 1 235 7 view .LVU709
 3504 0052 0436     		adds	r6, r6, #4
 3505              	.LVL258:
 3506              		.loc 1 239 11 is_stmt 1 view .LVU710
 3507              		.loc 1 239 3 is_stmt 0 view .LVU711
 3508 0054 5BBB     		cbnz	r3, .L189
 3509              	.LVL259:
 3510              	.L182:
 3511              		.loc 1 228 3 is_stmt 1 discriminator 1 view .LVU712
 3512              		.loc 1 229 5 discriminator 1 view .LVU713
 3513              	.LBB445:
 3514              	.LBI432:
 3515              		.loc 5 346 20 discriminator 1 view .LVU714
 3516              	.LBB441:
 3517              		.loc 5 348 3 discriminator 1 view .LVU715
 3518              	.LBB439:
 3519              	.LBI434:
 3520              		.loc 6 444 20 discriminator 1 view .LVU716
 3521              	.LBE439:
 3522              	.LBE441:
 3523              	.LBE445:
 3524              		.loc 6 447 3 discriminator 1 view .LVU717
 3525              	.LBB446:
 3526              	.LBB442:
 3527              	.LBB440:
 3528              	.LBB438:
 3529              	.LBI435:
 3530              		.loc 4 544 57 discriminator 1 view .LVU718
 3531              	.LBB437:
 3532              		.loc 4 546 3 discriminator 1 view .LVU719
 3533              		.syntax unified
 3534              	@ 546 ".//ChibiOS//os/ext/CMSIS/include/core_cmFunc.h" 1
 3535 0056 87F31188 		MSR basepri, r7
 3536              	@ 0 "" 2
 3537              	.LVL260:
ARM GAS  /tmp/ccvURch4.s 			page 64


 3538              		.loc 4 546 3 is_stmt 0 discriminator 1 view .LVU720
 3539              		.thumb
 3540              		.syntax unified
 3541              	.LBE437:
 3542              	.LBE438:
 3543              	.LBE440:
 3544              		.loc 5 349 3 is_stmt 1 discriminator 1 view .LVU721
 3545 005a FFF7FEFF 		bl	_stats_start_measure_crit_thd
 3546              	.LVL261:
 3547              		.loc 5 350 3 discriminator 1 view .LVU722
 3548 005e FFF7FEFF 		bl	_dbg_check_lock
 3549              	.LVL262:
 3550              	.LBE442:
 3551              	.LBE446:
 3552              		.loc 1 230 5 discriminator 1 view .LVU723
 3553 0062 2046     		mov	r0, r4
 3554 0064 0021     		movs	r1, #0
 3555 0066 FFF7FEFF 		bl	chSchWakeupS
 3556              	.LVL263:
 3557              		.loc 1 231 5 discriminator 1 view .LVU724
 3558 006a 2046     		mov	r0, r4
 3559 006c 0021     		movs	r1, #0
 3560 006e FFF7FEFF 		bl	chSchWakeupS
 3561              	.LVL264:
 3562              		.loc 1 232 5 discriminator 1 view .LVU725
 3563 0072 2046     		mov	r0, r4
 3564 0074 0021     		movs	r1, #0
 3565 0076 FFF7FEFF 		bl	chSchWakeupS
 3566              	.LVL265:
 3567              		.loc 1 233 5 discriminator 1 view .LVU726
 3568 007a 2046     		mov	r0, r4
 3569 007c 0021     		movs	r1, #0
 3570 007e FFF7FEFF 		bl	chSchWakeupS
 3571              	.LVL266:
 3572              		.loc 1 234 5 discriminator 1 view .LVU727
 3573              	.LBB447:
 3574              	.LBI417:
 3575              		.loc 5 358 20 discriminator 1 view .LVU728
 3576              	.LBB429:
 3577              		.loc 5 360 3 discriminator 1 view .LVU729
 3578 0082 FFF7FEFF 		bl	_dbg_check_unlock
 3579              	.LVL267:
 3580              		.loc 5 361 3 discriminator 1 view .LVU730
 3581 0086 FFF7FEFF 		bl	_stats_stop_measure_crit_thd
 3582              	.LVL268:
 3583              		.loc 5 367 3 discriminator 1 view .LVU731
 3584              		.loc 5 367 3 discriminator 1 view .LVU732
 3585              		.loc 5 367 3 discriminator 1 view .LVU733
 3586 008a 2B68     		ldr	r3, [r5]
 3587 008c AB42     		cmp	r3, r5
 3588 008e DCD0     		beq	.L181
 3589              		.loc 5 367 3 is_stmt 0 view .LVU734
 3590 0090 AA69     		ldr	r2, [r5, #24]
 3591 0092 9B68     		ldr	r3, [r3, #8]
 3592 0094 9268     		ldr	r2, [r2, #8]
 3593 0096 9A42     		cmp	r2, r3
 3594 0098 D7D2     		bcs	.L181
ARM GAS  /tmp/ccvURch4.s 			page 65


 3595              		.loc 5 367 3 is_stmt 1 view .LVU735
 3596 009a 5046     		mov	r0, r10
 3597 009c FFF7FEFF 		bl	chSysHalt
 3598              	.LVL269:
 3599              		.loc 5 367 3 view .LVU736
 3600              		.loc 5 371 3 view .LVU737
 3601              	.LBB425:
 3602              		.loc 6 458 20 view .LVU738
 3603              	.LBE425:
 3604              	.LBE429:
 3605              	.LBE447:
 3606              		.loc 6 461 3 view .LVU739
 3607              	.LBB448:
 3608              	.LBB430:
 3609              	.LBB426:
 3610              	.LBB423:
 3611              		.loc 4 544 57 view .LVU740
 3612              	.LBB422:
 3613              		.loc 4 546 3 view .LVU741
 3614              		.syntax unified
 3615              	@ 546 ".//ChibiOS//os/ext/CMSIS/include/core_cmFunc.h" 1
 3616 00a0 88F31188 		MSR basepri, r8
 3617              	@ 0 "" 2
 3618              	.LVL270:
 3619              		.loc 4 546 3 is_stmt 0 view .LVU742
 3620              		.thumb
 3621              		.syntax unified
 3622              	.LBE422:
 3623              	.LBE423:
 3624              	.LBE426:
 3625              	.LBE430:
 3626              	.LBE448:
 3627              		.loc 1 235 5 is_stmt 1 view .LVU743
 3628              		.loc 1 239 3 is_stmt 0 view .LVU744
 3629 00a4 99F80030 		ldrb	r3, [r9]	@ zero_extendqisi2
 3630              		.loc 1 235 7 view .LVU745
 3631 00a8 0436     		adds	r6, r6, #4
 3632              	.LVL271:
 3633              		.loc 1 239 11 is_stmt 1 view .LVU746
 3634              		.loc 1 239 3 is_stmt 0 view .LVU747
 3635 00aa 002B     		cmp	r3, #0
 3636 00ac D3D0     		beq	.L182
 3637              	.L189:
 3638              		.loc 1 240 3 is_stmt 1 view .LVU748
 3639              	.LBB449:
 3640              	.LBI449:
 3641              		.loc 5 346 20 view .LVU749
 3642              	.LBB450:
 3643              		.loc 5 348 3 view .LVU750
 3644              	.LBB451:
 3645              	.LBI451:
 3646              		.loc 6 444 20 view .LVU751
 3647              	.LBE451:
 3648              	.LBE450:
 3649              	.LBE449:
 3650              		.loc 6 447 3 view .LVU752
 3651              	.LVL272:
ARM GAS  /tmp/ccvURch4.s 			page 66


 3652              	.LBB456:
 3653              	.LBB455:
 3654              	.LBB454:
 3655              	.LBB452:
 3656              	.LBI452:
 3657              		.loc 4 544 57 view .LVU753
 3658              	.LBB453:
 3659              		.loc 4 546 3 view .LVU754
 3660 00ae 2023     		movs	r3, #32
 3661              		.syntax unified
 3662              	@ 546 ".//ChibiOS//os/ext/CMSIS/include/core_cmFunc.h" 1
 3663 00b0 83F31188 		MSR basepri, r3
 3664              	@ 0 "" 2
 3665              	.LVL273:
 3666              		.loc 4 546 3 is_stmt 0 view .LVU755
 3667              		.thumb
 3668              		.syntax unified
 3669              	.LBE453:
 3670              	.LBE452:
 3671              	.LBE454:
 3672              		.loc 5 349 3 is_stmt 1 view .LVU756
 3673 00b4 FFF7FEFF 		bl	_stats_start_measure_crit_thd
 3674              	.LVL274:
 3675              		.loc 5 350 3 view .LVU757
 3676 00b8 FFF7FEFF 		bl	_dbg_check_lock
 3677              	.LVL275:
 3678              	.LBE455:
 3679              	.LBE456:
 3680              		.loc 1 241 3 view .LVU758
 3681 00bc 2046     		mov	r0, r4
 3682 00be 4FF0FF31 		mov	r1, #-1
 3683 00c2 FFF7FEFF 		bl	chSchWakeupS
 3684              	.LVL276:
 3685              		.loc 1 242 3 view .LVU759
 3686              	.LBB457:
 3687              	.LBI457:
 3688              		.loc 5 358 20 view .LVU760
 3689              	.LBB458:
 3690              		.loc 5 360 3 view .LVU761
 3691 00c6 FFF7FEFF 		bl	_dbg_check_unlock
 3692              	.LVL277:
 3693              		.loc 5 361 3 view .LVU762
 3694 00ca FFF7FEFF 		bl	_stats_stop_measure_crit_thd
 3695              	.LVL278:
 3696              		.loc 5 367 3 view .LVU763
 3697              		.loc 5 367 3 view .LVU764
 3698              		.loc 5 367 3 view .LVU765
 3699 00ce 2B68     		ldr	r3, [r5]
 3700 00d0 AB42     		cmp	r3, r5
 3701 00d2 04D0     		beq	.L183
 3702 00d4 AA69     		ldr	r2, [r5, #24]
 3703 00d6 9B68     		ldr	r3, [r3, #8]
 3704 00d8 9268     		ldr	r2, [r2, #8]
 3705 00da 9A42     		cmp	r2, r3
 3706 00dc 15D3     		bcc	.L190
 3707              	.L183:
 3708              		.loc 5 367 3 view .LVU766
ARM GAS  /tmp/ccvURch4.s 			page 67


 3709              		.loc 5 371 3 view .LVU767
 3710              	.LBB459:
 3711              	.LBI459:
 3712              		.loc 6 458 20 view .LVU768
 3713              	.LBE459:
 3714              	.LBE458:
 3715              	.LBE457:
 3716              		.loc 6 461 3 view .LVU769
 3717              	.LVL279:
 3718              	.LBB465:
 3719              	.LBB463:
 3720              	.LBB462:
 3721              	.LBB460:
 3722              	.LBI460:
 3723              		.loc 4 544 57 view .LVU770
 3724              	.LBB461:
 3725              		.loc 4 546 3 view .LVU771
 3726 00de 0023     		movs	r3, #0
 3727              		.syntax unified
 3728              	@ 546 ".//ChibiOS//os/ext/CMSIS/include/core_cmFunc.h" 1
 3729 00e0 83F31188 		MSR basepri, r3
 3730              	@ 0 "" 2
 3731              	.LVL280:
 3732              		.loc 4 546 3 is_stmt 0 view .LVU772
 3733              		.thumb
 3734              		.syntax unified
 3735              	.LBE461:
 3736              	.LBE460:
 3737              	.LBE462:
 3738              	.LBE463:
 3739              	.LBE465:
 3740              		.loc 1 244 3 is_stmt 1 view .LVU773
 3741 00e4 FFF7FEFF 		bl	test_wait_threads
 3742              	.LVL281:
 3743              		.loc 1 245 3 view .LVU774
 3744 00e8 1048     		ldr	r0, .L192+20
 3745 00ea FFF7FEFF 		bl	test_print
 3746              	.LVL282:
 3747              		.loc 1 246 3 view .LVU775
 3748 00ee 7000     		lsls	r0, r6, #1
 3749 00f0 FFF7FEFF 		bl	test_printn
 3750              	.LVL283:
 3751              		.loc 1 247 3 view .LVU776
 3752 00f4 0A4B     		ldr	r3, .L192+8
 3753 00f6 1A68     		ldr	r2, [r3]
 3754 00f8 039B     		ldr	r3, [sp, #12]
 3755 00fa 5A40     		eors	r2, r3, r2
 3756 00fc 09D1     		bne	.L191
 3757              		.loc 1 247 3 is_stmt 0 view .LVU777
 3758 00fe 0C48     		ldr	r0, .L192+24
 3759              		.loc 1 248 1 view .LVU778
 3760 0100 04B0     		add	sp, sp, #16
 3761              		.cfi_remember_state
 3762              		.cfi_def_cfa_offset 32
 3763              		@ sp needed
 3764 0102 BDE8F047 		pop	{r4, r5, r6, r7, r8, r9, r10, lr}
 3765              		.cfi_restore 14
ARM GAS  /tmp/ccvURch4.s 			page 68


 3766              		.cfi_restore 10
 3767              		.cfi_restore 9
 3768              		.cfi_restore 8
 3769              		.cfi_restore 7
 3770              		.cfi_restore 6
 3771              		.cfi_restore 5
 3772              		.cfi_restore 4
 3773              		.cfi_def_cfa_offset 0
 3774              	.LVL284:
 3775              		.loc 1 247 3 view .LVU779
 3776 0106 FFF7FEBF 		b	test_println
 3777              	.LVL285:
 3778              	.L190:
 3779              		.cfi_restore_state
 3780              	.LBB466:
 3781              	.LBB464:
 3782              		.loc 5 367 3 is_stmt 1 view .LVU780
 3783 010a 0A48     		ldr	r0, .L192+28
 3784 010c FFF7FEFF 		bl	chSysHalt
 3785              	.LVL286:
 3786 0110 E5E7     		b	.L183
 3787              	.L191:
 3788              		.loc 5 367 3 is_stmt 0 view .LVU781
 3789              	.LBE464:
 3790              	.LBE466:
 3791              		.loc 1 247 3 view .LVU782
 3792 0112 FFF7FEFF 		bl	__stack_chk_fail
 3793              	.LVL287:
 3794              	.L193:
 3795 0116 00BF     		.align	2
 3796              	.L192:
 3797 0118 00000000 		.word	ch
 3798 011c 00000000 		.word	wa
 3799 0120 00000000 		.word	.LC41
 3800 0124 00000000 		.word	thread4
 3801 0128 00000000 		.word	threads
 3802 012c 00000000 		.word	.LC14
 3803 0130 0C000000 		.word	.LC19
 3804 0134 00000000 		.word	.LANCHOR4
 3805 0138 00000000 		.word	test_timer_done
 3806              		.cfi_endproc
 3807              	.LFE226:
 3808              		.size	bmk4_execute, .-bmk4_execute
 3809              		.section	.rodata.thread4.cst4,"aM",%progbits,4
 3810              		.align	2
 3811              	.LC42:
 3812 0000 00000000 		.word	__stack_chk_guard
 3813              		.section	.text.thread4,"ax",%progbits
 3814              		.align	1
 3815              		.p2align 4,,15
 3816              		.syntax unified
 3817              		.thumb
 3818              		.thumb_func
 3819              		.fpu fpv4-sp-d16
 3820              		.type	thread4, %function
 3821              	thread4:
 3822              	.LVL288:
ARM GAS  /tmp/ccvURch4.s 			page 69


 3823              	.LFB225:
 3824              		.loc 1 206 33 is_stmt 1 view -0
 3825              		.cfi_startproc
 3826              		@ args = 0, pretend = 0, frame = 8
 3827              		@ frame_needed = 0, uses_anonymous_args = 0
 3828              		.loc 1 206 33 is_stmt 0 view .LVU784
 3829 0000 30B5     		push	{r4, r5, lr}
 3830              		.cfi_def_cfa_offset 12
 3831              		.cfi_offset 4, -12
 3832              		.cfi_offset 5, -8
 3833              		.cfi_offset 14, -4
 3834 0002 184B     		ldr	r3, .L203
 3835              	.LBB479:
 3836              	.LBB480:
 3837              		.loc 3 176 18 view .LVU785
 3838 0004 184D     		ldr	r5, .L203+4
 3839              	.LBE480:
 3840              	.LBE479:
 3841              		.loc 1 206 33 view .LVU786
 3842 0006 83B0     		sub	sp, sp, #12
 3843              		.cfi_def_cfa_offset 24
 3844              		.loc 1 206 33 view .LVU787
 3845 0008 1B68     		ldr	r3, [r3]
 3846 000a 0193     		str	r3, [sp, #4]
 3847 000c 4FF00003 		mov	r3,#0
 3848              		.loc 1 207 3 is_stmt 1 view .LVU788
 3849              		.loc 1 208 3 view .LVU789
 3850              	.LBB482:
 3851              	.LBI479:
 3852              		.loc 3 174 25 view .LVU790
 3853              	.LBB481:
 3854              		.loc 3 176 3 view .LVU791
 3855              		.loc 3 176 18 is_stmt 0 view .LVU792
 3856 0010 AC69     		ldr	r4, [r5, #24]
 3857              	.LVL289:
 3858              		.loc 3 176 18 view .LVU793
 3859              	.LBE481:
 3860              	.LBE482:
 3861              		.loc 1 210 3 is_stmt 1 view .LVU794
 3862              		.loc 1 211 3 view .LVU795
 3863              	.LBB483:
 3864              	.LBI483:
 3865              		.loc 5 346 20 view .LVU796
 3866              	.LBB484:
 3867              		.loc 5 348 3 view .LVU797
 3868              	.LBB485:
 3869              	.LBI485:
 3870              		.loc 6 444 20 view .LVU798
 3871              	.LBE485:
 3872              	.LBE484:
 3873              	.LBE483:
 3874              		.loc 6 447 3 view .LVU799
 3875              	.LBB490:
 3876              	.LBB489:
 3877              	.LBB488:
 3878              	.LBB486:
 3879              	.LBI486:
ARM GAS  /tmp/ccvURch4.s 			page 70


 3880              		.loc 4 544 57 view .LVU800
 3881              	.LBB487:
 3882              		.loc 4 546 3 view .LVU801
 3883 0012 2023     		movs	r3, #32
 3884              		.syntax unified
 3885              	@ 546 ".//ChibiOS//os/ext/CMSIS/include/core_cmFunc.h" 1
 3886 0014 83F31188 		MSR basepri, r3
 3887              	@ 0 "" 2
 3888              	.LVL290:
 3889              		.loc 4 546 3 is_stmt 0 view .LVU802
 3890              		.thumb
 3891              		.syntax unified
 3892              	.LBE487:
 3893              	.LBE486:
 3894              	.LBE488:
 3895              		.loc 5 349 3 is_stmt 1 view .LVU803
 3896 0018 FFF7FEFF 		bl	_stats_start_measure_crit_thd
 3897              	.LVL291:
 3898              		.loc 5 350 3 view .LVU804
 3899 001c FFF7FEFF 		bl	_dbg_check_lock
 3900              	.LVL292:
 3901              	.L195:
 3902              	.LBE489:
 3903              	.LBE490:
 3904              		.loc 1 212 3 discriminator 1 view .LVU805
 3905              		.loc 1 213 5 discriminator 1 view .LVU806
 3906 0020 0320     		movs	r0, #3
 3907 0022 FFF7FEFF 		bl	chSchGoSleepS
 3908              	.LVL293:
 3909              		.loc 1 214 5 discriminator 1 view .LVU807
 3910              		.loc 1 215 11 discriminator 1 view .LVU808
 3911              		.loc 1 215 3 is_stmt 0 discriminator 1 view .LVU809
 3912 0026 A36A     		ldr	r3, [r4, #40]
 3913 0028 002B     		cmp	r3, #0
 3914 002a F9D0     		beq	.L195
 3915              		.loc 1 216 3 is_stmt 1 view .LVU810
 3916              	.LBB491:
 3917              	.LBI491:
 3918              		.loc 5 358 20 view .LVU811
 3919              	.LBB492:
 3920              		.loc 5 360 3 view .LVU812
 3921 002c FFF7FEFF 		bl	_dbg_check_unlock
 3922              	.LVL294:
 3923              		.loc 5 361 3 view .LVU813
 3924 0030 FFF7FEFF 		bl	_stats_stop_measure_crit_thd
 3925              	.LVL295:
 3926              		.loc 5 367 3 view .LVU814
 3927              		.loc 5 367 3 view .LVU815
 3928              		.loc 5 367 3 view .LVU816
 3929 0034 2B68     		ldr	r3, [r5]
 3930 0036 AB42     		cmp	r3, r5
 3931 0038 04D0     		beq	.L196
 3932 003a AA69     		ldr	r2, [r5, #24]
 3933 003c 9B68     		ldr	r3, [r3, #8]
 3934 003e 9268     		ldr	r2, [r2, #8]
 3935 0040 9A42     		cmp	r2, r3
 3936 0042 09D3     		bcc	.L201
ARM GAS  /tmp/ccvURch4.s 			page 71


 3937              	.L196:
 3938              		.loc 5 367 3 view .LVU817
 3939              		.loc 5 371 3 view .LVU818
 3940              	.LBB493:
 3941              	.LBI493:
 3942              		.loc 6 458 20 view .LVU819
 3943              	.LBE493:
 3944              	.LBE492:
 3945              	.LBE491:
 3946              		.loc 6 461 3 view .LVU820
 3947              	.LVL296:
 3948              	.LBB499:
 3949              	.LBB497:
 3950              	.LBB496:
 3951              	.LBB494:
 3952              	.LBI494:
 3953              		.loc 4 544 57 view .LVU821
 3954              	.LBB495:
 3955              		.loc 4 546 3 view .LVU822
 3956 0044 0023     		movs	r3, #0
 3957              		.syntax unified
 3958              	@ 546 ".//ChibiOS//os/ext/CMSIS/include/core_cmFunc.h" 1
 3959 0046 83F31188 		MSR basepri, r3
 3960              	@ 0 "" 2
 3961              	.LVL297:
 3962              		.loc 4 546 3 is_stmt 0 view .LVU823
 3963              		.thumb
 3964              		.syntax unified
 3965              	.LBE495:
 3966              	.LBE494:
 3967              	.LBE496:
 3968              	.LBE497:
 3969              	.LBE499:
 3970              		.loc 1 217 1 view .LVU824
 3971 004a 064B     		ldr	r3, .L203
 3972 004c 1A68     		ldr	r2, [r3]
 3973 004e 019B     		ldr	r3, [sp, #4]
 3974 0050 5A40     		eors	r2, r3, r2
 3975 0052 05D1     		bne	.L202
 3976 0054 03B0     		add	sp, sp, #12
 3977              		.cfi_remember_state
 3978              		.cfi_def_cfa_offset 12
 3979              		@ sp needed
 3980 0056 30BD     		pop	{r4, r5, pc}
 3981              	.LVL298:
 3982              	.L201:
 3983              		.cfi_restore_state
 3984              	.LBB500:
 3985              	.LBB498:
 3986              		.loc 5 367 3 is_stmt 1 view .LVU825
 3987 0058 0448     		ldr	r0, .L203+8
 3988 005a FFF7FEFF 		bl	chSysHalt
 3989              	.LVL299:
 3990 005e F1E7     		b	.L196
 3991              	.L202:
 3992              	.LBE498:
 3993              	.LBE500:
ARM GAS  /tmp/ccvURch4.s 			page 72


 3994              		.loc 1 217 1 is_stmt 0 view .LVU826
 3995 0060 FFF7FEFF 		bl	__stack_chk_fail
 3996              	.LVL300:
 3997              	.L204:
 3998              		.align	2
 3999              	.L203:
 4000 0064 00000000 		.word	.LC42
 4001 0068 00000000 		.word	ch
 4002 006c 00000000 		.word	.LANCHOR4
 4003              		.cfi_endproc
 4004              	.LFE225:
 4005              		.size	thread4, .-thread4
 4006              		.global	patternbmk
 4007              		.global	testbmk13
 4008              		.section	.rodata.str1.4,"aMS",%progbits,1
 4009              		.align	2
 4010              	.LC43:
 4011 0000 42656E63 		.ascii	"Benchmark, RAM footprint\000"
 4011      686D6172 
 4011      6B2C2052 
 4011      414D2066 
 4011      6F6F7470 
 4012              		.global	testbmk12
 4013 0019 000000   		.align	2
 4014              	.LC44:
 4015 001c 42656E63 		.ascii	"Benchmark, mutexes lock/unlock\000"
 4015      686D6172 
 4015      6B2C206D 
 4015      75746578 
 4015      6573206C 
 4016              		.global	testbmk11
 4017 003b 00       		.align	2
 4018              	.LC45:
 4019 003c 42656E63 		.ascii	"Benchmark, semaphores wait/signal\000"
 4019      686D6172 
 4019      6B2C2073 
 4019      656D6170 
 4019      686F7265 
 4020              		.global	testbmk10
 4021 005e 0000     		.align	2
 4022              	.LC46:
 4023 0060 42656E63 		.ascii	"Benchmark, virtual timers set/reset\000"
 4023      686D6172 
 4023      6B2C2076 
 4023      69727475 
 4023      616C2074 
 4024              		.global	testbmk9
 4025              		.align	2
 4026              	.LC47:
 4027 0084 42656E63 		.ascii	"Benchmark, I/O Queues throughput\000"
 4027      686D6172 
 4027      6B2C2049 
 4027      2F4F2051 
 4027      75657565 
 4028              		.global	testbmk8
 4029 00a5 000000   		.align	2
 4030              	.LC48:
ARM GAS  /tmp/ccvURch4.s 			page 73


 4031 00a8 42656E63 		.ascii	"Benchmark, round robin context switching\000"
 4031      686D6172 
 4031      6B2C2072 
 4031      6F756E64 
 4031      20726F62 
 4032              		.global	testbmk7
 4033 00d1 000000   		.align	2
 4034              	.LC49:
 4035 00d4 42656E63 		.ascii	"Benchmark, mass reschedule, 5 threads\000"
 4035      686D6172 
 4035      6B2C206D 
 4035      61737320 
 4035      72657363 
 4036              		.global	testbmk6
 4037 00fa 0000     		.align	2
 4038              	.LC50:
 4039 00fc 42656E63 		.ascii	"Benchmark, threads, create only\000"
 4039      686D6172 
 4039      6B2C2074 
 4039      68726561 
 4039      64732C20 
 4040              		.global	testbmk5
 4041              		.align	2
 4042              	.LC51:
 4043 011c 42656E63 		.ascii	"Benchmark, threads, full cycle\000"
 4043      686D6172 
 4043      6B2C2074 
 4043      68726561 
 4043      64732C20 
 4044              		.global	testbmk4
 4045 013b 00       		.align	2
 4046              	.LC52:
 4047 013c 42656E63 		.ascii	"Benchmark, context switch\000"
 4047      686D6172 
 4047      6B2C2063 
 4047      6F6E7465 
 4047      78742073 
 4048              		.global	testbmk3
 4049 0156 0000     		.align	2
 4050              	.LC53:
 4051 0158 42656E63 		.ascii	"Benchmark, messages #3\000"
 4051      686D6172 
 4051      6B2C206D 
 4051      65737361 
 4051      67657320 
 4052              		.global	testbmk2
 4053 016f 00       		.align	2
 4054              	.LC54:
 4055 0170 42656E63 		.ascii	"Benchmark, messages #2\000"
 4055      686D6172 
 4055      6B2C206D 
 4055      65737361 
 4055      67657320 
 4056              		.global	testbmk1
 4057 0187 00       		.align	2
 4058              	.LC55:
 4059 0188 42656E63 		.ascii	"Benchmark, messages #1\000"
ARM GAS  /tmp/ccvURch4.s 			page 74


 4059      686D6172 
 4059      6B2C206D 
 4059      65737361 
 4059      67657320 
 4060              		.section	.bss.ib.8104,"aw",%nobits
 4061              		.align	2
 4062              		.set	.LANCHOR5,. + 0
 4063              		.type	ib.8104, %object
 4064              		.size	ib.8104, 16
 4065              	ib.8104:
 4066 0000 00000000 		.space	16
 4066      00000000 
 4066      00000000 
 4066      00000000 
 4067              		.section	.bss.iq.8105,"aw",%nobits
 4068              		.align	2
 4069              		.set	.LANCHOR6,. + 0
 4070              		.type	iq.8105, %object
 4071              		.size	iq.8105, 36
 4072              	iq.8105:
 4073 0000 00000000 		.space	36
 4073      00000000 
 4073      00000000 
 4073      00000000 
 4073      00000000 
 4074              		.section	.bss.mtx1,"aw",%nobits
 4075              		.align	2
 4076              		.set	.LANCHOR1,. + 0
 4077              		.type	mtx1, %object
 4078              		.size	mtx1, 20
 4079              	mtx1:
 4080 0000 00000000 		.space	20
 4080      00000000 
 4080      00000000 
 4080      00000000 
 4080      00000000 
 4081              		.section	.bss.sem1,"aw",%nobits
 4082              		.align	2
 4083              		.set	.LANCHOR0,. + 0
 4084              		.type	sem1, %object
 4085              		.size	sem1, 12
 4086              	sem1:
 4087 0000 00000000 		.space	12
 4087      00000000 
 4087      00000000 
 4088              		.section	.bss.vt1.8115,"aw",%nobits
 4089              		.align	2
 4090              		.set	.LANCHOR2,. + 0
 4091              		.type	vt1.8115, %object
 4092              		.size	vt1.8115, 20
 4093              	vt1.8115:
 4094 0000 00000000 		.space	20
 4094      00000000 
 4094      00000000 
 4094      00000000 
 4094      00000000 
 4095              		.section	.bss.vt2.8116,"aw",%nobits
ARM GAS  /tmp/ccvURch4.s 			page 75


 4096              		.align	2
 4097              		.set	.LANCHOR3,. + 0
 4098              		.type	vt2.8116, %object
 4099              		.size	vt2.8116, 20
 4100              	vt2.8116:
 4101 0000 00000000 		.space	20
 4101      00000000 
 4101      00000000 
 4101      00000000 
 4101      00000000 
 4102              		.section	.rodata.__func__.7261,"a"
 4103              		.align	2
 4104              		.set	.LANCHOR4,. + 0
 4105              		.type	__func__.7261, %object
 4106              		.size	__func__.7261, 12
 4107              	__func__.7261:
 4108 0000 63685379 		.ascii	"chSysUnlock\000"
 4108      73556E6C 
 4108      6F636B00 
 4109              		.section	.rodata.patternbmk,"a"
 4110              		.align	2
 4111              		.type	patternbmk, %object
 4112              		.size	patternbmk, 56
 4113              	patternbmk:
 4114 0000 00000000 		.word	testbmk1
 4115 0004 00000000 		.word	testbmk2
 4116 0008 00000000 		.word	testbmk3
 4117 000c 00000000 		.word	testbmk4
 4118 0010 00000000 		.word	testbmk5
 4119 0014 00000000 		.word	testbmk6
 4120 0018 00000000 		.word	testbmk7
 4121 001c 00000000 		.word	testbmk8
 4122 0020 00000000 		.word	testbmk9
 4123 0024 00000000 		.word	testbmk10
 4124 0028 00000000 		.word	testbmk11
 4125 002c 00000000 		.word	testbmk12
 4126 0030 00000000 		.word	testbmk13
 4127 0034 00000000 		.word	0
 4128              		.section	.rodata.testbmk1,"a"
 4129              		.align	2
 4130              		.type	testbmk1, %object
 4131              		.size	testbmk1, 16
 4132              	testbmk1:
 4133 0000 88010000 		.word	.LC55
 4134 0004 00000000 		.word	0
 4135 0008 00000000 		.word	0
 4136 000c 00000000 		.word	bmk1_execute
 4137              		.section	.rodata.testbmk10,"a"
 4138              		.align	2
 4139              		.type	testbmk10, %object
 4140              		.size	testbmk10, 16
 4141              	testbmk10:
 4142 0000 60000000 		.word	.LC46
 4143 0004 00000000 		.word	0
 4144 0008 00000000 		.word	0
 4145 000c 00000000 		.word	bmk10_execute
 4146              		.section	.rodata.testbmk11,"a"
ARM GAS  /tmp/ccvURch4.s 			page 76


 4147              		.align	2
 4148              		.type	testbmk11, %object
 4149              		.size	testbmk11, 16
 4150              	testbmk11:
 4151 0000 3C000000 		.word	.LC45
 4152 0004 00000000 		.word	bmk11_setup
 4153 0008 00000000 		.word	0
 4154 000c 00000000 		.word	bmk11_execute
 4155              		.section	.rodata.testbmk12,"a"
 4156              		.align	2
 4157              		.type	testbmk12, %object
 4158              		.size	testbmk12, 16
 4159              	testbmk12:
 4160 0000 1C000000 		.word	.LC44
 4161 0004 00000000 		.word	bmk12_setup
 4162 0008 00000000 		.word	0
 4163 000c 00000000 		.word	bmk12_execute
 4164              		.section	.rodata.testbmk13,"a"
 4165              		.align	2
 4166              		.type	testbmk13, %object
 4167              		.size	testbmk13, 16
 4168              	testbmk13:
 4169 0000 00000000 		.word	.LC43
 4170 0004 00000000 		.word	0
 4171 0008 00000000 		.word	0
 4172 000c 00000000 		.word	bmk13_execute
 4173              		.section	.rodata.testbmk2,"a"
 4174              		.align	2
 4175              		.type	testbmk2, %object
 4176              		.size	testbmk2, 16
 4177              	testbmk2:
 4178 0000 70010000 		.word	.LC54
 4179 0004 00000000 		.word	0
 4180 0008 00000000 		.word	0
 4181 000c 00000000 		.word	bmk2_execute
 4182              		.section	.rodata.testbmk3,"a"
 4183              		.align	2
 4184              		.type	testbmk3, %object
 4185              		.size	testbmk3, 16
 4186              	testbmk3:
 4187 0000 58010000 		.word	.LC53
 4188 0004 00000000 		.word	0
 4189 0008 00000000 		.word	0
 4190 000c 00000000 		.word	bmk3_execute
 4191              		.section	.rodata.testbmk4,"a"
 4192              		.align	2
 4193              		.type	testbmk4, %object
 4194              		.size	testbmk4, 16
 4195              	testbmk4:
 4196 0000 3C010000 		.word	.LC52
 4197 0004 00000000 		.word	0
 4198 0008 00000000 		.word	0
 4199 000c 00000000 		.word	bmk4_execute
 4200              		.section	.rodata.testbmk5,"a"
 4201              		.align	2
 4202              		.type	testbmk5, %object
 4203              		.size	testbmk5, 16
ARM GAS  /tmp/ccvURch4.s 			page 77


 4204              	testbmk5:
 4205 0000 1C010000 		.word	.LC51
 4206 0004 00000000 		.word	0
 4207 0008 00000000 		.word	0
 4208 000c 00000000 		.word	bmk5_execute
 4209              		.section	.rodata.testbmk6,"a"
 4210              		.align	2
 4211              		.type	testbmk6, %object
 4212              		.size	testbmk6, 16
 4213              	testbmk6:
 4214 0000 FC000000 		.word	.LC50
 4215 0004 00000000 		.word	0
 4216 0008 00000000 		.word	0
 4217 000c 00000000 		.word	bmk6_execute
 4218              		.section	.rodata.testbmk7,"a"
 4219              		.align	2
 4220              		.type	testbmk7, %object
 4221              		.size	testbmk7, 16
 4222              	testbmk7:
 4223 0000 D4000000 		.word	.LC49
 4224 0004 00000000 		.word	bmk7_setup
 4225 0008 00000000 		.word	0
 4226 000c 00000000 		.word	bmk7_execute
 4227              		.section	.rodata.testbmk8,"a"
 4228              		.align	2
 4229              		.type	testbmk8, %object
 4230              		.size	testbmk8, 16
 4231              	testbmk8:
 4232 0000 A8000000 		.word	.LC48
 4233 0004 00000000 		.word	0
 4234 0008 00000000 		.word	0
 4235 000c 00000000 		.word	bmk8_execute
 4236              		.section	.rodata.testbmk9,"a"
 4237              		.align	2
 4238              		.type	testbmk9, %object
 4239              		.size	testbmk9, 16
 4240              	testbmk9:
 4241 0000 84000000 		.word	.LC47
 4242 0004 00000000 		.word	0
 4243 0008 00000000 		.word	0
 4244 000c 00000000 		.word	bmk9_execute
 4245              		.text
 4246              	.Letext0:
 4247              		.file 8 "/usr/lib/gcc/arm-none-eabi/9.2.1/include/stddef.h"
 4248              		.file 9 "/usr/lib/gcc/arm-none-eabi/9.2.1/include/stdint.h"
 4249              		.file 10 ".//ChibiOS//os/rt/ports/ARMCMx/compilers/GCC/chtypes.h"
 4250              		.file 11 ".//ChibiOS//os/rt/include/chsystypes.h"
 4251              		.file 12 ".//ChibiOS//os/rt/include/chschd.h"
 4252              		.file 13 ".//ChibiOS//os/ext/CMSIS/include/core_cm4.h"
 4253              		.file 14 ".//ChibiOS//os/ext/CMSIS/ST/system_stm32f4xx.h"
 4254              		.file 15 ".//ChibiOS//os/rt/ports/ARMCMx/chcore.h"
 4255              		.file 16 ".//ChibiOS//os/rt/include/chdebug.h"
 4256              		.file 17 ".//ChibiOS//os/rt/include/chtm.h"
 4257              		.file 18 ".//ChibiOS//os/rt/include/chstats.h"
 4258              		.file 19 ".//ChibiOS//os/rt/include/chsem.h"
 4259              		.file 20 ".//ChibiOS//os/rt/include/chmtx.h"
 4260              		.file 21 ".//ChibiOS//os/rt/include/chregistry.h"
ARM GAS  /tmp/ccvURch4.s 			page 78


 4261              		.file 22 ".//ChibiOS//test/rt/test.h"
 4262              		.file 23 ".//ChibiOS//os/rt/include/chvt.h"
 4263              		.section	.debug_info,"",%progbits
 4264              	.Ldebug_info0:
 4265 0000 1E2E0000 		.4byte	0x2e1e
 4266 0004 0400     		.2byte	0x4
 4267 0006 00000000 		.4byte	.Ldebug_abbrev0
 4268 000a 04       		.byte	0x4
 4269 000b 01       		.uleb128 0x1
 4270 000c 480A0000 		.4byte	.LASF261
 4271 0010 0C       		.byte	0xc
 4272 0011 38010000 		.4byte	.LASF262
 4273 0015 A30B0000 		.4byte	.LASF263
 4274 0019 F0050000 		.4byte	.Ldebug_ranges0+0x5f0
 4275 001d 00000000 		.4byte	0
 4276 0021 00000000 		.4byte	.Ldebug_line0
 4277 0025 02       		.uleb128 0x2
 4278 0026 04       		.byte	0x4
 4279 0027 05       		.byte	0x5
 4280 0028 696E7400 		.ascii	"int\000"
 4281 002c 03       		.uleb128 0x3
 4282 002d 08000000 		.4byte	.LASF5
 4283 0031 08       		.byte	0x8
 4284 0032 D1       		.byte	0xd1
 4285 0033 17       		.byte	0x17
 4286 0034 38000000 		.4byte	0x38
 4287 0038 04       		.uleb128 0x4
 4288 0039 04       		.byte	0x4
 4289 003a 07       		.byte	0x7
 4290 003b A3060000 		.4byte	.LASF0
 4291 003f 04       		.uleb128 0x4
 4292 0040 08       		.byte	0x8
 4293 0041 05       		.byte	0x5
 4294 0042 D6050000 		.4byte	.LASF1
 4295 0046 04       		.uleb128 0x4
 4296 0047 08       		.byte	0x8
 4297 0048 04       		.byte	0x4
 4298 0049 72070000 		.4byte	.LASF2
 4299 004d 04       		.uleb128 0x4
 4300 004e 01       		.byte	0x1
 4301 004f 06       		.byte	0x6
 4302 0050 AB020000 		.4byte	.LASF3
 4303 0054 04       		.uleb128 0x4
 4304 0055 02       		.byte	0x2
 4305 0056 05       		.byte	0x5
 4306 0057 64090000 		.4byte	.LASF4
 4307 005b 03       		.uleb128 0x3
 4308 005c A1000000 		.4byte	.LASF6
 4309 0060 09       		.byte	0x9
 4310 0061 28       		.byte	0x28
 4311 0062 18       		.byte	0x18
 4312 0063 6C000000 		.4byte	0x6c
 4313 0067 05       		.uleb128 0x5
 4314 0068 5B000000 		.4byte	0x5b
 4315 006c 04       		.uleb128 0x4
 4316 006d 04       		.byte	0x4
 4317 006e 05       		.byte	0x5
ARM GAS  /tmp/ccvURch4.s 			page 79


 4318 006f DC010000 		.4byte	.LASF7
 4319 0073 03       		.uleb128 0x3
 4320 0074 C1020000 		.4byte	.LASF8
 4321 0078 09       		.byte	0x9
 4322 0079 2E       		.byte	0x2e
 4323 007a 18       		.byte	0x18
 4324 007b 7F000000 		.4byte	0x7f
 4325 007f 04       		.uleb128 0x4
 4326 0080 01       		.byte	0x1
 4327 0081 08       		.byte	0x8
 4328 0082 EB020000 		.4byte	.LASF9
 4329 0086 03       		.uleb128 0x3
 4330 0087 0D080000 		.4byte	.LASF10
 4331 008b 09       		.byte	0x9
 4332 008c 31       		.byte	0x31
 4333 008d 19       		.byte	0x19
 4334 008e 92000000 		.4byte	0x92
 4335 0092 04       		.uleb128 0x4
 4336 0093 02       		.byte	0x2
 4337 0094 07       		.byte	0x7
 4338 0095 2A0C0000 		.4byte	.LASF11
 4339 0099 03       		.uleb128 0x3
 4340 009a 020C0000 		.4byte	.LASF12
 4341 009e 09       		.byte	0x9
 4342 009f 34       		.byte	0x34
 4343 00a0 19       		.byte	0x19
 4344 00a1 A5000000 		.4byte	0xa5
 4345 00a5 04       		.uleb128 0x4
 4346 00a6 04       		.byte	0x4
 4347 00a7 07       		.byte	0x7
 4348 00a8 8C040000 		.4byte	.LASF13
 4349 00ac 03       		.uleb128 0x3
 4350 00ad 6E090000 		.4byte	.LASF14
 4351 00b1 09       		.byte	0x9
 4352 00b2 37       		.byte	0x37
 4353 00b3 19       		.byte	0x19
 4354 00b4 B8000000 		.4byte	0xb8
 4355 00b8 04       		.uleb128 0x4
 4356 00b9 08       		.byte	0x8
 4357 00ba 07       		.byte	0x7
 4358 00bb EE070000 		.4byte	.LASF15
 4359 00bf 03       		.uleb128 0x3
 4360 00c0 BD060000 		.4byte	.LASF16
 4361 00c4 0A       		.byte	0xa
 4362 00c5 45       		.byte	0x45
 4363 00c6 1D       		.byte	0x1d
 4364 00c7 99000000 		.4byte	0x99
 4365 00cb 03       		.uleb128 0x3
 4366 00cc 39020000 		.4byte	.LASF17
 4367 00d0 0A       		.byte	0xa
 4368 00d1 46       		.byte	0x46
 4369 00d2 1D       		.byte	0x1d
 4370 00d3 AC000000 		.4byte	0xac
 4371 00d7 03       		.uleb128 0x3
 4372 00d8 FC080000 		.4byte	.LASF18
 4373 00dc 0A       		.byte	0xa
 4374 00dd 48       		.byte	0x48
ARM GAS  /tmp/ccvURch4.s 			page 80


 4375 00de 1D       		.byte	0x1d
 4376 00df 73000000 		.4byte	0x73
 4377 00e3 03       		.uleb128 0x3
 4378 00e4 30020000 		.4byte	.LASF19
 4379 00e8 0A       		.byte	0xa
 4380 00e9 49       		.byte	0x49
 4381 00ea 1D       		.byte	0x1d
 4382 00eb 73000000 		.4byte	0x73
 4383 00ef 03       		.uleb128 0x3
 4384 00f0 080A0000 		.4byte	.LASF20
 4385 00f4 0A       		.byte	0xa
 4386 00f5 4A       		.byte	0x4a
 4387 00f6 1D       		.byte	0x1d
 4388 00f7 73000000 		.4byte	0x73
 4389 00fb 03       		.uleb128 0x3
 4390 00fc 3A080000 		.4byte	.LASF21
 4391 0100 0A       		.byte	0xa
 4392 0101 4B       		.byte	0x4b
 4393 0102 1D       		.byte	0x1d
 4394 0103 73000000 		.4byte	0x73
 4395 0107 03       		.uleb128 0x3
 4396 0108 5A000000 		.4byte	.LASF22
 4397 010c 0A       		.byte	0xa
 4398 010d 4C       		.byte	0x4c
 4399 010e 1D       		.byte	0x1d
 4400 010f 99000000 		.4byte	0x99
 4401 0113 03       		.uleb128 0x3
 4402 0114 16080000 		.4byte	.LASF23
 4403 0118 0A       		.byte	0xa
 4404 0119 4D       		.byte	0x4d
 4405 011a 1D       		.byte	0x1d
 4406 011b 5B000000 		.4byte	0x5b
 4407 011f 03       		.uleb128 0x3
 4408 0120 D1020000 		.4byte	.LASF24
 4409 0124 0A       		.byte	0xa
 4410 0125 4F       		.byte	0x4f
 4411 0126 1D       		.byte	0x1d
 4412 0127 99000000 		.4byte	0x99
 4413 012b 03       		.uleb128 0x3
 4414 012c D9030000 		.4byte	.LASF25
 4415 0130 0A       		.byte	0xa
 4416 0131 51       		.byte	0x51
 4417 0132 1D       		.byte	0x1d
 4418 0133 5B000000 		.4byte	0x5b
 4419 0137 03       		.uleb128 0x3
 4420 0138 2E050000 		.4byte	.LASF26
 4421 013c 0A       		.byte	0xa
 4422 013d 52       		.byte	0x52
 4423 013e 1D       		.byte	0x1d
 4424 013f 99000000 		.4byte	0x99
 4425 0143 03       		.uleb128 0x3
 4426 0144 22000000 		.4byte	.LASF27
 4427 0148 0B       		.byte	0xb
 4428 0149 33       		.byte	0x33
 4429 014a 12       		.byte	0x12
 4430 014b 99000000 		.4byte	0x99
 4431 014f 05       		.uleb128 0x5
ARM GAS  /tmp/ccvURch4.s 			page 81


 4432 0150 43010000 		.4byte	0x143
 4433 0154 03       		.uleb128 0x3
 4434 0155 69070000 		.4byte	.LASF28
 4435 0159 0B       		.byte	0xb
 4436 015a 3F       		.byte	0x3f
 4437 015b 1A       		.byte	0x1a
 4438 015c 60010000 		.4byte	0x160
 4439 0160 06       		.uleb128 0x6
 4440 0161 E9040000 		.4byte	.LASF52
 4441 0165 68       		.byte	0x68
 4442 0166 0C       		.byte	0xc
 4443 0167 C2       		.byte	0xc2
 4444 0168 08       		.byte	0x8
 4445 0169 95020000 		.4byte	0x295
 4446 016d 07       		.uleb128 0x7
 4447 016e E5010000 		.4byte	.LASF29
 4448 0172 0C       		.byte	0xc
 4449 0173 C3       		.byte	0xc3
 4450 0174 1A       		.byte	0x1a
 4451 0175 A1020000 		.4byte	0x2a1
 4452 0179 00       		.byte	0
 4453 017a 07       		.uleb128 0x7
 4454 017b 24020000 		.4byte	.LASF30
 4455 017f 0C       		.byte	0xc
 4456 0180 C5       		.byte	0xc5
 4457 0181 1A       		.byte	0x1a
 4458 0182 A1020000 		.4byte	0x2a1
 4459 0186 04       		.byte	0x4
 4460 0187 07       		.uleb128 0x7
 4461 0188 85030000 		.4byte	.LASF31
 4462 018c 0C       		.byte	0xc
 4463 018d C7       		.byte	0xc7
 4464 018e 19       		.byte	0x19
 4465 018f 07010000 		.4byte	0x107
 4466 0193 08       		.byte	0x8
 4467 0194 07       		.uleb128 0x7
 4468 0195 47000000 		.4byte	.LASF32
 4469 0199 0C       		.byte	0xc
 4470 019a C8       		.byte	0xc8
 4471 019b 19       		.byte	0x19
 4472 019c 4F050000 		.4byte	0x54f
 4473 01a0 0C       		.byte	0xc
 4474 01a1 07       		.uleb128 0x7
 4475 01a2 D4010000 		.4byte	.LASF33
 4476 01a6 0C       		.byte	0xc
 4477 01a7 CA       		.byte	0xca
 4478 01a8 1A       		.byte	0x1a
 4479 01a9 A1020000 		.4byte	0x2a1
 4480 01ad 10       		.byte	0x10
 4481 01ae 07       		.uleb128 0x7
 4482 01af 05080000 		.4byte	.LASF34
 4483 01b3 0C       		.byte	0xc
 4484 01b4 CB       		.byte	0xcb
 4485 01b5 1A       		.byte	0x1a
 4486 01b6 A1020000 		.4byte	0x2a1
 4487 01ba 14       		.byte	0x14
 4488 01bb 07       		.uleb128 0x7
ARM GAS  /tmp/ccvURch4.s 			page 82


 4489 01bc B20C0000 		.4byte	.LASF35
 4490 01c0 0C       		.byte	0xc
 4491 01c1 D2       		.byte	0xd2
 4492 01c2 1A       		.byte	0x1a
 4493 01c3 0C090000 		.4byte	0x90c
 4494 01c7 18       		.byte	0x18
 4495 01c8 07       		.uleb128 0x7
 4496 01c9 790C0000 		.4byte	.LASF36
 4497 01cd 0C       		.byte	0xc
 4498 01ce D8       		.byte	0xd8
 4499 01cf 1A       		.byte	0x1a
 4500 01d0 23090000 		.4byte	0x923
 4501 01d4 1C       		.byte	0x1c
 4502 01d5 07       		.uleb128 0x7
 4503 01d6 EA0C0000 		.4byte	.LASF37
 4504 01da 0C       		.byte	0xc
 4505 01db DD       		.byte	0xdd
 4506 01dc 19       		.byte	0x19
 4507 01dd E3000000 		.4byte	0xe3
 4508 01e1 20       		.byte	0x20
 4509 01e2 07       		.uleb128 0x7
 4510 01e3 7D060000 		.4byte	.LASF38
 4511 01e7 0C       		.byte	0xc
 4512 01e8 E1       		.byte	0xe1
 4513 01e9 19       		.byte	0x19
 4514 01ea D7000000 		.4byte	0xd7
 4515 01ee 21       		.byte	0x21
 4516 01ef 07       		.uleb128 0x7
 4517 01f0 DC060000 		.4byte	.LASF39
 4518 01f4 0C       		.byte	0xc
 4519 01f5 E6       		.byte	0xe6
 4520 01f6 19       		.byte	0x19
 4521 01f7 EF000000 		.4byte	0xef
 4522 01fb 22       		.byte	0x22
 4523 01fc 07       		.uleb128 0x7
 4524 01fd B7020000 		.4byte	.LASF40
 4525 0201 0C       		.byte	0xc
 4526 0202 EC       		.byte	0xec
 4527 0203 19       		.byte	0x19
 4528 0204 FB000000 		.4byte	0xfb
 4529 0208 23       		.byte	0x23
 4530 0209 07       		.uleb128 0x7
 4531 020a 4E070000 		.4byte	.LASF41
 4532 020e 0C       		.byte	0xc
 4533 020f F3       		.byte	0xf3
 4534 0210 19       		.byte	0x19
 4535 0211 4F010000 		.4byte	0x14f
 4536 0215 24       		.byte	0x24
 4537 0216 08       		.uleb128 0x8
 4538 0217 705F7500 		.ascii	"p_u\000"
 4539 021b 0C       		.byte	0xc
 4540 021c 3101     		.2byte	0x131
 4541 021e 19       		.byte	0x19
 4542 021f 2B080000 		.4byte	0x82b
 4543 0223 28       		.byte	0x28
 4544 0224 09       		.uleb128 0x9
 4545 0225 69060000 		.4byte	.LASF42
ARM GAS  /tmp/ccvURch4.s 			page 83


 4546 0229 0C       		.byte	0xc
 4547 022a 3601     		.2byte	0x136
 4548 022c 19       		.byte	0x19
 4549 022d A7020000 		.4byte	0x2a7
 4550 0231 2C       		.byte	0x2c
 4551 0232 09       		.uleb128 0x9
 4552 0233 90000000 		.4byte	.LASF43
 4553 0237 0C       		.byte	0xc
 4554 0238 3C01     		.2byte	0x13c
 4555 023a 19       		.byte	0x19
 4556 023b CE020000 		.4byte	0x2ce
 4557 023f 30       		.byte	0x30
 4558 0240 09       		.uleb128 0x9
 4559 0241 D80C0000 		.4byte	.LASF44
 4560 0245 0C       		.byte	0xc
 4561 0246 4001     		.2byte	0x140
 4562 0248 19       		.byte	0x19
 4563 0249 13010000 		.4byte	0x113
 4564 024d 38       		.byte	0x38
 4565 024e 09       		.uleb128 0x9
 4566 024f 11040000 		.4byte	.LASF45
 4567 0253 0C       		.byte	0xc
 4568 0254 4601     		.2byte	0x146
 4569 0256 19       		.byte	0x19
 4570 0257 1F010000 		.4byte	0x11f
 4571 025b 3C       		.byte	0x3c
 4572 025c 09       		.uleb128 0x9
 4573 025d 52020000 		.4byte	.LASF46
 4574 0261 0C       		.byte	0xc
 4575 0262 4D01     		.2byte	0x14d
 4576 0264 1A       		.byte	0x1a
 4577 0265 06090000 		.4byte	0x906
 4578 0269 40       		.byte	0x40
 4579 026a 09       		.uleb128 0x9
 4580 026b 91070000 		.4byte	.LASF47
 4581 026f 0C       		.byte	0xc
 4582 0270 5101     		.2byte	0x151
 4583 0272 19       		.byte	0x19
 4584 0273 07010000 		.4byte	0x107
 4585 0277 44       		.byte	0x44
 4586 0278 09       		.uleb128 0x9
 4587 0279 C5060000 		.4byte	.LASF48
 4588 027d 0C       		.byte	0xc
 4589 027e 5801     		.2byte	0x158
 4590 0280 1A       		.byte	0x1a
 4591 0281 8E030000 		.4byte	0x38e
 4592 0285 48       		.byte	0x48
 4593 0286 09       		.uleb128 0x9
 4594 0287 00000000 		.4byte	.LASF49
 4595 028b 0C       		.byte	0xc
 4596 028c 5E01     		.2byte	0x15e
 4597 028e 19       		.byte	0x19
 4598 028f D5070000 		.4byte	0x7d5
 4599 0293 50       		.byte	0x50
 4600 0294 00       		.byte	0
 4601 0295 03       		.uleb128 0x3
 4602 0296 7E070000 		.4byte	.LASF50
ARM GAS  /tmp/ccvURch4.s 			page 84


 4603 029a 0B       		.byte	0xb
 4604 029b 44       		.byte	0x44
 4605 029c 14       		.byte	0x14
 4606 029d A1020000 		.4byte	0x2a1
 4607 02a1 0A       		.uleb128 0xa
 4608 02a2 04       		.byte	0x4
 4609 02a3 54010000 		.4byte	0x154
 4610 02a7 03       		.uleb128 0x3
 4611 02a8 390A0000 		.4byte	.LASF51
 4612 02ac 0B       		.byte	0xb
 4613 02ad 49       		.byte	0x49
 4614 02ae 20       		.byte	0x20
 4615 02af B3020000 		.4byte	0x2b3
 4616 02b3 06       		.uleb128 0x6
 4617 02b4 59050000 		.4byte	.LASF53
 4618 02b8 04       		.byte	0x4
 4619 02b9 0C       		.byte	0xc
 4620 02ba B0       		.byte	0xb0
 4621 02bb 08       		.byte	0x8
 4622 02bc CE020000 		.4byte	0x2ce
 4623 02c0 07       		.uleb128 0x7
 4624 02c1 E5010000 		.4byte	.LASF29
 4625 02c5 0C       		.byte	0xc
 4626 02c6 B1       		.byte	0xb1
 4627 02c7 1A       		.byte	0x1a
 4628 02c8 A1020000 		.4byte	0x2a1
 4629 02cc 00       		.byte	0
 4630 02cd 00       		.byte	0
 4631 02ce 03       		.uleb128 0x3
 4632 02cf 42020000 		.4byte	.LASF54
 4633 02d3 0B       		.byte	0xb
 4634 02d4 50       		.byte	0x50
 4635 02d5 21       		.byte	0x21
 4636 02d6 DA020000 		.4byte	0x2da
 4637 02da 06       		.uleb128 0x6
 4638 02db 1C080000 		.4byte	.LASF55
 4639 02df 08       		.byte	0x8
 4640 02e0 0C       		.byte	0xc
 4641 02e1 B7       		.byte	0xb7
 4642 02e2 08       		.byte	0x8
 4643 02e3 02030000 		.4byte	0x302
 4644 02e7 07       		.uleb128 0x7
 4645 02e8 E5010000 		.4byte	.LASF29
 4646 02ec 0C       		.byte	0xc
 4647 02ed B8       		.byte	0xb8
 4648 02ee 1A       		.byte	0x1a
 4649 02ef A1020000 		.4byte	0x2a1
 4650 02f3 00       		.byte	0
 4651 02f4 07       		.uleb128 0x7
 4652 02f5 24020000 		.4byte	.LASF30
 4653 02f9 0C       		.byte	0xc
 4654 02fa B9       		.byte	0xb9
 4655 02fb 1A       		.byte	0x1a
 4656 02fc A1020000 		.4byte	0x2a1
 4657 0300 04       		.byte	0x4
 4658 0301 00       		.byte	0
 4659 0302 03       		.uleb128 0x3
ARM GAS  /tmp/ccvURch4.s 			page 85


 4660 0303 19050000 		.4byte	.LASF56
 4661 0307 0B       		.byte	0xb
 4662 0308 57       		.byte	0x57
 4663 0309 1E       		.byte	0x1e
 4664 030a 0E030000 		.4byte	0x30e
 4665 030e 0B       		.uleb128 0xb
 4666 030f 23040000 		.4byte	.LASF57
 4667 0313 1C       		.byte	0x1c
 4668 0314 0C       		.byte	0xc
 4669 0315 9001     		.2byte	0x190
 4670 0317 08       		.byte	0x8
 4671 0318 71030000 		.4byte	0x371
 4672 031c 09       		.uleb128 0x9
 4673 031d DC080000 		.4byte	.LASF58
 4674 0321 0C       		.byte	0xc
 4675 0322 9101     		.2byte	0x191
 4676 0324 19       		.byte	0x19
 4677 0325 CE020000 		.4byte	0x2ce
 4678 0329 00       		.byte	0
 4679 032a 09       		.uleb128 0x9
 4680 032b 8E090000 		.4byte	.LASF59
 4681 032f 0C       		.byte	0xc
 4682 0330 9201     		.2byte	0x192
 4683 0332 19       		.byte	0x19
 4684 0333 07010000 		.4byte	0x107
 4685 0337 08       		.byte	0x8
 4686 0338 09       		.uleb128 0x9
 4687 0339 9B000000 		.4byte	.LASF60
 4688 033d 0C       		.byte	0xc
 4689 033e 9401     		.2byte	0x194
 4690 0340 19       		.byte	0x19
 4691 0341 4F050000 		.4byte	0x54f
 4692 0345 0C       		.byte	0xc
 4693 0346 09       		.uleb128 0x9
 4694 0347 24030000 		.4byte	.LASF61
 4695 034b 0C       		.byte	0xc
 4696 034c 9701     		.2byte	0x197
 4697 034e 1A       		.byte	0x1a
 4698 034f A1020000 		.4byte	0x2a1
 4699 0353 10       		.byte	0x10
 4700 0354 09       		.uleb128 0x9
 4701 0355 0F090000 		.4byte	.LASF62
 4702 0359 0C       		.byte	0xc
 4703 035a 9801     		.2byte	0x198
 4704 035c 1A       		.byte	0x1a
 4705 035d A1020000 		.4byte	0x2a1
 4706 0361 14       		.byte	0x14
 4707 0362 09       		.uleb128 0x9
 4708 0363 44080000 		.4byte	.LASF63
 4709 0367 0C       		.byte	0xc
 4710 0368 9B01     		.2byte	0x19b
 4711 036a 1A       		.byte	0x1a
 4712 036b A1020000 		.4byte	0x2a1
 4713 036f 18       		.byte	0x18
 4714 0370 00       		.byte	0
 4715 0371 03       		.uleb128 0x3
 4716 0372 B4000000 		.4byte	.LASF64
ARM GAS  /tmp/ccvURch4.s 			page 86


 4717 0376 0B       		.byte	0xb
 4718 0377 5C       		.byte	0x5c
 4719 0378 10       		.byte	0x10
 4720 0379 7D030000 		.4byte	0x37d
 4721 037d 0A       		.uleb128 0xa
 4722 037e 04       		.byte	0x4
 4723 037f 83030000 		.4byte	0x383
 4724 0383 0C       		.uleb128 0xc
 4725 0384 8E030000 		.4byte	0x38e
 4726 0388 0D       		.uleb128 0xd
 4727 0389 8E030000 		.4byte	0x38e
 4728 038d 00       		.byte	0
 4729 038e 0E       		.uleb128 0xe
 4730 038f 04       		.byte	0x4
 4731 0390 0F       		.uleb128 0xf
 4732 0391 8E030000 		.4byte	0x38e
 4733 0395 03       		.uleb128 0x3
 4734 0396 09050000 		.4byte	.LASF65
 4735 039a 0B       		.byte	0xb
 4736 039b 61       		.byte	0x61
 4737 039c 21       		.byte	0x21
 4738 039d A1030000 		.4byte	0x3a1
 4739 03a1 0B       		.uleb128 0xb
 4740 03a2 BD070000 		.4byte	.LASF66
 4741 03a6 14       		.byte	0x14
 4742 03a7 0C       		.byte	0xc
 4743 03a8 6B01     		.2byte	0x16b
 4744 03aa 08       		.byte	0x8
 4745 03ab F6030000 		.4byte	0x3f6
 4746 03af 09       		.uleb128 0x9
 4747 03b0 F7050000 		.4byte	.LASF67
 4748 03b4 0C       		.byte	0xc
 4749 03b5 6C01     		.2byte	0x16c
 4750 03b7 1A       		.byte	0x1a
 4751 03b8 29090000 		.4byte	0x929
 4752 03bc 00       		.byte	0
 4753 03bd 09       		.uleb128 0x9
 4754 03be 1B060000 		.4byte	.LASF68
 4755 03c2 0C       		.byte	0xc
 4756 03c3 6D01     		.2byte	0x16d
 4757 03c5 1A       		.byte	0x1a
 4758 03c6 29090000 		.4byte	0x929
 4759 03ca 04       		.byte	0x4
 4760 03cb 09       		.uleb128 0x9
 4761 03cc B4070000 		.4byte	.LASF69
 4762 03d0 0C       		.byte	0xc
 4763 03d1 6E01     		.2byte	0x16e
 4764 03d3 19       		.byte	0x19
 4765 03d4 43010000 		.4byte	0x143
 4766 03d8 08       		.byte	0x8
 4767 03d9 09       		.uleb128 0x9
 4768 03da EA030000 		.4byte	.LASF70
 4769 03de 0C       		.byte	0xc
 4770 03df 6F01     		.2byte	0x16f
 4771 03e1 19       		.byte	0x19
 4772 03e2 71030000 		.4byte	0x371
 4773 03e6 0C       		.byte	0xc
ARM GAS  /tmp/ccvURch4.s 			page 87


 4774 03e7 09       		.uleb128 0x9
 4775 03e8 75010000 		.4byte	.LASF71
 4776 03ec 0C       		.byte	0xc
 4777 03ed 7101     		.2byte	0x171
 4778 03ef 1A       		.byte	0x1a
 4779 03f0 8E030000 		.4byte	0x38e
 4780 03f4 10       		.byte	0x10
 4781 03f5 00       		.byte	0
 4782 03f6 03       		.uleb128 0x3
 4783 03f7 F3040000 		.4byte	.LASF72
 4784 03fb 0B       		.byte	0xb
 4785 03fc 66       		.byte	0x66
 4786 03fd 28       		.byte	0x28
 4787 03fe 02040000 		.4byte	0x402
 4788 0402 0B       		.uleb128 0xb
 4789 0403 BD000000 		.4byte	.LASF73
 4790 0407 10       		.byte	0x10
 4791 0408 0C       		.byte	0xc
 4792 0409 7B01     		.2byte	0x17b
 4793 040b 08       		.byte	0x8
 4794 040c 49040000 		.4byte	0x449
 4795 0410 09       		.uleb128 0x9
 4796 0411 F7050000 		.4byte	.LASF67
 4797 0415 0C       		.byte	0xc
 4798 0416 7C01     		.2byte	0x17c
 4799 0418 1A       		.byte	0x1a
 4800 0419 29090000 		.4byte	0x929
 4801 041d 00       		.byte	0
 4802 041e 09       		.uleb128 0x9
 4803 041f 1B060000 		.4byte	.LASF68
 4804 0423 0C       		.byte	0xc
 4805 0424 7E01     		.2byte	0x17e
 4806 0426 1A       		.byte	0x1a
 4807 0427 29090000 		.4byte	0x929
 4808 042b 04       		.byte	0x4
 4809 042c 09       		.uleb128 0x9
 4810 042d B4070000 		.4byte	.LASF69
 4811 0431 0C       		.byte	0xc
 4812 0432 8001     		.2byte	0x180
 4813 0434 19       		.byte	0x19
 4814 0435 43010000 		.4byte	0x143
 4815 0439 08       		.byte	0x8
 4816 043a 09       		.uleb128 0x9
 4817 043b 04090000 		.4byte	.LASF74
 4818 043f 0C       		.byte	0xc
 4819 0440 8201     		.2byte	0x182
 4820 0442 19       		.byte	0x19
 4821 0443 4F010000 		.4byte	0x14f
 4822 0447 0C       		.byte	0xc
 4823 0448 00       		.byte	0
 4824 0449 03       		.uleb128 0x3
 4825 044a 3A030000 		.4byte	.LASF75
 4826 044e 0B       		.byte	0xb
 4827 044f 6B       		.byte	0x6b
 4828 0450 20       		.byte	0x20
 4829 0451 55040000 		.4byte	0x455
 4830 0455 10       		.uleb128 0x10
ARM GAS  /tmp/ccvURch4.s 			page 88


 4831 0456 9E090000 		.4byte	.LASF76
 4832 045a 1404     		.2byte	0x414
 4833 045c 0C       		.byte	0xc
 4834 045d A201     		.2byte	0x1a2
 4835 045f 08       		.byte	0x8
 4836 0460 9D040000 		.4byte	0x49d
 4837 0464 09       		.uleb128 0x9
 4838 0465 00030000 		.4byte	.LASF77
 4839 0469 0C       		.byte	0xc
 4840 046a AA01     		.2byte	0x1aa
 4841 046c 24       		.byte	0x24
 4842 046d 12090000 		.4byte	0x912
 4843 0471 00       		.byte	0
 4844 0472 09       		.uleb128 0x9
 4845 0473 4F040000 		.4byte	.LASF78
 4846 0477 0C       		.byte	0xc
 4847 0478 AF01     		.2byte	0x1af
 4848 047a 19       		.byte	0x19
 4849 047b 2B010000 		.4byte	0x12b
 4850 047f 04       		.byte	0x4
 4851 0480 09       		.uleb128 0x9
 4852 0481 EF000000 		.4byte	.LASF79
 4853 0485 0C       		.byte	0xc
 4854 0486 B301     		.2byte	0x1b3
 4855 0488 19       		.byte	0x19
 4856 0489 2B010000 		.4byte	0x12b
 4857 048d 08       		.byte	0x8
 4858 048e 09       		.uleb128 0x9
 4859 048f 17030000 		.4byte	.LASF80
 4860 0493 0C       		.byte	0xc
 4861 0494 B901     		.2byte	0x1b9
 4862 0496 19       		.byte	0x19
 4863 0497 5D070000 		.4byte	0x75d
 4864 049b 0C       		.byte	0xc
 4865 049c 00       		.byte	0
 4866 049d 03       		.uleb128 0x3
 4867 049e 3D0C0000 		.4byte	.LASF81
 4868 04a2 0B       		.byte	0xb
 4869 04a3 70       		.byte	0x70
 4870 04a4 1A       		.byte	0x1a
 4871 04a5 A9040000 		.4byte	0x4a9
 4872 04a9 10       		.uleb128 0x10
 4873 04aa EB0B0000 		.4byte	.LASF82
 4874 04ae 7006     		.2byte	0x670
 4875 04b0 0C       		.byte	0xc
 4876 04b1 C201     		.2byte	0x1c2
 4877 04b3 08       		.byte	0x8
 4878 04b4 1E050000 		.4byte	0x51e
 4879 04b8 09       		.uleb128 0x9
 4880 04b9 F6080000 		.4byte	.LASF83
 4881 04bd 0C       		.byte	0xc
 4882 04be C601     		.2byte	0x1c6
 4883 04c0 19       		.byte	0x19
 4884 04c1 02030000 		.4byte	0x302
 4885 04c5 00       		.byte	0
 4886 04c6 09       		.uleb128 0x9
 4887 04c7 E3090000 		.4byte	.LASF84
ARM GAS  /tmp/ccvURch4.s 			page 89


 4888 04cb 0C       		.byte	0xc
 4889 04cc CA01     		.2byte	0x1ca
 4890 04ce 19       		.byte	0x19
 4891 04cf F6030000 		.4byte	0x3f6
 4892 04d3 1C       		.byte	0x1c
 4893 04d4 08       		.uleb128 0x8
 4894 04d5 64626700 		.ascii	"dbg\000"
 4895 04d9 0C       		.byte	0xc
 4896 04da CE01     		.2byte	0x1ce
 4897 04dc 19       		.byte	0x19
 4898 04dd 49040000 		.4byte	0x449
 4899 04e1 2C       		.byte	0x2c
 4900 04e2 11       		.uleb128 0x11
 4901 04e3 AE080000 		.4byte	.LASF85
 4902 04e7 0C       		.byte	0xc
 4903 04e8 D201     		.2byte	0x1d2
 4904 04ea 19       		.byte	0x19
 4905 04eb 54010000 		.4byte	0x154
 4906 04ef 4004     		.2byte	0x440
 4907 04f1 12       		.uleb128 0x12
 4908 04f2 746D00   		.ascii	"tm\000"
 4909 04f5 0C       		.byte	0xc
 4910 04f6 D701     		.2byte	0x1d7
 4911 04f8 19       		.byte	0x19
 4912 04f9 80070000 		.4byte	0x780
 4913 04fd A804     		.2byte	0x4a8
 4914 04ff 11       		.uleb128 0x11
 4915 0500 E1070000 		.4byte	.LASF86
 4916 0504 0C       		.byte	0xc
 4917 0505 DD01     		.2byte	0x1dd
 4918 0507 19       		.byte	0x19
 4919 0508 1F080000 		.4byte	0x81f
 4920 050c B004     		.2byte	0x4b0
 4921 050e 11       		.uleb128 0x11
 4922 050f 94060000 		.4byte	.LASF87
 4923 0513 0C       		.byte	0xc
 4924 0514 E301     		.2byte	0x1e3
 4925 0516 03       		.byte	0x3
 4926 0517 2F090000 		.4byte	0x92f
 4927 051b E804     		.2byte	0x4e8
 4928 051d 00       		.byte	0
 4929 051e 13       		.uleb128 0x13
 4930 051f 52060000 		.4byte	.LASF88
 4931 0523 0D       		.byte	0xd
 4932 0524 A706     		.2byte	0x6a7
 4933 0526 19       		.byte	0x19
 4934 0527 67000000 		.4byte	0x67
 4935 052b 14       		.uleb128 0x14
 4936 052c C7040000 		.4byte	.LASF89
 4937 0530 0E       		.byte	0xe
 4938 0531 4C       		.byte	0x4c
 4939 0532 11       		.byte	0x11
 4940 0533 99000000 		.4byte	0x99
 4941 0537 03       		.uleb128 0x3
 4942 0538 5C020000 		.4byte	.LASF90
 4943 053c 0F       		.byte	0xf
 4944 053d 65       		.byte	0x65
ARM GAS  /tmp/ccvURch4.s 			page 90


 4945 053e 0F       		.byte	0xf
 4946 053f 8E030000 		.4byte	0x38e
 4947 0543 03       		.uleb128 0x3
 4948 0544 AF030000 		.4byte	.LASF91
 4949 0548 0F       		.byte	0xf
 4950 0549 6D       		.byte	0x6d
 4951 054a 12       		.byte	0x12
 4952 054b AC000000 		.4byte	0xac
 4953 054f 06       		.uleb128 0x6
 4954 0550 DD020000 		.4byte	.LASF92
 4955 0554 04       		.byte	0x4
 4956 0555 0F       		.byte	0xf
 4957 0556 89       		.byte	0x89
 4958 0557 08       		.byte	0x8
 4959 0558 6A050000 		.4byte	0x56a
 4960 055c 15       		.uleb128 0x15
 4961 055d 72313300 		.ascii	"r13\000"
 4962 0561 0F       		.byte	0xf
 4963 0562 8A       		.byte	0x8a
 4964 0563 17       		.byte	0x17
 4965 0564 C5060000 		.4byte	0x6c5
 4966 0568 00       		.byte	0
 4967 0569 00       		.byte	0
 4968 056a 06       		.uleb128 0x6
 4969 056b 9C070000 		.4byte	.LASF93
 4970 056f 64       		.byte	0x64
 4971 0570 06       		.byte	0x6
 4972 0571 F4       		.byte	0xf4
 4973 0572 08       		.byte	0x8
 4974 0573 C5060000 		.4byte	0x6c5
 4975 0577 15       		.uleb128 0x15
 4976 0578 73313600 		.ascii	"s16\000"
 4977 057c 06       		.byte	0x6
 4978 057d F6       		.byte	0xf6
 4979 057e 11       		.byte	0x11
 4980 057f 37050000 		.4byte	0x537
 4981 0583 00       		.byte	0
 4982 0584 15       		.uleb128 0x15
 4983 0585 73313700 		.ascii	"s17\000"
 4984 0589 06       		.byte	0x6
 4985 058a F7       		.byte	0xf7
 4986 058b 11       		.byte	0x11
 4987 058c 37050000 		.4byte	0x537
 4988 0590 04       		.byte	0x4
 4989 0591 15       		.uleb128 0x15
 4990 0592 73313800 		.ascii	"s18\000"
 4991 0596 06       		.byte	0x6
 4992 0597 F8       		.byte	0xf8
 4993 0598 11       		.byte	0x11
 4994 0599 37050000 		.4byte	0x537
 4995 059d 08       		.byte	0x8
 4996 059e 15       		.uleb128 0x15
 4997 059f 73313900 		.ascii	"s19\000"
 4998 05a3 06       		.byte	0x6
 4999 05a4 F9       		.byte	0xf9
 5000 05a5 11       		.byte	0x11
 5001 05a6 37050000 		.4byte	0x537
ARM GAS  /tmp/ccvURch4.s 			page 91


 5002 05aa 0C       		.byte	0xc
 5003 05ab 15       		.uleb128 0x15
 5004 05ac 73323000 		.ascii	"s20\000"
 5005 05b0 06       		.byte	0x6
 5006 05b1 FA       		.byte	0xfa
 5007 05b2 11       		.byte	0x11
 5008 05b3 37050000 		.4byte	0x537
 5009 05b7 10       		.byte	0x10
 5010 05b8 15       		.uleb128 0x15
 5011 05b9 73323100 		.ascii	"s21\000"
 5012 05bd 06       		.byte	0x6
 5013 05be FB       		.byte	0xfb
 5014 05bf 11       		.byte	0x11
 5015 05c0 37050000 		.4byte	0x537
 5016 05c4 14       		.byte	0x14
 5017 05c5 15       		.uleb128 0x15
 5018 05c6 73323200 		.ascii	"s22\000"
 5019 05ca 06       		.byte	0x6
 5020 05cb FC       		.byte	0xfc
 5021 05cc 11       		.byte	0x11
 5022 05cd 37050000 		.4byte	0x537
 5023 05d1 18       		.byte	0x18
 5024 05d2 15       		.uleb128 0x15
 5025 05d3 73323300 		.ascii	"s23\000"
 5026 05d7 06       		.byte	0x6
 5027 05d8 FD       		.byte	0xfd
 5028 05d9 11       		.byte	0x11
 5029 05da 37050000 		.4byte	0x537
 5030 05de 1C       		.byte	0x1c
 5031 05df 15       		.uleb128 0x15
 5032 05e0 73323400 		.ascii	"s24\000"
 5033 05e4 06       		.byte	0x6
 5034 05e5 FE       		.byte	0xfe
 5035 05e6 11       		.byte	0x11
 5036 05e7 37050000 		.4byte	0x537
 5037 05eb 20       		.byte	0x20
 5038 05ec 15       		.uleb128 0x15
 5039 05ed 73323500 		.ascii	"s25\000"
 5040 05f1 06       		.byte	0x6
 5041 05f2 FF       		.byte	0xff
 5042 05f3 11       		.byte	0x11
 5043 05f4 37050000 		.4byte	0x537
 5044 05f8 24       		.byte	0x24
 5045 05f9 08       		.uleb128 0x8
 5046 05fa 73323600 		.ascii	"s26\000"
 5047 05fe 06       		.byte	0x6
 5048 05ff 0001     		.2byte	0x100
 5049 0601 11       		.byte	0x11
 5050 0602 37050000 		.4byte	0x537
 5051 0606 28       		.byte	0x28
 5052 0607 08       		.uleb128 0x8
 5053 0608 73323700 		.ascii	"s27\000"
 5054 060c 06       		.byte	0x6
 5055 060d 0101     		.2byte	0x101
 5056 060f 11       		.byte	0x11
 5057 0610 37050000 		.4byte	0x537
 5058 0614 2C       		.byte	0x2c
ARM GAS  /tmp/ccvURch4.s 			page 92


 5059 0615 08       		.uleb128 0x8
 5060 0616 73323800 		.ascii	"s28\000"
 5061 061a 06       		.byte	0x6
 5062 061b 0201     		.2byte	0x102
 5063 061d 11       		.byte	0x11
 5064 061e 37050000 		.4byte	0x537
 5065 0622 30       		.byte	0x30
 5066 0623 08       		.uleb128 0x8
 5067 0624 73323900 		.ascii	"s29\000"
 5068 0628 06       		.byte	0x6
 5069 0629 0301     		.2byte	0x103
 5070 062b 11       		.byte	0x11
 5071 062c 37050000 		.4byte	0x537
 5072 0630 34       		.byte	0x34
 5073 0631 08       		.uleb128 0x8
 5074 0632 73333000 		.ascii	"s30\000"
 5075 0636 06       		.byte	0x6
 5076 0637 0401     		.2byte	0x104
 5077 0639 11       		.byte	0x11
 5078 063a 37050000 		.4byte	0x537
 5079 063e 38       		.byte	0x38
 5080 063f 08       		.uleb128 0x8
 5081 0640 73333100 		.ascii	"s31\000"
 5082 0644 06       		.byte	0x6
 5083 0645 0501     		.2byte	0x105
 5084 0647 11       		.byte	0x11
 5085 0648 37050000 		.4byte	0x537
 5086 064c 3C       		.byte	0x3c
 5087 064d 08       		.uleb128 0x8
 5088 064e 723400   		.ascii	"r4\000"
 5089 0651 06       		.byte	0x6
 5090 0652 0701     		.2byte	0x107
 5091 0654 11       		.byte	0x11
 5092 0655 37050000 		.4byte	0x537
 5093 0659 40       		.byte	0x40
 5094 065a 08       		.uleb128 0x8
 5095 065b 723500   		.ascii	"r5\000"
 5096 065e 06       		.byte	0x6
 5097 065f 0801     		.2byte	0x108
 5098 0661 11       		.byte	0x11
 5099 0662 37050000 		.4byte	0x537
 5100 0666 44       		.byte	0x44
 5101 0667 08       		.uleb128 0x8
 5102 0668 723600   		.ascii	"r6\000"
 5103 066b 06       		.byte	0x6
 5104 066c 0901     		.2byte	0x109
 5105 066e 11       		.byte	0x11
 5106 066f 37050000 		.4byte	0x537
 5107 0673 48       		.byte	0x48
 5108 0674 08       		.uleb128 0x8
 5109 0675 723700   		.ascii	"r7\000"
 5110 0678 06       		.byte	0x6
 5111 0679 0A01     		.2byte	0x10a
 5112 067b 11       		.byte	0x11
 5113 067c 37050000 		.4byte	0x537
 5114 0680 4C       		.byte	0x4c
 5115 0681 08       		.uleb128 0x8
ARM GAS  /tmp/ccvURch4.s 			page 93


 5116 0682 723800   		.ascii	"r8\000"
 5117 0685 06       		.byte	0x6
 5118 0686 0B01     		.2byte	0x10b
 5119 0688 11       		.byte	0x11
 5120 0689 37050000 		.4byte	0x537
 5121 068d 50       		.byte	0x50
 5122 068e 08       		.uleb128 0x8
 5123 068f 723900   		.ascii	"r9\000"
 5124 0692 06       		.byte	0x6
 5125 0693 0C01     		.2byte	0x10c
 5126 0695 11       		.byte	0x11
 5127 0696 37050000 		.4byte	0x537
 5128 069a 54       		.byte	0x54
 5129 069b 08       		.uleb128 0x8
 5130 069c 72313000 		.ascii	"r10\000"
 5131 06a0 06       		.byte	0x6
 5132 06a1 0D01     		.2byte	0x10d
 5133 06a3 11       		.byte	0x11
 5134 06a4 37050000 		.4byte	0x537
 5135 06a8 58       		.byte	0x58
 5136 06a9 08       		.uleb128 0x8
 5137 06aa 72313100 		.ascii	"r11\000"
 5138 06ae 06       		.byte	0x6
 5139 06af 0E01     		.2byte	0x10e
 5140 06b1 11       		.byte	0x11
 5141 06b2 37050000 		.4byte	0x537
 5142 06b6 5C       		.byte	0x5c
 5143 06b7 08       		.uleb128 0x8
 5144 06b8 6C7200   		.ascii	"lr\000"
 5145 06bb 06       		.byte	0x6
 5146 06bc 0F01     		.2byte	0x10f
 5147 06be 11       		.byte	0x11
 5148 06bf 37050000 		.4byte	0x537
 5149 06c3 60       		.byte	0x60
 5150 06c4 00       		.byte	0
 5151 06c5 0A       		.uleb128 0xa
 5152 06c6 04       		.byte	0x4
 5153 06c7 6A050000 		.4byte	0x56a
 5154 06cb 16       		.uleb128 0x16
 5155 06cc 10       		.byte	0x10
 5156 06cd 10       		.byte	0x10
 5157 06ce 51       		.byte	0x51
 5158 06cf 09       		.byte	0x9
 5159 06d0 09070000 		.4byte	0x709
 5160 06d4 07       		.uleb128 0x7
 5161 06d5 AA0C0000 		.4byte	.LASF94
 5162 06d9 10       		.byte	0x10
 5163 06da 55       		.byte	0x55
 5164 06db 19       		.byte	0x19
 5165 06dc 43010000 		.4byte	0x143
 5166 06e0 00       		.byte	0
 5167 06e1 07       		.uleb128 0x7
 5168 06e2 10010000 		.4byte	.LASF95
 5169 06e6 10       		.byte	0x10
 5170 06e7 59       		.byte	0x59
 5171 06e8 1A       		.byte	0x1a
 5172 06e9 A1020000 		.4byte	0x2a1
ARM GAS  /tmp/ccvURch4.s 			page 94


 5173 06ed 04       		.byte	0x4
 5174 06ee 07       		.uleb128 0x7
 5175 06ef 73060000 		.4byte	.LASF96
 5176 06f3 10       		.byte	0x10
 5177 06f4 5D       		.byte	0x5d
 5178 06f5 1A       		.byte	0x1a
 5179 06f6 8E030000 		.4byte	0x38e
 5180 06fa 08       		.byte	0x8
 5181 06fb 07       		.uleb128 0x7
 5182 06fc 6C040000 		.4byte	.LASF97
 5183 0700 10       		.byte	0x10
 5184 0701 61       		.byte	0x61
 5185 0702 19       		.byte	0x19
 5186 0703 73000000 		.4byte	0x73
 5187 0707 0C       		.byte	0xc
 5188 0708 00       		.byte	0
 5189 0709 03       		.uleb128 0x3
 5190 070a 7B050000 		.4byte	.LASF98
 5191 070e 10       		.byte	0x10
 5192 070f 62       		.byte	0x62
 5193 0710 03       		.byte	0x3
 5194 0711 CB060000 		.4byte	0x6cb
 5195 0715 17       		.uleb128 0x17
 5196 0716 0804     		.2byte	0x408
 5197 0718 10       		.byte	0x10
 5198 0719 67       		.byte	0x67
 5199 071a 09       		.byte	0x9
 5200 071b 47070000 		.4byte	0x747
 5201 071f 07       		.uleb128 0x7
 5202 0720 2E060000 		.4byte	.LASF99
 5203 0724 10       		.byte	0x10
 5204 0725 6B       		.byte	0x6b
 5205 0726 19       		.byte	0x19
 5206 0727 38000000 		.4byte	0x38
 5207 072b 00       		.byte	0
 5208 072c 07       		.uleb128 0x7
 5209 072d C00C0000 		.4byte	.LASF100
 5210 0731 10       		.byte	0x10
 5211 0732 6F       		.byte	0x6f
 5212 0733 1A       		.byte	0x1a
 5213 0734 47070000 		.4byte	0x747
 5214 0738 04       		.byte	0x4
 5215 0739 07       		.uleb128 0x7
 5216 073a 1C070000 		.4byte	.LASF101
 5217 073e 10       		.byte	0x10
 5218 073f 73       		.byte	0x73
 5219 0740 19       		.byte	0x19
 5220 0741 4D070000 		.4byte	0x74d
 5221 0745 08       		.byte	0x8
 5222 0746 00       		.byte	0
 5223 0747 0A       		.uleb128 0xa
 5224 0748 04       		.byte	0x4
 5225 0749 09070000 		.4byte	0x709
 5226 074d 18       		.uleb128 0x18
 5227 074e 09070000 		.4byte	0x709
 5228 0752 5D070000 		.4byte	0x75d
 5229 0756 19       		.uleb128 0x19
ARM GAS  /tmp/ccvURch4.s 			page 95


 5230 0757 38000000 		.4byte	0x38
 5231 075b 3F       		.byte	0x3f
 5232 075c 00       		.byte	0
 5233 075d 03       		.uleb128 0x3
 5234 075e FF030000 		.4byte	.LASF102
 5235 0762 10       		.byte	0x10
 5236 0763 74       		.byte	0x74
 5237 0764 03       		.byte	0x3
 5238 0765 15070000 		.4byte	0x715
 5239 0769 16       		.uleb128 0x16
 5240 076a 04       		.byte	0x4
 5241 076b 11       		.byte	0x11
 5242 076c 38       		.byte	0x38
 5243 076d 09       		.byte	0x9
 5244 076e 80070000 		.4byte	0x780
 5245 0772 07       		.uleb128 0x7
 5246 0773 15070000 		.4byte	.LASF103
 5247 0777 11       		.byte	0x11
 5248 0778 3C       		.byte	0x3c
 5249 0779 19       		.byte	0x19
 5250 077a BF000000 		.4byte	0xbf
 5251 077e 00       		.byte	0
 5252 077f 00       		.byte	0
 5253 0780 03       		.uleb128 0x3
 5254 0781 17090000 		.4byte	.LASF104
 5255 0785 11       		.byte	0x11
 5256 0786 3D       		.byte	0x3d
 5257 0787 03       		.byte	0x3
 5258 0788 69070000 		.4byte	0x769
 5259 078c 16       		.uleb128 0x16
 5260 078d 18       		.byte	0x18
 5261 078e 11       		.byte	0x11
 5262 078f 48       		.byte	0x48
 5263 0790 09       		.byte	0x9
 5264 0791 D5070000 		.4byte	0x7d5
 5265 0795 07       		.uleb128 0x7
 5266 0796 D7080000 		.4byte	.LASF105
 5267 079a 11       		.byte	0x11
 5268 079b 49       		.byte	0x49
 5269 079c 19       		.byte	0x19
 5270 079d BF000000 		.4byte	0xbf
 5271 07a1 00       		.byte	0
 5272 07a2 07       		.uleb128 0x7
 5273 07a3 C6030000 		.4byte	.LASF106
 5274 07a7 11       		.byte	0x11
 5275 07a8 4A       		.byte	0x4a
 5276 07a9 19       		.byte	0x19
 5277 07aa BF000000 		.4byte	0xbf
 5278 07ae 04       		.byte	0x4
 5279 07af 07       		.uleb128 0x7
 5280 07b0 D30C0000 		.4byte	.LASF107
 5281 07b4 11       		.byte	0x11
 5282 07b5 4B       		.byte	0x4b
 5283 07b6 19       		.byte	0x19
 5284 07b7 BF000000 		.4byte	0xbf
 5285 07bb 08       		.byte	0x8
 5286 07bc 15       		.uleb128 0x15
ARM GAS  /tmp/ccvURch4.s 			page 96


 5287 07bd 6E00     		.ascii	"n\000"
 5288 07bf 11       		.byte	0x11
 5289 07c0 4C       		.byte	0x4c
 5290 07c1 19       		.byte	0x19
 5291 07c2 37010000 		.4byte	0x137
 5292 07c6 0C       		.byte	0xc
 5293 07c7 07       		.uleb128 0x7
 5294 07c8 A0020000 		.4byte	.LASF108
 5295 07cc 11       		.byte	0x11
 5296 07cd 4D       		.byte	0x4d
 5297 07ce 19       		.byte	0x19
 5298 07cf CB000000 		.4byte	0xcb
 5299 07d3 10       		.byte	0x10
 5300 07d4 00       		.byte	0
 5301 07d5 03       		.uleb128 0x3
 5302 07d6 16010000 		.4byte	.LASF109
 5303 07da 11       		.byte	0x11
 5304 07db 4E       		.byte	0x4e
 5305 07dc 03       		.byte	0x3
 5306 07dd 8C070000 		.4byte	0x78c
 5307 07e1 16       		.uleb128 0x16
 5308 07e2 38       		.byte	0x38
 5309 07e3 12       		.byte	0x12
 5310 07e4 38       		.byte	0x38
 5311 07e5 09       		.byte	0x9
 5312 07e6 1F080000 		.4byte	0x81f
 5313 07ea 07       		.uleb128 0x7
 5314 07eb A5050000 		.4byte	.LASF110
 5315 07ef 12       		.byte	0x12
 5316 07f0 39       		.byte	0x39
 5317 07f1 19       		.byte	0x19
 5318 07f2 37010000 		.4byte	0x137
 5319 07f6 00       		.byte	0
 5320 07f7 07       		.uleb128 0x7
 5321 07f8 99030000 		.4byte	.LASF111
 5322 07fc 12       		.byte	0x12
 5323 07fd 3A       		.byte	0x3a
 5324 07fe 19       		.byte	0x19
 5325 07ff 37010000 		.4byte	0x137
 5326 0803 04       		.byte	0x4
 5327 0804 07       		.uleb128 0x7
 5328 0805 75040000 		.4byte	.LASF112
 5329 0809 12       		.byte	0x12
 5330 080a 3B       		.byte	0x3b
 5331 080b 19       		.byte	0x19
 5332 080c D5070000 		.4byte	0x7d5
 5333 0810 08       		.byte	0x8
 5334 0811 07       		.uleb128 0x7
 5335 0812 57040000 		.4byte	.LASF113
 5336 0816 12       		.byte	0x12
 5337 0817 3D       		.byte	0x3d
 5338 0818 19       		.byte	0x19
 5339 0819 D5070000 		.4byte	0x7d5
 5340 081d 20       		.byte	0x20
 5341 081e 00       		.byte	0
 5342 081f 03       		.uleb128 0x3
 5343 0820 FD060000 		.4byte	.LASF114
ARM GAS  /tmp/ccvURch4.s 			page 97


 5344 0824 12       		.byte	0x12
 5345 0825 3F       		.byte	0x3f
 5346 0826 03       		.byte	0x3
 5347 0827 E1070000 		.4byte	0x7e1
 5348 082b 1A       		.uleb128 0x1a
 5349 082c 04       		.byte	0x4
 5350 082d 0C       		.byte	0xc
 5351 082e FA       		.byte	0xfa
 5352 082f 03       		.byte	0x3
 5353 0830 90080000 		.4byte	0x890
 5354 0834 1B       		.uleb128 0x1b
 5355 0835 230C0000 		.4byte	.LASF115
 5356 0839 0C       		.byte	0xc
 5357 083a 0101     		.2byte	0x101
 5358 083c 19       		.byte	0x19
 5359 083d 13010000 		.4byte	0x113
 5360 0841 1B       		.uleb128 0x1b
 5361 0842 7C010000 		.4byte	.LASF116
 5362 0846 0C       		.byte	0xc
 5363 0847 0801     		.2byte	0x108
 5364 0849 19       		.byte	0x19
 5365 084a 13010000 		.4byte	0x113
 5366 084e 1B       		.uleb128 0x1b
 5367 084f 92030000 		.4byte	.LASF117
 5368 0853 0C       		.byte	0xc
 5369 0854 0F01     		.2byte	0x10f
 5370 0856 1A       		.byte	0x1a
 5371 0857 8E030000 		.4byte	0x38e
 5372 085b 1B       		.uleb128 0x1b
 5373 085c E5020000 		.4byte	.LASF118
 5374 0860 0C       		.byte	0xc
 5375 0861 1601     		.2byte	0x116
 5376 0863 1A       		.byte	0x1a
 5377 0864 90080000 		.4byte	0x890
 5378 0868 1B       		.uleb128 0x1b
 5379 0869 0F000000 		.4byte	.LASF119
 5380 086d 0C       		.byte	0xc
 5381 086e 1E01     		.2byte	0x11e
 5382 0870 1A       		.byte	0x1a
 5383 0871 BE080000 		.4byte	0x8be
 5384 0875 1B       		.uleb128 0x1b
 5385 0876 1C040000 		.4byte	.LASF120
 5386 087a 0C       		.byte	0xc
 5387 087b 2701     		.2byte	0x127
 5388 087d 1A       		.byte	0x1a
 5389 087e 06090000 		.4byte	0x906
 5390 0882 1B       		.uleb128 0x1b
 5391 0883 A3010000 		.4byte	.LASF121
 5392 0887 0C       		.byte	0xc
 5393 0888 2F01     		.2byte	0x12f
 5394 088a 19       		.byte	0x19
 5395 088b 1F010000 		.4byte	0x11f
 5396 088f 00       		.byte	0
 5397 0890 0A       		.uleb128 0xa
 5398 0891 04       		.byte	0x4
 5399 0892 95020000 		.4byte	0x295
 5400 0896 06       		.uleb128 0x6
ARM GAS  /tmp/ccvURch4.s 			page 98


 5401 0897 D7040000 		.4byte	.LASF122
 5402 089b 0C       		.byte	0xc
 5403 089c 13       		.byte	0x13
 5404 089d 34       		.byte	0x34
 5405 089e 10       		.byte	0x10
 5406 089f BE080000 		.4byte	0x8be
 5407 08a3 07       		.uleb128 0x7
 5408 08a4 4E090000 		.4byte	.LASF123
 5409 08a8 13       		.byte	0x13
 5410 08a9 35       		.byte	0x35
 5411 08aa 19       		.byte	0x19
 5412 08ab CE020000 		.4byte	0x2ce
 5413 08af 00       		.byte	0
 5414 08b0 07       		.uleb128 0x7
 5415 08b1 CE070000 		.4byte	.LASF124
 5416 08b5 13       		.byte	0x13
 5417 08b6 37       		.byte	0x37
 5418 08b7 19       		.byte	0x19
 5419 08b8 2B010000 		.4byte	0x12b
 5420 08bc 08       		.byte	0x8
 5421 08bd 00       		.byte	0
 5422 08be 0A       		.uleb128 0xa
 5423 08bf 04       		.byte	0x4
 5424 08c0 96080000 		.4byte	0x896
 5425 08c4 06       		.uleb128 0x6
 5426 08c5 77090000 		.4byte	.LASF125
 5427 08c9 14       		.byte	0x14
 5428 08ca 14       		.byte	0x14
 5429 08cb 39       		.byte	0x39
 5430 08cc 08       		.byte	0x8
 5431 08cd 06090000 		.4byte	0x906
 5432 08d1 07       		.uleb128 0x7
 5433 08d2 EF050000 		.4byte	.LASF126
 5434 08d6 14       		.byte	0x14
 5435 08d7 3A       		.byte	0x3a
 5436 08d8 19       		.byte	0x19
 5437 08d9 CE020000 		.4byte	0x2ce
 5438 08dd 00       		.byte	0
 5439 08de 07       		.uleb128 0x7
 5440 08df 6D010000 		.4byte	.LASF127
 5441 08e3 14       		.byte	0x14
 5442 08e4 3C       		.byte	0x3c
 5443 08e5 1A       		.byte	0x1a
 5444 08e6 A1020000 		.4byte	0x2a1
 5445 08ea 08       		.byte	0x8
 5446 08eb 07       		.uleb128 0x7
 5447 08ec B90C0000 		.4byte	.LASF128
 5448 08f0 14       		.byte	0x14
 5449 08f1 3E       		.byte	0x3e
 5450 08f2 1A       		.byte	0x1a
 5451 08f3 840A0000 		.4byte	0xa84
 5452 08f7 0C       		.byte	0xc
 5453 08f8 07       		.uleb128 0x7
 5454 08f9 8C030000 		.4byte	.LASF129
 5455 08fd 14       		.byte	0x14
 5456 08fe 41       		.byte	0x41
 5457 08ff 19       		.byte	0x19
ARM GAS  /tmp/ccvURch4.s 			page 99


 5458 0900 2B010000 		.4byte	0x12b
 5459 0904 10       		.byte	0x10
 5460 0905 00       		.byte	0
 5461 0906 0A       		.uleb128 0xa
 5462 0907 04       		.byte	0x4
 5463 0908 C4080000 		.4byte	0x8c4
 5464 090c 0A       		.uleb128 0xa
 5465 090d 04       		.byte	0x4
 5466 090e 1E090000 		.4byte	0x91e
 5467 0912 05       		.uleb128 0x5
 5468 0913 0C090000 		.4byte	0x90c
 5469 0917 04       		.uleb128 0x4
 5470 0918 01       		.byte	0x1
 5471 0919 08       		.byte	0x8
 5472 091a 6F030000 		.4byte	.LASF130
 5473 091e 0F       		.uleb128 0xf
 5474 091f 17090000 		.4byte	0x917
 5475 0923 0A       		.uleb128 0xa
 5476 0924 04       		.byte	0x4
 5477 0925 43050000 		.4byte	0x543
 5478 0929 0A       		.uleb128 0xa
 5479 092a 04       		.byte	0x4
 5480 092b 95030000 		.4byte	0x395
 5481 092f 18       		.uleb128 0x18
 5482 0930 43050000 		.4byte	0x543
 5483 0934 3F090000 		.4byte	0x93f
 5484 0938 19       		.uleb128 0x19
 5485 0939 38000000 		.4byte	0x38
 5486 093d 30       		.byte	0x30
 5487 093e 00       		.byte	0
 5488 093f 1C       		.uleb128 0x1c
 5489 0940 636800   		.ascii	"ch\000"
 5490 0943 0C       		.byte	0xc
 5491 0944 0902     		.2byte	0x209
 5492 0946 14       		.byte	0x14
 5493 0947 9D040000 		.4byte	0x49d
 5494 094b 16       		.uleb128 0x16
 5495 094c 16       		.byte	0x16
 5496 094d 15       		.byte	0x15
 5497 094e 34       		.byte	0x34
 5498 094f 09       		.byte	0x9
 5499 0950 3F0A0000 		.4byte	0xa3f
 5500 0954 07       		.uleb128 0x7
 5501 0955 39000000 		.4byte	.LASF131
 5502 0959 15       		.byte	0x15
 5503 095a 35       		.byte	0x35
 5504 095b 0D       		.byte	0xd
 5505 095c 3F0A0000 		.4byte	0xa3f
 5506 0960 00       		.byte	0
 5507 0961 07       		.uleb128 0x7
 5508 0962 9E040000 		.4byte	.LASF132
 5509 0966 15       		.byte	0x15
 5510 0967 36       		.byte	0x36
 5511 0968 0D       		.byte	0xd
 5512 0969 73000000 		.4byte	0x73
 5513 096d 04       		.byte	0x4
 5514 096e 07       		.uleb128 0x7
ARM GAS  /tmp/ccvURch4.s 			page 100


 5515 096f 650C0000 		.4byte	.LASF133
 5516 0973 15       		.byte	0x15
 5517 0974 37       		.byte	0x37
 5518 0975 0D       		.byte	0xd
 5519 0976 73000000 		.4byte	0x73
 5520 097a 05       		.byte	0x5
 5521 097b 07       		.uleb128 0x7
 5522 097c E4050000 		.4byte	.LASF134
 5523 0980 15       		.byte	0x15
 5524 0981 38       		.byte	0x38
 5525 0982 0D       		.byte	0xd
 5526 0983 86000000 		.4byte	0x86
 5527 0987 06       		.byte	0x6
 5528 0988 07       		.uleb128 0x7
 5529 0989 F8000000 		.4byte	.LASF135
 5530 098d 15       		.byte	0x15
 5531 098e 39       		.byte	0x39
 5532 098f 0D       		.byte	0xd
 5533 0990 73000000 		.4byte	0x73
 5534 0994 08       		.byte	0x8
 5535 0995 07       		.uleb128 0x7
 5536 0996 E3060000 		.4byte	.LASF136
 5537 099a 15       		.byte	0x15
 5538 099b 3A       		.byte	0x3a
 5539 099c 0D       		.byte	0xd
 5540 099d 73000000 		.4byte	0x73
 5541 09a1 09       		.byte	0x9
 5542 09a2 07       		.uleb128 0x7
 5543 09a3 AA010000 		.4byte	.LASF137
 5544 09a7 15       		.byte	0x15
 5545 09a8 3B       		.byte	0x3b
 5546 09a9 0D       		.byte	0xd
 5547 09aa 73000000 		.4byte	0x73
 5548 09ae 0A       		.byte	0xa
 5549 09af 07       		.uleb128 0x7
 5550 09b0 BA030000 		.4byte	.LASF138
 5551 09b4 15       		.byte	0x15
 5552 09b5 3C       		.byte	0x3c
 5553 09b6 0D       		.byte	0xd
 5554 09b7 73000000 		.4byte	0x73
 5555 09bb 0B       		.byte	0xb
 5556 09bc 07       		.uleb128 0x7
 5557 09bd A9000000 		.4byte	.LASF139
 5558 09c1 15       		.byte	0x15
 5559 09c2 3D       		.byte	0x3d
 5560 09c3 0D       		.byte	0xd
 5561 09c4 73000000 		.4byte	0x73
 5562 09c8 0C       		.byte	0xc
 5563 09c9 07       		.uleb128 0x7
 5564 09ca A2030000 		.4byte	.LASF140
 5565 09ce 15       		.byte	0x15
 5566 09cf 3E       		.byte	0x3e
 5567 09d0 0D       		.byte	0xd
 5568 09d1 73000000 		.4byte	0x73
 5569 09d5 0D       		.byte	0xd
 5570 09d6 07       		.uleb128 0x7
 5571 09d7 AE090000 		.4byte	.LASF141
ARM GAS  /tmp/ccvURch4.s 			page 101


 5572 09db 15       		.byte	0x15
 5573 09dc 3F       		.byte	0x3f
 5574 09dd 0D       		.byte	0xd
 5575 09de 73000000 		.4byte	0x73
 5576 09e2 0E       		.byte	0xe
 5577 09e3 07       		.uleb128 0x7
 5578 09e4 16000000 		.4byte	.LASF142
 5579 09e8 15       		.byte	0x15
 5580 09e9 40       		.byte	0x40
 5581 09ea 0D       		.byte	0xd
 5582 09eb 73000000 		.4byte	0x73
 5583 09ef 0F       		.byte	0xf
 5584 09f0 07       		.uleb128 0x7
 5585 09f1 1E0A0000 		.4byte	.LASF143
 5586 09f5 15       		.byte	0x15
 5587 09f6 41       		.byte	0x41
 5588 09f7 0D       		.byte	0xd
 5589 09f8 73000000 		.4byte	0x73
 5590 09fc 10       		.byte	0x10
 5591 09fd 07       		.uleb128 0x7
 5592 09fe 17020000 		.4byte	.LASF144
 5593 0a02 15       		.byte	0x15
 5594 0a03 43       		.byte	0x43
 5595 0a04 0D       		.byte	0xd
 5596 0a05 73000000 		.4byte	0x73
 5597 0a09 11       		.byte	0x11
 5598 0a0a 07       		.uleb128 0x7
 5599 0a0b 2D080000 		.4byte	.LASF145
 5600 0a0f 15       		.byte	0x15
 5601 0a10 44       		.byte	0x44
 5602 0a11 0D       		.byte	0xd
 5603 0a12 73000000 		.4byte	0x73
 5604 0a16 12       		.byte	0x12
 5605 0a17 07       		.uleb128 0x7
 5606 0a18 55070000 		.4byte	.LASF146
 5607 0a1c 15       		.byte	0x15
 5608 0a1d 45       		.byte	0x45
 5609 0a1e 0D       		.byte	0xd
 5610 0a1f 73000000 		.4byte	0x73
 5611 0a23 13       		.byte	0x13
 5612 0a24 07       		.uleb128 0x7
 5613 0a25 B6050000 		.4byte	.LASF147
 5614 0a29 15       		.byte	0x15
 5615 0a2a 46       		.byte	0x46
 5616 0a2b 0D       		.byte	0xd
 5617 0a2c 73000000 		.4byte	0x73
 5618 0a30 14       		.byte	0x14
 5619 0a31 07       		.uleb128 0x7
 5620 0a32 A8070000 		.4byte	.LASF148
 5621 0a36 15       		.byte	0x15
 5622 0a37 48       		.byte	0x48
 5623 0a38 0D       		.byte	0xd
 5624 0a39 73000000 		.4byte	0x73
 5625 0a3d 15       		.byte	0x15
 5626 0a3e 00       		.byte	0
 5627 0a3f 18       		.uleb128 0x18
 5628 0a40 17090000 		.4byte	0x917
ARM GAS  /tmp/ccvURch4.s 			page 102


 5629 0a44 4F0A0000 		.4byte	0xa4f
 5630 0a48 19       		.uleb128 0x19
 5631 0a49 38000000 		.4byte	0x38
 5632 0a4d 03       		.byte	0x3
 5633 0a4e 00       		.byte	0
 5634 0a4f 03       		.uleb128 0x3
 5635 0a50 490C0000 		.4byte	.LASF149
 5636 0a54 15       		.byte	0x15
 5637 0a55 49       		.byte	0x49
 5638 0a56 03       		.byte	0x3
 5639 0a57 4B090000 		.4byte	0x94b
 5640 0a5b 0F       		.uleb128 0xf
 5641 0a5c 4F0A0000 		.4byte	0xa4f
 5642 0a60 14       		.uleb128 0x14
 5643 0a61 7A000000 		.4byte	.LASF150
 5644 0a65 15       		.byte	0x15
 5645 0a66 6E       		.byte	0x6e
 5646 0a67 1D       		.byte	0x1d
 5647 0a68 5B0A0000 		.4byte	0xa5b
 5648 0a6c 03       		.uleb128 0x3
 5649 0a6d C70C0000 		.4byte	.LASF151
 5650 0a71 13       		.byte	0x13
 5651 0a72 38       		.byte	0x38
 5652 0a73 03       		.byte	0x3
 5653 0a74 96080000 		.4byte	0x896
 5654 0a78 03       		.uleb128 0x3
 5655 0a79 000A0000 		.4byte	.LASF152
 5656 0a7d 14       		.byte	0x14
 5657 0a7e 34       		.byte	0x34
 5658 0a7f 19       		.byte	0x19
 5659 0a80 C4080000 		.4byte	0x8c4
 5660 0a84 0A       		.uleb128 0xa
 5661 0a85 04       		.byte	0x4
 5662 0a86 780A0000 		.4byte	0xa78
 5663 0a8a 03       		.uleb128 0x3
 5664 0a8b BB090000 		.4byte	.LASF153
 5665 0a8f 07       		.byte	0x7
 5666 0a90 3F       		.byte	0x3f
 5667 0a91 19       		.byte	0x19
 5668 0a92 960A0000 		.4byte	0xa96
 5669 0a96 06       		.uleb128 0x6
 5670 0a97 6F020000 		.4byte	.LASF154
 5671 0a9b 24       		.byte	0x24
 5672 0a9c 07       		.byte	0x7
 5673 0a9d 4D       		.byte	0x4d
 5674 0a9e 08       		.byte	0x8
 5675 0a9f 0C0B0000 		.4byte	0xb0c
 5676 0aa3 07       		.uleb128 0x7
 5677 0aa4 E4080000 		.4byte	.LASF155
 5678 0aa8 07       		.byte	0x7
 5679 0aa9 4E       		.byte	0x4e
 5680 0aaa 19       		.byte	0x19
 5681 0aab CE020000 		.4byte	0x2ce
 5682 0aaf 00       		.byte	0
 5683 0ab0 07       		.uleb128 0x7
 5684 0ab1 62040000 		.4byte	.LASF156
 5685 0ab5 07       		.byte	0x7
ARM GAS  /tmp/ccvURch4.s 			page 103


 5686 0ab6 4F       		.byte	0x4f
 5687 0ab7 19       		.byte	0x19
 5688 0ab8 2C000000 		.4byte	0x2c
 5689 0abc 08       		.byte	0x8
 5690 0abd 07       		.uleb128 0x7
 5691 0abe B8010000 		.4byte	.LASF157
 5692 0ac2 07       		.byte	0x7
 5693 0ac3 50       		.byte	0x50
 5694 0ac4 1A       		.byte	0x1a
 5695 0ac5 2F0B0000 		.4byte	0xb2f
 5696 0ac9 0C       		.byte	0xc
 5697 0aca 07       		.uleb128 0x7
 5698 0acb 9D010000 		.4byte	.LASF158
 5699 0acf 07       		.byte	0x7
 5700 0ad0 51       		.byte	0x51
 5701 0ad1 1A       		.byte	0x1a
 5702 0ad2 2F0B0000 		.4byte	0xb2f
 5703 0ad6 10       		.byte	0x10
 5704 0ad7 07       		.uleb128 0x7
 5705 0ad8 26050000 		.4byte	.LASF159
 5706 0adc 07       		.byte	0x7
 5707 0add 53       		.byte	0x53
 5708 0ade 1A       		.byte	0x1a
 5709 0adf 2F0B0000 		.4byte	0xb2f
 5710 0ae3 14       		.byte	0x14
 5711 0ae4 07       		.uleb128 0x7
 5712 0ae5 F8010000 		.4byte	.LASF160
 5713 0ae9 07       		.byte	0x7
 5714 0aea 54       		.byte	0x54
 5715 0aeb 1A       		.byte	0x1a
 5716 0aec 2F0B0000 		.4byte	0xb2f
 5717 0af0 18       		.byte	0x18
 5718 0af1 07       		.uleb128 0x7
 5719 0af2 CB010000 		.4byte	.LASF161
 5720 0af6 07       		.byte	0x7
 5721 0af7 55       		.byte	0x55
 5722 0af8 19       		.byte	0x19
 5723 0af9 0C0B0000 		.4byte	0xb0c
 5724 0afd 1C       		.byte	0x1c
 5725 0afe 07       		.uleb128 0x7
 5726 0aff F9020000 		.4byte	.LASF162
 5727 0b03 07       		.byte	0x7
 5728 0b04 56       		.byte	0x56
 5729 0b05 1A       		.byte	0x1a
 5730 0b06 8E030000 		.4byte	0x38e
 5731 0b0a 20       		.byte	0x20
 5732 0b0b 00       		.byte	0
 5733 0b0c 03       		.uleb128 0x3
 5734 0b0d 5F060000 		.4byte	.LASF163
 5735 0b11 07       		.byte	0x7
 5736 0b12 42       		.byte	0x42
 5737 0b13 10       		.byte	0x10
 5738 0b14 180B0000 		.4byte	0xb18
 5739 0b18 0A       		.uleb128 0xa
 5740 0b19 04       		.byte	0x4
 5741 0b1a 1E0B0000 		.4byte	0xb1e
 5742 0b1e 0C       		.uleb128 0xc
ARM GAS  /tmp/ccvURch4.s 			page 104


 5743 0b1f 290B0000 		.4byte	0xb29
 5744 0b23 0D       		.uleb128 0xd
 5745 0b24 290B0000 		.4byte	0xb29
 5746 0b28 00       		.byte	0
 5747 0b29 0A       		.uleb128 0xa
 5748 0b2a 04       		.byte	0x4
 5749 0b2b 8A0A0000 		.4byte	0xa8a
 5750 0b2f 0A       		.uleb128 0xa
 5751 0b30 04       		.byte	0x4
 5752 0b31 73000000 		.4byte	0x73
 5753 0b35 03       		.uleb128 0x3
 5754 0b36 0B0C0000 		.4byte	.LASF164
 5755 0b3a 07       		.byte	0x7
 5756 0b3b 64       		.byte	0x64
 5757 0b3c 14       		.byte	0x14
 5758 0b3d 8A0A0000 		.4byte	0xa8a
 5759 0b41 06       		.uleb128 0x6
 5760 0b42 95090000 		.4byte	.LASF165
 5761 0b46 10       		.byte	0x10
 5762 0b47 16       		.byte	0x16
 5763 0b48 3B       		.byte	0x3b
 5764 0b49 08       		.byte	0x8
 5765 0b4a 830B0000 		.4byte	0xb83
 5766 0b4e 07       		.uleb128 0x7
 5767 0b4f 3F090000 		.4byte	.LASF166
 5768 0b53 16       		.byte	0x16
 5769 0b54 3C       		.byte	0x3c
 5770 0b55 0F       		.byte	0xf
 5771 0b56 0C090000 		.4byte	0x90c
 5772 0b5a 00       		.byte	0
 5773 0b5b 07       		.uleb128 0x7
 5774 0b5c F9030000 		.4byte	.LASF167
 5775 0b60 16       		.byte	0x16
 5776 0b61 3D       		.byte	0x3d
 5777 0b62 0A       		.byte	0xa
 5778 0b63 890B0000 		.4byte	0xb89
 5779 0b67 04       		.byte	0x4
 5780 0b68 07       		.uleb128 0x7
 5781 0b69 0C070000 		.4byte	.LASF168
 5782 0b6d 16       		.byte	0x16
 5783 0b6e 3E       		.byte	0x3e
 5784 0b6f 0A       		.byte	0xa
 5785 0b70 890B0000 		.4byte	0xb89
 5786 0b74 08       		.byte	0x8
 5787 0b75 07       		.uleb128 0x7
 5788 0b76 4E080000 		.4byte	.LASF169
 5789 0b7a 16       		.byte	0x16
 5790 0b7b 3F       		.byte	0x3f
 5791 0b7c 0A       		.byte	0xa
 5792 0b7d 890B0000 		.4byte	0xb89
 5793 0b81 0C       		.byte	0xc
 5794 0b82 00       		.byte	0
 5795 0b83 0F       		.uleb128 0xf
 5796 0b84 410B0000 		.4byte	0xb41
 5797 0b88 1D       		.uleb128 0x1d
 5798 0b89 0A       		.uleb128 0xa
 5799 0b8a 04       		.byte	0x4
ARM GAS  /tmp/ccvURch4.s 			page 105


 5800 0b8b 880B0000 		.4byte	0xb88
 5801 0b8f 17       		.uleb128 0x17
 5802 0b90 D809     		.2byte	0x9d8
 5803 0b92 16       		.byte	0x16
 5804 0b93 44       		.byte	0x44
 5805 0b94 03       		.byte	0x3
 5806 0b95 DA0B0000 		.4byte	0xbda
 5807 0b99 15       		.uleb128 0x15
 5808 0b9a 543000   		.ascii	"T0\000"
 5809 0b9d 16       		.byte	0x16
 5810 0b9e 45       		.byte	0x45
 5811 0b9f 05       		.byte	0x5
 5812 0ba0 DA0B0000 		.4byte	0xbda
 5813 0ba4 00       		.byte	0
 5814 0ba5 1E       		.uleb128 0x1e
 5815 0ba6 543100   		.ascii	"T1\000"
 5816 0ba9 16       		.byte	0x16
 5817 0baa 46       		.byte	0x46
 5818 0bab 05       		.byte	0x5
 5819 0bac DA0B0000 		.4byte	0xbda
 5820 0bb0 F801     		.2byte	0x1f8
 5821 0bb2 1E       		.uleb128 0x1e
 5822 0bb3 543200   		.ascii	"T2\000"
 5823 0bb6 16       		.byte	0x16
 5824 0bb7 47       		.byte	0x47
 5825 0bb8 05       		.byte	0x5
 5826 0bb9 DA0B0000 		.4byte	0xbda
 5827 0bbd F003     		.2byte	0x3f0
 5828 0bbf 1E       		.uleb128 0x1e
 5829 0bc0 543300   		.ascii	"T3\000"
 5830 0bc3 16       		.byte	0x16
 5831 0bc4 48       		.byte	0x48
 5832 0bc5 05       		.byte	0x5
 5833 0bc6 DA0B0000 		.4byte	0xbda
 5834 0bca E805     		.2byte	0x5e8
 5835 0bcc 1E       		.uleb128 0x1e
 5836 0bcd 543400   		.ascii	"T4\000"
 5837 0bd0 16       		.byte	0x16
 5838 0bd1 49       		.byte	0x49
 5839 0bd2 05       		.byte	0x5
 5840 0bd3 DA0B0000 		.4byte	0xbda
 5841 0bd7 E007     		.2byte	0x7e0
 5842 0bd9 00       		.byte	0
 5843 0bda 18       		.uleb128 0x18
 5844 0bdb 43050000 		.4byte	0x543
 5845 0bdf EA0B0000 		.4byte	0xbea
 5846 0be3 19       		.uleb128 0x19
 5847 0be4 38000000 		.4byte	0x38
 5848 0be8 3E       		.byte	0x3e
 5849 0be9 00       		.byte	0
 5850 0bea 1F       		.uleb128 0x1f
 5851 0beb 83000000 		.4byte	.LASF264
 5852 0bef D809     		.2byte	0x9d8
 5853 0bf1 16       		.byte	0x16
 5854 0bf2 43       		.byte	0x43
 5855 0bf3 07       		.byte	0x7
 5856 0bf4 100C0000 		.4byte	0xc10
ARM GAS  /tmp/ccvURch4.s 			page 106


 5857 0bf8 20       		.uleb128 0x20
 5858 0bf9 776100   		.ascii	"wa\000"
 5859 0bfc 16       		.byte	0x16
 5860 0bfd 4A       		.byte	0x4a
 5861 0bfe 05       		.byte	0x5
 5862 0bff 8F0B0000 		.4byte	0xb8f
 5863 0c03 21       		.uleb128 0x21
 5864 0c04 F2030000 		.4byte	.LASF170
 5865 0c08 16       		.byte	0x16
 5866 0c09 4B       		.byte	0x4b
 5867 0c0a 0B       		.byte	0xb
 5868 0c0b 100C0000 		.4byte	0xc10
 5869 0c0f 00       		.byte	0
 5870 0c10 18       		.uleb128 0x18
 5871 0c11 73000000 		.4byte	0x73
 5872 0c15 210C0000 		.4byte	0xc21
 5873 0c19 22       		.uleb128 0x22
 5874 0c1a 38000000 		.4byte	0x38
 5875 0c1e D709     		.2byte	0x9d7
 5876 0c20 00       		.byte	0
 5877 0c21 14       		.uleb128 0x14
 5878 0c22 7D080000 		.4byte	.LASF171
 5879 0c26 16       		.byte	0x16
 5880 0c27 4F       		.byte	0x4f
 5881 0c28 0D       		.byte	0xd
 5882 0c29 2D0C0000 		.4byte	0xc2d
 5883 0c2d 04       		.uleb128 0x4
 5884 0c2e 01       		.byte	0x1
 5885 0c2f 02       		.byte	0x2
 5886 0c30 49030000 		.4byte	.LASF172
 5887 0c34 18       		.uleb128 0x18
 5888 0c35 A1020000 		.4byte	0x2a1
 5889 0c39 440C0000 		.4byte	0xc44
 5890 0c3d 19       		.uleb128 0x19
 5891 0c3e 38000000 		.4byte	0x38
 5892 0c42 04       		.byte	0x4
 5893 0c43 00       		.byte	0
 5894 0c44 14       		.uleb128 0x14
 5895 0c45 EE080000 		.4byte	.LASF173
 5896 0c49 16       		.byte	0x16
 5897 0c4a A7       		.byte	0xa7
 5898 0c4b 12       		.byte	0x12
 5899 0c4c 340C0000 		.4byte	0xc34
 5900 0c50 14       		.uleb128 0x14
 5901 0c51 2B020000 		.4byte	.LASF174
 5902 0c55 16       		.byte	0x16
 5903 0c56 A8       		.byte	0xa8
 5904 0c57 1B       		.byte	0x1b
 5905 0c58 EA0B0000 		.4byte	0xbea
 5906 0c5c 18       		.uleb128 0x18
 5907 0c5d 90030000 		.4byte	0x390
 5908 0c61 670C0000 		.4byte	0xc67
 5909 0c65 23       		.uleb128 0x23
 5910 0c66 00       		.byte	0
 5911 0c67 0F       		.uleb128 0xf
 5912 0c68 5C0C0000 		.4byte	0xc5c
 5913 0c6c 24       		.uleb128 0x24
ARM GAS  /tmp/ccvURch4.s 			page 107


 5914 0c6d 776100   		.ascii	"wa\000"
 5915 0c70 16       		.byte	0x16
 5916 0c71 A9       		.byte	0xa9
 5917 0c72 18       		.byte	0x18
 5918 0c73 670C0000 		.4byte	0xc67
 5919 0c77 14       		.uleb128 0x14
 5920 0c78 3F040000 		.4byte	.LASF175
 5921 0c7c 16       		.byte	0x16
 5922 0c7d AA       		.byte	0xaa
 5923 0c7e 0D       		.byte	0xd
 5924 0c7f 2D0C0000 		.4byte	0xc2d
 5925 0c83 25       		.uleb128 0x25
 5926 0c84 E4040000 		.4byte	.LASF176
 5927 0c88 01       		.byte	0x1
 5928 0c89 3C       		.byte	0x3c
 5929 0c8a 14       		.byte	0x14
 5930 0c8b 6C0A0000 		.4byte	0xa6c
 5931 0c8f 05       		.uleb128 0x5
 5932 0c90 03       		.byte	0x3
 5933 0c91 00000000 		.4byte	sem1
 5934 0c95 25       		.uleb128 0x25
 5935 0c96 42050000 		.4byte	.LASF177
 5936 0c9a 01       		.byte	0x1
 5937 0c9b 3F       		.byte	0x3f
 5938 0c9c 10       		.byte	0x10
 5939 0c9d 780A0000 		.4byte	0xa78
 5940 0ca1 05       		.uleb128 0x5
 5941 0ca2 03       		.byte	0x3
 5942 0ca3 00000000 		.4byte	mtx1
 5943 0ca7 26       		.uleb128 0x26
 5944 0ca8 47050000 		.4byte	.LASF178
 5945 0cac 01       		.byte	0x1
 5946 0cad 7D       		.byte	0x7d
 5947 0cae 1A       		.byte	0x1a
 5948 0caf 830B0000 		.4byte	0xb83
 5949 0cb3 05       		.uleb128 0x5
 5950 0cb4 03       		.byte	0x3
 5951 0cb5 00000000 		.4byte	testbmk1
 5952 0cb9 26       		.uleb128 0x26
 5953 0cba 50050000 		.4byte	.LASF179
 5954 0cbe 01       		.byte	0x1
 5955 0cbf 9A       		.byte	0x9a
 5956 0cc0 1A       		.byte	0x1a
 5957 0cc1 830B0000 		.4byte	0xb83
 5958 0cc5 05       		.uleb128 0x5
 5959 0cc6 03       		.byte	0x3
 5960 0cc7 00000000 		.4byte	testbmk2
 5961 0ccb 26       		.uleb128 0x26
 5962 0ccc 530C0000 		.4byte	.LASF180
 5963 0cd0 01       		.byte	0x1
 5964 0cd1 BC       		.byte	0xbc
 5965 0cd2 1A       		.byte	0x1a
 5966 0cd3 830B0000 		.4byte	0xb83
 5967 0cd7 05       		.uleb128 0x5
 5968 0cd8 03       		.byte	0x3
 5969 0cd9 00000000 		.4byte	testbmk3
 5970 0cdd 26       		.uleb128 0x26
ARM GAS  /tmp/ccvURch4.s 			page 108


 5971 0cde 69050000 		.4byte	.LASF181
 5972 0ce2 01       		.byte	0x1
 5973 0ce3 FA       		.byte	0xfa
 5974 0ce4 1A       		.byte	0x1a
 5975 0ce5 830B0000 		.4byte	0xb83
 5976 0ce9 05       		.uleb128 0x5
 5977 0cea 03       		.byte	0x3
 5978 0ceb 00000000 		.4byte	testbmk4
 5979 0cef 27       		.uleb128 0x27
 5980 0cf0 72050000 		.4byte	.LASF182
 5981 0cf4 01       		.byte	0x1
 5982 0cf5 1F01     		.2byte	0x11f
 5983 0cf7 1A       		.byte	0x1a
 5984 0cf8 830B0000 		.4byte	0xb83
 5985 0cfc 05       		.uleb128 0x5
 5986 0cfd 03       		.byte	0x3
 5987 0cfe 00000000 		.4byte	testbmk5
 5988 0d02 27       		.uleb128 0x27
 5989 0d03 5C0C0000 		.4byte	.LASF183
 5990 0d07 01       		.byte	0x1
 5991 0d08 4601     		.2byte	0x146
 5992 0d0a 1A       		.byte	0x1a
 5993 0d0b 830B0000 		.4byte	0xb83
 5994 0d0f 05       		.uleb128 0x5
 5995 0d10 03       		.byte	0x3
 5996 0d11 00000000 		.4byte	testbmk6
 5997 0d15 27       		.uleb128 0x27
 5998 0d16 8A050000 		.4byte	.LASF184
 5999 0d1a 01       		.byte	0x1
 6000 0d1b 8301     		.2byte	0x183
 6001 0d1d 1A       		.byte	0x1a
 6002 0d1e 830B0000 		.4byte	0xb83
 6003 0d22 05       		.uleb128 0x5
 6004 0d23 03       		.byte	0x3
 6005 0d24 00000000 		.4byte	testbmk7
 6006 0d28 27       		.uleb128 0x27
 6007 0d29 93050000 		.4byte	.LASF185
 6008 0d2d 01       		.byte	0x1
 6009 0d2e B801     		.2byte	0x1b8
 6010 0d30 1A       		.byte	0x1a
 6011 0d31 830B0000 		.4byte	0xb83
 6012 0d35 05       		.uleb128 0x5
 6013 0d36 03       		.byte	0x3
 6014 0d37 00000000 		.4byte	testbmk8
 6015 0d3b 27       		.uleb128 0x27
 6016 0d3c 9C050000 		.4byte	.LASF186
 6017 0d40 01       		.byte	0x1
 6018 0d41 E801     		.2byte	0x1e8
 6019 0d43 1A       		.byte	0x1a
 6020 0d44 830B0000 		.4byte	0xb83
 6021 0d48 05       		.uleb128 0x5
 6022 0d49 03       		.byte	0x3
 6023 0d4a 00000000 		.4byte	testbmk9
 6024 0d4e 27       		.uleb128 0x27
 6025 0d4f 26070000 		.4byte	.LASF187
 6026 0d53 01       		.byte	0x1
 6027 0d54 1202     		.2byte	0x212
ARM GAS  /tmp/ccvURch4.s 			page 109


 6028 0d56 1A       		.byte	0x1a
 6029 0d57 830B0000 		.4byte	0xb83
 6030 0d5b 05       		.uleb128 0x5
 6031 0d5c 03       		.byte	0x3
 6032 0d5d 00000000 		.4byte	testbmk10
 6033 0d61 27       		.uleb128 0x27
 6034 0d62 30070000 		.4byte	.LASF188
 6035 0d66 01       		.byte	0x1
 6036 0d67 4102     		.2byte	0x241
 6037 0d69 1A       		.byte	0x1a
 6038 0d6a 830B0000 		.4byte	0xb83
 6039 0d6e 05       		.uleb128 0x5
 6040 0d6f 03       		.byte	0x3
 6041 0d70 00000000 		.4byte	testbmk11
 6042 0d74 27       		.uleb128 0x27
 6043 0d75 3A070000 		.4byte	.LASF189
 6044 0d79 01       		.byte	0x1
 6045 0d7a 7102     		.2byte	0x271
 6046 0d7c 1A       		.byte	0x1a
 6047 0d7d 830B0000 		.4byte	0xb83
 6048 0d81 05       		.uleb128 0x5
 6049 0d82 03       		.byte	0x3
 6050 0d83 00000000 		.4byte	testbmk12
 6051 0d87 27       		.uleb128 0x27
 6052 0d88 44070000 		.4byte	.LASF190
 6053 0d8c 01       		.byte	0x1
 6054 0d8d AE02     		.2byte	0x2ae
 6055 0d8f 1A       		.byte	0x1a
 6056 0d90 830B0000 		.4byte	0xb83
 6057 0d94 05       		.uleb128 0x5
 6058 0d95 03       		.byte	0x3
 6059 0d96 00000000 		.4byte	testbmk13
 6060 0d9a 18       		.uleb128 0x18
 6061 0d9b B50D0000 		.4byte	0xdb5
 6062 0d9f AA0D0000 		.4byte	0xdaa
 6063 0da3 19       		.uleb128 0x19
 6064 0da4 38000000 		.4byte	0x38
 6065 0da8 0D       		.byte	0xd
 6066 0da9 00       		.byte	0
 6067 0daa 0F       		.uleb128 0xf
 6068 0dab 9A0D0000 		.4byte	0xd9a
 6069 0daf 0A       		.uleb128 0xa
 6070 0db0 04       		.byte	0x4
 6071 0db1 830B0000 		.4byte	0xb83
 6072 0db5 0F       		.uleb128 0xf
 6073 0db6 AF0D0000 		.4byte	0xdaf
 6074 0dba 27       		.uleb128 0x27
 6075 0dbb 78020000 		.4byte	.LASF191
 6076 0dbf 01       		.byte	0x1
 6077 0dc0 B802     		.2byte	0x2b8
 6078 0dc2 25       		.byte	0x25
 6079 0dc3 AA0D0000 		.4byte	0xdaa
 6080 0dc7 05       		.uleb128 0x5
 6081 0dc8 03       		.byte	0x3
 6082 0dc9 00000000 		.4byte	patternbmk
 6083 0dcd 28       		.uleb128 0x28
 6084 0dce 2C030000 		.4byte	.LASF192
ARM GAS  /tmp/ccvURch4.s 			page 110


 6085 0dd2 01       		.byte	0x1
 6086 0dd3 8002     		.2byte	0x280
 6087 0dd5 0D       		.byte	0xd
 6088 0dd6 00000000 		.4byte	.LFB241
 6089 0dda 08010000 		.4byte	.LFE241-.LFB241
 6090 0dde 01       		.uleb128 0x1
 6091 0ddf 9C       		.byte	0x9c
 6092 0de0 7D100000 		.4byte	0x107d
 6093 0de4 29       		.uleb128 0x29
 6094 0de5 14000000 		.4byte	.LVL2
 6095 0de9 7D2C0000 		.4byte	0x2c7d
 6096 0ded FB0D0000 		.4byte	0xdfb
 6097 0df1 2A       		.uleb128 0x2a
 6098 0df2 01       		.uleb128 0x1
 6099 0df3 50       		.byte	0x50
 6100 0df4 05       		.uleb128 0x5
 6101 0df5 03       		.byte	0x3
 6102 0df6 00000000 		.4byte	.LC1
 6103 0dfa 00       		.byte	0
 6104 0dfb 29       		.uleb128 0x29
 6105 0dfc 1C000000 		.4byte	.LVL3
 6106 0e00 892C0000 		.4byte	0x2c89
 6107 0e04 100E0000 		.4byte	0xe10
 6108 0e08 2A       		.uleb128 0x2a
 6109 0e09 01       		.uleb128 0x1
 6110 0e0a 50       		.byte	0x50
 6111 0e0b 03       		.uleb128 0x3
 6112 0e0c 0A       		.byte	0xa
 6113 0e0d 7006     		.2byte	0x670
 6114 0e0f 00       		.byte	0
 6115 0e10 29       		.uleb128 0x29
 6116 0e11 22000000 		.4byte	.LVL4
 6117 0e15 952C0000 		.4byte	0x2c95
 6118 0e19 270E0000 		.4byte	0xe27
 6119 0e1d 2A       		.uleb128 0x2a
 6120 0e1e 01       		.uleb128 0x1
 6121 0e1f 50       		.byte	0x50
 6122 0e20 05       		.uleb128 0x5
 6123 0e21 03       		.byte	0x3
 6124 0e22 10000000 		.4byte	.LC2
 6125 0e26 00       		.byte	0
 6126 0e27 29       		.uleb128 0x29
 6127 0e28 28000000 		.4byte	.LVL5
 6128 0e2c 7D2C0000 		.4byte	0x2c7d
 6129 0e30 3E0E0000 		.4byte	0xe3e
 6130 0e34 2A       		.uleb128 0x2a
 6131 0e35 01       		.uleb128 0x1
 6132 0e36 50       		.byte	0x50
 6133 0e37 05       		.uleb128 0x5
 6134 0e38 03       		.byte	0x3
 6135 0e39 18000000 		.4byte	.LC3
 6136 0e3d 00       		.byte	0
 6137 0e3e 29       		.uleb128 0x29
 6138 0e3f 2E000000 		.4byte	.LVL6
 6139 0e43 892C0000 		.4byte	0x2c89
 6140 0e47 520E0000 		.4byte	0xe52
 6141 0e4b 2A       		.uleb128 0x2a
ARM GAS  /tmp/ccvURch4.s 			page 111


 6142 0e4c 01       		.uleb128 0x1
 6143 0e4d 50       		.byte	0x50
 6144 0e4e 02       		.uleb128 0x2
 6145 0e4f 08       		.byte	0x8
 6146 0e50 68       		.byte	0x68
 6147 0e51 00       		.byte	0
 6148 0e52 29       		.uleb128 0x29
 6149 0e53 34000000 		.4byte	.LVL7
 6150 0e57 952C0000 		.4byte	0x2c95
 6151 0e5b 690E0000 		.4byte	0xe69
 6152 0e5f 2A       		.uleb128 0x2a
 6153 0e60 01       		.uleb128 0x1
 6154 0e61 50       		.byte	0x50
 6155 0e62 05       		.uleb128 0x5
 6156 0e63 03       		.byte	0x3
 6157 0e64 10000000 		.4byte	.LC2
 6158 0e68 00       		.byte	0
 6159 0e69 29       		.uleb128 0x29
 6160 0e6a 3A000000 		.4byte	.LVL8
 6161 0e6e 7D2C0000 		.4byte	0x2c7d
 6162 0e72 800E0000 		.4byte	0xe80
 6163 0e76 2A       		.uleb128 0x2a
 6164 0e77 01       		.uleb128 0x1
 6165 0e78 50       		.byte	0x50
 6166 0e79 05       		.uleb128 0x5
 6167 0e7a 03       		.byte	0x3
 6168 0e7b 28000000 		.4byte	.LC4
 6169 0e7f 00       		.byte	0
 6170 0e80 29       		.uleb128 0x29
 6171 0e81 40000000 		.4byte	.LVL9
 6172 0e85 892C0000 		.4byte	0x2c89
 6173 0e89 930E0000 		.4byte	0xe93
 6174 0e8d 2A       		.uleb128 0x2a
 6175 0e8e 01       		.uleb128 0x1
 6176 0e8f 50       		.byte	0x50
 6177 0e90 01       		.uleb128 0x1
 6178 0e91 44       		.byte	0x44
 6179 0e92 00       		.byte	0
 6180 0e93 29       		.uleb128 0x29
 6181 0e94 46000000 		.4byte	.LVL10
 6182 0e98 952C0000 		.4byte	0x2c95
 6183 0e9c AA0E0000 		.4byte	0xeaa
 6184 0ea0 2A       		.uleb128 0x2a
 6185 0ea1 01       		.uleb128 0x1
 6186 0ea2 50       		.byte	0x50
 6187 0ea3 05       		.uleb128 0x5
 6188 0ea4 03       		.byte	0x3
 6189 0ea5 10000000 		.4byte	.LC2
 6190 0ea9 00       		.byte	0
 6191 0eaa 29       		.uleb128 0x29
 6192 0eab 4C000000 		.4byte	.LVL11
 6193 0eaf 7D2C0000 		.4byte	0x2c7d
 6194 0eb3 C10E0000 		.4byte	0xec1
 6195 0eb7 2A       		.uleb128 0x2a
 6196 0eb8 01       		.uleb128 0x1
 6197 0eb9 50       		.byte	0x50
 6198 0eba 05       		.uleb128 0x5
ARM GAS  /tmp/ccvURch4.s 			page 112


 6199 0ebb 03       		.byte	0x3
 6200 0ebc 38000000 		.4byte	.LC5
 6201 0ec0 00       		.byte	0
 6202 0ec1 29       		.uleb128 0x29
 6203 0ec2 52000000 		.4byte	.LVL12
 6204 0ec6 892C0000 		.4byte	0x2c89
 6205 0eca D40E0000 		.4byte	0xed4
 6206 0ece 2A       		.uleb128 0x2a
 6207 0ecf 01       		.uleb128 0x1
 6208 0ed0 50       		.byte	0x50
 6209 0ed1 01       		.uleb128 0x1
 6210 0ed2 3C       		.byte	0x3c
 6211 0ed3 00       		.byte	0
 6212 0ed4 29       		.uleb128 0x29
 6213 0ed5 58000000 		.4byte	.LVL13
 6214 0ed9 952C0000 		.4byte	0x2c95
 6215 0edd EB0E0000 		.4byte	0xeeb
 6216 0ee1 2A       		.uleb128 0x2a
 6217 0ee2 01       		.uleb128 0x1
 6218 0ee3 50       		.byte	0x50
 6219 0ee4 05       		.uleb128 0x5
 6220 0ee5 03       		.byte	0x3
 6221 0ee6 10000000 		.4byte	.LC2
 6222 0eea 00       		.byte	0
 6223 0eeb 29       		.uleb128 0x29
 6224 0eec 5E000000 		.4byte	.LVL14
 6225 0ef0 7D2C0000 		.4byte	0x2c7d
 6226 0ef4 020F0000 		.4byte	0xf02
 6227 0ef8 2A       		.uleb128 0x2a
 6228 0ef9 01       		.uleb128 0x1
 6229 0efa 50       		.byte	0x50
 6230 0efb 05       		.uleb128 0x5
 6231 0efc 03       		.byte	0x3
 6232 0efd 48000000 		.4byte	.LC6
 6233 0f01 00       		.byte	0
 6234 0f02 29       		.uleb128 0x29
 6235 0f03 64000000 		.4byte	.LVL15
 6236 0f07 892C0000 		.4byte	0x2c89
 6237 0f0b 150F0000 		.4byte	0xf15
 6238 0f0f 2A       		.uleb128 0x2a
 6239 0f10 01       		.uleb128 0x1
 6240 0f11 50       		.byte	0x50
 6241 0f12 01       		.uleb128 0x1
 6242 0f13 34       		.byte	0x34
 6243 0f14 00       		.byte	0
 6244 0f15 29       		.uleb128 0x29
 6245 0f16 6A000000 		.4byte	.LVL16
 6246 0f1a 952C0000 		.4byte	0x2c95
 6247 0f1e 2C0F0000 		.4byte	0xf2c
 6248 0f22 2A       		.uleb128 0x2a
 6249 0f23 01       		.uleb128 0x1
 6250 0f24 50       		.byte	0x50
 6251 0f25 05       		.uleb128 0x5
 6252 0f26 03       		.byte	0x3
 6253 0f27 10000000 		.4byte	.LC2
 6254 0f2b 00       		.byte	0
 6255 0f2c 29       		.uleb128 0x29
ARM GAS  /tmp/ccvURch4.s 			page 113


 6256 0f2d 70000000 		.4byte	.LVL17
 6257 0f31 7D2C0000 		.4byte	0x2c7d
 6258 0f35 430F0000 		.4byte	0xf43
 6259 0f39 2A       		.uleb128 0x2a
 6260 0f3a 01       		.uleb128 0x1
 6261 0f3b 50       		.byte	0x50
 6262 0f3c 05       		.uleb128 0x5
 6263 0f3d 03       		.byte	0x3
 6264 0f3e 58000000 		.4byte	.LC7
 6265 0f42 00       		.byte	0
 6266 0f43 29       		.uleb128 0x29
 6267 0f44 76000000 		.4byte	.LVL18
 6268 0f48 892C0000 		.4byte	0x2c89
 6269 0f4c 560F0000 		.4byte	0xf56
 6270 0f50 2A       		.uleb128 0x2a
 6271 0f51 01       		.uleb128 0x1
 6272 0f52 50       		.byte	0x50
 6273 0f53 01       		.uleb128 0x1
 6274 0f54 44       		.byte	0x44
 6275 0f55 00       		.byte	0
 6276 0f56 29       		.uleb128 0x29
 6277 0f57 7C000000 		.4byte	.LVL19
 6278 0f5b 952C0000 		.4byte	0x2c95
 6279 0f5f 6D0F0000 		.4byte	0xf6d
 6280 0f63 2A       		.uleb128 0x2a
 6281 0f64 01       		.uleb128 0x1
 6282 0f65 50       		.byte	0x50
 6283 0f66 05       		.uleb128 0x5
 6284 0f67 03       		.byte	0x3
 6285 0f68 10000000 		.4byte	.LC2
 6286 0f6c 00       		.byte	0
 6287 0f6d 29       		.uleb128 0x29
 6288 0f6e 82000000 		.4byte	.LVL20
 6289 0f72 7D2C0000 		.4byte	0x2c7d
 6290 0f76 840F0000 		.4byte	0xf84
 6291 0f7a 2A       		.uleb128 0x2a
 6292 0f7b 01       		.uleb128 0x1
 6293 0f7c 50       		.byte	0x50
 6294 0f7d 05       		.uleb128 0x5
 6295 0f7e 03       		.byte	0x3
 6296 0f7f 68000000 		.4byte	.LC8
 6297 0f83 00       		.byte	0
 6298 0f84 29       		.uleb128 0x29
 6299 0f85 88000000 		.4byte	.LVL21
 6300 0f89 892C0000 		.4byte	0x2c89
 6301 0f8d 970F0000 		.4byte	0xf97
 6302 0f91 2A       		.uleb128 0x2a
 6303 0f92 01       		.uleb128 0x1
 6304 0f93 50       		.byte	0x50
 6305 0f94 01       		.uleb128 0x1
 6306 0f95 44       		.byte	0x44
 6307 0f96 00       		.byte	0
 6308 0f97 29       		.uleb128 0x29
 6309 0f98 8E000000 		.4byte	.LVL22
 6310 0f9c 952C0000 		.4byte	0x2c95
 6311 0fa0 AE0F0000 		.4byte	0xfae
 6312 0fa4 2A       		.uleb128 0x2a
ARM GAS  /tmp/ccvURch4.s 			page 114


 6313 0fa5 01       		.uleb128 0x1
 6314 0fa6 50       		.byte	0x50
 6315 0fa7 05       		.uleb128 0x5
 6316 0fa8 03       		.byte	0x3
 6317 0fa9 10000000 		.4byte	.LC2
 6318 0fad 00       		.byte	0
 6319 0fae 29       		.uleb128 0x29
 6320 0faf 94000000 		.4byte	.LVL23
 6321 0fb3 7D2C0000 		.4byte	0x2c7d
 6322 0fb7 C50F0000 		.4byte	0xfc5
 6323 0fbb 2A       		.uleb128 0x2a
 6324 0fbc 01       		.uleb128 0x1
 6325 0fbd 50       		.byte	0x50
 6326 0fbe 05       		.uleb128 0x5
 6327 0fbf 03       		.byte	0x3
 6328 0fc0 78000000 		.4byte	.LC9
 6329 0fc4 00       		.byte	0
 6330 0fc5 29       		.uleb128 0x29
 6331 0fc6 9A000000 		.4byte	.LVL24
 6332 0fca 892C0000 		.4byte	0x2c89
 6333 0fce D80F0000 		.4byte	0xfd8
 6334 0fd2 2A       		.uleb128 0x2a
 6335 0fd3 01       		.uleb128 0x1
 6336 0fd4 50       		.byte	0x50
 6337 0fd5 01       		.uleb128 0x1
 6338 0fd6 38       		.byte	0x38
 6339 0fd7 00       		.byte	0
 6340 0fd8 29       		.uleb128 0x29
 6341 0fd9 A0000000 		.4byte	.LVL25
 6342 0fdd 952C0000 		.4byte	0x2c95
 6343 0fe1 EF0F0000 		.4byte	0xfef
 6344 0fe5 2A       		.uleb128 0x2a
 6345 0fe6 01       		.uleb128 0x1
 6346 0fe7 50       		.byte	0x50
 6347 0fe8 05       		.uleb128 0x5
 6348 0fe9 03       		.byte	0x3
 6349 0fea 10000000 		.4byte	.LC2
 6350 0fee 00       		.byte	0
 6351 0fef 29       		.uleb128 0x29
 6352 0ff0 A6000000 		.4byte	.LVL26
 6353 0ff4 7D2C0000 		.4byte	0x2c7d
 6354 0ff8 06100000 		.4byte	0x1006
 6355 0ffc 2A       		.uleb128 0x2a
 6356 0ffd 01       		.uleb128 0x1
 6357 0ffe 50       		.byte	0x50
 6358 0fff 05       		.uleb128 0x5
 6359 1000 03       		.byte	0x3
 6360 1001 88000000 		.4byte	.LC10
 6361 1005 00       		.byte	0
 6362 1006 29       		.uleb128 0x29
 6363 1007 AC000000 		.4byte	.LVL27
 6364 100b 892C0000 		.4byte	0x2c89
 6365 100f 1A100000 		.4byte	0x101a
 6366 1013 2A       		.uleb128 0x2a
 6367 1014 01       		.uleb128 0x1
 6368 1015 50       		.byte	0x50
 6369 1016 02       		.uleb128 0x2
ARM GAS  /tmp/ccvURch4.s 			page 115


 6370 1017 08       		.byte	0x8
 6371 1018 24       		.byte	0x24
 6372 1019 00       		.byte	0
 6373 101a 29       		.uleb128 0x29
 6374 101b B2000000 		.4byte	.LVL28
 6375 101f 952C0000 		.4byte	0x2c95
 6376 1023 31100000 		.4byte	0x1031
 6377 1027 2A       		.uleb128 0x2a
 6378 1028 01       		.uleb128 0x1
 6379 1029 50       		.byte	0x50
 6380 102a 05       		.uleb128 0x5
 6381 102b 03       		.byte	0x3
 6382 102c 10000000 		.4byte	.LC2
 6383 1030 00       		.byte	0
 6384 1031 29       		.uleb128 0x29
 6385 1032 B8000000 		.4byte	.LVL29
 6386 1036 7D2C0000 		.4byte	0x2c7d
 6387 103a 48100000 		.4byte	0x1048
 6388 103e 2A       		.uleb128 0x2a
 6389 103f 01       		.uleb128 0x1
 6390 1040 50       		.byte	0x50
 6391 1041 05       		.uleb128 0x5
 6392 1042 03       		.byte	0x3
 6393 1043 98000000 		.4byte	.LC11
 6394 1047 00       		.byte	0
 6395 1048 29       		.uleb128 0x29
 6396 1049 BE000000 		.4byte	.LVL30
 6397 104d 892C0000 		.4byte	0x2c89
 6398 1051 5C100000 		.4byte	0x105c
 6399 1055 2A       		.uleb128 0x2a
 6400 1056 01       		.uleb128 0x1
 6401 1057 50       		.byte	0x50
 6402 1058 02       		.uleb128 0x2
 6403 1059 08       		.byte	0x8
 6404 105a 28       		.byte	0x28
 6405 105b 00       		.byte	0
 6406 105c 2B       		.uleb128 0x2b
 6407 105d D4000000 		.4byte	.LVL31
 6408 1061 952C0000 		.4byte	0x2c95
 6409 1065 73100000 		.4byte	0x1073
 6410 1069 2A       		.uleb128 0x2a
 6411 106a 01       		.uleb128 0x1
 6412 106b 50       		.byte	0x50
 6413 106c 05       		.uleb128 0x5
 6414 106d 03       		.byte	0x3
 6415 106e 10000000 		.4byte	.LC2
 6416 1072 00       		.byte	0
 6417 1073 2C       		.uleb128 0x2c
 6418 1074 D8000000 		.4byte	.LVL32
 6419 1078 A12C0000 		.4byte	0x2ca1
 6420 107c 00       		.byte	0
 6421 107d 28       		.uleb128 0x28
 6422 107e 62000000 		.4byte	.LASF193
 6423 1082 01       		.byte	0x1
 6424 1083 5902     		.2byte	0x259
 6425 1085 0D       		.byte	0xd
 6426 1086 00000000 		.4byte	.LFB240
ARM GAS  /tmp/ccvURch4.s 			page 116


 6427 108a 94000000 		.4byte	.LFE240-.LFB240
 6428 108e 01       		.uleb128 0x1
 6429 108f 9C       		.byte	0x9c
 6430 1090 B3110000 		.4byte	0x11b3
 6431 1094 2D       		.uleb128 0x2d
 6432 1095 6E00     		.ascii	"n\000"
 6433 1097 01       		.byte	0x1
 6434 1098 5A02     		.2byte	0x25a
 6435 109a 0C       		.byte	0xc
 6436 109b 99000000 		.4byte	0x99
 6437 109f 06000000 		.4byte	.LLST21
 6438 10a3 00000000 		.4byte	.LVUS21
 6439 10a7 2C       		.uleb128 0x2c
 6440 10a8 16000000 		.4byte	.LVL183
 6441 10ac AA2C0000 		.4byte	0x2caa
 6442 10b0 29       		.uleb128 0x29
 6443 10b1 1E000000 		.4byte	.LVL184
 6444 10b5 B62C0000 		.4byte	0x2cb6
 6445 10b9 C5100000 		.4byte	0x10c5
 6446 10bd 2A       		.uleb128 0x2a
 6447 10be 01       		.uleb128 0x1
 6448 10bf 50       		.byte	0x50
 6449 10c0 03       		.uleb128 0x3
 6450 10c1 0A       		.byte	0xa
 6451 10c2 E803     		.2byte	0x3e8
 6452 10c4 00       		.byte	0
 6453 10c5 29       		.uleb128 0x29
 6454 10c6 26000000 		.4byte	.LVL186
 6455 10ca C22C0000 		.4byte	0x2cc2
 6456 10ce D9100000 		.4byte	0x10d9
 6457 10d2 2A       		.uleb128 0x2a
 6458 10d3 01       		.uleb128 0x1
 6459 10d4 50       		.byte	0x50
 6460 10d5 02       		.uleb128 0x2
 6461 10d6 74       		.byte	0x74
 6462 10d7 00       		.sleb128 0
 6463 10d8 00       		.byte	0
 6464 10d9 29       		.uleb128 0x29
 6465 10da 2C000000 		.4byte	.LVL187
 6466 10de CE2C0000 		.4byte	0x2cce
 6467 10e2 ED100000 		.4byte	0x10ed
 6468 10e6 2A       		.uleb128 0x2a
 6469 10e7 01       		.uleb128 0x1
 6470 10e8 50       		.byte	0x50
 6471 10e9 02       		.uleb128 0x2
 6472 10ea 74       		.byte	0x74
 6473 10eb 00       		.sleb128 0
 6474 10ec 00       		.byte	0
 6475 10ed 29       		.uleb128 0x29
 6476 10ee 32000000 		.4byte	.LVL188
 6477 10f2 C22C0000 		.4byte	0x2cc2
 6478 10f6 01110000 		.4byte	0x1101
 6479 10fa 2A       		.uleb128 0x2a
 6480 10fb 01       		.uleb128 0x1
 6481 10fc 50       		.byte	0x50
 6482 10fd 02       		.uleb128 0x2
 6483 10fe 74       		.byte	0x74
ARM GAS  /tmp/ccvURch4.s 			page 117


 6484 10ff 00       		.sleb128 0
 6485 1100 00       		.byte	0
 6486 1101 29       		.uleb128 0x29
 6487 1102 38000000 		.4byte	.LVL189
 6488 1106 CE2C0000 		.4byte	0x2cce
 6489 110a 15110000 		.4byte	0x1115
 6490 110e 2A       		.uleb128 0x2a
 6491 110f 01       		.uleb128 0x1
 6492 1110 50       		.byte	0x50
 6493 1111 02       		.uleb128 0x2
 6494 1112 74       		.byte	0x74
 6495 1113 00       		.sleb128 0
 6496 1114 00       		.byte	0
 6497 1115 29       		.uleb128 0x29
 6498 1116 3E000000 		.4byte	.LVL190
 6499 111a C22C0000 		.4byte	0x2cc2
 6500 111e 29110000 		.4byte	0x1129
 6501 1122 2A       		.uleb128 0x2a
 6502 1123 01       		.uleb128 0x1
 6503 1124 50       		.byte	0x50
 6504 1125 02       		.uleb128 0x2
 6505 1126 74       		.byte	0x74
 6506 1127 00       		.sleb128 0
 6507 1128 00       		.byte	0
 6508 1129 29       		.uleb128 0x29
 6509 112a 44000000 		.4byte	.LVL191
 6510 112e CE2C0000 		.4byte	0x2cce
 6511 1132 3D110000 		.4byte	0x113d
 6512 1136 2A       		.uleb128 0x2a
 6513 1137 01       		.uleb128 0x1
 6514 1138 50       		.byte	0x50
 6515 1139 02       		.uleb128 0x2
 6516 113a 74       		.byte	0x74
 6517 113b 00       		.sleb128 0
 6518 113c 00       		.byte	0
 6519 113d 29       		.uleb128 0x29
 6520 113e 4A000000 		.4byte	.LVL192
 6521 1142 C22C0000 		.4byte	0x2cc2
 6522 1146 51110000 		.4byte	0x1151
 6523 114a 2A       		.uleb128 0x2a
 6524 114b 01       		.uleb128 0x1
 6525 114c 50       		.byte	0x50
 6526 114d 02       		.uleb128 0x2
 6527 114e 74       		.byte	0x74
 6528 114f 00       		.sleb128 0
 6529 1150 00       		.byte	0
 6530 1151 29       		.uleb128 0x29
 6531 1152 50000000 		.4byte	.LVL193
 6532 1156 CE2C0000 		.4byte	0x2cce
 6533 115a 65110000 		.4byte	0x1165
 6534 115e 2A       		.uleb128 0x2a
 6535 115f 01       		.uleb128 0x1
 6536 1160 50       		.byte	0x50
 6537 1161 02       		.uleb128 0x2
 6538 1162 74       		.byte	0x74
 6539 1163 00       		.sleb128 0
 6540 1164 00       		.byte	0
ARM GAS  /tmp/ccvURch4.s 			page 118


 6541 1165 29       		.uleb128 0x29
 6542 1166 5E000000 		.4byte	.LVL195
 6543 116a 7D2C0000 		.4byte	0x2c7d
 6544 116e 7C110000 		.4byte	0x117c
 6545 1172 2A       		.uleb128 0x2a
 6546 1173 01       		.uleb128 0x1
 6547 1174 50       		.byte	0x50
 6548 1175 05       		.uleb128 0x5
 6549 1176 03       		.byte	0x3
 6550 1177 00000000 		.4byte	.LC14
 6551 117b 00       		.byte	0
 6552 117c 29       		.uleb128 0x29
 6553 117d 64000000 		.4byte	.LVL196
 6554 1181 892C0000 		.4byte	0x2c89
 6555 1185 92110000 		.4byte	0x1192
 6556 1189 2A       		.uleb128 0x2a
 6557 118a 01       		.uleb128 0x1
 6558 118b 50       		.byte	0x50
 6559 118c 04       		.uleb128 0x4
 6560 118d 75       		.byte	0x75
 6561 118e 00       		.sleb128 0
 6562 118f 32       		.byte	0x32
 6563 1190 24       		.byte	0x24
 6564 1191 00       		.byte	0
 6565 1192 2B       		.uleb128 0x2b
 6566 1193 7A000000 		.4byte	.LVL198
 6567 1197 952C0000 		.4byte	0x2c95
 6568 119b A9110000 		.4byte	0x11a9
 6569 119f 2A       		.uleb128 0x2a
 6570 11a0 01       		.uleb128 0x1
 6571 11a1 50       		.byte	0x50
 6572 11a2 05       		.uleb128 0x5
 6573 11a3 03       		.byte	0x3
 6574 11a4 00000000 		.4byte	.LC34
 6575 11a8 00       		.byte	0
 6576 11a9 2C       		.uleb128 0x2c
 6577 11aa 7E000000 		.4byte	.LVL199
 6578 11ae A12C0000 		.4byte	0x2ca1
 6579 11b2 00       		.byte	0
 6580 11b3 28       		.uleb128 0x28
 6581 11b4 DE0C0000 		.4byte	.LASF194
 6582 11b8 01       		.byte	0x1
 6583 11b9 5402     		.2byte	0x254
 6584 11bb 0D       		.byte	0xd
 6585 11bc 00000000 		.4byte	.LFB239
 6586 11c0 30000000 		.4byte	.LFE239-.LFB239
 6587 11c4 01       		.uleb128 0x1
 6588 11c5 9C       		.byte	0x9c
 6589 11c6 EB110000 		.4byte	0x11eb
 6590 11ca 2B       		.uleb128 0x2b
 6591 11cb 24000000 		.4byte	.LVL200
 6592 11cf DA2C0000 		.4byte	0x2cda
 6593 11d3 E1110000 		.4byte	0x11e1
 6594 11d7 2A       		.uleb128 0x2a
 6595 11d8 01       		.uleb128 0x1
 6596 11d9 50       		.byte	0x50
 6597 11da 05       		.uleb128 0x5
ARM GAS  /tmp/ccvURch4.s 			page 119


 6598 11db 03       		.byte	0x3
 6599 11dc 00000000 		.4byte	.LANCHOR1
 6600 11e0 00       		.byte	0
 6601 11e1 2C       		.uleb128 0x2c
 6602 11e2 28000000 		.4byte	.LVL201
 6603 11e6 A12C0000 		.4byte	0x2ca1
 6604 11ea 00       		.byte	0
 6605 11eb 28       		.uleb128 0x28
 6606 11ec 56090000 		.4byte	.LASF195
 6607 11f0 01       		.byte	0x1
 6608 11f1 2902     		.2byte	0x229
 6609 11f3 0D       		.byte	0xd
 6610 11f4 00000000 		.4byte	.LFB238
 6611 11f8 94000000 		.4byte	.LFE238-.LFB238
 6612 11fc 01       		.uleb128 0x1
 6613 11fd 9C       		.byte	0x9c
 6614 11fe 21130000 		.4byte	0x1321
 6615 1202 2D       		.uleb128 0x2d
 6616 1203 6E00     		.ascii	"n\000"
 6617 1205 01       		.byte	0x1
 6618 1206 2A02     		.2byte	0x22a
 6619 1208 0C       		.byte	0xc
 6620 1209 99000000 		.4byte	0x99
 6621 120d 36000000 		.4byte	.LLST20
 6622 1211 30000000 		.4byte	.LVUS20
 6623 1215 2C       		.uleb128 0x2c
 6624 1216 16000000 		.4byte	.LVL165
 6625 121a AA2C0000 		.4byte	0x2caa
 6626 121e 29       		.uleb128 0x29
 6627 121f 1E000000 		.4byte	.LVL166
 6628 1223 B62C0000 		.4byte	0x2cb6
 6629 1227 33120000 		.4byte	0x1233
 6630 122b 2A       		.uleb128 0x2a
 6631 122c 01       		.uleb128 0x1
 6632 122d 50       		.byte	0x50
 6633 122e 03       		.uleb128 0x3
 6634 122f 0A       		.byte	0xa
 6635 1230 E803     		.2byte	0x3e8
 6636 1232 00       		.byte	0
 6637 1233 29       		.uleb128 0x29
 6638 1234 26000000 		.4byte	.LVL168
 6639 1238 E62C0000 		.4byte	0x2ce6
 6640 123c 47120000 		.4byte	0x1247
 6641 1240 2A       		.uleb128 0x2a
 6642 1241 01       		.uleb128 0x1
 6643 1242 50       		.byte	0x50
 6644 1243 02       		.uleb128 0x2
 6645 1244 74       		.byte	0x74
 6646 1245 00       		.sleb128 0
 6647 1246 00       		.byte	0
 6648 1247 29       		.uleb128 0x29
 6649 1248 2C000000 		.4byte	.LVL169
 6650 124c F22C0000 		.4byte	0x2cf2
 6651 1250 5B120000 		.4byte	0x125b
 6652 1254 2A       		.uleb128 0x2a
 6653 1255 01       		.uleb128 0x1
 6654 1256 50       		.byte	0x50
ARM GAS  /tmp/ccvURch4.s 			page 120


 6655 1257 02       		.uleb128 0x2
 6656 1258 74       		.byte	0x74
 6657 1259 00       		.sleb128 0
 6658 125a 00       		.byte	0
 6659 125b 29       		.uleb128 0x29
 6660 125c 32000000 		.4byte	.LVL170
 6661 1260 E62C0000 		.4byte	0x2ce6
 6662 1264 6F120000 		.4byte	0x126f
 6663 1268 2A       		.uleb128 0x2a
 6664 1269 01       		.uleb128 0x1
 6665 126a 50       		.byte	0x50
 6666 126b 02       		.uleb128 0x2
 6667 126c 74       		.byte	0x74
 6668 126d 00       		.sleb128 0
 6669 126e 00       		.byte	0
 6670 126f 29       		.uleb128 0x29
 6671 1270 38000000 		.4byte	.LVL171
 6672 1274 F22C0000 		.4byte	0x2cf2
 6673 1278 83120000 		.4byte	0x1283
 6674 127c 2A       		.uleb128 0x2a
 6675 127d 01       		.uleb128 0x1
 6676 127e 50       		.byte	0x50
 6677 127f 02       		.uleb128 0x2
 6678 1280 74       		.byte	0x74
 6679 1281 00       		.sleb128 0
 6680 1282 00       		.byte	0
 6681 1283 29       		.uleb128 0x29
 6682 1284 3E000000 		.4byte	.LVL172
 6683 1288 E62C0000 		.4byte	0x2ce6
 6684 128c 97120000 		.4byte	0x1297
 6685 1290 2A       		.uleb128 0x2a
 6686 1291 01       		.uleb128 0x1
 6687 1292 50       		.byte	0x50
 6688 1293 02       		.uleb128 0x2
 6689 1294 74       		.byte	0x74
 6690 1295 00       		.sleb128 0
 6691 1296 00       		.byte	0
 6692 1297 29       		.uleb128 0x29
 6693 1298 44000000 		.4byte	.LVL173
 6694 129c F22C0000 		.4byte	0x2cf2
 6695 12a0 AB120000 		.4byte	0x12ab
 6696 12a4 2A       		.uleb128 0x2a
 6697 12a5 01       		.uleb128 0x1
 6698 12a6 50       		.byte	0x50
 6699 12a7 02       		.uleb128 0x2
 6700 12a8 74       		.byte	0x74
 6701 12a9 00       		.sleb128 0
 6702 12aa 00       		.byte	0
 6703 12ab 29       		.uleb128 0x29
 6704 12ac 4A000000 		.4byte	.LVL174
 6705 12b0 E62C0000 		.4byte	0x2ce6
 6706 12b4 BF120000 		.4byte	0x12bf
 6707 12b8 2A       		.uleb128 0x2a
 6708 12b9 01       		.uleb128 0x1
 6709 12ba 50       		.byte	0x50
 6710 12bb 02       		.uleb128 0x2
 6711 12bc 74       		.byte	0x74
ARM GAS  /tmp/ccvURch4.s 			page 121


 6712 12bd 00       		.sleb128 0
 6713 12be 00       		.byte	0
 6714 12bf 29       		.uleb128 0x29
 6715 12c0 50000000 		.4byte	.LVL175
 6716 12c4 F22C0000 		.4byte	0x2cf2
 6717 12c8 D3120000 		.4byte	0x12d3
 6718 12cc 2A       		.uleb128 0x2a
 6719 12cd 01       		.uleb128 0x1
 6720 12ce 50       		.byte	0x50
 6721 12cf 02       		.uleb128 0x2
 6722 12d0 74       		.byte	0x74
 6723 12d1 00       		.sleb128 0
 6724 12d2 00       		.byte	0
 6725 12d3 29       		.uleb128 0x29
 6726 12d4 5E000000 		.4byte	.LVL177
 6727 12d8 7D2C0000 		.4byte	0x2c7d
 6728 12dc EA120000 		.4byte	0x12ea
 6729 12e0 2A       		.uleb128 0x2a
 6730 12e1 01       		.uleb128 0x1
 6731 12e2 50       		.byte	0x50
 6732 12e3 05       		.uleb128 0x5
 6733 12e4 03       		.byte	0x3
 6734 12e5 00000000 		.4byte	.LC14
 6735 12e9 00       		.byte	0
 6736 12ea 29       		.uleb128 0x29
 6737 12eb 64000000 		.4byte	.LVL178
 6738 12ef 892C0000 		.4byte	0x2c89
 6739 12f3 00130000 		.4byte	0x1300
 6740 12f7 2A       		.uleb128 0x2a
 6741 12f8 01       		.uleb128 0x1
 6742 12f9 50       		.byte	0x50
 6743 12fa 04       		.uleb128 0x4
 6744 12fb 75       		.byte	0x75
 6745 12fc 00       		.sleb128 0
 6746 12fd 32       		.byte	0x32
 6747 12fe 24       		.byte	0x24
 6748 12ff 00       		.byte	0
 6749 1300 2B       		.uleb128 0x2b
 6750 1301 7A000000 		.4byte	.LVL180
 6751 1305 952C0000 		.4byte	0x2c95
 6752 1309 17130000 		.4byte	0x1317
 6753 130d 2A       		.uleb128 0x2a
 6754 130e 01       		.uleb128 0x1
 6755 130f 50       		.byte	0x50
 6756 1310 05       		.uleb128 0x5
 6757 1311 03       		.byte	0x3
 6758 1312 00000000 		.4byte	.LC32
 6759 1316 00       		.byte	0
 6760 1317 2C       		.uleb128 0x2c
 6761 1318 7E000000 		.4byte	.LVL181
 6762 131c A12C0000 		.4byte	0x2ca1
 6763 1320 00       		.byte	0
 6764 1321 28       		.uleb128 0x28
 6765 1322 6D0C0000 		.4byte	.LASF196
 6766 1326 01       		.byte	0x1
 6767 1327 2402     		.2byte	0x224
 6768 1329 0D       		.byte	0xd
ARM GAS  /tmp/ccvURch4.s 			page 122


 6769 132a 00000000 		.4byte	.LFB237
 6770 132e 34000000 		.4byte	.LFE237-.LFB237
 6771 1332 01       		.uleb128 0x1
 6772 1333 9C       		.byte	0x9c
 6773 1334 5E130000 		.4byte	0x135e
 6774 1338 2B       		.uleb128 0x2b
 6775 1339 26000000 		.4byte	.LVL141
 6776 133d FE2C0000 		.4byte	0x2cfe
 6777 1341 54130000 		.4byte	0x1354
 6778 1345 2A       		.uleb128 0x2a
 6779 1346 01       		.uleb128 0x1
 6780 1347 50       		.byte	0x50
 6781 1348 05       		.uleb128 0x5
 6782 1349 03       		.byte	0x3
 6783 134a 00000000 		.4byte	.LANCHOR0
 6784 134e 2A       		.uleb128 0x2a
 6785 134f 01       		.uleb128 0x1
 6786 1350 51       		.byte	0x51
 6787 1351 01       		.uleb128 0x1
 6788 1352 31       		.byte	0x31
 6789 1353 00       		.byte	0
 6790 1354 2C       		.uleb128 0x2c
 6791 1355 2A000000 		.4byte	.LVL142
 6792 1359 A12C0000 		.4byte	0x2ca1
 6793 135d 00       		.byte	0
 6794 135e 28       		.uleb128 0x28
 6795 135f EF060000 		.4byte	.LASF197
 6796 1363 01       		.byte	0x1
 6797 1364 FB01     		.2byte	0x1fb
 6798 1366 0D       		.byte	0xd
 6799 1367 00000000 		.4byte	.LFB236
 6800 136b E8000000 		.4byte	.LFE236-.LFB236
 6801 136f 01       		.uleb128 0x1
 6802 1370 9C       		.byte	0x9c
 6803 1371 67150000 		.4byte	0x1567
 6804 1375 2E       		.uleb128 0x2e
 6805 1376 76743100 		.ascii	"vt1\000"
 6806 137a 01       		.byte	0x1
 6807 137b FC01     		.2byte	0x1fc
 6808 137d 1A       		.byte	0x1a
 6809 137e 95030000 		.4byte	0x395
 6810 1382 05       		.uleb128 0x5
 6811 1383 03       		.byte	0x3
 6812 1384 00000000 		.4byte	vt1.8115
 6813 1388 2E       		.uleb128 0x2e
 6814 1389 76743200 		.ascii	"vt2\000"
 6815 138d 01       		.byte	0x1
 6816 138e FC01     		.2byte	0x1fc
 6817 1390 1F       		.byte	0x1f
 6818 1391 95030000 		.4byte	0x395
 6819 1395 05       		.uleb128 0x5
 6820 1396 03       		.byte	0x3
 6821 1397 00000000 		.4byte	vt2.8116
 6822 139b 2D       		.uleb128 0x2d
 6823 139c 6E00     		.ascii	"n\000"
 6824 139e 01       		.byte	0x1
 6825 139f FD01     		.2byte	0x1fd
ARM GAS  /tmp/ccvURch4.s 			page 123


 6826 13a1 0C       		.byte	0xc
 6827 13a2 99000000 		.4byte	0x99
 6828 13a6 66000000 		.4byte	.LLST22
 6829 13aa 60000000 		.4byte	.LVUS22
 6830 13ae 2F       		.uleb128 0x2f
 6831 13af 432C0000 		.4byte	0x2c43
 6832 13b3 40000000 		.4byte	.LBI311
 6833 13b7 02       		.byte	.LVU555
 6834 13b8 E0020000 		.4byte	.Ldebug_ranges0+0x2e0
 6835 13bc 01       		.byte	0x1
 6836 13bd 0202     		.2byte	0x202
 6837 13bf 05       		.byte	0x5
 6838 13c0 0E140000 		.4byte	0x140e
 6839 13c4 2F       		.uleb128 0x2f
 6840 13c5 572C0000 		.4byte	0x2c57
 6841 13c9 40000000 		.4byte	.LBI313
 6842 13cd 04       		.byte	.LVU557
 6843 13ce 00030000 		.4byte	.Ldebug_ranges0+0x300
 6844 13d2 05       		.byte	0x5
 6845 13d3 5C01     		.2byte	0x15c
 6846 13d5 03       		.byte	0x3
 6847 13d6 FB130000 		.4byte	0x13fb
 6848 13da 30       		.uleb128 0x30
 6849 13db 612C0000 		.4byte	0x2c61
 6850 13df 40000000 		.4byte	.LBI314
 6851 13e3 06       		.byte	.LVU559
 6852 13e4 20030000 		.4byte	.Ldebug_ranges0+0x320
 6853 13e8 06       		.byte	0x6
 6854 13e9 BF01     		.2byte	0x1bf
 6855 13eb 03       		.byte	0x3
 6856 13ec 31       		.uleb128 0x31
 6857 13ed 6F2C0000 		.4byte	0x2c6f
 6858 13f1 92000000 		.4byte	.LLST23
 6859 13f5 90000000 		.4byte	.LVUS23
 6860 13f9 00       		.byte	0
 6861 13fa 00       		.byte	0
 6862 13fb 2C       		.uleb128 0x2c
 6863 13fc 48000000 		.4byte	.LVL210
 6864 1400 0A2D0000 		.4byte	0x2d0a
 6865 1404 2C       		.uleb128 0x2c
 6866 1405 4C000000 		.4byte	.LVL211
 6867 1409 162D0000 		.4byte	0x2d16
 6868 140d 00       		.byte	0
 6869 140e 2F       		.uleb128 0x2f
 6870 140f 102C0000 		.4byte	0x2c10
 6871 1413 72000000 		.4byte	.LBI322
 6872 1417 01       		.byte	.LVU569
 6873 1418 38030000 		.4byte	.Ldebug_ranges0+0x338
 6874 141c 01       		.byte	0x1
 6875 141d 0702     		.2byte	0x207
 6876 141f 05       		.byte	0x5
 6877 1420 87140000 		.4byte	0x1487
 6878 1424 32       		.uleb128 0x32
 6879 1425 38030000 		.4byte	.Ldebug_ranges0+0x338
 6880 1429 2F       		.uleb128 0x2f
 6881 142a 4D2C0000 		.4byte	0x2c4d
 6882 142e 34000000 		.4byte	.LBI324
ARM GAS  /tmp/ccvURch4.s 			page 124


 6883 1432 03       		.byte	.LVU543
 6884 1433 60030000 		.4byte	.Ldebug_ranges0+0x360
 6885 1437 05       		.byte	0x5
 6886 1438 7301     		.2byte	0x173
 6887 143a 03       		.byte	0x3
 6888 143b 60140000 		.4byte	0x1460
 6889 143f 30       		.uleb128 0x30
 6890 1440 612C0000 		.4byte	0x2c61
 6891 1444 34000000 		.4byte	.LBI325
 6892 1448 05       		.byte	.LVU545
 6893 1449 88030000 		.4byte	.Ldebug_ranges0+0x388
 6894 144d 06       		.byte	0x6
 6895 144e CD01     		.2byte	0x1cd
 6896 1450 03       		.byte	0x3
 6897 1451 31       		.uleb128 0x31
 6898 1452 6F2C0000 		.4byte	0x2c6f
 6899 1456 AB000000 		.4byte	.LLST24
 6900 145a A7000000 		.4byte	.LVUS24
 6901 145e 00       		.byte	0
 6902 145f 00       		.byte	0
 6903 1460 2C       		.uleb128 0x2c
 6904 1461 76000000 		.4byte	.LVL216
 6905 1465 222D0000 		.4byte	0x2d22
 6906 1469 2C       		.uleb128 0x2c
 6907 146a 7A000000 		.4byte	.LVL217
 6908 146e 2E2D0000 		.4byte	0x2d2e
 6909 1472 33       		.uleb128 0x33
 6910 1473 90000000 		.4byte	.LVL218
 6911 1477 3A2D0000 		.4byte	0x2d3a
 6912 147b 2A       		.uleb128 0x2a
 6913 147c 01       		.uleb128 0x1
 6914 147d 50       		.byte	0x50
 6915 147e 05       		.uleb128 0x5
 6916 147f 03       		.byte	0x3
 6917 1480 00000000 		.4byte	.LANCHOR4
 6918 1484 00       		.byte	0
 6919 1485 00       		.byte	0
 6920 1486 00       		.byte	0
 6921 1487 2C       		.uleb128 0x2c
 6922 1488 24000000 		.4byte	.LVL203
 6923 148c AA2C0000 		.4byte	0x2caa
 6924 1490 29       		.uleb128 0x29
 6925 1491 2C000000 		.4byte	.LVL204
 6926 1495 B62C0000 		.4byte	0x2cb6
 6927 1499 A5140000 		.4byte	0x14a5
 6928 149d 2A       		.uleb128 0x2a
 6929 149e 01       		.uleb128 0x1
 6930 149f 50       		.byte	0x50
 6931 14a0 03       		.uleb128 0x3
 6932 14a1 0A       		.byte	0xa
 6933 14a2 E803     		.2byte	0x3e8
 6934 14a4 00       		.byte	0
 6935 14a5 29       		.uleb128 0x29
 6936 14a6 58000000 		.4byte	.LVL212
 6937 14aa 472D0000 		.4byte	0x2d47
 6938 14ae CA140000 		.4byte	0x14ca
 6939 14b2 2A       		.uleb128 0x2a
ARM GAS  /tmp/ccvURch4.s 			page 125


 6940 14b3 01       		.uleb128 0x1
 6941 14b4 50       		.byte	0x50
 6942 14b5 02       		.uleb128 0x2
 6943 14b6 77       		.byte	0x77
 6944 14b7 00       		.sleb128 0
 6945 14b8 2A       		.uleb128 0x2a
 6946 14b9 01       		.uleb128 0x1
 6947 14ba 51       		.byte	0x51
 6948 14bb 01       		.uleb128 0x1
 6949 14bc 31       		.byte	0x31
 6950 14bd 2A       		.uleb128 0x2a
 6951 14be 01       		.uleb128 0x1
 6952 14bf 52       		.byte	0x52
 6953 14c0 02       		.uleb128 0x2
 6954 14c1 7B       		.byte	0x7b
 6955 14c2 00       		.sleb128 0
 6956 14c3 2A       		.uleb128 0x2a
 6957 14c4 01       		.uleb128 0x1
 6958 14c5 53       		.byte	0x53
 6959 14c6 02       		.uleb128 0x2
 6960 14c7 79       		.byte	0x79
 6961 14c8 00       		.sleb128 0
 6962 14c9 00       		.byte	0
 6963 14ca 29       		.uleb128 0x29
 6964 14cb 66000000 		.4byte	.LVL213
 6965 14cf 472D0000 		.4byte	0x2d47
 6966 14d3 F1140000 		.4byte	0x14f1
 6967 14d7 2A       		.uleb128 0x2a
 6968 14d8 01       		.uleb128 0x1
 6969 14d9 50       		.byte	0x50
 6970 14da 02       		.uleb128 0x2
 6971 14db 76       		.byte	0x76
 6972 14dc 00       		.sleb128 0
 6973 14dd 2A       		.uleb128 0x2a
 6974 14de 01       		.uleb128 0x1
 6975 14df 51       		.byte	0x51
 6976 14e0 03       		.uleb128 0x3
 6977 14e1 0A       		.byte	0xa
 6978 14e2 1027     		.2byte	0x2710
 6979 14e4 2A       		.uleb128 0x2a
 6980 14e5 01       		.uleb128 0x1
 6981 14e6 52       		.byte	0x52
 6982 14e7 02       		.uleb128 0x2
 6983 14e8 7B       		.byte	0x7b
 6984 14e9 00       		.sleb128 0
 6985 14ea 2A       		.uleb128 0x2a
 6986 14eb 01       		.uleb128 0x1
 6987 14ec 53       		.byte	0x53
 6988 14ed 02       		.uleb128 0x2
 6989 14ee 79       		.byte	0x79
 6990 14ef 00       		.sleb128 0
 6991 14f0 00       		.byte	0
 6992 14f1 29       		.uleb128 0x29
 6993 14f2 6C000000 		.4byte	.LVL214
 6994 14f6 532D0000 		.4byte	0x2d53
 6995 14fa 05150000 		.4byte	0x1505
 6996 14fe 2A       		.uleb128 0x2a
ARM GAS  /tmp/ccvURch4.s 			page 126


 6997 14ff 01       		.uleb128 0x1
 6998 1500 50       		.byte	0x50
 6999 1501 02       		.uleb128 0x2
 7000 1502 77       		.byte	0x77
 7001 1503 00       		.sleb128 0
 7002 1504 00       		.byte	0
 7003 1505 29       		.uleb128 0x29
 7004 1506 72000000 		.4byte	.LVL215
 7005 150a 532D0000 		.4byte	0x2d53
 7006 150e 19150000 		.4byte	0x1519
 7007 1512 2A       		.uleb128 0x2a
 7008 1513 01       		.uleb128 0x1
 7009 1514 50       		.byte	0x50
 7010 1515 02       		.uleb128 0x2
 7011 1516 76       		.byte	0x76
 7012 1517 00       		.sleb128 0
 7013 1518 00       		.byte	0
 7014 1519 29       		.uleb128 0x29
 7015 151a A4000000 		.4byte	.LVL221
 7016 151e 7D2C0000 		.4byte	0x2c7d
 7017 1522 30150000 		.4byte	0x1530
 7018 1526 2A       		.uleb128 0x2a
 7019 1527 01       		.uleb128 0x1
 7020 1528 50       		.byte	0x50
 7021 1529 05       		.uleb128 0x5
 7022 152a 03       		.byte	0x3
 7023 152b 00000000 		.4byte	.LC14
 7024 152f 00       		.byte	0
 7025 1530 29       		.uleb128 0x29
 7026 1531 AA000000 		.4byte	.LVL222
 7027 1535 892C0000 		.4byte	0x2c89
 7028 1539 46150000 		.4byte	0x1546
 7029 153d 2A       		.uleb128 0x2a
 7030 153e 01       		.uleb128 0x1
 7031 153f 50       		.byte	0x50
 7032 1540 04       		.uleb128 0x4
 7033 1541 75       		.byte	0x75
 7034 1542 00       		.sleb128 0
 7035 1543 31       		.byte	0x31
 7036 1544 24       		.byte	0x24
 7037 1545 00       		.byte	0
 7038 1546 2B       		.uleb128 0x2b
 7039 1547 C0000000 		.4byte	.LVL224
 7040 154b 952C0000 		.4byte	0x2c95
 7041 154f 5D150000 		.4byte	0x155d
 7042 1553 2A       		.uleb128 0x2a
 7043 1554 01       		.uleb128 0x1
 7044 1555 50       		.byte	0x50
 7045 1556 05       		.uleb128 0x5
 7046 1557 03       		.byte	0x3
 7047 1558 00000000 		.4byte	.LC37
 7048 155c 00       		.byte	0
 7049 155d 2C       		.uleb128 0x2c
 7050 155e C4000000 		.4byte	.LVL225
 7051 1562 A12C0000 		.4byte	0x2ca1
 7052 1566 00       		.byte	0
 7053 1567 34       		.uleb128 0x34
ARM GAS  /tmp/ccvURch4.s 			page 127


 7054 1568 746D6F00 		.ascii	"tmo\000"
 7055 156c 01       		.byte	0x1
 7056 156d F901     		.2byte	0x1f9
 7057 156f 0D       		.byte	0xd
 7058 1570 00000000 		.4byte	.LFB235
 7059 1574 28000000 		.4byte	.LFE235-.LFB235
 7060 1578 01       		.uleb128 0x1
 7061 1579 9C       		.byte	0x9c
 7062 157a 9D150000 		.4byte	0x159d
 7063 157e 35       		.uleb128 0x35
 7064 157f C1040000 		.4byte	.LASF201
 7065 1583 01       		.byte	0x1
 7066 1584 F901     		.2byte	0x1f9
 7067 1586 17       		.byte	0x17
 7068 1587 8E030000 		.4byte	0x38e
 7069 158b CF000000 		.4byte	.LLST0
 7070 158f CB000000 		.4byte	.LVUS0
 7071 1593 2C       		.uleb128 0x2c
 7072 1594 22000000 		.4byte	.LVL1
 7073 1598 A12C0000 		.4byte	0x2ca1
 7074 159c 00       		.byte	0
 7075 159d 28       		.uleb128 0x28
 7076 159e B0060000 		.4byte	.LASF198
 7077 15a2 01       		.byte	0x1
 7078 15a3 CA01     		.2byte	0x1ca
 7079 15a5 0D       		.byte	0xd
 7080 15a6 00000000 		.4byte	.LFB234
 7081 15aa 00010000 		.4byte	.LFE234-.LFB234
 7082 15ae 01       		.uleb128 0x1
 7083 15af 9C       		.byte	0x9c
 7084 15b0 C7180000 		.4byte	0x18c7
 7085 15b4 2D       		.uleb128 0x2d
 7086 15b5 6E00     		.ascii	"n\000"
 7087 15b7 01       		.byte	0x1
 7088 15b8 CB01     		.2byte	0x1cb
 7089 15ba 0C       		.byte	0xc
 7090 15bb 99000000 		.4byte	0x99
 7091 15bf F6000000 		.4byte	.LLST25
 7092 15c3 F0000000 		.4byte	.LVUS25
 7093 15c7 2E       		.uleb128 0x2e
 7094 15c8 696200   		.ascii	"ib\000"
 7095 15cb 01       		.byte	0x1
 7096 15cc CC01     		.2byte	0x1cc
 7097 15ce 12       		.byte	0x12
 7098 15cf C7180000 		.4byte	0x18c7
 7099 15d3 05       		.uleb128 0x5
 7100 15d4 03       		.byte	0x3
 7101 15d5 00000000 		.4byte	ib.8104
 7102 15d9 2E       		.uleb128 0x2e
 7103 15da 697100   		.ascii	"iq\000"
 7104 15dd 01       		.byte	0x1
 7105 15de CD01     		.2byte	0x1cd
 7106 15e0 18       		.byte	0x18
 7107 15e1 350B0000 		.4byte	0xb35
 7108 15e5 05       		.uleb128 0x5
 7109 15e6 03       		.byte	0x3
 7110 15e7 00000000 		.4byte	iq.8105
ARM GAS  /tmp/ccvURch4.s 			page 128


 7111 15eb 2F       		.uleb128 0x2f
 7112 15ec 102C0000 		.4byte	0x2c10
 7113 15f0 9A000000 		.4byte	.LBI358
 7114 15f4 01       		.byte	.LVU657
 7115 15f5 A0030000 		.4byte	.Ldebug_ranges0+0x3a0
 7116 15f9 01       		.byte	0x1
 7117 15fa D901     		.2byte	0x1d9
 7118 15fc 05       		.byte	0x5
 7119 15fd 68160000 		.4byte	0x1668
 7120 1601 32       		.uleb128 0x32
 7121 1602 A0030000 		.4byte	.Ldebug_ranges0+0x3a0
 7122 1606 2F       		.uleb128 0x2f
 7123 1607 4D2C0000 		.4byte	0x2c4d
 7124 160b 38000000 		.4byte	.LBI360
 7125 160f 02       		.byte	.LVU611
 7126 1610 C0030000 		.4byte	.Ldebug_ranges0+0x3c0
 7127 1614 05       		.byte	0x5
 7128 1615 7301     		.2byte	0x173
 7129 1617 03       		.byte	0x3
 7130 1618 41160000 		.4byte	0x1641
 7131 161c 36       		.uleb128 0x36
 7132 161d 612C0000 		.4byte	0x2c61
 7133 1621 38000000 		.4byte	.LBI361
 7134 1625 04       		.byte	.LVU613
 7135 1626 38000000 		.4byte	.LBB361
 7136 162a 04000000 		.4byte	.LBE361-.LBB361
 7137 162e 06       		.byte	0x6
 7138 162f CD01     		.2byte	0x1cd
 7139 1631 03       		.byte	0x3
 7140 1632 31       		.uleb128 0x31
 7141 1633 6F2C0000 		.4byte	0x2c6f
 7142 1637 22010000 		.4byte	.LLST26
 7143 163b 20010000 		.4byte	.LVUS26
 7144 163f 00       		.byte	0
 7145 1640 00       		.byte	0
 7146 1641 2C       		.uleb128 0x2c
 7147 1642 9E000000 		.4byte	.LVL244
 7148 1646 222D0000 		.4byte	0x2d22
 7149 164a 2C       		.uleb128 0x2c
 7150 164b A2000000 		.4byte	.LVL245
 7151 164f 2E2D0000 		.4byte	0x2d2e
 7152 1653 33       		.uleb128 0x33
 7153 1654 B8000000 		.4byte	.LVL246
 7154 1658 3A2D0000 		.4byte	0x2d3a
 7155 165c 2A       		.uleb128 0x2a
 7156 165d 01       		.uleb128 0x1
 7157 165e 50       		.byte	0x50
 7158 165f 05       		.uleb128 0x5
 7159 1660 03       		.byte	0x3
 7160 1661 00000000 		.4byte	.LANCHOR4
 7161 1665 00       		.byte	0
 7162 1666 00       		.byte	0
 7163 1667 00       		.byte	0
 7164 1668 37       		.uleb128 0x37
 7165 1669 A62B0000 		.4byte	0x2ba6
 7166 166d 3C000000 		.4byte	.LBI367
 7167 1671 02       		.byte	.LVU617
ARM GAS  /tmp/ccvURch4.s 			page 129


 7168 1672 3C000000 		.4byte	.LBB367
 7169 1676 0A000000 		.4byte	.LBE367-.LBB367
 7170 167a 01       		.byte	0x1
 7171 167b DA01     		.2byte	0x1da
 7172 167d 0B       		.byte	0xb
 7173 167e A6160000 		.4byte	0x16a6
 7174 1682 31       		.uleb128 0x31
 7175 1683 B82B0000 		.4byte	0x2bb8
 7176 1687 38010000 		.4byte	.LLST27
 7177 168b 36010000 		.4byte	.LVUS27
 7178 168f 33       		.uleb128 0x33
 7179 1690 46000000 		.4byte	.LVL231
 7180 1694 5F2D0000 		.4byte	0x2d5f
 7181 1698 2A       		.uleb128 0x2a
 7182 1699 01       		.uleb128 0x1
 7183 169a 50       		.byte	0x50
 7184 169b 02       		.uleb128 0x2
 7185 169c 74       		.byte	0x74
 7186 169d 00       		.sleb128 0
 7187 169e 2A       		.uleb128 0x2a
 7188 169f 01       		.uleb128 0x1
 7189 16a0 51       		.byte	0x51
 7190 16a1 02       		.uleb128 0x2
 7191 16a2 09       		.byte	0x9
 7192 16a3 FF       		.byte	0xff
 7193 16a4 00       		.byte	0
 7194 16a5 00       		.byte	0
 7195 16a6 37       		.uleb128 0x37
 7196 16a7 A62B0000 		.4byte	0x2ba6
 7197 16ab 46000000 		.4byte	.LBI369
 7198 16af 02       		.byte	.LVU622
 7199 16b0 46000000 		.4byte	.LBB369
 7200 16b4 0A000000 		.4byte	.LBE369-.LBB369
 7201 16b8 01       		.byte	0x1
 7202 16b9 DB01     		.2byte	0x1db
 7203 16bb 0B       		.byte	0xb
 7204 16bc E4160000 		.4byte	0x16e4
 7205 16c0 31       		.uleb128 0x31
 7206 16c1 B82B0000 		.4byte	0x2bb8
 7207 16c5 52010000 		.4byte	.LLST28
 7208 16c9 50010000 		.4byte	.LVUS28
 7209 16cd 33       		.uleb128 0x33
 7210 16ce 50000000 		.4byte	.LVL232
 7211 16d2 5F2D0000 		.4byte	0x2d5f
 7212 16d6 2A       		.uleb128 0x2a
 7213 16d7 01       		.uleb128 0x1
 7214 16d8 50       		.byte	0x50
 7215 16d9 02       		.uleb128 0x2
 7216 16da 74       		.byte	0x74
 7217 16db 00       		.sleb128 0
 7218 16dc 2A       		.uleb128 0x2a
 7219 16dd 01       		.uleb128 0x1
 7220 16de 51       		.byte	0x51
 7221 16df 02       		.uleb128 0x2
 7222 16e0 09       		.byte	0x9
 7223 16e1 FF       		.byte	0xff
 7224 16e2 00       		.byte	0
ARM GAS  /tmp/ccvURch4.s 			page 130


 7225 16e3 00       		.byte	0
 7226 16e4 37       		.uleb128 0x37
 7227 16e5 A62B0000 		.4byte	0x2ba6
 7228 16e9 50000000 		.4byte	.LBI371
 7229 16ed 02       		.byte	.LVU627
 7230 16ee 50000000 		.4byte	.LBB371
 7231 16f2 0A000000 		.4byte	.LBE371-.LBB371
 7232 16f6 01       		.byte	0x1
 7233 16f7 DC01     		.2byte	0x1dc
 7234 16f9 0B       		.byte	0xb
 7235 16fa 22170000 		.4byte	0x1722
 7236 16fe 31       		.uleb128 0x31
 7237 16ff B82B0000 		.4byte	0x2bb8
 7238 1703 6C010000 		.4byte	.LLST29
 7239 1707 6A010000 		.4byte	.LVUS29
 7240 170b 33       		.uleb128 0x33
 7241 170c 5A000000 		.4byte	.LVL233
 7242 1710 5F2D0000 		.4byte	0x2d5f
 7243 1714 2A       		.uleb128 0x2a
 7244 1715 01       		.uleb128 0x1
 7245 1716 50       		.byte	0x50
 7246 1717 02       		.uleb128 0x2
 7247 1718 74       		.byte	0x74
 7248 1719 00       		.sleb128 0
 7249 171a 2A       		.uleb128 0x2a
 7250 171b 01       		.uleb128 0x1
 7251 171c 51       		.byte	0x51
 7252 171d 02       		.uleb128 0x2
 7253 171e 09       		.byte	0x9
 7254 171f FF       		.byte	0xff
 7255 1720 00       		.byte	0
 7256 1721 00       		.byte	0
 7257 1722 37       		.uleb128 0x37
 7258 1723 A62B0000 		.4byte	0x2ba6
 7259 1727 5A000000 		.4byte	.LBI373
 7260 172b 02       		.byte	.LVU632
 7261 172c 5A000000 		.4byte	.LBB373
 7262 1730 0A000000 		.4byte	.LBE373-.LBB373
 7263 1734 01       		.byte	0x1
 7264 1735 DD01     		.2byte	0x1dd
 7265 1737 0B       		.byte	0xb
 7266 1738 60170000 		.4byte	0x1760
 7267 173c 31       		.uleb128 0x31
 7268 173d B82B0000 		.4byte	0x2bb8
 7269 1741 86010000 		.4byte	.LLST30
 7270 1745 84010000 		.4byte	.LVUS30
 7271 1749 33       		.uleb128 0x33
 7272 174a 64000000 		.4byte	.LVL234
 7273 174e 5F2D0000 		.4byte	0x2d5f
 7274 1752 2A       		.uleb128 0x2a
 7275 1753 01       		.uleb128 0x1
 7276 1754 50       		.byte	0x50
 7277 1755 02       		.uleb128 0x2
 7278 1756 74       		.byte	0x74
 7279 1757 00       		.sleb128 0
 7280 1758 2A       		.uleb128 0x2a
 7281 1759 01       		.uleb128 0x1
ARM GAS  /tmp/ccvURch4.s 			page 131


 7282 175a 51       		.byte	0x51
 7283 175b 02       		.uleb128 0x2
 7284 175c 09       		.byte	0x9
 7285 175d FF       		.byte	0xff
 7286 175e 00       		.byte	0
 7287 175f 00       		.byte	0
 7288 1760 2F       		.uleb128 0x2f
 7289 1761 432C0000 		.4byte	0x2c43
 7290 1765 6C000000 		.4byte	.LBI375
 7291 1769 02       		.byte	.LVU643
 7292 176a D8030000 		.4byte	.Ldebug_ranges0+0x3d8
 7293 176e 01       		.byte	0x1
 7294 176f D401     		.2byte	0x1d4
 7295 1771 05       		.byte	0x5
 7296 1772 C4170000 		.4byte	0x17c4
 7297 1776 2F       		.uleb128 0x2f
 7298 1777 572C0000 		.4byte	0x2c57
 7299 177b 6C000000 		.4byte	.LBI377
 7300 177f 04       		.byte	.LVU645
 7301 1780 F0030000 		.4byte	.Ldebug_ranges0+0x3f0
 7302 1784 05       		.byte	0x5
 7303 1785 5C01     		.2byte	0x15c
 7304 1787 03       		.byte	0x3
 7305 1788 B1170000 		.4byte	0x17b1
 7306 178c 36       		.uleb128 0x36
 7307 178d 612C0000 		.4byte	0x2c61
 7308 1791 6C000000 		.4byte	.LBI378
 7309 1795 06       		.byte	.LVU647
 7310 1796 6C000000 		.4byte	.LBB378
 7311 179a 06000000 		.4byte	.LBE378-.LBB378
 7312 179e 06       		.byte	0x6
 7313 179f BF01     		.2byte	0x1bf
 7314 17a1 03       		.byte	0x3
 7315 17a2 31       		.uleb128 0x31
 7316 17a3 6F2C0000 		.4byte	0x2c6f
 7317 17a7 A0010000 		.4byte	.LLST31
 7318 17ab 9E010000 		.4byte	.LVUS31
 7319 17af 00       		.byte	0
 7320 17b0 00       		.byte	0
 7321 17b1 2C       		.uleb128 0x2c
 7322 17b2 76000000 		.4byte	.LVL238
 7323 17b6 0A2D0000 		.4byte	0x2d0a
 7324 17ba 2C       		.uleb128 0x2c
 7325 17bb 7A000000 		.4byte	.LVL239
 7326 17bf 162D0000 		.4byte	0x2d16
 7327 17c3 00       		.byte	0
 7328 17c4 29       		.uleb128 0x29
 7329 17c5 20000000 		.4byte	.LVL226
 7330 17c9 6B2D0000 		.4byte	0x2d6b
 7331 17cd F6170000 		.4byte	0x17f6
 7332 17d1 2A       		.uleb128 0x2a
 7333 17d2 01       		.uleb128 0x1
 7334 17d3 50       		.byte	0x50
 7335 17d4 05       		.uleb128 0x5
 7336 17d5 03       		.byte	0x3
 7337 17d6 00000000 		.4byte	.LANCHOR6
 7338 17da 2A       		.uleb128 0x2a
ARM GAS  /tmp/ccvURch4.s 			page 132


 7339 17db 01       		.uleb128 0x1
 7340 17dc 51       		.byte	0x51
 7341 17dd 05       		.uleb128 0x5
 7342 17de 03       		.byte	0x3
 7343 17df 00000000 		.4byte	.LANCHOR5
 7344 17e3 2A       		.uleb128 0x2a
 7345 17e4 01       		.uleb128 0x1
 7346 17e5 52       		.byte	0x52
 7347 17e6 01       		.uleb128 0x1
 7348 17e7 40       		.byte	0x40
 7349 17e8 2A       		.uleb128 0x2a
 7350 17e9 01       		.uleb128 0x1
 7351 17ea 53       		.byte	0x53
 7352 17eb 02       		.uleb128 0x2
 7353 17ec 76       		.byte	0x76
 7354 17ed 00       		.sleb128 0
 7355 17ee 2A       		.uleb128 0x2a
 7356 17ef 02       		.uleb128 0x2
 7357 17f0 7D       		.byte	0x7d
 7358 17f1 00       		.sleb128 0
 7359 17f2 02       		.uleb128 0x2
 7360 17f3 76       		.byte	0x76
 7361 17f4 00       		.sleb128 0
 7362 17f5 00       		.byte	0
 7363 17f6 2C       		.uleb128 0x2c
 7364 17f7 24000000 		.4byte	.LVL227
 7365 17fb AA2C0000 		.4byte	0x2caa
 7366 17ff 29       		.uleb128 0x29
 7367 1800 2C000000 		.4byte	.LVL228
 7368 1804 B62C0000 		.4byte	0x2cb6
 7369 1808 14180000 		.4byte	0x1814
 7370 180c 2A       		.uleb128 0x2a
 7371 180d 01       		.uleb128 0x1
 7372 180e 50       		.byte	0x50
 7373 180f 03       		.uleb128 0x3
 7374 1810 0A       		.byte	0xa
 7375 1811 E803     		.2byte	0x3e8
 7376 1813 00       		.byte	0
 7377 1814 29       		.uleb128 0x29
 7378 1815 82000000 		.4byte	.LVL240
 7379 1819 772D0000 		.4byte	0x2d77
 7380 181d 2E180000 		.4byte	0x182e
 7381 1821 2A       		.uleb128 0x2a
 7382 1822 01       		.uleb128 0x1
 7383 1823 50       		.byte	0x50
 7384 1824 02       		.uleb128 0x2
 7385 1825 74       		.byte	0x74
 7386 1826 00       		.sleb128 0
 7387 1827 2A       		.uleb128 0x2a
 7388 1828 01       		.uleb128 0x1
 7389 1829 51       		.byte	0x51
 7390 182a 02       		.uleb128 0x2
 7391 182b 77       		.byte	0x77
 7392 182c 00       		.sleb128 0
 7393 182d 00       		.byte	0
 7394 182e 29       		.uleb128 0x29
 7395 182f 8A000000 		.4byte	.LVL241
ARM GAS  /tmp/ccvURch4.s 			page 133


 7396 1833 772D0000 		.4byte	0x2d77
 7397 1837 47180000 		.4byte	0x1847
 7398 183b 2A       		.uleb128 0x2a
 7399 183c 01       		.uleb128 0x1
 7400 183d 50       		.byte	0x50
 7401 183e 02       		.uleb128 0x2
 7402 183f 74       		.byte	0x74
 7403 1840 00       		.sleb128 0
 7404 1841 2A       		.uleb128 0x2a
 7405 1842 01       		.uleb128 0x1
 7406 1843 51       		.byte	0x51
 7407 1844 01       		.uleb128 0x1
 7408 1845 31       		.byte	0x31
 7409 1846 00       		.byte	0
 7410 1847 29       		.uleb128 0x29
 7411 1848 92000000 		.4byte	.LVL242
 7412 184c 772D0000 		.4byte	0x2d77
 7413 1850 60180000 		.4byte	0x1860
 7414 1854 2A       		.uleb128 0x2a
 7415 1855 01       		.uleb128 0x1
 7416 1856 50       		.byte	0x50
 7417 1857 02       		.uleb128 0x2
 7418 1858 74       		.byte	0x74
 7419 1859 00       		.sleb128 0
 7420 185a 2A       		.uleb128 0x2a
 7421 185b 01       		.uleb128 0x1
 7422 185c 51       		.byte	0x51
 7423 185d 01       		.uleb128 0x1
 7424 185e 32       		.byte	0x32
 7425 185f 00       		.byte	0
 7426 1860 29       		.uleb128 0x29
 7427 1861 9A000000 		.4byte	.LVL243
 7428 1865 772D0000 		.4byte	0x2d77
 7429 1869 79180000 		.4byte	0x1879
 7430 186d 2A       		.uleb128 0x2a
 7431 186e 01       		.uleb128 0x1
 7432 186f 50       		.byte	0x50
 7433 1870 02       		.uleb128 0x2
 7434 1871 74       		.byte	0x74
 7435 1872 00       		.sleb128 0
 7436 1873 2A       		.uleb128 0x2a
 7437 1874 01       		.uleb128 0x1
 7438 1875 51       		.byte	0x51
 7439 1876 01       		.uleb128 0x1
 7440 1877 33       		.byte	0x33
 7441 1878 00       		.byte	0
 7442 1879 29       		.uleb128 0x29
 7443 187a C0000000 		.4byte	.LVL247
 7444 187e 7D2C0000 		.4byte	0x2c7d
 7445 1882 90180000 		.4byte	0x1890
 7446 1886 2A       		.uleb128 0x2a
 7447 1887 01       		.uleb128 0x1
 7448 1888 50       		.byte	0x50
 7449 1889 05       		.uleb128 0x5
 7450 188a 03       		.byte	0x3
 7451 188b 00000000 		.4byte	.LC14
 7452 188f 00       		.byte	0
ARM GAS  /tmp/ccvURch4.s 			page 134


 7453 1890 29       		.uleb128 0x29
 7454 1891 C6000000 		.4byte	.LVL248
 7455 1895 892C0000 		.4byte	0x2c89
 7456 1899 A6180000 		.4byte	0x18a6
 7457 189d 2A       		.uleb128 0x2a
 7458 189e 01       		.uleb128 0x1
 7459 189f 50       		.byte	0x50
 7460 18a0 04       		.uleb128 0x4
 7461 18a1 76       		.byte	0x76
 7462 18a2 00       		.sleb128 0
 7463 18a3 32       		.byte	0x32
 7464 18a4 24       		.byte	0x24
 7465 18a5 00       		.byte	0
 7466 18a6 2B       		.uleb128 0x2b
 7467 18a7 DC000000 		.4byte	.LVL250
 7468 18ab 952C0000 		.4byte	0x2c95
 7469 18af BD180000 		.4byte	0x18bd
 7470 18b3 2A       		.uleb128 0x2a
 7471 18b4 01       		.uleb128 0x1
 7472 18b5 50       		.byte	0x50
 7473 18b6 05       		.uleb128 0x5
 7474 18b7 03       		.byte	0x3
 7475 18b8 00000000 		.4byte	.LC39
 7476 18bc 00       		.byte	0
 7477 18bd 2C       		.uleb128 0x2c
 7478 18be E0000000 		.4byte	.LVL251
 7479 18c2 A12C0000 		.4byte	0x2ca1
 7480 18c6 00       		.byte	0
 7481 18c7 18       		.uleb128 0x18
 7482 18c8 73000000 		.4byte	0x73
 7483 18cc D7180000 		.4byte	0x18d7
 7484 18d0 19       		.uleb128 0x19
 7485 18d1 38000000 		.4byte	0x38
 7486 18d5 0F       		.byte	0xf
 7487 18d6 00       		.byte	0
 7488 18d7 28       		.uleb128 0x28
 7489 18d8 CC030000 		.4byte	.LASF199
 7490 18dc 01       		.byte	0x1
 7491 18dd A301     		.2byte	0x1a3
 7492 18df 0D       		.byte	0xd
 7493 18e0 00000000 		.4byte	.LFB233
 7494 18e4 E0000000 		.4byte	.LFE233-.LFB233
 7495 18e8 01       		.uleb128 0x1
 7496 18e9 9C       		.byte	0x9c
 7497 18ea 211B0000 		.4byte	0x1b21
 7498 18ee 2E       		.uleb128 0x2e
 7499 18ef 6E00     		.ascii	"n\000"
 7500 18f1 01       		.byte	0x1
 7501 18f2 A401     		.2byte	0x1a4
 7502 18f4 0C       		.byte	0xc
 7503 18f5 99000000 		.4byte	0x99
 7504 18f9 02       		.uleb128 0x2
 7505 18fa 91       		.byte	0x91
 7506 18fb 60       		.sleb128 -32
 7507 18fc 2F       		.uleb128 0x2f
 7508 18fd F62B0000 		.4byte	0x2bf6
 7509 1901 1C000000 		.4byte	.LBI265
ARM GAS  /tmp/ccvURch4.s 			page 135


 7510 1905 01       		.byte	.LVU400
 7511 1906 50020000 		.4byte	.Ldebug_ranges0+0x250
 7512 190a 01       		.byte	0x1
 7513 190b A901     		.2byte	0x1a9
 7514 190d 32       		.byte	0x32
 7515 190e 24190000 		.4byte	0x1924
 7516 1912 38       		.uleb128 0x38
 7517 1913 032C0000 		.4byte	0x2c03
 7518 1917 1C000000 		.4byte	.LBI267
 7519 191b 03       		.byte	.LVU402
 7520 191c 68020000 		.4byte	.Ldebug_ranges0+0x268
 7521 1920 03       		.byte	0x3
 7522 1921 BD       		.byte	0xbd
 7523 1922 0A       		.byte	0xa
 7524 1923 00       		.byte	0
 7525 1924 2F       		.uleb128 0x2f
 7526 1925 F62B0000 		.4byte	0x2bf6
 7527 1929 36000000 		.4byte	.LBI273
 7528 192d 01       		.byte	.LVU409
 7529 192e 80020000 		.4byte	.Ldebug_ranges0+0x280
 7530 1932 01       		.byte	0x1
 7531 1933 AA01     		.2byte	0x1aa
 7532 1935 32       		.byte	0x32
 7533 1936 50190000 		.4byte	0x1950
 7534 193a 39       		.uleb128 0x39
 7535 193b 032C0000 		.4byte	0x2c03
 7536 193f 36000000 		.4byte	.LBI275
 7537 1943 03       		.byte	.LVU411
 7538 1944 36000000 		.4byte	.LBB275
 7539 1948 00000000 		.4byte	.LBE275-.LBB275
 7540 194c 03       		.byte	0x3
 7541 194d BD       		.byte	0xbd
 7542 194e 0A       		.byte	0xa
 7543 194f 00       		.byte	0
 7544 1950 2F       		.uleb128 0x2f
 7545 1951 F62B0000 		.4byte	0x2bf6
 7546 1955 4C000000 		.4byte	.LBI279
 7547 1959 01       		.byte	.LVU417
 7548 195a 98020000 		.4byte	.Ldebug_ranges0+0x298
 7549 195e 01       		.byte	0x1
 7550 195f AB01     		.2byte	0x1ab
 7551 1961 32       		.byte	0x32
 7552 1962 7C190000 		.4byte	0x197c
 7553 1966 39       		.uleb128 0x39
 7554 1967 032C0000 		.4byte	0x2c03
 7555 196b 4C000000 		.4byte	.LBI281
 7556 196f 03       		.byte	.LVU419
 7557 1970 4C000000 		.4byte	.LBB281
 7558 1974 00000000 		.4byte	.LBE281-.LBB281
 7559 1978 03       		.byte	0x3
 7560 1979 BD       		.byte	0xbd
 7561 197a 0A       		.byte	0xa
 7562 197b 00       		.byte	0
 7563 197c 2F       		.uleb128 0x2f
 7564 197d F62B0000 		.4byte	0x2bf6
 7565 1981 62000000 		.4byte	.LBI285
 7566 1985 01       		.byte	.LVU425
ARM GAS  /tmp/ccvURch4.s 			page 136


 7567 1986 B0020000 		.4byte	.Ldebug_ranges0+0x2b0
 7568 198a 01       		.byte	0x1
 7569 198b AC01     		.2byte	0x1ac
 7570 198d 32       		.byte	0x32
 7571 198e A8190000 		.4byte	0x19a8
 7572 1992 39       		.uleb128 0x39
 7573 1993 032C0000 		.4byte	0x2c03
 7574 1997 62000000 		.4byte	.LBI287
 7575 199b 03       		.byte	.LVU427
 7576 199c 62000000 		.4byte	.LBB287
 7577 19a0 00000000 		.4byte	.LBE287-.LBB287
 7578 19a4 03       		.byte	0x3
 7579 19a5 BD       		.byte	0xbd
 7580 19a6 0A       		.byte	0xa
 7581 19a7 00       		.byte	0
 7582 19a8 2F       		.uleb128 0x2f
 7583 19a9 F62B0000 		.4byte	0x2bf6
 7584 19ad 78000000 		.4byte	.LBI291
 7585 19b1 01       		.byte	.LVU433
 7586 19b2 C8020000 		.4byte	.Ldebug_ranges0+0x2c8
 7587 19b6 01       		.byte	0x1
 7588 19b7 AD01     		.2byte	0x1ad
 7589 19b9 32       		.byte	0x32
 7590 19ba D4190000 		.4byte	0x19d4
 7591 19be 39       		.uleb128 0x39
 7592 19bf 032C0000 		.4byte	0x2c03
 7593 19c3 78000000 		.4byte	.LBI293
 7594 19c7 03       		.byte	.LVU435
 7595 19c8 78000000 		.4byte	.LBB293
 7596 19cc 00000000 		.4byte	.LBE293-.LBB293
 7597 19d0 03       		.byte	0x3
 7598 19d1 BD       		.byte	0xbd
 7599 19d2 0A       		.byte	0xa
 7600 19d3 00       		.byte	0
 7601 19d4 2C       		.uleb128 0x2c
 7602 19d5 1C000000 		.4byte	.LVL143
 7603 19d9 AA2C0000 		.4byte	0x2caa
 7604 19dd 29       		.uleb128 0x29
 7605 19de 32000000 		.4byte	.LVL144
 7606 19e2 832D0000 		.4byte	0x2d83
 7607 19e6 091A0000 		.4byte	0x1a09
 7608 19ea 2A       		.uleb128 0x2a
 7609 19eb 01       		.uleb128 0x1
 7610 19ec 50       		.byte	0x50
 7611 19ed 03       		.uleb128 0x3
 7612 19ee 76       		.byte	0x76
 7613 19ef 00       		.sleb128 0
 7614 19f0 06       		.byte	0x6
 7615 19f1 2A       		.uleb128 0x2a
 7616 19f2 01       		.uleb128 0x1
 7617 19f3 51       		.byte	0x51
 7618 19f4 03       		.uleb128 0x3
 7619 19f5 0A       		.byte	0xa
 7620 19f6 F801     		.2byte	0x1f8
 7621 19f8 2A       		.uleb128 0x2a
 7622 19f9 01       		.uleb128 0x1
 7623 19fa 53       		.byte	0x53
ARM GAS  /tmp/ccvURch4.s 			page 137


 7624 19fb 05       		.uleb128 0x5
 7625 19fc 03       		.byte	0x3
 7626 19fd 00000000 		.4byte	thread8
 7627 1a01 2A       		.uleb128 0x2a
 7628 1a02 02       		.uleb128 0x2
 7629 1a03 7D       		.byte	0x7d
 7630 1a04 00       		.sleb128 0
 7631 1a05 02       		.uleb128 0x2
 7632 1a06 75       		.byte	0x75
 7633 1a07 00       		.sleb128 0
 7634 1a08 00       		.byte	0
 7635 1a09 29       		.uleb128 0x29
 7636 1a0a 48000000 		.4byte	.LVL145
 7637 1a0e 832D0000 		.4byte	0x2d83
 7638 1a12 351A0000 		.4byte	0x1a35
 7639 1a16 2A       		.uleb128 0x2a
 7640 1a17 01       		.uleb128 0x1
 7641 1a18 50       		.byte	0x50
 7642 1a19 03       		.uleb128 0x3
 7643 1a1a 76       		.byte	0x76
 7644 1a1b 04       		.sleb128 4
 7645 1a1c 06       		.byte	0x6
 7646 1a1d 2A       		.uleb128 0x2a
 7647 1a1e 01       		.uleb128 0x1
 7648 1a1f 51       		.byte	0x51
 7649 1a20 03       		.uleb128 0x3
 7650 1a21 0A       		.byte	0xa
 7651 1a22 F801     		.2byte	0x1f8
 7652 1a24 2A       		.uleb128 0x2a
 7653 1a25 01       		.uleb128 0x1
 7654 1a26 53       		.byte	0x53
 7655 1a27 05       		.uleb128 0x5
 7656 1a28 03       		.byte	0x3
 7657 1a29 00000000 		.4byte	thread8
 7658 1a2d 2A       		.uleb128 0x2a
 7659 1a2e 02       		.uleb128 0x2
 7660 1a2f 7D       		.byte	0x7d
 7661 1a30 00       		.sleb128 0
 7662 1a31 02       		.uleb128 0x2
 7663 1a32 75       		.byte	0x75
 7664 1a33 00       		.sleb128 0
 7665 1a34 00       		.byte	0
 7666 1a35 29       		.uleb128 0x29
 7667 1a36 5E000000 		.4byte	.LVL146
 7668 1a3a 832D0000 		.4byte	0x2d83
 7669 1a3e 611A0000 		.4byte	0x1a61
 7670 1a42 2A       		.uleb128 0x2a
 7671 1a43 01       		.uleb128 0x1
 7672 1a44 50       		.byte	0x50
 7673 1a45 03       		.uleb128 0x3
 7674 1a46 76       		.byte	0x76
 7675 1a47 08       		.sleb128 8
 7676 1a48 06       		.byte	0x6
 7677 1a49 2A       		.uleb128 0x2a
 7678 1a4a 01       		.uleb128 0x1
 7679 1a4b 51       		.byte	0x51
 7680 1a4c 03       		.uleb128 0x3
ARM GAS  /tmp/ccvURch4.s 			page 138


 7681 1a4d 0A       		.byte	0xa
 7682 1a4e F801     		.2byte	0x1f8
 7683 1a50 2A       		.uleb128 0x2a
 7684 1a51 01       		.uleb128 0x1
 7685 1a52 53       		.byte	0x53
 7686 1a53 05       		.uleb128 0x5
 7687 1a54 03       		.byte	0x3
 7688 1a55 00000000 		.4byte	thread8
 7689 1a59 2A       		.uleb128 0x2a
 7690 1a5a 02       		.uleb128 0x2
 7691 1a5b 7D       		.byte	0x7d
 7692 1a5c 00       		.sleb128 0
 7693 1a5d 02       		.uleb128 0x2
 7694 1a5e 75       		.byte	0x75
 7695 1a5f 00       		.sleb128 0
 7696 1a60 00       		.byte	0
 7697 1a61 29       		.uleb128 0x29
 7698 1a62 74000000 		.4byte	.LVL147
 7699 1a66 832D0000 		.4byte	0x2d83
 7700 1a6a 8D1A0000 		.4byte	0x1a8d
 7701 1a6e 2A       		.uleb128 0x2a
 7702 1a6f 01       		.uleb128 0x1
 7703 1a70 50       		.byte	0x50
 7704 1a71 03       		.uleb128 0x3
 7705 1a72 76       		.byte	0x76
 7706 1a73 0C       		.sleb128 12
 7707 1a74 06       		.byte	0x6
 7708 1a75 2A       		.uleb128 0x2a
 7709 1a76 01       		.uleb128 0x1
 7710 1a77 51       		.byte	0x51
 7711 1a78 03       		.uleb128 0x3
 7712 1a79 0A       		.byte	0xa
 7713 1a7a F801     		.2byte	0x1f8
 7714 1a7c 2A       		.uleb128 0x2a
 7715 1a7d 01       		.uleb128 0x1
 7716 1a7e 53       		.byte	0x53
 7717 1a7f 05       		.uleb128 0x5
 7718 1a80 03       		.byte	0x3
 7719 1a81 00000000 		.4byte	thread8
 7720 1a85 2A       		.uleb128 0x2a
 7721 1a86 02       		.uleb128 0x2
 7722 1a87 7D       		.byte	0x7d
 7723 1a88 00       		.sleb128 0
 7724 1a89 02       		.uleb128 0x2
 7725 1a8a 75       		.byte	0x75
 7726 1a8b 00       		.sleb128 0
 7727 1a8c 00       		.byte	0
 7728 1a8d 29       		.uleb128 0x29
 7729 1a8e 8A000000 		.4byte	.LVL148
 7730 1a92 832D0000 		.4byte	0x2d83
 7731 1a96 B91A0000 		.4byte	0x1ab9
 7732 1a9a 2A       		.uleb128 0x2a
 7733 1a9b 01       		.uleb128 0x1
 7734 1a9c 50       		.byte	0x50
 7735 1a9d 03       		.uleb128 0x3
 7736 1a9e 76       		.byte	0x76
 7737 1a9f 10       		.sleb128 16
ARM GAS  /tmp/ccvURch4.s 			page 139


 7738 1aa0 06       		.byte	0x6
 7739 1aa1 2A       		.uleb128 0x2a
 7740 1aa2 01       		.uleb128 0x1
 7741 1aa3 51       		.byte	0x51
 7742 1aa4 03       		.uleb128 0x3
 7743 1aa5 0A       		.byte	0xa
 7744 1aa6 F801     		.2byte	0x1f8
 7745 1aa8 2A       		.uleb128 0x2a
 7746 1aa9 01       		.uleb128 0x1
 7747 1aaa 53       		.byte	0x53
 7748 1aab 05       		.uleb128 0x5
 7749 1aac 03       		.byte	0x3
 7750 1aad 00000000 		.4byte	thread8
 7751 1ab1 2A       		.uleb128 0x2a
 7752 1ab2 02       		.uleb128 0x2
 7753 1ab3 7D       		.byte	0x7d
 7754 1ab4 00       		.sleb128 0
 7755 1ab5 02       		.uleb128 0x2
 7756 1ab6 75       		.byte	0x75
 7757 1ab7 00       		.sleb128 0
 7758 1ab8 00       		.byte	0
 7759 1ab9 29       		.uleb128 0x29
 7760 1aba 96000000 		.4byte	.LVL149
 7761 1abe 8F2D0000 		.4byte	0x2d8f
 7762 1ac2 CE1A0000 		.4byte	0x1ace
 7763 1ac6 2A       		.uleb128 0x2a
 7764 1ac7 01       		.uleb128 0x1
 7765 1ac8 50       		.byte	0x50
 7766 1ac9 03       		.uleb128 0x3
 7767 1aca 0A       		.byte	0xa
 7768 1acb E803     		.2byte	0x3e8
 7769 1acd 00       		.byte	0
 7770 1ace 2C       		.uleb128 0x2c
 7771 1acf 9A000000 		.4byte	.LVL150
 7772 1ad3 9B2D0000 		.4byte	0x2d9b
 7773 1ad7 2C       		.uleb128 0x2c
 7774 1ad8 9E000000 		.4byte	.LVL151
 7775 1adc A72D0000 		.4byte	0x2da7
 7776 1ae0 29       		.uleb128 0x29
 7777 1ae1 A4000000 		.4byte	.LVL152
 7778 1ae5 7D2C0000 		.4byte	0x2c7d
 7779 1ae9 F71A0000 		.4byte	0x1af7
 7780 1aed 2A       		.uleb128 0x2a
 7781 1aee 01       		.uleb128 0x1
 7782 1aef 50       		.byte	0x50
 7783 1af0 05       		.uleb128 0x5
 7784 1af1 03       		.byte	0x3
 7785 1af2 00000000 		.4byte	.LC14
 7786 1af6 00       		.byte	0
 7787 1af7 2C       		.uleb128 0x2c
 7788 1af8 AA000000 		.4byte	.LVL153
 7789 1afc 892C0000 		.4byte	0x2c89
 7790 1b00 29       		.uleb128 0x29
 7791 1b01 B0000000 		.4byte	.LVL154
 7792 1b05 952C0000 		.4byte	0x2c95
 7793 1b09 171B0000 		.4byte	0x1b17
 7794 1b0d 2A       		.uleb128 0x2a
ARM GAS  /tmp/ccvURch4.s 			page 140


 7795 1b0e 01       		.uleb128 0x1
 7796 1b0f 50       		.byte	0x50
 7797 1b10 05       		.uleb128 0x5
 7798 1b11 03       		.byte	0x3
 7799 1b12 0C000000 		.4byte	.LC19
 7800 1b16 00       		.byte	0
 7801 1b17 2C       		.uleb128 0x2c
 7802 1b18 C2000000 		.4byte	.LVL155
 7803 1b1c A12C0000 		.4byte	0x2ca1
 7804 1b20 00       		.byte	0
 7805 1b21 28       		.uleb128 0x28
 7806 1b22 C1080000 		.4byte	.LASF200
 7807 1b26 01       		.byte	0x1
 7808 1b27 9501     		.2byte	0x195
 7809 1b29 08       		.byte	0x8
 7810 1b2a 00000000 		.4byte	.LFB232
 7811 1b2e 4C000000 		.4byte	.LFE232-.LFB232
 7812 1b32 01       		.uleb128 0x1
 7813 1b33 9C       		.byte	0x9c
 7814 1b34 A91B0000 		.4byte	0x1ba9
 7815 1b38 3A       		.uleb128 0x3a
 7816 1b39 7000     		.ascii	"p\000"
 7817 1b3b 01       		.byte	0x1
 7818 1b3c 9501     		.2byte	0x195
 7819 1b3e 08       		.byte	0x8
 7820 1b3f 8E030000 		.4byte	0x38e
 7821 1b43 B9010000 		.4byte	.LLST19
 7822 1b47 B5010000 		.4byte	.LVUS19
 7823 1b4b 37       		.uleb128 0x37
 7824 1b4c E92B0000 		.4byte	0x2be9
 7825 1b50 28000000 		.4byte	.LBI297
 7826 1b54 01       		.byte	.LVU458
 7827 1b55 28000000 		.4byte	.LBB297
 7828 1b59 02000000 		.4byte	.LBE297-.LBB297
 7829 1b5d 01       		.byte	0x1
 7830 1b5e A001     		.2byte	0x1a0
 7831 1b60 0C       		.byte	0xc
 7832 1b61 7B1B0000 		.4byte	0x1b7b
 7833 1b65 39       		.uleb128 0x39
 7834 1b66 032C0000 		.4byte	0x2c03
 7835 1b6a 28000000 		.4byte	.LBI299
 7836 1b6e 03       		.byte	.LVU460
 7837 1b6f 28000000 		.4byte	.LBB299
 7838 1b73 00000000 		.4byte	.LBE299-.LBB299
 7839 1b77 03       		.byte	0x3
 7840 1b78 E9       		.byte	0xe9
 7841 1b79 12       		.byte	0x12
 7842 1b7a 00       		.byte	0
 7843 1b7b 2C       		.uleb128 0x2c
 7844 1b7c 16000000 		.4byte	.LVL158
 7845 1b80 B32D0000 		.4byte	0x2db3
 7846 1b84 2C       		.uleb128 0x2c
 7847 1b85 1A000000 		.4byte	.LVL159
 7848 1b89 B32D0000 		.4byte	0x2db3
 7849 1b8d 2C       		.uleb128 0x2c
 7850 1b8e 1E000000 		.4byte	.LVL160
 7851 1b92 B32D0000 		.4byte	0x2db3
ARM GAS  /tmp/ccvURch4.s 			page 141


 7852 1b96 2C       		.uleb128 0x2c
 7853 1b97 22000000 		.4byte	.LVL161
 7854 1b9b B32D0000 		.4byte	0x2db3
 7855 1b9f 2C       		.uleb128 0x2c
 7856 1ba0 44000000 		.4byte	.LVL163
 7857 1ba4 A12C0000 		.4byte	0x2ca1
 7858 1ba8 00       		.byte	0
 7859 1ba9 28       		.uleb128 0x28
 7860 1baa 90010000 		.4byte	.LASF202
 7861 1bae 01       		.byte	0x1
 7862 1baf 6501     		.2byte	0x165
 7863 1bb1 0D       		.byte	0xd
 7864 1bb2 00000000 		.4byte	.LFB231
 7865 1bb6 20010000 		.4byte	.LFE231-.LFB231
 7866 1bba 01       		.uleb128 0x1
 7867 1bbb 9C       		.byte	0x9c
 7868 1bbc 621E0000 		.4byte	0x1e62
 7869 1bc0 2D       		.uleb128 0x2d
 7870 1bc1 6E00     		.ascii	"n\000"
 7871 1bc3 01       		.byte	0x1
 7872 1bc4 6601     		.2byte	0x166
 7873 1bc6 0C       		.byte	0xc
 7874 1bc7 99000000 		.4byte	0x99
 7875 1bcb DB010000 		.4byte	.LLST17
 7876 1bcf D7010000 		.4byte	.LVUS17
 7877 1bd3 2F       		.uleb128 0x2f
 7878 1bd4 F62B0000 		.4byte	0x2bf6
 7879 1bd8 26000000 		.4byte	.LBI219
 7880 1bdc 02       		.byte	.LVU293
 7881 1bdd 78010000 		.4byte	.Ldebug_ranges0+0x178
 7882 1be1 01       		.byte	0x1
 7883 1be2 6801     		.2byte	0x168
 7884 1be4 32       		.byte	0x32
 7885 1be5 FB1B0000 		.4byte	0x1bfb
 7886 1be9 38       		.uleb128 0x38
 7887 1bea 032C0000 		.4byte	0x2c03
 7888 1bee 26000000 		.4byte	.LBI221
 7889 1bf2 04       		.byte	.LVU295
 7890 1bf3 98010000 		.4byte	.Ldebug_ranges0+0x198
 7891 1bf7 03       		.byte	0x3
 7892 1bf8 BD       		.byte	0xbd
 7893 1bf9 0A       		.byte	0xa
 7894 1bfa 00       		.byte	0
 7895 1bfb 2F       		.uleb128 0x2f
 7896 1bfc F62B0000 		.4byte	0x2bf6
 7897 1c00 38000000 		.4byte	.LBI229
 7898 1c04 01       		.byte	.LVU301
 7899 1c05 B0010000 		.4byte	.Ldebug_ranges0+0x1b0
 7900 1c09 01       		.byte	0x1
 7901 1c0a 6901     		.2byte	0x169
 7902 1c0c 32       		.byte	0x32
 7903 1c0d 271C0000 		.4byte	0x1c27
 7904 1c11 39       		.uleb128 0x39
 7905 1c12 032C0000 		.4byte	0x2c03
 7906 1c16 38000000 		.4byte	.LBI231
 7907 1c1a 03       		.byte	.LVU303
 7908 1c1b 38000000 		.4byte	.LBB231
ARM GAS  /tmp/ccvURch4.s 			page 142


 7909 1c1f 00000000 		.4byte	.LBE231-.LBB231
 7910 1c23 03       		.byte	0x3
 7911 1c24 BD       		.byte	0xbd
 7912 1c25 0A       		.byte	0xa
 7913 1c26 00       		.byte	0
 7914 1c27 2F       		.uleb128 0x2f
 7915 1c28 F62B0000 		.4byte	0x2bf6
 7916 1c2c 50000000 		.4byte	.LBI235
 7917 1c30 01       		.byte	.LVU309
 7918 1c31 C8010000 		.4byte	.Ldebug_ranges0+0x1c8
 7919 1c35 01       		.byte	0x1
 7920 1c36 6A01     		.2byte	0x16a
 7921 1c38 32       		.byte	0x32
 7922 1c39 531C0000 		.4byte	0x1c53
 7923 1c3d 39       		.uleb128 0x39
 7924 1c3e 032C0000 		.4byte	0x2c03
 7925 1c42 50000000 		.4byte	.LBI237
 7926 1c46 03       		.byte	.LVU311
 7927 1c47 50000000 		.4byte	.LBB237
 7928 1c4b 00000000 		.4byte	.LBE237-.LBB237
 7929 1c4f 03       		.byte	0x3
 7930 1c50 BD       		.byte	0xbd
 7931 1c51 0A       		.byte	0xa
 7932 1c52 00       		.byte	0
 7933 1c53 2F       		.uleb128 0x2f
 7934 1c54 F62B0000 		.4byte	0x2bf6
 7935 1c58 68000000 		.4byte	.LBI241
 7936 1c5c 01       		.byte	.LVU317
 7937 1c5d E0010000 		.4byte	.Ldebug_ranges0+0x1e0
 7938 1c61 01       		.byte	0x1
 7939 1c62 6B01     		.2byte	0x16b
 7940 1c64 32       		.byte	0x32
 7941 1c65 7F1C0000 		.4byte	0x1c7f
 7942 1c69 39       		.uleb128 0x39
 7943 1c6a 032C0000 		.4byte	0x2c03
 7944 1c6e 68000000 		.4byte	.LBI243
 7945 1c72 03       		.byte	.LVU319
 7946 1c73 68000000 		.4byte	.LBB243
 7947 1c77 00000000 		.4byte	.LBE243-.LBB243
 7948 1c7b 03       		.byte	0x3
 7949 1c7c BD       		.byte	0xbd
 7950 1c7d 0A       		.byte	0xa
 7951 1c7e 00       		.byte	0
 7952 1c7f 2F       		.uleb128 0x2f
 7953 1c80 F62B0000 		.4byte	0x2bf6
 7954 1c84 80000000 		.4byte	.LBI247
 7955 1c88 01       		.byte	.LVU325
 7956 1c89 F8010000 		.4byte	.Ldebug_ranges0+0x1f8
 7957 1c8d 01       		.byte	0x1
 7958 1c8e 6C01     		.2byte	0x16c
 7959 1c90 32       		.byte	0x32
 7960 1c91 AB1C0000 		.4byte	0x1cab
 7961 1c95 39       		.uleb128 0x39
 7962 1c96 032C0000 		.4byte	0x2c03
 7963 1c9a 80000000 		.4byte	.LBI249
 7964 1c9e 03       		.byte	.LVU327
 7965 1c9f 80000000 		.4byte	.LBB249
ARM GAS  /tmp/ccvURch4.s 			page 143


 7966 1ca3 00000000 		.4byte	.LBE249-.LBB249
 7967 1ca7 03       		.byte	0x3
 7968 1ca8 BD       		.byte	0xbd
 7969 1ca9 0A       		.byte	0xa
 7970 1caa 00       		.byte	0
 7971 1cab 29       		.uleb128 0x29
 7972 1cac 32000000 		.4byte	.LVL115
 7973 1cb0 832D0000 		.4byte	0x2d83
 7974 1cb4 D71C0000 		.4byte	0x1cd7
 7975 1cb8 2A       		.uleb128 0x2a
 7976 1cb9 01       		.uleb128 0x1
 7977 1cba 50       		.byte	0x50
 7978 1cbb 03       		.uleb128 0x3
 7979 1cbc 75       		.byte	0x75
 7980 1cbd 00       		.sleb128 0
 7981 1cbe 06       		.byte	0x6
 7982 1cbf 2A       		.uleb128 0x2a
 7983 1cc0 01       		.uleb128 0x1
 7984 1cc1 51       		.byte	0x51
 7985 1cc2 03       		.uleb128 0x3
 7986 1cc3 0A       		.byte	0xa
 7987 1cc4 F801     		.2byte	0x1f8
 7988 1cc6 2A       		.uleb128 0x2a
 7989 1cc7 01       		.uleb128 0x1
 7990 1cc8 53       		.byte	0x53
 7991 1cc9 05       		.uleb128 0x5
 7992 1cca 03       		.byte	0x3
 7993 1ccb 00000000 		.4byte	thread3
 7994 1ccf 2A       		.uleb128 0x2a
 7995 1cd0 02       		.uleb128 0x2
 7996 1cd1 7D       		.byte	0x7d
 7997 1cd2 00       		.sleb128 0
 7998 1cd3 02       		.uleb128 0x2
 7999 1cd4 74       		.byte	0x74
 8000 1cd5 00       		.sleb128 0
 8001 1cd6 00       		.byte	0
 8002 1cd7 29       		.uleb128 0x29
 8003 1cd8 4A000000 		.4byte	.LVL116
 8004 1cdc 832D0000 		.4byte	0x2d83
 8005 1ce0 031D0000 		.4byte	0x1d03
 8006 1ce4 2A       		.uleb128 0x2a
 8007 1ce5 01       		.uleb128 0x1
 8008 1ce6 50       		.byte	0x50
 8009 1ce7 03       		.uleb128 0x3
 8010 1ce8 75       		.byte	0x75
 8011 1ce9 04       		.sleb128 4
 8012 1cea 06       		.byte	0x6
 8013 1ceb 2A       		.uleb128 0x2a
 8014 1cec 01       		.uleb128 0x1
 8015 1ced 51       		.byte	0x51
 8016 1cee 03       		.uleb128 0x3
 8017 1cef 0A       		.byte	0xa
 8018 1cf0 F801     		.2byte	0x1f8
 8019 1cf2 2A       		.uleb128 0x2a
 8020 1cf3 01       		.uleb128 0x1
 8021 1cf4 53       		.byte	0x53
 8022 1cf5 05       		.uleb128 0x5
ARM GAS  /tmp/ccvURch4.s 			page 144


 8023 1cf6 03       		.byte	0x3
 8024 1cf7 00000000 		.4byte	thread3
 8025 1cfb 2A       		.uleb128 0x2a
 8026 1cfc 02       		.uleb128 0x2
 8027 1cfd 7D       		.byte	0x7d
 8028 1cfe 00       		.sleb128 0
 8029 1cff 02       		.uleb128 0x2
 8030 1d00 74       		.byte	0x74
 8031 1d01 00       		.sleb128 0
 8032 1d02 00       		.byte	0
 8033 1d03 29       		.uleb128 0x29
 8034 1d04 62000000 		.4byte	.LVL117
 8035 1d08 832D0000 		.4byte	0x2d83
 8036 1d0c 2F1D0000 		.4byte	0x1d2f
 8037 1d10 2A       		.uleb128 0x2a
 8038 1d11 01       		.uleb128 0x1
 8039 1d12 50       		.byte	0x50
 8040 1d13 03       		.uleb128 0x3
 8041 1d14 75       		.byte	0x75
 8042 1d15 08       		.sleb128 8
 8043 1d16 06       		.byte	0x6
 8044 1d17 2A       		.uleb128 0x2a
 8045 1d18 01       		.uleb128 0x1
 8046 1d19 51       		.byte	0x51
 8047 1d1a 03       		.uleb128 0x3
 8048 1d1b 0A       		.byte	0xa
 8049 1d1c F801     		.2byte	0x1f8
 8050 1d1e 2A       		.uleb128 0x2a
 8051 1d1f 01       		.uleb128 0x1
 8052 1d20 53       		.byte	0x53
 8053 1d21 05       		.uleb128 0x5
 8054 1d22 03       		.byte	0x3
 8055 1d23 00000000 		.4byte	thread3
 8056 1d27 2A       		.uleb128 0x2a
 8057 1d28 02       		.uleb128 0x2
 8058 1d29 7D       		.byte	0x7d
 8059 1d2a 00       		.sleb128 0
 8060 1d2b 02       		.uleb128 0x2
 8061 1d2c 74       		.byte	0x74
 8062 1d2d 00       		.sleb128 0
 8063 1d2e 00       		.byte	0
 8064 1d2f 29       		.uleb128 0x29
 8065 1d30 7A000000 		.4byte	.LVL118
 8066 1d34 832D0000 		.4byte	0x2d83
 8067 1d38 5B1D0000 		.4byte	0x1d5b
 8068 1d3c 2A       		.uleb128 0x2a
 8069 1d3d 01       		.uleb128 0x1
 8070 1d3e 50       		.byte	0x50
 8071 1d3f 03       		.uleb128 0x3
 8072 1d40 75       		.byte	0x75
 8073 1d41 0C       		.sleb128 12
 8074 1d42 06       		.byte	0x6
 8075 1d43 2A       		.uleb128 0x2a
 8076 1d44 01       		.uleb128 0x1
 8077 1d45 51       		.byte	0x51
 8078 1d46 03       		.uleb128 0x3
 8079 1d47 0A       		.byte	0xa
ARM GAS  /tmp/ccvURch4.s 			page 145


 8080 1d48 F801     		.2byte	0x1f8
 8081 1d4a 2A       		.uleb128 0x2a
 8082 1d4b 01       		.uleb128 0x1
 8083 1d4c 53       		.byte	0x53
 8084 1d4d 05       		.uleb128 0x5
 8085 1d4e 03       		.byte	0x3
 8086 1d4f 00000000 		.4byte	thread3
 8087 1d53 2A       		.uleb128 0x2a
 8088 1d54 02       		.uleb128 0x2
 8089 1d55 7D       		.byte	0x7d
 8090 1d56 00       		.sleb128 0
 8091 1d57 02       		.uleb128 0x2
 8092 1d58 74       		.byte	0x74
 8093 1d59 00       		.sleb128 0
 8094 1d5a 00       		.byte	0
 8095 1d5b 29       		.uleb128 0x29
 8096 1d5c 92000000 		.4byte	.LVL119
 8097 1d60 832D0000 		.4byte	0x2d83
 8098 1d64 871D0000 		.4byte	0x1d87
 8099 1d68 2A       		.uleb128 0x2a
 8100 1d69 01       		.uleb128 0x1
 8101 1d6a 50       		.byte	0x50
 8102 1d6b 03       		.uleb128 0x3
 8103 1d6c 75       		.byte	0x75
 8104 1d6d 10       		.sleb128 16
 8105 1d6e 06       		.byte	0x6
 8106 1d6f 2A       		.uleb128 0x2a
 8107 1d70 01       		.uleb128 0x1
 8108 1d71 51       		.byte	0x51
 8109 1d72 03       		.uleb128 0x3
 8110 1d73 0A       		.byte	0xa
 8111 1d74 F801     		.2byte	0x1f8
 8112 1d76 2A       		.uleb128 0x2a
 8113 1d77 01       		.uleb128 0x1
 8114 1d78 53       		.byte	0x53
 8115 1d79 05       		.uleb128 0x5
 8116 1d7a 03       		.byte	0x3
 8117 1d7b 00000000 		.4byte	thread3
 8118 1d7f 2A       		.uleb128 0x2a
 8119 1d80 02       		.uleb128 0x2
 8120 1d81 7D       		.byte	0x7d
 8121 1d82 00       		.sleb128 0
 8122 1d83 02       		.uleb128 0x2
 8123 1d84 74       		.byte	0x74
 8124 1d85 00       		.sleb128 0
 8125 1d86 00       		.byte	0
 8126 1d87 2C       		.uleb128 0x2c
 8127 1d88 98000000 		.4byte	.LVL121
 8128 1d8c AA2C0000 		.4byte	0x2caa
 8129 1d90 29       		.uleb128 0x29
 8130 1d91 A2000000 		.4byte	.LVL122
 8131 1d95 B62C0000 		.4byte	0x2cb6
 8132 1d99 A51D0000 		.4byte	0x1da5
 8133 1d9d 2A       		.uleb128 0x2a
 8134 1d9e 01       		.uleb128 0x1
 8135 1d9f 50       		.byte	0x50
 8136 1da0 03       		.uleb128 0x3
ARM GAS  /tmp/ccvURch4.s 			page 146


 8137 1da1 0A       		.byte	0xa
 8138 1da2 E803     		.2byte	0x3e8
 8139 1da4 00       		.byte	0
 8140 1da5 29       		.uleb128 0x29
 8141 1da6 AA000000 		.4byte	.LVL123
 8142 1daa BF2D0000 		.4byte	0x2dbf
 8143 1dae BE1D0000 		.4byte	0x1dbe
 8144 1db2 2A       		.uleb128 0x2a
 8145 1db3 01       		.uleb128 0x1
 8146 1db4 50       		.byte	0x50
 8147 1db5 02       		.uleb128 0x2
 8148 1db6 75       		.byte	0x75
 8149 1db7 00       		.sleb128 0
 8150 1db8 2A       		.uleb128 0x2a
 8151 1db9 01       		.uleb128 0x1
 8152 1dba 51       		.byte	0x51
 8153 1dbb 01       		.uleb128 0x1
 8154 1dbc 30       		.byte	0x30
 8155 1dbd 00       		.byte	0
 8156 1dbe 2C       		.uleb128 0x2c
 8157 1dbf B6000000 		.4byte	.LVL125
 8158 1dc3 9B2D0000 		.4byte	0x2d9b
 8159 1dc7 29       		.uleb128 0x29
 8160 1dc8 BE000000 		.4byte	.LVL126
 8161 1dcc BF2D0000 		.4byte	0x2dbf
 8162 1dd0 E01D0000 		.4byte	0x1de0
 8163 1dd4 2A       		.uleb128 0x2a
 8164 1dd5 01       		.uleb128 0x1
 8165 1dd6 50       		.byte	0x50
 8166 1dd7 02       		.uleb128 0x2
 8167 1dd8 75       		.byte	0x75
 8168 1dd9 00       		.sleb128 0
 8169 1dda 2A       		.uleb128 0x2a
 8170 1ddb 01       		.uleb128 0x1
 8171 1ddc 51       		.byte	0x51
 8172 1ddd 01       		.uleb128 0x1
 8173 1dde 30       		.byte	0x30
 8174 1ddf 00       		.byte	0
 8175 1de0 2C       		.uleb128 0x2c
 8176 1de1 C2000000 		.4byte	.LVL127
 8177 1de5 A72D0000 		.4byte	0x2da7
 8178 1de9 29       		.uleb128 0x29
 8179 1dea C8000000 		.4byte	.LVL128
 8180 1dee 7D2C0000 		.4byte	0x2c7d
 8181 1df2 001E0000 		.4byte	0x1e00
 8182 1df6 2A       		.uleb128 0x2a
 8183 1df7 01       		.uleb128 0x1
 8184 1df8 50       		.byte	0x50
 8185 1df9 05       		.uleb128 0x5
 8186 1dfa 03       		.byte	0x3
 8187 1dfb 00000000 		.4byte	.LC14
 8188 1dff 00       		.byte	0
 8189 1e00 29       		.uleb128 0x29
 8190 1e01 CE000000 		.4byte	.LVL129
 8191 1e05 892C0000 		.4byte	0x2c89
 8192 1e09 141E0000 		.4byte	0x1e14
 8193 1e0d 2A       		.uleb128 0x2a
ARM GAS  /tmp/ccvURch4.s 			page 147


 8194 1e0e 01       		.uleb128 0x1
 8195 1e0f 50       		.byte	0x50
 8196 1e10 02       		.uleb128 0x2
 8197 1e11 74       		.byte	0x74
 8198 1e12 00       		.sleb128 0
 8199 1e13 00       		.byte	0
 8200 1e14 29       		.uleb128 0x29
 8201 1e15 D8000000 		.4byte	.LVL131
 8202 1e19 7D2C0000 		.4byte	0x2c7d
 8203 1e1d 2B1E0000 		.4byte	0x1e2b
 8204 1e21 2A       		.uleb128 0x2a
 8205 1e22 01       		.uleb128 0x1
 8206 1e23 50       		.byte	0x50
 8207 1e24 05       		.uleb128 0x5
 8208 1e25 03       		.byte	0x3
 8209 1e26 00000000 		.4byte	.LC25
 8210 1e2a 00       		.byte	0
 8211 1e2b 29       		.uleb128 0x29
 8212 1e2c DE000000 		.4byte	.LVL132
 8213 1e30 892C0000 		.4byte	0x2c89
 8214 1e34 411E0000 		.4byte	0x1e41
 8215 1e38 2A       		.uleb128 0x2a
 8216 1e39 01       		.uleb128 0x1
 8217 1e3a 50       		.byte	0x50
 8218 1e3b 04       		.uleb128 0x4
 8219 1e3c 74       		.byte	0x74
 8220 1e3d 00       		.sleb128 0
 8221 1e3e 31       		.byte	0x31
 8222 1e3f 24       		.byte	0x24
 8223 1e40 00       		.byte	0
 8224 1e41 2B       		.uleb128 0x2b
 8225 1e42 F4000000 		.4byte	.LVL133
 8226 1e46 952C0000 		.4byte	0x2c95
 8227 1e4a 581E0000 		.4byte	0x1e58
 8228 1e4e 2A       		.uleb128 0x2a
 8229 1e4f 01       		.uleb128 0x1
 8230 1e50 50       		.byte	0x50
 8231 1e51 05       		.uleb128 0x5
 8232 1e52 03       		.byte	0x3
 8233 1e53 0C000000 		.4byte	.LC19
 8234 1e57 00       		.byte	0
 8235 1e58 2C       		.uleb128 0x2c
 8236 1e59 F8000000 		.4byte	.LVL134
 8237 1e5d A12C0000 		.4byte	0x2ca1
 8238 1e61 00       		.byte	0
 8239 1e62 28       		.uleb128 0x28
 8240 1e63 AB050000 		.4byte	.LASF203
 8241 1e67 01       		.byte	0x1
 8242 1e68 6001     		.2byte	0x160
 8243 1e6a 0D       		.byte	0xd
 8244 1e6b 00000000 		.4byte	.LFB230
 8245 1e6f 34000000 		.4byte	.LFE230-.LFB230
 8246 1e73 01       		.uleb128 0x1
 8247 1e74 9C       		.byte	0x9c
 8248 1e75 9F1E0000 		.4byte	0x1e9f
 8249 1e79 2B       		.uleb128 0x2b
 8250 1e7a 26000000 		.4byte	.LVL139
ARM GAS  /tmp/ccvURch4.s 			page 148


 8251 1e7e FE2C0000 		.4byte	0x2cfe
 8252 1e82 951E0000 		.4byte	0x1e95
 8253 1e86 2A       		.uleb128 0x2a
 8254 1e87 01       		.uleb128 0x1
 8255 1e88 50       		.byte	0x50
 8256 1e89 05       		.uleb128 0x5
 8257 1e8a 03       		.byte	0x3
 8258 1e8b 00000000 		.4byte	.LANCHOR0
 8259 1e8f 2A       		.uleb128 0x2a
 8260 1e90 01       		.uleb128 0x1
 8261 1e91 51       		.byte	0x51
 8262 1e92 01       		.uleb128 0x1
 8263 1e93 30       		.byte	0x30
 8264 1e94 00       		.byte	0
 8265 1e95 2C       		.uleb128 0x2c
 8266 1e96 2A000000 		.4byte	.LVL140
 8267 1e9a A12C0000 		.4byte	0x2ca1
 8268 1e9e 00       		.byte	0
 8269 1e9f 28       		.uleb128 0x28
 8270 1ea0 C9020000 		.4byte	.LASF204
 8271 1ea4 01       		.byte	0x1
 8272 1ea5 5901     		.2byte	0x159
 8273 1ea7 08       		.byte	0x8
 8274 1ea8 00000000 		.4byte	.LFB229
 8275 1eac 4C000000 		.4byte	.LFE229-.LFB229
 8276 1eb0 01       		.uleb128 0x1
 8277 1eb1 9C       		.byte	0x9c
 8278 1eb2 0F1F0000 		.4byte	0x1f0f
 8279 1eb6 3A       		.uleb128 0x3a
 8280 1eb7 7000     		.ascii	"p\000"
 8281 1eb9 01       		.byte	0x1
 8282 1eba 5901     		.2byte	0x159
 8283 1ebc 08       		.byte	0x8
 8284 1ebd 8E030000 		.4byte	0x38e
 8285 1ec1 FE010000 		.4byte	.LLST18
 8286 1ec5 FA010000 		.4byte	.LVUS18
 8287 1ec9 2F       		.uleb128 0x2f
 8288 1eca E92B0000 		.4byte	0x2be9
 8289 1ece 10000000 		.4byte	.LBI253
 8290 1ed2 03       		.byte	.LVU363
 8291 1ed3 10020000 		.4byte	.Ldebug_ranges0+0x210
 8292 1ed7 01       		.byte	0x1
 8293 1ed8 5C01     		.2byte	0x15c
 8294 1eda 0B       		.byte	0xb
 8295 1edb F11E0000 		.4byte	0x1ef1
 8296 1edf 38       		.uleb128 0x38
 8297 1ee0 032C0000 		.4byte	0x2c03
 8298 1ee4 10000000 		.4byte	.LBI255
 8299 1ee8 05       		.byte	.LVU365
 8300 1ee9 30020000 		.4byte	.Ldebug_ranges0+0x230
 8301 1eed 03       		.byte	0x3
 8302 1eee E9       		.byte	0xe9
 8303 1eef 12       		.byte	0x12
 8304 1ef0 00       		.byte	0
 8305 1ef1 29       		.uleb128 0x29
 8306 1ef2 22000000 		.4byte	.LVL137
 8307 1ef6 E62C0000 		.4byte	0x2ce6
ARM GAS  /tmp/ccvURch4.s 			page 149


 8308 1efa 051F0000 		.4byte	0x1f05
 8309 1efe 2A       		.uleb128 0x2a
 8310 1eff 01       		.uleb128 0x1
 8311 1f00 50       		.byte	0x50
 8312 1f01 02       		.uleb128 0x2
 8313 1f02 75       		.byte	0x75
 8314 1f03 00       		.sleb128 0
 8315 1f04 00       		.byte	0
 8316 1f05 2C       		.uleb128 0x2c
 8317 1f06 3E000000 		.4byte	.LVL138
 8318 1f0a A12C0000 		.4byte	0x2ca1
 8319 1f0e 00       		.byte	0
 8320 1f0f 28       		.uleb128 0x28
 8321 1f10 F50B0000 		.4byte	.LASF205
 8322 1f14 01       		.byte	0x1
 8323 1f15 3301     		.2byte	0x133
 8324 1f17 0D       		.byte	0xd
 8325 1f18 00000000 		.4byte	.LFB228
 8326 1f1c 90000000 		.4byte	.LFE228-.LFB228
 8327 1f20 01       		.uleb128 0x1
 8328 1f21 9C       		.byte	0x9c
 8329 1f22 23200000 		.4byte	0x2023
 8330 1f26 2D       		.uleb128 0x2d
 8331 1f27 6E00     		.ascii	"n\000"
 8332 1f29 01       		.byte	0x1
 8333 1f2a 3501     		.2byte	0x135
 8334 1f2c 0C       		.byte	0xc
 8335 1f2d 99000000 		.4byte	0x99
 8336 1f31 25020000 		.4byte	.LLST5
 8337 1f35 1F020000 		.4byte	.LVUS5
 8338 1f39 2D       		.uleb128 0x2d
 8339 1f3a 77617000 		.ascii	"wap\000"
 8340 1f3e 01       		.byte	0x1
 8341 1f3f 3601     		.2byte	0x136
 8342 1f41 09       		.byte	0x9
 8343 1f42 8E030000 		.4byte	0x38e
 8344 1f46 53020000 		.4byte	.LLST6
 8345 1f4a 4F020000 		.4byte	.LVUS6
 8346 1f4e 3B       		.uleb128 0x3b
 8347 1f4f 56010000 		.4byte	.LASF206
 8348 1f53 01       		.byte	0x1
 8349 1f54 3701     		.2byte	0x137
 8350 1f56 0B       		.byte	0xb
 8351 1f57 07010000 		.4byte	0x107
 8352 1f5b 75020000 		.4byte	.LLST7
 8353 1f5f 71020000 		.4byte	.LVUS7
 8354 1f63 2F       		.uleb128 0x2f
 8355 1f64 F62B0000 		.4byte	0x2bf6
 8356 1f68 22000000 		.4byte	.LBI145
 8357 1f6c 03       		.byte	.LVU74
 8358 1f6d 00000000 		.4byte	.Ldebug_ranges0+0
 8359 1f71 01       		.byte	0x1
 8360 1f72 3701     		.2byte	0x137
 8361 1f74 12       		.byte	0x12
 8362 1f75 8B1F0000 		.4byte	0x1f8b
 8363 1f79 38       		.uleb128 0x38
 8364 1f7a 032C0000 		.4byte	0x2c03
ARM GAS  /tmp/ccvURch4.s 			page 150


 8365 1f7e 22000000 		.4byte	.LBI147
 8366 1f82 05       		.byte	.LVU76
 8367 1f83 20000000 		.4byte	.Ldebug_ranges0+0x20
 8368 1f87 03       		.byte	0x3
 8369 1f88 BD       		.byte	0xbd
 8370 1f89 0A       		.byte	0xa
 8371 1f8a 00       		.byte	0
 8372 1f8b 2C       		.uleb128 0x2c
 8373 1f8c 26000000 		.4byte	.LVL41
 8374 1f90 AA2C0000 		.4byte	0x2caa
 8375 1f94 29       		.uleb128 0x29
 8376 1f95 2E000000 		.4byte	.LVL42
 8377 1f99 B62C0000 		.4byte	0x2cb6
 8378 1f9d A91F0000 		.4byte	0x1fa9
 8379 1fa1 2A       		.uleb128 0x2a
 8380 1fa2 01       		.uleb128 0x1
 8381 1fa3 50       		.byte	0x50
 8382 1fa4 03       		.uleb128 0x3
 8383 1fa5 0A       		.byte	0xa
 8384 1fa6 E803     		.2byte	0x3e8
 8385 1fa8 00       		.byte	0
 8386 1fa9 29       		.uleb128 0x29
 8387 1faa 44000000 		.4byte	.LVL45
 8388 1fae 832D0000 		.4byte	0x2d83
 8389 1fb2 D71F0000 		.4byte	0x1fd7
 8390 1fb6 2A       		.uleb128 0x2a
 8391 1fb7 01       		.uleb128 0x1
 8392 1fb8 50       		.byte	0x50
 8393 1fb9 02       		.uleb128 0x2
 8394 1fba 79       		.byte	0x79
 8395 1fbb 00       		.sleb128 0
 8396 1fbc 2A       		.uleb128 0x2a
 8397 1fbd 01       		.uleb128 0x1
 8398 1fbe 51       		.byte	0x51
 8399 1fbf 03       		.uleb128 0x3
 8400 1fc0 0A       		.byte	0xa
 8401 1fc1 F801     		.2byte	0x1f8
 8402 1fc3 2A       		.uleb128 0x2a
 8403 1fc4 01       		.uleb128 0x1
 8404 1fc5 52       		.byte	0x52
 8405 1fc6 02       		.uleb128 0x2
 8406 1fc7 75       		.byte	0x75
 8407 1fc8 00       		.sleb128 0
 8408 1fc9 2A       		.uleb128 0x2a
 8409 1fca 01       		.uleb128 0x1
 8410 1fcb 53       		.byte	0x53
 8411 1fcc 02       		.uleb128 0x2
 8412 1fcd 77       		.byte	0x77
 8413 1fce 00       		.sleb128 0
 8414 1fcf 2A       		.uleb128 0x2a
 8415 1fd0 02       		.uleb128 0x2
 8416 1fd1 7D       		.byte	0x7d
 8417 1fd2 00       		.sleb128 0
 8418 1fd3 02       		.uleb128 0x2
 8419 1fd4 76       		.byte	0x76
 8420 1fd5 00       		.sleb128 0
 8421 1fd6 00       		.byte	0
ARM GAS  /tmp/ccvURch4.s 			page 151


 8422 1fd7 29       		.uleb128 0x29
 8423 1fd8 54000000 		.4byte	.LVL47
 8424 1fdc 7D2C0000 		.4byte	0x2c7d
 8425 1fe0 EE1F0000 		.4byte	0x1fee
 8426 1fe4 2A       		.uleb128 0x2a
 8427 1fe5 01       		.uleb128 0x1
 8428 1fe6 50       		.byte	0x50
 8429 1fe7 05       		.uleb128 0x5
 8430 1fe8 03       		.byte	0x3
 8431 1fe9 00000000 		.4byte	.LC14
 8432 1fed 00       		.byte	0
 8433 1fee 29       		.uleb128 0x29
 8434 1fef 5A000000 		.4byte	.LVL48
 8435 1ff3 892C0000 		.4byte	0x2c89
 8436 1ff7 02200000 		.4byte	0x2002
 8437 1ffb 2A       		.uleb128 0x2a
 8438 1ffc 01       		.uleb128 0x1
 8439 1ffd 50       		.byte	0x50
 8440 1ffe 02       		.uleb128 0x2
 8441 1fff 74       		.byte	0x74
 8442 2000 00       		.sleb128 0
 8443 2001 00       		.byte	0
 8444 2002 2B       		.uleb128 0x2b
 8445 2003 70000000 		.4byte	.LVL50
 8446 2007 952C0000 		.4byte	0x2c95
 8447 200b 19200000 		.4byte	0x2019
 8448 200f 2A       		.uleb128 0x2a
 8449 2010 01       		.uleb128 0x1
 8450 2011 50       		.byte	0x50
 8451 2012 05       		.uleb128 0x5
 8452 2013 03       		.byte	0x3
 8453 2014 10000000 		.4byte	.LC15
 8454 2018 00       		.byte	0
 8455 2019 2C       		.uleb128 0x2c
 8456 201a 74000000 		.4byte	.LVL51
 8457 201e A12C0000 		.4byte	0x2ca1
 8458 2022 00       		.byte	0
 8459 2023 28       		.uleb128 0x28
 8460 2024 D4070000 		.4byte	.LASF207
 8461 2028 01       		.byte	0x1
 8462 2029 0C01     		.2byte	0x10c
 8463 202b 0D       		.byte	0xd
 8464 202c 00000000 		.4byte	.LFB227
 8465 2030 94000000 		.4byte	.LFE227-.LFB227
 8466 2034 01       		.uleb128 0x1
 8467 2035 9C       		.byte	0x9c
 8468 2036 40210000 		.4byte	0x2140
 8469 203a 2D       		.uleb128 0x2d
 8470 203b 6E00     		.ascii	"n\000"
 8471 203d 01       		.byte	0x1
 8472 203e 0E01     		.2byte	0x10e
 8473 2040 0C       		.byte	0xc
 8474 2041 99000000 		.4byte	0x99
 8475 2045 99020000 		.4byte	.LLST14
 8476 2049 93020000 		.4byte	.LVUS14
 8477 204d 2D       		.uleb128 0x2d
 8478 204e 77617000 		.ascii	"wap\000"
ARM GAS  /tmp/ccvURch4.s 			page 152


 8479 2052 01       		.byte	0x1
 8480 2053 0F01     		.2byte	0x10f
 8481 2055 09       		.byte	0x9
 8482 2056 8E030000 		.4byte	0x38e
 8483 205a C7020000 		.4byte	.LLST15
 8484 205e C3020000 		.4byte	.LVUS15
 8485 2062 3B       		.uleb128 0x3b
 8486 2063 56010000 		.4byte	.LASF206
 8487 2067 01       		.byte	0x1
 8488 2068 1001     		.2byte	0x110
 8489 206a 0B       		.byte	0xb
 8490 206b 07010000 		.4byte	0x107
 8491 206f E9020000 		.4byte	.LLST16
 8492 2073 E5020000 		.4byte	.LVUS16
 8493 2077 2F       		.uleb128 0x2f
 8494 2078 F62B0000 		.4byte	0x2bf6
 8495 207c 22000000 		.4byte	.LBI209
 8496 2080 03       		.byte	.LVU257
 8497 2081 40010000 		.4byte	.Ldebug_ranges0+0x140
 8498 2085 01       		.byte	0x1
 8499 2086 1001     		.2byte	0x110
 8500 2088 12       		.byte	0x12
 8501 2089 9F200000 		.4byte	0x209f
 8502 208d 38       		.uleb128 0x38
 8503 208e 032C0000 		.4byte	0x2c03
 8504 2092 22000000 		.4byte	.LBI211
 8505 2096 05       		.byte	.LVU259
 8506 2097 60010000 		.4byte	.Ldebug_ranges0+0x160
 8507 209b 03       		.byte	0x3
 8508 209c BD       		.byte	0xbd
 8509 209d 0A       		.byte	0xa
 8510 209e 00       		.byte	0
 8511 209f 2C       		.uleb128 0x2c
 8512 20a0 26000000 		.4byte	.LVL103
 8513 20a4 AA2C0000 		.4byte	0x2caa
 8514 20a8 29       		.uleb128 0x29
 8515 20a9 2E000000 		.4byte	.LVL104
 8516 20ad B62C0000 		.4byte	0x2cb6
 8517 20b1 BD200000 		.4byte	0x20bd
 8518 20b5 2A       		.uleb128 0x2a
 8519 20b6 01       		.uleb128 0x1
 8520 20b7 50       		.byte	0x50
 8521 20b8 03       		.uleb128 0x3
 8522 20b9 0A       		.byte	0xa
 8523 20ba E803     		.2byte	0x3e8
 8524 20bc 00       		.byte	0
 8525 20bd 29       		.uleb128 0x29
 8526 20be 44000000 		.4byte	.LVL107
 8527 20c2 832D0000 		.4byte	0x2d83
 8528 20c6 EB200000 		.4byte	0x20eb
 8529 20ca 2A       		.uleb128 0x2a
 8530 20cb 01       		.uleb128 0x1
 8531 20cc 50       		.byte	0x50
 8532 20cd 02       		.uleb128 0x2
 8533 20ce 79       		.byte	0x79
 8534 20cf 00       		.sleb128 0
 8535 20d0 2A       		.uleb128 0x2a
ARM GAS  /tmp/ccvURch4.s 			page 153


 8536 20d1 01       		.uleb128 0x1
 8537 20d2 51       		.byte	0x51
 8538 20d3 03       		.uleb128 0x3
 8539 20d4 0A       		.byte	0xa
 8540 20d5 F801     		.2byte	0x1f8
 8541 20d7 2A       		.uleb128 0x2a
 8542 20d8 01       		.uleb128 0x1
 8543 20d9 52       		.byte	0x52
 8544 20da 02       		.uleb128 0x2
 8545 20db 75       		.byte	0x75
 8546 20dc 00       		.sleb128 0
 8547 20dd 2A       		.uleb128 0x2a
 8548 20de 01       		.uleb128 0x1
 8549 20df 53       		.byte	0x53
 8550 20e0 02       		.uleb128 0x2
 8551 20e1 77       		.byte	0x77
 8552 20e2 00       		.sleb128 0
 8553 20e3 2A       		.uleb128 0x2a
 8554 20e4 02       		.uleb128 0x2
 8555 20e5 7D       		.byte	0x7d
 8556 20e6 00       		.sleb128 0
 8557 20e7 02       		.uleb128 0x2
 8558 20e8 76       		.byte	0x76
 8559 20e9 00       		.sleb128 0
 8560 20ea 00       		.byte	0
 8561 20eb 2C       		.uleb128 0x2c
 8562 20ec 48000000 		.4byte	.LVL108
 8563 20f0 CB2D0000 		.4byte	0x2dcb
 8564 20f4 29       		.uleb128 0x29
 8565 20f5 58000000 		.4byte	.LVL110
 8566 20f9 7D2C0000 		.4byte	0x2c7d
 8567 20fd 0B210000 		.4byte	0x210b
 8568 2101 2A       		.uleb128 0x2a
 8569 2102 01       		.uleb128 0x1
 8570 2103 50       		.byte	0x50
 8571 2104 05       		.uleb128 0x5
 8572 2105 03       		.byte	0x3
 8573 2106 00000000 		.4byte	.LC14
 8574 210a 00       		.byte	0
 8575 210b 29       		.uleb128 0x29
 8576 210c 5E000000 		.4byte	.LVL111
 8577 2110 892C0000 		.4byte	0x2c89
 8578 2114 1F210000 		.4byte	0x211f
 8579 2118 2A       		.uleb128 0x2a
 8580 2119 01       		.uleb128 0x1
 8581 211a 50       		.byte	0x50
 8582 211b 02       		.uleb128 0x2
 8583 211c 74       		.byte	0x74
 8584 211d 00       		.sleb128 0
 8585 211e 00       		.byte	0
 8586 211f 2B       		.uleb128 0x2b
 8587 2120 74000000 		.4byte	.LVL113
 8588 2124 952C0000 		.4byte	0x2c95
 8589 2128 36210000 		.4byte	0x2136
 8590 212c 2A       		.uleb128 0x2a
 8591 212d 01       		.uleb128 0x1
 8592 212e 50       		.byte	0x50
ARM GAS  /tmp/ccvURch4.s 			page 154


 8593 212f 05       		.uleb128 0x5
 8594 2130 03       		.byte	0x3
 8595 2131 10000000 		.4byte	.LC15
 8596 2135 00       		.byte	0
 8597 2136 2C       		.uleb128 0x2c
 8598 2137 78000000 		.4byte	.LVL114
 8599 213b A12C0000 		.4byte	0x2ca1
 8600 213f 00       		.byte	0
 8601 2140 3C       		.uleb128 0x3c
 8602 2141 35050000 		.4byte	.LASF208
 8603 2145 01       		.byte	0x1
 8604 2146 DB       		.byte	0xdb
 8605 2147 0D       		.byte	0xd
 8606 2148 00000000 		.4byte	.LFB226
 8607 214c 3C010000 		.4byte	.LFE226-.LFB226
 8608 2150 01       		.uleb128 0x1
 8609 2151 9C       		.byte	0x9c
 8610 2152 6E240000 		.4byte	0x246e
 8611 2156 3D       		.uleb128 0x3d
 8612 2157 747000   		.ascii	"tp\000"
 8613 215a 01       		.byte	0x1
 8614 215b DC       		.byte	0xdc
 8615 215c 0D       		.byte	0xd
 8616 215d A1020000 		.4byte	0x2a1
 8617 2161 0D030000 		.4byte	.LLST32
 8618 2165 07030000 		.4byte	.LVUS32
 8619 2169 3D       		.uleb128 0x3d
 8620 216a 6E00     		.ascii	"n\000"
 8621 216c 01       		.byte	0x1
 8622 216d DD       		.byte	0xdd
 8623 216e 0C       		.byte	0xc
 8624 216f 99000000 		.4byte	0x99
 8625 2173 3C030000 		.4byte	.LLST33
 8626 2177 36030000 		.4byte	.LVUS33
 8627 217b 3E       		.uleb128 0x3e
 8628 217c F62B0000 		.4byte	0x2bf6
 8629 2180 26000000 		.4byte	.LBI408
 8630 2184 03       		.byte	.LVU686
 8631 2185 08040000 		.4byte	.Ldebug_ranges0+0x408
 8632 2189 01       		.byte	0x1
 8633 218a DF       		.byte	0xdf
 8634 218b 37       		.byte	0x37
 8635 218c A2210000 		.4byte	0x21a2
 8636 2190 38       		.uleb128 0x38
 8637 2191 032C0000 		.4byte	0x2c03
 8638 2195 26000000 		.4byte	.LBI410
 8639 2199 05       		.byte	.LVU688
 8640 219a 28040000 		.4byte	.Ldebug_ranges0+0x428
 8641 219e 03       		.byte	0x3
 8642 219f BD       		.byte	0xbd
 8643 21a0 0A       		.byte	0xa
 8644 21a1 00       		.byte	0
 8645 21a2 3E       		.uleb128 0x3e
 8646 21a3 102C0000 		.4byte	0x2c10
 8647 21a7 82000000 		.4byte	.LBI417
 8648 21ab 01       		.byte	.LVU728
 8649 21ac 40040000 		.4byte	.Ldebug_ranges0+0x440
ARM GAS  /tmp/ccvURch4.s 			page 155


 8650 21b0 01       		.byte	0x1
 8651 21b1 EA       		.byte	0xea
 8652 21b2 05       		.byte	0x5
 8653 21b3 17220000 		.4byte	0x2217
 8654 21b7 32       		.uleb128 0x32
 8655 21b8 40040000 		.4byte	.Ldebug_ranges0+0x440
 8656 21bc 2F       		.uleb128 0x2f
 8657 21bd 4D2C0000 		.4byte	0x2c4d
 8658 21c1 4A000000 		.4byte	.LBI419
 8659 21c5 03       		.byte	.LVU702
 8660 21c6 70040000 		.4byte	.Ldebug_ranges0+0x470
 8661 21ca 05       		.byte	0x5
 8662 21cb 7301     		.2byte	0x173
 8663 21cd 03       		.byte	0x3
 8664 21ce F3210000 		.4byte	0x21f3
 8665 21d2 30       		.uleb128 0x30
 8666 21d3 612C0000 		.4byte	0x2c61
 8667 21d7 4A000000 		.4byte	.LBI420
 8668 21db 05       		.byte	.LVU704
 8669 21dc 98040000 		.4byte	.Ldebug_ranges0+0x498
 8670 21e0 06       		.byte	0x6
 8671 21e1 CD01     		.2byte	0x1cd
 8672 21e3 03       		.byte	0x3
 8673 21e4 31       		.uleb128 0x31
 8674 21e5 6F2C0000 		.4byte	0x2c6f
 8675 21e9 6A030000 		.4byte	.LLST34
 8676 21ed 66030000 		.4byte	.LVUS34
 8677 21f1 00       		.byte	0
 8678 21f2 00       		.byte	0
 8679 21f3 2C       		.uleb128 0x2c
 8680 21f4 86000000 		.4byte	.LVL267
 8681 21f8 222D0000 		.4byte	0x2d22
 8682 21fc 2C       		.uleb128 0x2c
 8683 21fd 8A000000 		.4byte	.LVL268
 8684 2201 2E2D0000 		.4byte	0x2d2e
 8685 2205 33       		.uleb128 0x33
 8686 2206 A0000000 		.4byte	.LVL269
 8687 220a 3A2D0000 		.4byte	0x2d3a
 8688 220e 2A       		.uleb128 0x2a
 8689 220f 01       		.uleb128 0x1
 8690 2210 50       		.byte	0x50
 8691 2211 02       		.uleb128 0x2
 8692 2212 7A       		.byte	0x7a
 8693 2213 00       		.sleb128 0
 8694 2214 00       		.byte	0
 8695 2215 00       		.byte	0
 8696 2216 00       		.byte	0
 8697 2217 3E       		.uleb128 0x3e
 8698 2218 432C0000 		.4byte	0x2c43
 8699 221c 56000000 		.4byte	.LBI432
 8700 2220 02       		.byte	.LVU714
 8701 2221 B0040000 		.4byte	.Ldebug_ranges0+0x4b0
 8702 2225 01       		.byte	0x1
 8703 2226 E5       		.byte	0xe5
 8704 2227 05       		.byte	0x5
 8705 2228 76220000 		.4byte	0x2276
 8706 222c 2F       		.uleb128 0x2f
ARM GAS  /tmp/ccvURch4.s 			page 156


 8707 222d 572C0000 		.4byte	0x2c57
 8708 2231 56000000 		.4byte	.LBI434
 8709 2235 04       		.byte	.LVU716
 8710 2236 D0040000 		.4byte	.Ldebug_ranges0+0x4d0
 8711 223a 05       		.byte	0x5
 8712 223b 5C01     		.2byte	0x15c
 8713 223d 03       		.byte	0x3
 8714 223e 63220000 		.4byte	0x2263
 8715 2242 30       		.uleb128 0x30
 8716 2243 612C0000 		.4byte	0x2c61
 8717 2247 56000000 		.4byte	.LBI435
 8718 224b 06       		.byte	.LVU718
 8719 224c F0040000 		.4byte	.Ldebug_ranges0+0x4f0
 8720 2250 06       		.byte	0x6
 8721 2251 BF01     		.2byte	0x1bf
 8722 2253 03       		.byte	0x3
 8723 2254 31       		.uleb128 0x31
 8724 2255 6F2C0000 		.4byte	0x2c6f
 8725 2259 8C030000 		.4byte	.LLST35
 8726 225d 8A030000 		.4byte	.LVUS35
 8727 2261 00       		.byte	0
 8728 2262 00       		.byte	0
 8729 2263 2C       		.uleb128 0x2c
 8730 2264 5E000000 		.4byte	.LVL261
 8731 2268 0A2D0000 		.4byte	0x2d0a
 8732 226c 2C       		.uleb128 0x2c
 8733 226d 62000000 		.4byte	.LVL262
 8734 2271 162D0000 		.4byte	0x2d16
 8735 2275 00       		.byte	0
 8736 2276 3E       		.uleb128 0x3e
 8737 2277 432C0000 		.4byte	0x2c43
 8738 227b AE000000 		.4byte	.LBI449
 8739 227f 01       		.byte	.LVU749
 8740 2280 08050000 		.4byte	.Ldebug_ranges0+0x508
 8741 2284 01       		.byte	0x1
 8742 2285 F0       		.byte	0xf0
 8743 2286 03       		.byte	0x3
 8744 2287 D9220000 		.4byte	0x22d9
 8745 228b 2F       		.uleb128 0x2f
 8746 228c 572C0000 		.4byte	0x2c57
 8747 2290 AE000000 		.4byte	.LBI451
 8748 2294 03       		.byte	.LVU751
 8749 2295 20050000 		.4byte	.Ldebug_ranges0+0x520
 8750 2299 05       		.byte	0x5
 8751 229a 5C01     		.2byte	0x15c
 8752 229c 03       		.byte	0x3
 8753 229d C6220000 		.4byte	0x22c6
 8754 22a1 36       		.uleb128 0x36
 8755 22a2 612C0000 		.4byte	0x2c61
 8756 22a6 AE000000 		.4byte	.LBI452
 8757 22aa 05       		.byte	.LVU753
 8758 22ab AE000000 		.4byte	.LBB452
 8759 22af 06000000 		.4byte	.LBE452-.LBB452
 8760 22b3 06       		.byte	0x6
 8761 22b4 BF01     		.2byte	0x1bf
 8762 22b6 03       		.byte	0x3
 8763 22b7 31       		.uleb128 0x31
ARM GAS  /tmp/ccvURch4.s 			page 157


 8764 22b8 6F2C0000 		.4byte	0x2c6f
 8765 22bc A3030000 		.4byte	.LLST36
 8766 22c0 A1030000 		.4byte	.LVUS36
 8767 22c4 00       		.byte	0
 8768 22c5 00       		.byte	0
 8769 22c6 2C       		.uleb128 0x2c
 8770 22c7 B8000000 		.4byte	.LVL274
 8771 22cb 0A2D0000 		.4byte	0x2d0a
 8772 22cf 2C       		.uleb128 0x2c
 8773 22d0 BC000000 		.4byte	.LVL275
 8774 22d4 162D0000 		.4byte	0x2d16
 8775 22d8 00       		.byte	0
 8776 22d9 3E       		.uleb128 0x3e
 8777 22da 102C0000 		.4byte	0x2c10
 8778 22de C6000000 		.4byte	.LBI457
 8779 22e2 01       		.byte	.LVU760
 8780 22e3 38050000 		.4byte	.Ldebug_ranges0+0x538
 8781 22e7 01       		.byte	0x1
 8782 22e8 F2       		.byte	0xf2
 8783 22e9 03       		.byte	0x3
 8784 22ea 52230000 		.4byte	0x2352
 8785 22ee 32       		.uleb128 0x32
 8786 22ef 38050000 		.4byte	.Ldebug_ranges0+0x538
 8787 22f3 2F       		.uleb128 0x2f
 8788 22f4 4D2C0000 		.4byte	0x2c4d
 8789 22f8 DE000000 		.4byte	.LBI459
 8790 22fc 02       		.byte	.LVU768
 8791 22fd 58050000 		.4byte	.Ldebug_ranges0+0x558
 8792 2301 05       		.byte	0x5
 8793 2302 7301     		.2byte	0x173
 8794 2304 03       		.byte	0x3
 8795 2305 2E230000 		.4byte	0x232e
 8796 2309 36       		.uleb128 0x36
 8797 230a 612C0000 		.4byte	0x2c61
 8798 230e DE000000 		.4byte	.LBI460
 8799 2312 04       		.byte	.LVU770
 8800 2313 DE000000 		.4byte	.LBB460
 8801 2317 06000000 		.4byte	.LBE460-.LBB460
 8802 231b 06       		.byte	0x6
 8803 231c CD01     		.2byte	0x1cd
 8804 231e 03       		.byte	0x3
 8805 231f 31       		.uleb128 0x31
 8806 2320 6F2C0000 		.4byte	0x2c6f
 8807 2324 BA030000 		.4byte	.LLST37
 8808 2328 B8030000 		.4byte	.LVUS37
 8809 232c 00       		.byte	0
 8810 232d 00       		.byte	0
 8811 232e 2C       		.uleb128 0x2c
 8812 232f CA000000 		.4byte	.LVL277
 8813 2333 222D0000 		.4byte	0x2d22
 8814 2337 2C       		.uleb128 0x2c
 8815 2338 CE000000 		.4byte	.LVL278
 8816 233c 2E2D0000 		.4byte	0x2d2e
 8817 2340 33       		.uleb128 0x33
 8818 2341 10010000 		.4byte	.LVL286
 8819 2345 3A2D0000 		.4byte	0x2d3a
 8820 2349 2A       		.uleb128 0x2a
ARM GAS  /tmp/ccvURch4.s 			page 158


 8821 234a 01       		.uleb128 0x1
 8822 234b 50       		.byte	0x50
 8823 234c 02       		.uleb128 0x2
 8824 234d 7A       		.byte	0x7a
 8825 234e 00       		.sleb128 0
 8826 234f 00       		.byte	0
 8827 2350 00       		.byte	0
 8828 2351 00       		.byte	0
 8829 2352 29       		.uleb128 0x29
 8830 2353 32000000 		.4byte	.LVL252
 8831 2357 832D0000 		.4byte	0x2d83
 8832 235b 77230000 		.4byte	0x2377
 8833 235f 2A       		.uleb128 0x2a
 8834 2360 01       		.uleb128 0x1
 8835 2361 51       		.byte	0x51
 8836 2362 03       		.uleb128 0x3
 8837 2363 0A       		.byte	0xa
 8838 2364 F801     		.2byte	0x1f8
 8839 2366 2A       		.uleb128 0x2a
 8840 2367 01       		.uleb128 0x1
 8841 2368 53       		.byte	0x53
 8842 2369 05       		.uleb128 0x5
 8843 236a 03       		.byte	0x3
 8844 236b 00000000 		.4byte	thread4
 8845 236f 2A       		.uleb128 0x2a
 8846 2370 02       		.uleb128 0x2
 8847 2371 7D       		.byte	0x7d
 8848 2372 00       		.sleb128 0
 8849 2373 02       		.uleb128 0x2
 8850 2374 76       		.byte	0x76
 8851 2375 00       		.sleb128 0
 8852 2376 00       		.byte	0
 8853 2377 2C       		.uleb128 0x2c
 8854 2378 3C000000 		.4byte	.LVL254
 8855 237c AA2C0000 		.4byte	0x2caa
 8856 2380 29       		.uleb128 0x29
 8857 2381 44000000 		.4byte	.LVL255
 8858 2385 B62C0000 		.4byte	0x2cb6
 8859 2389 95230000 		.4byte	0x2395
 8860 238d 2A       		.uleb128 0x2a
 8861 238e 01       		.uleb128 0x1
 8862 238f 50       		.byte	0x50
 8863 2390 03       		.uleb128 0x3
 8864 2391 0A       		.byte	0xa
 8865 2392 E803     		.2byte	0x3e8
 8866 2394 00       		.byte	0
 8867 2395 29       		.uleb128 0x29
 8868 2396 6A000000 		.4byte	.LVL263
 8869 239a D72D0000 		.4byte	0x2dd7
 8870 239e AF230000 		.4byte	0x23af
 8871 23a2 2A       		.uleb128 0x2a
 8872 23a3 01       		.uleb128 0x1
 8873 23a4 50       		.byte	0x50
 8874 23a5 02       		.uleb128 0x2
 8875 23a6 74       		.byte	0x74
 8876 23a7 00       		.sleb128 0
 8877 23a8 2A       		.uleb128 0x2a
ARM GAS  /tmp/ccvURch4.s 			page 159


 8878 23a9 01       		.uleb128 0x1
 8879 23aa 51       		.byte	0x51
 8880 23ab 02       		.uleb128 0x2
 8881 23ac 78       		.byte	0x78
 8882 23ad 00       		.sleb128 0
 8883 23ae 00       		.byte	0
 8884 23af 29       		.uleb128 0x29
 8885 23b0 72000000 		.4byte	.LVL264
 8886 23b4 D72D0000 		.4byte	0x2dd7
 8887 23b8 C9230000 		.4byte	0x23c9
 8888 23bc 2A       		.uleb128 0x2a
 8889 23bd 01       		.uleb128 0x1
 8890 23be 50       		.byte	0x50
 8891 23bf 02       		.uleb128 0x2
 8892 23c0 74       		.byte	0x74
 8893 23c1 00       		.sleb128 0
 8894 23c2 2A       		.uleb128 0x2a
 8895 23c3 01       		.uleb128 0x1
 8896 23c4 51       		.byte	0x51
 8897 23c5 02       		.uleb128 0x2
 8898 23c6 78       		.byte	0x78
 8899 23c7 00       		.sleb128 0
 8900 23c8 00       		.byte	0
 8901 23c9 29       		.uleb128 0x29
 8902 23ca 7A000000 		.4byte	.LVL265
 8903 23ce D72D0000 		.4byte	0x2dd7
 8904 23d2 E3230000 		.4byte	0x23e3
 8905 23d6 2A       		.uleb128 0x2a
 8906 23d7 01       		.uleb128 0x1
 8907 23d8 50       		.byte	0x50
 8908 23d9 02       		.uleb128 0x2
 8909 23da 74       		.byte	0x74
 8910 23db 00       		.sleb128 0
 8911 23dc 2A       		.uleb128 0x2a
 8912 23dd 01       		.uleb128 0x1
 8913 23de 51       		.byte	0x51
 8914 23df 02       		.uleb128 0x2
 8915 23e0 78       		.byte	0x78
 8916 23e1 00       		.sleb128 0
 8917 23e2 00       		.byte	0
 8918 23e3 29       		.uleb128 0x29
 8919 23e4 82000000 		.4byte	.LVL266
 8920 23e8 D72D0000 		.4byte	0x2dd7
 8921 23ec FD230000 		.4byte	0x23fd
 8922 23f0 2A       		.uleb128 0x2a
 8923 23f1 01       		.uleb128 0x1
 8924 23f2 50       		.byte	0x50
 8925 23f3 02       		.uleb128 0x2
 8926 23f4 74       		.byte	0x74
 8927 23f5 00       		.sleb128 0
 8928 23f6 2A       		.uleb128 0x2a
 8929 23f7 01       		.uleb128 0x1
 8930 23f8 51       		.byte	0x51
 8931 23f9 02       		.uleb128 0x2
 8932 23fa 78       		.byte	0x78
 8933 23fb 00       		.sleb128 0
 8934 23fc 00       		.byte	0
ARM GAS  /tmp/ccvURch4.s 			page 160


 8935 23fd 29       		.uleb128 0x29
 8936 23fe C6000000 		.4byte	.LVL276
 8937 2402 D72D0000 		.4byte	0x2dd7
 8938 2406 17240000 		.4byte	0x2417
 8939 240a 2A       		.uleb128 0x2a
 8940 240b 01       		.uleb128 0x1
 8941 240c 50       		.byte	0x50
 8942 240d 02       		.uleb128 0x2
 8943 240e 74       		.byte	0x74
 8944 240f 00       		.sleb128 0
 8945 2410 2A       		.uleb128 0x2a
 8946 2411 01       		.uleb128 0x1
 8947 2412 51       		.byte	0x51
 8948 2413 02       		.uleb128 0x2
 8949 2414 09       		.byte	0x9
 8950 2415 FF       		.byte	0xff
 8951 2416 00       		.byte	0
 8952 2417 2C       		.uleb128 0x2c
 8953 2418 E8000000 		.4byte	.LVL281
 8954 241c A72D0000 		.4byte	0x2da7
 8955 2420 29       		.uleb128 0x29
 8956 2421 EE000000 		.4byte	.LVL282
 8957 2425 7D2C0000 		.4byte	0x2c7d
 8958 2429 37240000 		.4byte	0x2437
 8959 242d 2A       		.uleb128 0x2a
 8960 242e 01       		.uleb128 0x1
 8961 242f 50       		.byte	0x50
 8962 2430 05       		.uleb128 0x5
 8963 2431 03       		.byte	0x3
 8964 2432 00000000 		.4byte	.LC14
 8965 2436 00       		.byte	0
 8966 2437 29       		.uleb128 0x29
 8967 2438 F4000000 		.4byte	.LVL283
 8968 243c 892C0000 		.4byte	0x2c89
 8969 2440 4D240000 		.4byte	0x244d
 8970 2444 2A       		.uleb128 0x2a
 8971 2445 01       		.uleb128 0x1
 8972 2446 50       		.byte	0x50
 8973 2447 04       		.uleb128 0x4
 8974 2448 76       		.byte	0x76
 8975 2449 00       		.sleb128 0
 8976 244a 31       		.byte	0x31
 8977 244b 24       		.byte	0x24
 8978 244c 00       		.byte	0
 8979 244d 2B       		.uleb128 0x2b
 8980 244e 0A010000 		.4byte	.LVL285
 8981 2452 952C0000 		.4byte	0x2c95
 8982 2456 64240000 		.4byte	0x2464
 8983 245a 2A       		.uleb128 0x2a
 8984 245b 01       		.uleb128 0x1
 8985 245c 50       		.byte	0x50
 8986 245d 05       		.uleb128 0x5
 8987 245e 03       		.byte	0x3
 8988 245f 0C000000 		.4byte	.LC19
 8989 2463 00       		.byte	0
 8990 2464 2C       		.uleb128 0x2c
 8991 2465 16010000 		.4byte	.LVL287
ARM GAS  /tmp/ccvURch4.s 			page 161


 8992 2469 A12C0000 		.4byte	0x2ca1
 8993 246d 00       		.byte	0
 8994 246e 3C       		.uleb128 0x3c
 8995 246f B9080000 		.4byte	.LASF209
 8996 2473 01       		.byte	0x1
 8997 2474 CE       		.byte	0xce
 8998 2475 08       		.byte	0x8
 8999 2476 00000000 		.4byte	.LFB225
 9000 247a 70000000 		.4byte	.LFE225-.LFB225
 9001 247e 01       		.uleb128 0x1
 9002 247f 9C       		.byte	0x9c
 9003 2480 CB250000 		.4byte	0x25cb
 9004 2484 3F       		.uleb128 0x3f
 9005 2485 7000     		.ascii	"p\000"
 9006 2487 01       		.byte	0x1
 9007 2488 CE       		.byte	0xce
 9008 2489 08       		.byte	0x8
 9009 248a 8E030000 		.4byte	0x38e
 9010 248e D2030000 		.4byte	.LLST38
 9011 2492 CE030000 		.4byte	.LVUS38
 9012 2496 3D       		.uleb128 0x3d
 9013 2497 6D736700 		.ascii	"msg\000"
 9014 249b 01       		.byte	0x1
 9015 249c CF       		.byte	0xcf
 9016 249d 09       		.byte	0x9
 9017 249e 13010000 		.4byte	0x113
 9018 24a2 F5030000 		.4byte	.LLST39
 9019 24a6 F3030000 		.4byte	.LVUS39
 9020 24aa 40       		.uleb128 0x40
 9021 24ab B0040000 		.4byte	.LASF210
 9022 24af 01       		.byte	0x1
 9023 24b0 D0       		.byte	0xd0
 9024 24b1 0D       		.byte	0xd
 9025 24b2 A1020000 		.4byte	0x2a1
 9026 24b6 0B040000 		.4byte	.LLST40
 9027 24ba 09040000 		.4byte	.LVUS40
 9028 24be 38       		.uleb128 0x38
 9029 24bf 032C0000 		.4byte	0x2c03
 9030 24c3 10000000 		.4byte	.LBI479
 9031 24c7 02       		.byte	.LVU790
 9032 24c8 70050000 		.4byte	.Ldebug_ranges0+0x570
 9033 24cc 01       		.byte	0x1
 9034 24cd D0       		.byte	0xd0
 9035 24ce 14       		.byte	0x14
 9036 24cf 3E       		.uleb128 0x3e
 9037 24d0 432C0000 		.4byte	0x2c43
 9038 24d4 12000000 		.4byte	.LBI483
 9039 24d8 03       		.byte	.LVU796
 9040 24d9 88050000 		.4byte	.Ldebug_ranges0+0x588
 9041 24dd 01       		.byte	0x1
 9042 24de D3       		.byte	0xd3
 9043 24df 03       		.byte	0x3
 9044 24e0 32250000 		.4byte	0x2532
 9045 24e4 2F       		.uleb128 0x2f
 9046 24e5 572C0000 		.4byte	0x2c57
 9047 24e9 12000000 		.4byte	.LBI485
 9048 24ed 05       		.byte	.LVU798
ARM GAS  /tmp/ccvURch4.s 			page 162


 9049 24ee A0050000 		.4byte	.Ldebug_ranges0+0x5a0
 9050 24f2 05       		.byte	0x5
 9051 24f3 5C01     		.2byte	0x15c
 9052 24f5 03       		.byte	0x3
 9053 24f6 1F250000 		.4byte	0x251f
 9054 24fa 36       		.uleb128 0x36
 9055 24fb 612C0000 		.4byte	0x2c61
 9056 24ff 12000000 		.4byte	.LBI486
 9057 2503 07       		.byte	.LVU800
 9058 2504 12000000 		.4byte	.LBB486
 9059 2508 06000000 		.4byte	.LBE486-.LBB486
 9060 250c 06       		.byte	0x6
 9061 250d BF01     		.2byte	0x1bf
 9062 250f 03       		.byte	0x3
 9063 2510 31       		.uleb128 0x31
 9064 2511 6F2C0000 		.4byte	0x2c6f
 9065 2515 20040000 		.4byte	.LLST41
 9066 2519 1E040000 		.4byte	.LVUS41
 9067 251d 00       		.byte	0
 9068 251e 00       		.byte	0
 9069 251f 2C       		.uleb128 0x2c
 9070 2520 1C000000 		.4byte	.LVL291
 9071 2524 0A2D0000 		.4byte	0x2d0a
 9072 2528 2C       		.uleb128 0x2c
 9073 2529 20000000 		.4byte	.LVL292
 9074 252d 162D0000 		.4byte	0x2d16
 9075 2531 00       		.byte	0
 9076 2532 3E       		.uleb128 0x3e
 9077 2533 102C0000 		.4byte	0x2c10
 9078 2537 2C000000 		.4byte	.LBI491
 9079 253b 01       		.byte	.LVU811
 9080 253c B8050000 		.4byte	.Ldebug_ranges0+0x5b8
 9081 2540 01       		.byte	0x1
 9082 2541 D8       		.byte	0xd8
 9083 2542 03       		.byte	0x3
 9084 2543 AE250000 		.4byte	0x25ae
 9085 2547 32       		.uleb128 0x32
 9086 2548 B8050000 		.4byte	.Ldebug_ranges0+0x5b8
 9087 254c 2F       		.uleb128 0x2f
 9088 254d 4D2C0000 		.4byte	0x2c4d
 9089 2551 44000000 		.4byte	.LBI493
 9090 2555 02       		.byte	.LVU819
 9091 2556 D8050000 		.4byte	.Ldebug_ranges0+0x5d8
 9092 255a 05       		.byte	0x5
 9093 255b 7301     		.2byte	0x173
 9094 255d 03       		.byte	0x3
 9095 255e 87250000 		.4byte	0x2587
 9096 2562 36       		.uleb128 0x36
 9097 2563 612C0000 		.4byte	0x2c61
 9098 2567 44000000 		.4byte	.LBI494
 9099 256b 04       		.byte	.LVU821
 9100 256c 44000000 		.4byte	.LBB494
 9101 2570 06000000 		.4byte	.LBE494-.LBB494
 9102 2574 06       		.byte	0x6
 9103 2575 CD01     		.2byte	0x1cd
 9104 2577 03       		.byte	0x3
 9105 2578 31       		.uleb128 0x31
ARM GAS  /tmp/ccvURch4.s 			page 163


 9106 2579 6F2C0000 		.4byte	0x2c6f
 9107 257d 37040000 		.4byte	.LLST42
 9108 2581 35040000 		.4byte	.LVUS42
 9109 2585 00       		.byte	0
 9110 2586 00       		.byte	0
 9111 2587 2C       		.uleb128 0x2c
 9112 2588 30000000 		.4byte	.LVL294
 9113 258c 222D0000 		.4byte	0x2d22
 9114 2590 2C       		.uleb128 0x2c
 9115 2591 34000000 		.4byte	.LVL295
 9116 2595 2E2D0000 		.4byte	0x2d2e
 9117 2599 33       		.uleb128 0x33
 9118 259a 5E000000 		.4byte	.LVL299
 9119 259e 3A2D0000 		.4byte	0x2d3a
 9120 25a2 2A       		.uleb128 0x2a
 9121 25a3 01       		.uleb128 0x1
 9122 25a4 50       		.byte	0x50
 9123 25a5 05       		.uleb128 0x5
 9124 25a6 03       		.byte	0x3
 9125 25a7 00000000 		.4byte	.LANCHOR4
 9126 25ab 00       		.byte	0
 9127 25ac 00       		.byte	0
 9128 25ad 00       		.byte	0
 9129 25ae 29       		.uleb128 0x29
 9130 25af 26000000 		.4byte	.LVL293
 9131 25b3 E42D0000 		.4byte	0x2de4
 9132 25b7 C1250000 		.4byte	0x25c1
 9133 25bb 2A       		.uleb128 0x2a
 9134 25bc 01       		.uleb128 0x1
 9135 25bd 50       		.byte	0x50
 9136 25be 01       		.uleb128 0x1
 9137 25bf 33       		.byte	0x33
 9138 25c0 00       		.byte	0
 9139 25c1 2C       		.uleb128 0x2c
 9140 25c2 64000000 		.4byte	.LVL300
 9141 25c6 A12C0000 		.4byte	0x2ca1
 9142 25ca 00       		.byte	0
 9143 25cb 3C       		.uleb128 0x3c
 9144 25cc 0A030000 		.4byte	.LASF211
 9145 25d0 01       		.byte	0x1
 9146 25d1 AB       		.byte	0xab
 9147 25d2 0D       		.byte	0xd
 9148 25d3 00000000 		.4byte	.LFB224
 9149 25d7 E8000000 		.4byte	.LFE224-.LFB224
 9150 25db 01       		.uleb128 0x1
 9151 25dc 9C       		.byte	0x9c
 9152 25dd 2D280000 		.4byte	0x282d
 9153 25e1 3D       		.uleb128 0x3d
 9154 25e2 6E00     		.ascii	"n\000"
 9155 25e4 01       		.byte	0x1
 9156 25e5 AC       		.byte	0xac
 9157 25e6 0C       		.byte	0xc
 9158 25e7 99000000 		.4byte	0x99
 9159 25eb 51040000 		.4byte	.LLST12
 9160 25ef 4B040000 		.4byte	.LVUS12
 9161 25f3 3E       		.uleb128 0x3e
 9162 25f4 F62B0000 		.4byte	0x2bf6
ARM GAS  /tmp/ccvURch4.s 			page 164


 9163 25f8 1E000000 		.4byte	.LBI175
 9164 25fc 02       		.byte	.LVU186
 9165 25fd A8000000 		.4byte	.Ldebug_ranges0+0xa8
 9166 2601 01       		.byte	0x1
 9167 2602 AE       		.byte	0xae
 9168 2603 32       		.byte	0x32
 9169 2604 1A260000 		.4byte	0x261a
 9170 2608 38       		.uleb128 0x38
 9171 2609 032C0000 		.4byte	0x2c03
 9172 260d 1E000000 		.4byte	.LBI177
 9173 2611 04       		.byte	.LVU188
 9174 2612 C8000000 		.4byte	.Ldebug_ranges0+0xc8
 9175 2616 03       		.byte	0x3
 9176 2617 BD       		.byte	0xbd
 9177 2618 0A       		.byte	0xa
 9178 2619 00       		.byte	0
 9179 261a 3E       		.uleb128 0x3e
 9180 261b F62B0000 		.4byte	0x2bf6
 9181 261f 2E000000 		.4byte	.LBI185
 9182 2623 01       		.byte	.LVU194
 9183 2624 E0000000 		.4byte	.Ldebug_ranges0+0xe0
 9184 2628 01       		.byte	0x1
 9185 2629 AF       		.byte	0xaf
 9186 262a 32       		.byte	0x32
 9187 262b 45260000 		.4byte	0x2645
 9188 262f 39       		.uleb128 0x39
 9189 2630 032C0000 		.4byte	0x2c03
 9190 2634 2E000000 		.4byte	.LBI187
 9191 2638 03       		.byte	.LVU196
 9192 2639 2E000000 		.4byte	.LBB187
 9193 263d 00000000 		.4byte	.LBE187-.LBB187
 9194 2641 03       		.byte	0x3
 9195 2642 BD       		.byte	0xbd
 9196 2643 0A       		.byte	0xa
 9197 2644 00       		.byte	0
 9198 2645 3E       		.uleb128 0x3e
 9199 2646 F62B0000 		.4byte	0x2bf6
 9200 264a 44000000 		.4byte	.LBI191
 9201 264e 01       		.byte	.LVU202
 9202 264f F8000000 		.4byte	.Ldebug_ranges0+0xf8
 9203 2653 01       		.byte	0x1
 9204 2654 B0       		.byte	0xb0
 9205 2655 32       		.byte	0x32
 9206 2656 70260000 		.4byte	0x2670
 9207 265a 39       		.uleb128 0x39
 9208 265b 032C0000 		.4byte	0x2c03
 9209 265f 44000000 		.4byte	.LBI193
 9210 2663 03       		.byte	.LVU204
 9211 2664 44000000 		.4byte	.LBB193
 9212 2668 00000000 		.4byte	.LBE193-.LBB193
 9213 266c 03       		.byte	0x3
 9214 266d BD       		.byte	0xbd
 9215 266e 0A       		.byte	0xa
 9216 266f 00       		.byte	0
 9217 2670 3E       		.uleb128 0x3e
 9218 2671 F62B0000 		.4byte	0x2bf6
 9219 2675 5A000000 		.4byte	.LBI197
ARM GAS  /tmp/ccvURch4.s 			page 165


 9220 2679 01       		.byte	.LVU210
 9221 267a 10010000 		.4byte	.Ldebug_ranges0+0x110
 9222 267e 01       		.byte	0x1
 9223 267f B1       		.byte	0xb1
 9224 2680 32       		.byte	0x32
 9225 2681 9B260000 		.4byte	0x269b
 9226 2685 39       		.uleb128 0x39
 9227 2686 032C0000 		.4byte	0x2c03
 9228 268a 5A000000 		.4byte	.LBI199
 9229 268e 03       		.byte	.LVU212
 9230 268f 5A000000 		.4byte	.LBB199
 9231 2693 00000000 		.4byte	.LBE199-.LBB199
 9232 2697 03       		.byte	0x3
 9233 2698 BD       		.byte	0xbd
 9234 2699 0A       		.byte	0xa
 9235 269a 00       		.byte	0
 9236 269b 3E       		.uleb128 0x3e
 9237 269c F62B0000 		.4byte	0x2bf6
 9238 26a0 70000000 		.4byte	.LBI203
 9239 26a4 01       		.byte	.LVU218
 9240 26a5 28010000 		.4byte	.Ldebug_ranges0+0x128
 9241 26a9 01       		.byte	0x1
 9242 26aa B2       		.byte	0xb2
 9243 26ab 32       		.byte	0x32
 9244 26ac C6260000 		.4byte	0x26c6
 9245 26b0 39       		.uleb128 0x39
 9246 26b1 032C0000 		.4byte	0x2c03
 9247 26b5 70000000 		.4byte	.LBI205
 9248 26b9 03       		.byte	.LVU220
 9249 26ba 70000000 		.4byte	.LBB205
 9250 26be 00000000 		.4byte	.LBE205-.LBB205
 9251 26c2 03       		.byte	0x3
 9252 26c3 BD       		.byte	0xbd
 9253 26c4 0A       		.byte	0xa
 9254 26c5 00       		.byte	0
 9255 26c6 29       		.uleb128 0x29
 9256 26c7 2A000000 		.4byte	.LVL84
 9257 26cb 832D0000 		.4byte	0x2d83
 9258 26cf F2260000 		.4byte	0x26f2
 9259 26d3 2A       		.uleb128 0x2a
 9260 26d4 01       		.uleb128 0x1
 9261 26d5 50       		.byte	0x50
 9262 26d6 03       		.uleb128 0x3
 9263 26d7 76       		.byte	0x76
 9264 26d8 00       		.sleb128 0
 9265 26d9 06       		.byte	0x6
 9266 26da 2A       		.uleb128 0x2a
 9267 26db 01       		.uleb128 0x1
 9268 26dc 51       		.byte	0x51
 9269 26dd 03       		.uleb128 0x3
 9270 26de 0A       		.byte	0xa
 9271 26df F801     		.2byte	0x1f8
 9272 26e1 2A       		.uleb128 0x2a
 9273 26e2 01       		.uleb128 0x1
 9274 26e3 53       		.byte	0x53
 9275 26e4 05       		.uleb128 0x5
 9276 26e5 03       		.byte	0x3
ARM GAS  /tmp/ccvURch4.s 			page 166


 9277 26e6 00000000 		.4byte	thread2
 9278 26ea 2A       		.uleb128 0x2a
 9279 26eb 02       		.uleb128 0x2
 9280 26ec 7D       		.byte	0x7d
 9281 26ed 00       		.sleb128 0
 9282 26ee 02       		.uleb128 0x2
 9283 26ef 75       		.byte	0x75
 9284 26f0 00       		.sleb128 0
 9285 26f1 00       		.byte	0
 9286 26f2 29       		.uleb128 0x29
 9287 26f3 40000000 		.4byte	.LVL85
 9288 26f7 832D0000 		.4byte	0x2d83
 9289 26fb 1E270000 		.4byte	0x271e
 9290 26ff 2A       		.uleb128 0x2a
 9291 2700 01       		.uleb128 0x1
 9292 2701 50       		.byte	0x50
 9293 2702 03       		.uleb128 0x3
 9294 2703 76       		.byte	0x76
 9295 2704 04       		.sleb128 4
 9296 2705 06       		.byte	0x6
 9297 2706 2A       		.uleb128 0x2a
 9298 2707 01       		.uleb128 0x1
 9299 2708 51       		.byte	0x51
 9300 2709 03       		.uleb128 0x3
 9301 270a 0A       		.byte	0xa
 9302 270b F801     		.2byte	0x1f8
 9303 270d 2A       		.uleb128 0x2a
 9304 270e 01       		.uleb128 0x1
 9305 270f 53       		.byte	0x53
 9306 2710 05       		.uleb128 0x5
 9307 2711 03       		.byte	0x3
 9308 2712 00000000 		.4byte	thread1
 9309 2716 2A       		.uleb128 0x2a
 9310 2717 02       		.uleb128 0x2
 9311 2718 7D       		.byte	0x7d
 9312 2719 00       		.sleb128 0
 9313 271a 02       		.uleb128 0x2
 9314 271b 75       		.byte	0x75
 9315 271c 00       		.sleb128 0
 9316 271d 00       		.byte	0
 9317 271e 29       		.uleb128 0x29
 9318 271f 56000000 		.4byte	.LVL86
 9319 2723 832D0000 		.4byte	0x2d83
 9320 2727 4A270000 		.4byte	0x274a
 9321 272b 2A       		.uleb128 0x2a
 9322 272c 01       		.uleb128 0x1
 9323 272d 50       		.byte	0x50
 9324 272e 03       		.uleb128 0x3
 9325 272f 76       		.byte	0x76
 9326 2730 08       		.sleb128 8
 9327 2731 06       		.byte	0x6
 9328 2732 2A       		.uleb128 0x2a
 9329 2733 01       		.uleb128 0x1
 9330 2734 51       		.byte	0x51
 9331 2735 03       		.uleb128 0x3
 9332 2736 0A       		.byte	0xa
 9333 2737 F801     		.2byte	0x1f8
ARM GAS  /tmp/ccvURch4.s 			page 167


 9334 2739 2A       		.uleb128 0x2a
 9335 273a 01       		.uleb128 0x1
 9336 273b 53       		.byte	0x53
 9337 273c 05       		.uleb128 0x5
 9338 273d 03       		.byte	0x3
 9339 273e 00000000 		.4byte	thread1
 9340 2742 2A       		.uleb128 0x2a
 9341 2743 02       		.uleb128 0x2
 9342 2744 7D       		.byte	0x7d
 9343 2745 00       		.sleb128 0
 9344 2746 02       		.uleb128 0x2
 9345 2747 75       		.byte	0x75
 9346 2748 00       		.sleb128 0
 9347 2749 00       		.byte	0
 9348 274a 29       		.uleb128 0x29
 9349 274b 6C000000 		.4byte	.LVL87
 9350 274f 832D0000 		.4byte	0x2d83
 9351 2753 76270000 		.4byte	0x2776
 9352 2757 2A       		.uleb128 0x2a
 9353 2758 01       		.uleb128 0x1
 9354 2759 50       		.byte	0x50
 9355 275a 03       		.uleb128 0x3
 9356 275b 76       		.byte	0x76
 9357 275c 0C       		.sleb128 12
 9358 275d 06       		.byte	0x6
 9359 275e 2A       		.uleb128 0x2a
 9360 275f 01       		.uleb128 0x1
 9361 2760 51       		.byte	0x51
 9362 2761 03       		.uleb128 0x3
 9363 2762 0A       		.byte	0xa
 9364 2763 F801     		.2byte	0x1f8
 9365 2765 2A       		.uleb128 0x2a
 9366 2766 01       		.uleb128 0x1
 9367 2767 53       		.byte	0x53
 9368 2768 05       		.uleb128 0x5
 9369 2769 03       		.byte	0x3
 9370 276a 00000000 		.4byte	thread1
 9371 276e 2A       		.uleb128 0x2a
 9372 276f 02       		.uleb128 0x2
 9373 2770 7D       		.byte	0x7d
 9374 2771 00       		.sleb128 0
 9375 2772 02       		.uleb128 0x2
 9376 2773 75       		.byte	0x75
 9377 2774 00       		.sleb128 0
 9378 2775 00       		.byte	0
 9379 2776 29       		.uleb128 0x29
 9380 2777 82000000 		.4byte	.LVL88
 9381 277b 832D0000 		.4byte	0x2d83
 9382 277f A2270000 		.4byte	0x27a2
 9383 2783 2A       		.uleb128 0x2a
 9384 2784 01       		.uleb128 0x1
 9385 2785 50       		.byte	0x50
 9386 2786 03       		.uleb128 0x3
 9387 2787 76       		.byte	0x76
 9388 2788 10       		.sleb128 16
 9389 2789 06       		.byte	0x6
 9390 278a 2A       		.uleb128 0x2a
ARM GAS  /tmp/ccvURch4.s 			page 168


 9391 278b 01       		.uleb128 0x1
 9392 278c 51       		.byte	0x51
 9393 278d 03       		.uleb128 0x3
 9394 278e 0A       		.byte	0xa
 9395 278f F801     		.2byte	0x1f8
 9396 2791 2A       		.uleb128 0x2a
 9397 2792 01       		.uleb128 0x1
 9398 2793 53       		.byte	0x53
 9399 2794 05       		.uleb128 0x5
 9400 2795 03       		.byte	0x3
 9401 2796 00000000 		.4byte	thread1
 9402 279a 2A       		.uleb128 0x2a
 9403 279b 02       		.uleb128 0x2
 9404 279c 7D       		.byte	0x7d
 9405 279d 00       		.sleb128 0
 9406 279e 02       		.uleb128 0x2
 9407 279f 75       		.byte	0x75
 9408 27a0 00       		.sleb128 0
 9409 27a1 00       		.byte	0
 9410 27a2 2C       		.uleb128 0x2c
 9411 27a3 8C000000 		.4byte	.LVL89
 9412 27a7 292A0000 		.4byte	0x2a29
 9413 27ab 2C       		.uleb128 0x2c
 9414 27ac 92000000 		.4byte	.LVL91
 9415 27b0 A72D0000 		.4byte	0x2da7
 9416 27b4 29       		.uleb128 0x29
 9417 27b5 98000000 		.4byte	.LVL92
 9418 27b9 7D2C0000 		.4byte	0x2c7d
 9419 27bd CB270000 		.4byte	0x27cb
 9420 27c1 2A       		.uleb128 0x2a
 9421 27c2 01       		.uleb128 0x1
 9422 27c3 50       		.byte	0x50
 9423 27c4 05       		.uleb128 0x5
 9424 27c5 03       		.byte	0x3
 9425 27c6 00000000 		.4byte	.LC14
 9426 27ca 00       		.byte	0
 9427 27cb 29       		.uleb128 0x29
 9428 27cc 9E000000 		.4byte	.LVL93
 9429 27d0 892C0000 		.4byte	0x2c89
 9430 27d4 DF270000 		.4byte	0x27df
 9431 27d8 2A       		.uleb128 0x2a
 9432 27d9 01       		.uleb128 0x1
 9433 27da 50       		.byte	0x50
 9434 27db 02       		.uleb128 0x2
 9435 27dc 74       		.byte	0x74
 9436 27dd 00       		.sleb128 0
 9437 27de 00       		.byte	0
 9438 27df 29       		.uleb128 0x29
 9439 27e0 A4000000 		.4byte	.LVL94
 9440 27e4 7D2C0000 		.4byte	0x2c7d
 9441 27e8 F6270000 		.4byte	0x27f6
 9442 27ec 2A       		.uleb128 0x2a
 9443 27ed 01       		.uleb128 0x1
 9444 27ee 50       		.byte	0x50
 9445 27ef 05       		.uleb128 0x5
 9446 27f0 03       		.byte	0x3
 9447 27f1 00000000 		.4byte	.LC18
ARM GAS  /tmp/ccvURch4.s 			page 169


 9448 27f5 00       		.byte	0
 9449 27f6 29       		.uleb128 0x29
 9450 27f7 AA000000 		.4byte	.LVL95
 9451 27fb 892C0000 		.4byte	0x2c89
 9452 27ff 0C280000 		.4byte	0x280c
 9453 2803 2A       		.uleb128 0x2a
 9454 2804 01       		.uleb128 0x1
 9455 2805 50       		.byte	0x50
 9456 2806 04       		.uleb128 0x4
 9457 2807 74       		.byte	0x74
 9458 2808 00       		.sleb128 0
 9459 2809 31       		.byte	0x31
 9460 280a 24       		.byte	0x24
 9461 280b 00       		.byte	0
 9462 280c 2B       		.uleb128 0x2b
 9463 280d C0000000 		.4byte	.LVL97
 9464 2811 952C0000 		.4byte	0x2c95
 9465 2815 23280000 		.4byte	0x2823
 9466 2819 2A       		.uleb128 0x2a
 9467 281a 01       		.uleb128 0x1
 9468 281b 50       		.byte	0x50
 9469 281c 05       		.uleb128 0x5
 9470 281d 03       		.byte	0x3
 9471 281e 0C000000 		.4byte	.LC19
 9472 2822 00       		.byte	0
 9473 2823 2C       		.uleb128 0x2c
 9474 2824 C4000000 		.4byte	.LVL98
 9475 2828 A12C0000 		.4byte	0x2ca1
 9476 282c 00       		.byte	0
 9477 282d 3C       		.uleb128 0x3c
 9478 282e 2C000000 		.4byte	.LASF212
 9479 2832 01       		.byte	0x1
 9480 2833 8D       		.byte	0x8d
 9481 2834 0D       		.byte	0xd
 9482 2835 00000000 		.4byte	.LFB223
 9483 2839 88000000 		.4byte	.LFE223-.LFB223
 9484 283d 01       		.uleb128 0x1
 9485 283e 9C       		.byte	0x9c
 9486 283f 2B290000 		.4byte	0x292b
 9487 2843 3D       		.uleb128 0x3d
 9488 2844 6E00     		.ascii	"n\000"
 9489 2846 01       		.byte	0x1
 9490 2847 8E       		.byte	0x8e
 9491 2848 0C       		.byte	0xc
 9492 2849 99000000 		.4byte	0x99
 9493 284d 80040000 		.4byte	.LLST11
 9494 2851 7A040000 		.4byte	.LVUS11
 9495 2855 3E       		.uleb128 0x3e
 9496 2856 F62B0000 		.4byte	0x2bf6
 9497 285a 1A000000 		.4byte	.LBI165
 9498 285e 02       		.byte	.LVU157
 9499 285f 70000000 		.4byte	.Ldebug_ranges0+0x70
 9500 2863 01       		.byte	0x1
 9501 2864 90       		.byte	0x90
 9502 2865 32       		.byte	0x32
 9503 2866 7C280000 		.4byte	0x287c
 9504 286a 38       		.uleb128 0x38
ARM GAS  /tmp/ccvURch4.s 			page 170


 9505 286b 032C0000 		.4byte	0x2c03
 9506 286f 1A000000 		.4byte	.LBI167
 9507 2873 04       		.byte	.LVU159
 9508 2874 90000000 		.4byte	.Ldebug_ranges0+0x90
 9509 2878 03       		.byte	0x3
 9510 2879 BD       		.byte	0xbd
 9511 287a 0A       		.byte	0xa
 9512 287b 00       		.byte	0
 9513 287c 29       		.uleb128 0x29
 9514 287d 28000000 		.4byte	.LVL73
 9515 2881 832D0000 		.4byte	0x2d83
 9516 2885 A0280000 		.4byte	0x28a0
 9517 2889 2A       		.uleb128 0x2a
 9518 288a 01       		.uleb128 0x1
 9519 288b 51       		.byte	0x51
 9520 288c 03       		.uleb128 0x3
 9521 288d 0A       		.byte	0xa
 9522 288e F801     		.2byte	0x1f8
 9523 2890 2A       		.uleb128 0x2a
 9524 2891 01       		.uleb128 0x1
 9525 2892 53       		.byte	0x53
 9526 2893 05       		.uleb128 0x5
 9527 2894 03       		.byte	0x3
 9528 2895 00000000 		.4byte	thread2
 9529 2899 2A       		.uleb128 0x2a
 9530 289a 02       		.uleb128 0x2
 9531 289b 7D       		.byte	0x7d
 9532 289c 00       		.sleb128 0
 9533 289d 01       		.uleb128 0x1
 9534 289e 30       		.byte	0x30
 9535 289f 00       		.byte	0
 9536 28a0 2C       		.uleb128 0x2c
 9537 28a1 30000000 		.4byte	.LVL74
 9538 28a5 292A0000 		.4byte	0x2a29
 9539 28a9 2C       		.uleb128 0x2c
 9540 28aa 36000000 		.4byte	.LVL76
 9541 28ae A72D0000 		.4byte	0x2da7
 9542 28b2 29       		.uleb128 0x29
 9543 28b3 3C000000 		.4byte	.LVL77
 9544 28b7 7D2C0000 		.4byte	0x2c7d
 9545 28bb C9280000 		.4byte	0x28c9
 9546 28bf 2A       		.uleb128 0x2a
 9547 28c0 01       		.uleb128 0x1
 9548 28c1 50       		.byte	0x50
 9549 28c2 05       		.uleb128 0x5
 9550 28c3 03       		.byte	0x3
 9551 28c4 00000000 		.4byte	.LC14
 9552 28c8 00       		.byte	0
 9553 28c9 29       		.uleb128 0x29
 9554 28ca 42000000 		.4byte	.LVL78
 9555 28ce 892C0000 		.4byte	0x2c89
 9556 28d2 DD280000 		.4byte	0x28dd
 9557 28d6 2A       		.uleb128 0x2a
 9558 28d7 01       		.uleb128 0x1
 9559 28d8 50       		.byte	0x50
 9560 28d9 02       		.uleb128 0x2
 9561 28da 74       		.byte	0x74
ARM GAS  /tmp/ccvURch4.s 			page 171


 9562 28db 00       		.sleb128 0
 9563 28dc 00       		.byte	0
 9564 28dd 29       		.uleb128 0x29
 9565 28de 48000000 		.4byte	.LVL79
 9566 28e2 7D2C0000 		.4byte	0x2c7d
 9567 28e6 F4280000 		.4byte	0x28f4
 9568 28ea 2A       		.uleb128 0x2a
 9569 28eb 01       		.uleb128 0x1
 9570 28ec 50       		.byte	0x50
 9571 28ed 05       		.uleb128 0x5
 9572 28ee 03       		.byte	0x3
 9573 28ef 00000000 		.4byte	.LC18
 9574 28f3 00       		.byte	0
 9575 28f4 29       		.uleb128 0x29
 9576 28f5 4E000000 		.4byte	.LVL80
 9577 28f9 892C0000 		.4byte	0x2c89
 9578 28fd 0A290000 		.4byte	0x290a
 9579 2901 2A       		.uleb128 0x2a
 9580 2902 01       		.uleb128 0x1
 9581 2903 50       		.byte	0x50
 9582 2904 04       		.uleb128 0x4
 9583 2905 74       		.byte	0x74
 9584 2906 00       		.sleb128 0
 9585 2907 31       		.byte	0x31
 9586 2908 24       		.byte	0x24
 9587 2909 00       		.byte	0
 9588 290a 2B       		.uleb128 0x2b
 9589 290b 64000000 		.4byte	.LVL82
 9590 290f 952C0000 		.4byte	0x2c95
 9591 2913 21290000 		.4byte	0x2921
 9592 2917 2A       		.uleb128 0x2a
 9593 2918 01       		.uleb128 0x1
 9594 2919 50       		.byte	0x50
 9595 291a 05       		.uleb128 0x5
 9596 291b 03       		.byte	0x3
 9597 291c 0C000000 		.4byte	.LC19
 9598 2920 00       		.byte	0
 9599 2921 2C       		.uleb128 0x2c
 9600 2922 68000000 		.4byte	.LVL83
 9601 2926 A12C0000 		.4byte	0x2ca1
 9602 292a 00       		.byte	0
 9603 292b 3C       		.uleb128 0x3c
 9604 292c 5C030000 		.4byte	.LASF213
 9605 2930 01       		.byte	0x1
 9606 2931 70       		.byte	0x70
 9607 2932 0D       		.byte	0xd
 9608 2933 00000000 		.4byte	.LFB222
 9609 2937 88000000 		.4byte	.LFE222-.LFB222
 9610 293b 01       		.uleb128 0x1
 9611 293c 9C       		.byte	0x9c
 9612 293d 292A0000 		.4byte	0x2a29
 9613 2941 3D       		.uleb128 0x3d
 9614 2942 6E00     		.ascii	"n\000"
 9615 2944 01       		.byte	0x1
 9616 2945 71       		.byte	0x71
 9617 2946 0C       		.byte	0xc
 9618 2947 99000000 		.4byte	0x99
ARM GAS  /tmp/ccvURch4.s 			page 172


 9619 294b AF040000 		.4byte	.LLST10
 9620 294f A9040000 		.4byte	.LVUS10
 9621 2953 3E       		.uleb128 0x3e
 9622 2954 F62B0000 		.4byte	0x2bf6
 9623 2958 1A000000 		.4byte	.LBI155
 9624 295c 02       		.byte	.LVU130
 9625 295d 38000000 		.4byte	.Ldebug_ranges0+0x38
 9626 2961 01       		.byte	0x1
 9627 2962 73       		.byte	0x73
 9628 2963 32       		.byte	0x32
 9629 2964 7A290000 		.4byte	0x297a
 9630 2968 38       		.uleb128 0x38
 9631 2969 032C0000 		.4byte	0x2c03
 9632 296d 1A000000 		.4byte	.LBI157
 9633 2971 04       		.byte	.LVU132
 9634 2972 58000000 		.4byte	.Ldebug_ranges0+0x58
 9635 2976 03       		.byte	0x3
 9636 2977 BD       		.byte	0xbd
 9637 2978 0A       		.byte	0xa
 9638 2979 00       		.byte	0
 9639 297a 29       		.uleb128 0x29
 9640 297b 28000000 		.4byte	.LVL62
 9641 297f 832D0000 		.4byte	0x2d83
 9642 2983 9E290000 		.4byte	0x299e
 9643 2987 2A       		.uleb128 0x2a
 9644 2988 01       		.uleb128 0x1
 9645 2989 51       		.byte	0x51
 9646 298a 03       		.uleb128 0x3
 9647 298b 0A       		.byte	0xa
 9648 298c F801     		.2byte	0x1f8
 9649 298e 2A       		.uleb128 0x2a
 9650 298f 01       		.uleb128 0x1
 9651 2990 53       		.byte	0x53
 9652 2991 05       		.uleb128 0x5
 9653 2992 03       		.byte	0x3
 9654 2993 00000000 		.4byte	thread2
 9655 2997 2A       		.uleb128 0x2a
 9656 2998 02       		.uleb128 0x2
 9657 2999 7D       		.byte	0x7d
 9658 299a 00       		.sleb128 0
 9659 299b 01       		.uleb128 0x1
 9660 299c 30       		.byte	0x30
 9661 299d 00       		.byte	0
 9662 299e 2C       		.uleb128 0x2c
 9663 299f 30000000 		.4byte	.LVL63
 9664 29a3 292A0000 		.4byte	0x2a29
 9665 29a7 2C       		.uleb128 0x2c
 9666 29a8 36000000 		.4byte	.LVL65
 9667 29ac A72D0000 		.4byte	0x2da7
 9668 29b0 29       		.uleb128 0x29
 9669 29b1 3C000000 		.4byte	.LVL66
 9670 29b5 7D2C0000 		.4byte	0x2c7d
 9671 29b9 C7290000 		.4byte	0x29c7
 9672 29bd 2A       		.uleb128 0x2a
 9673 29be 01       		.uleb128 0x1
 9674 29bf 50       		.byte	0x50
 9675 29c0 05       		.uleb128 0x5
ARM GAS  /tmp/ccvURch4.s 			page 173


 9676 29c1 03       		.byte	0x3
 9677 29c2 00000000 		.4byte	.LC14
 9678 29c6 00       		.byte	0
 9679 29c7 29       		.uleb128 0x29
 9680 29c8 42000000 		.4byte	.LVL67
 9681 29cc 892C0000 		.4byte	0x2c89
 9682 29d0 DB290000 		.4byte	0x29db
 9683 29d4 2A       		.uleb128 0x2a
 9684 29d5 01       		.uleb128 0x1
 9685 29d6 50       		.byte	0x50
 9686 29d7 02       		.uleb128 0x2
 9687 29d8 74       		.byte	0x74
 9688 29d9 00       		.sleb128 0
 9689 29da 00       		.byte	0
 9690 29db 29       		.uleb128 0x29
 9691 29dc 48000000 		.4byte	.LVL68
 9692 29e0 7D2C0000 		.4byte	0x2c7d
 9693 29e4 F2290000 		.4byte	0x29f2
 9694 29e8 2A       		.uleb128 0x2a
 9695 29e9 01       		.uleb128 0x1
 9696 29ea 50       		.byte	0x50
 9697 29eb 05       		.uleb128 0x5
 9698 29ec 03       		.byte	0x3
 9699 29ed 00000000 		.4byte	.LC18
 9700 29f1 00       		.byte	0
 9701 29f2 29       		.uleb128 0x29
 9702 29f3 4E000000 		.4byte	.LVL69
 9703 29f7 892C0000 		.4byte	0x2c89
 9704 29fb 082A0000 		.4byte	0x2a08
 9705 29ff 2A       		.uleb128 0x2a
 9706 2a00 01       		.uleb128 0x1
 9707 2a01 50       		.byte	0x50
 9708 2a02 04       		.uleb128 0x4
 9709 2a03 74       		.byte	0x74
 9710 2a04 00       		.sleb128 0
 9711 2a05 31       		.byte	0x31
 9712 2a06 24       		.byte	0x24
 9713 2a07 00       		.byte	0
 9714 2a08 2B       		.uleb128 0x2b
 9715 2a09 64000000 		.4byte	.LVL71
 9716 2a0d 952C0000 		.4byte	0x2c95
 9717 2a11 1F2A0000 		.4byte	0x2a1f
 9718 2a15 2A       		.uleb128 0x2a
 9719 2a16 01       		.uleb128 0x1
 9720 2a17 50       		.byte	0x50
 9721 2a18 05       		.uleb128 0x5
 9722 2a19 03       		.byte	0x3
 9723 2a1a 0C000000 		.4byte	.LC19
 9724 2a1e 00       		.byte	0
 9725 2a1f 2C       		.uleb128 0x2c
 9726 2a20 68000000 		.4byte	.LVL72
 9727 2a24 A12C0000 		.4byte	0x2ca1
 9728 2a28 00       		.byte	0
 9729 2a29 41       		.uleb128 0x41
 9730 2a2a 100A0000 		.4byte	.LASF265
 9731 2a2e 01       		.byte	0x1
 9732 2a2f 57       		.byte	0x57
ARM GAS  /tmp/ccvURch4.s 			page 174


 9733 2a30 15       		.byte	0x15
 9734 2a31 38000000 		.4byte	0x38
 9735 2a35 00000000 		.4byte	.LFB221
 9736 2a39 54000000 		.4byte	.LFE221-.LFB221
 9737 2a3d 01       		.uleb128 0x1
 9738 2a3e 9C       		.byte	0x9c
 9739 2a3f C22A0000 		.4byte	0x2ac2
 9740 2a43 3F       		.uleb128 0x3f
 9741 2a44 747000   		.ascii	"tp\000"
 9742 2a47 01       		.byte	0x1
 9743 2a48 57       		.byte	0x57
 9744 2a49 2D       		.byte	0x2d
 9745 2a4a A1020000 		.4byte	0x2a1
 9746 2a4e DC040000 		.4byte	.LLST8
 9747 2a52 D8040000 		.4byte	.LVUS8
 9748 2a56 3D       		.uleb128 0x3d
 9749 2a57 6E00     		.ascii	"n\000"
 9750 2a59 01       		.byte	0x1
 9751 2a5a 59       		.byte	0x59
 9752 2a5b 0C       		.byte	0xc
 9753 2a5c 99000000 		.4byte	0x99
 9754 2a60 FE040000 		.4byte	.LLST9
 9755 2a64 FA040000 		.4byte	.LVUS9
 9756 2a68 2C       		.uleb128 0x2c
 9757 2a69 16000000 		.4byte	.LVL54
 9758 2a6d AA2C0000 		.4byte	0x2caa
 9759 2a71 29       		.uleb128 0x29
 9760 2a72 1E000000 		.4byte	.LVL55
 9761 2a76 B62C0000 		.4byte	0x2cb6
 9762 2a7a 862A0000 		.4byte	0x2a86
 9763 2a7e 2A       		.uleb128 0x2a
 9764 2a7f 01       		.uleb128 0x1
 9765 2a80 50       		.byte	0x50
 9766 2a81 03       		.uleb128 0x3
 9767 2a82 0A       		.byte	0xa
 9768 2a83 E803     		.2byte	0x3e8
 9769 2a85 00       		.byte	0
 9770 2a86 29       		.uleb128 0x29
 9771 2a87 28000000 		.4byte	.LVL57
 9772 2a8b F12D0000 		.4byte	0x2df1
 9773 2a8f 9F2A0000 		.4byte	0x2a9f
 9774 2a93 2A       		.uleb128 0x2a
 9775 2a94 01       		.uleb128 0x1
 9776 2a95 50       		.byte	0x50
 9777 2a96 02       		.uleb128 0x2
 9778 2a97 75       		.byte	0x75
 9779 2a98 00       		.sleb128 0
 9780 2a99 2A       		.uleb128 0x2a
 9781 2a9a 01       		.uleb128 0x1
 9782 2a9b 51       		.byte	0x51
 9783 2a9c 01       		.uleb128 0x1
 9784 2a9d 31       		.byte	0x31
 9785 2a9e 00       		.byte	0
 9786 2a9f 29       		.uleb128 0x29
 9787 2aa0 38000000 		.4byte	.LVL59
 9788 2aa4 F12D0000 		.4byte	0x2df1
 9789 2aa8 B82A0000 		.4byte	0x2ab8
ARM GAS  /tmp/ccvURch4.s 			page 175


 9790 2aac 2A       		.uleb128 0x2a
 9791 2aad 01       		.uleb128 0x1
 9792 2aae 50       		.byte	0x50
 9793 2aaf 02       		.uleb128 0x2
 9794 2ab0 75       		.byte	0x75
 9795 2ab1 00       		.sleb128 0
 9796 2ab2 2A       		.uleb128 0x2a
 9797 2ab3 01       		.uleb128 0x1
 9798 2ab4 51       		.byte	0x51
 9799 2ab5 01       		.uleb128 0x1
 9800 2ab6 30       		.byte	0x30
 9801 2ab7 00       		.byte	0
 9802 2ab8 2C       		.uleb128 0x2c
 9803 2ab9 4C000000 		.4byte	.LVL61
 9804 2abd A12C0000 		.4byte	0x2ca1
 9805 2ac1 00       		.byte	0
 9806 2ac2 3C       		.uleb128 0x3c
 9807 2ac3 A6080000 		.4byte	.LASF214
 9808 2ac7 01       		.byte	0x1
 9809 2ac8 48       		.byte	0x48
 9810 2ac9 08       		.byte	0x8
 9811 2aca 00000000 		.4byte	.LFB220
 9812 2ace 34000000 		.4byte	.LFE220-.LFB220
 9813 2ad2 01       		.uleb128 0x1
 9814 2ad3 9C       		.byte	0x9c
 9815 2ad4 5F2B0000 		.4byte	0x2b5f
 9816 2ad8 3F       		.uleb128 0x3f
 9817 2ad9 7000     		.ascii	"p\000"
 9818 2adb 01       		.byte	0x1
 9819 2adc 48       		.byte	0x48
 9820 2add 08       		.byte	0x8
 9821 2ade 8E030000 		.4byte	0x38e
 9822 2ae2 21050000 		.4byte	.LLST1
 9823 2ae6 1D050000 		.4byte	.LVUS1
 9824 2aea 3D       		.uleb128 0x3d
 9825 2aeb 747000   		.ascii	"tp\000"
 9826 2aee 01       		.byte	0x1
 9827 2aef 49       		.byte	0x49
 9828 2af0 0D       		.byte	0xd
 9829 2af1 A1020000 		.4byte	0x2a1
 9830 2af5 44050000 		.4byte	.LLST2
 9831 2af9 42050000 		.4byte	.LVUS2
 9832 2afd 3D       		.uleb128 0x3d
 9833 2afe 6D736700 		.ascii	"msg\000"
 9834 2b02 01       		.byte	0x1
 9835 2b03 4A       		.byte	0x4a
 9836 2b04 09       		.byte	0x9
 9837 2b05 13010000 		.4byte	0x113
 9838 2b09 59050000 		.4byte	.LLST3
 9839 2b0d 57050000 		.4byte	.LVUS3
 9840 2b11 42       		.uleb128 0x42
 9841 2b12 CC2B0000 		.4byte	0x2bcc
 9842 2b16 12000000 		.4byte	.LBI143
 9843 2b1a 01       		.byte	.LVU52
 9844 2b1b 12000000 		.4byte	.LBB143
 9845 2b1f 02000000 		.4byte	.LBE143-.LBB143
 9846 2b23 01       		.byte	0x1
ARM GAS  /tmp/ccvURch4.s 			page 176


 9847 2b24 4F       		.byte	0x4f
 9848 2b25 0B       		.byte	0xb
 9849 2b26 382B0000 		.4byte	0x2b38
 9850 2b2a 31       		.uleb128 0x31
 9851 2b2b DD2B0000 		.4byte	0x2bdd
 9852 2b2f 6E050000 		.4byte	.LLST4
 9853 2b33 6C050000 		.4byte	.LVUS4
 9854 2b37 00       		.byte	0
 9855 2b38 2C       		.uleb128 0x2c
 9856 2b39 12000000 		.4byte	.LVL35
 9857 2b3d FD2D0000 		.4byte	0x2dfd
 9858 2b41 29       		.uleb128 0x29
 9859 2b42 1A000000 		.4byte	.LVL37
 9860 2b46 092E0000 		.4byte	0x2e09
 9861 2b4a 552B0000 		.4byte	0x2b55
 9862 2b4e 2A       		.uleb128 0x2a
 9863 2b4f 01       		.uleb128 0x1
 9864 2b50 51       		.byte	0x51
 9865 2b51 02       		.uleb128 0x2
 9866 2b52 74       		.byte	0x74
 9867 2b53 00       		.sleb128 0
 9868 2b54 00       		.byte	0
 9869 2b55 2C       		.uleb128 0x2c
 9870 2b56 30000000 		.4byte	.LVL39
 9871 2b5a A12C0000 		.4byte	0x2ca1
 9872 2b5e 00       		.byte	0
 9873 2b5f 3C       		.uleb128 0x3c
 9874 2b60 9E080000 		.4byte	.LASF215
 9875 2b64 01       		.byte	0x1
 9876 2b65 42       		.byte	0x42
 9877 2b66 08       		.byte	0x8
 9878 2b67 00000000 		.4byte	.LFB219
 9879 2b6b 2C000000 		.4byte	.LFE219-.LFB219
 9880 2b6f 01       		.uleb128 0x1
 9881 2b70 9C       		.byte	0x9c
 9882 2b71 A62B0000 		.4byte	0x2ba6
 9883 2b75 3F       		.uleb128 0x3f
 9884 2b76 7000     		.ascii	"p\000"
 9885 2b78 01       		.byte	0x1
 9886 2b79 42       		.byte	0x42
 9887 2b7a 08       		.byte	0x8
 9888 2b7b 8E030000 		.4byte	0x38e
 9889 2b7f 89050000 		.4byte	.LLST13
 9890 2b83 81050000 		.4byte	.LVUS13
 9891 2b87 2B       		.uleb128 0x2b
 9892 2b88 22000000 		.4byte	.LVL100
 9893 2b8c 152E0000 		.4byte	0x2e15
 9894 2b90 9C2B0000 		.4byte	0x2b9c
 9895 2b94 2A       		.uleb128 0x2a
 9896 2b95 01       		.uleb128 0x1
 9897 2b96 50       		.byte	0x50
 9898 2b97 03       		.uleb128 0x3
 9899 2b98 F3       		.byte	0xf3
 9900 2b99 01       		.uleb128 0x1
 9901 2b9a 50       		.byte	0x50
 9902 2b9b 00       		.byte	0
 9903 2b9c 2C       		.uleb128 0x2c
ARM GAS  /tmp/ccvURch4.s 			page 177


 9904 2b9d 26000000 		.4byte	.LVL101
 9905 2ba1 A12C0000 		.4byte	0x2ca1
 9906 2ba5 00       		.byte	0
 9907 2ba6 43       		.uleb128 0x43
 9908 2ba7 61070000 		.4byte	.LASF216
 9909 2bab 07       		.byte	0x7
 9910 2bac 5301     		.2byte	0x153
 9911 2bae 15       		.byte	0x15
 9912 2baf 13010000 		.4byte	0x113
 9913 2bb3 03       		.byte	0x3
 9914 2bb4 C62B0000 		.4byte	0x2bc6
 9915 2bb8 44       		.uleb128 0x44
 9916 2bb9 69717000 		.ascii	"iqp\000"
 9917 2bbd 07       		.byte	0x7
 9918 2bbe 5301     		.2byte	0x153
 9919 2bc0 2C       		.byte	0x2c
 9920 2bc1 C62B0000 		.4byte	0x2bc6
 9921 2bc5 00       		.byte	0
 9922 2bc6 0A       		.uleb128 0xa
 9923 2bc7 04       		.byte	0x4
 9924 2bc8 350B0000 		.4byte	0xb35
 9925 2bcc 45       		.uleb128 0x45
 9926 2bcd 56080000 		.4byte	.LASF217
 9927 2bd1 02       		.byte	0x2
 9928 2bd2 60       		.byte	0x60
 9929 2bd3 15       		.byte	0x15
 9930 2bd4 13010000 		.4byte	0x113
 9931 2bd8 03       		.byte	0x3
 9932 2bd9 E92B0000 		.4byte	0x2be9
 9933 2bdd 46       		.uleb128 0x46
 9934 2bde 747000   		.ascii	"tp\000"
 9935 2be1 02       		.byte	0x2
 9936 2be2 60       		.byte	0x60
 9937 2be3 28       		.byte	0x28
 9938 2be4 A1020000 		.4byte	0x2a1
 9939 2be8 00       		.byte	0
 9940 2be9 47       		.uleb128 0x47
 9941 2bea 940C0000 		.4byte	.LASF218
 9942 2bee 03       		.byte	0x3
 9943 2bef E7       		.byte	0xe7
 9944 2bf0 14       		.byte	0x14
 9945 2bf1 2D0C0000 		.4byte	0xc2d
 9946 2bf5 03       		.byte	0x3
 9947 2bf6 47       		.uleb128 0x47
 9948 2bf7 D4000000 		.4byte	.LASF219
 9949 2bfb 03       		.byte	0x3
 9950 2bfc BB       		.byte	0xbb
 9951 2bfd 17       		.byte	0x17
 9952 2bfe 07010000 		.4byte	0x107
 9953 2c02 03       		.byte	0x3
 9954 2c03 47       		.uleb128 0x47
 9955 2c04 80090000 		.4byte	.LASF220
 9956 2c08 03       		.byte	0x3
 9957 2c09 AE       		.byte	0xae
 9958 2c0a 19       		.byte	0x19
 9959 2c0b A1020000 		.4byte	0x2a1
 9960 2c0f 03       		.byte	0x3
ARM GAS  /tmp/ccvURch4.s 			page 178


 9961 2c10 48       		.uleb128 0x48
 9962 2c11 80040000 		.4byte	.LASF224
 9963 2c15 05       		.byte	0x5
 9964 2c16 6601     		.2byte	0x166
 9965 2c18 14       		.byte	0x14
 9966 2c19 03       		.byte	0x3
 9967 2c1a 2E2C0000 		.4byte	0x2c2e
 9968 2c1e 49       		.uleb128 0x49
 9969 2c1f E6000000 		.4byte	.LASF266
 9970 2c23 3E2C0000 		.4byte	0x2c3e
 9971 2c27 05       		.uleb128 0x5
 9972 2c28 03       		.byte	0x3
 9973 2c29 00000000 		.4byte	__func__.7261
 9974 2c2d 00       		.byte	0
 9975 2c2e 18       		.uleb128 0x18
 9976 2c2f 1E090000 		.4byte	0x91e
 9977 2c33 3E2C0000 		.4byte	0x2c3e
 9978 2c37 19       		.uleb128 0x19
 9979 2c38 38000000 		.4byte	0x38
 9980 2c3c 0B       		.byte	0xb
 9981 2c3d 00       		.byte	0
 9982 2c3e 0F       		.uleb128 0xf
 9983 2c3f 2E2C0000 		.4byte	0x2c2e
 9984 2c43 4A       		.uleb128 0x4a
 9985 2c44 A6040000 		.4byte	.LASF221
 9986 2c48 05       		.byte	0x5
 9987 2c49 5A01     		.2byte	0x15a
 9988 2c4b 14       		.byte	0x14
 9989 2c4c 03       		.byte	0x3
 9990 2c4d 4A       		.uleb128 0x4a
 9991 2c4e EC010000 		.4byte	.LASF222
 9992 2c52 06       		.byte	0x6
 9993 2c53 CA01     		.2byte	0x1ca
 9994 2c55 14       		.byte	0x14
 9995 2c56 03       		.byte	0x3
 9996 2c57 4A       		.uleb128 0x4a
 9997 2c58 44090000 		.4byte	.LASF223
 9998 2c5c 06       		.byte	0x6
 9999 2c5d BC01     		.2byte	0x1bc
 10000 2c5f 14       		.byte	0x14
 10001 2c60 03       		.byte	0x3
 10002 2c61 48       		.uleb128 0x48
 10003 2c62 C9080000 		.4byte	.LASF225
 10004 2c66 04       		.byte	0x4
 10005 2c67 2002     		.2byte	0x220
 10006 2c69 39       		.byte	0x39
 10007 2c6a 03       		.byte	0x3
 10008 2c6b 7D2C0000 		.4byte	0x2c7d
 10009 2c6f 4B       		.uleb128 0x4b
 10010 2c70 69030000 		.4byte	.LASF226
 10011 2c74 04       		.byte	0x4
 10012 2c75 2002     		.2byte	0x220
 10013 2c77 50       		.byte	0x50
 10014 2c78 99000000 		.4byte	0x99
 10015 2c7c 00       		.byte	0
 10016 2c7d 4C       		.uleb128 0x4c
 10017 2c7e 0C020000 		.4byte	.LASF227
ARM GAS  /tmp/ccvURch4.s 			page 179


 10018 2c82 0C020000 		.4byte	.LASF227
 10019 2c86 16       		.byte	0x16
 10020 2c87 56       		.byte	0x56
 10021 2c88 08       		.byte	0x8
 10022 2c89 4C       		.uleb128 0x4c
 10023 2c8a EA090000 		.4byte	.LASF228
 10024 2c8e EA090000 		.4byte	.LASF228
 10025 2c92 16       		.byte	0x16
 10026 2c93 55       		.byte	0x55
 10027 2c94 08       		.byte	0x8
 10028 2c95 4C       		.uleb128 0x4c
 10029 2c96 C6090000 		.4byte	.LASF229
 10030 2c9a C6090000 		.4byte	.LASF229
 10031 2c9e 16       		.byte	0x16
 10032 2c9f 57       		.byte	0x57
 10033 2ca0 08       		.byte	0x8
 10034 2ca1 4D       		.uleb128 0x4d
 10035 2ca2 C5050000 		.4byte	.LASF267
 10036 2ca6 C5050000 		.4byte	.LASF267
 10037 2caa 4C       		.uleb128 0x4c
 10038 2cab 85060000 		.4byte	.LASF230
 10039 2caf 85060000 		.4byte	.LASF230
 10040 2cb3 16       		.byte	0x16
 10041 2cb4 5F       		.byte	0x5f
 10042 2cb5 0D       		.byte	0xd
 10043 2cb6 4C       		.uleb128 0x4c
 10044 2cb7 74030000 		.4byte	.LASF231
 10045 2cbb 74030000 		.4byte	.LASF231
 10046 2cbf 16       		.byte	0x16
 10047 2cc0 60       		.byte	0x60
 10048 2cc1 08       		.byte	0x8
 10049 2cc2 4C       		.uleb128 0x4c
 10050 2cc3 48060000 		.4byte	.LASF232
 10051 2cc7 48060000 		.4byte	.LASF232
 10052 2ccb 14       		.byte	0x14
 10053 2ccc 68       		.byte	0x68
 10054 2ccd 08       		.byte	0x8
 10055 2cce 4C       		.uleb128 0x4c
 10056 2ccf 00020000 		.4byte	.LASF233
 10057 2cd3 00020000 		.4byte	.LASF233
 10058 2cd7 14       		.byte	0x14
 10059 2cd8 6C       		.byte	0x6c
 10060 2cd9 08       		.byte	0x8
 10061 2cda 4C       		.uleb128 0x4c
 10062 2cdb 840C0000 		.4byte	.LASF234
 10063 2cdf 840C0000 		.4byte	.LASF234
 10064 2ce3 14       		.byte	0x14
 10065 2ce4 67       		.byte	0x67
 10066 2ce5 08       		.byte	0x8
 10067 2ce6 4C       		.uleb128 0x4c
 10068 2ce7 70000000 		.4byte	.LASF235
 10069 2ceb 70000000 		.4byte	.LASF235
 10070 2cef 13       		.byte	0x13
 10071 2cf0 5E       		.byte	0x5e
 10072 2cf1 09       		.byte	0x9
 10073 2cf2 4C       		.uleb128 0x4c
 10074 2cf3 B5040000 		.4byte	.LASF236
ARM GAS  /tmp/ccvURch4.s 			page 180


 10075 2cf7 B5040000 		.4byte	.LASF236
 10076 2cfb 13       		.byte	0x13
 10077 2cfc 62       		.byte	0x62
 10078 2cfd 08       		.byte	0x8
 10079 2cfe 4C       		.uleb128 0x4c
 10080 2cff D3090000 		.4byte	.LASF237
 10081 2d03 D3090000 		.4byte	.LASF237
 10082 2d07 13       		.byte	0x13
 10083 2d08 5B       		.byte	0x5b
 10084 2d09 08       		.byte	0x8
 10085 2d0a 4C       		.uleb128 0x4c
 10086 2d0b 5F080000 		.4byte	.LASF238
 10087 2d0f 5F080000 		.4byte	.LASF238
 10088 2d13 12       		.byte	0x12
 10089 2d14 4F       		.byte	0x4f
 10090 2d15 08       		.byte	0x8
 10091 2d16 4C       		.uleb128 0x4c
 10092 2d17 8E080000 		.4byte	.LASF239
 10093 2d1b 8E080000 		.4byte	.LASF239
 10094 2d1f 10       		.byte	0x10
 10095 2d20 D8       		.byte	0xd8
 10096 2d21 08       		.byte	0x8
 10097 2d22 4C       		.uleb128 0x4c
 10098 2d23 5B010000 		.4byte	.LASF240
 10099 2d27 5B010000 		.4byte	.LASF240
 10100 2d2b 10       		.byte	0x10
 10101 2d2c D9       		.byte	0xd9
 10102 2d2d 08       		.byte	0x8
 10103 2d2e 4C       		.uleb128 0x4c
 10104 2d2f 83020000 		.4byte	.LASF241
 10105 2d33 83020000 		.4byte	.LASF241
 10106 2d37 12       		.byte	0x12
 10107 2d38 50       		.byte	0x50
 10108 2d39 08       		.byte	0x8
 10109 2d3a 4E       		.uleb128 0x4e
 10110 2d3b F6090000 		.4byte	.LASF242
 10111 2d3f F6090000 		.4byte	.LASF242
 10112 2d43 05       		.byte	0x5
 10113 2d44 1601     		.2byte	0x116
 10114 2d46 08       		.byte	0x8
 10115 2d47 4C       		.uleb128 0x4c
 10116 2d48 85010000 		.4byte	.LASF243
 10117 2d4c 85010000 		.4byte	.LASF243
 10118 2d50 17       		.byte	0x17
 10119 2d51 BC       		.byte	0xbc
 10120 2d52 08       		.byte	0x8
 10121 2d53 4C       		.uleb128 0x4c
 10122 2d54 03010000 		.4byte	.LASF244
 10123 2d58 03010000 		.4byte	.LASF244
 10124 2d5c 17       		.byte	0x17
 10125 2d5d BE       		.byte	0xbe
 10126 2d5e 08       		.byte	0x8
 10127 2d5f 4C       		.uleb128 0x4c
 10128 2d60 CD060000 		.4byte	.LASF245
 10129 2d64 CD060000 		.4byte	.LASF245
 10130 2d68 07       		.byte	0x7
 10131 2d69 F2       		.byte	0xf2
ARM GAS  /tmp/ccvURch4.s 			page 181


 10132 2d6a 09       		.byte	0x9
 10133 2d6b 4C       		.uleb128 0x4c
 10134 2d6c 29010000 		.4byte	.LASF246
 10135 2d70 29010000 		.4byte	.LASF246
 10136 2d74 07       		.byte	0x7
 10137 2d75 EE       		.byte	0xee
 10138 2d76 08       		.byte	0x8
 10139 2d77 4C       		.uleb128 0x4c
 10140 2d78 9A0B0000 		.4byte	.LASF247
 10141 2d7c 9A0B0000 		.4byte	.LASF247
 10142 2d80 07       		.byte	0x7
 10143 2d81 F1       		.byte	0xf1
 10144 2d82 09       		.byte	0x9
 10145 2d83 4C       		.uleb128 0x4c
 10146 2d84 FF050000 		.4byte	.LASF248
 10147 2d88 FF050000 		.4byte	.LASF248
 10148 2d8c 03       		.byte	0x3
 10149 2d8d 89       		.byte	0x89
 10150 2d8e 0D       		.byte	0xd
 10151 2d8f 4C       		.uleb128 0x4c
 10152 2d90 DF030000 		.4byte	.LASF249
 10153 2d94 DF030000 		.4byte	.LASF249
 10154 2d98 03       		.byte	0x3
 10155 2d99 96       		.byte	0x96
 10156 2d9a 08       		.byte	0x8
 10157 2d9b 4C       		.uleb128 0x4c
 10158 2d9c 28090000 		.4byte	.LASF250
 10159 2da0 28090000 		.4byte	.LASF250
 10160 2da4 16       		.byte	0x16
 10161 2da5 5D       		.byte	0x5d
 10162 2da6 08       		.byte	0x8
 10163 2da7 4C       		.uleb128 0x4c
 10164 2da8 36060000 		.4byte	.LASF251
 10165 2dac 36060000 		.4byte	.LASF251
 10166 2db0 16       		.byte	0x16
 10167 2db1 5E       		.byte	0x5e
 10168 2db2 08       		.byte	0x8
 10169 2db3 4C       		.uleb128 0x4c
 10170 2db4 2E0A0000 		.4byte	.LASF252
 10171 2db8 2E0A0000 		.4byte	.LASF252
 10172 2dbc 03       		.byte	0x3
 10173 2dbd 99       		.byte	0x99
 10174 2dbe 08       		.byte	0x8
 10175 2dbf 4C       		.uleb128 0x4c
 10176 2dc0 23060000 		.4byte	.LASF253
 10177 2dc4 23060000 		.4byte	.LASF253
 10178 2dc8 13       		.byte	0x13
 10179 2dc9 5C       		.byte	0x5c
 10180 2dca 08       		.byte	0x8
 10181 2dcb 4C       		.uleb128 0x4c
 10182 2dcc C1010000 		.4byte	.LASF254
 10183 2dd0 C1010000 		.4byte	.LASF254
 10184 2dd4 03       		.byte	0x3
 10185 2dd5 9D       		.byte	0x9d
 10186 2dd6 09       		.byte	0x9
 10187 2dd7 4E       		.uleb128 0x4e
 10188 2dd8 4F030000 		.4byte	.LASF255
ARM GAS  /tmp/ccvURch4.s 			page 182


 10189 2ddc 4F030000 		.4byte	.LASF255
 10190 2de0 0C       		.byte	0xc
 10191 2de1 1602     		.2byte	0x216
 10192 2de3 08       		.byte	0x8
 10193 2de4 4E       		.uleb128 0x4e
 10194 2de5 31040000 		.4byte	.LASF256
 10195 2de9 31040000 		.4byte	.LASF256
 10196 2ded 0C       		.byte	0xc
 10197 2dee 1402     		.2byte	0x214
 10198 2df0 08       		.byte	0x8
 10199 2df1 4C       		.uleb128 0x4c
 10200 2df2 11060000 		.4byte	.LASF257
 10201 2df6 11060000 		.4byte	.LASF257
 10202 2dfa 02       		.byte	0x2
 10203 2dfb 3C       		.byte	0x3c
 10204 2dfc 09       		.byte	0x9
 10205 2dfd 4C       		.uleb128 0x4c
 10206 2dfe 190C0000 		.4byte	.LASF258
 10207 2e02 190C0000 		.4byte	.LASF258
 10208 2e06 02       		.byte	0x2
 10209 2e07 3D       		.byte	0x3d
 10210 2e08 0E       		.byte	0xe
 10211 2e09 4C       		.uleb128 0x4c
 10212 2e0a 4D000000 		.4byte	.LASF259
 10213 2e0e 4D000000 		.4byte	.LASF259
 10214 2e12 02       		.byte	0x2
 10215 2e13 3E       		.byte	0x3e
 10216 2e14 08       		.byte	0x8
 10217 2e15 4C       		.uleb128 0x4c
 10218 2e16 65020000 		.4byte	.LASF260
 10219 2e1a 65020000 		.4byte	.LASF260
 10220 2e1e 03       		.byte	0x3
 10221 2e1f 9A       		.byte	0x9a
 10222 2e20 08       		.byte	0x8
 10223 2e21 00       		.byte	0
 10224              		.section	.debug_abbrev,"",%progbits
 10225              	.Ldebug_abbrev0:
 10226 0000 01       		.uleb128 0x1
 10227 0001 11       		.uleb128 0x11
 10228 0002 01       		.byte	0x1
 10229 0003 25       		.uleb128 0x25
 10230 0004 0E       		.uleb128 0xe
 10231 0005 13       		.uleb128 0x13
 10232 0006 0B       		.uleb128 0xb
 10233 0007 03       		.uleb128 0x3
 10234 0008 0E       		.uleb128 0xe
 10235 0009 1B       		.uleb128 0x1b
 10236 000a 0E       		.uleb128 0xe
 10237 000b 55       		.uleb128 0x55
 10238 000c 17       		.uleb128 0x17
 10239 000d 11       		.uleb128 0x11
 10240 000e 01       		.uleb128 0x1
 10241 000f 10       		.uleb128 0x10
 10242 0010 17       		.uleb128 0x17
 10243 0011 00       		.byte	0
 10244 0012 00       		.byte	0
 10245 0013 02       		.uleb128 0x2
ARM GAS  /tmp/ccvURch4.s 			page 183


 10246 0014 24       		.uleb128 0x24
 10247 0015 00       		.byte	0
 10248 0016 0B       		.uleb128 0xb
 10249 0017 0B       		.uleb128 0xb
 10250 0018 3E       		.uleb128 0x3e
 10251 0019 0B       		.uleb128 0xb
 10252 001a 03       		.uleb128 0x3
 10253 001b 08       		.uleb128 0x8
 10254 001c 00       		.byte	0
 10255 001d 00       		.byte	0
 10256 001e 03       		.uleb128 0x3
 10257 001f 16       		.uleb128 0x16
 10258 0020 00       		.byte	0
 10259 0021 03       		.uleb128 0x3
 10260 0022 0E       		.uleb128 0xe
 10261 0023 3A       		.uleb128 0x3a
 10262 0024 0B       		.uleb128 0xb
 10263 0025 3B       		.uleb128 0x3b
 10264 0026 0B       		.uleb128 0xb
 10265 0027 39       		.uleb128 0x39
 10266 0028 0B       		.uleb128 0xb
 10267 0029 49       		.uleb128 0x49
 10268 002a 13       		.uleb128 0x13
 10269 002b 00       		.byte	0
 10270 002c 00       		.byte	0
 10271 002d 04       		.uleb128 0x4
 10272 002e 24       		.uleb128 0x24
 10273 002f 00       		.byte	0
 10274 0030 0B       		.uleb128 0xb
 10275 0031 0B       		.uleb128 0xb
 10276 0032 3E       		.uleb128 0x3e
 10277 0033 0B       		.uleb128 0xb
 10278 0034 03       		.uleb128 0x3
 10279 0035 0E       		.uleb128 0xe
 10280 0036 00       		.byte	0
 10281 0037 00       		.byte	0
 10282 0038 05       		.uleb128 0x5
 10283 0039 35       		.uleb128 0x35
 10284 003a 00       		.byte	0
 10285 003b 49       		.uleb128 0x49
 10286 003c 13       		.uleb128 0x13
 10287 003d 00       		.byte	0
 10288 003e 00       		.byte	0
 10289 003f 06       		.uleb128 0x6
 10290 0040 13       		.uleb128 0x13
 10291 0041 01       		.byte	0x1
 10292 0042 03       		.uleb128 0x3
 10293 0043 0E       		.uleb128 0xe
 10294 0044 0B       		.uleb128 0xb
 10295 0045 0B       		.uleb128 0xb
 10296 0046 3A       		.uleb128 0x3a
 10297 0047 0B       		.uleb128 0xb
 10298 0048 3B       		.uleb128 0x3b
 10299 0049 0B       		.uleb128 0xb
 10300 004a 39       		.uleb128 0x39
 10301 004b 0B       		.uleb128 0xb
 10302 004c 01       		.uleb128 0x1
ARM GAS  /tmp/ccvURch4.s 			page 184


 10303 004d 13       		.uleb128 0x13
 10304 004e 00       		.byte	0
 10305 004f 00       		.byte	0
 10306 0050 07       		.uleb128 0x7
 10307 0051 0D       		.uleb128 0xd
 10308 0052 00       		.byte	0
 10309 0053 03       		.uleb128 0x3
 10310 0054 0E       		.uleb128 0xe
 10311 0055 3A       		.uleb128 0x3a
 10312 0056 0B       		.uleb128 0xb
 10313 0057 3B       		.uleb128 0x3b
 10314 0058 0B       		.uleb128 0xb
 10315 0059 39       		.uleb128 0x39
 10316 005a 0B       		.uleb128 0xb
 10317 005b 49       		.uleb128 0x49
 10318 005c 13       		.uleb128 0x13
 10319 005d 38       		.uleb128 0x38
 10320 005e 0B       		.uleb128 0xb
 10321 005f 00       		.byte	0
 10322 0060 00       		.byte	0
 10323 0061 08       		.uleb128 0x8
 10324 0062 0D       		.uleb128 0xd
 10325 0063 00       		.byte	0
 10326 0064 03       		.uleb128 0x3
 10327 0065 08       		.uleb128 0x8
 10328 0066 3A       		.uleb128 0x3a
 10329 0067 0B       		.uleb128 0xb
 10330 0068 3B       		.uleb128 0x3b
 10331 0069 05       		.uleb128 0x5
 10332 006a 39       		.uleb128 0x39
 10333 006b 0B       		.uleb128 0xb
 10334 006c 49       		.uleb128 0x49
 10335 006d 13       		.uleb128 0x13
 10336 006e 38       		.uleb128 0x38
 10337 006f 0B       		.uleb128 0xb
 10338 0070 00       		.byte	0
 10339 0071 00       		.byte	0
 10340 0072 09       		.uleb128 0x9
 10341 0073 0D       		.uleb128 0xd
 10342 0074 00       		.byte	0
 10343 0075 03       		.uleb128 0x3
 10344 0076 0E       		.uleb128 0xe
 10345 0077 3A       		.uleb128 0x3a
 10346 0078 0B       		.uleb128 0xb
 10347 0079 3B       		.uleb128 0x3b
 10348 007a 05       		.uleb128 0x5
 10349 007b 39       		.uleb128 0x39
 10350 007c 0B       		.uleb128 0xb
 10351 007d 49       		.uleb128 0x49
 10352 007e 13       		.uleb128 0x13
 10353 007f 38       		.uleb128 0x38
 10354 0080 0B       		.uleb128 0xb
 10355 0081 00       		.byte	0
 10356 0082 00       		.byte	0
 10357 0083 0A       		.uleb128 0xa
 10358 0084 0F       		.uleb128 0xf
 10359 0085 00       		.byte	0
ARM GAS  /tmp/ccvURch4.s 			page 185


 10360 0086 0B       		.uleb128 0xb
 10361 0087 0B       		.uleb128 0xb
 10362 0088 49       		.uleb128 0x49
 10363 0089 13       		.uleb128 0x13
 10364 008a 00       		.byte	0
 10365 008b 00       		.byte	0
 10366 008c 0B       		.uleb128 0xb
 10367 008d 13       		.uleb128 0x13
 10368 008e 01       		.byte	0x1
 10369 008f 03       		.uleb128 0x3
 10370 0090 0E       		.uleb128 0xe
 10371 0091 0B       		.uleb128 0xb
 10372 0092 0B       		.uleb128 0xb
 10373 0093 3A       		.uleb128 0x3a
 10374 0094 0B       		.uleb128 0xb
 10375 0095 3B       		.uleb128 0x3b
 10376 0096 05       		.uleb128 0x5
 10377 0097 39       		.uleb128 0x39
 10378 0098 0B       		.uleb128 0xb
 10379 0099 01       		.uleb128 0x1
 10380 009a 13       		.uleb128 0x13
 10381 009b 00       		.byte	0
 10382 009c 00       		.byte	0
 10383 009d 0C       		.uleb128 0xc
 10384 009e 15       		.uleb128 0x15
 10385 009f 01       		.byte	0x1
 10386 00a0 27       		.uleb128 0x27
 10387 00a1 19       		.uleb128 0x19
 10388 00a2 01       		.uleb128 0x1
 10389 00a3 13       		.uleb128 0x13
 10390 00a4 00       		.byte	0
 10391 00a5 00       		.byte	0
 10392 00a6 0D       		.uleb128 0xd
 10393 00a7 05       		.uleb128 0x5
 10394 00a8 00       		.byte	0
 10395 00a9 49       		.uleb128 0x49
 10396 00aa 13       		.uleb128 0x13
 10397 00ab 00       		.byte	0
 10398 00ac 00       		.byte	0
 10399 00ad 0E       		.uleb128 0xe
 10400 00ae 0F       		.uleb128 0xf
 10401 00af 00       		.byte	0
 10402 00b0 0B       		.uleb128 0xb
 10403 00b1 0B       		.uleb128 0xb
 10404 00b2 00       		.byte	0
 10405 00b3 00       		.byte	0
 10406 00b4 0F       		.uleb128 0xf
 10407 00b5 26       		.uleb128 0x26
 10408 00b6 00       		.byte	0
 10409 00b7 49       		.uleb128 0x49
 10410 00b8 13       		.uleb128 0x13
 10411 00b9 00       		.byte	0
 10412 00ba 00       		.byte	0
 10413 00bb 10       		.uleb128 0x10
 10414 00bc 13       		.uleb128 0x13
 10415 00bd 01       		.byte	0x1
 10416 00be 03       		.uleb128 0x3
ARM GAS  /tmp/ccvURch4.s 			page 186


 10417 00bf 0E       		.uleb128 0xe
 10418 00c0 0B       		.uleb128 0xb
 10419 00c1 05       		.uleb128 0x5
 10420 00c2 3A       		.uleb128 0x3a
 10421 00c3 0B       		.uleb128 0xb
 10422 00c4 3B       		.uleb128 0x3b
 10423 00c5 05       		.uleb128 0x5
 10424 00c6 39       		.uleb128 0x39
 10425 00c7 0B       		.uleb128 0xb
 10426 00c8 01       		.uleb128 0x1
 10427 00c9 13       		.uleb128 0x13
 10428 00ca 00       		.byte	0
 10429 00cb 00       		.byte	0
 10430 00cc 11       		.uleb128 0x11
 10431 00cd 0D       		.uleb128 0xd
 10432 00ce 00       		.byte	0
 10433 00cf 03       		.uleb128 0x3
 10434 00d0 0E       		.uleb128 0xe
 10435 00d1 3A       		.uleb128 0x3a
 10436 00d2 0B       		.uleb128 0xb
 10437 00d3 3B       		.uleb128 0x3b
 10438 00d4 05       		.uleb128 0x5
 10439 00d5 39       		.uleb128 0x39
 10440 00d6 0B       		.uleb128 0xb
 10441 00d7 49       		.uleb128 0x49
 10442 00d8 13       		.uleb128 0x13
 10443 00d9 38       		.uleb128 0x38
 10444 00da 05       		.uleb128 0x5
 10445 00db 00       		.byte	0
 10446 00dc 00       		.byte	0
 10447 00dd 12       		.uleb128 0x12
 10448 00de 0D       		.uleb128 0xd
 10449 00df 00       		.byte	0
 10450 00e0 03       		.uleb128 0x3
 10451 00e1 08       		.uleb128 0x8
 10452 00e2 3A       		.uleb128 0x3a
 10453 00e3 0B       		.uleb128 0xb
 10454 00e4 3B       		.uleb128 0x3b
 10455 00e5 05       		.uleb128 0x5
 10456 00e6 39       		.uleb128 0x39
 10457 00e7 0B       		.uleb128 0xb
 10458 00e8 49       		.uleb128 0x49
 10459 00e9 13       		.uleb128 0x13
 10460 00ea 38       		.uleb128 0x38
 10461 00eb 05       		.uleb128 0x5
 10462 00ec 00       		.byte	0
 10463 00ed 00       		.byte	0
 10464 00ee 13       		.uleb128 0x13
 10465 00ef 34       		.uleb128 0x34
 10466 00f0 00       		.byte	0
 10467 00f1 03       		.uleb128 0x3
 10468 00f2 0E       		.uleb128 0xe
 10469 00f3 3A       		.uleb128 0x3a
 10470 00f4 0B       		.uleb128 0xb
 10471 00f5 3B       		.uleb128 0x3b
 10472 00f6 05       		.uleb128 0x5
 10473 00f7 39       		.uleb128 0x39
ARM GAS  /tmp/ccvURch4.s 			page 187


 10474 00f8 0B       		.uleb128 0xb
 10475 00f9 49       		.uleb128 0x49
 10476 00fa 13       		.uleb128 0x13
 10477 00fb 3F       		.uleb128 0x3f
 10478 00fc 19       		.uleb128 0x19
 10479 00fd 3C       		.uleb128 0x3c
 10480 00fe 19       		.uleb128 0x19
 10481 00ff 00       		.byte	0
 10482 0100 00       		.byte	0
 10483 0101 14       		.uleb128 0x14
 10484 0102 34       		.uleb128 0x34
 10485 0103 00       		.byte	0
 10486 0104 03       		.uleb128 0x3
 10487 0105 0E       		.uleb128 0xe
 10488 0106 3A       		.uleb128 0x3a
 10489 0107 0B       		.uleb128 0xb
 10490 0108 3B       		.uleb128 0x3b
 10491 0109 0B       		.uleb128 0xb
 10492 010a 39       		.uleb128 0x39
 10493 010b 0B       		.uleb128 0xb
 10494 010c 49       		.uleb128 0x49
 10495 010d 13       		.uleb128 0x13
 10496 010e 3F       		.uleb128 0x3f
 10497 010f 19       		.uleb128 0x19
 10498 0110 3C       		.uleb128 0x3c
 10499 0111 19       		.uleb128 0x19
 10500 0112 00       		.byte	0
 10501 0113 00       		.byte	0
 10502 0114 15       		.uleb128 0x15
 10503 0115 0D       		.uleb128 0xd
 10504 0116 00       		.byte	0
 10505 0117 03       		.uleb128 0x3
 10506 0118 08       		.uleb128 0x8
 10507 0119 3A       		.uleb128 0x3a
 10508 011a 0B       		.uleb128 0xb
 10509 011b 3B       		.uleb128 0x3b
 10510 011c 0B       		.uleb128 0xb
 10511 011d 39       		.uleb128 0x39
 10512 011e 0B       		.uleb128 0xb
 10513 011f 49       		.uleb128 0x49
 10514 0120 13       		.uleb128 0x13
 10515 0121 38       		.uleb128 0x38
 10516 0122 0B       		.uleb128 0xb
 10517 0123 00       		.byte	0
 10518 0124 00       		.byte	0
 10519 0125 16       		.uleb128 0x16
 10520 0126 13       		.uleb128 0x13
 10521 0127 01       		.byte	0x1
 10522 0128 0B       		.uleb128 0xb
 10523 0129 0B       		.uleb128 0xb
 10524 012a 3A       		.uleb128 0x3a
 10525 012b 0B       		.uleb128 0xb
 10526 012c 3B       		.uleb128 0x3b
 10527 012d 0B       		.uleb128 0xb
 10528 012e 39       		.uleb128 0x39
 10529 012f 0B       		.uleb128 0xb
 10530 0130 01       		.uleb128 0x1
ARM GAS  /tmp/ccvURch4.s 			page 188


 10531 0131 13       		.uleb128 0x13
 10532 0132 00       		.byte	0
 10533 0133 00       		.byte	0
 10534 0134 17       		.uleb128 0x17
 10535 0135 13       		.uleb128 0x13
 10536 0136 01       		.byte	0x1
 10537 0137 0B       		.uleb128 0xb
 10538 0138 05       		.uleb128 0x5
 10539 0139 3A       		.uleb128 0x3a
 10540 013a 0B       		.uleb128 0xb
 10541 013b 3B       		.uleb128 0x3b
 10542 013c 0B       		.uleb128 0xb
 10543 013d 39       		.uleb128 0x39
 10544 013e 0B       		.uleb128 0xb
 10545 013f 01       		.uleb128 0x1
 10546 0140 13       		.uleb128 0x13
 10547 0141 00       		.byte	0
 10548 0142 00       		.byte	0
 10549 0143 18       		.uleb128 0x18
 10550 0144 01       		.uleb128 0x1
 10551 0145 01       		.byte	0x1
 10552 0146 49       		.uleb128 0x49
 10553 0147 13       		.uleb128 0x13
 10554 0148 01       		.uleb128 0x1
 10555 0149 13       		.uleb128 0x13
 10556 014a 00       		.byte	0
 10557 014b 00       		.byte	0
 10558 014c 19       		.uleb128 0x19
 10559 014d 21       		.uleb128 0x21
 10560 014e 00       		.byte	0
 10561 014f 49       		.uleb128 0x49
 10562 0150 13       		.uleb128 0x13
 10563 0151 2F       		.uleb128 0x2f
 10564 0152 0B       		.uleb128 0xb
 10565 0153 00       		.byte	0
 10566 0154 00       		.byte	0
 10567 0155 1A       		.uleb128 0x1a
 10568 0156 17       		.uleb128 0x17
 10569 0157 01       		.byte	0x1
 10570 0158 0B       		.uleb128 0xb
 10571 0159 0B       		.uleb128 0xb
 10572 015a 3A       		.uleb128 0x3a
 10573 015b 0B       		.uleb128 0xb
 10574 015c 3B       		.uleb128 0x3b
 10575 015d 0B       		.uleb128 0xb
 10576 015e 39       		.uleb128 0x39
 10577 015f 0B       		.uleb128 0xb
 10578 0160 01       		.uleb128 0x1
 10579 0161 13       		.uleb128 0x13
 10580 0162 00       		.byte	0
 10581 0163 00       		.byte	0
 10582 0164 1B       		.uleb128 0x1b
 10583 0165 0D       		.uleb128 0xd
 10584 0166 00       		.byte	0
 10585 0167 03       		.uleb128 0x3
 10586 0168 0E       		.uleb128 0xe
 10587 0169 3A       		.uleb128 0x3a
ARM GAS  /tmp/ccvURch4.s 			page 189


 10588 016a 0B       		.uleb128 0xb
 10589 016b 3B       		.uleb128 0x3b
 10590 016c 05       		.uleb128 0x5
 10591 016d 39       		.uleb128 0x39
 10592 016e 0B       		.uleb128 0xb
 10593 016f 49       		.uleb128 0x49
 10594 0170 13       		.uleb128 0x13
 10595 0171 00       		.byte	0
 10596 0172 00       		.byte	0
 10597 0173 1C       		.uleb128 0x1c
 10598 0174 34       		.uleb128 0x34
 10599 0175 00       		.byte	0
 10600 0176 03       		.uleb128 0x3
 10601 0177 08       		.uleb128 0x8
 10602 0178 3A       		.uleb128 0x3a
 10603 0179 0B       		.uleb128 0xb
 10604 017a 3B       		.uleb128 0x3b
 10605 017b 05       		.uleb128 0x5
 10606 017c 39       		.uleb128 0x39
 10607 017d 0B       		.uleb128 0xb
 10608 017e 49       		.uleb128 0x49
 10609 017f 13       		.uleb128 0x13
 10610 0180 3F       		.uleb128 0x3f
 10611 0181 19       		.uleb128 0x19
 10612 0182 3C       		.uleb128 0x3c
 10613 0183 19       		.uleb128 0x19
 10614 0184 00       		.byte	0
 10615 0185 00       		.byte	0
 10616 0186 1D       		.uleb128 0x1d
 10617 0187 15       		.uleb128 0x15
 10618 0188 00       		.byte	0
 10619 0189 27       		.uleb128 0x27
 10620 018a 19       		.uleb128 0x19
 10621 018b 00       		.byte	0
 10622 018c 00       		.byte	0
 10623 018d 1E       		.uleb128 0x1e
 10624 018e 0D       		.uleb128 0xd
 10625 018f 00       		.byte	0
 10626 0190 03       		.uleb128 0x3
 10627 0191 08       		.uleb128 0x8
 10628 0192 3A       		.uleb128 0x3a
 10629 0193 0B       		.uleb128 0xb
 10630 0194 3B       		.uleb128 0x3b
 10631 0195 0B       		.uleb128 0xb
 10632 0196 39       		.uleb128 0x39
 10633 0197 0B       		.uleb128 0xb
 10634 0198 49       		.uleb128 0x49
 10635 0199 13       		.uleb128 0x13
 10636 019a 38       		.uleb128 0x38
 10637 019b 05       		.uleb128 0x5
 10638 019c 00       		.byte	0
 10639 019d 00       		.byte	0
 10640 019e 1F       		.uleb128 0x1f
 10641 019f 17       		.uleb128 0x17
 10642 01a0 01       		.byte	0x1
 10643 01a1 03       		.uleb128 0x3
 10644 01a2 0E       		.uleb128 0xe
ARM GAS  /tmp/ccvURch4.s 			page 190


 10645 01a3 0B       		.uleb128 0xb
 10646 01a4 05       		.uleb128 0x5
 10647 01a5 3A       		.uleb128 0x3a
 10648 01a6 0B       		.uleb128 0xb
 10649 01a7 3B       		.uleb128 0x3b
 10650 01a8 0B       		.uleb128 0xb
 10651 01a9 39       		.uleb128 0x39
 10652 01aa 0B       		.uleb128 0xb
 10653 01ab 01       		.uleb128 0x1
 10654 01ac 13       		.uleb128 0x13
 10655 01ad 00       		.byte	0
 10656 01ae 00       		.byte	0
 10657 01af 20       		.uleb128 0x20
 10658 01b0 0D       		.uleb128 0xd
 10659 01b1 00       		.byte	0
 10660 01b2 03       		.uleb128 0x3
 10661 01b3 08       		.uleb128 0x8
 10662 01b4 3A       		.uleb128 0x3a
 10663 01b5 0B       		.uleb128 0xb
 10664 01b6 3B       		.uleb128 0x3b
 10665 01b7 0B       		.uleb128 0xb
 10666 01b8 39       		.uleb128 0x39
 10667 01b9 0B       		.uleb128 0xb
 10668 01ba 49       		.uleb128 0x49
 10669 01bb 13       		.uleb128 0x13
 10670 01bc 00       		.byte	0
 10671 01bd 00       		.byte	0
 10672 01be 21       		.uleb128 0x21
 10673 01bf 0D       		.uleb128 0xd
 10674 01c0 00       		.byte	0
 10675 01c1 03       		.uleb128 0x3
 10676 01c2 0E       		.uleb128 0xe
 10677 01c3 3A       		.uleb128 0x3a
 10678 01c4 0B       		.uleb128 0xb
 10679 01c5 3B       		.uleb128 0x3b
 10680 01c6 0B       		.uleb128 0xb
 10681 01c7 39       		.uleb128 0x39
 10682 01c8 0B       		.uleb128 0xb
 10683 01c9 49       		.uleb128 0x49
 10684 01ca 13       		.uleb128 0x13
 10685 01cb 00       		.byte	0
 10686 01cc 00       		.byte	0
 10687 01cd 22       		.uleb128 0x22
 10688 01ce 21       		.uleb128 0x21
 10689 01cf 00       		.byte	0
 10690 01d0 49       		.uleb128 0x49
 10691 01d1 13       		.uleb128 0x13
 10692 01d2 2F       		.uleb128 0x2f
 10693 01d3 05       		.uleb128 0x5
 10694 01d4 00       		.byte	0
 10695 01d5 00       		.byte	0
 10696 01d6 23       		.uleb128 0x23
 10697 01d7 21       		.uleb128 0x21
 10698 01d8 00       		.byte	0
 10699 01d9 00       		.byte	0
 10700 01da 00       		.byte	0
 10701 01db 24       		.uleb128 0x24
ARM GAS  /tmp/ccvURch4.s 			page 191


 10702 01dc 34       		.uleb128 0x34
 10703 01dd 00       		.byte	0
 10704 01de 03       		.uleb128 0x3
 10705 01df 08       		.uleb128 0x8
 10706 01e0 3A       		.uleb128 0x3a
 10707 01e1 0B       		.uleb128 0xb
 10708 01e2 3B       		.uleb128 0x3b
 10709 01e3 0B       		.uleb128 0xb
 10710 01e4 39       		.uleb128 0x39
 10711 01e5 0B       		.uleb128 0xb
 10712 01e6 49       		.uleb128 0x49
 10713 01e7 13       		.uleb128 0x13
 10714 01e8 3F       		.uleb128 0x3f
 10715 01e9 19       		.uleb128 0x19
 10716 01ea 3C       		.uleb128 0x3c
 10717 01eb 19       		.uleb128 0x19
 10718 01ec 00       		.byte	0
 10719 01ed 00       		.byte	0
 10720 01ee 25       		.uleb128 0x25
 10721 01ef 34       		.uleb128 0x34
 10722 01f0 00       		.byte	0
 10723 01f1 03       		.uleb128 0x3
 10724 01f2 0E       		.uleb128 0xe
 10725 01f3 3A       		.uleb128 0x3a
 10726 01f4 0B       		.uleb128 0xb
 10727 01f5 3B       		.uleb128 0x3b
 10728 01f6 0B       		.uleb128 0xb
 10729 01f7 39       		.uleb128 0x39
 10730 01f8 0B       		.uleb128 0xb
 10731 01f9 49       		.uleb128 0x49
 10732 01fa 13       		.uleb128 0x13
 10733 01fb 02       		.uleb128 0x2
 10734 01fc 18       		.uleb128 0x18
 10735 01fd 00       		.byte	0
 10736 01fe 00       		.byte	0
 10737 01ff 26       		.uleb128 0x26
 10738 0200 34       		.uleb128 0x34
 10739 0201 00       		.byte	0
 10740 0202 03       		.uleb128 0x3
 10741 0203 0E       		.uleb128 0xe
 10742 0204 3A       		.uleb128 0x3a
 10743 0205 0B       		.uleb128 0xb
 10744 0206 3B       		.uleb128 0x3b
 10745 0207 0B       		.uleb128 0xb
 10746 0208 39       		.uleb128 0x39
 10747 0209 0B       		.uleb128 0xb
 10748 020a 49       		.uleb128 0x49
 10749 020b 13       		.uleb128 0x13
 10750 020c 3F       		.uleb128 0x3f
 10751 020d 19       		.uleb128 0x19
 10752 020e 02       		.uleb128 0x2
 10753 020f 18       		.uleb128 0x18
 10754 0210 00       		.byte	0
 10755 0211 00       		.byte	0
 10756 0212 27       		.uleb128 0x27
 10757 0213 34       		.uleb128 0x34
 10758 0214 00       		.byte	0
ARM GAS  /tmp/ccvURch4.s 			page 192


 10759 0215 03       		.uleb128 0x3
 10760 0216 0E       		.uleb128 0xe
 10761 0217 3A       		.uleb128 0x3a
 10762 0218 0B       		.uleb128 0xb
 10763 0219 3B       		.uleb128 0x3b
 10764 021a 05       		.uleb128 0x5
 10765 021b 39       		.uleb128 0x39
 10766 021c 0B       		.uleb128 0xb
 10767 021d 49       		.uleb128 0x49
 10768 021e 13       		.uleb128 0x13
 10769 021f 3F       		.uleb128 0x3f
 10770 0220 19       		.uleb128 0x19
 10771 0221 02       		.uleb128 0x2
 10772 0222 18       		.uleb128 0x18
 10773 0223 00       		.byte	0
 10774 0224 00       		.byte	0
 10775 0225 28       		.uleb128 0x28
 10776 0226 2E       		.uleb128 0x2e
 10777 0227 01       		.byte	0x1
 10778 0228 03       		.uleb128 0x3
 10779 0229 0E       		.uleb128 0xe
 10780 022a 3A       		.uleb128 0x3a
 10781 022b 0B       		.uleb128 0xb
 10782 022c 3B       		.uleb128 0x3b
 10783 022d 05       		.uleb128 0x5
 10784 022e 39       		.uleb128 0x39
 10785 022f 0B       		.uleb128 0xb
 10786 0230 27       		.uleb128 0x27
 10787 0231 19       		.uleb128 0x19
 10788 0232 11       		.uleb128 0x11
 10789 0233 01       		.uleb128 0x1
 10790 0234 12       		.uleb128 0x12
 10791 0235 06       		.uleb128 0x6
 10792 0236 40       		.uleb128 0x40
 10793 0237 18       		.uleb128 0x18
 10794 0238 9742     		.uleb128 0x2117
 10795 023a 19       		.uleb128 0x19
 10796 023b 01       		.uleb128 0x1
 10797 023c 13       		.uleb128 0x13
 10798 023d 00       		.byte	0
 10799 023e 00       		.byte	0
 10800 023f 29       		.uleb128 0x29
 10801 0240 898201   		.uleb128 0x4109
 10802 0243 01       		.byte	0x1
 10803 0244 11       		.uleb128 0x11
 10804 0245 01       		.uleb128 0x1
 10805 0246 31       		.uleb128 0x31
 10806 0247 13       		.uleb128 0x13
 10807 0248 01       		.uleb128 0x1
 10808 0249 13       		.uleb128 0x13
 10809 024a 00       		.byte	0
 10810 024b 00       		.byte	0
 10811 024c 2A       		.uleb128 0x2a
 10812 024d 8A8201   		.uleb128 0x410a
 10813 0250 00       		.byte	0
 10814 0251 02       		.uleb128 0x2
 10815 0252 18       		.uleb128 0x18
ARM GAS  /tmp/ccvURch4.s 			page 193


 10816 0253 9142     		.uleb128 0x2111
 10817 0255 18       		.uleb128 0x18
 10818 0256 00       		.byte	0
 10819 0257 00       		.byte	0
 10820 0258 2B       		.uleb128 0x2b
 10821 0259 898201   		.uleb128 0x4109
 10822 025c 01       		.byte	0x1
 10823 025d 11       		.uleb128 0x11
 10824 025e 01       		.uleb128 0x1
 10825 025f 9542     		.uleb128 0x2115
 10826 0261 19       		.uleb128 0x19
 10827 0262 31       		.uleb128 0x31
 10828 0263 13       		.uleb128 0x13
 10829 0264 01       		.uleb128 0x1
 10830 0265 13       		.uleb128 0x13
 10831 0266 00       		.byte	0
 10832 0267 00       		.byte	0
 10833 0268 2C       		.uleb128 0x2c
 10834 0269 898201   		.uleb128 0x4109
 10835 026c 00       		.byte	0
 10836 026d 11       		.uleb128 0x11
 10837 026e 01       		.uleb128 0x1
 10838 026f 31       		.uleb128 0x31
 10839 0270 13       		.uleb128 0x13
 10840 0271 00       		.byte	0
 10841 0272 00       		.byte	0
 10842 0273 2D       		.uleb128 0x2d
 10843 0274 34       		.uleb128 0x34
 10844 0275 00       		.byte	0
 10845 0276 03       		.uleb128 0x3
 10846 0277 08       		.uleb128 0x8
 10847 0278 3A       		.uleb128 0x3a
 10848 0279 0B       		.uleb128 0xb
 10849 027a 3B       		.uleb128 0x3b
 10850 027b 05       		.uleb128 0x5
 10851 027c 39       		.uleb128 0x39
 10852 027d 0B       		.uleb128 0xb
 10853 027e 49       		.uleb128 0x49
 10854 027f 13       		.uleb128 0x13
 10855 0280 02       		.uleb128 0x2
 10856 0281 17       		.uleb128 0x17
 10857 0282 B742     		.uleb128 0x2137
 10858 0284 17       		.uleb128 0x17
 10859 0285 00       		.byte	0
 10860 0286 00       		.byte	0
 10861 0287 2E       		.uleb128 0x2e
 10862 0288 34       		.uleb128 0x34
 10863 0289 00       		.byte	0
 10864 028a 03       		.uleb128 0x3
 10865 028b 08       		.uleb128 0x8
 10866 028c 3A       		.uleb128 0x3a
 10867 028d 0B       		.uleb128 0xb
 10868 028e 3B       		.uleb128 0x3b
 10869 028f 05       		.uleb128 0x5
 10870 0290 39       		.uleb128 0x39
 10871 0291 0B       		.uleb128 0xb
 10872 0292 49       		.uleb128 0x49
ARM GAS  /tmp/ccvURch4.s 			page 194


 10873 0293 13       		.uleb128 0x13
 10874 0294 02       		.uleb128 0x2
 10875 0295 18       		.uleb128 0x18
 10876 0296 00       		.byte	0
 10877 0297 00       		.byte	0
 10878 0298 2F       		.uleb128 0x2f
 10879 0299 1D       		.uleb128 0x1d
 10880 029a 01       		.byte	0x1
 10881 029b 31       		.uleb128 0x31
 10882 029c 13       		.uleb128 0x13
 10883 029d 52       		.uleb128 0x52
 10884 029e 01       		.uleb128 0x1
 10885 029f B842     		.uleb128 0x2138
 10886 02a1 0B       		.uleb128 0xb
 10887 02a2 55       		.uleb128 0x55
 10888 02a3 17       		.uleb128 0x17
 10889 02a4 58       		.uleb128 0x58
 10890 02a5 0B       		.uleb128 0xb
 10891 02a6 59       		.uleb128 0x59
 10892 02a7 05       		.uleb128 0x5
 10893 02a8 57       		.uleb128 0x57
 10894 02a9 0B       		.uleb128 0xb
 10895 02aa 01       		.uleb128 0x1
 10896 02ab 13       		.uleb128 0x13
 10897 02ac 00       		.byte	0
 10898 02ad 00       		.byte	0
 10899 02ae 30       		.uleb128 0x30
 10900 02af 1D       		.uleb128 0x1d
 10901 02b0 01       		.byte	0x1
 10902 02b1 31       		.uleb128 0x31
 10903 02b2 13       		.uleb128 0x13
 10904 02b3 52       		.uleb128 0x52
 10905 02b4 01       		.uleb128 0x1
 10906 02b5 B842     		.uleb128 0x2138
 10907 02b7 0B       		.uleb128 0xb
 10908 02b8 55       		.uleb128 0x55
 10909 02b9 17       		.uleb128 0x17
 10910 02ba 58       		.uleb128 0x58
 10911 02bb 0B       		.uleb128 0xb
 10912 02bc 59       		.uleb128 0x59
 10913 02bd 05       		.uleb128 0x5
 10914 02be 57       		.uleb128 0x57
 10915 02bf 0B       		.uleb128 0xb
 10916 02c0 00       		.byte	0
 10917 02c1 00       		.byte	0
 10918 02c2 31       		.uleb128 0x31
 10919 02c3 05       		.uleb128 0x5
 10920 02c4 00       		.byte	0
 10921 02c5 31       		.uleb128 0x31
 10922 02c6 13       		.uleb128 0x13
 10923 02c7 02       		.uleb128 0x2
 10924 02c8 17       		.uleb128 0x17
 10925 02c9 B742     		.uleb128 0x2137
 10926 02cb 17       		.uleb128 0x17
 10927 02cc 00       		.byte	0
 10928 02cd 00       		.byte	0
 10929 02ce 32       		.uleb128 0x32
ARM GAS  /tmp/ccvURch4.s 			page 195


 10930 02cf 0B       		.uleb128 0xb
 10931 02d0 01       		.byte	0x1
 10932 02d1 55       		.uleb128 0x55
 10933 02d2 17       		.uleb128 0x17
 10934 02d3 00       		.byte	0
 10935 02d4 00       		.byte	0
 10936 02d5 33       		.uleb128 0x33
 10937 02d6 898201   		.uleb128 0x4109
 10938 02d9 01       		.byte	0x1
 10939 02da 11       		.uleb128 0x11
 10940 02db 01       		.uleb128 0x1
 10941 02dc 31       		.uleb128 0x31
 10942 02dd 13       		.uleb128 0x13
 10943 02de 00       		.byte	0
 10944 02df 00       		.byte	0
 10945 02e0 34       		.uleb128 0x34
 10946 02e1 2E       		.uleb128 0x2e
 10947 02e2 01       		.byte	0x1
 10948 02e3 03       		.uleb128 0x3
 10949 02e4 08       		.uleb128 0x8
 10950 02e5 3A       		.uleb128 0x3a
 10951 02e6 0B       		.uleb128 0xb
 10952 02e7 3B       		.uleb128 0x3b
 10953 02e8 05       		.uleb128 0x5
 10954 02e9 39       		.uleb128 0x39
 10955 02ea 0B       		.uleb128 0xb
 10956 02eb 27       		.uleb128 0x27
 10957 02ec 19       		.uleb128 0x19
 10958 02ed 11       		.uleb128 0x11
 10959 02ee 01       		.uleb128 0x1
 10960 02ef 12       		.uleb128 0x12
 10961 02f0 06       		.uleb128 0x6
 10962 02f1 40       		.uleb128 0x40
 10963 02f2 18       		.uleb128 0x18
 10964 02f3 9742     		.uleb128 0x2117
 10965 02f5 19       		.uleb128 0x19
 10966 02f6 01       		.uleb128 0x1
 10967 02f7 13       		.uleb128 0x13
 10968 02f8 00       		.byte	0
 10969 02f9 00       		.byte	0
 10970 02fa 35       		.uleb128 0x35
 10971 02fb 05       		.uleb128 0x5
 10972 02fc 00       		.byte	0
 10973 02fd 03       		.uleb128 0x3
 10974 02fe 0E       		.uleb128 0xe
 10975 02ff 3A       		.uleb128 0x3a
 10976 0300 0B       		.uleb128 0xb
 10977 0301 3B       		.uleb128 0x3b
 10978 0302 05       		.uleb128 0x5
 10979 0303 39       		.uleb128 0x39
 10980 0304 0B       		.uleb128 0xb
 10981 0305 49       		.uleb128 0x49
 10982 0306 13       		.uleb128 0x13
 10983 0307 02       		.uleb128 0x2
 10984 0308 17       		.uleb128 0x17
 10985 0309 B742     		.uleb128 0x2137
 10986 030b 17       		.uleb128 0x17
ARM GAS  /tmp/ccvURch4.s 			page 196


 10987 030c 00       		.byte	0
 10988 030d 00       		.byte	0
 10989 030e 36       		.uleb128 0x36
 10990 030f 1D       		.uleb128 0x1d
 10991 0310 01       		.byte	0x1
 10992 0311 31       		.uleb128 0x31
 10993 0312 13       		.uleb128 0x13
 10994 0313 52       		.uleb128 0x52
 10995 0314 01       		.uleb128 0x1
 10996 0315 B842     		.uleb128 0x2138
 10997 0317 0B       		.uleb128 0xb
 10998 0318 11       		.uleb128 0x11
 10999 0319 01       		.uleb128 0x1
 11000 031a 12       		.uleb128 0x12
 11001 031b 06       		.uleb128 0x6
 11002 031c 58       		.uleb128 0x58
 11003 031d 0B       		.uleb128 0xb
 11004 031e 59       		.uleb128 0x59
 11005 031f 05       		.uleb128 0x5
 11006 0320 57       		.uleb128 0x57
 11007 0321 0B       		.uleb128 0xb
 11008 0322 00       		.byte	0
 11009 0323 00       		.byte	0
 11010 0324 37       		.uleb128 0x37
 11011 0325 1D       		.uleb128 0x1d
 11012 0326 01       		.byte	0x1
 11013 0327 31       		.uleb128 0x31
 11014 0328 13       		.uleb128 0x13
 11015 0329 52       		.uleb128 0x52
 11016 032a 01       		.uleb128 0x1
 11017 032b B842     		.uleb128 0x2138
 11018 032d 0B       		.uleb128 0xb
 11019 032e 11       		.uleb128 0x11
 11020 032f 01       		.uleb128 0x1
 11021 0330 12       		.uleb128 0x12
 11022 0331 06       		.uleb128 0x6
 11023 0332 58       		.uleb128 0x58
 11024 0333 0B       		.uleb128 0xb
 11025 0334 59       		.uleb128 0x59
 11026 0335 05       		.uleb128 0x5
 11027 0336 57       		.uleb128 0x57
 11028 0337 0B       		.uleb128 0xb
 11029 0338 01       		.uleb128 0x1
 11030 0339 13       		.uleb128 0x13
 11031 033a 00       		.byte	0
 11032 033b 00       		.byte	0
 11033 033c 38       		.uleb128 0x38
 11034 033d 1D       		.uleb128 0x1d
 11035 033e 00       		.byte	0
 11036 033f 31       		.uleb128 0x31
 11037 0340 13       		.uleb128 0x13
 11038 0341 52       		.uleb128 0x52
 11039 0342 01       		.uleb128 0x1
 11040 0343 B842     		.uleb128 0x2138
 11041 0345 0B       		.uleb128 0xb
 11042 0346 55       		.uleb128 0x55
 11043 0347 17       		.uleb128 0x17
ARM GAS  /tmp/ccvURch4.s 			page 197


 11044 0348 58       		.uleb128 0x58
 11045 0349 0B       		.uleb128 0xb
 11046 034a 59       		.uleb128 0x59
 11047 034b 0B       		.uleb128 0xb
 11048 034c 57       		.uleb128 0x57
 11049 034d 0B       		.uleb128 0xb
 11050 034e 00       		.byte	0
 11051 034f 00       		.byte	0
 11052 0350 39       		.uleb128 0x39
 11053 0351 1D       		.uleb128 0x1d
 11054 0352 00       		.byte	0
 11055 0353 31       		.uleb128 0x31
 11056 0354 13       		.uleb128 0x13
 11057 0355 52       		.uleb128 0x52
 11058 0356 01       		.uleb128 0x1
 11059 0357 B842     		.uleb128 0x2138
 11060 0359 0B       		.uleb128 0xb
 11061 035a 11       		.uleb128 0x11
 11062 035b 01       		.uleb128 0x1
 11063 035c 12       		.uleb128 0x12
 11064 035d 06       		.uleb128 0x6
 11065 035e 58       		.uleb128 0x58
 11066 035f 0B       		.uleb128 0xb
 11067 0360 59       		.uleb128 0x59
 11068 0361 0B       		.uleb128 0xb
 11069 0362 57       		.uleb128 0x57
 11070 0363 0B       		.uleb128 0xb
 11071 0364 00       		.byte	0
 11072 0365 00       		.byte	0
 11073 0366 3A       		.uleb128 0x3a
 11074 0367 05       		.uleb128 0x5
 11075 0368 00       		.byte	0
 11076 0369 03       		.uleb128 0x3
 11077 036a 08       		.uleb128 0x8
 11078 036b 3A       		.uleb128 0x3a
 11079 036c 0B       		.uleb128 0xb
 11080 036d 3B       		.uleb128 0x3b
 11081 036e 05       		.uleb128 0x5
 11082 036f 39       		.uleb128 0x39
 11083 0370 0B       		.uleb128 0xb
 11084 0371 49       		.uleb128 0x49
 11085 0372 13       		.uleb128 0x13
 11086 0373 02       		.uleb128 0x2
 11087 0374 17       		.uleb128 0x17
 11088 0375 B742     		.uleb128 0x2137
 11089 0377 17       		.uleb128 0x17
 11090 0378 00       		.byte	0
 11091 0379 00       		.byte	0
 11092 037a 3B       		.uleb128 0x3b
 11093 037b 34       		.uleb128 0x34
 11094 037c 00       		.byte	0
 11095 037d 03       		.uleb128 0x3
 11096 037e 0E       		.uleb128 0xe
 11097 037f 3A       		.uleb128 0x3a
 11098 0380 0B       		.uleb128 0xb
 11099 0381 3B       		.uleb128 0x3b
 11100 0382 05       		.uleb128 0x5
ARM GAS  /tmp/ccvURch4.s 			page 198


 11101 0383 39       		.uleb128 0x39
 11102 0384 0B       		.uleb128 0xb
 11103 0385 49       		.uleb128 0x49
 11104 0386 13       		.uleb128 0x13
 11105 0387 02       		.uleb128 0x2
 11106 0388 17       		.uleb128 0x17
 11107 0389 B742     		.uleb128 0x2137
 11108 038b 17       		.uleb128 0x17
 11109 038c 00       		.byte	0
 11110 038d 00       		.byte	0
 11111 038e 3C       		.uleb128 0x3c
 11112 038f 2E       		.uleb128 0x2e
 11113 0390 01       		.byte	0x1
 11114 0391 03       		.uleb128 0x3
 11115 0392 0E       		.uleb128 0xe
 11116 0393 3A       		.uleb128 0x3a
 11117 0394 0B       		.uleb128 0xb
 11118 0395 3B       		.uleb128 0x3b
 11119 0396 0B       		.uleb128 0xb
 11120 0397 39       		.uleb128 0x39
 11121 0398 0B       		.uleb128 0xb
 11122 0399 27       		.uleb128 0x27
 11123 039a 19       		.uleb128 0x19
 11124 039b 11       		.uleb128 0x11
 11125 039c 01       		.uleb128 0x1
 11126 039d 12       		.uleb128 0x12
 11127 039e 06       		.uleb128 0x6
 11128 039f 40       		.uleb128 0x40
 11129 03a0 18       		.uleb128 0x18
 11130 03a1 9742     		.uleb128 0x2117
 11131 03a3 19       		.uleb128 0x19
 11132 03a4 01       		.uleb128 0x1
 11133 03a5 13       		.uleb128 0x13
 11134 03a6 00       		.byte	0
 11135 03a7 00       		.byte	0
 11136 03a8 3D       		.uleb128 0x3d
 11137 03a9 34       		.uleb128 0x34
 11138 03aa 00       		.byte	0
 11139 03ab 03       		.uleb128 0x3
 11140 03ac 08       		.uleb128 0x8
 11141 03ad 3A       		.uleb128 0x3a
 11142 03ae 0B       		.uleb128 0xb
 11143 03af 3B       		.uleb128 0x3b
 11144 03b0 0B       		.uleb128 0xb
 11145 03b1 39       		.uleb128 0x39
 11146 03b2 0B       		.uleb128 0xb
 11147 03b3 49       		.uleb128 0x49
 11148 03b4 13       		.uleb128 0x13
 11149 03b5 02       		.uleb128 0x2
 11150 03b6 17       		.uleb128 0x17
 11151 03b7 B742     		.uleb128 0x2137
 11152 03b9 17       		.uleb128 0x17
 11153 03ba 00       		.byte	0
 11154 03bb 00       		.byte	0
 11155 03bc 3E       		.uleb128 0x3e
 11156 03bd 1D       		.uleb128 0x1d
 11157 03be 01       		.byte	0x1
ARM GAS  /tmp/ccvURch4.s 			page 199


 11158 03bf 31       		.uleb128 0x31
 11159 03c0 13       		.uleb128 0x13
 11160 03c1 52       		.uleb128 0x52
 11161 03c2 01       		.uleb128 0x1
 11162 03c3 B842     		.uleb128 0x2138
 11163 03c5 0B       		.uleb128 0xb
 11164 03c6 55       		.uleb128 0x55
 11165 03c7 17       		.uleb128 0x17
 11166 03c8 58       		.uleb128 0x58
 11167 03c9 0B       		.uleb128 0xb
 11168 03ca 59       		.uleb128 0x59
 11169 03cb 0B       		.uleb128 0xb
 11170 03cc 57       		.uleb128 0x57
 11171 03cd 0B       		.uleb128 0xb
 11172 03ce 01       		.uleb128 0x1
 11173 03cf 13       		.uleb128 0x13
 11174 03d0 00       		.byte	0
 11175 03d1 00       		.byte	0
 11176 03d2 3F       		.uleb128 0x3f
 11177 03d3 05       		.uleb128 0x5
 11178 03d4 00       		.byte	0
 11179 03d5 03       		.uleb128 0x3
 11180 03d6 08       		.uleb128 0x8
 11181 03d7 3A       		.uleb128 0x3a
 11182 03d8 0B       		.uleb128 0xb
 11183 03d9 3B       		.uleb128 0x3b
 11184 03da 0B       		.uleb128 0xb
 11185 03db 39       		.uleb128 0x39
 11186 03dc 0B       		.uleb128 0xb
 11187 03dd 49       		.uleb128 0x49
 11188 03de 13       		.uleb128 0x13
 11189 03df 02       		.uleb128 0x2
 11190 03e0 17       		.uleb128 0x17
 11191 03e1 B742     		.uleb128 0x2137
 11192 03e3 17       		.uleb128 0x17
 11193 03e4 00       		.byte	0
 11194 03e5 00       		.byte	0
 11195 03e6 40       		.uleb128 0x40
 11196 03e7 34       		.uleb128 0x34
 11197 03e8 00       		.byte	0
 11198 03e9 03       		.uleb128 0x3
 11199 03ea 0E       		.uleb128 0xe
 11200 03eb 3A       		.uleb128 0x3a
 11201 03ec 0B       		.uleb128 0xb
 11202 03ed 3B       		.uleb128 0x3b
 11203 03ee 0B       		.uleb128 0xb
 11204 03ef 39       		.uleb128 0x39
 11205 03f0 0B       		.uleb128 0xb
 11206 03f1 49       		.uleb128 0x49
 11207 03f2 13       		.uleb128 0x13
 11208 03f3 02       		.uleb128 0x2
 11209 03f4 17       		.uleb128 0x17
 11210 03f5 B742     		.uleb128 0x2137
 11211 03f7 17       		.uleb128 0x17
 11212 03f8 00       		.byte	0
 11213 03f9 00       		.byte	0
 11214 03fa 41       		.uleb128 0x41
ARM GAS  /tmp/ccvURch4.s 			page 200


 11215 03fb 2E       		.uleb128 0x2e
 11216 03fc 01       		.byte	0x1
 11217 03fd 03       		.uleb128 0x3
 11218 03fe 0E       		.uleb128 0xe
 11219 03ff 3A       		.uleb128 0x3a
 11220 0400 0B       		.uleb128 0xb
 11221 0401 3B       		.uleb128 0x3b
 11222 0402 0B       		.uleb128 0xb
 11223 0403 39       		.uleb128 0x39
 11224 0404 0B       		.uleb128 0xb
 11225 0405 27       		.uleb128 0x27
 11226 0406 19       		.uleb128 0x19
 11227 0407 49       		.uleb128 0x49
 11228 0408 13       		.uleb128 0x13
 11229 0409 11       		.uleb128 0x11
 11230 040a 01       		.uleb128 0x1
 11231 040b 12       		.uleb128 0x12
 11232 040c 06       		.uleb128 0x6
 11233 040d 40       		.uleb128 0x40
 11234 040e 18       		.uleb128 0x18
 11235 040f 9742     		.uleb128 0x2117
 11236 0411 19       		.uleb128 0x19
 11237 0412 01       		.uleb128 0x1
 11238 0413 13       		.uleb128 0x13
 11239 0414 00       		.byte	0
 11240 0415 00       		.byte	0
 11241 0416 42       		.uleb128 0x42
 11242 0417 1D       		.uleb128 0x1d
 11243 0418 01       		.byte	0x1
 11244 0419 31       		.uleb128 0x31
 11245 041a 13       		.uleb128 0x13
 11246 041b 52       		.uleb128 0x52
 11247 041c 01       		.uleb128 0x1
 11248 041d B842     		.uleb128 0x2138
 11249 041f 0B       		.uleb128 0xb
 11250 0420 11       		.uleb128 0x11
 11251 0421 01       		.uleb128 0x1
 11252 0422 12       		.uleb128 0x12
 11253 0423 06       		.uleb128 0x6
 11254 0424 58       		.uleb128 0x58
 11255 0425 0B       		.uleb128 0xb
 11256 0426 59       		.uleb128 0x59
 11257 0427 0B       		.uleb128 0xb
 11258 0428 57       		.uleb128 0x57
 11259 0429 0B       		.uleb128 0xb
 11260 042a 01       		.uleb128 0x1
 11261 042b 13       		.uleb128 0x13
 11262 042c 00       		.byte	0
 11263 042d 00       		.byte	0
 11264 042e 43       		.uleb128 0x43
 11265 042f 2E       		.uleb128 0x2e
 11266 0430 01       		.byte	0x1
 11267 0431 03       		.uleb128 0x3
 11268 0432 0E       		.uleb128 0xe
 11269 0433 3A       		.uleb128 0x3a
 11270 0434 0B       		.uleb128 0xb
 11271 0435 3B       		.uleb128 0x3b
ARM GAS  /tmp/ccvURch4.s 			page 201


 11272 0436 05       		.uleb128 0x5
 11273 0437 39       		.uleb128 0x39
 11274 0438 0B       		.uleb128 0xb
 11275 0439 27       		.uleb128 0x27
 11276 043a 19       		.uleb128 0x19
 11277 043b 49       		.uleb128 0x49
 11278 043c 13       		.uleb128 0x13
 11279 043d 20       		.uleb128 0x20
 11280 043e 0B       		.uleb128 0xb
 11281 043f 01       		.uleb128 0x1
 11282 0440 13       		.uleb128 0x13
 11283 0441 00       		.byte	0
 11284 0442 00       		.byte	0
 11285 0443 44       		.uleb128 0x44
 11286 0444 05       		.uleb128 0x5
 11287 0445 00       		.byte	0
 11288 0446 03       		.uleb128 0x3
 11289 0447 08       		.uleb128 0x8
 11290 0448 3A       		.uleb128 0x3a
 11291 0449 0B       		.uleb128 0xb
 11292 044a 3B       		.uleb128 0x3b
 11293 044b 05       		.uleb128 0x5
 11294 044c 39       		.uleb128 0x39
 11295 044d 0B       		.uleb128 0xb
 11296 044e 49       		.uleb128 0x49
 11297 044f 13       		.uleb128 0x13
 11298 0450 00       		.byte	0
 11299 0451 00       		.byte	0
 11300 0452 45       		.uleb128 0x45
 11301 0453 2E       		.uleb128 0x2e
 11302 0454 01       		.byte	0x1
 11303 0455 03       		.uleb128 0x3
 11304 0456 0E       		.uleb128 0xe
 11305 0457 3A       		.uleb128 0x3a
 11306 0458 0B       		.uleb128 0xb
 11307 0459 3B       		.uleb128 0x3b
 11308 045a 0B       		.uleb128 0xb
 11309 045b 39       		.uleb128 0x39
 11310 045c 0B       		.uleb128 0xb
 11311 045d 27       		.uleb128 0x27
 11312 045e 19       		.uleb128 0x19
 11313 045f 49       		.uleb128 0x49
 11314 0460 13       		.uleb128 0x13
 11315 0461 20       		.uleb128 0x20
 11316 0462 0B       		.uleb128 0xb
 11317 0463 01       		.uleb128 0x1
 11318 0464 13       		.uleb128 0x13
 11319 0465 00       		.byte	0
 11320 0466 00       		.byte	0
 11321 0467 46       		.uleb128 0x46
 11322 0468 05       		.uleb128 0x5
 11323 0469 00       		.byte	0
 11324 046a 03       		.uleb128 0x3
 11325 046b 08       		.uleb128 0x8
 11326 046c 3A       		.uleb128 0x3a
 11327 046d 0B       		.uleb128 0xb
 11328 046e 3B       		.uleb128 0x3b
ARM GAS  /tmp/ccvURch4.s 			page 202


 11329 046f 0B       		.uleb128 0xb
 11330 0470 39       		.uleb128 0x39
 11331 0471 0B       		.uleb128 0xb
 11332 0472 49       		.uleb128 0x49
 11333 0473 13       		.uleb128 0x13
 11334 0474 00       		.byte	0
 11335 0475 00       		.byte	0
 11336 0476 47       		.uleb128 0x47
 11337 0477 2E       		.uleb128 0x2e
 11338 0478 00       		.byte	0
 11339 0479 03       		.uleb128 0x3
 11340 047a 0E       		.uleb128 0xe
 11341 047b 3A       		.uleb128 0x3a
 11342 047c 0B       		.uleb128 0xb
 11343 047d 3B       		.uleb128 0x3b
 11344 047e 0B       		.uleb128 0xb
 11345 047f 39       		.uleb128 0x39
 11346 0480 0B       		.uleb128 0xb
 11347 0481 27       		.uleb128 0x27
 11348 0482 19       		.uleb128 0x19
 11349 0483 49       		.uleb128 0x49
 11350 0484 13       		.uleb128 0x13
 11351 0485 20       		.uleb128 0x20
 11352 0486 0B       		.uleb128 0xb
 11353 0487 00       		.byte	0
 11354 0488 00       		.byte	0
 11355 0489 48       		.uleb128 0x48
 11356 048a 2E       		.uleb128 0x2e
 11357 048b 01       		.byte	0x1
 11358 048c 03       		.uleb128 0x3
 11359 048d 0E       		.uleb128 0xe
 11360 048e 3A       		.uleb128 0x3a
 11361 048f 0B       		.uleb128 0xb
 11362 0490 3B       		.uleb128 0x3b
 11363 0491 05       		.uleb128 0x5
 11364 0492 39       		.uleb128 0x39
 11365 0493 0B       		.uleb128 0xb
 11366 0494 27       		.uleb128 0x27
 11367 0495 19       		.uleb128 0x19
 11368 0496 20       		.uleb128 0x20
 11369 0497 0B       		.uleb128 0xb
 11370 0498 01       		.uleb128 0x1
 11371 0499 13       		.uleb128 0x13
 11372 049a 00       		.byte	0
 11373 049b 00       		.byte	0
 11374 049c 49       		.uleb128 0x49
 11375 049d 34       		.uleb128 0x34
 11376 049e 00       		.byte	0
 11377 049f 03       		.uleb128 0x3
 11378 04a0 0E       		.uleb128 0xe
 11379 04a1 49       		.uleb128 0x49
 11380 04a2 13       		.uleb128 0x13
 11381 04a3 34       		.uleb128 0x34
 11382 04a4 19       		.uleb128 0x19
 11383 04a5 02       		.uleb128 0x2
 11384 04a6 18       		.uleb128 0x18
 11385 04a7 00       		.byte	0
ARM GAS  /tmp/ccvURch4.s 			page 203


 11386 04a8 00       		.byte	0
 11387 04a9 4A       		.uleb128 0x4a
 11388 04aa 2E       		.uleb128 0x2e
 11389 04ab 00       		.byte	0
 11390 04ac 03       		.uleb128 0x3
 11391 04ad 0E       		.uleb128 0xe
 11392 04ae 3A       		.uleb128 0x3a
 11393 04af 0B       		.uleb128 0xb
 11394 04b0 3B       		.uleb128 0x3b
 11395 04b1 05       		.uleb128 0x5
 11396 04b2 39       		.uleb128 0x39
 11397 04b3 0B       		.uleb128 0xb
 11398 04b4 27       		.uleb128 0x27
 11399 04b5 19       		.uleb128 0x19
 11400 04b6 20       		.uleb128 0x20
 11401 04b7 0B       		.uleb128 0xb
 11402 04b8 00       		.byte	0
 11403 04b9 00       		.byte	0
 11404 04ba 4B       		.uleb128 0x4b
 11405 04bb 05       		.uleb128 0x5
 11406 04bc 00       		.byte	0
 11407 04bd 03       		.uleb128 0x3
 11408 04be 0E       		.uleb128 0xe
 11409 04bf 3A       		.uleb128 0x3a
 11410 04c0 0B       		.uleb128 0xb
 11411 04c1 3B       		.uleb128 0x3b
 11412 04c2 05       		.uleb128 0x5
 11413 04c3 39       		.uleb128 0x39
 11414 04c4 0B       		.uleb128 0xb
 11415 04c5 49       		.uleb128 0x49
 11416 04c6 13       		.uleb128 0x13
 11417 04c7 00       		.byte	0
 11418 04c8 00       		.byte	0
 11419 04c9 4C       		.uleb128 0x4c
 11420 04ca 2E       		.uleb128 0x2e
 11421 04cb 00       		.byte	0
 11422 04cc 3F       		.uleb128 0x3f
 11423 04cd 19       		.uleb128 0x19
 11424 04ce 3C       		.uleb128 0x3c
 11425 04cf 19       		.uleb128 0x19
 11426 04d0 6E       		.uleb128 0x6e
 11427 04d1 0E       		.uleb128 0xe
 11428 04d2 03       		.uleb128 0x3
 11429 04d3 0E       		.uleb128 0xe
 11430 04d4 3A       		.uleb128 0x3a
 11431 04d5 0B       		.uleb128 0xb
 11432 04d6 3B       		.uleb128 0x3b
 11433 04d7 0B       		.uleb128 0xb
 11434 04d8 39       		.uleb128 0x39
 11435 04d9 0B       		.uleb128 0xb
 11436 04da 00       		.byte	0
 11437 04db 00       		.byte	0
 11438 04dc 4D       		.uleb128 0x4d
 11439 04dd 2E       		.uleb128 0x2e
 11440 04de 00       		.byte	0
 11441 04df 3F       		.uleb128 0x3f
 11442 04e0 19       		.uleb128 0x19
ARM GAS  /tmp/ccvURch4.s 			page 204


 11443 04e1 3C       		.uleb128 0x3c
 11444 04e2 19       		.uleb128 0x19
 11445 04e3 6E       		.uleb128 0x6e
 11446 04e4 0E       		.uleb128 0xe
 11447 04e5 03       		.uleb128 0x3
 11448 04e6 0E       		.uleb128 0xe
 11449 04e7 00       		.byte	0
 11450 04e8 00       		.byte	0
 11451 04e9 4E       		.uleb128 0x4e
 11452 04ea 2E       		.uleb128 0x2e
 11453 04eb 00       		.byte	0
 11454 04ec 3F       		.uleb128 0x3f
 11455 04ed 19       		.uleb128 0x19
 11456 04ee 3C       		.uleb128 0x3c
 11457 04ef 19       		.uleb128 0x19
 11458 04f0 6E       		.uleb128 0x6e
 11459 04f1 0E       		.uleb128 0xe
 11460 04f2 03       		.uleb128 0x3
 11461 04f3 0E       		.uleb128 0xe
 11462 04f4 3A       		.uleb128 0x3a
 11463 04f5 0B       		.uleb128 0xb
 11464 04f6 3B       		.uleb128 0x3b
 11465 04f7 05       		.uleb128 0x5
 11466 04f8 39       		.uleb128 0x39
 11467 04f9 0B       		.uleb128 0xb
 11468 04fa 00       		.byte	0
 11469 04fb 00       		.byte	0
 11470 04fc 00       		.byte	0
 11471              		.section	.debug_loc,"",%progbits
 11472              	.Ldebug_loc0:
 11473              	.LVUS21:
 11474 0000 01       		.uleb128 .LVU499
 11475 0001 00       		.uleb128 .LVU502
 11476 0002 00       		.uleb128 .LVU502
 11477 0003 00       		.uleb128 .LVU520
 11478 0004 00       		.uleb128 .LVU521
 11479 0005 00       		.uleb128 0
 11480              	.LLST21:
 11481 0006 12000000 		.4byte	.LVL182
 11482 000a 20000000 		.4byte	.LVL185
 11483 000e 0200     		.2byte	0x2
 11484 0010 30       		.byte	0x30
 11485 0011 9F       		.byte	0x9f
 11486 0012 20000000 		.4byte	.LVL185
 11487 0016 76000000 		.4byte	.LVL197
 11488 001a 0100     		.2byte	0x1
 11489 001c 55       		.byte	0x55
 11490 001d 7A000000 		.4byte	.LVL198
 11491 0021 94000000 		.4byte	.LFE240
 11492 0025 0100     		.2byte	0x1
 11493 0027 55       		.byte	0x55
 11494 0028 00000000 		.4byte	0
 11495 002c 00000000 		.4byte	0
 11496              	.LVUS20:
 11497 0030 01       		.uleb128 .LVU471
 11498 0031 00       		.uleb128 .LVU474
 11499 0032 00       		.uleb128 .LVU474
ARM GAS  /tmp/ccvURch4.s 			page 205


 11500 0033 00       		.uleb128 .LVU492
 11501 0034 00       		.uleb128 .LVU493
 11502 0035 00       		.uleb128 0
 11503              	.LLST20:
 11504 0036 12000000 		.4byte	.LVL164
 11505 003a 20000000 		.4byte	.LVL167
 11506 003e 0200     		.2byte	0x2
 11507 0040 30       		.byte	0x30
 11508 0041 9F       		.byte	0x9f
 11509 0042 20000000 		.4byte	.LVL167
 11510 0046 76000000 		.4byte	.LVL179
 11511 004a 0100     		.2byte	0x1
 11512 004c 55       		.byte	0x55
 11513 004d 7A000000 		.4byte	.LVL180
 11514 0051 94000000 		.4byte	.LFE238
 11515 0055 0100     		.2byte	0x1
 11516 0057 55       		.byte	0x55
 11517 0058 00000000 		.4byte	0
 11518 005c 00000000 		.4byte	0
 11519              	.LVUS22:
 11520 0060 02       		.uleb128 .LVU534
 11521 0061 00       		.uleb128 .LVU540
 11522 0062 00       		.uleb128 .LVU540
 11523 0063 00       		.uleb128 .LVU594
 11524 0064 00       		.uleb128 .LVU595
 11525 0065 00       		.uleb128 0
 11526              	.LLST22:
 11527 0066 1E000000 		.4byte	.LVL202
 11528 006a 34000000 		.4byte	.LVL205
 11529 006e 0200     		.2byte	0x2
 11530 0070 30       		.byte	0x30
 11531 0071 9F       		.byte	0x9f
 11532 0072 34000000 		.4byte	.LVL205
 11533 0076 BC000000 		.4byte	.LVL223
 11534 007a 0100     		.2byte	0x1
 11535 007c 55       		.byte	0x55
 11536 007d C0000000 		.4byte	.LVL224
 11537 0081 E8000000 		.4byte	.LFE236
 11538 0085 0100     		.2byte	0x1
 11539 0087 55       		.byte	0x55
 11540 0088 00000000 		.4byte	0
 11541 008c 00000000 		.4byte	0
 11542              	.LVUS23:
 11543 0090 06       		.uleb128 .LVU559
 11544 0091 00       		.uleb128 .LVU561
 11545              	.LLST23:
 11546 0092 40000000 		.4byte	.LVL208
 11547 0096 44000000 		.4byte	.LVL209
 11548 009a 0300     		.2byte	0x3
 11549 009c 08       		.byte	0x8
 11550 009d 20       		.byte	0x20
 11551 009e 9F       		.byte	0x9f
 11552 009f 00000000 		.4byte	0
 11553 00a3 00000000 		.4byte	0
 11554              	.LVUS24:
 11555 00a7 05       		.uleb128 .LVU545
 11556 00a8 00       		.uleb128 .LVU547
ARM GAS  /tmp/ccvURch4.s 			page 206


 11557 00a9 04       		.uleb128 .LVU581
 11558 00aa 00       		.uleb128 .LVU583
 11559              	.LLST24:
 11560 00ab 34000000 		.4byte	.LVL205
 11561 00af 38000000 		.4byte	.LVL206
 11562 00b3 0200     		.2byte	0x2
 11563 00b5 30       		.byte	0x30
 11564 00b6 9F       		.byte	0x9f
 11565 00b7 90000000 		.4byte	.LVL218
 11566 00bb 94000000 		.4byte	.LVL219
 11567 00bf 0200     		.2byte	0x2
 11568 00c1 30       		.byte	0x30
 11569 00c2 9F       		.byte	0x9f
 11570 00c3 00000000 		.4byte	0
 11571 00c7 00000000 		.4byte	0
 11572              	.LVUS0:
 11573 00cb 00       		.uleb128 0
 11574 00cc 00       		.uleb128 .LVU5
 11575 00cd 00       		.uleb128 .LVU5
 11576 00ce 00       		.uleb128 0
 11577              	.LLST0:
 11578 00cf 00000000 		.4byte	.LVL0
 11579 00d3 21000000 		.4byte	.LVL1-1
 11580 00d7 0100     		.2byte	0x1
 11581 00d9 50       		.byte	0x50
 11582 00da 21000000 		.4byte	.LVL1-1
 11583 00de 28000000 		.4byte	.LFE235
 11584 00e2 0400     		.2byte	0x4
 11585 00e4 F3       		.byte	0xf3
 11586 00e5 01       		.uleb128 0x1
 11587 00e6 50       		.byte	0x50
 11588 00e7 9F       		.byte	0x9f
 11589 00e8 00000000 		.4byte	0
 11590 00ec 00000000 		.4byte	0
 11591              	.LVUS25:
 11592 00f0 01       		.uleb128 .LVU606
 11593 00f1 00       		.uleb128 .LVU609
 11594 00f2 00       		.uleb128 .LVU609
 11595 00f3 00       		.uleb128 .LVU670
 11596 00f4 00       		.uleb128 .LVU671
 11597 00f5 00       		.uleb128 0
 11598              	.LLST25:
 11599 00f6 20000000 		.4byte	.LVL226
 11600 00fa 38000000 		.4byte	.LVL229
 11601 00fe 0200     		.2byte	0x2
 11602 0100 30       		.byte	0x30
 11603 0101 9F       		.byte	0x9f
 11604 0102 38000000 		.4byte	.LVL229
 11605 0106 D8000000 		.4byte	.LVL249
 11606 010a 0100     		.2byte	0x1
 11607 010c 56       		.byte	0x56
 11608 010d DC000000 		.4byte	.LVL250
 11609 0111 00010000 		.4byte	.LFE234
 11610 0115 0100     		.2byte	0x1
 11611 0117 56       		.byte	0x56
 11612 0118 00000000 		.4byte	0
 11613 011c 00000000 		.4byte	0
ARM GAS  /tmp/ccvURch4.s 			page 207


 11614              	.LVUS26:
 11615 0120 04       		.uleb128 .LVU613
 11616 0121 00       		.uleb128 .LVU615
 11617              	.LLST26:
 11618 0122 38000000 		.4byte	.LVL229
 11619 0126 3C000000 		.4byte	.LVL230
 11620 012a 0200     		.2byte	0x2
 11621 012c 30       		.byte	0x30
 11622 012d 9F       		.byte	0x9f
 11623 012e 00000000 		.4byte	0
 11624 0132 00000000 		.4byte	0
 11625              	.LVUS27:
 11626 0136 02       		.uleb128 .LVU617
 11627 0137 00       		.uleb128 .LVU620
 11628              	.LLST27:
 11629 0138 3C000000 		.4byte	.LVL230
 11630 013c 46000000 		.4byte	.LVL231
 11631 0140 0600     		.2byte	0x6
 11632 0142 03       		.byte	0x3
 11633 0143 00000000 		.4byte	iq.8105
 11634 0147 9F       		.byte	0x9f
 11635 0148 00000000 		.4byte	0
 11636 014c 00000000 		.4byte	0
 11637              	.LVUS28:
 11638 0150 02       		.uleb128 .LVU622
 11639 0151 00       		.uleb128 .LVU625
 11640              	.LLST28:
 11641 0152 46000000 		.4byte	.LVL231
 11642 0156 50000000 		.4byte	.LVL232
 11643 015a 0600     		.2byte	0x6
 11644 015c 03       		.byte	0x3
 11645 015d 00000000 		.4byte	iq.8105
 11646 0161 9F       		.byte	0x9f
 11647 0162 00000000 		.4byte	0
 11648 0166 00000000 		.4byte	0
 11649              	.LVUS29:
 11650 016a 02       		.uleb128 .LVU627
 11651 016b 00       		.uleb128 .LVU630
 11652              	.LLST29:
 11653 016c 50000000 		.4byte	.LVL232
 11654 0170 5A000000 		.4byte	.LVL233
 11655 0174 0600     		.2byte	0x6
 11656 0176 03       		.byte	0x3
 11657 0177 00000000 		.4byte	iq.8105
 11658 017b 9F       		.byte	0x9f
 11659 017c 00000000 		.4byte	0
 11660 0180 00000000 		.4byte	0
 11661              	.LVUS30:
 11662 0184 02       		.uleb128 .LVU632
 11663 0185 00       		.uleb128 .LVU635
 11664              	.LLST30:
 11665 0186 5A000000 		.4byte	.LVL233
 11666 018a 64000000 		.4byte	.LVL234
 11667 018e 0600     		.2byte	0x6
 11668 0190 03       		.byte	0x3
 11669 0191 00000000 		.4byte	iq.8105
 11670 0195 9F       		.byte	0x9f
ARM GAS  /tmp/ccvURch4.s 			page 208


 11671 0196 00000000 		.4byte	0
 11672 019a 00000000 		.4byte	0
 11673              	.LVUS31:
 11674 019e 06       		.uleb128 .LVU647
 11675 019f 00       		.uleb128 .LVU649
 11676              	.LLST31:
 11677 01a0 6C000000 		.4byte	.LVL236
 11678 01a4 72000000 		.4byte	.LVL237
 11679 01a8 0300     		.2byte	0x3
 11680 01aa 08       		.byte	0x8
 11681 01ab 20       		.byte	0x20
 11682 01ac 9F       		.byte	0x9f
 11683 01ad 00000000 		.4byte	0
 11684 01b1 00000000 		.4byte	0
 11685              	.LVUS19:
 11686 01b5 00       		.uleb128 0
 11687 01b6 00       		.uleb128 .LVU450
 11688 01b7 00       		.uleb128 .LVU450
 11689 01b8 00       		.uleb128 0
 11690              	.LLST19:
 11691 01b9 00000000 		.4byte	.LVL156
 11692 01bd 12000000 		.4byte	.LVL157
 11693 01c1 0100     		.2byte	0x1
 11694 01c3 50       		.byte	0x50
 11695 01c4 12000000 		.4byte	.LVL157
 11696 01c8 4C000000 		.4byte	.LFE232
 11697 01cc 0100     		.2byte	0x1
 11698 01ce 54       		.byte	0x54
 11699 01cf 00000000 		.4byte	0
 11700 01d3 00000000 		.4byte	0
 11701              	.LVUS17:
 11702 01d7 01       		.uleb128 .LVU332
 11703 01d8 00       		.uleb128 .LVU336
 11704 01d9 00       		.uleb128 .LVU336
 11705 01da 00       		.uleb128 .LVU350
 11706              	.LLST17:
 11707 01db 94000000 		.4byte	.LVL120
 11708 01df A2000000 		.4byte	.LVL122
 11709 01e3 0200     		.2byte	0x2
 11710 01e5 30       		.byte	0x30
 11711 01e6 9F       		.byte	0x9f
 11712 01e7 A2000000 		.4byte	.LVL122
 11713 01eb D2000000 		.4byte	.LVL130
 11714 01ef 0100     		.2byte	0x1
 11715 01f1 54       		.byte	0x54
 11716 01f2 00000000 		.4byte	0
 11717 01f6 00000000 		.4byte	0
 11718              	.LVUS18:
 11719 01fa 00       		.uleb128 0
 11720 01fb 00       		.uleb128 .LVU370
 11721 01fc 00       		.uleb128 .LVU370
 11722 01fd 00       		.uleb128 0
 11723              	.LLST18:
 11724 01fe 00000000 		.4byte	.LVL135
 11725 0202 1C000000 		.4byte	.LVL136
 11726 0206 0100     		.2byte	0x1
 11727 0208 50       		.byte	0x50
ARM GAS  /tmp/ccvURch4.s 			page 209


 11728 0209 1C000000 		.4byte	.LVL136
 11729 020d 4C000000 		.4byte	.LFE229
 11730 0211 0400     		.2byte	0x4
 11731 0213 F3       		.byte	0xf3
 11732 0214 01       		.uleb128 0x1
 11733 0215 50       		.byte	0x50
 11734 0216 9F       		.byte	0x9f
 11735 0217 00000000 		.4byte	0
 11736 021b 00000000 		.4byte	0
 11737              	.LVUS5:
 11738 021f 01       		.uleb128 .LVU72
 11739 0220 00       		.uleb128 .LVU85
 11740 0221 00       		.uleb128 .LVU85
 11741 0222 00       		.uleb128 .LVU96
 11742 0223 00       		.uleb128 .LVU97
 11743 0224 00       		.uleb128 0
 11744              	.LLST5:
 11745 0225 22000000 		.4byte	.LVL40
 11746 0229 34000000 		.4byte	.LVL44
 11747 022d 0200     		.2byte	0x2
 11748 022f 30       		.byte	0x30
 11749 0230 9F       		.byte	0x9f
 11750 0231 34000000 		.4byte	.LVL44
 11751 0235 6C000000 		.4byte	.LVL49
 11752 0239 0100     		.2byte	0x1
 11753 023b 54       		.byte	0x54
 11754 023c 70000000 		.4byte	.LVL50
 11755 0240 90000000 		.4byte	.LFE228
 11756 0244 0100     		.2byte	0x1
 11757 0246 54       		.byte	0x54
 11758 0247 00000000 		.4byte	0
 11759 024b 00000000 		.4byte	0
 11760              	.LVUS6:
 11761 024f 02       		.uleb128 .LVU73
 11762 0250 00       		.uleb128 .LVU96
 11763 0251 00       		.uleb128 .LVU97
 11764 0252 00       		.uleb128 0
 11765              	.LLST6:
 11766 0253 22000000 		.4byte	.LVL40
 11767 0257 6C000000 		.4byte	.LVL49
 11768 025b 0100     		.2byte	0x1
 11769 025d 59       		.byte	0x59
 11770 025e 70000000 		.4byte	.LVL50
 11771 0262 90000000 		.4byte	.LFE228
 11772 0266 0100     		.2byte	0x1
 11773 0268 59       		.byte	0x59
 11774 0269 00000000 		.4byte	0
 11775 026d 00000000 		.4byte	0
 11776              	.LVUS7:
 11777 0271 00       		.uleb128 .LVU82
 11778 0272 00       		.uleb128 .LVU96
 11779 0273 00       		.uleb128 .LVU97
 11780 0274 00       		.uleb128 0
 11781              	.LLST7:
 11782 0275 32000000 		.4byte	.LVL43
 11783 0279 6C000000 		.4byte	.LVL49
 11784 027d 0100     		.2byte	0x1
ARM GAS  /tmp/ccvURch4.s 			page 210


 11785 027f 55       		.byte	0x55
 11786 0280 70000000 		.4byte	.LVL50
 11787 0284 90000000 		.4byte	.LFE228
 11788 0288 0100     		.2byte	0x1
 11789 028a 55       		.byte	0x55
 11790 028b 00000000 		.4byte	0
 11791 028f 00000000 		.4byte	0
 11792              	.LVUS14:
 11793 0293 01       		.uleb128 .LVU255
 11794 0294 00       		.uleb128 .LVU268
 11795 0295 00       		.uleb128 .LVU268
 11796 0296 00       		.uleb128 .LVU279
 11797 0297 00       		.uleb128 .LVU280
 11798 0298 00       		.uleb128 0
 11799              	.LLST14:
 11800 0299 22000000 		.4byte	.LVL102
 11801 029d 34000000 		.4byte	.LVL106
 11802 02a1 0200     		.2byte	0x2
 11803 02a3 30       		.byte	0x30
 11804 02a4 9F       		.byte	0x9f
 11805 02a5 34000000 		.4byte	.LVL106
 11806 02a9 70000000 		.4byte	.LVL112
 11807 02ad 0100     		.2byte	0x1
 11808 02af 54       		.byte	0x54
 11809 02b0 74000000 		.4byte	.LVL113
 11810 02b4 94000000 		.4byte	.LFE227
 11811 02b8 0100     		.2byte	0x1
 11812 02ba 54       		.byte	0x54
 11813 02bb 00000000 		.4byte	0
 11814 02bf 00000000 		.4byte	0
 11815              	.LVUS15:
 11816 02c3 02       		.uleb128 .LVU256
 11817 02c4 00       		.uleb128 .LVU279
 11818 02c5 00       		.uleb128 .LVU280
 11819 02c6 00       		.uleb128 0
 11820              	.LLST15:
 11821 02c7 22000000 		.4byte	.LVL102
 11822 02cb 70000000 		.4byte	.LVL112
 11823 02cf 0100     		.2byte	0x1
 11824 02d1 59       		.byte	0x59
 11825 02d2 74000000 		.4byte	.LVL113
 11826 02d6 94000000 		.4byte	.LFE227
 11827 02da 0100     		.2byte	0x1
 11828 02dc 59       		.byte	0x59
 11829 02dd 00000000 		.4byte	0
 11830 02e1 00000000 		.4byte	0
 11831              	.LVUS16:
 11832 02e5 00       		.uleb128 .LVU265
 11833 02e6 00       		.uleb128 .LVU279
 11834 02e7 00       		.uleb128 .LVU280
 11835 02e8 00       		.uleb128 0
 11836              	.LLST16:
 11837 02e9 32000000 		.4byte	.LVL105
 11838 02ed 70000000 		.4byte	.LVL112
 11839 02f1 0100     		.2byte	0x1
 11840 02f3 55       		.byte	0x55
 11841 02f4 74000000 		.4byte	.LVL113
ARM GAS  /tmp/ccvURch4.s 			page 211


 11842 02f8 94000000 		.4byte	.LFE227
 11843 02fc 0100     		.2byte	0x1
 11844 02fe 55       		.byte	0x55
 11845 02ff 00000000 		.4byte	0
 11846 0303 00000000 		.4byte	0
 11847              	.LVUS32:
 11848 0307 00       		.uleb128 .LVU694
 11849 0308 00       		.uleb128 .LVU696
 11850 0309 00       		.uleb128 .LVU696
 11851 030a 00       		.uleb128 .LVU779
 11852 030b 00       		.uleb128 .LVU780
 11853 030c 00       		.uleb128 0
 11854              	.LLST32:
 11855 030d 38000000 		.4byte	.LVL253
 11856 0311 3B000000 		.4byte	.LVL254-1
 11857 0315 0100     		.2byte	0x1
 11858 0317 50       		.byte	0x50
 11859 0318 3B000000 		.4byte	.LVL254-1
 11860 031c 06010000 		.4byte	.LVL284
 11861 0320 0100     		.2byte	0x1
 11862 0322 54       		.byte	0x54
 11863 0323 0A010000 		.4byte	.LVL285
 11864 0327 3C010000 		.4byte	.LFE226
 11865 032b 0100     		.2byte	0x1
 11866 032d 54       		.byte	0x54
 11867 032e 00000000 		.4byte	0
 11868 0332 00000000 		.4byte	0
 11869              	.LVUS33:
 11870 0336 01       		.uleb128 .LVU695
 11871 0337 00       		.uleb128 .LVU699
 11872 0338 00       		.uleb128 .LVU699
 11873 0339 00       		.uleb128 .LVU779
 11874 033a 00       		.uleb128 .LVU780
 11875 033b 00       		.uleb128 0
 11876              	.LLST33:
 11877 033c 38000000 		.4byte	.LVL253
 11878 0340 4A000000 		.4byte	.LVL256
 11879 0344 0200     		.2byte	0x2
 11880 0346 30       		.byte	0x30
 11881 0347 9F       		.byte	0x9f
 11882 0348 4A000000 		.4byte	.LVL256
 11883 034c 06010000 		.4byte	.LVL284
 11884 0350 0100     		.2byte	0x1
 11885 0352 56       		.byte	0x56
 11886 0353 0A010000 		.4byte	.LVL285
 11887 0357 3C010000 		.4byte	.LFE226
 11888 035b 0100     		.2byte	0x1
 11889 035d 56       		.byte	0x56
 11890 035e 00000000 		.4byte	0
 11891 0362 00000000 		.4byte	0
 11892              	.LVUS34:
 11893 0366 05       		.uleb128 .LVU704
 11894 0367 00       		.uleb128 .LVU706
 11895 0368 04       		.uleb128 .LVU740
 11896 0369 00       		.uleb128 .LVU742
 11897              	.LLST34:
 11898 036a 4A000000 		.4byte	.LVL256
ARM GAS  /tmp/ccvURch4.s 			page 212


 11899 036e 4E000000 		.4byte	.LVL257
 11900 0372 0200     		.2byte	0x2
 11901 0374 30       		.byte	0x30
 11902 0375 9F       		.byte	0x9f
 11903 0376 A0000000 		.4byte	.LVL269
 11904 037a A4000000 		.4byte	.LVL270
 11905 037e 0200     		.2byte	0x2
 11906 0380 30       		.byte	0x30
 11907 0381 9F       		.byte	0x9f
 11908 0382 00000000 		.4byte	0
 11909 0386 00000000 		.4byte	0
 11910              	.LVUS35:
 11911 038a 06       		.uleb128 .LVU718
 11912 038b 00       		.uleb128 .LVU720
 11913              	.LLST35:
 11914 038c 56000000 		.4byte	.LVL259
 11915 0390 5A000000 		.4byte	.LVL260
 11916 0394 0300     		.2byte	0x3
 11917 0396 08       		.byte	0x8
 11918 0397 20       		.byte	0x20
 11919 0398 9F       		.byte	0x9f
 11920 0399 00000000 		.4byte	0
 11921 039d 00000000 		.4byte	0
 11922              	.LVUS36:
 11923 03a1 05       		.uleb128 .LVU753
 11924 03a2 00       		.uleb128 .LVU755
 11925              	.LLST36:
 11926 03a3 AE000000 		.4byte	.LVL272
 11927 03a7 B4000000 		.4byte	.LVL273
 11928 03ab 0300     		.2byte	0x3
 11929 03ad 08       		.byte	0x8
 11930 03ae 20       		.byte	0x20
 11931 03af 9F       		.byte	0x9f
 11932 03b0 00000000 		.4byte	0
 11933 03b4 00000000 		.4byte	0
 11934              	.LVUS37:
 11935 03b8 04       		.uleb128 .LVU770
 11936 03b9 00       		.uleb128 .LVU772
 11937              	.LLST37:
 11938 03ba DE000000 		.4byte	.LVL279
 11939 03be E4000000 		.4byte	.LVL280
 11940 03c2 0200     		.2byte	0x2
 11941 03c4 30       		.byte	0x30
 11942 03c5 9F       		.byte	0x9f
 11943 03c6 00000000 		.4byte	0
 11944 03ca 00000000 		.4byte	0
 11945              	.LVUS38:
 11946 03ce 00       		.uleb128 0
 11947 03cf 00       		.uleb128 .LVU804
 11948 03d0 00       		.uleb128 .LVU804
 11949 03d1 00       		.uleb128 0
 11950              	.LLST38:
 11951 03d2 00000000 		.4byte	.LVL288
 11952 03d6 1B000000 		.4byte	.LVL291-1
 11953 03da 0100     		.2byte	0x1
 11954 03dc 50       		.byte	0x50
 11955 03dd 1B000000 		.4byte	.LVL291-1
ARM GAS  /tmp/ccvURch4.s 			page 213


 11956 03e1 70000000 		.4byte	.LFE225
 11957 03e5 0400     		.2byte	0x4
 11958 03e7 F3       		.byte	0xf3
 11959 03e8 01       		.uleb128 0x1
 11960 03e9 50       		.byte	0x50
 11961 03ea 9F       		.byte	0x9f
 11962 03eb 00000000 		.4byte	0
 11963 03ef 00000000 		.4byte	0
 11964              	.LVUS39:
 11965 03f3 01       		.uleb128 .LVU808
 11966 03f4 00       		.uleb128 .LVU813
 11967              	.LLST39:
 11968 03f5 26000000 		.4byte	.LVL293
 11969 03f9 2F000000 		.4byte	.LVL294-1
 11970 03fd 0200     		.2byte	0x2
 11971 03ff 74       		.byte	0x74
 11972 0400 28       		.sleb128 40
 11973 0401 00000000 		.4byte	0
 11974 0405 00000000 		.4byte	0
 11975              	.LVUS40:
 11976 0409 00       		.uleb128 .LVU793
 11977 040a 00       		.uleb128 0
 11978              	.LLST40:
 11979 040b 12000000 		.4byte	.LVL289
 11980 040f 70000000 		.4byte	.LFE225
 11981 0413 0100     		.2byte	0x1
 11982 0415 54       		.byte	0x54
 11983 0416 00000000 		.4byte	0
 11984 041a 00000000 		.4byte	0
 11985              	.LVUS41:
 11986 041e 07       		.uleb128 .LVU800
 11987 041f 00       		.uleb128 .LVU802
 11988              	.LLST41:
 11989 0420 12000000 		.4byte	.LVL289
 11990 0424 18000000 		.4byte	.LVL290
 11991 0428 0300     		.2byte	0x3
 11992 042a 08       		.byte	0x8
 11993 042b 20       		.byte	0x20
 11994 042c 9F       		.byte	0x9f
 11995 042d 00000000 		.4byte	0
 11996 0431 00000000 		.4byte	0
 11997              	.LVUS42:
 11998 0435 04       		.uleb128 .LVU821
 11999 0436 00       		.uleb128 .LVU823
 12000              	.LLST42:
 12001 0437 44000000 		.4byte	.LVL296
 12002 043b 4A000000 		.4byte	.LVL297
 12003 043f 0200     		.2byte	0x2
 12004 0441 30       		.byte	0x30
 12005 0442 9F       		.byte	0x9f
 12006 0443 00000000 		.4byte	0
 12007 0447 00000000 		.4byte	0
 12008              	.LVUS12:
 12009 044b 00       		.uleb128 .LVU227
 12010 044c 00       		.uleb128 .LVU228
 12011 044d 00       		.uleb128 .LVU228
 12012 044e 00       		.uleb128 .LVU234
ARM GAS  /tmp/ccvURch4.s 			page 214


 12013 044f 00       		.uleb128 .LVU235
 12014 0450 00       		.uleb128 0
 12015              	.LLST12:
 12016 0451 8E000000 		.4byte	.LVL90
 12017 0455 91000000 		.4byte	.LVL91-1
 12018 0459 0100     		.2byte	0x1
 12019 045b 50       		.byte	0x50
 12020 045c 91000000 		.4byte	.LVL91-1
 12021 0460 BC000000 		.4byte	.LVL96
 12022 0464 0100     		.2byte	0x1
 12023 0466 54       		.byte	0x54
 12024 0467 C0000000 		.4byte	.LVL97
 12025 046b E8000000 		.4byte	.LFE224
 12026 046f 0100     		.2byte	0x1
 12027 0471 54       		.byte	0x54
 12028 0472 00000000 		.4byte	0
 12029 0476 00000000 		.4byte	0
 12030              	.LVUS11:
 12031 047a 00       		.uleb128 .LVU165
 12032 047b 00       		.uleb128 .LVU166
 12033 047c 00       		.uleb128 .LVU166
 12034 047d 00       		.uleb128 .LVU172
 12035 047e 00       		.uleb128 .LVU173
 12036 047f 00       		.uleb128 0
 12037              	.LLST11:
 12038 0480 32000000 		.4byte	.LVL75
 12039 0484 35000000 		.4byte	.LVL76-1
 12040 0488 0100     		.2byte	0x1
 12041 048a 50       		.byte	0x50
 12042 048b 35000000 		.4byte	.LVL76-1
 12043 048f 60000000 		.4byte	.LVL81
 12044 0493 0100     		.2byte	0x1
 12045 0495 54       		.byte	0x54
 12046 0496 64000000 		.4byte	.LVL82
 12047 049a 88000000 		.4byte	.LFE223
 12048 049e 0100     		.2byte	0x1
 12049 04a0 54       		.byte	0x54
 12050 04a1 00000000 		.4byte	0
 12051 04a5 00000000 		.4byte	0
 12052              	.LVUS10:
 12053 04a9 00       		.uleb128 .LVU138
 12054 04aa 00       		.uleb128 .LVU139
 12055 04ab 00       		.uleb128 .LVU139
 12056 04ac 00       		.uleb128 .LVU145
 12057 04ad 00       		.uleb128 .LVU146
 12058 04ae 00       		.uleb128 0
 12059              	.LLST10:
 12060 04af 32000000 		.4byte	.LVL64
 12061 04b3 35000000 		.4byte	.LVL65-1
 12062 04b7 0100     		.2byte	0x1
 12063 04b9 50       		.byte	0x50
 12064 04ba 35000000 		.4byte	.LVL65-1
 12065 04be 60000000 		.4byte	.LVL70
 12066 04c2 0100     		.2byte	0x1
 12067 04c4 54       		.byte	0x54
 12068 04c5 64000000 		.4byte	.LVL71
 12069 04c9 88000000 		.4byte	.LFE222
ARM GAS  /tmp/ccvURch4.s 			page 215


 12070 04cd 0100     		.2byte	0x1
 12071 04cf 54       		.byte	0x54
 12072 04d0 00000000 		.4byte	0
 12073 04d4 00000000 		.4byte	0
 12074              	.LVUS8:
 12075 04d8 00       		.uleb128 0
 12076 04d9 00       		.uleb128 .LVU105
 12077 04da 00       		.uleb128 .LVU105
 12078 04db 00       		.uleb128 0
 12079              	.LLST8:
 12080 04dc 00000000 		.4byte	.LVL52
 12081 04e0 15000000 		.4byte	.LVL54-1
 12082 04e4 0100     		.2byte	0x1
 12083 04e6 50       		.byte	0x50
 12084 04e7 15000000 		.4byte	.LVL54-1
 12085 04eb 54000000 		.4byte	.LFE221
 12086 04ef 0100     		.2byte	0x1
 12087 04f1 55       		.byte	0x55
 12088 04f2 00000000 		.4byte	0
 12089 04f6 00000000 		.4byte	0
 12090              	.LVUS9:
 12091 04fa 01       		.uleb128 .LVU102
 12092 04fb 00       		.uleb128 .LVU107
 12093 04fc 00       		.uleb128 .LVU107
 12094 04fd 00       		.uleb128 0
 12095              	.LLST9:
 12096 04fe 10000000 		.4byte	.LVL53
 12097 0502 20000000 		.4byte	.LVL56
 12098 0506 0200     		.2byte	0x2
 12099 0508 30       		.byte	0x30
 12100 0509 9F       		.byte	0x9f
 12101 050a 20000000 		.4byte	.LVL56
 12102 050e 54000000 		.4byte	.LFE221
 12103 0512 0100     		.2byte	0x1
 12104 0514 54       		.byte	0x54
 12105 0515 00000000 		.4byte	0
 12106 0519 00000000 		.4byte	0
 12107              	.LVUS1:
 12108 051d 00       		.uleb128 0
 12109 051e 00       		.uleb128 .LVU45
 12110 051f 00       		.uleb128 .LVU45
 12111 0520 00       		.uleb128 0
 12112              	.LLST1:
 12113 0521 00000000 		.4byte	.LVL33
 12114 0525 0E000000 		.4byte	.LVL34
 12115 0529 0100     		.2byte	0x1
 12116 052b 50       		.byte	0x50
 12117 052c 0E000000 		.4byte	.LVL34
 12118 0530 34000000 		.4byte	.LFE220
 12119 0534 0400     		.2byte	0x4
 12120 0536 F3       		.byte	0xf3
 12121 0537 01       		.uleb128 0x1
 12122 0538 50       		.byte	0x50
 12123 0539 9F       		.byte	0x9f
 12124 053a 00000000 		.4byte	0
 12125 053e 00000000 		.4byte	0
 12126              	.LVUS2:
ARM GAS  /tmp/ccvURch4.s 			page 216


 12127 0542 00       		.uleb128 .LVU51
 12128 0543 00       		.uleb128 .LVU57
 12129              	.LLST2:
 12130 0544 12000000 		.4byte	.LVL35
 12131 0548 19000000 		.4byte	.LVL37-1
 12132 054c 0100     		.2byte	0x1
 12133 054e 50       		.byte	0x50
 12134 054f 00000000 		.4byte	0
 12135 0553 00000000 		.4byte	0
 12136              	.LVUS3:
 12137 0557 00       		.uleb128 .LVU55
 12138 0558 00       		.uleb128 0
 12139              	.LLST3:
 12140 0559 14000000 		.4byte	.LVL36
 12141 055d 34000000 		.4byte	.LFE220
 12142 0561 0100     		.2byte	0x1
 12143 0563 54       		.byte	0x54
 12144 0564 00000000 		.4byte	0
 12145 0568 00000000 		.4byte	0
 12146              	.LVUS4:
 12147 056c 01       		.uleb128 .LVU52
 12148 056d 00       		.uleb128 .LVU55
 12149              	.LLST4:
 12150 056e 12000000 		.4byte	.LVL35
 12151 0572 14000000 		.4byte	.LVL36
 12152 0576 0100     		.2byte	0x1
 12153 0578 50       		.byte	0x50
 12154 0579 00000000 		.4byte	0
 12155 057d 00000000 		.4byte	0
 12156              	.LVUS13:
 12157 0581 00       		.uleb128 0
 12158 0582 00       		.uleb128 .LVU242
 12159 0583 00       		.uleb128 .LVU242
 12160 0584 00       		.uleb128 .LVU242
 12161 0585 00       		.uleb128 .LVU242
 12162 0586 00       		.uleb128 .LVU243
 12163 0587 00       		.uleb128 .LVU243
 12164 0588 00       		.uleb128 0
 12165              	.LLST13:
 12166 0589 00000000 		.4byte	.LVL99
 12167 058d 21000000 		.4byte	.LVL100-1
 12168 0591 0100     		.2byte	0x1
 12169 0593 50       		.byte	0x50
 12170 0594 21000000 		.4byte	.LVL100-1
 12171 0598 22000000 		.4byte	.LVL100
 12172 059c 0400     		.2byte	0x4
 12173 059e F3       		.byte	0xf3
 12174 059f 01       		.uleb128 0x1
 12175 05a0 50       		.byte	0x50
 12176 05a1 9F       		.byte	0x9f
 12177 05a2 22000000 		.4byte	.LVL100
 12178 05a6 25000000 		.4byte	.LVL101-1
 12179 05aa 0100     		.2byte	0x1
 12180 05ac 50       		.byte	0x50
 12181 05ad 25000000 		.4byte	.LVL101-1
 12182 05b1 2C000000 		.4byte	.LFE219
 12183 05b5 0400     		.2byte	0x4
ARM GAS  /tmp/ccvURch4.s 			page 217


 12184 05b7 F3       		.byte	0xf3
 12185 05b8 01       		.uleb128 0x1
 12186 05b9 50       		.byte	0x50
 12187 05ba 9F       		.byte	0x9f
 12188 05bb 00000000 		.4byte	0
 12189 05bf 00000000 		.4byte	0
 12190              		.section	.debug_aranges,"",%progbits
 12191 0000 CC000000 		.4byte	0xcc
 12192 0004 0200     		.2byte	0x2
 12193 0006 00000000 		.4byte	.Ldebug_info0
 12194 000a 04       		.byte	0x4
 12195 000b 00       		.byte	0
 12196 000c 0000     		.2byte	0
 12197 000e 0000     		.2byte	0
 12198 0010 00000000 		.4byte	.LFB235
 12199 0014 28000000 		.4byte	.LFE235-.LFB235
 12200 0018 00000000 		.4byte	.LFB241
 12201 001c 08010000 		.4byte	.LFE241-.LFB241
 12202 0020 00000000 		.4byte	.LFB220
 12203 0024 34000000 		.4byte	.LFE220-.LFB220
 12204 0028 00000000 		.4byte	.LFB228
 12205 002c 90000000 		.4byte	.LFE228-.LFB228
 12206 0030 00000000 		.4byte	.LFB221
 12207 0034 54000000 		.4byte	.LFE221-.LFB221
 12208 0038 00000000 		.4byte	.LFB222
 12209 003c 88000000 		.4byte	.LFE222-.LFB222
 12210 0040 00000000 		.4byte	.LFB223
 12211 0044 88000000 		.4byte	.LFE223-.LFB223
 12212 0048 00000000 		.4byte	.LFB224
 12213 004c E8000000 		.4byte	.LFE224-.LFB224
 12214 0050 00000000 		.4byte	.LFB219
 12215 0054 2C000000 		.4byte	.LFE219-.LFB219
 12216 0058 00000000 		.4byte	.LFB227
 12217 005c 94000000 		.4byte	.LFE227-.LFB227
 12218 0060 00000000 		.4byte	.LFB231
 12219 0064 20010000 		.4byte	.LFE231-.LFB231
 12220 0068 00000000 		.4byte	.LFB229
 12221 006c 4C000000 		.4byte	.LFE229-.LFB229
 12222 0070 00000000 		.4byte	.LFB230
 12223 0074 34000000 		.4byte	.LFE230-.LFB230
 12224 0078 00000000 		.4byte	.LFB237
 12225 007c 34000000 		.4byte	.LFE237-.LFB237
 12226 0080 00000000 		.4byte	.LFB233
 12227 0084 E0000000 		.4byte	.LFE233-.LFB233
 12228 0088 00000000 		.4byte	.LFB232
 12229 008c 4C000000 		.4byte	.LFE232-.LFB232
 12230 0090 00000000 		.4byte	.LFB238
 12231 0094 94000000 		.4byte	.LFE238-.LFB238
 12232 0098 00000000 		.4byte	.LFB240
 12233 009c 94000000 		.4byte	.LFE240-.LFB240
 12234 00a0 00000000 		.4byte	.LFB239
 12235 00a4 30000000 		.4byte	.LFE239-.LFB239
 12236 00a8 00000000 		.4byte	.LFB236
 12237 00ac E8000000 		.4byte	.LFE236-.LFB236
 12238 00b0 00000000 		.4byte	.LFB234
 12239 00b4 00010000 		.4byte	.LFE234-.LFB234
 12240 00b8 00000000 		.4byte	.LFB226
ARM GAS  /tmp/ccvURch4.s 			page 218


 12241 00bc 3C010000 		.4byte	.LFE226-.LFB226
 12242 00c0 00000000 		.4byte	.LFB225
 12243 00c4 70000000 		.4byte	.LFE225-.LFB225
 12244 00c8 00000000 		.4byte	0
 12245 00cc 00000000 		.4byte	0
 12246              		.section	.debug_ranges,"",%progbits
 12247              	.Ldebug_ranges0:
 12248 0000 04000000 		.4byte	.LBB145
 12249 0004 06000000 		.4byte	.LBE145
 12250 0008 08000000 		.4byte	.LBB153
 12251 000c 0A000000 		.4byte	.LBE153
 12252 0010 22000000 		.4byte	.LBB154
 12253 0014 22000000 		.4byte	.LBE154
 12254 0018 00000000 		.4byte	0
 12255 001c 00000000 		.4byte	0
 12256 0020 04000000 		.4byte	.LBB147
 12257 0024 06000000 		.4byte	.LBE147
 12258 0028 22000000 		.4byte	.LBB150
 12259 002c 22000000 		.4byte	.LBE150
 12260 0030 00000000 		.4byte	0
 12261 0034 00000000 		.4byte	0
 12262 0038 02000000 		.4byte	.LBB155
 12263 003c 04000000 		.4byte	.LBE155
 12264 0040 06000000 		.4byte	.LBB163
 12265 0044 08000000 		.4byte	.LBE163
 12266 0048 1A000000 		.4byte	.LBB164
 12267 004c 1A000000 		.4byte	.LBE164
 12268 0050 00000000 		.4byte	0
 12269 0054 00000000 		.4byte	0
 12270 0058 02000000 		.4byte	.LBB157
 12271 005c 04000000 		.4byte	.LBE157
 12272 0060 1A000000 		.4byte	.LBB160
 12273 0064 1A000000 		.4byte	.LBE160
 12274 0068 00000000 		.4byte	0
 12275 006c 00000000 		.4byte	0
 12276 0070 02000000 		.4byte	.LBB165
 12277 0074 04000000 		.4byte	.LBE165
 12278 0078 06000000 		.4byte	.LBB173
 12279 007c 08000000 		.4byte	.LBE173
 12280 0080 1A000000 		.4byte	.LBB174
 12281 0084 1A000000 		.4byte	.LBE174
 12282 0088 00000000 		.4byte	0
 12283 008c 00000000 		.4byte	0
 12284 0090 02000000 		.4byte	.LBB167
 12285 0094 04000000 		.4byte	.LBE167
 12286 0098 1A000000 		.4byte	.LBB170
 12287 009c 1A000000 		.4byte	.LBE170
 12288 00a0 00000000 		.4byte	0
 12289 00a4 00000000 		.4byte	0
 12290 00a8 02000000 		.4byte	.LBB175
 12291 00ac 04000000 		.4byte	.LBE175
 12292 00b0 06000000 		.4byte	.LBB183
 12293 00b4 08000000 		.4byte	.LBE183
 12294 00b8 1E000000 		.4byte	.LBB184
 12295 00bc 1E000000 		.4byte	.LBE184
 12296 00c0 00000000 		.4byte	0
 12297 00c4 00000000 		.4byte	0
ARM GAS  /tmp/ccvURch4.s 			page 219


 12298 00c8 02000000 		.4byte	.LBB177
 12299 00cc 04000000 		.4byte	.LBE177
 12300 00d0 1E000000 		.4byte	.LBB180
 12301 00d4 1E000000 		.4byte	.LBE180
 12302 00d8 00000000 		.4byte	0
 12303 00dc 00000000 		.4byte	0
 12304 00e0 2A000000 		.4byte	.LBB185
 12305 00e4 2C000000 		.4byte	.LBE185
 12306 00e8 2E000000 		.4byte	.LBB190
 12307 00ec 2E000000 		.4byte	.LBE190
 12308 00f0 00000000 		.4byte	0
 12309 00f4 00000000 		.4byte	0
 12310 00f8 40000000 		.4byte	.LBB191
 12311 00fc 42000000 		.4byte	.LBE191
 12312 0100 44000000 		.4byte	.LBB196
 12313 0104 44000000 		.4byte	.LBE196
 12314 0108 00000000 		.4byte	0
 12315 010c 00000000 		.4byte	0
 12316 0110 56000000 		.4byte	.LBB197
 12317 0114 58000000 		.4byte	.LBE197
 12318 0118 5A000000 		.4byte	.LBB202
 12319 011c 5A000000 		.4byte	.LBE202
 12320 0120 00000000 		.4byte	0
 12321 0124 00000000 		.4byte	0
 12322 0128 6C000000 		.4byte	.LBB203
 12323 012c 6E000000 		.4byte	.LBE203
 12324 0130 70000000 		.4byte	.LBB208
 12325 0134 70000000 		.4byte	.LBE208
 12326 0138 00000000 		.4byte	0
 12327 013c 00000000 		.4byte	0
 12328 0140 04000000 		.4byte	.LBB209
 12329 0144 06000000 		.4byte	.LBE209
 12330 0148 08000000 		.4byte	.LBB217
 12331 014c 0A000000 		.4byte	.LBE217
 12332 0150 22000000 		.4byte	.LBB218
 12333 0154 22000000 		.4byte	.LBE218
 12334 0158 00000000 		.4byte	0
 12335 015c 00000000 		.4byte	0
 12336 0160 04000000 		.4byte	.LBB211
 12337 0164 06000000 		.4byte	.LBE211
 12338 0168 22000000 		.4byte	.LBB214
 12339 016c 22000000 		.4byte	.LBE214
 12340 0170 00000000 		.4byte	0
 12341 0174 00000000 		.4byte	0
 12342 0178 04000000 		.4byte	.LBB219
 12343 017c 08000000 		.4byte	.LBE219
 12344 0180 0A000000 		.4byte	.LBB227
 12345 0184 0E000000 		.4byte	.LBE227
 12346 0188 26000000 		.4byte	.LBB228
 12347 018c 26000000 		.4byte	.LBE228
 12348 0190 00000000 		.4byte	0
 12349 0194 00000000 		.4byte	0
 12350 0198 04000000 		.4byte	.LBB221
 12351 019c 08000000 		.4byte	.LBE221
 12352 01a0 26000000 		.4byte	.LBB224
 12353 01a4 26000000 		.4byte	.LBE224
 12354 01a8 00000000 		.4byte	0
ARM GAS  /tmp/ccvURch4.s 			page 220


 12355 01ac 00000000 		.4byte	0
 12356 01b0 32000000 		.4byte	.LBB229
 12357 01b4 36000000 		.4byte	.LBE229
 12358 01b8 38000000 		.4byte	.LBB234
 12359 01bc 38000000 		.4byte	.LBE234
 12360 01c0 00000000 		.4byte	0
 12361 01c4 00000000 		.4byte	0
 12362 01c8 4A000000 		.4byte	.LBB235
 12363 01cc 4E000000 		.4byte	.LBE235
 12364 01d0 50000000 		.4byte	.LBB240
 12365 01d4 50000000 		.4byte	.LBE240
 12366 01d8 00000000 		.4byte	0
 12367 01dc 00000000 		.4byte	0
 12368 01e0 62000000 		.4byte	.LBB241
 12369 01e4 66000000 		.4byte	.LBE241
 12370 01e8 68000000 		.4byte	.LBB246
 12371 01ec 68000000 		.4byte	.LBE246
 12372 01f0 00000000 		.4byte	0
 12373 01f4 00000000 		.4byte	0
 12374 01f8 7A000000 		.4byte	.LBB247
 12375 01fc 7E000000 		.4byte	.LBE247
 12376 0200 80000000 		.4byte	.LBB252
 12377 0204 80000000 		.4byte	.LBE252
 12378 0208 00000000 		.4byte	0
 12379 020c 00000000 		.4byte	0
 12380 0210 04000000 		.4byte	.LBB253
 12381 0214 06000000 		.4byte	.LBE253
 12382 0218 10000000 		.4byte	.LBB263
 12383 021c 12000000 		.4byte	.LBE263
 12384 0220 22000000 		.4byte	.LBB264
 12385 0224 24000000 		.4byte	.LBE264
 12386 0228 00000000 		.4byte	0
 12387 022c 00000000 		.4byte	0
 12388 0230 04000000 		.4byte	.LBB255
 12389 0234 06000000 		.4byte	.LBE255
 12390 0238 10000000 		.4byte	.LBB259
 12391 023c 10000000 		.4byte	.LBE259
 12392 0240 22000000 		.4byte	.LBB260
 12393 0244 22000000 		.4byte	.LBE260
 12394 0248 00000000 		.4byte	0
 12395 024c 00000000 		.4byte	0
 12396 0250 04000000 		.4byte	.LBB265
 12397 0254 06000000 		.4byte	.LBE265
 12398 0258 1C000000 		.4byte	.LBB272
 12399 025c 1E000000 		.4byte	.LBE272
 12400 0260 00000000 		.4byte	0
 12401 0264 00000000 		.4byte	0
 12402 0268 04000000 		.4byte	.LBB267
 12403 026c 06000000 		.4byte	.LBE267
 12404 0270 1C000000 		.4byte	.LBB270
 12405 0274 1C000000 		.4byte	.LBE270
 12406 0278 00000000 		.4byte	0
 12407 027c 00000000 		.4byte	0
 12408 0280 32000000 		.4byte	.LBB273
 12409 0284 34000000 		.4byte	.LBE273
 12410 0288 36000000 		.4byte	.LBB278
 12411 028c 36000000 		.4byte	.LBE278
ARM GAS  /tmp/ccvURch4.s 			page 221


 12412 0290 00000000 		.4byte	0
 12413 0294 00000000 		.4byte	0
 12414 0298 48000000 		.4byte	.LBB279
 12415 029c 4A000000 		.4byte	.LBE279
 12416 02a0 4C000000 		.4byte	.LBB284
 12417 02a4 4C000000 		.4byte	.LBE284
 12418 02a8 00000000 		.4byte	0
 12419 02ac 00000000 		.4byte	0
 12420 02b0 5E000000 		.4byte	.LBB285
 12421 02b4 60000000 		.4byte	.LBE285
 12422 02b8 62000000 		.4byte	.LBB290
 12423 02bc 62000000 		.4byte	.LBE290
 12424 02c0 00000000 		.4byte	0
 12425 02c4 00000000 		.4byte	0
 12426 02c8 74000000 		.4byte	.LBB291
 12427 02cc 76000000 		.4byte	.LBE291
 12428 02d0 78000000 		.4byte	.LBB296
 12429 02d4 78000000 		.4byte	.LBE296
 12430 02d8 00000000 		.4byte	0
 12431 02dc 00000000 		.4byte	0
 12432 02e0 2E000000 		.4byte	.LBB311
 12433 02e4 34000000 		.4byte	.LBE311
 12434 02e8 40000000 		.4byte	.LBB336
 12435 02ec 40000000 		.4byte	.LBE336
 12436 02f0 40000000 		.4byte	.LBB337
 12437 02f4 4C000000 		.4byte	.LBE337
 12438 02f8 00000000 		.4byte	0
 12439 02fc 00000000 		.4byte	0
 12440 0300 2E000000 		.4byte	.LBB313
 12441 0304 34000000 		.4byte	.LBE313
 12442 0308 40000000 		.4byte	.LBB318
 12443 030c 40000000 		.4byte	.LBE318
 12444 0310 40000000 		.4byte	.LBB319
 12445 0314 44000000 		.4byte	.LBE319
 12446 0318 00000000 		.4byte	0
 12447 031c 00000000 		.4byte	0
 12448 0320 2E000000 		.4byte	.LBB314
 12449 0324 34000000 		.4byte	.LBE314
 12450 0328 40000000 		.4byte	.LBB317
 12451 032c 44000000 		.4byte	.LBE317
 12452 0330 00000000 		.4byte	0
 12453 0334 00000000 		.4byte	0
 12454 0338 34000000 		.4byte	.LBB322
 12455 033c 34000000 		.4byte	.LBE322
 12456 0340 34000000 		.4byte	.LBB335
 12457 0344 38000000 		.4byte	.LBE335
 12458 0348 72000000 		.4byte	.LBB338
 12459 034c 90000000 		.4byte	.LBE338
 12460 0350 90000000 		.4byte	.LBB339
 12461 0354 94000000 		.4byte	.LBE339
 12462 0358 00000000 		.4byte	0
 12463 035c 00000000 		.4byte	0
 12464 0360 34000000 		.4byte	.LBB324
 12465 0364 34000000 		.4byte	.LBE324
 12466 0368 34000000 		.4byte	.LBB329
 12467 036c 38000000 		.4byte	.LBE329
 12468 0370 90000000 		.4byte	.LBB330
ARM GAS  /tmp/ccvURch4.s 			page 222


 12469 0374 90000000 		.4byte	.LBE330
 12470 0378 90000000 		.4byte	.LBB331
 12471 037c 94000000 		.4byte	.LBE331
 12472 0380 00000000 		.4byte	0
 12473 0384 00000000 		.4byte	0
 12474 0388 34000000 		.4byte	.LBB325
 12475 038c 38000000 		.4byte	.LBE325
 12476 0390 90000000 		.4byte	.LBB328
 12477 0394 94000000 		.4byte	.LBE328
 12478 0398 00000000 		.4byte	0
 12479 039c 00000000 		.4byte	0
 12480 03a0 38000000 		.4byte	.LBB358
 12481 03a4 38000000 		.4byte	.LBE358
 12482 03a8 38000000 		.4byte	.LBB366
 12483 03ac 3C000000 		.4byte	.LBE366
 12484 03b0 9A000000 		.4byte	.LBB383
 12485 03b4 BA000000 		.4byte	.LBE383
 12486 03b8 00000000 		.4byte	0
 12487 03bc 00000000 		.4byte	0
 12488 03c0 38000000 		.4byte	.LBB360
 12489 03c4 38000000 		.4byte	.LBE360
 12490 03c8 38000000 		.4byte	.LBB363
 12491 03cc 3C000000 		.4byte	.LBE363
 12492 03d0 00000000 		.4byte	0
 12493 03d4 00000000 		.4byte	0
 12494 03d8 6C000000 		.4byte	.LBB375
 12495 03dc 6C000000 		.4byte	.LBE375
 12496 03e0 6C000000 		.4byte	.LBB382
 12497 03e4 7A000000 		.4byte	.LBE382
 12498 03e8 00000000 		.4byte	0
 12499 03ec 00000000 		.4byte	0
 12500 03f0 6C000000 		.4byte	.LBB377
 12501 03f4 6C000000 		.4byte	.LBE377
 12502 03f8 6C000000 		.4byte	.LBB380
 12503 03fc 72000000 		.4byte	.LBE380
 12504 0400 00000000 		.4byte	0
 12505 0404 00000000 		.4byte	0
 12506 0408 04000000 		.4byte	.LBB408
 12507 040c 06000000 		.4byte	.LBE408
 12508 0410 08000000 		.4byte	.LBB416
 12509 0414 0A000000 		.4byte	.LBE416
 12510 0418 26000000 		.4byte	.LBB431
 12511 041c 26000000 		.4byte	.LBE431
 12512 0420 00000000 		.4byte	0
 12513 0424 00000000 		.4byte	0
 12514 0428 04000000 		.4byte	.LBB410
 12515 042c 06000000 		.4byte	.LBE410
 12516 0430 26000000 		.4byte	.LBB413
 12517 0434 26000000 		.4byte	.LBE413
 12518 0438 00000000 		.4byte	0
 12519 043c 00000000 		.4byte	0
 12520 0440 16000000 		.4byte	.LBB417
 12521 0444 1A000000 		.4byte	.LBE417
 12522 0448 4A000000 		.4byte	.LBB443
 12523 044c 4A000000 		.4byte	.LBE443
 12524 0450 4A000000 		.4byte	.LBB444
 12525 0454 4E000000 		.4byte	.LBE444
ARM GAS  /tmp/ccvURch4.s 			page 223


 12526 0458 82000000 		.4byte	.LBB447
 12527 045c A0000000 		.4byte	.LBE447
 12528 0460 A0000000 		.4byte	.LBB448
 12529 0464 A4000000 		.4byte	.LBE448
 12530 0468 00000000 		.4byte	0
 12531 046c 00000000 		.4byte	0
 12532 0470 4A000000 		.4byte	.LBB419
 12533 0474 4A000000 		.4byte	.LBE419
 12534 0478 4A000000 		.4byte	.LBB424
 12535 047c 4E000000 		.4byte	.LBE424
 12536 0480 A0000000 		.4byte	.LBB425
 12537 0484 A0000000 		.4byte	.LBE425
 12538 0488 A0000000 		.4byte	.LBB426
 12539 048c A4000000 		.4byte	.LBE426
 12540 0490 00000000 		.4byte	0
 12541 0494 00000000 		.4byte	0
 12542 0498 4A000000 		.4byte	.LBB420
 12543 049c 4E000000 		.4byte	.LBE420
 12544 04a0 A0000000 		.4byte	.LBB423
 12545 04a4 A4000000 		.4byte	.LBE423
 12546 04a8 00000000 		.4byte	0
 12547 04ac 00000000 		.4byte	0
 12548 04b0 46000000 		.4byte	.LBB432
 12549 04b4 4A000000 		.4byte	.LBE432
 12550 04b8 56000000 		.4byte	.LBB445
 12551 04bc 56000000 		.4byte	.LBE445
 12552 04c0 56000000 		.4byte	.LBB446
 12553 04c4 62000000 		.4byte	.LBE446
 12554 04c8 00000000 		.4byte	0
 12555 04cc 00000000 		.4byte	0
 12556 04d0 46000000 		.4byte	.LBB434
 12557 04d4 4A000000 		.4byte	.LBE434
 12558 04d8 56000000 		.4byte	.LBB439
 12559 04dc 56000000 		.4byte	.LBE439
 12560 04e0 56000000 		.4byte	.LBB440
 12561 04e4 5A000000 		.4byte	.LBE440
 12562 04e8 00000000 		.4byte	0
 12563 04ec 00000000 		.4byte	0
 12564 04f0 46000000 		.4byte	.LBB435
 12565 04f4 4A000000 		.4byte	.LBE435
 12566 04f8 56000000 		.4byte	.LBB438
 12567 04fc 5A000000 		.4byte	.LBE438
 12568 0500 00000000 		.4byte	0
 12569 0504 00000000 		.4byte	0
 12570 0508 AE000000 		.4byte	.LBB449
 12571 050c AE000000 		.4byte	.LBE449
 12572 0510 AE000000 		.4byte	.LBB456
 12573 0514 BC000000 		.4byte	.LBE456
 12574 0518 00000000 		.4byte	0
 12575 051c 00000000 		.4byte	0
 12576 0520 AE000000 		.4byte	.LBB451
 12577 0524 AE000000 		.4byte	.LBE451
 12578 0528 AE000000 		.4byte	.LBB454
 12579 052c B4000000 		.4byte	.LBE454
 12580 0530 00000000 		.4byte	0
 12581 0534 00000000 		.4byte	0
 12582 0538 C6000000 		.4byte	.LBB457
ARM GAS  /tmp/ccvURch4.s 			page 224


 12583 053c DE000000 		.4byte	.LBE457
 12584 0540 DE000000 		.4byte	.LBB465
 12585 0544 E4000000 		.4byte	.LBE465
 12586 0548 0A010000 		.4byte	.LBB466
 12587 054c 12010000 		.4byte	.LBE466
 12588 0550 00000000 		.4byte	0
 12589 0554 00000000 		.4byte	0
 12590 0558 DE000000 		.4byte	.LBB459
 12591 055c DE000000 		.4byte	.LBE459
 12592 0560 DE000000 		.4byte	.LBB462
 12593 0564 E4000000 		.4byte	.LBE462
 12594 0568 00000000 		.4byte	0
 12595 056c 00000000 		.4byte	0
 12596 0570 04000000 		.4byte	.LBB479
 12597 0574 06000000 		.4byte	.LBE479
 12598 0578 10000000 		.4byte	.LBB482
 12599 057c 12000000 		.4byte	.LBE482
 12600 0580 00000000 		.4byte	0
 12601 0584 00000000 		.4byte	0
 12602 0588 12000000 		.4byte	.LBB483
 12603 058c 12000000 		.4byte	.LBE483
 12604 0590 12000000 		.4byte	.LBB490
 12605 0594 20000000 		.4byte	.LBE490
 12606 0598 00000000 		.4byte	0
 12607 059c 00000000 		.4byte	0
 12608 05a0 12000000 		.4byte	.LBB485
 12609 05a4 12000000 		.4byte	.LBE485
 12610 05a8 12000000 		.4byte	.LBB488
 12611 05ac 18000000 		.4byte	.LBE488
 12612 05b0 00000000 		.4byte	0
 12613 05b4 00000000 		.4byte	0
 12614 05b8 2C000000 		.4byte	.LBB491
 12615 05bc 44000000 		.4byte	.LBE491
 12616 05c0 44000000 		.4byte	.LBB499
 12617 05c4 4A000000 		.4byte	.LBE499
 12618 05c8 58000000 		.4byte	.LBB500
 12619 05cc 60000000 		.4byte	.LBE500
 12620 05d0 00000000 		.4byte	0
 12621 05d4 00000000 		.4byte	0
 12622 05d8 44000000 		.4byte	.LBB493
 12623 05dc 44000000 		.4byte	.LBE493
 12624 05e0 44000000 		.4byte	.LBB496
 12625 05e4 4A000000 		.4byte	.LBE496
 12626 05e8 00000000 		.4byte	0
 12627 05ec 00000000 		.4byte	0
 12628 05f0 00000000 		.4byte	.LFB235
 12629 05f4 28000000 		.4byte	.LFE235
 12630 05f8 00000000 		.4byte	.LFB241
 12631 05fc 08010000 		.4byte	.LFE241
 12632 0600 00000000 		.4byte	.LFB220
 12633 0604 34000000 		.4byte	.LFE220
 12634 0608 00000000 		.4byte	.LFB228
 12635 060c 90000000 		.4byte	.LFE228
 12636 0610 00000000 		.4byte	.LFB221
 12637 0614 54000000 		.4byte	.LFE221
 12638 0618 00000000 		.4byte	.LFB222
 12639 061c 88000000 		.4byte	.LFE222
ARM GAS  /tmp/ccvURch4.s 			page 225


 12640 0620 00000000 		.4byte	.LFB223
 12641 0624 88000000 		.4byte	.LFE223
 12642 0628 00000000 		.4byte	.LFB224
 12643 062c E8000000 		.4byte	.LFE224
 12644 0630 00000000 		.4byte	.LFB219
 12645 0634 2C000000 		.4byte	.LFE219
 12646 0638 00000000 		.4byte	.LFB227
 12647 063c 94000000 		.4byte	.LFE227
 12648 0640 00000000 		.4byte	.LFB231
 12649 0644 20010000 		.4byte	.LFE231
 12650 0648 00000000 		.4byte	.LFB229
 12651 064c 4C000000 		.4byte	.LFE229
 12652 0650 00000000 		.4byte	.LFB230
 12653 0654 34000000 		.4byte	.LFE230
 12654 0658 00000000 		.4byte	.LFB237
 12655 065c 34000000 		.4byte	.LFE237
 12656 0660 00000000 		.4byte	.LFB233
 12657 0664 E0000000 		.4byte	.LFE233
 12658 0668 00000000 		.4byte	.LFB232
 12659 066c 4C000000 		.4byte	.LFE232
 12660 0670 00000000 		.4byte	.LFB238
 12661 0674 94000000 		.4byte	.LFE238
 12662 0678 00000000 		.4byte	.LFB240
 12663 067c 94000000 		.4byte	.LFE240
 12664 0680 00000000 		.4byte	.LFB239
 12665 0684 30000000 		.4byte	.LFE239
 12666 0688 00000000 		.4byte	.LFB236
 12667 068c E8000000 		.4byte	.LFE236
 12668 0690 00000000 		.4byte	.LFB234
 12669 0694 00010000 		.4byte	.LFE234
 12670 0698 00000000 		.4byte	.LFB226
 12671 069c 3C010000 		.4byte	.LFE226
 12672 06a0 00000000 		.4byte	.LFB225
 12673 06a4 70000000 		.4byte	.LFE225
 12674 06a8 00000000 		.4byte	0
 12675 06ac 00000000 		.4byte	0
 12676              		.section	.debug_line,"",%progbits
 12677              	.Ldebug_line0:
 12678 0000 E2110000 		.section	.debug_str,"MS",%progbits,1
 12678      03002302 
 12678      00000201 
 12678      FB0E0D00 
 12678      01010101 
 12679              	.LASF49:
 12680 0000 705F7374 		.ascii	"p_stats\000"
 12680      61747300 
 12681              	.LASF5:
 12682 0008 73697A65 		.ascii	"size_t\000"
 12682      5F7400
 12683              	.LASF119:
 12684 000f 77747365 		.ascii	"wtsemp\000"
 12684      6D7000
 12685              	.LASF142:
 12686 0016 63665F6F 		.ascii	"cf_off_name\000"
 12686      66665F6E 
 12686      616D6500 
 12687              	.LASF27:
ARM GAS  /tmp/ccvURch4.s 			page 226


 12688 0022 73797374 		.ascii	"systime_t\000"
 12688      696D655F 
 12688      7400
 12689              	.LASF212:
 12690 002c 626D6B32 		.ascii	"bmk2_execute\000"
 12690      5F657865 
 12690      63757465 
 12690      00
 12691              	.LASF131:
 12692 0039 63685F69 		.ascii	"ch_identifier\000"
 12692      64656E74 
 12692      69666965 
 12692      7200
 12693              	.LASF32:
 12694 0047 705F6374 		.ascii	"p_ctx\000"
 12694      7800
 12695              	.LASF259:
 12696 004d 63684D73 		.ascii	"chMsgRelease\000"
 12696      6752656C 
 12696      65617365 
 12696      00
 12697              	.LASF22:
 12698 005a 74707269 		.ascii	"tprio_t\000"
 12698      6F5F7400 
 12699              	.LASF193:
 12700 0062 626D6B31 		.ascii	"bmk12_execute\000"
 12700      325F6578 
 12700      65637574 
 12700      6500
 12701              	.LASF235:
 12702 0070 63685365 		.ascii	"chSemWait\000"
 12702      6D576169 
 12702      7400
 12703              	.LASF150:
 12704 007a 63685F64 		.ascii	"ch_debug\000"
 12704      65627567 
 12704      00
 12705              	.LASF264:
 12706 0083 74657374 		.ascii	"test_buffers\000"
 12706      5F627566 
 12706      66657273 
 12706      00
 12707              	.LASF43:
 12708 0090 705F6D73 		.ascii	"p_msgqueue\000"
 12708      67717565 
 12708      756500
 12709              	.LASF60:
 12710 009b 725F6374 		.ascii	"r_ctx\000"
 12710      7800
 12711              	.LASF6:
 12712 00a1 696E7433 		.ascii	"int32_t\000"
 12712      325F7400 
 12713              	.LASF139:
 12714 00a9 63665F6F 		.ascii	"cf_off_ctx\000"
 12714      66665F63 
 12714      747800
 12715              	.LASF64:
ARM GAS  /tmp/ccvURch4.s 			page 227


 12716 00b4 76746675 		.ascii	"vtfunc_t\000"
 12716      6E635F74 
 12716      00
 12717              	.LASF73:
 12718 00bd 63685F76 		.ascii	"ch_virtual_timers_list\000"
 12718      69727475 
 12718      616C5F74 
 12718      696D6572 
 12718      735F6C69 
 12719              	.LASF219:
 12720 00d4 63685468 		.ascii	"chThdGetPriorityX\000"
 12720      64476574 
 12720      5072696F 
 12720      72697479 
 12720      5800
 12721              	.LASF266:
 12722 00e6 5F5F6675 		.ascii	"__func__\000"
 12722      6E635F5F 
 12722      00
 12723              	.LASF79:
 12724 00ef 6C6F636B 		.ascii	"lock_cnt\000"
 12724      5F636E74 
 12724      00
 12725              	.LASF135:
 12726 00f8 63685F70 		.ascii	"ch_ptrsize\000"
 12726      74727369 
 12726      7A6500
 12727              	.LASF244:
 12728 0103 63685654 		.ascii	"chVTDoResetI\000"
 12728      446F5265 
 12728      73657449 
 12728      00
 12729              	.LASF95:
 12730 0110 73655F74 		.ascii	"se_tp\000"
 12730      7000
 12731              	.LASF109:
 12732 0116 74696D65 		.ascii	"time_measurement_t\000"
 12732      5F6D6561 
 12732      73757265 
 12732      6D656E74 
 12732      5F7400
 12733              	.LASF246:
 12734 0129 63684951 		.ascii	"chIQObjectInit\000"
 12734      4F626A65 
 12734      6374496E 
 12734      697400
 12735              	.LASF262:
 12736 0138 2E2F2F43 		.ascii	".//ChibiOS//test/rt/testbmk.c\000"
 12736      68696269 
 12736      4F532F2F 
 12736      74657374 
 12736      2F72742F 
 12737              	.LASF206:
 12738 0156 7072696F 		.ascii	"prio\000"
 12738      00
 12739              	.LASF240:
 12740 015b 5F646267 		.ascii	"_dbg_check_unlock\000"
ARM GAS  /tmp/ccvURch4.s 			page 228


 12740      5F636865 
 12740      636B5F75 
 12740      6E6C6F63 
 12740      6B00
 12741              	.LASF127:
 12742 016d 6D5F6F77 		.ascii	"m_owner\000"
 12742      6E657200 
 12743              	.LASF71:
 12744 0175 76745F70 		.ascii	"vt_par\000"
 12744      617200
 12745              	.LASF116:
 12746 017c 65786974 		.ascii	"exitcode\000"
 12746      636F6465 
 12746      00
 12747              	.LASF243:
 12748 0185 63685654 		.ascii	"chVTDoSetI\000"
 12748      446F5365 
 12748      744900
 12749              	.LASF202:
 12750 0190 626D6B37 		.ascii	"bmk7_execute\000"
 12750      5F657865 
 12750      63757465 
 12750      00
 12751              	.LASF158:
 12752 019d 715F746F 		.ascii	"q_top\000"
 12752      7000
 12753              	.LASF121:
 12754 01a3 65776D61 		.ascii	"ewmask\000"
 12754      736B00
 12755              	.LASF137:
 12756 01aa 63685F74 		.ascii	"ch_threadsize\000"
 12756      68726561 
 12756      6473697A 
 12756      6500
 12757              	.LASF157:
 12758 01b8 715F6275 		.ascii	"q_buffer\000"
 12758      66666572 
 12758      00
 12759              	.LASF254:
 12760 01c1 63685468 		.ascii	"chThdWait\000"
 12760      64576169 
 12760      7400
 12761              	.LASF161:
 12762 01cb 715F6E6F 		.ascii	"q_notify\000"
 12762      74696679 
 12762      00
 12763              	.LASF33:
 12764 01d4 705F6E65 		.ascii	"p_newer\000"
 12764      77657200 
 12765              	.LASF7:
 12766 01dc 6C6F6E67 		.ascii	"long int\000"
 12766      20696E74 
 12766      00
 12767              	.LASF29:
 12768 01e5 705F6E65 		.ascii	"p_next\000"
 12768      787400
 12769              	.LASF222:
ARM GAS  /tmp/ccvURch4.s 			page 229


 12770 01ec 706F7274 		.ascii	"port_unlock\000"
 12770      5F756E6C 
 12770      6F636B00 
 12771              	.LASF160:
 12772 01f8 715F7264 		.ascii	"q_rdptr\000"
 12772      70747200 
 12773              	.LASF233:
 12774 0200 63684D74 		.ascii	"chMtxUnlock\000"
 12774      78556E6C 
 12774      6F636B00 
 12775              	.LASF227:
 12776 020c 74657374 		.ascii	"test_print\000"
 12776      5F707269 
 12776      6E7400
 12777              	.LASF144:
 12778 0217 63665F6F 		.ascii	"cf_off_state\000"
 12778      66665F73 
 12778      74617465 
 12778      00
 12779              	.LASF30:
 12780 0224 705F7072 		.ascii	"p_prev\000"
 12780      657600
 12781              	.LASF174:
 12782 022b 74657374 		.ascii	"test\000"
 12782      00
 12783              	.LASF19:
 12784 0230 74737461 		.ascii	"tstate_t\000"
 12784      74655F74 
 12784      00
 12785              	.LASF17:
 12786 0239 72747469 		.ascii	"rttime_t\000"
 12786      6D655F74 
 12786      00
 12787              	.LASF54:
 12788 0242 74687265 		.ascii	"threads_queue_t\000"
 12788      6164735F 
 12788      71756575 
 12788      655F7400 
 12789              	.LASF46:
 12790 0252 705F6D74 		.ascii	"p_mtxlist\000"
 12790      786C6973 
 12790      7400
 12791              	.LASF90:
 12792 025c 72656761 		.ascii	"regarm_t\000"
 12792      726D5F74 
 12792      00
 12793              	.LASF260:
 12794 0265 63685468 		.ascii	"chThdExit\000"
 12794      64457869 
 12794      7400
 12795              	.LASF154:
 12796 026f 696F5F71 		.ascii	"io_queue\000"
 12796      75657565 
 12796      00
 12797              	.LASF191:
 12798 0278 70617474 		.ascii	"patternbmk\000"
 12798      65726E62 
ARM GAS  /tmp/ccvURch4.s 			page 230


 12798      6D6B00
 12799              	.LASF241:
 12800 0283 5F737461 		.ascii	"_stats_stop_measure_crit_thd\000"
 12800      74735F73 
 12800      746F705F 
 12800      6D656173 
 12800      7572655F 
 12801              	.LASF108:
 12802 02a0 63756D75 		.ascii	"cumulative\000"
 12802      6C617469 
 12802      766500
 12803              	.LASF3:
 12804 02ab 7369676E 		.ascii	"signed char\000"
 12804      65642063 
 12804      68617200 
 12805              	.LASF40:
 12806 02b7 705F7072 		.ascii	"p_preempt\000"
 12806      65656D70 
 12806      7400
 12807              	.LASF8:
 12808 02c1 75696E74 		.ascii	"uint8_t\000"
 12808      385F7400 
 12809              	.LASF204:
 12810 02c9 74687265 		.ascii	"thread3\000"
 12810      61643300 
 12811              	.LASF24:
 12812 02d1 6576656E 		.ascii	"eventmask_t\000"
 12812      746D6173 
 12812      6B5F7400 
 12813              	.LASF92:
 12814 02dd 636F6E74 		.ascii	"context\000"
 12814      65787400 
 12815              	.LASF118:
 12816 02e5 77747472 		.ascii	"wttrp\000"
 12816      7000
 12817              	.LASF9:
 12818 02eb 756E7369 		.ascii	"unsigned char\000"
 12818      676E6564 
 12818      20636861 
 12818      7200
 12819              	.LASF162:
 12820 02f9 715F6C69 		.ascii	"q_link\000"
 12820      6E6B00
 12821              	.LASF77:
 12822 0300 70616E69 		.ascii	"panic_msg\000"
 12822      635F6D73 
 12822      6700
 12823              	.LASF211:
 12824 030a 626D6B33 		.ascii	"bmk3_execute\000"
 12824      5F657865 
 12824      63757465 
 12824      00
 12825              	.LASF80:
 12826 0317 74726163 		.ascii	"trace_buffer\000"
 12826      655F6275 
 12826      66666572 
 12826      00
ARM GAS  /tmp/ccvURch4.s 			page 231


 12827              	.LASF61:
 12828 0324 725F6E65 		.ascii	"r_newer\000"
 12828      77657200 
 12829              	.LASF192:
 12830 032c 626D6B31 		.ascii	"bmk13_execute\000"
 12830      335F6578 
 12830      65637574 
 12830      6500
 12831              	.LASF75:
 12832 033a 73797374 		.ascii	"system_debug_t\000"
 12832      656D5F64 
 12832      65627567 
 12832      5F7400
 12833              	.LASF172:
 12834 0349 5F426F6F 		.ascii	"_Bool\000"
 12834      6C00
 12835              	.LASF255:
 12836 034f 63685363 		.ascii	"chSchWakeupS\000"
 12836      6857616B 
 12836      65757053 
 12836      00
 12837              	.LASF213:
 12838 035c 626D6B31 		.ascii	"bmk1_execute\000"
 12838      5F657865 
 12838      63757465 
 12838      00
 12839              	.LASF226:
 12840 0369 76616C75 		.ascii	"value\000"
 12840      6500
 12841              	.LASF130:
 12842 036f 63686172 		.ascii	"char\000"
 12842      00
 12843              	.LASF231:
 12844 0374 74657374 		.ascii	"test_start_timer\000"
 12844      5F737461 
 12844      72745F74 
 12844      696D6572 
 12844      00
 12845              	.LASF31:
 12846 0385 705F7072 		.ascii	"p_prio\000"
 12846      696F00
 12847              	.LASF129:
 12848 038c 6D5F636E 		.ascii	"m_cnt\000"
 12848      7400
 12849              	.LASF117:
 12850 0392 77746F62 		.ascii	"wtobjp\000"
 12850      6A7000
 12851              	.LASF111:
 12852 0399 6E5F6374 		.ascii	"n_ctxswc\000"
 12852      78737763 
 12852      00
 12853              	.LASF140:
 12854 03a2 63665F6F 		.ascii	"cf_off_newer\000"
 12854      66665F6E 
 12854      65776572 
 12854      00
 12855              	.LASF91:
ARM GAS  /tmp/ccvURch4.s 			page 232


 12856 03af 73746B61 		.ascii	"stkalign_t\000"
 12856      6C69676E 
 12856      5F7400
 12857              	.LASF138:
 12858 03ba 63665F6F 		.ascii	"cf_off_prio\000"
 12858      66665F70 
 12858      72696F00 
 12859              	.LASF106:
 12860 03c6 776F7273 		.ascii	"worst\000"
 12860      7400
 12861              	.LASF199:
 12862 03cc 626D6B38 		.ascii	"bmk8_execute\000"
 12862      5F657865 
 12862      63757465 
 12862      00
 12863              	.LASF25:
 12864 03d9 636E745F 		.ascii	"cnt_t\000"
 12864      7400
 12865              	.LASF249:
 12866 03df 63685468 		.ascii	"chThdSleep\000"
 12866      64536C65 
 12866      657000
 12867              	.LASF70:
 12868 03ea 76745F66 		.ascii	"vt_func\000"
 12868      756E6300 
 12869              	.LASF170:
 12870 03f2 62756666 		.ascii	"buffer\000"
 12870      657200
 12871              	.LASF167:
 12872 03f9 73657475 		.ascii	"setup\000"
 12872      7000
 12873              	.LASF102:
 12874 03ff 63685F74 		.ascii	"ch_trace_buffer_t\000"
 12874      72616365 
 12874      5F627566 
 12874      6665725F 
 12874      7400
 12875              	.LASF45:
 12876 0411 705F6570 		.ascii	"p_epending\000"
 12876      656E6469 
 12876      6E6700
 12877              	.LASF120:
 12878 041c 77746D74 		.ascii	"wtmtxp\000"
 12878      787000
 12879              	.LASF57:
 12880 0423 63685F72 		.ascii	"ch_ready_list\000"
 12880      65616479 
 12880      5F6C6973 
 12880      7400
 12881              	.LASF256:
 12882 0431 63685363 		.ascii	"chSchGoSleepS\000"
 12882      68476F53 
 12882      6C656570 
 12882      5300
 12883              	.LASF175:
 12884 043f 74657374 		.ascii	"test_timer_done\000"
 12884      5F74696D 
ARM GAS  /tmp/ccvURch4.s 			page 233


 12884      65725F64 
 12884      6F6E6500 
 12885              	.LASF78:
 12886 044f 6973725F 		.ascii	"isr_cnt\000"
 12886      636E7400 
 12887              	.LASF113:
 12888 0457 6D5F6372 		.ascii	"m_crit_isr\000"
 12888      69745F69 
 12888      737200
 12889              	.LASF156:
 12890 0462 715F636F 		.ascii	"q_counter\000"
 12890      756E7465 
 12890      7200
 12891              	.LASF97:
 12892 046c 73655F73 		.ascii	"se_state\000"
 12892      74617465 
 12892      00
 12893              	.LASF112:
 12894 0475 6D5F6372 		.ascii	"m_crit_thd\000"
 12894      69745F74 
 12894      686400
 12895              	.LASF224:
 12896 0480 63685379 		.ascii	"chSysUnlock\000"
 12896      73556E6C 
 12896      6F636B00 
 12897              	.LASF13:
 12898 048c 6C6F6E67 		.ascii	"long unsigned int\000"
 12898      20756E73 
 12898      69676E65 
 12898      6420696E 
 12898      7400
 12899              	.LASF132:
 12900 049e 63685F7A 		.ascii	"ch_zero\000"
 12900      65726F00 
 12901              	.LASF221:
 12902 04a6 63685379 		.ascii	"chSysLock\000"
 12902      734C6F63 
 12902      6B00
 12903              	.LASF210:
 12904 04b0 73656C66 		.ascii	"self\000"
 12904      00
 12905              	.LASF236:
 12906 04b5 63685365 		.ascii	"chSemSignal\000"
 12906      6D536967 
 12906      6E616C00 
 12907              	.LASF201:
 12908 04c1 70617261 		.ascii	"param\000"
 12908      6D00
 12909              	.LASF89:
 12910 04c7 53797374 		.ascii	"SystemCoreClock\000"
 12910      656D436F 
 12910      7265436C 
 12910      6F636B00 
 12911              	.LASF122:
 12912 04d7 63685F73 		.ascii	"ch_semaphore\000"
 12912      656D6170 
 12912      686F7265 
ARM GAS  /tmp/ccvURch4.s 			page 234


 12912      00
 12913              	.LASF176:
 12914 04e4 73656D31 		.ascii	"sem1\000"
 12914      00
 12915              	.LASF52:
 12916 04e9 63685F74 		.ascii	"ch_thread\000"
 12916      68726561 
 12916      6400
 12917              	.LASF72:
 12918 04f3 76697274 		.ascii	"virtual_timers_list_t\000"
 12918      75616C5F 
 12918      74696D65 
 12918      72735F6C 
 12918      6973745F 
 12919              	.LASF65:
 12920 0509 76697274 		.ascii	"virtual_timer_t\000"
 12920      75616C5F 
 12920      74696D65 
 12920      725F7400 
 12921              	.LASF56:
 12922 0519 72656164 		.ascii	"ready_list_t\000"
 12922      795F6C69 
 12922      73745F74 
 12922      00
 12923              	.LASF159:
 12924 0526 715F7772 		.ascii	"q_wrptr\000"
 12924      70747200 
 12925              	.LASF26:
 12926 052e 75636E74 		.ascii	"ucnt_t\000"
 12926      5F7400
 12927              	.LASF208:
 12928 0535 626D6B34 		.ascii	"bmk4_execute\000"
 12928      5F657865 
 12928      63757465 
 12928      00
 12929              	.LASF177:
 12930 0542 6D747831 		.ascii	"mtx1\000"
 12930      00
 12931              	.LASF178:
 12932 0547 74657374 		.ascii	"testbmk1\000"
 12932      626D6B31 
 12932      00
 12933              	.LASF179:
 12934 0550 74657374 		.ascii	"testbmk2\000"
 12934      626D6B32 
 12934      00
 12935              	.LASF53:
 12936 0559 63685F74 		.ascii	"ch_threads_list\000"
 12936      68726561 
 12936      64735F6C 
 12936      69737400 
 12937              	.LASF181:
 12938 0569 74657374 		.ascii	"testbmk4\000"
 12938      626D6B34 
 12938      00
 12939              	.LASF182:
 12940 0572 74657374 		.ascii	"testbmk5\000"
ARM GAS  /tmp/ccvURch4.s 			page 235


 12940      626D6B35 
 12940      00
 12941              	.LASF98:
 12942 057b 63685F73 		.ascii	"ch_swc_event_t\000"
 12942      77635F65 
 12942      76656E74 
 12942      5F7400
 12943              	.LASF184:
 12944 058a 74657374 		.ascii	"testbmk7\000"
 12944      626D6B37 
 12944      00
 12945              	.LASF185:
 12946 0593 74657374 		.ascii	"testbmk8\000"
 12946      626D6B38 
 12946      00
 12947              	.LASF186:
 12948 059c 74657374 		.ascii	"testbmk9\000"
 12948      626D6B39 
 12948      00
 12949              	.LASF110:
 12950 05a5 6E5F6972 		.ascii	"n_irq\000"
 12950      7100
 12951              	.LASF203:
 12952 05ab 626D6B37 		.ascii	"bmk7_setup\000"
 12952      5F736574 
 12952      757000
 12953              	.LASF147:
 12954 05b6 63665F6F 		.ascii	"cf_off_preempt\000"
 12954      66665F70 
 12954      7265656D 
 12954      707400
 12955              	.LASF267:
 12956 05c5 5F5F7374 		.ascii	"__stack_chk_fail\000"
 12956      61636B5F 
 12956      63686B5F 
 12956      6661696C 
 12956      00
 12957              	.LASF1:
 12958 05d6 6C6F6E67 		.ascii	"long long int\000"
 12958      206C6F6E 
 12958      6720696E 
 12958      7400
 12959              	.LASF134:
 12960 05e4 63685F76 		.ascii	"ch_version\000"
 12960      65727369 
 12960      6F6E00
 12961              	.LASF126:
 12962 05ef 6D5F7175 		.ascii	"m_queue\000"
 12962      65756500 
 12963              	.LASF67:
 12964 05f7 76745F6E 		.ascii	"vt_next\000"
 12964      65787400 
 12965              	.LASF248:
 12966 05ff 63685468 		.ascii	"chThdCreateStatic\000"
 12966      64437265 
 12966      61746553 
 12966      74617469 
ARM GAS  /tmp/ccvURch4.s 			page 236


 12966      6300
 12967              	.LASF257:
 12968 0611 63684D73 		.ascii	"chMsgSend\000"
 12968      6753656E 
 12968      6400
 12969              	.LASF68:
 12970 061b 76745F70 		.ascii	"vt_prev\000"
 12970      72657600 
 12971              	.LASF253:
 12972 0623 63685365 		.ascii	"chSemReset\000"
 12972      6D526573 
 12972      657400
 12973              	.LASF99:
 12974 062e 74625F73 		.ascii	"tb_size\000"
 12974      697A6500 
 12975              	.LASF251:
 12976 0636 74657374 		.ascii	"test_wait_threads\000"
 12976      5F776169 
 12976      745F7468 
 12976      72656164 
 12976      7300
 12977              	.LASF232:
 12978 0648 63684D74 		.ascii	"chMtxLock\000"
 12978      784C6F63 
 12978      6B00
 12979              	.LASF88:
 12980 0652 49544D5F 		.ascii	"ITM_RxBuffer\000"
 12980      52784275 
 12980      66666572 
 12980      00
 12981              	.LASF163:
 12982 065f 716E6F74 		.ascii	"qnotify_t\000"
 12982      6966795F 
 12982      7400
 12983              	.LASF42:
 12984 0669 705F7761 		.ascii	"p_waiting\000"
 12984      6974696E 
 12984      6700
 12985              	.LASF96:
 12986 0673 73655F77 		.ascii	"se_wtobjp\000"
 12986      746F626A 
 12986      7000
 12987              	.LASF38:
 12988 067d 705F666C 		.ascii	"p_flags\000"
 12988      61677300 
 12989              	.LASF230:
 12990 0685 74657374 		.ascii	"test_wait_tick\000"
 12990      5F776169 
 12990      745F7469 
 12990      636B00
 12991              	.LASF87:
 12992 0694 69646C65 		.ascii	"idle_thread_wa\000"
 12992      5F746872 
 12992      6561645F 
 12992      776100
 12993              	.LASF0:
 12994 06a3 756E7369 		.ascii	"unsigned int\000"
ARM GAS  /tmp/ccvURch4.s 			page 237


 12994      676E6564 
 12994      20696E74 
 12994      00
 12995              	.LASF198:
 12996 06b0 626D6B39 		.ascii	"bmk9_execute\000"
 12996      5F657865 
 12996      63757465 
 12996      00
 12997              	.LASF16:
 12998 06bd 7274636E 		.ascii	"rtcnt_t\000"
 12998      745F7400 
 12999              	.LASF48:
 13000 06c5 705F6D70 		.ascii	"p_mpool\000"
 13000      6F6F6C00 
 13001              	.LASF245:
 13002 06cd 63684951 		.ascii	"chIQGetTimeout\000"
 13002      47657454 
 13002      696D656F 
 13002      757400
 13003              	.LASF39:
 13004 06dc 705F7265 		.ascii	"p_refs\000"
 13004      667300
 13005              	.LASF136:
 13006 06e3 63685F74 		.ascii	"ch_timesize\000"
 13006      696D6573 
 13006      697A6500 
 13007              	.LASF197:
 13008 06ef 626D6B31 		.ascii	"bmk10_execute\000"
 13008      305F6578 
 13008      65637574 
 13008      6500
 13009              	.LASF114:
 13010 06fd 6B65726E 		.ascii	"kernel_stats_t\000"
 13010      656C5F73 
 13010      74617473 
 13010      5F7400
 13011              	.LASF168:
 13012 070c 74656172 		.ascii	"teardown\000"
 13012      646F776E 
 13012      00
 13013              	.LASF103:
 13014 0715 6F666673 		.ascii	"offset\000"
 13014      657400
 13015              	.LASF101:
 13016 071c 74625F62 		.ascii	"tb_buffer\000"
 13016      75666665 
 13016      7200
 13017              	.LASF187:
 13018 0726 74657374 		.ascii	"testbmk10\000"
 13018      626D6B31 
 13018      3000
 13019              	.LASF188:
 13020 0730 74657374 		.ascii	"testbmk11\000"
 13020      626D6B31 
 13020      3100
 13021              	.LASF189:
 13022 073a 74657374 		.ascii	"testbmk12\000"
ARM GAS  /tmp/ccvURch4.s 			page 238


 13022      626D6B31 
 13022      3200
 13023              	.LASF190:
 13024 0744 74657374 		.ascii	"testbmk13\000"
 13024      626D6B31 
 13024      3300
 13025              	.LASF41:
 13026 074e 705F7469 		.ascii	"p_time\000"
 13026      6D6500
 13027              	.LASF146:
 13028 0755 63665F6F 		.ascii	"cf_off_refs\000"
 13028      66665F72 
 13028      65667300 
 13029              	.LASF216:
 13030 0761 63684951 		.ascii	"chIQGet\000"
 13030      47657400 
 13031              	.LASF28:
 13032 0769 74687265 		.ascii	"thread_t\000"
 13032      61645F74 
 13032      00
 13033              	.LASF2:
 13034 0772 6C6F6E67 		.ascii	"long double\000"
 13034      20646F75 
 13034      626C6500 
 13035              	.LASF50:
 13036 077e 74687265 		.ascii	"thread_reference_t\000"
 13036      61645F72 
 13036      65666572 
 13036      656E6365 
 13036      5F7400
 13037              	.LASF47:
 13038 0791 705F7265 		.ascii	"p_realprio\000"
 13038      616C7072 
 13038      696F00
 13039              	.LASF93:
 13040 079c 706F7274 		.ascii	"port_intctx\000"
 13040      5F696E74 
 13040      63747800 
 13041              	.LASF148:
 13042 07a8 63665F6F 		.ascii	"cf_off_time\000"
 13042      66665F74 
 13042      696D6500 
 13043              	.LASF69:
 13044 07b4 76745F64 		.ascii	"vt_delta\000"
 13044      656C7461 
 13044      00
 13045              	.LASF66:
 13046 07bd 63685F76 		.ascii	"ch_virtual_timer\000"
 13046      69727475 
 13046      616C5F74 
 13046      696D6572 
 13046      00
 13047              	.LASF124:
 13048 07ce 735F636E 		.ascii	"s_cnt\000"
 13048      7400
 13049              	.LASF207:
 13050 07d4 626D6B35 		.ascii	"bmk5_execute\000"
ARM GAS  /tmp/ccvURch4.s 			page 239


 13050      5F657865 
 13050      63757465 
 13050      00
 13051              	.LASF86:
 13052 07e1 6B65726E 		.ascii	"kernel_stats\000"
 13052      656C5F73 
 13052      74617473 
 13052      00
 13053              	.LASF15:
 13054 07ee 6C6F6E67 		.ascii	"long long unsigned int\000"
 13054      206C6F6E 
 13054      6720756E 
 13054      7369676E 
 13054      65642069 
 13055              	.LASF34:
 13056 0805 705F6F6C 		.ascii	"p_older\000"
 13056      64657200 
 13057              	.LASF10:
 13058 080d 75696E74 		.ascii	"uint16_t\000"
 13058      31365F74 
 13058      00
 13059              	.LASF23:
 13060 0816 6D73675F 		.ascii	"msg_t\000"
 13060      7400
 13061              	.LASF55:
 13062 081c 63685F74 		.ascii	"ch_threads_queue\000"
 13062      68726561 
 13062      64735F71 
 13062      75657565 
 13062      00
 13063              	.LASF145:
 13064 082d 63665F6F 		.ascii	"cf_off_flags\000"
 13064      66665F66 
 13064      6C616773 
 13064      00
 13065              	.LASF21:
 13066 083a 74736C69 		.ascii	"tslices_t\000"
 13066      6365735F 
 13066      7400
 13067              	.LASF63:
 13068 0844 725F6375 		.ascii	"r_current\000"
 13068      7272656E 
 13068      7400
 13069              	.LASF169:
 13070 084e 65786563 		.ascii	"execute\000"
 13070      75746500 
 13071              	.LASF217:
 13072 0856 63684D73 		.ascii	"chMsgGet\000"
 13072      67476574 
 13072      00
 13073              	.LASF238:
 13074 085f 5F737461 		.ascii	"_stats_start_measure_crit_thd\000"
 13074      74735F73 
 13074      74617274 
 13074      5F6D6561 
 13074      73757265 
 13075              	.LASF171:
ARM GAS  /tmp/ccvURch4.s 			page 240


 13076 087d 74657374 		.ascii	"test_global_fail\000"
 13076      5F676C6F 
 13076      62616C5F 
 13076      6661696C 
 13076      00
 13077              	.LASF239:
 13078 088e 5F646267 		.ascii	"_dbg_check_lock\000"
 13078      5F636865 
 13078      636B5F6C 
 13078      6F636B00 
 13079              	.LASF215:
 13080 089e 74687265 		.ascii	"thread1\000"
 13080      61643100 
 13081              	.LASF214:
 13082 08a6 74687265 		.ascii	"thread2\000"
 13082      61643200 
 13083              	.LASF85:
 13084 08ae 6D61696E 		.ascii	"mainthread\000"
 13084      74687265 
 13084      616400
 13085              	.LASF209:
 13086 08b9 74687265 		.ascii	"thread4\000"
 13086      61643400 
 13087              	.LASF200:
 13088 08c1 74687265 		.ascii	"thread8\000"
 13088      61643800 
 13089              	.LASF225:
 13090 08c9 5F5F7365 		.ascii	"__set_BASEPRI\000"
 13090      745F4241 
 13090      53455052 
 13090      4900
 13091              	.LASF105:
 13092 08d7 62657374 		.ascii	"best\000"
 13092      00
 13093              	.LASF58:
 13094 08dc 725F7175 		.ascii	"r_queue\000"
 13094      65756500 
 13095              	.LASF155:
 13096 08e4 715F7761 		.ascii	"q_waiting\000"
 13096      6974696E 
 13096      6700
 13097              	.LASF173:
 13098 08ee 74687265 		.ascii	"threads\000"
 13098      61647300 
 13099              	.LASF83:
 13100 08f6 726C6973 		.ascii	"rlist\000"
 13100      7400
 13101              	.LASF18:
 13102 08fc 746D6F64 		.ascii	"tmode_t\000"
 13102      655F7400 
 13103              	.LASF74:
 13104 0904 76745F73 		.ascii	"vt_systime\000"
 13104      79737469 
 13104      6D6500
 13105              	.LASF62:
 13106 090f 725F6F6C 		.ascii	"r_older\000"
 13106      64657200 
ARM GAS  /tmp/ccvURch4.s 			page 241


 13107              	.LASF104:
 13108 0917 746D5F63 		.ascii	"tm_calibration_t\000"
 13108      616C6962 
 13108      72617469 
 13108      6F6E5F74 
 13108      00
 13109              	.LASF250:
 13110 0928 74657374 		.ascii	"test_terminate_threads\000"
 13110      5F746572 
 13110      6D696E61 
 13110      74655F74 
 13110      68726561 
 13111              	.LASF166:
 13112 093f 6E616D65 		.ascii	"name\000"
 13112      00
 13113              	.LASF223:
 13114 0944 706F7274 		.ascii	"port_lock\000"
 13114      5F6C6F63 
 13114      6B00
 13115              	.LASF123:
 13116 094e 735F7175 		.ascii	"s_queue\000"
 13116      65756500 
 13117              	.LASF195:
 13118 0956 626D6B31 		.ascii	"bmk11_execute\000"
 13118      315F6578 
 13118      65637574 
 13118      6500
 13119              	.LASF4:
 13120 0964 73686F72 		.ascii	"short int\000"
 13120      7420696E 
 13120      7400
 13121              	.LASF14:
 13122 096e 75696E74 		.ascii	"uint64_t\000"
 13122      36345F74 
 13122      00
 13123              	.LASF125:
 13124 0977 63685F6D 		.ascii	"ch_mutex\000"
 13124      75746578 
 13124      00
 13125              	.LASF220:
 13126 0980 63685468 		.ascii	"chThdGetSelfX\000"
 13126      64476574 
 13126      53656C66 
 13126      5800
 13127              	.LASF59:
 13128 098e 725F7072 		.ascii	"r_prio\000"
 13128      696F00
 13129              	.LASF165:
 13130 0995 74657374 		.ascii	"testcase\000"
 13130      63617365 
 13130      00
 13131              	.LASF76:
 13132 099e 63685F73 		.ascii	"ch_system_debug\000"
 13132      79737465 
 13132      6D5F6465 
 13132      62756700 
 13133              	.LASF141:
ARM GAS  /tmp/ccvURch4.s 			page 242


 13134 09ae 63665F6F 		.ascii	"cf_off_older\000"
 13134      66665F6F 
 13134      6C646572 
 13134      00
 13135              	.LASF153:
 13136 09bb 696F5F71 		.ascii	"io_queue_t\000"
 13136      75657565 
 13136      5F7400
 13137              	.LASF229:
 13138 09c6 74657374 		.ascii	"test_println\000"
 13138      5F707269 
 13138      6E746C6E 
 13138      00
 13139              	.LASF237:
 13140 09d3 63685365 		.ascii	"chSemObjectInit\000"
 13140      6D4F626A 
 13140      65637449 
 13140      6E697400 
 13141              	.LASF84:
 13142 09e3 76746C69 		.ascii	"vtlist\000"
 13142      737400
 13143              	.LASF228:
 13144 09ea 74657374 		.ascii	"test_printn\000"
 13144      5F707269 
 13144      6E746E00 
 13145              	.LASF242:
 13146 09f6 63685379 		.ascii	"chSysHalt\000"
 13146      7348616C 
 13146      7400
 13147              	.LASF152:
 13148 0a00 6D757465 		.ascii	"mutex_t\000"
 13148      785F7400 
 13149              	.LASF20:
 13150 0a08 74726566 		.ascii	"trefs_t\000"
 13150      735F7400 
 13151              	.LASF265:
 13152 0a10 6D73675F 		.ascii	"msg_loop_test\000"
 13152      6C6F6F70 
 13152      5F746573 
 13152      7400
 13153              	.LASF143:
 13154 0a1e 63665F6F 		.ascii	"cf_off_stklimit\000"
 13154      66665F73 
 13154      746B6C69 
 13154      6D697400 
 13155              	.LASF252:
 13156 0a2e 63685468 		.ascii	"chThdYield\000"
 13156      64596965 
 13156      6C6400
 13157              	.LASF51:
 13158 0a39 74687265 		.ascii	"threads_list_t\000"
 13158      6164735F 
 13158      6C697374 
 13158      5F7400
 13159              	.LASF261:
 13160 0a48 474E5520 		.ascii	"GNU C17 9.2.1 20191025 (release) [ARM/arm-9-branch "
 13160      43313720 
ARM GAS  /tmp/ccvURch4.s 			page 243


 13160      392E322E 
 13160      31203230 
 13160      31393130 
 13161 0a7b 72657669 		.ascii	"revision 277599] -mcpu=cortex-m4 -mfloat-abi=hard -"
 13161      73696F6E 
 13161      20323737 
 13161      3539395D 
 13161      202D6D63 
 13162 0aae 6D667075 		.ascii	"mfpu=fpv4-sp-d16 -mno-thumb-interwork -mthumb -marc"
 13162      3D667076 
 13162      342D7370 
 13162      2D643136 
 13162      202D6D6E 
 13163 0ae1 683D6172 		.ascii	"h=armv7e-m+fp -ggdb -O2 -fomit-frame-pointer -falig"
 13163      6D763765 
 13163      2D6D2B66 
 13163      70202D67 
 13163      67646220 
 13164 0b14 6E2D6675 		.ascii	"n-functions=16 -fno-strict-aliasing -fstack-protect"
 13164      6E637469 
 13164      6F6E733D 
 13164      3136202D 
 13164      666E6F2D 
 13165 0b47 6F722D61 		.ascii	"or-all -ffunction-sections -fdata-sections -fno-com"
 13165      6C6C202D 
 13165      6666756E 
 13165      6374696F 
 13165      6E2D7365 
 13166 0b7a 6D6F6E20 		.ascii	"mon -fsingle-precision-constant\000"
 13166      2D667369 
 13166      6E676C65 
 13166      2D707265 
 13166      63697369 
 13167              	.LASF247:
 13168 0b9a 63684951 		.ascii	"chIQPutI\000"
 13168      50757449 
 13168      00
 13169              	.LASF263:
 13170 0ba3 2F686F6D 		.ascii	"/home/olof/Documents/MICRO-315/micro-315/tp4/lib/e-"
 13170      652F6F6C 
 13170      6F662F44 
 13170      6F63756D 
 13170      656E7473 
 13171 0bd6 7075636B 		.ascii	"puck2_main-processor\000"
 13171      325F6D61 
 13171      696E2D70 
 13171      726F6365 
 13171      73736F72 
 13172              	.LASF82:
 13173 0beb 63685F73 		.ascii	"ch_system\000"
 13173      79737465 
 13173      6D00
 13174              	.LASF205:
 13175 0bf5 626D6B36 		.ascii	"bmk6_execute\000"
 13175      5F657865 
 13175      63757465 
 13175      00
ARM GAS  /tmp/ccvURch4.s 			page 244


 13176              	.LASF12:
 13177 0c02 75696E74 		.ascii	"uint32_t\000"
 13177      33325F74 
 13177      00
 13178              	.LASF164:
 13179 0c0b 696E7075 		.ascii	"input_queue_t\000"
 13179      745F7175 
 13179      6575655F 
 13179      7400
 13180              	.LASF258:
 13181 0c19 63684D73 		.ascii	"chMsgWait\000"
 13181      67576169 
 13181      7400
 13182              	.LASF115:
 13183 0c23 7264796D 		.ascii	"rdymsg\000"
 13183      736700
 13184              	.LASF11:
 13185 0c2a 73686F72 		.ascii	"short unsigned int\000"
 13185      7420756E 
 13185      7369676E 
 13185      65642069 
 13185      6E7400
 13186              	.LASF81:
 13187 0c3d 63685F73 		.ascii	"ch_system_t\000"
 13187      79737465 
 13187      6D5F7400 
 13188              	.LASF149:
 13189 0c49 63686465 		.ascii	"chdebug_t\000"
 13189      6275675F 
 13189      7400
 13190              	.LASF180:
 13191 0c53 74657374 		.ascii	"testbmk3\000"
 13191      626D6B33 
 13191      00
 13192              	.LASF183:
 13193 0c5c 74657374 		.ascii	"testbmk6\000"
 13193      626D6B36 
 13193      00
 13194              	.LASF133:
 13195 0c65 63685F73 		.ascii	"ch_size\000"
 13195      697A6500 
 13196              	.LASF196:
 13197 0c6d 626D6B31 		.ascii	"bmk11_setup\000"
 13197      315F7365 
 13197      74757000 
 13198              	.LASF36:
 13199 0c79 705F7374 		.ascii	"p_stklimit\000"
 13199      6B6C696D 
 13199      697400
 13200              	.LASF234:
 13201 0c84 63684D74 		.ascii	"chMtxObjectInit\000"
 13201      784F626A 
 13201      65637449 
 13201      6E697400 
 13202              	.LASF218:
 13203 0c94 63685468 		.ascii	"chThdShouldTerminateX\000"
 13203      6453686F 
ARM GAS  /tmp/ccvURch4.s 			page 245


 13203      756C6454 
 13203      65726D69 
 13203      6E617465 
 13204              	.LASF94:
 13205 0caa 73655F74 		.ascii	"se_time\000"
 13205      696D6500 
 13206              	.LASF35:
 13207 0cb2 705F6E61 		.ascii	"p_name\000"
 13207      6D6500
 13208              	.LASF128:
 13209 0cb9 6D5F6E65 		.ascii	"m_next\000"
 13209      787400
 13210              	.LASF100:
 13211 0cc0 74625F70 		.ascii	"tb_ptr\000"
 13211      747200
 13212              	.LASF151:
 13213 0cc7 73656D61 		.ascii	"semaphore_t\000"
 13213      70686F72 
 13213      655F7400 
 13214              	.LASF107:
 13215 0cd3 6C617374 		.ascii	"last\000"
 13215      00
 13216              	.LASF44:
 13217 0cd8 705F6D73 		.ascii	"p_msg\000"
 13217      6700
 13218              	.LASF194:
 13219 0cde 626D6B31 		.ascii	"bmk12_setup\000"
 13219      325F7365 
 13219      74757000 
 13220              	.LASF37:
 13221 0cea 705F7374 		.ascii	"p_state\000"
 13221      61746500 
 13222              		.ident	"GCC: (15:9-2019-q4-0ubuntu1) 9.2.1 20191025 (release) [ARM/arm-9-branch revision 277599]"
ARM GAS  /tmp/ccvURch4.s 			page 246


DEFINED SYMBOLS
                            *ABS*:0000000000000000 testbmk.c
     /tmp/ccvURch4.s:18     .rodata.tmo.cst4:0000000000000000 $d
     /tmp/ccvURch4.s:22     .text.tmo:0000000000000000 $t
     /tmp/ccvURch4.s:30     .text.tmo:0000000000000000 tmo
     /tmp/ccvURch4.s:69     .text.tmo:0000000000000024 $d
     /tmp/ccvURch4.s:74     .rodata.bmk13_execute.str1.4:0000000000000000 $d
     /tmp/ccvURch4.s:108    .rodata.bmk13_execute.cst4:0000000000000000 $d
     /tmp/ccvURch4.s:112    .text.bmk13_execute:0000000000000000 $t
     /tmp/ccvURch4.s:119    .text.bmk13_execute:0000000000000000 bmk13_execute
     /tmp/ccvURch4.s:278    .text.bmk13_execute:00000000000000d8 $d
     /tmp/ccvURch4.s:294    .rodata.thread2.cst4:0000000000000000 $d
     /tmp/ccvURch4.s:298    .text.thread2:0000000000000000 $t
     /tmp/ccvURch4.s:305    .text.thread2:0000000000000000 thread2
     /tmp/ccvURch4.s:375    .text.thread2:0000000000000030 $d
     /tmp/ccvURch4.s:380    .rodata.bmk6_execute.str1.4:0000000000000000 $d
     /tmp/ccvURch4.s:387    .rodata.bmk6_execute.cst4:0000000000000000 $d
     /tmp/ccvURch4.s:391    .text.bmk6_execute:0000000000000000 $t
     /tmp/ccvURch4.s:398    .text.bmk6_execute:0000000000000000 bmk6_execute
     /tmp/ccvURch4.s:544    .text.bmk6_execute:0000000000000074 $d
     /tmp/ccvURch4.s:1242   .text.thread1:0000000000000000 thread1
     /tmp/ccvURch4.s:555    .rodata.msg_loop_test.cst4:0000000000000000 $d
     /tmp/ccvURch4.s:559    .text.msg_loop_test:0000000000000000 $t
     /tmp/ccvURch4.s:566    .text.msg_loop_test:0000000000000000 msg_loop_test
     /tmp/ccvURch4.s:649    .text.msg_loop_test:000000000000004c $d
     /tmp/ccvURch4.s:655    .rodata.bmk1_execute.str1.4:0000000000000000 $d
     /tmp/ccvURch4.s:662    .rodata.bmk1_execute.cst4:0000000000000000 $d
     /tmp/ccvURch4.s:666    .text.bmk1_execute:0000000000000000 $t
     /tmp/ccvURch4.s:673    .text.bmk1_execute:0000000000000000 bmk1_execute
     /tmp/ccvURch4.s:793    .text.bmk1_execute:0000000000000068 $d
     /tmp/ccvURch4.s:805    .rodata.bmk2_execute.cst4:0000000000000000 $d
     /tmp/ccvURch4.s:809    .text.bmk2_execute:0000000000000000 $t
     /tmp/ccvURch4.s:816    .text.bmk2_execute:0000000000000000 bmk2_execute
     /tmp/ccvURch4.s:936    .text.bmk2_execute:0000000000000068 $d
     /tmp/ccvURch4.s:948    .rodata.bmk3_execute.cst4:0000000000000000 $d
     /tmp/ccvURch4.s:952    .text.bmk3_execute:0000000000000000 $t
     /tmp/ccvURch4.s:959    .text.bmk3_execute:0000000000000000 bmk3_execute
     /tmp/ccvURch4.s:1218   .text.bmk3_execute:00000000000000c4 $d
     /tmp/ccvURch4.s:1231   .rodata.thread1.cst4:0000000000000000 $d
     /tmp/ccvURch4.s:1235   .text.thread1:0000000000000000 $t
     /tmp/ccvURch4.s:1286   .text.thread1:0000000000000028 $d
     /tmp/ccvURch4.s:1291   .rodata.bmk5_execute.cst4:0000000000000000 $d
     /tmp/ccvURch4.s:1295   .text.bmk5_execute:0000000000000000 $t
     /tmp/ccvURch4.s:1302   .text.bmk5_execute:0000000000000000 bmk5_execute
     /tmp/ccvURch4.s:1449   .text.bmk5_execute:0000000000000078 $d
     /tmp/ccvURch4.s:1460   .rodata.bmk7_execute.str1.4:0000000000000000 $d
     /tmp/ccvURch4.s:1464   .rodata.bmk7_execute.cst4:0000000000000000 $d
     /tmp/ccvURch4.s:1468   .text.bmk7_execute:0000000000000000 $t
     /tmp/ccvURch4.s:1475   .text.bmk7_execute:0000000000000000 bmk7_execute
     /tmp/ccvURch4.s:1767   .text.bmk7_execute:00000000000000f8 $d
     /tmp/ccvURch4.s:1792   .text.thread3:0000000000000000 thread3
     /tmp/ccvURch4.s:1781   .rodata.thread3.cst4:0000000000000000 $d
     /tmp/ccvURch4.s:1785   .text.thread3:0000000000000000 $t
     /tmp/ccvURch4.s:1892   .text.thread3:0000000000000040 $d
     /tmp/ccvURch4.s:1899   .rodata.bmk7_setup.cst4:0000000000000000 $d
     /tmp/ccvURch4.s:1903   .text.bmk7_setup:0000000000000000 $t
     /tmp/ccvURch4.s:1910   .text.bmk7_setup:0000000000000000 bmk7_setup
ARM GAS  /tmp/ccvURch4.s 			page 247


     /tmp/ccvURch4.s:1952   .text.bmk7_setup:000000000000002c $d
     /tmp/ccvURch4.s:1958   .rodata.bmk11_setup.cst4:0000000000000000 $d
     /tmp/ccvURch4.s:1962   .text.bmk11_setup:0000000000000000 $t
     /tmp/ccvURch4.s:1969   .text.bmk11_setup:0000000000000000 bmk11_setup
     /tmp/ccvURch4.s:2011   .text.bmk11_setup:000000000000002c $d
     /tmp/ccvURch4.s:2017   .rodata.bmk8_execute.cst4:0000000000000000 $d
     /tmp/ccvURch4.s:2021   .text.bmk8_execute:0000000000000000 $t
     /tmp/ccvURch4.s:2028   .text.bmk8_execute:0000000000000000 bmk8_execute
     /tmp/ccvURch4.s:2270   .text.bmk8_execute:00000000000000c4 $d
     /tmp/ccvURch4.s:2292   .text.thread8:0000000000000000 thread8
     /tmp/ccvURch4.s:2281   .rodata.thread8.cst4:0000000000000000 $d
     /tmp/ccvURch4.s:2285   .text.thread8:0000000000000000 $t
     /tmp/ccvURch4.s:2375   .text.thread8:0000000000000044 $d
     /tmp/ccvURch4.s:2381   .rodata.bmk11_execute.str1.4:0000000000000000 $d
     /tmp/ccvURch4.s:2385   .rodata.bmk11_execute.cst4:0000000000000000 $d
     /tmp/ccvURch4.s:2389   .text.bmk11_execute:0000000000000000 $t
     /tmp/ccvURch4.s:2396   .text.bmk11_execute:0000000000000000 bmk11_execute
     /tmp/ccvURch4.s:2513   .text.bmk11_execute:0000000000000080 $d
     /tmp/ccvURch4.s:2522   .rodata.bmk12_execute.str1.4:0000000000000000 $d
     /tmp/ccvURch4.s:2526   .rodata.bmk12_execute.cst4:0000000000000000 $d
     /tmp/ccvURch4.s:2530   .text.bmk12_execute:0000000000000000 $t
     /tmp/ccvURch4.s:2537   .text.bmk12_execute:0000000000000000 bmk12_execute
     /tmp/ccvURch4.s:2654   .text.bmk12_execute:0000000000000080 $d
     /tmp/ccvURch4.s:2663   .rodata.bmk12_setup.cst4:0000000000000000 $d
     /tmp/ccvURch4.s:2667   .text.bmk12_setup:0000000000000000 $t
     /tmp/ccvURch4.s:2674   .text.bmk12_setup:0000000000000000 bmk12_setup
     /tmp/ccvURch4.s:2715   .text.bmk12_setup:0000000000000028 $d
     /tmp/ccvURch4.s:2721   .rodata.bmk10_execute.str1.4:0000000000000000 $d
     /tmp/ccvURch4.s:2725   .rodata.bmk10_execute.cst4:0000000000000000 $d
     /tmp/ccvURch4.s:2729   .text.bmk10_execute:0000000000000000 $t
     /tmp/ccvURch4.s:2736   .text.bmk10_execute:0000000000000000 bmk10_execute
     /tmp/ccvURch4.s:3018   .text.bmk10_execute:00000000000000c4 $d
     /tmp/ccvURch4.s:3031   .rodata.bmk9_execute.str1.4:0000000000000000 $d
     /tmp/ccvURch4.s:3035   .rodata.bmk9_execute.cst4:0000000000000000 $d
     /tmp/ccvURch4.s:3039   .text.bmk9_execute:0000000000000000 $t
     /tmp/ccvURch4.s:3046   .text.bmk9_execute:0000000000000000 bmk9_execute
     /tmp/ccvURch4.s:3332   .text.bmk9_execute:00000000000000e0 $d
     /tmp/ccvURch4.s:3344   .rodata.bmk4_execute.cst4:0000000000000000 $d
     /tmp/ccvURch4.s:3348   .text.bmk4_execute:0000000000000000 $t
     /tmp/ccvURch4.s:3355   .text.bmk4_execute:0000000000000000 bmk4_execute
     /tmp/ccvURch4.s:3797   .text.bmk4_execute:0000000000000118 $d
     /tmp/ccvURch4.s:3821   .text.thread4:0000000000000000 thread4
     /tmp/ccvURch4.s:3810   .rodata.thread4.cst4:0000000000000000 $d
     /tmp/ccvURch4.s:3814   .text.thread4:0000000000000000 $t
     /tmp/ccvURch4.s:4000   .text.thread4:0000000000000064 $d
     /tmp/ccvURch4.s:4113   .rodata.patternbmk:0000000000000000 patternbmk
     /tmp/ccvURch4.s:4168   .rodata.testbmk13:0000000000000000 testbmk13
     /tmp/ccvURch4.s:4009   .rodata.str1.4:0000000000000000 $d
     /tmp/ccvURch4.s:4159   .rodata.testbmk12:0000000000000000 testbmk12
     /tmp/ccvURch4.s:4150   .rodata.testbmk11:0000000000000000 testbmk11
     /tmp/ccvURch4.s:4141   .rodata.testbmk10:0000000000000000 testbmk10
     /tmp/ccvURch4.s:4240   .rodata.testbmk9:0000000000000000 testbmk9
     /tmp/ccvURch4.s:4231   .rodata.testbmk8:0000000000000000 testbmk8
     /tmp/ccvURch4.s:4222   .rodata.testbmk7:0000000000000000 testbmk7
     /tmp/ccvURch4.s:4213   .rodata.testbmk6:0000000000000000 testbmk6
     /tmp/ccvURch4.s:4204   .rodata.testbmk5:0000000000000000 testbmk5
     /tmp/ccvURch4.s:4195   .rodata.testbmk4:0000000000000000 testbmk4
ARM GAS  /tmp/ccvURch4.s 			page 248


     /tmp/ccvURch4.s:4186   .rodata.testbmk3:0000000000000000 testbmk3
     /tmp/ccvURch4.s:4177   .rodata.testbmk2:0000000000000000 testbmk2
     /tmp/ccvURch4.s:4132   .rodata.testbmk1:0000000000000000 testbmk1
     /tmp/ccvURch4.s:4061   .bss.ib.8104:0000000000000000 $d
     /tmp/ccvURch4.s:4065   .bss.ib.8104:0000000000000000 ib.8104
     /tmp/ccvURch4.s:4068   .bss.iq.8105:0000000000000000 $d
     /tmp/ccvURch4.s:4072   .bss.iq.8105:0000000000000000 iq.8105
     /tmp/ccvURch4.s:4075   .bss.mtx1:0000000000000000 $d
     /tmp/ccvURch4.s:4079   .bss.mtx1:0000000000000000 mtx1
     /tmp/ccvURch4.s:4082   .bss.sem1:0000000000000000 $d
     /tmp/ccvURch4.s:4086   .bss.sem1:0000000000000000 sem1
     /tmp/ccvURch4.s:4089   .bss.vt1.8115:0000000000000000 $d
     /tmp/ccvURch4.s:4093   .bss.vt1.8115:0000000000000000 vt1.8115
     /tmp/ccvURch4.s:4096   .bss.vt2.8116:0000000000000000 $d
     /tmp/ccvURch4.s:4100   .bss.vt2.8116:0000000000000000 vt2.8116
     /tmp/ccvURch4.s:4103   .rodata.__func__.7261:0000000000000000 $d
     /tmp/ccvURch4.s:4107   .rodata.__func__.7261:0000000000000000 __func__.7261
     /tmp/ccvURch4.s:4110   .rodata.patternbmk:0000000000000000 $d
     /tmp/ccvURch4.s:4129   .rodata.testbmk1:0000000000000000 $d
     /tmp/ccvURch4.s:4138   .rodata.testbmk10:0000000000000000 $d
     /tmp/ccvURch4.s:4147   .rodata.testbmk11:0000000000000000 $d
     /tmp/ccvURch4.s:4156   .rodata.testbmk12:0000000000000000 $d
     /tmp/ccvURch4.s:4165   .rodata.testbmk13:0000000000000000 $d
     /tmp/ccvURch4.s:4174   .rodata.testbmk2:0000000000000000 $d
     /tmp/ccvURch4.s:4183   .rodata.testbmk3:0000000000000000 $d
     /tmp/ccvURch4.s:4192   .rodata.testbmk4:0000000000000000 $d
     /tmp/ccvURch4.s:4201   .rodata.testbmk5:0000000000000000 $d
     /tmp/ccvURch4.s:4210   .rodata.testbmk6:0000000000000000 $d
     /tmp/ccvURch4.s:4219   .rodata.testbmk7:0000000000000000 $d
     /tmp/ccvURch4.s:4228   .rodata.testbmk8:0000000000000000 $d
     /tmp/ccvURch4.s:4237   .rodata.testbmk9:0000000000000000 $d

UNDEFINED SYMBOLS
__stack_chk_guard
__stack_chk_fail
test_print
test_printn
test_println
chMsgWait
chMsgRelease
test_wait_tick
test_start_timer
chThdCreateStatic
ch
wa
test_timer_done
chMsgSend
test_wait_threads
threads
chThdExit
chThdWait
chSemReset
test_terminate_threads
chSemWait
chSemObjectInit
chThdSleep
chThdYield
ARM GAS  /tmp/ccvURch4.s 			page 249


chSemSignal
chMtxLock
chMtxUnlock
chMtxObjectInit
_stats_start_measure_crit_thd
_dbg_check_lock
chVTDoSetI
chVTDoResetI
_dbg_check_unlock
_stats_stop_measure_crit_thd
chSysHalt
chIQObjectInit
chIQGetTimeout
chIQPutI
chSchWakeupS
chSchGoSleepS
