ARM GAS  /tmp/ccszGbIG.s 			page 1


   1              		.cpu cortex-m4
   2              		.eabi_attribute 27, 1
   3              		.eabi_attribute 28, 1
   4              		.eabi_attribute 20, 1
   5              		.eabi_attribute 21, 1
   6              		.eabi_attribute 23, 3
   7              		.eabi_attribute 24, 1
   8              		.eabi_attribute 25, 1
   9              		.eabi_attribute 26, 1
  10              		.eabi_attribute 30, 2
  11              		.eabi_attribute 34, 1
  12              		.eabi_attribute 18, 4
  13              		.file	"test.c"
  14              		.text
  15              	.Ltext0:
  16              		.cfi_sections	.debug_frame
  17              		.section	.rodata.tmr.cst4,"aM",%progbits,4
  18              		.align	2
  19              	.LC0:
  20 0000 00000000 		.word	__stack_chk_guard
  21              		.section	.text.tmr,"ax",%progbits
  22              		.align	1
  23              		.p2align 4,,15
  24              		.arch armv7e-m
  25              		.syntax unified
  26              		.thumb
  27              		.thumb_func
  28              		.fpu fpv4-sp-d16
  29              		.type	tmr, %function
  30              	tmr:
  31              	.LVL0:
  32              	.LFB270:
  33              		.file 1 ".//ChibiOS//test/rt/test.c"
  34              		.loc 1 264 26 view -0
  35              		.cfi_startproc
  36              		@ args = 0, pretend = 0, frame = 8
  37              		@ frame_needed = 0, uses_anonymous_args = 0
  38              		.loc 1 264 26 is_stmt 0 view .LVU1
  39 0000 00B5     		push	{lr}
  40              		.cfi_def_cfa_offset 4
  41              		.cfi_offset 14, -4
  42 0002 094A     		ldr	r2, .L6
  43              		.loc 1 267 19 view .LVU2
  44 0004 094B     		ldr	r3, .L6+4
  45              		.loc 1 264 26 view .LVU3
  46 0006 83B0     		sub	sp, sp, #12
  47              		.cfi_def_cfa_offset 16
  48              		.loc 1 264 26 view .LVU4
  49 0008 1268     		ldr	r2, [r2]
  50 000a 0192     		str	r2, [sp, #4]
  51 000c 4FF00002 		mov	r2,#0
  52              		.loc 1 265 3 is_stmt 1 view .LVU5
  53              		.loc 1 267 3 view .LVU6
  54              		.loc 1 267 19 is_stmt 0 view .LVU7
  55 0010 0122     		movs	r2, #1
  56 0012 1A70     		strb	r2, [r3]
  57              		.loc 1 268 1 view .LVU8
ARM GAS  /tmp/ccszGbIG.s 			page 2


  58 0014 044B     		ldr	r3, .L6
  59 0016 1A68     		ldr	r2, [r3]
  60 0018 019B     		ldr	r3, [sp, #4]
  61 001a 5A40     		eors	r2, r3, r2
  62 001c 02D1     		bne	.L5
  63 001e 03B0     		add	sp, sp, #12
  64              		.cfi_remember_state
  65              		.cfi_def_cfa_offset 4
  66              		@ sp needed
  67 0020 5DF804FB 		ldr	pc, [sp], #4
  68              	.L5:
  69              		.cfi_restore_state
  70 0024 FFF7FEFF 		bl	__stack_chk_fail
  71              	.LVL1:
  72              	.L7:
  73              		.loc 1 268 1 view .LVU9
  74              		.align	2
  75              	.L6:
  76 0028 00000000 		.word	.LC0
  77 002c 00000000 		.word	.LANCHOR0
  78              		.cfi_endproc
  79              	.LFE270:
  80              		.size	tmr, .-tmr
  81              		.section	.rodata.print_line.str1.4,"aMS",%progbits,1
  82              		.align	2
  83              	.LC1:
  84 0000 0D0A00   		.ascii	"\015\012\000"
  85              		.section	.rodata.print_line.cst4,"aM",%progbits,4
  86              		.align	2
  87              	.LC2:
  88 0000 00000000 		.word	__stack_chk_guard
  89              		.section	.text.print_line,"ax",%progbits
  90              		.align	1
  91              		.p2align 4,,15
  92              		.syntax unified
  93              		.thumb
  94              		.thumb_func
  95              		.fpu fpv4-sp-d16
  96              		.type	print_line, %function
  97              	print_line:
  98              	.LFB273:
  99              		.loc 1 303 30 is_stmt 1 view -0
 100              		.cfi_startproc
 101              		@ args = 0, pretend = 0, frame = 8
 102              		@ frame_needed = 0, uses_anonymous_args = 0
 103 0000 30B5     		push	{r4, r5, lr}
 104              		.cfi_def_cfa_offset 12
 105              		.cfi_offset 4, -12
 106              		.cfi_offset 5, -8
 107              		.cfi_offset 14, -4
 108 0002 0F4B     		ldr	r3, .L15
 109 0004 0F4D     		ldr	r5, .L15+4
 110 0006 83B0     		sub	sp, sp, #12
 111              		.cfi_def_cfa_offset 24
 112              		.loc 1 303 30 is_stmt 0 view .LVU11
 113 0008 1B68     		ldr	r3, [r3]
 114 000a 0193     		str	r3, [sp, #4]
ARM GAS  /tmp/ccszGbIG.s 			page 3


 115 000c 4FF00003 		mov	r3,#0
 116              		.loc 1 304 3 is_stmt 1 view .LVU12
 117              		.loc 1 306 3 view .LVU13
 118              	.LVL2:
 119              		.loc 1 306 15 view .LVU14
 120              		.loc 1 303 30 is_stmt 0 view .LVU15
 121 0010 4C24     		movs	r4, #76
 122              	.LVL3:
 123              	.L9:
 124              		.loc 1 307 5 is_stmt 1 discriminator 3 view .LVU16
 125 0012 2868     		ldr	r0, [r5]
 126 0014 0368     		ldr	r3, [r0]
 127 0016 2D21     		movs	r1, #45
 128 0018 9B68     		ldr	r3, [r3, #8]
 129 001a 9847     		blx	r3
 130              	.LVL4:
 131              		.loc 1 306 23 discriminator 3 view .LVU17
 132              		.loc 1 306 15 discriminator 3 view .LVU18
 133              		.loc 1 306 3 is_stmt 0 discriminator 3 view .LVU19
 134 001c 013C     		subs	r4, r4, #1
 135              	.LVL5:
 136              		.loc 1 306 3 discriminator 3 view .LVU20
 137 001e F8D1     		bne	.L9
 138              		.loc 1 308 3 is_stmt 1 view .LVU21
 139 0020 074B     		ldr	r3, .L15
 140 0022 2868     		ldr	r0, [r5]
 141 0024 1A68     		ldr	r2, [r3]
 142 0026 019B     		ldr	r3, [sp, #4]
 143 0028 5A40     		eors	r2, r3, r2
 144 002a 07D1     		bne	.L14
 145 002c 0368     		ldr	r3, [r0]
 146 002e 0649     		ldr	r1, .L15+8
 147 0030 1B68     		ldr	r3, [r3]
 148 0032 0222     		movs	r2, #2
 149              		.loc 1 309 1 is_stmt 0 view .LVU22
 150 0034 03B0     		add	sp, sp, #12
 151              		.cfi_remember_state
 152              		.cfi_def_cfa_offset 12
 153              		@ sp needed
 154 0036 BDE83040 		pop	{r4, r5, lr}
 155              		.cfi_restore 14
 156              		.cfi_restore 5
 157              		.cfi_restore 4
 158              		.cfi_def_cfa_offset 0
 159              	.LVL6:
 160              		.loc 1 308 3 view .LVU23
 161 003a 1847     		bx	r3
 162              	.LVL7:
 163              	.L14:
 164              		.cfi_restore_state
 165              		.loc 1 308 3 view .LVU24
 166 003c FFF7FEFF 		bl	__stack_chk_fail
 167              	.LVL8:
 168              	.L16:
 169              		.align	2
 170              	.L15:
 171 0040 00000000 		.word	.LC2
ARM GAS  /tmp/ccszGbIG.s 			page 4


 172 0044 00000000 		.word	.LANCHOR1
 173 0048 00000000 		.word	.LC1
 174              		.cfi_endproc
 175              	.LFE273:
 176              		.size	print_line, .-print_line
 177              		.section	.rodata.test_printn.cst4,"aM",%progbits,4
 178              		.align	2
 179              	.LC3:
 180 0000 00000000 		.word	__stack_chk_guard
 181              		.section	.text.test_printn,"ax",%progbits
 182              		.align	1
 183              		.p2align 4,,15
 184              		.global	test_printn
 185              		.syntax unified
 186              		.thumb
 187              		.thumb_func
 188              		.fpu fpv4-sp-d16
 189              		.type	test_printn, %function
 190              	test_printn:
 191              	.LVL9:
 192              	.LFB256:
 193              		.loc 1 94 30 is_stmt 1 view -0
 194              		.cfi_startproc
 195              		@ args = 0, pretend = 0, frame = 24
 196              		@ frame_needed = 0, uses_anonymous_args = 0
 197              		.loc 1 94 30 is_stmt 0 view .LVU26
 198 0000 F0B5     		push	{r4, r5, r6, r7, lr}
 199              		.cfi_def_cfa_offset 20
 200              		.cfi_offset 4, -20
 201              		.cfi_offset 5, -16
 202              		.cfi_offset 6, -12
 203              		.cfi_offset 7, -8
 204              		.cfi_offset 14, -4
 205 0002 1E4B     		ldr	r3, .L28
 206 0004 87B0     		sub	sp, sp, #28
 207              		.cfi_def_cfa_offset 48
 208              		.loc 1 94 30 view .LVU27
 209 0006 1B68     		ldr	r3, [r3]
 210 0008 0593     		str	r3, [sp, #20]
 211 000a 4FF00003 		mov	r3,#0
 212              		.loc 1 95 3 is_stmt 1 view .LVU28
 213              		.loc 1 97 3 view .LVU29
 214              		.loc 1 97 6 is_stmt 0 view .LVU30
 215 000e 68B9     		cbnz	r0, .L23
 216              		.loc 1 98 5 is_stmt 1 view .LVU31
 217 0010 1B4B     		ldr	r3, .L28+4
 218 0012 1868     		ldr	r0, [r3]
 219              	.LVL10:
 220              		.loc 1 98 5 is_stmt 0 view .LVU32
 221 0014 194B     		ldr	r3, .L28
 222 0016 1A68     		ldr	r2, [r3]
 223 0018 059B     		ldr	r3, [sp, #20]
 224 001a 5A40     		eors	r2, r3, r2
 225 001c 2CD1     		bne	.L26
 226 001e 0368     		ldr	r3, [r0]
 227 0020 9B68     		ldr	r3, [r3, #8]
 228 0022 3021     		movs	r1, #48
ARM GAS  /tmp/ccszGbIG.s 			page 5


 229              		.loc 1 106 1 view .LVU33
 230 0024 07B0     		add	sp, sp, #28
 231              		.cfi_remember_state
 232              		.cfi_def_cfa_offset 20
 233              		@ sp needed
 234 0026 BDE8F040 		pop	{r4, r5, r6, r7, lr}
 235              		.cfi_restore 14
 236              		.cfi_restore 7
 237              		.cfi_restore 6
 238              		.cfi_restore 5
 239              		.cfi_restore 4
 240              		.cfi_def_cfa_offset 0
 241              		.loc 1 98 5 view .LVU34
 242 002a 1847     		bx	r3
 243              	.LVL11:
 244              	.L23:
 245              		.cfi_restore_state
 246              	.LBB124:
 247              	.LBB125:
 248              		.loc 1 100 7 view .LVU35
 249 002c 01AC     		add	r4, sp, #4
 250              		.loc 1 102 17 view .LVU36
 251 002e 154F     		ldr	r7, .L28+8
 252              		.loc 1 100 7 view .LVU37
 253 0030 2246     		mov	r2, r4
 254              	.LVL12:
 255              	.L18:
 256              		.loc 1 102 7 is_stmt 1 view .LVU38
 257              		.loc 1 102 17 is_stmt 0 view .LVU39
 258 0032 A7FB0013 		umull	r1, r3, r7, r0
 259 0036 DB08     		lsrs	r3, r3, #3
 260 0038 03EB8301 		add	r1, r3, r3, lsl #2
 261 003c A0EB4101 		sub	r1, r0, r1, lsl #1
 262 0040 0646     		mov	r6, r0
 263              		.loc 1 102 23 view .LVU40
 264 0042 3031     		adds	r1, r1, #48
 265 0044 C9B2     		uxtb	r1, r1
 266              		.loc 1 101 11 view .LVU41
 267 0046 092E     		cmp	r6, #9
 268 0048 1546     		mov	r5, r2
 269              	.LVL13:
 270              		.loc 1 102 32 view .LVU42
 271 004a 1846     		mov	r0, r3
 272              	.LVL14:
 273              		.loc 1 101 11 is_stmt 1 view .LVU43
 274              		.loc 1 102 12 is_stmt 0 view .LVU44
 275 004c 02F8011B 		strb	r1, [r2], #1
 276              	.LVL15:
 277              		.loc 1 101 11 view .LVU45
 278 0050 EFD8     		bhi	.L18
 279              		.loc 1 103 11 is_stmt 1 view .LVU46
 280 0052 A242     		cmp	r2, r4
 281 0054 09D9     		bls	.L17
 282              		.loc 1 103 11 is_stmt 0 view .LVU47
 283 0056 0A4E     		ldr	r6, .L28+4
 284 0058 01E0     		b	.L21
 285              	.LVL16:
ARM GAS  /tmp/ccszGbIG.s 			page 6


 286              	.L27:
 287              		.loc 1 103 11 view .LVU48
 288 005a 15F8011D 		ldrb	r1, [r5, #-1]!	@ zero_extendqisi2
 289              	.LVL17:
 290              	.L21:
 291              		.loc 1 104 7 is_stmt 1 view .LVU49
 292 005e 3068     		ldr	r0, [r6]
 293              	.LVL18:
 294              		.loc 1 104 7 is_stmt 0 view .LVU50
 295 0060 0368     		ldr	r3, [r0]
 296 0062 9B68     		ldr	r3, [r3, #8]
 297 0064 9847     		blx	r3
 298              	.LVL19:
 299              		.loc 1 103 11 is_stmt 1 view .LVU51
 300 0066 AC42     		cmp	r4, r5
 301 0068 F7D1     		bne	.L27
 302              	.LVL20:
 303              	.L17:
 304              		.loc 1 103 11 is_stmt 0 view .LVU52
 305              	.LBE125:
 306              	.LBE124:
 307              		.loc 1 106 1 view .LVU53
 308 006a 044B     		ldr	r3, .L28
 309 006c 1A68     		ldr	r2, [r3]
 310 006e 059B     		ldr	r3, [sp, #20]
 311 0070 5A40     		eors	r2, r3, r2
 312 0072 01D1     		bne	.L26
 313 0074 07B0     		add	sp, sp, #28
 314              		.cfi_remember_state
 315              		.cfi_def_cfa_offset 20
 316              		@ sp needed
 317 0076 F0BD     		pop	{r4, r5, r6, r7, pc}
 318              	.L26:
 319              		.cfi_restore_state
 320              		.loc 1 106 1 view .LVU54
 321 0078 FFF7FEFF 		bl	__stack_chk_fail
 322              	.LVL21:
 323              	.L29:
 324              		.align	2
 325              	.L28:
 326 007c 00000000 		.word	.LC3
 327 0080 00000000 		.word	.LANCHOR1
 328 0084 CDCCCCCC 		.word	-858993459
 329              		.cfi_endproc
 330              	.LFE256:
 331              		.size	test_printn, .-test_printn
 332              		.section	.rodata.test_print.cst4,"aM",%progbits,4
 333              		.align	2
 334              	.LC4:
 335 0000 00000000 		.word	__stack_chk_guard
 336              		.section	.text.test_print,"ax",%progbits
 337              		.align	1
 338              		.p2align 4,,15
 339              		.global	test_print
 340              		.syntax unified
 341              		.thumb
 342              		.thumb_func
ARM GAS  /tmp/ccszGbIG.s 			page 7


 343              		.fpu fpv4-sp-d16
 344              		.type	test_print, %function
 345              	test_print:
 346              	.LVL22:
 347              	.LFB257:
 348              		.loc 1 113 35 is_stmt 1 view -0
 349              		.cfi_startproc
 350              		@ args = 0, pretend = 0, frame = 8
 351              		@ frame_needed = 0, uses_anonymous_args = 0
 352              		.loc 1 113 35 is_stmt 0 view .LVU56
 353 0000 30B5     		push	{r4, r5, lr}
 354              		.cfi_def_cfa_offset 12
 355              		.cfi_offset 4, -12
 356              		.cfi_offset 5, -8
 357              		.cfi_offset 14, -4
 358 0002 0D4B     		ldr	r3, .L40
 359              		.loc 1 115 10 view .LVU57
 360 0004 0178     		ldrb	r1, [r0]	@ zero_extendqisi2
 361              		.loc 1 113 35 view .LVU58
 362 0006 83B0     		sub	sp, sp, #12
 363              		.cfi_def_cfa_offset 24
 364              		.loc 1 113 35 view .LVU59
 365 0008 1B68     		ldr	r3, [r3]
 366 000a 0193     		str	r3, [sp, #4]
 367 000c 4FF00003 		mov	r3,#0
 368              		.loc 1 115 3 is_stmt 1 view .LVU60
 369              		.loc 1 115 9 view .LVU61
 370 0010 49B1     		cbz	r1, .L30
 371 0012 0A4D     		ldr	r5, .L40+4
 372 0014 0446     		mov	r4, r0
 373              	.LVL23:
 374              	.L32:
 375              		.loc 1 116 5 view .LVU62
 376 0016 2868     		ldr	r0, [r5]
 377              	.LVL24:
 378              		.loc 1 116 5 is_stmt 0 view .LVU63
 379 0018 0368     		ldr	r3, [r0]
 380 001a 9B68     		ldr	r3, [r3, #8]
 381 001c 9847     		blx	r3
 382              	.LVL25:
 383              		.loc 1 115 9 is_stmt 1 view .LVU64
 384              		.loc 1 115 10 is_stmt 0 view .LVU65
 385 001e 14F8011F 		ldrb	r1, [r4, #1]!	@ zero_extendqisi2
 386              	.LVL26:
 387              		.loc 1 115 9 view .LVU66
 388 0022 0029     		cmp	r1, #0
 389 0024 F7D1     		bne	.L32
 390              	.LVL27:
 391              	.L30:
 392              		.loc 1 117 1 view .LVU67
 393 0026 044B     		ldr	r3, .L40
 394 0028 1A68     		ldr	r2, [r3]
 395 002a 019B     		ldr	r3, [sp, #4]
 396 002c 5A40     		eors	r2, r3, r2
 397 002e 01D1     		bne	.L39
 398 0030 03B0     		add	sp, sp, #12
 399              		.cfi_remember_state
ARM GAS  /tmp/ccszGbIG.s 			page 8


 400              		.cfi_def_cfa_offset 12
 401              		@ sp needed
 402 0032 30BD     		pop	{r4, r5, pc}
 403              	.L39:
 404              		.cfi_restore_state
 405 0034 FFF7FEFF 		bl	__stack_chk_fail
 406              	.LVL28:
 407              	.L41:
 408              		.align	2
 409              	.L40:
 410 0038 00000000 		.word	.LC4
 411 003c 00000000 		.word	.LANCHOR1
 412              		.cfi_endproc
 413              	.LFE257:
 414              		.size	test_print, .-test_print
 415              		.section	.rodata.test_println.cst4,"aM",%progbits,4
 416              		.align	2
 417              	.LC5:
 418 0000 00000000 		.word	__stack_chk_guard
 419              		.section	.text.test_println,"ax",%progbits
 420              		.align	1
 421              		.p2align 4,,15
 422              		.global	test_println
 423              		.syntax unified
 424              		.thumb
 425              		.thumb_func
 426              		.fpu fpv4-sp-d16
 427              		.type	test_println, %function
 428              	test_println:
 429              	.LVL29:
 430              	.LFB258:
 431              		.loc 1 124 37 is_stmt 1 view -0
 432              		.cfi_startproc
 433              		@ args = 0, pretend = 0, frame = 8
 434              		@ frame_needed = 0, uses_anonymous_args = 0
 435              		.loc 1 124 37 is_stmt 0 view .LVU69
 436 0000 30B5     		push	{r4, r5, lr}
 437              		.cfi_def_cfa_offset 12
 438              		.cfi_offset 4, -12
 439              		.cfi_offset 5, -8
 440              		.cfi_offset 14, -4
 441 0002 124B     		ldr	r3, .L54
 442              	.LBB126:
 443              	.LBB127:
 444              		.loc 1 115 10 view .LVU70
 445 0004 0178     		ldrb	r1, [r0]	@ zero_extendqisi2
 446              	.LBE127:
 447              	.LBE126:
 448              		.loc 1 124 37 view .LVU71
 449 0006 83B0     		sub	sp, sp, #12
 450              		.cfi_def_cfa_offset 24
 451              		.loc 1 124 37 view .LVU72
 452 0008 1B68     		ldr	r3, [r3]
 453 000a 0193     		str	r3, [sp, #4]
 454 000c 4FF00003 		mov	r3,#0
 455              		.loc 1 126 3 is_stmt 1 view .LVU73
 456              	.LVL30:
ARM GAS  /tmp/ccszGbIG.s 			page 9


 457              	.LBB129:
 458              	.LBI126:
 459              		.loc 1 113 6 view .LVU74
 460              	.LBB128:
 461              		.loc 1 115 3 view .LVU75
 462              		.loc 1 115 9 view .LVU76
 463 0010 B9B1     		cbz	r1, .L52
 464 0012 0F4D     		ldr	r5, .L54+4
 465 0014 0446     		mov	r4, r0
 466              	.LVL31:
 467              	.L44:
 468              		.loc 1 116 5 view .LVU77
 469 0016 2868     		ldr	r0, [r5]
 470              	.LVL32:
 471              		.loc 1 116 5 is_stmt 0 view .LVU78
 472 0018 0368     		ldr	r3, [r0]
 473 001a 9B68     		ldr	r3, [r3, #8]
 474 001c 9847     		blx	r3
 475              	.LVL33:
 476              		.loc 1 115 9 is_stmt 1 view .LVU79
 477              		.loc 1 115 10 is_stmt 0 view .LVU80
 478 001e 14F8011F 		ldrb	r1, [r4, #1]!	@ zero_extendqisi2
 479              	.LVL34:
 480              		.loc 1 115 9 view .LVU81
 481 0022 0029     		cmp	r1, #0
 482 0024 F7D1     		bne	.L44
 483              	.LVL35:
 484              	.L43:
 485              		.loc 1 115 9 view .LVU82
 486              	.LBE128:
 487              	.LBE129:
 488              		.loc 1 127 3 is_stmt 1 view .LVU83
 489 0026 094B     		ldr	r3, .L54
 490 0028 2868     		ldr	r0, [r5]
 491 002a 1A68     		ldr	r2, [r3]
 492 002c 019B     		ldr	r3, [sp, #4]
 493 002e 5A40     		eors	r2, r3, r2
 494 0030 09D1     		bne	.L53
 495 0032 0368     		ldr	r3, [r0]
 496 0034 0749     		ldr	r1, .L54+8
 497 0036 1B68     		ldr	r3, [r3]
 498 0038 0222     		movs	r2, #2
 499              		.loc 1 128 1 is_stmt 0 view .LVU84
 500 003a 03B0     		add	sp, sp, #12
 501              		.cfi_remember_state
 502              		.cfi_def_cfa_offset 12
 503              		@ sp needed
 504 003c BDE83040 		pop	{r4, r5, lr}
 505              		.cfi_restore 14
 506              		.cfi_restore 5
 507              		.cfi_restore 4
 508              		.cfi_def_cfa_offset 0
 509              		.loc 1 127 3 view .LVU85
 510 0040 1847     		bx	r3
 511              	.LVL36:
 512              	.L52:
 513              		.cfi_restore_state
ARM GAS  /tmp/ccszGbIG.s 			page 10


 514              		.loc 1 127 3 view .LVU86
 515 0042 034D     		ldr	r5, .L54+4
 516 0044 EFE7     		b	.L43
 517              	.LVL37:
 518              	.L53:
 519              		.loc 1 127 3 view .LVU87
 520 0046 FFF7FEFF 		bl	__stack_chk_fail
 521              	.LVL38:
 522              	.L55:
 523 004a 00BF     		.align	2
 524              	.L54:
 525 004c 00000000 		.word	.LC5
 526 0050 00000000 		.word	.LANCHOR1
 527 0054 00000000 		.word	.LC1
 528              		.cfi_endproc
 529              	.LFE258:
 530              		.size	test_println, .-test_println
 531              		.section	.rodata.test_emit_token.cst4,"aM",%progbits,4
 532              		.align	2
 533              	.LC6:
 534 0000 00000000 		.word	__stack_chk_guard
 535              		.section	.text.test_emit_token,"ax",%progbits
 536              		.align	1
 537              		.p2align 4,,15
 538              		.global	test_emit_token
 539              		.syntax unified
 540              		.thumb
 541              		.thumb_func
 542              		.fpu fpv4-sp-d16
 543              		.type	test_emit_token, %function
 544              	test_emit_token:
 545              	.LVL39:
 546              	.LFB261:
 547              		.loc 1 150 34 is_stmt 1 view -0
 548              		.cfi_startproc
 549              		@ args = 0, pretend = 0, frame = 8
 550              		@ frame_needed = 0, uses_anonymous_args = 0
 551              		.loc 1 150 34 is_stmt 0 view .LVU89
 552 0000 10B5     		push	{r4, lr}
 553              		.cfi_def_cfa_offset 8
 554              		.cfi_offset 4, -8
 555              		.cfi_offset 14, -4
 556 0002 184B     		ldr	r3, .L62
 557 0004 82B0     		sub	sp, sp, #8
 558              		.cfi_def_cfa_offset 16
 559              		.loc 1 150 34 view .LVU90
 560 0006 1B68     		ldr	r3, [r3]
 561 0008 0193     		str	r3, [sp, #4]
 562 000a 4FF00003 		mov	r3,#0
 563              		.loc 1 152 3 is_stmt 1 view .LVU91
 564              	.LBB140:
 565              	.LBI140:
 566              		.file 2 ".//ChibiOS//os/rt/include/chsys.h"
 567              		.loc 2 346 20 view .LVU92
 568              	.LBB141:
 569              		.loc 2 348 3 view .LVU93
 570              	.LBB142:
ARM GAS  /tmp/ccszGbIG.s 			page 11


 571              	.LBI142:
 572              		.file 3 ".//ChibiOS//os/rt/ports/ARMCMx/chcore_v7m.h"
 573              		.loc 3 444 20 view .LVU94
 574              	.LBE142:
 575              	.LBE141:
 576              	.LBE140:
 577              		.loc 3 447 3 view .LVU95
 578              	.LVL40:
 579              	.LBB151:
 580              	.LBB149:
 581              	.LBB147:
 582              	.LBB143:
 583              	.LBI143:
 584              		.file 4 ".//ChibiOS//os/ext/CMSIS/include/core_cmFunc.h"
 585              		.loc 4 544 57 view .LVU96
 586              	.LBB144:
 587              		.loc 4 546 3 view .LVU97
 588              	.LBE144:
 589              	.LBE143:
 590              	.LBE147:
 591              	.LBE149:
 592              	.LBE151:
 593              		.loc 1 150 34 is_stmt 0 view .LVU98
 594 000e 0446     		mov	r4, r0
 595              	.LBB152:
 596              	.LBB150:
 597              	.LBB148:
 598              	.LBB146:
 599              	.LBB145:
 600              		.loc 4 546 3 view .LVU99
 601 0010 2023     		movs	r3, #32
 602              		.syntax unified
 603              	@ 546 ".//ChibiOS//os/ext/CMSIS/include/core_cmFunc.h" 1
 604 0012 83F31188 		MSR basepri, r3
 605              	@ 0 "" 2
 606              	.LVL41:
 607              		.loc 4 546 3 view .LVU100
 608              		.thumb
 609              		.syntax unified
 610              	.LBE145:
 611              	.LBE146:
 612              	.LBE148:
 613              		.loc 2 349 3 is_stmt 1 view .LVU101
 614 0016 FFF7FEFF 		bl	_stats_start_measure_crit_thd
 615              	.LVL42:
 616              		.loc 2 350 3 view .LVU102
 617 001a FFF7FEFF 		bl	_dbg_check_lock
 618              	.LVL43:
 619              	.LBE150:
 620              	.LBE152:
 621              		.loc 1 153 3 view .LVU103
 622              		.loc 1 153 8 is_stmt 0 view .LVU104
 623 001e 124A     		ldr	r2, .L62+4
 624 0020 1368     		ldr	r3, [r2]
 625              		.loc 1 153 11 view .LVU105
 626 0022 1C70     		strb	r4, [r3]
 627              		.loc 1 154 3 is_stmt 1 view .LVU106
ARM GAS  /tmp/ccszGbIG.s 			page 12


 628              	.LBB153:
 629              	.LBI153:
 630              		.loc 2 358 20 view .LVU107
 631              	.LBB154:
 632              		.loc 2 360 3 view .LVU108
 633              	.LBE154:
 634              	.LBE153:
 635              		.loc 1 153 8 is_stmt 0 view .LVU109
 636 0024 0133     		adds	r3, r3, #1
 637 0026 1360     		str	r3, [r2]
 638              	.LBB162:
 639              	.LBB159:
 640              		.loc 2 360 3 view .LVU110
 641 0028 FFF7FEFF 		bl	_dbg_check_unlock
 642              	.LVL44:
 643              		.loc 2 361 3 is_stmt 1 view .LVU111
 644 002c FFF7FEFF 		bl	_stats_stop_measure_crit_thd
 645              	.LVL45:
 646              		.loc 2 367 3 view .LVU112
 647              		.loc 2 367 3 view .LVU113
 648              		.loc 2 367 3 view .LVU114
 649 0030 0E4B     		ldr	r3, .L62+8
 650 0032 1A68     		ldr	r2, [r3]
 651 0034 9A42     		cmp	r2, r3
 652 0036 04D0     		beq	.L57
 653 0038 9969     		ldr	r1, [r3, #24]
 654 003a 9368     		ldr	r3, [r2, #8]
 655 003c 8A68     		ldr	r2, [r1, #8]
 656 003e 9A42     		cmp	r2, r3
 657 0040 09D3     		bcc	.L60
 658              	.L57:
 659              		.loc 2 367 3 view .LVU115
 660              		.loc 2 371 3 view .LVU116
 661              	.LBB155:
 662              	.LBI155:
 663              		.loc 3 458 20 view .LVU117
 664              	.LBE155:
 665              	.LBE159:
 666              	.LBE162:
 667              		.loc 3 461 3 view .LVU118
 668              	.LVL46:
 669              	.LBB163:
 670              	.LBB160:
 671              	.LBB158:
 672              	.LBB156:
 673              	.LBI156:
 674              		.loc 4 544 57 view .LVU119
 675              	.LBB157:
 676              		.loc 4 546 3 view .LVU120
 677 0042 0023     		movs	r3, #0
 678              		.syntax unified
 679              	@ 546 ".//ChibiOS//os/ext/CMSIS/include/core_cmFunc.h" 1
 680 0044 83F31188 		MSR basepri, r3
 681              	@ 0 "" 2
 682              	.LVL47:
 683              		.loc 4 546 3 is_stmt 0 view .LVU121
 684              		.thumb
ARM GAS  /tmp/ccszGbIG.s 			page 13


 685              		.syntax unified
 686              	.LBE157:
 687              	.LBE156:
 688              	.LBE158:
 689              	.LBE160:
 690              	.LBE163:
 691              		.loc 1 155 1 view .LVU122
 692 0048 064B     		ldr	r3, .L62
 693 004a 1A68     		ldr	r2, [r3]
 694 004c 019B     		ldr	r3, [sp, #4]
 695 004e 5A40     		eors	r2, r3, r2
 696 0050 05D1     		bne	.L61
 697 0052 02B0     		add	sp, sp, #8
 698              		.cfi_remember_state
 699              		.cfi_def_cfa_offset 8
 700              		@ sp needed
 701 0054 10BD     		pop	{r4, pc}
 702              	.L60:
 703              		.cfi_restore_state
 704              	.LBB164:
 705              	.LBB161:
 706              		.loc 2 367 3 is_stmt 1 view .LVU123
 707 0056 0648     		ldr	r0, .L62+12
 708 0058 FFF7FEFF 		bl	chSysHalt
 709              	.LVL48:
 710 005c F1E7     		b	.L57
 711              	.L61:
 712              	.LBE161:
 713              	.LBE164:
 714              		.loc 1 155 1 is_stmt 0 view .LVU124
 715 005e FFF7FEFF 		bl	__stack_chk_fail
 716              	.LVL49:
 717              	.L63:
 718 0062 00BF     		.align	2
 719              	.L62:
 720 0064 00000000 		.word	.LC6
 721 0068 00000000 		.word	.LANCHOR2
 722 006c 00000000 		.word	ch
 723 0070 00000000 		.word	.LANCHOR3
 724              		.cfi_endproc
 725              	.LFE261:
 726              		.size	test_emit_token, .-test_emit_token
 727              		.section	.rodata._test_fail.cst4,"aM",%progbits,4
 728              		.align	2
 729              	.LC7:
 730 0000 00000000 		.word	__stack_chk_guard
 731              		.section	.text._test_fail,"ax",%progbits
 732              		.align	1
 733              		.p2align 4,,15
 734              		.global	_test_fail
 735              		.syntax unified
 736              		.thumb
 737              		.thumb_func
 738              		.fpu fpv4-sp-d16
 739              		.type	_test_fail, %function
 740              	_test_fail:
 741              	.LVL50:
ARM GAS  /tmp/ccszGbIG.s 			page 14


 742              	.LFB262:
 743              		.loc 1 160 33 is_stmt 1 view -0
 744              		.cfi_startproc
 745              		@ args = 0, pretend = 0, frame = 8
 746              		@ frame_needed = 0, uses_anonymous_args = 0
 747              		.loc 1 160 33 is_stmt 0 view .LVU126
 748 0000 10B5     		push	{r4, lr}
 749              		.cfi_def_cfa_offset 8
 750              		.cfi_offset 4, -8
 751              		.cfi_offset 14, -4
 752 0002 0B4B     		ldr	r3, .L68
 753              		.loc 1 163 14 view .LVU127
 754 0004 0B4A     		ldr	r2, .L68+4
 755              		.loc 1 162 20 view .LVU128
 756 0006 0C49     		ldr	r1, .L68+8
 757              		.loc 1 164 13 view .LVU129
 758 0008 0C4C     		ldr	r4, .L68+12
 759              		.loc 1 160 33 view .LVU130
 760 000a 82B0     		sub	sp, sp, #8
 761              		.cfi_def_cfa_offset 16
 762              		.loc 1 160 33 view .LVU131
 763 000c 1B68     		ldr	r3, [r3]
 764 000e 0193     		str	r3, [sp, #4]
 765 0010 4FF00003 		mov	r3,#0
 766              		.loc 1 162 3 is_stmt 1 view .LVU132
 767              		.loc 1 162 20 is_stmt 0 view .LVU133
 768 0014 0123     		movs	r3, #1
 769              		.loc 1 163 14 view .LVU134
 770 0016 1370     		strb	r3, [r2]
 771              		.loc 1 166 1 view .LVU135
 772 0018 054A     		ldr	r2, .L68
 773              		.loc 1 164 13 view .LVU136
 774 001a 2060     		str	r0, [r4]
 775              		.loc 1 162 20 view .LVU137
 776 001c 0B70     		strb	r3, [r1]
 777              		.loc 1 163 3 is_stmt 1 view .LVU138
 778              		.loc 1 164 3 view .LVU139
 779              		.loc 1 165 3 view .LVU140
 780              		.loc 1 166 1 is_stmt 0 view .LVU141
 781 001e 1168     		ldr	r1, [r2]
 782 0020 019A     		ldr	r2, [sp, #4]
 783 0022 5140     		eors	r1, r2, r1
 784 0024 02D1     		bne	.L67
 785 0026 1846     		mov	r0, r3
 786              	.LVL51:
 787              		.loc 1 166 1 view .LVU142
 788 0028 02B0     		add	sp, sp, #8
 789              		.cfi_remember_state
 790              		.cfi_def_cfa_offset 8
 791              		@ sp needed
 792 002a 10BD     		pop	{r4, pc}
 793              	.LVL52:
 794              	.L67:
 795              		.cfi_restore_state
 796              		.loc 1 166 1 view .LVU143
 797 002c FFF7FEFF 		bl	__stack_chk_fail
 798              	.LVL53:
ARM GAS  /tmp/ccszGbIG.s 			page 15


 799              	.L69:
 800              		.loc 1 166 1 view .LVU144
 801              		.align	2
 802              	.L68:
 803 0030 00000000 		.word	.LC7
 804 0034 00000000 		.word	.LANCHOR5
 805 0038 00000000 		.word	.LANCHOR4
 806 003c 00000000 		.word	.LANCHOR6
 807              		.cfi_endproc
 808              	.LFE262:
 809              		.size	_test_fail, .-_test_fail
 810              		.section	.rodata._test_assert.cst4,"aM",%progbits,4
 811              		.align	2
 812              	.LC8:
 813 0000 00000000 		.word	__stack_chk_guard
 814              		.section	.text._test_assert,"ax",%progbits
 815              		.align	1
 816              		.p2align 4,,15
 817              		.global	_test_assert
 818              		.syntax unified
 819              		.thumb
 820              		.thumb_func
 821              		.fpu fpv4-sp-d16
 822              		.type	_test_assert, %function
 823              	_test_assert:
 824              	.LVL54:
 825              	.LFB263:
 826              		.loc 1 168 51 is_stmt 1 view -0
 827              		.cfi_startproc
 828              		@ args = 0, pretend = 0, frame = 8
 829              		@ frame_needed = 0, uses_anonymous_args = 0
 830              		.loc 1 168 51 is_stmt 0 view .LVU146
 831 0000 10B5     		push	{r4, lr}
 832              		.cfi_def_cfa_offset 8
 833              		.cfi_offset 4, -8
 834              		.cfi_offset 14, -4
 835 0002 0D4B     		ldr	r3, .L77
 836 0004 82B0     		sub	sp, sp, #8
 837              		.cfi_def_cfa_offset 16
 838              		.loc 1 168 51 view .LVU147
 839 0006 1B68     		ldr	r3, [r3]
 840 0008 0193     		str	r3, [sp, #4]
 841 000a 4FF00003 		mov	r3,#0
 842              		.loc 1 170 3 is_stmt 1 view .LVU148
 843              		.loc 1 170 6 is_stmt 0 view .LVU149
 844 000e 39B1     		cbz	r1, .L75
 845              		.loc 1 172 10 view .LVU150
 846 0010 0020     		movs	r0, #0
 847              	.LVL55:
 848              	.L71:
 849              		.loc 1 173 1 view .LVU151
 850 0012 094B     		ldr	r3, .L77
 851 0014 1A68     		ldr	r2, [r3]
 852 0016 019B     		ldr	r3, [sp, #4]
 853 0018 5A40     		eors	r2, r3, r2
 854 001a 0BD1     		bne	.L76
 855 001c 02B0     		add	sp, sp, #8
ARM GAS  /tmp/ccszGbIG.s 			page 16


 856              		.cfi_remember_state
 857              		.cfi_def_cfa_offset 8
 858              		@ sp needed
 859 001e 10BD     		pop	{r4, pc}
 860              	.LVL56:
 861              	.L75:
 862              		.cfi_restore_state
 863              		.loc 1 173 1 view .LVU152
 864 0020 0246     		mov	r2, r0
 865              		.loc 1 171 5 is_stmt 1 view .LVU153
 866              	.LVL57:
 867              	.LBB165:
 868              	.LBI165:
 869              		.loc 1 160 6 view .LVU154
 870              	.LBB166:
 871              		.loc 1 162 3 view .LVU155
 872              		.loc 1 162 20 is_stmt 0 view .LVU156
 873 0022 064C     		ldr	r4, .L77+4
 874              		.loc 1 163 14 view .LVU157
 875 0024 0648     		ldr	r0, .L77+8
 876              	.LVL58:
 877              		.loc 1 164 13 view .LVU158
 878 0026 0749     		ldr	r1, .L77+12
 879              	.LVL59:
 880              		.loc 1 162 20 view .LVU159
 881 0028 0123     		movs	r3, #1
 882              		.loc 1 163 14 view .LVU160
 883 002a 0370     		strb	r3, [r0]
 884              		.loc 1 162 20 view .LVU161
 885 002c 2370     		strb	r3, [r4]
 886              		.loc 1 163 3 is_stmt 1 view .LVU162
 887              		.loc 1 164 3 view .LVU163
 888              	.LBE166:
 889              	.LBE165:
 890              		.loc 1 171 12 is_stmt 0 view .LVU164
 891 002e 1846     		mov	r0, r3
 892              	.LBB168:
 893              	.LBB167:
 894              		.loc 1 164 13 view .LVU165
 895 0030 0A60     		str	r2, [r1]
 896              		.loc 1 165 3 is_stmt 1 view .LVU166
 897              	.LVL60:
 898              		.loc 1 165 3 is_stmt 0 view .LVU167
 899              	.LBE167:
 900              	.LBE168:
 901              		.loc 1 171 12 view .LVU168
 902 0032 EEE7     		b	.L71
 903              	.LVL61:
 904              	.L76:
 905              		.loc 1 173 1 view .LVU169
 906 0034 FFF7FEFF 		bl	__stack_chk_fail
 907              	.LVL62:
 908              	.L78:
 909              		.align	2
 910              	.L77:
 911 0038 00000000 		.word	.LC8
 912 003c 00000000 		.word	.LANCHOR4
ARM GAS  /tmp/ccszGbIG.s 			page 17


 913 0040 00000000 		.word	.LANCHOR5
 914 0044 00000000 		.word	.LANCHOR6
 915              		.cfi_endproc
 916              	.LFE263:
 917              		.size	_test_assert, .-_test_assert
 918              		.section	.rodata._test_assert_sequence.cst4,"aM",%progbits,4
 919              		.align	2
 920              	.LC9:
 921 0000 00000000 		.word	__stack_chk_guard
 922              		.section	.text._test_assert_sequence,"ax",%progbits
 923              		.align	1
 924              		.p2align 4,,15
 925              		.global	_test_assert_sequence
 926              		.syntax unified
 927              		.thumb
 928              		.thumb_func
 929              		.fpu fpv4-sp-d16
 930              		.type	_test_assert_sequence, %function
 931              	_test_assert_sequence:
 932              	.LVL63:
 933              	.LFB264:
 934              		.loc 1 175 60 is_stmt 1 view -0
 935              		.cfi_startproc
 936              		@ args = 0, pretend = 0, frame = 8
 937              		@ frame_needed = 0, uses_anonymous_args = 0
 938              		.loc 1 175 60 is_stmt 0 view .LVU171
 939 0000 F0B5     		push	{r4, r5, r6, r7, lr}
 940              		.cfi_def_cfa_offset 20
 941              		.cfi_offset 4, -20
 942              		.cfi_offset 5, -16
 943              		.cfi_offset 6, -12
 944              		.cfi_offset 7, -8
 945              		.cfi_offset 14, -4
 946 0002 154B     		ldr	r3, .L88
 947              		.loc 1 177 13 view .LVU172
 948 0004 154E     		ldr	r6, .L88+4
 949              		.loc 1 176 9 view .LVU173
 950 0006 164F     		ldr	r7, .L88+8
 951              		.loc 1 177 13 view .LVU174
 952 0008 3568     		ldr	r5, [r6]
 953              		.loc 1 175 60 view .LVU175
 954 000a 83B0     		sub	sp, sp, #12
 955              		.cfi_def_cfa_offset 32
 956              		.loc 1 175 60 view .LVU176
 957 000c 1B68     		ldr	r3, [r3]
 958 000e 0193     		str	r3, [sp, #4]
 959 0010 4FF00003 		mov	r3,#0
 960              		.loc 1 176 3 is_stmt 1 view .LVU177
 961              	.LVL64:
 962              		.loc 1 177 3 view .LVU178
 963              		.loc 1 175 60 is_stmt 0 view .LVU179
 964 0014 8446     		mov	ip, r0
 965              		.loc 1 176 9 view .LVU180
 966 0016 3B46     		mov	r3, r7
 967              		.loc 1 177 9 view .LVU181
 968 0018 05E0     		b	.L80
 969              	.LVL65:
ARM GAS  /tmp/ccszGbIG.s 			page 18


 970              	.L82:
 971              		.loc 1 178 5 is_stmt 1 view .LVU182
 972              		.loc 1 178 8 is_stmt 0 view .LVU183
 973 001a 13F8014B 		ldrb	r4, [r3], #1	@ zero_extendqisi2
 974              	.LVL66:
 975              		.loc 1 178 8 view .LVU184
 976 001e 11F8012B 		ldrb	r2, [r1], #1	@ zero_extendqisi2
 977              	.LVL67:
 978              		.loc 1 178 8 view .LVU185
 979 0022 9442     		cmp	r4, r2
 980 0024 05D1     		bne	.L83
 981              	.LVL68:
 982              	.L80:
 983              		.loc 1 177 9 is_stmt 1 view .LVU186
 984 0026 9D42     		cmp	r5, r3
 985 0028 F7D8     		bhi	.L82
 986              		.loc 1 181 3 view .LVU187
 987              		.loc 1 181 6 is_stmt 0 view .LVU188
 988 002a 0878     		ldrb	r0, [r1]	@ zero_extendqisi2
 989              	.LVL69:
 990              		.loc 1 181 6 view .LVU189
 991 002c 08B9     		cbnz	r0, .L83
 992              		.loc 1 183 3 is_stmt 1 view .LVU190
 993              	.LBB169:
 994              	.LBI169:
 995              		.loc 1 133 13 view .LVU191
 996              	.LBB170:
 997              		.loc 1 135 3 view .LVU192
 998              		.loc 1 135 8 is_stmt 0 view .LVU193
 999 002e 3760     		str	r7, [r6]
 1000              	.LBE170:
 1001              	.LBE169:
 1002              		.loc 1 184 3 is_stmt 1 view .LVU194
 1003              		.loc 1 184 10 is_stmt 0 view .LVU195
 1004 0030 08E0     		b	.L81
 1005              	.L83:
 1006              		.loc 1 179 6 is_stmt 1 view .LVU196
 1007              	.LVL70:
 1008              	.LBB171:
 1009              	.LBI171:
 1010              		.loc 1 160 6 view .LVU197
 1011              	.LBB172:
 1012              		.loc 1 162 3 view .LVU198
 1013              		.loc 1 162 20 is_stmt 0 view .LVU199
 1014 0032 0C48     		ldr	r0, .L88+12
 1015              		.loc 1 163 14 view .LVU200
 1016 0034 0C49     		ldr	r1, .L88+16
 1017              	.LVL71:
 1018              		.loc 1 164 13 view .LVU201
 1019 0036 0D4A     		ldr	r2, .L88+20
 1020              		.loc 1 162 20 view .LVU202
 1021 0038 0123     		movs	r3, #1
 1022              	.LVL72:
 1023              		.loc 1 162 20 view .LVU203
 1024 003a 0370     		strb	r3, [r0]
 1025              		.loc 1 163 3 is_stmt 1 view .LVU204
 1026              		.loc 1 163 14 is_stmt 0 view .LVU205
ARM GAS  /tmp/ccszGbIG.s 			page 19


 1027 003c 0B70     		strb	r3, [r1]
 1028              		.loc 1 164 3 is_stmt 1 view .LVU206
 1029              	.LBE172:
 1030              	.LBE171:
 1031              		.loc 1 179 13 is_stmt 0 view .LVU207
 1032 003e 1846     		mov	r0, r3
 1033              	.LBB174:
 1034              	.LBB173:
 1035              		.loc 1 164 13 view .LVU208
 1036 0040 C2F800C0 		str	ip, [r2]
 1037              		.loc 1 165 3 is_stmt 1 view .LVU209
 1038              	.LVL73:
 1039              	.L81:
 1040              		.loc 1 165 3 is_stmt 0 view .LVU210
 1041              	.LBE173:
 1042              	.LBE174:
 1043              		.loc 1 185 1 view .LVU211
 1044 0044 044B     		ldr	r3, .L88
 1045 0046 1A68     		ldr	r2, [r3]
 1046 0048 019B     		ldr	r3, [sp, #4]
 1047 004a 5A40     		eors	r2, r3, r2
 1048 004c 01D1     		bne	.L87
 1049 004e 03B0     		add	sp, sp, #12
 1050              		.cfi_remember_state
 1051              		.cfi_def_cfa_offset 20
 1052              		@ sp needed
 1053 0050 F0BD     		pop	{r4, r5, r6, r7, pc}
 1054              	.L87:
 1055              		.cfi_restore_state
 1056 0052 FFF7FEFF 		bl	__stack_chk_fail
 1057              	.LVL74:
 1058              	.L89:
 1059              		.loc 1 185 1 view .LVU212
 1060 0056 00BF     		.align	2
 1061              	.L88:
 1062 0058 00000000 		.word	.LC9
 1063 005c 00000000 		.word	.LANCHOR2
 1064 0060 00000000 		.word	.LANCHOR7
 1065 0064 00000000 		.word	.LANCHOR4
 1066 0068 00000000 		.word	.LANCHOR5
 1067 006c 00000000 		.word	.LANCHOR6
 1068              		.cfi_endproc
 1069              	.LFE264:
 1070              		.size	_test_assert_sequence, .-_test_assert_sequence
 1071              		.section	.rodata._test_assert_time_window.cst4,"aM",%progbits,4
 1072              		.align	2
 1073              	.LC10:
 1074 0000 00000000 		.word	__stack_chk_guard
 1075              		.section	.text._test_assert_time_window,"ax",%progbits
 1076              		.align	1
 1077              		.p2align 4,,15
 1078              		.global	_test_assert_time_window
 1079              		.syntax unified
 1080              		.thumb
 1081              		.thumb_func
 1082              		.fpu fpv4-sp-d16
 1083              		.type	_test_assert_time_window, %function
ARM GAS  /tmp/ccszGbIG.s 			page 20


 1084              	_test_assert_time_window:
 1085              	.LVL75:
 1086              	.LFB265:
 1087              		.loc 1 187 79 is_stmt 1 view -0
 1088              		.cfi_startproc
 1089              		@ args = 0, pretend = 0, frame = 8
 1090              		@ frame_needed = 0, uses_anonymous_args = 0
 1091              		.loc 1 187 79 is_stmt 0 view .LVU214
 1092 0000 2DE9F041 		push	{r4, r5, r6, r7, r8, lr}
 1093              		.cfi_def_cfa_offset 24
 1094              		.cfi_offset 4, -24
 1095              		.cfi_offset 5, -20
 1096              		.cfi_offset 6, -16
 1097              		.cfi_offset 7, -12
 1098              		.cfi_offset 8, -8
 1099              		.cfi_offset 14, -4
 1100 0004 1F4B     		ldr	r3, .L99
 1101 0006 82B0     		sub	sp, sp, #8
 1102              		.cfi_def_cfa_offset 32
 1103              		.loc 1 187 79 view .LVU215
 1104 0008 1B68     		ldr	r3, [r3]
 1105 000a 0193     		str	r3, [sp, #4]
 1106 000c 4FF00003 		mov	r3,#0
 1107              		.loc 1 189 3 is_stmt 1 view .LVU216
 1108              		.loc 1 187 79 is_stmt 0 view .LVU217
 1109 0010 0746     		mov	r7, r0
 1110 0012 0D46     		mov	r5, r1
 1111              	.LVL76:
 1112              		.loc 1 187 79 view .LVU218
 1113 0014 1446     		mov	r4, r2
 1114              	.LVL77:
 1115              	.LBB197:
 1116              	.LBI197:
 1117              		.file 5 ".//ChibiOS//os/rt/include/chvt.h"
 1118              		.loc 5 322 20 is_stmt 1 view .LVU219
 1119              	.LBE197:
 1120              		.loc 5 324 3 view .LVU220
 1121              	.LBB234:
 1122              	.LBB198:
 1123              	.LBI198:
 1124              		.loc 5 247 25 view .LVU221
 1125              	.LBB199:
 1126              		.loc 5 248 3 view .LVU222
 1127              		.loc 5 250 3 view .LVU223
 1128              	.LBB200:
 1129              	.LBI200:
 1130              		.loc 2 346 20 view .LVU224
 1131              	.LBB201:
 1132              		.loc 2 348 3 view .LVU225
 1133              	.LBB202:
 1134              	.LBI202:
 1135              		.loc 3 444 20 view .LVU226
 1136              	.LBE202:
 1137              	.LBE201:
 1138              	.LBE200:
 1139              	.LBE199:
 1140              	.LBE198:
ARM GAS  /tmp/ccszGbIG.s 			page 21


 1141              	.LBE234:
 1142              		.loc 3 447 3 view .LVU227
 1143              	.LBB235:
 1144              	.LBB227:
 1145              	.LBB224:
 1146              	.LBB208:
 1147              	.LBB206:
 1148              	.LBB205:
 1149              	.LBB203:
 1150              	.LBI203:
 1151              		.loc 4 544 57 view .LVU228
 1152              	.LBB204:
 1153              		.loc 4 546 3 view .LVU229
 1154 0016 2023     		movs	r3, #32
 1155              		.syntax unified
 1156              	@ 546 ".//ChibiOS//os/ext/CMSIS/include/core_cmFunc.h" 1
 1157 0018 83F31188 		MSR basepri, r3
 1158              	@ 0 "" 2
 1159              	.LVL78:
 1160              		.loc 4 546 3 is_stmt 0 view .LVU230
 1161              		.thumb
 1162              		.syntax unified
 1163              	.LBE204:
 1164              	.LBE203:
 1165              	.LBE205:
 1166              		.loc 2 349 3 is_stmt 1 view .LVU231
 1167              	.LBE206:
 1168              	.LBE208:
 1169              	.LBB209:
 1170              	.LBB210:
 1171              		.loc 5 231 19 is_stmt 0 view .LVU232
 1172 001c 1A4E     		ldr	r6, .L99+4
 1173              	.LBE210:
 1174              	.LBE209:
 1175              	.LBB212:
 1176              	.LBB207:
 1177              		.loc 2 349 3 view .LVU233
 1178 001e FFF7FEFF 		bl	_stats_start_measure_crit_thd
 1179              	.LVL79:
 1180              		.loc 2 350 3 is_stmt 1 view .LVU234
 1181 0022 FFF7FEFF 		bl	_dbg_check_lock
 1182              	.LVL80:
 1183              	.LBE207:
 1184              	.LBE212:
 1185              		.loc 5 251 3 view .LVU235
 1186              	.LBB213:
 1187              	.LBI209:
 1188              		.loc 5 228 25 view .LVU236
 1189              	.LBB211:
 1190              		.loc 5 231 3 view .LVU237
 1191              		.loc 5 231 19 is_stmt 0 view .LVU238
 1192 0026 D6F82880 		ldr	r8, [r6, #40]
 1193              	.LVL81:
 1194              		.loc 5 231 19 view .LVU239
 1195              	.LBE211:
 1196              	.LBE213:
 1197              		.loc 5 252 3 is_stmt 1 view .LVU240
ARM GAS  /tmp/ccszGbIG.s 			page 22


 1198              	.LBB214:
 1199              	.LBI214:
 1200              		.loc 2 358 20 view .LVU241
 1201              	.LBB215:
 1202              		.loc 2 360 3 view .LVU242
 1203 002a FFF7FEFF 		bl	_dbg_check_unlock
 1204              	.LVL82:
 1205              		.loc 2 361 3 view .LVU243
 1206 002e FFF7FEFF 		bl	_stats_stop_measure_crit_thd
 1207              	.LVL83:
 1208              		.loc 2 367 3 view .LVU244
 1209              		.loc 2 367 3 view .LVU245
 1210              		.loc 2 367 3 view .LVU246
 1211 0032 3368     		ldr	r3, [r6]
 1212 0034 B342     		cmp	r3, r6
 1213 0036 04D0     		beq	.L91
 1214 0038 B269     		ldr	r2, [r6, #24]
 1215 003a 9B68     		ldr	r3, [r3, #8]
 1216 003c 9268     		ldr	r2, [r2, #8]
 1217 003e 9A42     		cmp	r2, r3
 1218 0040 10D3     		bcc	.L96
 1219              	.L91:
 1220              		.loc 2 367 3 view .LVU247
 1221              		.loc 2 371 3 view .LVU248
 1222              	.LBB216:
 1223              	.LBI216:
 1224              		.loc 3 458 20 view .LVU249
 1225              	.LBE216:
 1226              	.LBE215:
 1227              	.LBE214:
 1228              	.LBE224:
 1229              	.LBE227:
 1230              	.LBE235:
 1231              		.loc 3 461 3 view .LVU250
 1232              	.LVL84:
 1233              	.LBB236:
 1234              	.LBB228:
 1235              	.LBB225:
 1236              	.LBB222:
 1237              	.LBB220:
 1238              	.LBB219:
 1239              	.LBB217:
 1240              	.LBI217:
 1241              		.loc 4 544 57 view .LVU251
 1242              	.LBB218:
 1243              		.loc 4 546 3 view .LVU252
 1244 0042 0023     		movs	r3, #0
 1245              		.syntax unified
 1246              	@ 546 ".//ChibiOS//os/ext/CMSIS/include/core_cmFunc.h" 1
 1247 0044 83F31188 		MSR basepri, r3
 1248              	@ 0 "" 2
 1249              	.LVL85:
 1250              		.loc 4 546 3 is_stmt 0 view .LVU253
 1251              		.thumb
 1252              		.syntax unified
 1253              	.LBE218:
 1254              	.LBE217:
ARM GAS  /tmp/ccszGbIG.s 			page 23


 1255              	.LBE219:
 1256              	.LBE220:
 1257              	.LBE222:
 1258              		.loc 5 254 3 is_stmt 1 view .LVU254
 1259              		.loc 5 254 3 is_stmt 0 view .LVU255
 1260              	.LBE225:
 1261              	.LBE228:
 1262              	.LBB229:
 1263              	.LBI229:
 1264              		.loc 5 284 20 is_stmt 1 view .LVU256
 1265              	.LBB230:
 1266              		.loc 5 288 3 view .LVU257
 1267              		.loc 5 288 3 is_stmt 0 view .LVU258
 1268              	.LBE230:
 1269              	.LBE229:
 1270              	.LBE236:
 1271              	.LBB237:
 1272              	.LBI237:
 1273              		.loc 1 168 6 is_stmt 1 view .LVU259
 1274              	.LBB238:
 1275              		.loc 1 170 3 view .LVU260
 1276              	.LBE238:
 1277              	.LBE237:
 1278              	.LBB245:
 1279              	.LBB232:
 1280              	.LBB231:
 1281              		.loc 5 288 23 is_stmt 0 view .LVU261
 1282 0048 A8EB0502 		sub	r2, r8, r5
 1283              		.loc 5 288 39 view .LVU262
 1284 004c 641B     		subs	r4, r4, r5
 1285              	.LVL86:
 1286              		.loc 5 288 39 view .LVU263
 1287              	.LBE231:
 1288              	.LBE232:
 1289              	.LBE245:
 1290              	.LBB246:
 1291              	.LBB243:
 1292              		.loc 1 170 6 view .LVU264
 1293 004e A242     		cmp	r2, r4
 1294 0050 0CD2     		bcs	.L97
 1295              		.loc 1 172 10 view .LVU265
 1296 0052 1846     		mov	r0, r3
 1297              	.L92:
 1298              	.LVL87:
 1299              		.loc 1 172 10 view .LVU266
 1300              	.LBE243:
 1301              	.LBE246:
 1302              		.loc 1 190 1 view .LVU267
 1303 0054 0B4B     		ldr	r3, .L99
 1304 0056 1A68     		ldr	r2, [r3]
 1305 0058 019B     		ldr	r3, [sp, #4]
 1306 005a 5A40     		eors	r2, r3, r2
 1307 005c 0FD1     		bne	.L98
 1308 005e 02B0     		add	sp, sp, #8
 1309              		.cfi_remember_state
 1310              		.cfi_def_cfa_offset 24
 1311              		@ sp needed
ARM GAS  /tmp/ccszGbIG.s 			page 24


 1312 0060 BDE8F081 		pop	{r4, r5, r6, r7, r8, pc}
 1313              	.LVL88:
 1314              	.L96:
 1315              		.cfi_restore_state
 1316              	.LBB247:
 1317              	.LBB233:
 1318              	.LBB226:
 1319              	.LBB223:
 1320              	.LBB221:
 1321              		.loc 2 367 3 is_stmt 1 view .LVU268
 1322 0064 0948     		ldr	r0, .L99+8
 1323 0066 FFF7FEFF 		bl	chSysHalt
 1324              	.LVL89:
 1325 006a EAE7     		b	.L91
 1326              	.LVL90:
 1327              	.L97:
 1328              		.loc 2 367 3 is_stmt 0 view .LVU269
 1329              	.LBE221:
 1330              	.LBE223:
 1331              	.LBE226:
 1332              	.LBE233:
 1333              	.LBE247:
 1334              	.LBB248:
 1335              	.LBB244:
 1336              		.loc 1 171 5 is_stmt 1 view .LVU270
 1337              	.LBB239:
 1338              	.LBI239:
 1339              		.loc 1 160 6 view .LVU271
 1340              	.LBB240:
 1341              		.loc 1 162 3 view .LVU272
 1342              		.loc 1 162 20 is_stmt 0 view .LVU273
 1343 006c 0848     		ldr	r0, .L99+12
 1344              		.loc 1 163 14 view .LVU274
 1345 006e 0949     		ldr	r1, .L99+16
 1346              		.loc 1 164 13 view .LVU275
 1347 0070 094A     		ldr	r2, .L99+20
 1348              		.loc 1 162 20 view .LVU276
 1349 0072 0123     		movs	r3, #1
 1350 0074 0370     		strb	r3, [r0]
 1351              		.loc 1 163 3 is_stmt 1 view .LVU277
 1352              		.loc 1 163 14 is_stmt 0 view .LVU278
 1353 0076 0B70     		strb	r3, [r1]
 1354              		.loc 1 164 3 is_stmt 1 view .LVU279
 1355              	.LBE240:
 1356              	.LBE239:
 1357              		.loc 1 171 12 is_stmt 0 view .LVU280
 1358 0078 1846     		mov	r0, r3
 1359              	.LBB242:
 1360              	.LBB241:
 1361              		.loc 1 164 13 view .LVU281
 1362 007a 1760     		str	r7, [r2]
 1363              		.loc 1 165 3 is_stmt 1 view .LVU282
 1364              	.LVL91:
 1365              		.loc 1 165 3 is_stmt 0 view .LVU283
 1366              	.LBE241:
 1367              	.LBE242:
 1368              		.loc 1 171 12 view .LVU284
ARM GAS  /tmp/ccszGbIG.s 			page 25


 1369 007c EAE7     		b	.L92
 1370              	.LVL92:
 1371              	.L98:
 1372              		.loc 1 171 12 view .LVU285
 1373              	.LBE244:
 1374              	.LBE248:
 1375              		.loc 1 190 1 view .LVU286
 1376 007e FFF7FEFF 		bl	__stack_chk_fail
 1377              	.LVL93:
 1378              	.L100:
 1379 0082 00BF     		.align	2
 1380              	.L99:
 1381 0084 00000000 		.word	.LC10
 1382 0088 00000000 		.word	ch
 1383 008c 00000000 		.word	.LANCHOR3
 1384 0090 00000000 		.word	.LANCHOR4
 1385 0094 00000000 		.word	.LANCHOR5
 1386 0098 00000000 		.word	.LANCHOR6
 1387              		.cfi_endproc
 1388              	.LFE265:
 1389              		.size	_test_assert_time_window, .-_test_assert_time_window
 1390              		.section	.rodata.test_terminate_threads.cst4,"aM",%progbits,4
 1391              		.align	2
 1392              	.LC11:
 1393 0000 00000000 		.word	__stack_chk_guard
 1394              		.section	.text.test_terminate_threads,"ax",%progbits
 1395              		.align	1
 1396              		.p2align 4,,15
 1397              		.global	test_terminate_threads
 1398              		.syntax unified
 1399              		.thumb
 1400              		.thumb_func
 1401              		.fpu fpv4-sp-d16
 1402              		.type	test_terminate_threads, %function
 1403              	test_terminate_threads:
 1404              	.LFB266:
 1405              		.loc 1 199 35 is_stmt 1 view -0
 1406              		.cfi_startproc
 1407              		@ args = 0, pretend = 0, frame = 8
 1408              		@ frame_needed = 0, uses_anonymous_args = 0
 1409 0000 30B5     		push	{r4, r5, lr}
 1410              		.cfi_def_cfa_offset 12
 1411              		.cfi_offset 4, -12
 1412              		.cfi_offset 5, -8
 1413              		.cfi_offset 14, -4
 1414 0002 0C4B     		ldr	r3, .L111
 1415 0004 0C4C     		ldr	r4, .L111+4
 1416 0006 83B0     		sub	sp, sp, #12
 1417              		.cfi_def_cfa_offset 24
 1418              		.loc 1 199 35 is_stmt 0 view .LVU288
 1419 0008 1B68     		ldr	r3, [r3]
 1420 000a 0193     		str	r3, [sp, #4]
 1421 000c 4FF00003 		mov	r3,#0
 1422              		.loc 1 200 3 is_stmt 1 view .LVU289
 1423              		.loc 1 202 3 view .LVU290
 1424              	.LVL94:
 1425              		.loc 1 202 15 view .LVU291
ARM GAS  /tmp/ccszGbIG.s 			page 26


 1426 0010 04F11405 		add	r5, r4, #20
 1427              	.LVL95:
 1428              	.L103:
 1429              		.loc 1 203 5 view .LVU292
 1430              		.loc 1 203 16 is_stmt 0 view .LVU293
 1431 0014 54F8040B 		ldr	r0, [r4], #4
 1432              		.loc 1 203 8 view .LVU294
 1433 0018 08B1     		cbz	r0, .L102
 1434              		.loc 1 204 7 is_stmt 1 view .LVU295
 1435 001a FFF7FEFF 		bl	chThdTerminate
 1436              	.LVL96:
 1437              	.L102:
 1438              		.loc 1 202 32 discriminator 2 view .LVU296
 1439              		.loc 1 202 15 discriminator 2 view .LVU297
 1440              		.loc 1 202 3 is_stmt 0 discriminator 2 view .LVU298
 1441 001e AC42     		cmp	r4, r5
 1442 0020 F8D1     		bne	.L103
 1443              		.loc 1 205 1 view .LVU299
 1444 0022 044B     		ldr	r3, .L111
 1445 0024 1A68     		ldr	r2, [r3]
 1446 0026 019B     		ldr	r3, [sp, #4]
 1447 0028 5A40     		eors	r2, r3, r2
 1448 002a 01D1     		bne	.L110
 1449 002c 03B0     		add	sp, sp, #12
 1450              		.cfi_remember_state
 1451              		.cfi_def_cfa_offset 12
 1452              		@ sp needed
 1453 002e 30BD     		pop	{r4, r5, pc}
 1454              	.L110:
 1455              		.cfi_restore_state
 1456 0030 FFF7FEFF 		bl	__stack_chk_fail
 1457              	.LVL97:
 1458              	.L112:
 1459              		.align	2
 1460              	.L111:
 1461 0034 00000000 		.word	.LC11
 1462 0038 00000000 		.word	.LANCHOR8
 1463              		.cfi_endproc
 1464              	.LFE266:
 1465              		.size	test_terminate_threads, .-test_terminate_threads
 1466              		.section	.rodata.test_wait_threads.cst4,"aM",%progbits,4
 1467              		.align	2
 1468              	.LC12:
 1469 0000 00000000 		.word	__stack_chk_guard
 1470              		.section	.text.test_wait_threads,"ax",%progbits
 1471              		.align	1
 1472              		.p2align 4,,15
 1473              		.global	test_wait_threads
 1474              		.syntax unified
 1475              		.thumb
 1476              		.thumb_func
 1477              		.fpu fpv4-sp-d16
 1478              		.type	test_wait_threads, %function
 1479              	test_wait_threads:
 1480              	.LFB267:
 1481              		.loc 1 210 30 is_stmt 1 view -0
 1482              		.cfi_startproc
ARM GAS  /tmp/ccszGbIG.s 			page 27


 1483              		@ args = 0, pretend = 0, frame = 8
 1484              		@ frame_needed = 0, uses_anonymous_args = 0
 1485 0000 70B5     		push	{r4, r5, r6, lr}
 1486              		.cfi_def_cfa_offset 16
 1487              		.cfi_offset 4, -16
 1488              		.cfi_offset 5, -12
 1489              		.cfi_offset 6, -8
 1490              		.cfi_offset 14, -4
 1491 0002 0E4B     		ldr	r3, .L123
 1492 0004 0E4C     		ldr	r4, .L123+4
 1493 0006 82B0     		sub	sp, sp, #8
 1494              		.cfi_def_cfa_offset 24
 1495              		.loc 1 210 30 is_stmt 0 view .LVU301
 1496 0008 1B68     		ldr	r3, [r3]
 1497 000a 0193     		str	r3, [sp, #4]
 1498 000c 4FF00003 		mov	r3,#0
 1499              		.loc 1 211 3 is_stmt 1 view .LVU302
 1500              		.loc 1 213 3 view .LVU303
 1501              	.LVL98:
 1502              		.loc 1 213 15 view .LVU304
 1503 0010 04F11405 		add	r5, r4, #20
 1504              		.loc 1 216 18 is_stmt 0 view .LVU305
 1505 0014 0026     		movs	r6, #0
 1506              	.LVL99:
 1507              	.L115:
 1508              		.loc 1 214 5 is_stmt 1 view .LVU306
 1509              		.loc 1 214 16 is_stmt 0 view .LVU307
 1510 0016 54F8040B 		ldr	r0, [r4], #4
 1511              		.loc 1 214 8 view .LVU308
 1512 001a 18B1     		cbz	r0, .L114
 1513              		.loc 1 215 7 is_stmt 1 view .LVU309
 1514 001c FFF7FEFF 		bl	chThdWait
 1515              	.LVL100:
 1516              		.loc 1 216 7 view .LVU310
 1517              		.loc 1 216 18 is_stmt 0 view .LVU311
 1518 0020 44F8046C 		str	r6, [r4, #-4]
 1519              	.L114:
 1520              		.loc 1 213 32 is_stmt 1 discriminator 2 view .LVU312
 1521              		.loc 1 213 15 discriminator 2 view .LVU313
 1522              		.loc 1 213 3 is_stmt 0 discriminator 2 view .LVU314
 1523 0024 AC42     		cmp	r4, r5
 1524 0026 F6D1     		bne	.L115
 1525              		.loc 1 218 1 view .LVU315
 1526 0028 044B     		ldr	r3, .L123
 1527 002a 1A68     		ldr	r2, [r3]
 1528 002c 019B     		ldr	r3, [sp, #4]
 1529 002e 5A40     		eors	r2, r3, r2
 1530 0030 01D1     		bne	.L122
 1531 0032 02B0     		add	sp, sp, #8
 1532              		.cfi_remember_state
 1533              		.cfi_def_cfa_offset 16
 1534              		@ sp needed
 1535 0034 70BD     		pop	{r4, r5, r6, pc}
 1536              	.L122:
 1537              		.cfi_restore_state
 1538 0036 FFF7FEFF 		bl	__stack_chk_fail
 1539              	.LVL101:
ARM GAS  /tmp/ccszGbIG.s 			page 28


 1540              	.L124:
 1541 003a 00BF     		.align	2
 1542              	.L123:
 1543 003c 00000000 		.word	.LC12
 1544 0040 00000000 		.word	.LANCHOR8
 1545              		.cfi_endproc
 1546              	.LFE267:
 1547              		.size	test_wait_threads, .-test_wait_threads
 1548              		.section	.rodata.test_cpu_pulse.cst4,"aM",%progbits,4
 1549              		.align	2
 1550              	.LC13:
 1551 0000 00000000 		.word	__stack_chk_guard
 1552              		.section	.text.test_cpu_pulse,"ax",%progbits
 1553              		.align	1
 1554              		.p2align 4,,15
 1555              		.global	test_cpu_pulse
 1556              		.syntax unified
 1557              		.thumb
 1558              		.thumb_func
 1559              		.fpu fpv4-sp-d16
 1560              		.type	test_cpu_pulse, %function
 1561              	test_cpu_pulse:
 1562              	.LVL102:
 1563              	.LFB268:
 1564              		.loc 1 227 40 is_stmt 1 view -0
 1565              		.cfi_startproc
 1566              		@ args = 0, pretend = 0, frame = 8
 1567              		@ frame_needed = 0, uses_anonymous_args = 0
 1568              		.loc 1 227 40 is_stmt 0 view .LVU317
 1569 0000 30B5     		push	{r4, r5, lr}
 1570              		.cfi_def_cfa_offset 12
 1571              		.cfi_offset 4, -12
 1572              		.cfi_offset 5, -8
 1573              		.cfi_offset 14, -4
 1574              	.LBB249:
 1575              	.LBB250:
 1576              		.file 6 ".//ChibiOS//os/rt/include/chthreads.h"
 1577              		.loc 6 176 18 view .LVU318
 1578 0002 134B     		ldr	r3, .L134
 1579              	.LBE250:
 1580              	.LBE249:
 1581              		.loc 1 231 17 view .LVU319
 1582 0004 134D     		ldr	r5, .L134+4
 1583              	.LBB253:
 1584              	.LBB251:
 1585              		.loc 6 176 18 view .LVU320
 1586 0006 9C69     		ldr	r4, [r3, #24]
 1587              	.LBE251:
 1588              	.LBE253:
 1589              		.loc 1 227 40 view .LVU321
 1590 0008 134B     		ldr	r3, .L134+8
 1591 000a 83B0     		sub	sp, sp, #12
 1592              		.cfi_def_cfa_offset 24
 1593              		.loc 1 227 40 view .LVU322
 1594 000c 1B68     		ldr	r3, [r3]
 1595 000e 0193     		str	r3, [sp, #4]
 1596 0010 4FF00003 		mov	r3,#0
ARM GAS  /tmp/ccszGbIG.s 			page 29


 1597              		.loc 1 228 3 is_stmt 1 view .LVU323
 1598              		.loc 1 230 3 view .LVU324
 1599              	.LBB254:
 1600              	.LBI249:
 1601              		.loc 6 174 25 view .LVU325
 1602              	.LBB252:
 1603              		.loc 6 176 3 view .LVU326
 1604              	.LVL103:
 1605              		.loc 6 176 3 is_stmt 0 view .LVU327
 1606              	.LBE252:
 1607              	.LBE254:
 1608              	.LBB255:
 1609              	.LBI255:
 1610              		.loc 6 203 25 is_stmt 1 view .LVU328
 1611              	.LBB256:
 1612              		.loc 6 205 3 view .LVU329
 1613              	.LBE256:
 1614              	.LBE255:
 1615              		.loc 1 231 17 is_stmt 0 view .LVU330
 1616 0014 4FF47A73 		mov	r3, #1000
 1617 0018 03FB00F0 		mul	r0, r3, r0
 1618              	.LVL104:
 1619              	.LBB258:
 1620              	.LBB257:
 1621              		.loc 6 205 12 view .LVU331
 1622 001c 616A     		ldr	r1, [r4, #36]
 1623              	.LVL105:
 1624              		.loc 6 205 12 view .LVU332
 1625              	.LBE257:
 1626              	.LBE258:
 1627              		.loc 1 231 3 is_stmt 1 view .LVU333
 1628              		.loc 1 231 17 is_stmt 0 view .LVU334
 1629 001e 00F2E732 		addw	r2, r0, #999
 1630 0022 A5FB0232 		umull	r3, r2, r5, r2
 1631              		.loc 1 231 7 view .LVU335
 1632 0026 01EB9212 		add	r2, r1, r2, lsr #6
 1633              	.LVL106:
 1634              	.L130:
 1635              		.loc 1 232 3 is_stmt 1 view .LVU336
 1636              		.loc 1 233 5 view .LVU337
 1637              		.loc 6 176 3 view .LVU338
 1638              	.LBB259:
 1639              	.LBI259:
 1640              		.loc 6 203 25 view .LVU339
 1641              	.LBB260:
 1642              		.loc 6 205 3 view .LVU340
 1643              	.LBE260:
 1644              	.LBE259:
 1645              		.loc 1 238 10 is_stmt 0 view .LVU341
 1646 002a 8A42     		cmp	r2, r1
 1647              	.LBB262:
 1648              	.LBB261:
 1649              		.loc 6 205 12 view .LVU342
 1650 002c 636A     		ldr	r3, [r4, #36]
 1651              	.LVL107:
 1652              		.loc 6 205 12 view .LVU343
 1653              	.LBE261:
ARM GAS  /tmp/ccszGbIG.s 			page 30


 1654              	.LBE262:
 1655              		.loc 1 238 9 is_stmt 1 view .LVU344
 1656              		.loc 1 238 10 is_stmt 0 view .LVU345
 1657 002e 08D9     		bls	.L126
 1658              		.loc 1 238 39 discriminator 1 view .LVU346
 1659 0030 9942     		cmp	r1, r3
 1660 0032 08D9     		bls	.L132
 1661              	.L125:
 1662              		.loc 1 240 1 view .LVU347
 1663 0034 084B     		ldr	r3, .L134+8
 1664              	.LVL108:
 1665              		.loc 1 240 1 view .LVU348
 1666 0036 1A68     		ldr	r2, [r3]
 1667 0038 019B     		ldr	r3, [sp, #4]
 1668 003a 5A40     		eors	r2, r3, r2
 1669              	.LVL109:
 1670              		.loc 1 240 1 view .LVU349
 1671 003c 06D1     		bne	.L133
 1672 003e 03B0     		add	sp, sp, #12
 1673              		.cfi_remember_state
 1674              		.cfi_def_cfa_offset 12
 1675              		@ sp needed
 1676 0040 30BD     		pop	{r4, r5, pc}
 1677              	.LVL110:
 1678              	.L126:
 1679              		.cfi_restore_state
 1680              		.loc 1 239 39 view .LVU350
 1681 0042 9942     		cmp	r1, r3
 1682 0044 F1D9     		bls	.L130
 1683              	.L132:
 1684              		.loc 1 239 24 discriminator 2 view .LVU351
 1685 0046 9A42     		cmp	r2, r3
 1686 0048 EFD8     		bhi	.L130
 1687 004a F3E7     		b	.L125
 1688              	.LVL111:
 1689              	.L133:
 1690              		.loc 1 240 1 view .LVU352
 1691 004c FFF7FEFF 		bl	__stack_chk_fail
 1692              	.LVL112:
 1693              	.L135:
 1694              		.loc 1 240 1 view .LVU353
 1695              		.align	2
 1696              	.L134:
 1697 0050 00000000 		.word	ch
 1698 0054 D34D6210 		.word	274877907
 1699 0058 00000000 		.word	.LC13
 1700              		.cfi_endproc
 1701              	.LFE268:
 1702              		.size	test_cpu_pulse, .-test_cpu_pulse
 1703              		.section	.rodata.test_wait_tick.cst4,"aM",%progbits,4
 1704              		.align	2
 1705              	.LC14:
 1706 0000 00000000 		.word	__stack_chk_guard
 1707              		.section	.text.test_wait_tick,"ax",%progbits
 1708              		.align	1
 1709              		.p2align 4,,15
 1710              		.global	test_wait_tick
ARM GAS  /tmp/ccszGbIG.s 			page 31


 1711              		.syntax unified
 1712              		.thumb
 1713              		.thumb_func
 1714              		.fpu fpv4-sp-d16
 1715              		.type	test_wait_tick, %function
 1716              	test_wait_tick:
 1717              	.LFB269:
 1718              		.loc 1 248 32 is_stmt 1 view -0
 1719              		.cfi_startproc
 1720              		@ args = 0, pretend = 0, frame = 8
 1721              		@ frame_needed = 0, uses_anonymous_args = 0
 1722 0000 30B5     		push	{r4, r5, lr}
 1723              		.cfi_def_cfa_offset 12
 1724              		.cfi_offset 4, -12
 1725              		.cfi_offset 5, -8
 1726              		.cfi_offset 14, -4
 1727 0002 174B     		ldr	r3, .L142
 1728 0004 83B0     		sub	sp, sp, #12
 1729              		.cfi_def_cfa_offset 24
 1730              		.loc 1 250 3 is_stmt 0 view .LVU355
 1731 0006 0120     		movs	r0, #1
 1732              		.loc 1 248 32 view .LVU356
 1733 0008 1B68     		ldr	r3, [r3]
 1734 000a 0193     		str	r3, [sp, #4]
 1735 000c 4FF00003 		mov	r3,#0
 1736              		.loc 1 250 3 is_stmt 1 view .LVU357
 1737 0010 FFF7FEFF 		bl	chThdSleep
 1738              	.LVL113:
 1739              		.loc 1 251 3 view .LVU358
 1740              	.LBB277:
 1741              	.LBI277:
 1742              		.loc 5 247 25 view .LVU359
 1743              	.LBB278:
 1744              		.loc 5 248 3 view .LVU360
 1745              		.loc 5 250 3 view .LVU361
 1746              	.LBB279:
 1747              	.LBI279:
 1748              		.loc 2 346 20 view .LVU362
 1749              	.LBB280:
 1750              		.loc 2 348 3 view .LVU363
 1751              	.LBB281:
 1752              	.LBI281:
 1753              		.loc 3 444 20 view .LVU364
 1754              	.LBE281:
 1755              	.LBE280:
 1756              	.LBE279:
 1757              	.LBE278:
 1758              	.LBE277:
 1759              		.loc 3 447 3 view .LVU365
 1760              	.LBB306:
 1761              	.LBB303:
 1762              	.LBB287:
 1763              	.LBB285:
 1764              	.LBB284:
 1765              	.LBB282:
 1766              	.LBI282:
 1767              		.loc 4 544 57 view .LVU366
ARM GAS  /tmp/ccszGbIG.s 			page 32


 1768              	.LBB283:
 1769              		.loc 4 546 3 view .LVU367
 1770 0014 2023     		movs	r3, #32
 1771              		.syntax unified
 1772              	@ 546 ".//ChibiOS//os/ext/CMSIS/include/core_cmFunc.h" 1
 1773 0016 83F31188 		MSR basepri, r3
 1774              	@ 0 "" 2
 1775              	.LVL114:
 1776              		.loc 4 546 3 is_stmt 0 view .LVU368
 1777              		.thumb
 1778              		.syntax unified
 1779              	.LBE283:
 1780              	.LBE282:
 1781              	.LBE284:
 1782              		.loc 2 349 3 is_stmt 1 view .LVU369
 1783              	.LBE285:
 1784              	.LBE287:
 1785              	.LBB288:
 1786              	.LBB289:
 1787              		.loc 5 231 19 is_stmt 0 view .LVU370
 1788 001a 124C     		ldr	r4, .L142+4
 1789              	.LBE289:
 1790              	.LBE288:
 1791              	.LBB291:
 1792              	.LBB286:
 1793              		.loc 2 349 3 view .LVU371
 1794 001c FFF7FEFF 		bl	_stats_start_measure_crit_thd
 1795              	.LVL115:
 1796              		.loc 2 350 3 is_stmt 1 view .LVU372
 1797 0020 FFF7FEFF 		bl	_dbg_check_lock
 1798              	.LVL116:
 1799              	.LBE286:
 1800              	.LBE291:
 1801              		.loc 5 251 3 view .LVU373
 1802              	.LBB292:
 1803              	.LBI288:
 1804              		.loc 5 228 25 view .LVU374
 1805              	.LBB290:
 1806              		.loc 5 231 3 view .LVU375
 1807              		.loc 5 231 19 is_stmt 0 view .LVU376
 1808 0024 A56A     		ldr	r5, [r4, #40]
 1809              	.LVL117:
 1810              		.loc 5 231 19 view .LVU377
 1811              	.LBE290:
 1812              	.LBE292:
 1813              		.loc 5 252 3 is_stmt 1 view .LVU378
 1814              	.LBB293:
 1815              	.LBI293:
 1816              		.loc 2 358 20 view .LVU379
 1817              	.LBB294:
 1818              		.loc 2 360 3 view .LVU380
 1819 0026 FFF7FEFF 		bl	_dbg_check_unlock
 1820              	.LVL118:
 1821              		.loc 2 361 3 view .LVU381
 1822 002a FFF7FEFF 		bl	_stats_stop_measure_crit_thd
 1823              	.LVL119:
 1824              		.loc 2 367 3 view .LVU382
ARM GAS  /tmp/ccszGbIG.s 			page 33


 1825              		.loc 2 367 3 view .LVU383
 1826              		.loc 2 367 3 view .LVU384
 1827 002e 2368     		ldr	r3, [r4]
 1828 0030 A342     		cmp	r3, r4
 1829 0032 04D0     		beq	.L137
 1830 0034 A269     		ldr	r2, [r4, #24]
 1831 0036 9B68     		ldr	r3, [r3, #8]
 1832 0038 9268     		ldr	r2, [r2, #8]
 1833 003a 9A42     		cmp	r2, r3
 1834 003c 0AD3     		bcc	.L140
 1835              	.L137:
 1836              		.loc 2 367 3 view .LVU385
 1837              		.loc 2 371 3 view .LVU386
 1838              	.LBB295:
 1839              	.LBI295:
 1840              		.loc 3 458 20 view .LVU387
 1841              	.LBE295:
 1842              	.LBE294:
 1843              	.LBE293:
 1844              	.LBE303:
 1845              	.LBE306:
 1846              		.loc 3 461 3 view .LVU388
 1847              	.LVL120:
 1848              	.LBB307:
 1849              	.LBB304:
 1850              	.LBB301:
 1851              	.LBB299:
 1852              	.LBB298:
 1853              	.LBB296:
 1854              	.LBI296:
 1855              		.loc 4 544 57 view .LVU389
 1856              	.LBB297:
 1857              		.loc 4 546 3 view .LVU390
 1858 003e 0023     		movs	r3, #0
 1859              		.syntax unified
 1860              	@ 546 ".//ChibiOS//os/ext/CMSIS/include/core_cmFunc.h" 1
 1861 0040 83F31188 		MSR basepri, r3
 1862              	@ 0 "" 2
 1863              	.LVL121:
 1864              		.loc 4 546 3 is_stmt 0 view .LVU391
 1865              		.thumb
 1866              		.syntax unified
 1867              	.LBE297:
 1868              	.LBE296:
 1869              	.LBE298:
 1870              	.LBE299:
 1871              	.LBE301:
 1872              		.loc 5 254 3 is_stmt 1 view .LVU392
 1873              	.LBE304:
 1874              	.LBE307:
 1875              		.loc 1 252 1 is_stmt 0 view .LVU393
 1876 0044 064B     		ldr	r3, .L142
 1877 0046 1A68     		ldr	r2, [r3]
 1878 0048 019B     		ldr	r3, [sp, #4]
 1879 004a 5A40     		eors	r2, r3, r2
 1880 004c 06D1     		bne	.L141
 1881 004e 2846     		mov	r0, r5
ARM GAS  /tmp/ccszGbIG.s 			page 34


 1882 0050 03B0     		add	sp, sp, #12
 1883              		.cfi_remember_state
 1884              		.cfi_def_cfa_offset 12
 1885              		@ sp needed
 1886 0052 30BD     		pop	{r4, r5, pc}
 1887              	.LVL122:
 1888              	.L140:
 1889              		.cfi_restore_state
 1890              	.LBB308:
 1891              	.LBB305:
 1892              	.LBB302:
 1893              	.LBB300:
 1894              		.loc 2 367 3 is_stmt 1 view .LVU394
 1895 0054 0448     		ldr	r0, .L142+8
 1896 0056 FFF7FEFF 		bl	chSysHalt
 1897              	.LVL123:
 1898 005a F0E7     		b	.L137
 1899              	.L141:
 1900              	.LBE300:
 1901              	.LBE302:
 1902              	.LBE305:
 1903              	.LBE308:
 1904              		.loc 1 252 1 is_stmt 0 view .LVU395
 1905 005c FFF7FEFF 		bl	__stack_chk_fail
 1906              	.LVL124:
 1907              	.L143:
 1908              		.align	2
 1909              	.L142:
 1910 0060 00000000 		.word	.LC14
 1911 0064 00000000 		.word	ch
 1912 0068 00000000 		.word	.LANCHOR3
 1913              		.cfi_endproc
 1914              	.LFE269:
 1915              		.size	test_wait_tick, .-test_wait_tick
 1916              		.section	.rodata.test_start_timer.cst4,"aM",%progbits,4
 1917              		.align	2
 1918              	.LC15:
 1919 0000 00000000 		.word	__stack_chk_guard
 1920              		.section	.text.test_start_timer,"ax",%progbits
 1921              		.align	1
 1922              		.p2align 4,,15
 1923              		.global	test_start_timer
 1924              		.syntax unified
 1925              		.thumb
 1926              		.thumb_func
 1927              		.fpu fpv4-sp-d16
 1928              		.type	test_start_timer, %function
 1929              	test_start_timer:
 1930              	.LVL125:
 1931              	.LFB271:
 1932              		.loc 1 275 36 is_stmt 1 view -0
 1933              		.cfi_startproc
 1934              		@ args = 0, pretend = 0, frame = 8
 1935              		@ frame_needed = 0, uses_anonymous_args = 0
 1936              		.loc 1 275 36 is_stmt 0 view .LVU397
 1937 0000 10B5     		push	{r4, lr}
 1938              		.cfi_def_cfa_offset 8
ARM GAS  /tmp/ccszGbIG.s 			page 35


 1939              		.cfi_offset 4, -8
 1940              		.cfi_offset 14, -4
 1941              		.loc 1 277 24 view .LVU398
 1942 0002 4FF47A73 		mov	r3, #1000
 1943 0006 03FB00F0 		mul	r0, r3, r0
 1944              	.LVL126:
 1945              		.loc 1 277 13 view .LVU399
 1946 000a 2049     		ldr	r1, .L154
 1947              		.loc 1 275 36 view .LVU400
 1948 000c 204B     		ldr	r3, .L154+4
 1949              		.loc 1 278 19 view .LVU401
 1950 000e 214A     		ldr	r2, .L154+8
 1951              		.loc 1 275 36 view .LVU402
 1952 0010 82B0     		sub	sp, sp, #8
 1953              		.cfi_def_cfa_offset 16
 1954              		.loc 1 277 24 view .LVU403
 1955 0012 00F2E734 		addw	r4, r0, #999
 1956              		.loc 1 275 36 view .LVU404
 1957 0016 1B68     		ldr	r3, [r3]
 1958 0018 0193     		str	r3, [sp, #4]
 1959 001a 4FF00003 		mov	r3,#0
 1960              		.loc 1 277 3 is_stmt 1 view .LVU405
 1961              		.loc 1 277 13 is_stmt 0 view .LVU406
 1962 001e A1FB0434 		umull	r3, r4, r1, r4
 1963              		.loc 1 278 19 view .LVU407
 1964 0022 0023     		movs	r3, #0
 1965 0024 1370     		strb	r3, [r2]
 1966              		.loc 1 277 13 view .LVU408
 1967 0026 A409     		lsrs	r4, r4, #6
 1968              	.LVL127:
 1969              		.loc 1 278 3 is_stmt 1 view .LVU409
 1970              		.loc 1 279 3 view .LVU410
 1971              	.LBB327:
 1972              	.LBI327:
 1973              		.loc 5 449 20 view .LVU411
 1974              		.loc 5 449 20 is_stmt 0 view .LVU412
 1975              	.LBE327:
 1976              		.loc 5 452 3 is_stmt 1 view .LVU413
 1977              	.LBB352:
 1978              	.LBB328:
 1979              	.LBI328:
 1980              		.loc 2 346 20 view .LVU414
 1981              	.LBB329:
 1982              		.loc 2 348 3 view .LVU415
 1983              	.LBB330:
 1984              	.LBI330:
 1985              		.loc 3 444 20 view .LVU416
 1986              	.LBE330:
 1987              	.LBE329:
 1988              	.LBE328:
 1989              	.LBE352:
 1990              		.loc 3 447 3 view .LVU417
 1991              	.LBB353:
 1992              	.LBB335:
 1993              	.LBB334:
 1994              	.LBB333:
 1995              	.LBB331:
ARM GAS  /tmp/ccszGbIG.s 			page 36


 1996              	.LBI331:
 1997              		.loc 4 544 57 view .LVU418
 1998              	.LBB332:
 1999              		.loc 4 546 3 view .LVU419
 2000 0028 2023     		movs	r3, #32
 2001              		.syntax unified
 2002              	@ 546 ".//ChibiOS//os/ext/CMSIS/include/core_cmFunc.h" 1
 2003 002a 83F31188 		MSR basepri, r3
 2004              	@ 0 "" 2
 2005              	.LVL128:
 2006              		.loc 4 546 3 is_stmt 0 view .LVU420
 2007              		.thumb
 2008              		.syntax unified
 2009              	.LBE332:
 2010              	.LBE331:
 2011              	.LBE333:
 2012              		.loc 2 349 3 is_stmt 1 view .LVU421
 2013 002e FFF7FEFF 		bl	_stats_start_measure_crit_thd
 2014              	.LVL129:
 2015              		.loc 2 350 3 view .LVU422
 2016 0032 FFF7FEFF 		bl	_dbg_check_lock
 2017              	.LVL130:
 2018              	.LBE334:
 2019              	.LBE335:
 2020              	.LBE353:
 2021              		.loc 5 453 3 view .LVU423
 2022              	.LBB354:
 2023              	.LBB336:
 2024              	.LBI336:
 2025              		.loc 5 420 20 view .LVU424
 2026              	.LBB337:
 2027              		.loc 5 423 3 view .LVU425
 2028              	.LBB338:
 2029              	.LBI338:
 2030              		.loc 5 374 20 view .LVU426
 2031              	.LBB339:
 2032              		.loc 5 376 3 view .LVU427
 2033              	.LBB340:
 2034              	.LBI340:
 2035              		.loc 5 337 20 view .LVU428
 2036              	.LBB341:
 2037              		.loc 5 339 3 view .LVU429
 2038 0036 FFF7FEFF 		bl	chDbgCheckClassI
 2039              	.LVL131:
 2040              		.loc 5 341 3 view .LVU430
 2041              		.loc 5 341 20 is_stmt 0 view .LVU431
 2042 003a 1748     		ldr	r0, .L154+12
 2043              	.LBE341:
 2044              	.LBE340:
 2045              		.loc 5 376 6 view .LVU432
 2046 003c C368     		ldr	r3, [r0, #12]
 2047 003e 0BB1     		cbz	r3, .L145
 2048              		.loc 5 377 5 is_stmt 1 view .LVU433
 2049 0040 FFF7FEFF 		bl	chVTDoResetI
 2050              	.LVL132:
 2051              	.L145:
 2052              		.loc 5 377 5 is_stmt 0 view .LVU434
ARM GAS  /tmp/ccszGbIG.s 			page 37


 2053              	.LBE339:
 2054              	.LBE338:
 2055              		.loc 5 424 3 is_stmt 1 view .LVU435
 2056 0044 154A     		ldr	r2, .L154+16
 2057 0046 1448     		ldr	r0, .L154+12
 2058 0048 0023     		movs	r3, #0
 2059 004a 2146     		mov	r1, r4
 2060 004c FFF7FEFF 		bl	chVTDoSetI
 2061              	.LVL133:
 2062              		.loc 5 424 3 is_stmt 0 view .LVU436
 2063              	.LBE337:
 2064              	.LBE336:
 2065              	.LBE354:
 2066              		.loc 5 454 3 is_stmt 1 view .LVU437
 2067              	.LBB355:
 2068              	.LBB342:
 2069              	.LBI342:
 2070              		.loc 2 358 20 view .LVU438
 2071              	.LBB343:
 2072              		.loc 2 360 3 view .LVU439
 2073 0050 FFF7FEFF 		bl	_dbg_check_unlock
 2074              	.LVL134:
 2075              		.loc 2 361 3 view .LVU440
 2076 0054 FFF7FEFF 		bl	_stats_stop_measure_crit_thd
 2077              	.LVL135:
 2078              		.loc 2 367 3 view .LVU441
 2079              		.loc 2 367 3 view .LVU442
 2080              		.loc 2 367 3 view .LVU443
 2081 0058 114B     		ldr	r3, .L154+20
 2082 005a 1A68     		ldr	r2, [r3]
 2083 005c 9A42     		cmp	r2, r3
 2084 005e 04D0     		beq	.L146
 2085 0060 9969     		ldr	r1, [r3, #24]
 2086 0062 9368     		ldr	r3, [r2, #8]
 2087 0064 8A68     		ldr	r2, [r1, #8]
 2088 0066 9A42     		cmp	r2, r3
 2089 0068 09D3     		bcc	.L152
 2090              	.L146:
 2091              		.loc 2 367 3 view .LVU444
 2092              		.loc 2 371 3 view .LVU445
 2093              	.LBB344:
 2094              	.LBI344:
 2095              		.loc 3 458 20 view .LVU446
 2096              	.LBE344:
 2097              	.LBE343:
 2098              	.LBE342:
 2099              	.LBE355:
 2100              		.loc 3 461 3 view .LVU447
 2101              	.LVL136:
 2102              	.LBB356:
 2103              	.LBB350:
 2104              	.LBB348:
 2105              	.LBB347:
 2106              	.LBB345:
 2107              	.LBI345:
 2108              		.loc 4 544 57 view .LVU448
 2109              	.LBB346:
ARM GAS  /tmp/ccszGbIG.s 			page 38


 2110              		.loc 4 546 3 view .LVU449
 2111 006a 0023     		movs	r3, #0
 2112              		.syntax unified
 2113              	@ 546 ".//ChibiOS//os/ext/CMSIS/include/core_cmFunc.h" 1
 2114 006c 83F31188 		MSR basepri, r3
 2115              	@ 0 "" 2
 2116              	.LVL137:
 2117              		.loc 4 546 3 is_stmt 0 view .LVU450
 2118              		.thumb
 2119              		.syntax unified
 2120              	.LBE346:
 2121              	.LBE345:
 2122              	.LBE347:
 2123              	.LBE348:
 2124              	.LBE350:
 2125              	.LBE356:
 2126              		.loc 1 280 1 view .LVU451
 2127 0070 074B     		ldr	r3, .L154+4
 2128 0072 1A68     		ldr	r2, [r3]
 2129 0074 019B     		ldr	r3, [sp, #4]
 2130 0076 5A40     		eors	r2, r3, r2
 2131 0078 05D1     		bne	.L153
 2132 007a 02B0     		add	sp, sp, #8
 2133              		.cfi_remember_state
 2134              		.cfi_def_cfa_offset 8
 2135              		@ sp needed
 2136 007c 10BD     		pop	{r4, pc}
 2137              	.LVL138:
 2138              	.L152:
 2139              		.cfi_restore_state
 2140              	.LBB357:
 2141              	.LBB351:
 2142              	.LBB349:
 2143              		.loc 2 367 3 is_stmt 1 view .LVU452
 2144 007e 0948     		ldr	r0, .L154+24
 2145 0080 FFF7FEFF 		bl	chSysHalt
 2146              	.LVL139:
 2147 0084 F1E7     		b	.L146
 2148              	.LVL140:
 2149              	.L153:
 2150              		.loc 2 367 3 is_stmt 0 view .LVU453
 2151              	.LBE349:
 2152              	.LBE351:
 2153              	.LBE357:
 2154              		.loc 1 280 1 view .LVU454
 2155 0086 FFF7FEFF 		bl	__stack_chk_fail
 2156              	.LVL141:
 2157              	.L155:
 2158 008a 00BF     		.align	2
 2159              	.L154:
 2160 008c D34D6210 		.word	274877907
 2161 0090 00000000 		.word	.LC15
 2162 0094 00000000 		.word	.LANCHOR0
 2163 0098 00000000 		.word	.LANCHOR9
 2164 009c 00000000 		.word	tmr
 2165 00a0 00000000 		.word	ch
 2166 00a4 00000000 		.word	.LANCHOR3
ARM GAS  /tmp/ccszGbIG.s 			page 39


 2167              		.cfi_endproc
 2168              	.LFE271:
 2169              		.size	test_start_timer, .-test_start_timer
 2170              		.section	.rodata.TestThread.str1.4,"aMS",%progbits,1
 2171              		.align	2
 2172              	.LC16:
 2173 0000 2A2A2A20 		.ascii	"*** Kernel:       \000"
 2173      4B65726E 
 2173      656C3A20 
 2173      20202020 
 2173      202000
 2174 0013 00       		.align	2
 2175              	.LC17:
 2176 0014 2A2A2A20 		.ascii	"*** Compiled:     \000"
 2176      436F6D70 
 2176      696C6564 
 2176      3A202020 
 2176      202000
 2177 0027 00       		.align	2
 2178              	.LC18:
 2179 0028 2A2A2A20 		.ascii	"*** Compiler:     \000"
 2179      436F6D70 
 2179      696C6572 
 2179      3A202020 
 2179      202000
 2180 003b 00       		.align	2
 2181              	.LC19:
 2182 003c 2A2A2A20 		.ascii	"*** Architecture: \000"
 2182      41726368 
 2182      69746563 
 2182      74757265 
 2182      3A2000
 2183 004f 00       		.align	2
 2184              	.LC20:
 2185 0050 2A2A2A20 		.ascii	"*** Core Variant: \000"
 2185      436F7265 
 2185      20566172 
 2185      69616E74 
 2185      3A2000
 2186 0063 00       		.align	2
 2187              	.LC21:
 2188 0064 2A2A2A20 		.ascii	"*** Port Info:    \000"
 2188      506F7274 
 2188      20496E66 
 2188      6F3A2020 
 2188      202000
 2189 0077 00       		.align	2
 2190              	.LC22:
 2191 0078 2A2A2A20 		.ascii	"*** Platform:     \000"
 2191      506C6174 
 2191      666F726D 
 2191      3A202020 
 2191      202000
 2192 008b 00       		.align	2
 2193              	.LC23:
 2194 008c 2A2A2A20 		.ascii	"*** Test Board:   \000"
 2194      54657374 
ARM GAS  /tmp/ccszGbIG.s 			page 40


 2194      20426F61 
 2194      72643A20 
 2194      202000
 2195 009f 00       		.align	2
 2196              	.LC24:
 2197 00a0 2D2D2D20 		.ascii	"--- Test Case \000"
 2197      54657374 
 2197      20436173 
 2197      652000
 2198 00af 00       		.align	2
 2199              	.LC25:
 2200 00b0 202800   		.ascii	" (\000"
 2201 00b3 00       		.align	2
 2202              	.LC26:
 2203 00b4 2D2D2D20 		.ascii	"--- Result: FAILURE (#\000"
 2203      52657375 
 2203      6C743A20 
 2203      4641494C 
 2203      55524520 
 2204 00cb 00       		.align	2
 2205              	.LC27:
 2206 00cc 205B00   		.ascii	" [\000"
 2207 00cf 00       		.align	2
 2208              	.LC28:
 2209 00d0 46696E61 		.ascii	"Final result: \000"
 2209      6C207265 
 2209      73756C74 
 2209      3A2000
 2210 00df 00       		.align	2
 2211              	.LC29:
 2212 00e0 00       		.ascii	"\000"
 2213 00e1 000000   		.align	2
 2214              	.LC30:
 2215 00e4 2A2A2A20 		.ascii	"*** ChibiOS/RT test suite\000"
 2215      43686962 
 2215      694F532F 
 2215      52542074 
 2215      65737420 
 2216 00fe 0000     		.align	2
 2217              	.LC31:
 2218 0100 2A2A2A00 		.ascii	"***\000"
 2219              		.align	2
 2220              	.LC32:
 2221 0104 332E302E 		.ascii	"3.0.0\000"
 2221      3000
 2222 010a 0000     		.align	2
 2223              	.LC33:
 2224 010c 41707220 		.ascii	"Apr  6 2022 - 15:27:20\000"
 2224      20362032 
 2224      30323220 
 2224      2D203135 
 2224      3A32373A 
 2225 0123 00       		.align	2
 2226              	.LC34:
 2227 0124 47434320 		.ascii	"GCC 9.2.1 20191025 (release) [ARM/arm-9-branch revi"
 2227      392E322E 
 2227      31203230 
ARM GAS  /tmp/ccszGbIG.s 			page 41


 2227      31393130 
 2227      32352028 
 2228 0157 73696F6E 		.ascii	"sion 277599]\000"
 2228      20323737 
 2228      3539395D 
 2228      00
 2229              		.align	2
 2230              	.LC35:
 2231 0164 41524D76 		.ascii	"ARMv7-ME\000"
 2231      372D4D45 
 2231      00
 2232 016d 000000   		.align	2
 2233              	.LC36:
 2234 0170 436F7274 		.ascii	"Cortex-M4F\000"
 2234      65782D4D 
 2234      344600
 2235 017b 00       		.align	2
 2236              	.LC37:
 2237 017c 41647661 		.ascii	"Advanced kernel mode\000"
 2237      6E636564 
 2237      206B6572 
 2237      6E656C20 
 2237      6D6F6465 
 2238 0191 000000   		.align	2
 2239              	.LC38:
 2240 0194 53544D33 		.ascii	"STM32F407 High Performance with DSP and FPU\000"
 2240      32463430 
 2240      37204869 
 2240      67682050 
 2240      6572666F 
 2241              		.align	2
 2242              	.LC39:
 2243 01c0 47435472 		.ascii	"GCTronic-MobotsEPFL e-puck V2.0_F\000"
 2243      6F6E6963 
 2243      2D4D6F62 
 2243      6F747345 
 2243      50464C20 
 2244 01e2 0000     		.align	2
 2245              	.LC40:
 2246 01e4 2900     		.ascii	")\000"
 2247 01e6 0000     		.align	2
 2248              	.LC41:
 2249 01e8 5D2900   		.ascii	"])\000"
 2250 01eb 00       		.align	2
 2251              	.LC42:
 2252 01ec 2D2D2D20 		.ascii	"--- Result: SUCCESS\000"
 2252      52657375 
 2252      6C743A20 
 2252      53554343 
 2252      45535300 
 2253              		.align	2
 2254              	.LC43:
 2255 0200 4641494C 		.ascii	"FAILURE\000"
 2255      55524500 
 2256              		.align	2
 2257              	.LC44:
 2258 0208 53554343 		.ascii	"SUCCESS\000"
ARM GAS  /tmp/ccszGbIG.s 			page 42


 2258      45535300 
 2259              		.section	.rodata.TestThread.cst4,"aM",%progbits,4
 2260              		.align	2
 2261              	.LC45:
 2262 0000 00000000 		.word	__stack_chk_guard
 2263              		.section	.text.TestThread,"ax",%progbits
 2264              		.align	1
 2265              		.p2align 4,,15
 2266              		.global	TestThread
 2267              		.syntax unified
 2268              		.thumb
 2269              		.thumb_func
 2270              		.fpu fpv4-sp-d16
 2271              		.type	TestThread, %function
 2272              	TestThread:
 2273              	.LVL142:
 2274              	.LFB274:
 2275              		.loc 1 316 26 is_stmt 1 view -0
 2276              		.cfi_startproc
 2277              		@ args = 0, pretend = 0, frame = 24
 2278              		@ frame_needed = 0, uses_anonymous_args = 0
 2279              		.loc 1 316 26 is_stmt 0 view .LVU456
 2280 0000 2DE9F04F 		push	{r4, r5, r6, r7, r8, r9, r10, fp, lr}
 2281              		.cfi_def_cfa_offset 36
 2282              		.cfi_offset 4, -36
 2283              		.cfi_offset 5, -32
 2284              		.cfi_offset 6, -28
 2285              		.cfi_offset 7, -24
 2286              		.cfi_offset 8, -20
 2287              		.cfi_offset 9, -16
 2288              		.cfi_offset 10, -12
 2289              		.cfi_offset 11, -8
 2290              		.cfi_offset 14, -4
 2291 0004 9F4B     		ldr	r3, .L214
 2292              		.loc 1 319 7 view .LVU457
 2293 0006 A04C     		ldr	r4, .L214+4
 2294              		.loc 1 322 3 view .LVU458
 2295 0008 A04D     		ldr	r5, .L214+8
 2296              		.loc 1 316 26 view .LVU459
 2297 000a 87B0     		sub	sp, sp, #28
 2298              		.cfi_def_cfa_offset 64
 2299              		.loc 1 316 26 view .LVU460
 2300 000c 1B68     		ldr	r3, [r3]
 2301 000e 0593     		str	r3, [sp, #20]
 2302 0010 4FF00003 		mov	r3,#0
 2303              		.loc 1 317 3 is_stmt 1 view .LVU461
 2304              		.loc 1 319 3 view .LVU462
 2305              		.loc 1 316 26 is_stmt 0 view .LVU463
 2306 0014 0346     		mov	r3, r0
 2307              		.loc 1 320 3 view .LVU464
 2308 0016 9E48     		ldr	r0, .L214+12
 2309              	.LVL143:
 2310              		.loc 1 319 7 view .LVU465
 2311 0018 2360     		str	r3, [r4]
 2312              		.loc 1 320 3 is_stmt 1 view .LVU466
 2313 001a FFF7FEFF 		bl	test_println
 2314              	.LVL144:
ARM GAS  /tmp/ccszGbIG.s 			page 43


 2315              		.loc 1 321 3 view .LVU467
 2316 001e 9D48     		ldr	r0, .L214+16
 2317 0020 FFF7FEFF 		bl	test_println
 2318              	.LVL145:
 2319              		.loc 1 322 3 view .LVU468
 2320 0024 9C48     		ldr	r0, .L214+20
 2321 0026 FFF7FEFF 		bl	test_println
 2322              	.LVL146:
 2323              		.loc 1 323 3 view .LVU469
 2324              	.LBB394:
 2325              	.LBI394:
 2326              		.loc 1 113 6 view .LVU470
 2327              	.LBB395:
 2328              		.loc 1 115 3 view .LVU471
 2329              		.loc 1 115 9 view .LVU472
 2330              		.loc 1 115 10 is_stmt 0 view .LVU473
 2331 002a 2A21     		movs	r1, #42
 2332              	.LVL147:
 2333              	.L157:
 2334              		.loc 1 116 5 is_stmt 1 view .LVU474
 2335 002c 2068     		ldr	r0, [r4]
 2336              	.LVL148:
 2337              		.loc 1 116 5 is_stmt 0 view .LVU475
 2338 002e 0368     		ldr	r3, [r0]
 2339 0030 9B68     		ldr	r3, [r3, #8]
 2340 0032 9847     		blx	r3
 2341              	.LVL149:
 2342              		.loc 1 115 9 is_stmt 1 view .LVU476
 2343              		.loc 1 115 10 is_stmt 0 view .LVU477
 2344 0034 15F8011F 		ldrb	r1, [r5, #1]!	@ zero_extendqisi2
 2345              	.LVL150:
 2346              		.loc 1 115 9 view .LVU478
 2347 0038 0029     		cmp	r1, #0
 2348 003a F7D1     		bne	.L157
 2349              	.LVL151:
 2350              		.loc 1 115 9 view .LVU479
 2351              	.LBE395:
 2352              	.LBE394:
 2353              		.loc 1 324 3 is_stmt 1 view .LVU480
 2354 003c 9748     		ldr	r0, .L214+24
 2355 003e 984D     		ldr	r5, .L214+28
 2356 0040 FFF7FEFF 		bl	test_println
 2357              	.LVL152:
 2358              		.loc 1 325 3 view .LVU481
 2359              	.LBB396:
 2360              	.LBI396:
 2361              		.loc 1 113 6 view .LVU482
 2362              	.LBB397:
 2363              		.loc 1 115 9 view .LVU483
 2364              		.loc 1 115 10 is_stmt 0 view .LVU484
 2365 0044 2A21     		movs	r1, #42
 2366              	.LVL153:
 2367              	.L158:
 2368              		.loc 1 116 5 is_stmt 1 view .LVU485
 2369 0046 2068     		ldr	r0, [r4]
 2370              	.LVL154:
 2371              		.loc 1 116 5 is_stmt 0 view .LVU486
ARM GAS  /tmp/ccszGbIG.s 			page 44


 2372 0048 0368     		ldr	r3, [r0]
 2373 004a 9B68     		ldr	r3, [r3, #8]
 2374 004c 9847     		blx	r3
 2375              	.LVL155:
 2376              		.loc 1 115 9 is_stmt 1 view .LVU487
 2377              		.loc 1 115 10 is_stmt 0 view .LVU488
 2378 004e 15F8011F 		ldrb	r1, [r5, #1]!	@ zero_extendqisi2
 2379              	.LVL156:
 2380              		.loc 1 115 9 view .LVU489
 2381 0052 0029     		cmp	r1, #0
 2382 0054 F7D1     		bne	.L158
 2383              	.LVL157:
 2384              		.loc 1 115 9 view .LVU490
 2385              	.LBE397:
 2386              	.LBE396:
 2387              		.loc 1 326 3 is_stmt 1 view .LVU491
 2388 0056 9348     		ldr	r0, .L214+32
 2389 0058 934D     		ldr	r5, .L214+36
 2390 005a FFF7FEFF 		bl	test_println
 2391              	.LVL158:
 2392              		.loc 1 328 3 view .LVU492
 2393              	.LBB398:
 2394              	.LBI398:
 2395              		.loc 1 113 6 view .LVU493
 2396              	.LBB399:
 2397              		.loc 1 115 9 view .LVU494
 2398              		.loc 1 115 10 is_stmt 0 view .LVU495
 2399 005e 2A21     		movs	r1, #42
 2400              	.LVL159:
 2401              	.L159:
 2402              		.loc 1 116 5 is_stmt 1 view .LVU496
 2403 0060 2068     		ldr	r0, [r4]
 2404              	.LVL160:
 2405              		.loc 1 116 5 is_stmt 0 view .LVU497
 2406 0062 0368     		ldr	r3, [r0]
 2407 0064 9B68     		ldr	r3, [r3, #8]
 2408 0066 9847     		blx	r3
 2409              	.LVL161:
 2410              		.loc 1 115 9 is_stmt 1 view .LVU498
 2411              		.loc 1 115 10 is_stmt 0 view .LVU499
 2412 0068 15F8011F 		ldrb	r1, [r5, #1]!	@ zero_extendqisi2
 2413              	.LVL162:
 2414              		.loc 1 115 9 view .LVU500
 2415 006c 0029     		cmp	r1, #0
 2416 006e F7D1     		bne	.L159
 2417              	.LVL163:
 2418              		.loc 1 115 9 view .LVU501
 2419              	.LBE399:
 2420              	.LBE398:
 2421              		.loc 1 329 3 is_stmt 1 view .LVU502
 2422 0070 8E48     		ldr	r0, .L214+40
 2423 0072 8F4D     		ldr	r5, .L214+44
 2424 0074 FFF7FEFF 		bl	test_println
 2425              	.LVL164:
 2426              		.loc 1 331 3 view .LVU503
 2427              	.LBB400:
 2428              	.LBI400:
ARM GAS  /tmp/ccszGbIG.s 			page 45


 2429              		.loc 1 113 6 view .LVU504
 2430              	.LBB401:
 2431              		.loc 1 115 9 view .LVU505
 2432              		.loc 1 115 10 is_stmt 0 view .LVU506
 2433 0078 2A21     		movs	r1, #42
 2434              	.LVL165:
 2435              	.L160:
 2436              		.loc 1 116 5 is_stmt 1 view .LVU507
 2437 007a 2068     		ldr	r0, [r4]
 2438              	.LVL166:
 2439              		.loc 1 116 5 is_stmt 0 view .LVU508
 2440 007c 0368     		ldr	r3, [r0]
 2441 007e 9B68     		ldr	r3, [r3, #8]
 2442 0080 9847     		blx	r3
 2443              	.LVL167:
 2444              		.loc 1 115 9 is_stmt 1 view .LVU509
 2445              		.loc 1 115 10 is_stmt 0 view .LVU510
 2446 0082 15F8011F 		ldrb	r1, [r5, #1]!	@ zero_extendqisi2
 2447              	.LVL168:
 2448              		.loc 1 115 9 view .LVU511
 2449 0086 0029     		cmp	r1, #0
 2450 0088 F7D1     		bne	.L160
 2451              	.LVL169:
 2452              		.loc 1 115 9 view .LVU512
 2453              	.LBE401:
 2454              	.LBE400:
 2455              		.loc 1 332 3 is_stmt 1 view .LVU513
 2456 008a 8A48     		ldr	r0, .L214+48
 2457 008c 8A4D     		ldr	r5, .L214+52
 2458 008e FFF7FEFF 		bl	test_println
 2459              	.LVL170:
 2460              		.loc 1 334 3 view .LVU514
 2461              	.LBB402:
 2462              	.LBI402:
 2463              		.loc 1 113 6 view .LVU515
 2464              	.LBB403:
 2465              		.loc 1 115 9 view .LVU516
 2466              		.loc 1 115 10 is_stmt 0 view .LVU517
 2467 0092 2A21     		movs	r1, #42
 2468              	.LVL171:
 2469              	.L161:
 2470              		.loc 1 116 5 is_stmt 1 view .LVU518
 2471 0094 2068     		ldr	r0, [r4]
 2472              	.LVL172:
 2473              		.loc 1 116 5 is_stmt 0 view .LVU519
 2474 0096 0368     		ldr	r3, [r0]
 2475 0098 9B68     		ldr	r3, [r3, #8]
 2476 009a 9847     		blx	r3
 2477              	.LVL173:
 2478              		.loc 1 115 9 is_stmt 1 view .LVU520
 2479              		.loc 1 115 10 is_stmt 0 view .LVU521
 2480 009c 15F8011F 		ldrb	r1, [r5, #1]!	@ zero_extendqisi2
 2481              	.LVL174:
 2482              		.loc 1 115 9 view .LVU522
 2483 00a0 0029     		cmp	r1, #0
 2484 00a2 F7D1     		bne	.L161
 2485              	.LVL175:
ARM GAS  /tmp/ccszGbIG.s 			page 46


 2486              		.loc 1 115 9 view .LVU523
 2487              	.LBE403:
 2488              	.LBE402:
 2489              		.loc 1 335 3 is_stmt 1 view .LVU524
 2490 00a4 8548     		ldr	r0, .L214+56
 2491 00a6 864D     		ldr	r5, .L214+60
 2492 00a8 FFF7FEFF 		bl	test_println
 2493              	.LVL176:
 2494              		.loc 1 338 3 view .LVU525
 2495              	.LBB404:
 2496              	.LBI404:
 2497              		.loc 1 113 6 view .LVU526
 2498              	.LBB405:
 2499              		.loc 1 115 9 view .LVU527
 2500              		.loc 1 115 10 is_stmt 0 view .LVU528
 2501 00ac 2A21     		movs	r1, #42
 2502              	.LVL177:
 2503              	.L162:
 2504              		.loc 1 116 5 is_stmt 1 view .LVU529
 2505 00ae 2068     		ldr	r0, [r4]
 2506              	.LVL178:
 2507              		.loc 1 116 5 is_stmt 0 view .LVU530
 2508 00b0 0368     		ldr	r3, [r0]
 2509 00b2 9B68     		ldr	r3, [r3, #8]
 2510 00b4 9847     		blx	r3
 2511              	.LVL179:
 2512              		.loc 1 115 9 is_stmt 1 view .LVU531
 2513              		.loc 1 115 10 is_stmt 0 view .LVU532
 2514 00b6 15F8011F 		ldrb	r1, [r5, #1]!	@ zero_extendqisi2
 2515              	.LVL180:
 2516              		.loc 1 115 9 view .LVU533
 2517 00ba 0029     		cmp	r1, #0
 2518 00bc F7D1     		bne	.L162
 2519              	.LVL181:
 2520              		.loc 1 115 9 view .LVU534
 2521              	.LBE405:
 2522              	.LBE404:
 2523              		.loc 1 339 3 is_stmt 1 view .LVU535
 2524 00be 8148     		ldr	r0, .L214+64
 2525 00c0 814D     		ldr	r5, .L214+68
 2526 00c2 FFF7FEFF 		bl	test_println
 2527              	.LVL182:
 2528              		.loc 1 342 3 view .LVU536
 2529              	.LBB406:
 2530              	.LBI406:
 2531              		.loc 1 113 6 view .LVU537
 2532              	.LBB407:
 2533              		.loc 1 115 9 view .LVU538
 2534              		.loc 1 115 10 is_stmt 0 view .LVU539
 2535 00c6 2A21     		movs	r1, #42
 2536              	.LVL183:
 2537              	.L163:
 2538              		.loc 1 116 5 is_stmt 1 view .LVU540
 2539 00c8 2068     		ldr	r0, [r4]
 2540              	.LVL184:
 2541              		.loc 1 116 5 is_stmt 0 view .LVU541
 2542 00ca 0368     		ldr	r3, [r0]
ARM GAS  /tmp/ccszGbIG.s 			page 47


 2543 00cc 9B68     		ldr	r3, [r3, #8]
 2544 00ce 9847     		blx	r3
 2545              	.LVL185:
 2546              		.loc 1 115 9 is_stmt 1 view .LVU542
 2547              		.loc 1 115 10 is_stmt 0 view .LVU543
 2548 00d0 15F8011F 		ldrb	r1, [r5, #1]!	@ zero_extendqisi2
 2549              	.LVL186:
 2550              		.loc 1 115 9 view .LVU544
 2551 00d4 0029     		cmp	r1, #0
 2552 00d6 F7D1     		bne	.L163
 2553              	.LVL187:
 2554              		.loc 1 115 9 view .LVU545
 2555              	.LBE407:
 2556              	.LBE406:
 2557              		.loc 1 343 3 is_stmt 1 view .LVU546
 2558 00d8 7C48     		ldr	r0, .L214+72
 2559 00da 7D4D     		ldr	r5, .L214+76
 2560 00dc FFF7FEFF 		bl	test_println
 2561              	.LVL188:
 2562              		.loc 1 346 3 view .LVU547
 2563              	.LBB408:
 2564              	.LBI408:
 2565              		.loc 1 113 6 view .LVU548
 2566              	.LBB409:
 2567              		.loc 1 115 9 view .LVU549
 2568              		.loc 1 115 10 is_stmt 0 view .LVU550
 2569 00e0 2A21     		movs	r1, #42
 2570              	.LVL189:
 2571              	.L164:
 2572              		.loc 1 116 5 is_stmt 1 view .LVU551
 2573 00e2 2068     		ldr	r0, [r4]
 2574              	.LVL190:
 2575              		.loc 1 116 5 is_stmt 0 view .LVU552
 2576 00e4 0368     		ldr	r3, [r0]
 2577 00e6 9B68     		ldr	r3, [r3, #8]
 2578 00e8 9847     		blx	r3
 2579              	.LVL191:
 2580              		.loc 1 115 9 is_stmt 1 view .LVU553
 2581              		.loc 1 115 10 is_stmt 0 view .LVU554
 2582 00ea 15F8011F 		ldrb	r1, [r5, #1]!	@ zero_extendqisi2
 2583              	.LVL192:
 2584              		.loc 1 115 9 view .LVU555
 2585 00ee 0029     		cmp	r1, #0
 2586 00f0 F7D1     		bne	.L164
 2587 00f2 784B     		ldr	r3, .L214+80
 2588              	.LBE409:
 2589              	.LBE408:
 2590              		.loc 1 347 3 view .LVU556
 2591 00f4 7848     		ldr	r0, .L214+84
 2592 00f6 0293     		str	r3, [sp, #8]
 2593              		.loc 1 351 20 view .LVU557
 2594 00f8 784B     		ldr	r3, .L214+88
 2595 00fa 0391     		str	r1, [sp, #12]
 2596              	.LVL193:
 2597              		.loc 1 347 3 is_stmt 1 view .LVU558
 2598              		.loc 1 351 20 is_stmt 0 view .LVU559
 2599 00fc 0193     		str	r3, [sp, #4]
ARM GAS  /tmp/ccszGbIG.s 			page 48


 2600              		.loc 1 347 3 view .LVU560
 2601 00fe FFF7FEFF 		bl	test_println
 2602              	.LVL194:
 2603              		.loc 1 349 3 is_stmt 1 view .LVU561
 2604 0102 6348     		ldr	r0, .L214+12
 2605              		.loc 1 353 18 is_stmt 0 view .LVU562
 2606 0104 DFF80CA2 		ldr	r10, .L214+144
 2607 0108 DFF80C92 		ldr	r9, .L214+148
 2608              		.loc 1 349 3 view .LVU563
 2609 010c FFF7FEFF 		bl	test_println
 2610              	.LVL195:
 2611              		.loc 1 351 3 is_stmt 1 view .LVU564
 2612              		.loc 1 351 20 is_stmt 0 view .LVU565
 2613 0110 734B     		ldr	r3, .L214+92
 2614 0112 0399     		ldr	r1, [sp, #12]
 2615 0114 1970     		strb	r1, [r3]
 2616              		.loc 1 352 3 is_stmt 1 view .LVU566
 2617              	.LVL196:
 2618              		.loc 1 353 3 view .LVU567
 2619              		.loc 1 353 9 view .LVU568
 2620              		.loc 1 351 20 is_stmt 0 view .LVU569
 2621 0116 4FF0010B 		mov	fp, #1
 2622              	.LVL197:
 2623              	.L165:
 2624              		.loc 1 355 11 is_stmt 1 view .LVU570
 2625 011a DAF80030 		ldr	r3, [r10]
 2626 011e 002B     		cmp	r3, #0
 2627 0120 59D0     		beq	.L182
 2628 0122 DFF8F881 		ldr	r8, .L214+152
 2629 0126 6F4E     		ldr	r6, .L214+96
 2630              		.loc 1 354 7 is_stmt 0 view .LVU571
 2631 0128 0027     		movs	r7, #0
 2632              	.LVL198:
 2633              	.L179:
 2634              		.loc 1 356 7 is_stmt 1 view .LVU572
 2635 012a 6F4D     		ldr	r5, .L214+100
 2636 012c FFF7FEFF 		bl	print_line
 2637              	.LVL199:
 2638              		.loc 1 357 7 view .LVU573
 2639              	.LBB410:
 2640              	.LBI410:
 2641              		.loc 1 113 6 view .LVU574
 2642              	.LBB411:
 2643              		.loc 1 115 3 view .LVU575
 2644              		.loc 1 115 9 view .LVU576
 2645              		.loc 1 115 10 is_stmt 0 view .LVU577
 2646 0130 2D21     		movs	r1, #45
 2647              	.LVL200:
 2648              	.L166:
 2649              		.loc 1 116 5 is_stmt 1 view .LVU578
 2650 0132 2068     		ldr	r0, [r4]
 2651              	.LVL201:
 2652              		.loc 1 116 5 is_stmt 0 view .LVU579
 2653 0134 0368     		ldr	r3, [r0]
 2654 0136 9B68     		ldr	r3, [r3, #8]
 2655 0138 9847     		blx	r3
 2656              	.LVL202:
ARM GAS  /tmp/ccszGbIG.s 			page 49


 2657              		.loc 1 115 9 is_stmt 1 view .LVU580
 2658              		.loc 1 115 10 is_stmt 0 view .LVU581
 2659 013a 15F8011F 		ldrb	r1, [r5, #1]!	@ zero_extendqisi2
 2660              	.LVL203:
 2661              		.loc 1 115 9 view .LVU582
 2662 013e 0029     		cmp	r1, #0
 2663 0140 F7D1     		bne	.L166
 2664              	.LVL204:
 2665              		.loc 1 115 9 view .LVU583
 2666              	.LBE411:
 2667              	.LBE410:
 2668              		.loc 1 358 7 is_stmt 1 view .LVU584
 2669 0142 5846     		mov	r0, fp
 2670 0144 FFF7FEFF 		bl	test_printn
 2671              	.LVL205:
 2672              		.loc 1 359 7 view .LVU585
 2673              	.LBB412:
 2674              	.LBI412:
 2675              		.loc 1 113 6 view .LVU586
 2676              	.LBB413:
 2677              		.loc 1 115 9 view .LVU587
 2678              		.loc 1 116 5 view .LVU588
 2679 0148 2068     		ldr	r0, [r4]
 2680              	.LVL206:
 2681              		.loc 1 116 5 is_stmt 0 view .LVU589
 2682              	.LBE413:
 2683              	.LBE412:
 2684              		.loc 1 360 7 view .LVU590
 2685 014a 684D     		ldr	r5, .L214+104
 2686              	.LBB416:
 2687              	.LBB414:
 2688              		.loc 1 116 5 view .LVU591
 2689 014c 0368     		ldr	r3, [r0]
 2690 014e 2E21     		movs	r1, #46
 2691 0150 9B68     		ldr	r3, [r3, #8]
 2692              	.LBE414:
 2693              	.LBE416:
 2694              		.loc 1 360 21 view .LVU592
 2695 0152 0137     		adds	r7, r7, #1
 2696              	.LVL207:
 2697              	.LBB417:
 2698              	.LBB415:
 2699              		.loc 1 116 5 view .LVU593
 2700 0154 9847     		blx	r3
 2701              	.LVL208:
 2702              		.loc 1 115 9 is_stmt 1 view .LVU594
 2703              		.loc 1 115 9 is_stmt 0 view .LVU595
 2704              	.LBE415:
 2705              	.LBE417:
 2706              		.loc 1 360 7 is_stmt 1 view .LVU596
 2707 0156 3846     		mov	r0, r7
 2708 0158 FFF7FEFF 		bl	test_printn
 2709              	.LVL209:
 2710              		.loc 1 361 7 view .LVU597
 2711              	.LBB418:
 2712              	.LBI418:
 2713              		.loc 1 113 6 view .LVU598
ARM GAS  /tmp/ccszGbIG.s 			page 50


 2714              	.LBB419:
 2715              		.loc 1 115 9 view .LVU599
 2716              		.loc 1 115 10 is_stmt 0 view .LVU600
 2717 015c 2021     		movs	r1, #32
 2718              	.LVL210:
 2719              	.L167:
 2720              		.loc 1 116 5 is_stmt 1 view .LVU601
 2721 015e 2068     		ldr	r0, [r4]
 2722              	.LVL211:
 2723              		.loc 1 116 5 is_stmt 0 view .LVU602
 2724 0160 0368     		ldr	r3, [r0]
 2725 0162 9B68     		ldr	r3, [r3, #8]
 2726 0164 9847     		blx	r3
 2727              	.LVL212:
 2728              		.loc 1 115 9 is_stmt 1 view .LVU603
 2729              		.loc 1 115 10 is_stmt 0 view .LVU604
 2730 0166 15F8011F 		ldrb	r1, [r5, #1]!	@ zero_extendqisi2
 2731              	.LVL213:
 2732              		.loc 1 115 9 view .LVU605
 2733 016a 0029     		cmp	r1, #0
 2734 016c F7D1     		bne	.L167
 2735              	.LVL214:
 2736              		.loc 1 115 9 view .LVU606
 2737              	.LBE419:
 2738              	.LBE418:
 2739              		.loc 1 362 7 is_stmt 1 view .LVU607
 2740 016e DAF80030 		ldr	r3, [r10]
 2741 0172 1D68     		ldr	r5, [r3]
 2742              	.LVL215:
 2743              	.LBB420:
 2744              	.LBI420:
 2745              		.loc 1 113 6 view .LVU608
 2746              	.LBB421:
 2747              		.loc 1 115 9 view .LVU609
 2748              		.loc 1 115 10 is_stmt 0 view .LVU610
 2749 0174 2978     		ldrb	r1, [r5]	@ zero_extendqisi2
 2750              		.loc 1 115 9 view .LVU611
 2751 0176 39B1     		cbz	r1, .L171
 2752              	.L168:
 2753              		.loc 1 116 5 is_stmt 1 view .LVU612
 2754 0178 2068     		ldr	r0, [r4]
 2755              	.LVL216:
 2756              		.loc 1 116 5 is_stmt 0 view .LVU613
 2757 017a 0368     		ldr	r3, [r0]
 2758 017c 9B68     		ldr	r3, [r3, #8]
 2759 017e 9847     		blx	r3
 2760              	.LVL217:
 2761              		.loc 1 115 9 is_stmt 1 view .LVU614
 2762              		.loc 1 115 10 is_stmt 0 view .LVU615
 2763 0180 15F8011F 		ldrb	r1, [r5, #1]!	@ zero_extendqisi2
 2764              	.LVL218:
 2765              		.loc 1 115 9 view .LVU616
 2766 0184 0029     		cmp	r1, #0
 2767 0186 F7D1     		bne	.L168
 2768              	.L171:
 2769              	.LVL219:
 2770              		.loc 1 115 9 view .LVU617
ARM GAS  /tmp/ccszGbIG.s 			page 51


 2771              	.LBE421:
 2772              	.LBE420:
 2773              		.loc 1 363 7 is_stmt 1 view .LVU618
 2774 0188 5948     		ldr	r0, .L214+108
 2775 018a FFF7FEFF 		bl	test_println
 2776              	.LVL220:
 2777              		.loc 1 365 7 view .LVU619
 2778 018e C820     		movs	r0, #200
 2779 0190 FFF7FEFF 		bl	chThdSleep
 2780              	.LVL221:
 2781              		.loc 1 367 7 view .LVU620
 2782              	.LBB422:
 2783              	.LBB423:
 2784              	.LBB424:
 2785              	.LBB425:
 2786              		.loc 1 135 8 is_stmt 0 view .LVU621
 2787 0194 574B     		ldr	r3, .L214+112
 2788 0196 C9F80030 		str	r3, [r9]
 2789              	.LBE425:
 2790              	.LBE424:
 2791              		.loc 1 290 14 view .LVU622
 2792 019a 0023     		movs	r3, #0
 2793              	.LBE423:
 2794              	.LBE422:
 2795              		.loc 1 367 7 view .LVU623
 2796 019c DAF80050 		ldr	r5, [r10]
 2797              	.LVL222:
 2798              	.LBB429:
 2799              	.LBI422:
 2800              		.loc 1 285 13 is_stmt 1 view .LVU624
 2801              	.LBB428:
 2802              		.loc 1 286 3 view .LVU625
 2803              		.loc 1 289 3 view .LVU626
 2804              	.LBB427:
 2805              	.LBI424:
 2806              		.loc 1 133 13 view .LVU627
 2807              	.LBB426:
 2808              		.loc 1 135 3 view .LVU628
 2809              	.LBE426:
 2810              	.LBE427:
 2811              		.loc 1 290 3 view .LVU629
 2812              		.loc 1 292 16 is_stmt 0 view .LVU630
 2813 01a0 3361     		str	r3, [r6, #16]
 2814 01a2 C6E90033 		strd	r3, r3, [r6]
 2815 01a6 C6E90233 		strd	r3, r3, [r6, #8]
 2816              		.loc 1 294 10 view .LVU631
 2817 01aa 6A68     		ldr	r2, [r5, #4]
 2818              		.loc 1 290 14 view .LVU632
 2819 01ac 88F80030 		strb	r3, [r8]
 2820              		.loc 1 291 3 is_stmt 1 view .LVU633
 2821              	.LVL223:
 2822              		.loc 1 291 15 view .LVU634
 2823              		.loc 1 292 5 view .LVU635
 2824              		.loc 1 291 32 view .LVU636
 2825              		.loc 1 291 15 view .LVU637
 2826              		.loc 1 292 5 view .LVU638
 2827              		.loc 1 291 32 view .LVU639
ARM GAS  /tmp/ccszGbIG.s 			page 52


 2828              		.loc 1 291 15 view .LVU640
 2829              		.loc 1 292 5 view .LVU641
 2830              		.loc 1 291 32 view .LVU642
 2831              		.loc 1 291 15 view .LVU643
 2832              		.loc 1 292 5 view .LVU644
 2833              		.loc 1 291 32 view .LVU645
 2834              		.loc 1 291 15 view .LVU646
 2835              		.loc 1 292 5 view .LVU647
 2836              		.loc 1 291 32 view .LVU648
 2837              		.loc 1 291 15 view .LVU649
 2838              		.loc 1 294 3 view .LVU650
 2839              		.loc 1 294 6 is_stmt 0 view .LVU651
 2840 01b0 02B1     		cbz	r2, .L170
 2841              		.loc 1 295 5 is_stmt 1 view .LVU652
 2842 01b2 9047     		blx	r2
 2843              	.LVL224:
 2844              	.L170:
 2845              		.loc 1 296 3 view .LVU653
 2846 01b4 EB68     		ldr	r3, [r5, #12]
 2847 01b6 9847     		blx	r3
 2848              	.LVL225:
 2849              		.loc 1 297 3 view .LVU654
 2850              		.loc 1 297 10 is_stmt 0 view .LVU655
 2851 01b8 AB68     		ldr	r3, [r5, #8]
 2852              		.loc 1 297 6 view .LVU656
 2853 01ba 03B1     		cbz	r3, .L172
 2854              		.loc 1 298 5 is_stmt 1 view .LVU657
 2855 01bc 9847     		blx	r3
 2856              	.LVL226:
 2857              	.L172:
 2858              		.loc 1 300 3 view .LVU658
 2859 01be FFF7FEFF 		bl	test_wait_threads
 2860              	.LVL227:
 2861              		.loc 1 300 3 is_stmt 0 view .LVU659
 2862              	.LBE428:
 2863              	.LBE429:
 2864              		.loc 1 368 7 is_stmt 1 view .LVU660
 2865              		.loc 1 368 10 is_stmt 0 view .LVU661
 2866 01c2 98F80030 		ldrb	r3, [r8]	@ zero_extendqisi2
 2867 01c6 9BB9     		cbnz	r3, .L213
 2868              		.loc 1 376 9 is_stmt 1 view .LVU662
 2869 01c8 4B48     		ldr	r0, .L214+116
 2870 01ca FFF7FEFF 		bl	test_println
 2871              	.LVL228:
 2872              	.L177:
 2873              		.loc 1 355 11 view .LVU663
 2874 01ce 5AF8043F 		ldr	r3, [r10, #4]!
 2875 01d2 002B     		cmp	r3, #0
 2876 01d4 A9D1     		bne	.L179
 2877              	.LVL229:
 2878              	.L182:
 2879              		.loc 1 379 5 view .LVU664
 2880              		.loc 1 353 9 view .LVU665
 2881 01d6 019B     		ldr	r3, [sp, #4]
 2882 01d8 0BF1010B 		add	fp, fp, #1
 2883              	.LVL230:
 2884              		.loc 1 353 9 is_stmt 0 view .LVU666
ARM GAS  /tmp/ccszGbIG.s 			page 53


 2885 01dc 002B     		cmp	r3, #0
 2886 01de 33D0     		beq	.L180
 2887 01e0 9A46     		mov	r10, r3
 2888 01e2 029B     		ldr	r3, [sp, #8]
 2889 01e4 1A46     		mov	r2, r3
 2890 01e6 52F8043F 		ldr	r3, [r2, #4]!
 2891 01ea 0193     		str	r3, [sp, #4]
 2892 01ec 0292     		str	r2, [sp, #8]
 2893 01ee 94E7     		b	.L165
 2894              	.LVL231:
 2895              	.L213:
 2896              		.loc 1 353 9 view .LVU667
 2897 01f0 424D     		ldr	r5, .L214+120
 2898              	.LBB430:
 2899              	.LBB431:
 2900              		.loc 1 115 10 view .LVU668
 2901 01f2 2D21     		movs	r1, #45
 2902              	.L174:
 2903              	.LVL232:
 2904              		.loc 1 116 5 is_stmt 1 view .LVU669
 2905 01f4 2068     		ldr	r0, [r4]
 2906              	.LVL233:
 2907              		.loc 1 116 5 is_stmt 0 view .LVU670
 2908 01f6 0368     		ldr	r3, [r0]
 2909 01f8 9B68     		ldr	r3, [r3, #8]
 2910 01fa 9847     		blx	r3
 2911              	.LVL234:
 2912              		.loc 1 115 9 is_stmt 1 view .LVU671
 2913              		.loc 1 115 10 is_stmt 0 view .LVU672
 2914 01fc 15F8011F 		ldrb	r1, [r5, #1]!	@ zero_extendqisi2
 2915              	.LVL235:
 2916              		.loc 1 115 9 view .LVU673
 2917 0200 0029     		cmp	r1, #0
 2918 0202 F7D1     		bne	.L174
 2919              	.LVL236:
 2920              		.loc 1 115 9 view .LVU674
 2921              	.LBE431:
 2922              	.LBE430:
 2923              		.loc 1 370 9 is_stmt 1 view .LVU675
 2924 0204 3E4B     		ldr	r3, .L214+124
 2925 0206 3F4D     		ldr	r5, .L214+128
 2926 0208 1868     		ldr	r0, [r3]
 2927 020a FFF7FEFF 		bl	test_printn
 2928              	.LVL237:
 2929              		.loc 1 371 9 view .LVU676
 2930              	.LBB432:
 2931              	.LBI432:
 2932              		.loc 1 113 6 view .LVU677
 2933              	.LBB433:
 2934              		.loc 1 115 9 view .LVU678
 2935              		.loc 1 115 10 is_stmt 0 view .LVU679
 2936 020e 2021     		movs	r1, #32
 2937              	.LVL238:
 2938              	.L175:
 2939              		.loc 1 116 5 is_stmt 1 view .LVU680
 2940 0210 2068     		ldr	r0, [r4]
 2941              	.LVL239:
ARM GAS  /tmp/ccszGbIG.s 			page 54


 2942              		.loc 1 116 5 is_stmt 0 view .LVU681
 2943 0212 0368     		ldr	r3, [r0]
 2944 0214 9B68     		ldr	r3, [r3, #8]
 2945 0216 9847     		blx	r3
 2946              	.LVL240:
 2947              		.loc 1 115 9 is_stmt 1 view .LVU682
 2948              		.loc 1 115 10 is_stmt 0 view .LVU683
 2949 0218 15F8011F 		ldrb	r1, [r5, #1]!	@ zero_extendqisi2
 2950              	.LVL241:
 2951              		.loc 1 115 9 view .LVU684
 2952 021c 0029     		cmp	r1, #0
 2953 021e F7D1     		bne	.L175
 2954              	.LVL242:
 2955              		.loc 1 115 9 view .LVU685
 2956              	.LBE433:
 2957              	.LBE432:
 2958              	.LBB434:
 2959              	.LBB435:
 2960              		.loc 1 141 9 is_stmt 1 view .LVU686
 2961 0220 D9F80030 		ldr	r3, [r9]
 2962 0224 334A     		ldr	r2, .L214+112
 2963 0226 9342     		cmp	r3, r2
 2964 0228 0AD9     		bls	.L178
 2965              		.loc 1 139 9 is_stmt 0 view .LVU687
 2966 022a 324D     		ldr	r5, .L214+112
 2967              	.LVL243:
 2968              	.L176:
 2969              		.loc 1 142 5 is_stmt 1 view .LVU688
 2970 022c 2068     		ldr	r0, [r4]
 2971              	.LVL244:
 2972              		.loc 1 142 5 is_stmt 0 view .LVU689
 2973 022e 15F8011B 		ldrb	r1, [r5], #1	@ zero_extendqisi2
 2974              	.LVL245:
 2975              		.loc 1 142 5 view .LVU690
 2976 0232 0368     		ldr	r3, [r0]
 2977 0234 9B68     		ldr	r3, [r3, #8]
 2978 0236 9847     		blx	r3
 2979              	.LVL246:
 2980              		.loc 1 141 9 is_stmt 1 view .LVU691
 2981 0238 D9F80030 		ldr	r3, [r9]
 2982 023c 9D42     		cmp	r5, r3
 2983 023e F5D3     		bcc	.L176
 2984              	.LVL247:
 2985              	.L178:
 2986              		.loc 1 141 9 is_stmt 0 view .LVU692
 2987              	.LBE435:
 2988              	.LBE434:
 2989              		.loc 1 373 9 is_stmt 1 view .LVU693
 2990 0240 3148     		ldr	r0, .L214+132
 2991 0242 FFF7FEFF 		bl	test_println
 2992              	.LVL248:
 2993 0246 C2E7     		b	.L177
 2994              	.LVL249:
 2995              	.L180:
 2996              		.loc 1 381 3 view .LVU694
 2997 0248 FFF7FEFF 		bl	print_line
 2998              	.LVL250:
ARM GAS  /tmp/ccszGbIG.s 			page 55


 2999              		.loc 1 382 3 view .LVU695
 3000 024c 2F4D     		ldr	r5, .L214+136
 3001 024e 1048     		ldr	r0, .L214+12
 3002 0250 FFF7FEFF 		bl	test_println
 3003              	.LVL251:
 3004              		.loc 1 383 3 view .LVU696
 3005              	.LBB436:
 3006              	.LBI436:
 3007              		.loc 1 113 6 view .LVU697
 3008              	.LBB437:
 3009              		.loc 1 115 3 view .LVU698
 3010              		.loc 1 115 9 view .LVU699
 3011              		.loc 1 115 10 is_stmt 0 view .LVU700
 3012 0254 4621     		movs	r1, #70
 3013              	.LVL252:
 3014              	.L183:
 3015              		.loc 1 116 5 is_stmt 1 view .LVU701
 3016 0256 2068     		ldr	r0, [r4]
 3017              	.LVL253:
 3018              		.loc 1 116 5 is_stmt 0 view .LVU702
 3019 0258 0368     		ldr	r3, [r0]
 3020 025a 9B68     		ldr	r3, [r3, #8]
 3021 025c 9847     		blx	r3
 3022              	.LVL254:
 3023              		.loc 1 115 9 is_stmt 1 view .LVU703
 3024              		.loc 1 115 10 is_stmt 0 view .LVU704
 3025 025e 15F8011F 		ldrb	r1, [r5, #1]!	@ zero_extendqisi2
 3026              	.LVL255:
 3027              		.loc 1 115 9 view .LVU705
 3028 0262 0029     		cmp	r1, #0
 3029 0264 F7D1     		bne	.L183
 3030              	.LVL256:
 3031              		.loc 1 115 9 view .LVU706
 3032              	.LBE437:
 3033              	.LBE436:
 3034              		.loc 1 384 3 is_stmt 1 view .LVU707
 3035              		.loc 1 384 6 is_stmt 0 view .LVU708
 3036 0266 1E4B     		ldr	r3, .L214+92
 3037 0268 1B78     		ldrb	r3, [r3]	@ zero_extendqisi2
 3038 026a 002B     		cmp	r3, #0
 3039 026c 58D0     		beq	.L184
 3040              		.loc 1 385 5 is_stmt 1 view .LVU709
 3041 026e 054B     		ldr	r3, .L214
 3042 0270 1A68     		ldr	r2, [r3]
 3043 0272 059B     		ldr	r3, [sp, #20]
 3044 0274 5A40     		eors	r2, r3, r2
 3045 0276 5ED1     		bne	.L212
 3046 0278 2548     		ldr	r0, .L214+140
 3047              		.loc 1 388 1 is_stmt 0 view .LVU710
 3048 027a 07B0     		add	sp, sp, #28
 3049              		.cfi_remember_state
 3050              		.cfi_def_cfa_offset 36
 3051              		@ sp needed
 3052 027c BDE8F04F 		pop	{r4, r5, r6, r7, r8, r9, r10, fp, lr}
 3053              		.cfi_restore 14
 3054              		.cfi_restore 11
 3055              		.cfi_restore 10
ARM GAS  /tmp/ccszGbIG.s 			page 56


 3056              		.cfi_restore 9
 3057              		.cfi_restore 8
 3058              		.cfi_restore 7
 3059              		.cfi_restore 6
 3060              		.cfi_restore 5
 3061              		.cfi_restore 4
 3062              		.cfi_def_cfa_offset 0
 3063              	.LVL257:
 3064              		.loc 1 387 5 view .LVU711
 3065 0280 FFF7FEBF 		b	test_println
 3066              	.LVL258:
 3067              	.L215:
 3068              		.align	2
 3069              	.L214:
 3070 0284 00000000 		.word	.LC45
 3071 0288 00000000 		.word	.LANCHOR1
 3072 028c 00000000 		.word	.LC16
 3073 0290 E0000000 		.word	.LC29
 3074 0294 E4000000 		.word	.LC30
 3075 0298 00010000 		.word	.LC31
 3076 029c 04010000 		.word	.LC32
 3077 02a0 14000000 		.word	.LC17
 3078 02a4 0C010000 		.word	.LC33
 3079 02a8 28000000 		.word	.LC18
 3080 02ac 24010000 		.word	.LC34
 3081 02b0 3C000000 		.word	.LC19
 3082 02b4 64010000 		.word	.LC35
 3083 02b8 50000000 		.word	.LC20
 3084 02bc 70010000 		.word	.LC36
 3085 02c0 64000000 		.word	.LC21
 3086 02c4 7C010000 		.word	.LC37
 3087 02c8 78000000 		.word	.LC22
 3088 02cc 94010000 		.word	.LC38
 3089 02d0 8C000000 		.word	.LC23
 3090 02d4 04000000 		.word	.LANCHOR10+4
 3091 02d8 C0010000 		.word	.LC39
 3092 02dc 00000000 		.word	patternthd
 3093 02e0 00000000 		.word	.LANCHOR4
 3094 02e4 00000000 		.word	.LANCHOR8
 3095 02e8 A0000000 		.word	.LC24
 3096 02ec B0000000 		.word	.LC25
 3097 02f0 E4010000 		.word	.LC40
 3098 02f4 00000000 		.word	.LANCHOR7
 3099 02f8 EC010000 		.word	.LC42
 3100 02fc B4000000 		.word	.LC26
 3101 0300 00000000 		.word	.LANCHOR6
 3102 0304 CC000000 		.word	.LC27
 3103 0308 E8010000 		.word	.LC41
 3104 030c D0000000 		.word	.LC28
 3105 0310 00020000 		.word	.LC43
 3106 0314 00000000 		.word	patternsys
 3107 0318 00000000 		.word	.LANCHOR2
 3108 031c 00000000 		.word	.LANCHOR5
 3109              	.LVL259:
 3110              	.L184:
 3111              		.cfi_restore_state
 3112              		.loc 1 387 5 is_stmt 1 view .LVU712
ARM GAS  /tmp/ccszGbIG.s 			page 57


 3113 0320 064B     		ldr	r3, .L216
 3114 0322 1A68     		ldr	r2, [r3]
 3115 0324 059B     		ldr	r3, [sp, #20]
 3116 0326 5A40     		eors	r2, r3, r2
 3117 0328 05D1     		bne	.L212
 3118 032a 0548     		ldr	r0, .L216+4
 3119              		.loc 1 388 1 is_stmt 0 view .LVU713
 3120 032c 07B0     		add	sp, sp, #28
 3121              		.cfi_remember_state
 3122              		.cfi_def_cfa_offset 36
 3123              		@ sp needed
 3124 032e BDE8F04F 		pop	{r4, r5, r6, r7, r8, r9, r10, fp, lr}
 3125              		.cfi_restore 14
 3126              		.cfi_restore 11
 3127              		.cfi_restore 10
 3128              		.cfi_restore 9
 3129              		.cfi_restore 8
 3130              		.cfi_restore 7
 3131              		.cfi_restore 6
 3132              		.cfi_restore 5
 3133              		.cfi_restore 4
 3134              		.cfi_def_cfa_offset 0
 3135              	.LVL260:
 3136              		.loc 1 387 5 view .LVU714
 3137 0332 FFF7FEBF 		b	test_println
 3138              	.LVL261:
 3139              	.L212:
 3140              		.cfi_restore_state
 3141              		.loc 1 387 5 view .LVU715
 3142 0336 FFF7FEFF 		bl	__stack_chk_fail
 3143              	.LVL262:
 3144              	.L217:
 3145 033a 00BF     		.align	2
 3146              	.L216:
 3147 033c 00000000 		.word	.LC45
 3148 0340 08020000 		.word	.LC44
 3149              		.cfi_endproc
 3150              	.LFE274:
 3151              		.size	TestThread, .-TestThread
 3152              		.global	test_timer_done
 3153              		.global	wa
 3154              		.global	threads
 3155              		.global	test
 3156              		.global	test_global_fail
 3157              		.section	.bss.chp,"aw",%nobits
 3158              		.align	2
 3159              		.set	.LANCHOR1,. + 0
 3160              		.type	chp, %object
 3161              		.size	chp, 4
 3162              	chp:
 3163 0000 00000000 		.space	4
 3164              		.section	.bss.failpoint,"aw",%nobits
 3165              		.align	2
 3166              		.set	.LANCHOR6,. + 0
 3167              		.type	failpoint, %object
 3168              		.size	failpoint, 4
 3169              	failpoint:
ARM GAS  /tmp/ccszGbIG.s 			page 58


 3170 0000 00000000 		.space	4
 3171              		.section	.bss.local_fail,"aw",%nobits
 3172              		.set	.LANCHOR5,. + 0
 3173              		.type	local_fail, %object
 3174              		.size	local_fail, 1
 3175              	local_fail:
 3176 0000 00       		.space	1
 3177              		.section	.bss.test,"aw",%nobits
 3178              		.align	3
 3179              		.type	test, %object
 3180              		.size	test, 2520
 3181              	test:
 3182 0000 00000000 		.space	2520
 3182      00000000 
 3182      00000000 
 3182      00000000 
 3182      00000000 
 3183              		.section	.bss.test_global_fail,"aw",%nobits
 3184              		.set	.LANCHOR4,. + 0
 3185              		.type	test_global_fail, %object
 3186              		.size	test_global_fail, 1
 3187              	test_global_fail:
 3188 0000 00       		.space	1
 3189              		.section	.bss.test_timer_done,"aw",%nobits
 3190              		.set	.LANCHOR0,. + 0
 3191              		.type	test_timer_done, %object
 3192              		.size	test_timer_done, 1
 3193              	test_timer_done:
 3194 0000 00       		.space	1
 3195              		.section	.bss.threads,"aw",%nobits
 3196              		.align	2
 3197              		.set	.LANCHOR8,. + 0
 3198              		.type	threads, %object
 3199              		.size	threads, 20
 3200              	threads:
 3201 0000 00000000 		.space	20
 3201      00000000 
 3201      00000000 
 3201      00000000 
 3201      00000000 
 3202              		.section	.bss.tokens_buffer,"aw",%nobits
 3203              		.align	2
 3204              		.set	.LANCHOR7,. + 0
 3205              		.type	tokens_buffer, %object
 3206              		.size	tokens_buffer, 16
 3207              	tokens_buffer:
 3208 0000 00000000 		.space	16
 3208      00000000 
 3208      00000000 
 3208      00000000 
 3209              		.section	.bss.tokp,"aw",%nobits
 3210              		.align	2
 3211              		.set	.LANCHOR2,. + 0
 3212              		.type	tokp, %object
 3213              		.size	tokp, 4
 3214              	tokp:
 3215 0000 00000000 		.space	4
ARM GAS  /tmp/ccszGbIG.s 			page 59


 3216              		.section	.bss.vt,"aw",%nobits
 3217              		.align	2
 3218              		.set	.LANCHOR9,. + 0
 3219              		.type	vt, %object
 3220              		.size	vt, 20
 3221              	vt:
 3222 0000 00000000 		.space	20
 3222      00000000 
 3222      00000000 
 3222      00000000 
 3222      00000000 
 3223              		.section	.rodata.__func__.7261,"a"
 3224              		.align	2
 3225              		.set	.LANCHOR3,. + 0
 3226              		.type	__func__.7261, %object
 3227              		.size	__func__.7261, 12
 3228              	__func__.7261:
 3229 0000 63685379 		.ascii	"chSysUnlock\000"
 3229      73556E6C 
 3229      6F636B00 
 3230              		.section	.rodata.patterns,"a"
 3231              		.align	2
 3232              		.set	.LANCHOR10,. + 0
 3233              		.type	patterns, %object
 3234              		.size	patterns, 52
 3235              	patterns:
 3236 0000 00000000 		.word	patternsys
 3237 0004 00000000 		.word	patternthd
 3238 0008 00000000 		.word	patternsem
 3239 000c 00000000 		.word	patternmtx
 3240 0010 00000000 		.word	patternmsg
 3241 0014 00000000 		.word	patternmbox
 3242 0018 00000000 		.word	patternevt
 3243 001c 00000000 		.word	patternheap
 3244 0020 00000000 		.word	patternpools
 3245 0024 00000000 		.word	patterndyn
 3246 0028 00000000 		.word	patternqueues
 3247 002c 00000000 		.word	patternbmk
 3248 0030 00000000 		.word	0
 3249              		.section	.rodata.wa,"a"
 3250              		.align	2
 3251              		.type	wa, %object
 3252              		.size	wa, 20
 3253              	wa:
 3254 0000 00000000 		.word	test
 3255 0004 F8010000 		.word	test+504
 3256 0008 F0030000 		.word	test+1008
 3257 000c E8050000 		.word	test+1512
 3258 0010 E0070000 		.word	test+2016
 3259              		.text
 3260              	.Letext0:
 3261              		.file 7 "/usr/lib/gcc/arm-none-eabi/9.2.1/include/stddef.h"
 3262              		.file 8 "/usr/lib/gcc/arm-none-eabi/9.2.1/include/stdint.h"
 3263              		.file 9 ".//ChibiOS//os/rt/ports/ARMCMx/compilers/GCC/chtypes.h"
 3264              		.file 10 ".//ChibiOS//os/rt/include/chsystypes.h"
 3265              		.file 11 ".//ChibiOS//os/rt/include/chschd.h"
 3266              		.file 12 ".//ChibiOS//os/ext/CMSIS/include/core_cm4.h"
ARM GAS  /tmp/ccszGbIG.s 			page 60


 3267              		.file 13 ".//ChibiOS//os/ext/CMSIS/ST/system_stm32f4xx.h"
 3268              		.file 14 ".//ChibiOS//os/ext/CMSIS/ST/stm32f407xx.h"
 3269              		.file 15 ".//ChibiOS//os/rt/ports/ARMCMx/chcore.h"
 3270              		.file 16 ".//ChibiOS//os/rt/include/chdebug.h"
 3271              		.file 17 ".//ChibiOS//os/rt/include/chtm.h"
 3272              		.file 18 ".//ChibiOS//os/rt/include/chstats.h"
 3273              		.file 19 ".//ChibiOS//os/rt/include/chsem.h"
 3274              		.file 20 ".//ChibiOS//os/rt/include/chmtx.h"
 3275              		.file 21 ".//ChibiOS//os/rt/include/chregistry.h"
 3276              		.file 22 ".//ChibiOS//os/rt/include/chevents.h"
 3277              		.file 23 ".//ChibiOS//os/rt/include/chqueues.h"
 3278              		.file 24 ".//ChibiOS//os/rt/include/chstreams.h"
 3279              		.file 25 ".//ChibiOS//os/hal/ports/STM32/STM32F4xx/stm32_dma.h"
 3280              		.file 26 ".//ChibiOS//os/hal/include/hal_ioblock.h"
 3281              		.file 27 ".//ChibiOS//os/hal/ports/STM32/LLD/GPIOv2/pal_lld.h"
 3282              		.file 28 ".//ChibiOS//os/hal/include/adc.h"
 3283              		.file 29 ".//ChibiOS//os/hal/ports/STM32/STM32F4xx/adc_lld.h"
 3284              		.file 30 ".//ChibiOS//os/hal/include/can.h"
 3285              		.file 31 ".//ChibiOS//os/hal/ports/STM32/LLD/can_lld.h"
 3286              		.file 32 ".//ChibiOS//os/hal/include/dac.h"
 3287              		.file 33 ".//ChibiOS//os/hal/ports/STM32/LLD/DACv1/dac_lld.h"
 3288              		.file 34 ".//ChibiOS//os/hal/include/ext.h"
 3289              		.file 35 ".//ChibiOS//os/hal/ports/STM32/LLD/ext_lld.h"
 3290              		.file 36 ".//ChibiOS//os/hal/include/gpt.h"
 3291              		.file 37 ".//ChibiOS//os/hal/ports/STM32/LLD/TIMv1/gpt_lld.h"
 3292              		.file 38 ".//ChibiOS//os/hal/ports/STM32/LLD/TIMv1/stm32_tim.h"
 3293              		.file 39 ".//ChibiOS//os/hal/include/i2c.h"
 3294              		.file 40 ".//ChibiOS//os/hal/ports/STM32/LLD/I2Cv1/i2c_lld.h"
 3295              		.file 41 ".//ChibiOS//os/hal/include/i2s.h"
 3296              		.file 42 ".//ChibiOS//os/hal/ports/STM32/LLD/SPIv1/i2s_lld.h"
 3297              		.file 43 ".//ChibiOS//os/hal/include/pwm.h"
 3298              		.file 44 ".//ChibiOS//os/hal/ports/STM32/LLD/TIMv1/pwm_lld.h"
 3299              		.file 45 ".//ChibiOS//os/hal/include/serial.h"
 3300              		.file 46 ".//ChibiOS//os/hal/ports/STM32/LLD/USARTv1/serial_lld.h"
 3301              		.file 47 ".//ChibiOS//os/hal/include/sdc.h"
 3302              		.file 48 ".//ChibiOS//os/hal/ports/STM32/LLD/sdc_lld.h"
 3303              		.file 49 ".//ChibiOS//os/hal/include/spi.h"
 3304              		.file 50 ".//ChibiOS//os/hal/ports/STM32/LLD/SPIv1/spi_lld.h"
 3305              		.file 51 ".//ChibiOS//os/hal/include/usb.h"
 3306              		.file 52 ".//ChibiOS//os/hal/ports/STM32/LLD/OTGv1/usb_lld.h"
 3307              		.file 53 ".//ChibiOS//os/hal/ports/STM32/LLD/OTGv1/stm32_otg.h"
 3308              		.file 54 ".//ChibiOS//test/rt/test.h"
 3309              		.file 55 ".//ChibiOS//test/rt/testsys.h"
 3310              		.file 56 ".//ChibiOS//test/rt/testthd.h"
 3311              		.file 57 ".//ChibiOS//test/rt/testsem.h"
 3312              		.file 58 ".//ChibiOS//test/rt/testmtx.h"
 3313              		.file 59 ".//ChibiOS//test/rt/testmsg.h"
 3314              		.file 60 ".//ChibiOS//test/rt/testmbox.h"
 3315              		.file 61 ".//ChibiOS//test/rt/testevt.h"
 3316              		.file 62 ".//ChibiOS//test/rt/testheap.h"
 3317              		.file 63 ".//ChibiOS//test/rt/testpools.h"
 3318              		.file 64 ".//ChibiOS//test/rt/testdyn.h"
 3319              		.file 65 ".//ChibiOS//test/rt/testqueues.h"
 3320              		.file 66 ".//ChibiOS//test/rt/testbmk.h"