ARM GAS  /tmp/ccM74hFp.s 			page 1


   1              		.cpu cortex-m4
   2              		.eabi_attribute 27, 1
   3              		.eabi_attribute 28, 1
   4              		.eabi_attribute 20, 1
   5              		.eabi_attribute 21, 1
   6              		.eabi_attribute 23, 3
   7              		.eabi_attribute 24, 1
   8              		.eabi_attribute 25, 1
   9              		.eabi_attribute 26, 1
  10              		.eabi_attribute 30, 2
  11              		.eabi_attribute 34, 1
  12              		.eabi_attribute 18, 4
  13              		.file	"testdyn.c"
  14              		.text
  15              	.Ltext0:
  16              		.cfi_sections	.debug_frame
  17              		.section	.rodata.dyn1_execute.str1.4,"aMS",%progbits,1
  18              		.align	2
  19              	.LC0:
  20 0000 4100     		.ascii	"A\000"
  21 0002 0000     		.align	2
  22              	.LC1:
  23 0004 4200     		.ascii	"B\000"
  24 0006 0000     		.align	2
  25              	.LC2:
  26 0008 4300     		.ascii	"C\000"
  27 000a 0000     		.align	2
  28              	.LC3:
  29 000c 414200   		.ascii	"AB\000"
  30              		.section	.rodata.dyn1_execute.cst4,"aM",%progbits,4
  31              		.align	2
  32              	.LC4:
  33 0000 00000000 		.word	__stack_chk_guard
  34              		.section	.text.dyn1_execute,"ax",%progbits
  35              		.align	1
  36              		.p2align 4,,15
  37              		.arch armv7e-m
  38              		.syntax unified
  39              		.thumb
  40              		.thumb_func
  41              		.fpu fpv4-sp-d16
  42              		.type	dyn1_execute, %function
  43              	dyn1_execute:
  44              	.LFB221:
  45              		.file 1 ".//ChibiOS//test/rt/testdyn.c"
  46              		.loc 1 82 32 view -0
  47              		.cfi_startproc
  48              		@ args = 0, pretend = 0, frame = 16
  49              		@ frame_needed = 0, uses_anonymous_args = 0
  50 0000 30B5     		push	{r4, r5, lr}
  51              		.cfi_def_cfa_offset 12
  52              		.cfi_offset 4, -12
  53              		.cfi_offset 5, -8
  54              		.cfi_offset 14, -4
  55              	.LBB16:
  56              	.LBB17:
  57              	.LBB18:
ARM GAS  /tmp/ccM74hFp.s 			page 2


  58              	.LBB19:
  59              		.file 2 ".//ChibiOS//os/rt/include/chthreads.h"
  60              		.loc 2 176 18 is_stmt 0 view .LVU1
  61 0002 3B4B     		ldr	r3, .L16
  62              	.LBE19:
  63              	.LBE18:
  64              	.LBE17:
  65              	.LBE16:
  66              		.loc 1 82 32 view .LVU2
  67 0004 3B4A     		ldr	r2, .L16+4
  68              	.LBB25:
  69              	.LBB22:
  70              		.loc 2 189 25 view .LVU3
  71 0006 9B69     		ldr	r3, [r3, #24]
  72              	.LBE22:
  73              	.LBE25:
  74              		.loc 1 87 9 view .LVU4
  75 0008 3B48     		ldr	r0, .L16+8
  76              	.LBB26:
  77              	.LBB23:
  78              		.loc 2 189 25 view .LVU5
  79 000a 9D68     		ldr	r5, [r3, #8]
  80              	.LBE23:
  81              	.LBE26:
  82              		.loc 1 89 14 view .LVU6
  83 000c 3B4C     		ldr	r4, .L16+12
  84              		.loc 1 82 32 view .LVU7
  85 000e 87B0     		sub	sp, sp, #28
  86              		.cfi_def_cfa_offset 40
  87              		.loc 1 87 9 view .LVU8
  88 0010 04A9     		add	r1, sp, #16
  89              		.loc 1 82 32 view .LVU9
  90 0012 1268     		ldr	r2, [r2]
  91 0014 0592     		str	r2, [sp, #20]
  92 0016 4FF00002 		mov	r2,#0
  93              		.loc 1 83 3 is_stmt 1 view .LVU10
  94              		.loc 1 84 3 view .LVU11
  95              		.loc 1 85 3 view .LVU12
  96              	.LBB27:
  97              	.LBI16:
  98              		.loc 2 187 23 view .LVU13
  99              	.LBB24:
 100              		.loc 2 189 3 view .LVU14
 101              	.LBB21:
 102              	.LBI18:
 103              		.loc 2 174 25 view .LVU15
 104              	.LBB20:
 105              		.loc 2 176 3 view .LVU16
 106              	.LVL0:
 107              		.loc 2 176 3 is_stmt 0 view .LVU17
 108              	.LBE20:
 109              	.LBE21:
 110              	.LBE24:
 111              	.LBE27:
 112              		.loc 1 87 3 is_stmt 1 view .LVU18
 113              		.loc 1 87 9 is_stmt 0 view .LVU19
 114 001a FFF7FEFF 		bl	chHeapStatus
ARM GAS  /tmp/ccM74hFp.s 			page 3


 115              	.LVL1:
 116              		.loc 1 89 3 is_stmt 1 view .LVU20
 117              		.loc 1 89 16 is_stmt 0 view .LVU21
 118 001e 384B     		ldr	r3, .L16+16
 119 0020 0093     		str	r3, [sp]
 120 0022 6A1E     		subs	r2, r5, #1
 121 0024 374B     		ldr	r3, .L16+20
 122 0026 3448     		ldr	r0, .L16+8
 123 0028 4FF4FC71 		mov	r1, #504
 124 002c FFF7FEFF 		bl	chThdCreateFromHeap
 125              	.LVL2:
 126              		.loc 1 92 16 view .LVU22
 127 0030 354B     		ldr	r3, .L16+24
 128 0032 0093     		str	r3, [sp]
 129              		.loc 1 89 16 view .LVU23
 130 0034 0146     		mov	r1, r0
 131              		.loc 1 92 16 view .LVU24
 132 0036 AA1E     		subs	r2, r5, #2
 133 0038 324B     		ldr	r3, .L16+20
 134              		.loc 1 89 14 view .LVU25
 135 003a 2160     		str	r1, [r4]
 136              		.loc 1 92 3 is_stmt 1 view .LVU26
 137              		.loc 1 92 16 is_stmt 0 view .LVU27
 138 003c 2E48     		ldr	r0, .L16+8
 139 003e 4FF4FC71 		mov	r1, #504
 140 0042 FFF7FEFF 		bl	chThdCreateFromHeap
 141              	.LVL3:
 142              		.loc 1 96 9 view .LVU28
 143 0046 03A9     		add	r1, sp, #12
 144              		.loc 1 92 16 view .LVU29
 145 0048 0346     		mov	r3, r0
 146              		.loc 1 96 9 view .LVU30
 147 004a 2B48     		ldr	r0, .L16+8
 148              		.loc 1 92 14 view .LVU31
 149 004c 6360     		str	r3, [r4, #4]
 150              		.loc 1 96 3 is_stmt 1 view .LVU32
 151              		.loc 1 96 9 is_stmt 0 view .LVU33
 152 004e FFF7FEFF 		bl	chHeapStatus
 153              	.LVL4:
 154              		.loc 1 97 3 is_stmt 1 view .LVU34
 155              		.loc 1 97 8 is_stmt 0 view .LVU35
 156 0052 0399     		ldr	r1, [sp, #12]
 157 0054 2848     		ldr	r0, .L16+8
 158 0056 FFF7FEFF 		bl	chHeapAlloc
 159              	.LVL5:
 160              		.loc 1 98 16 view .LVU36
 161 005a 2C4B     		ldr	r3, .L16+28
 162 005c 0093     		str	r3, [sp]
 163 005e EA1E     		subs	r2, r5, #3
 164 0060 4FF4FC71 		mov	r1, #504
 165 0064 274B     		ldr	r3, .L16+20
 166              		.loc 1 97 8 view .LVU37
 167 0066 0546     		mov	r5, r0
 168              	.LVL6:
 169              		.loc 1 98 3 is_stmt 1 view .LVU38
 170              		.loc 1 98 16 is_stmt 0 view .LVU39
 171 0068 2348     		ldr	r0, .L16+8
ARM GAS  /tmp/ccM74hFp.s 			page 4


 172              	.LVL7:
 173              		.loc 1 98 16 view .LVU40
 174 006a FFF7FEFF 		bl	chThdCreateFromHeap
 175              	.LVL8:
 176              		.loc 1 98 16 view .LVU41
 177 006e 0346     		mov	r3, r0
 178              		.loc 1 101 3 view .LVU42
 179 0070 2846     		mov	r0, r5
 180              		.loc 1 98 14 view .LVU43
 181 0072 A360     		str	r3, [r4, #8]
 182              		.loc 1 101 3 is_stmt 1 view .LVU44
 183 0074 FFF7FEFF 		bl	chHeapFree
 184              	.LVL9:
 185              		.loc 1 103 3 view .LVU45
 186 0078 2168     		ldr	r1, [r4]
 187 007a 21B1     		cbz	r1, .L2
 188              		.loc 1 103 3 is_stmt 0 discriminator 1 view .LVU46
 189 007c 6168     		ldr	r1, [r4, #4]
 190 007e 11B1     		cbz	r1, .L2
 191              		.loc 1 103 3 discriminator 3 view .LVU47
 192 0080 A168     		ldr	r1, [r4, #8]
 193 0082 59B3     		cbz	r1, .L13
 194 0084 0021     		movs	r1, #0
 195              	.L2:
 196              		.loc 1 103 3 discriminator 12 view .LVU48
 197 0086 0120     		movs	r0, #1
 198 0088 FFF7FEFF 		bl	_test_assert
 199              	.LVL10:
 200 008c 30B1     		cbz	r0, .L14
 201              	.L1:
 202              		.loc 1 117 1 view .LVU49
 203 008e 194B     		ldr	r3, .L16+4
 204 0090 1A68     		ldr	r2, [r3]
 205 0092 059B     		ldr	r3, [sp, #20]
 206 0094 5A40     		eors	r2, r3, r2
 207 0096 29D1     		bne	.L15
 208 0098 07B0     		add	sp, sp, #28
 209              		.cfi_remember_state
 210              		.cfi_def_cfa_offset 12
 211              		@ sp needed
 212 009a 30BD     		pop	{r4, r5, pc}
 213              	.LVL11:
 214              	.L14:
 215              		.cfi_restore_state
 216              		.loc 1 108 43 is_stmt 1 view .LVU50
 217              		.loc 1 111 3 view .LVU51
 218 009c FFF7FEFF 		bl	test_wait_threads
 219              	.LVL12:
 220              		.loc 1 112 3 view .LVU52
 221 00a0 1B49     		ldr	r1, .L16+32
 222 00a2 0220     		movs	r0, #2
 223 00a4 FFF7FEFF 		bl	_test_assert_sequence
 224              	.LVL13:
 225 00a8 0028     		cmp	r0, #0
 226 00aa F0D1     		bne	.L1
 227              		.loc 1 112 32 discriminator 2 view .LVU53
 228              		.loc 1 115 3 discriminator 2 view .LVU54
ARM GAS  /tmp/ccM74hFp.s 			page 5


 229 00ac 03A9     		add	r1, sp, #12
 230 00ae 1248     		ldr	r0, .L16+8
 231 00b0 FFF7FEFF 		bl	chHeapStatus
 232              	.LVL14:
 233 00b4 A0F10101 		sub	r1, r0, #1
 234 00b8 B1FA81F1 		clz	r1, r1
 235 00bc 4909     		lsrs	r1, r1, #5
 236 00be 0320     		movs	r0, #3
 237 00c0 FFF7FEFF 		bl	_test_assert
 238              	.LVL15:
 239 00c4 0028     		cmp	r0, #0
 240 00c6 E2D1     		bne	.L1
 241              		.loc 1 115 67 discriminator 2 view .LVU55
 242              		.loc 1 116 3 discriminator 2 view .LVU56
 243 00c8 DDE90313 		ldrd	r1, r3, [sp, #12]
 244 00cc C91A     		subs	r1, r1, r3
 245 00ce B1FA81F1 		clz	r1, r1
 246 00d2 4909     		lsrs	r1, r1, #5
 247 00d4 0420     		movs	r0, #4
 248 00d6 FFF7FEFF 		bl	_test_assert
 249              	.LVL16:
 250              		.loc 1 116 3 discriminator 2 view .LVU57
 251 00da D8E7     		b	.L1
 252              	.L13:
 253              		.loc 1 103 3 is_stmt 0 discriminator 5 view .LVU58
 254 00dc E368     		ldr	r3, [r4, #12]
 255 00de 002B     		cmp	r3, #0
 256 00e0 D1D1     		bne	.L2
 257              		.loc 1 103 3 discriminator 7 view .LVU59
 258 00e2 2169     		ldr	r1, [r4, #16]
 259 00e4 B1FA81F1 		clz	r1, r1
 260 00e8 4909     		lsrs	r1, r1, #5
 261 00ea CCE7     		b	.L2
 262              	.L15:
 263              		.loc 1 117 1 view .LVU60
 264 00ec FFF7FEFF 		bl	__stack_chk_fail
 265              	.LVL17:
 266              	.L17:
 267              		.align	2
 268              	.L16:
 269 00f0 00000000 		.word	ch
 270 00f4 00000000 		.word	.LC4
 271 00f8 00000000 		.word	.LANCHOR0
 272 00fc 00000000 		.word	threads
 273 0100 00000000 		.word	.LC0
 274 0104 00000000 		.word	thread
 275 0108 04000000 		.word	.LC1
 276 010c 08000000 		.word	.LC2
 277 0110 0C000000 		.word	.LC3
 278              		.cfi_endproc
 279              	.LFE221:
 280              		.size	dyn1_execute, .-dyn1_execute
 281              		.section	.rodata.thread.cst4,"aM",%progbits,4
 282              		.align	2
 283              	.LC5:
 284 0000 00000000 		.word	__stack_chk_guard
 285              		.section	.text.thread,"ax",%progbits
ARM GAS  /tmp/ccM74hFp.s 			page 6


 286              		.align	1
 287              		.p2align 4,,15
 288              		.syntax unified
 289              		.thumb
 290              		.thumb_func
 291              		.fpu fpv4-sp-d16
 292              		.type	thread, %function
 293              	thread:
 294              	.LVL18:
 295              	.LFB219:
 296              		.loc 1 71 32 is_stmt 1 view -0
 297              		.cfi_startproc
 298              		@ args = 0, pretend = 0, frame = 8
 299              		@ frame_needed = 0, uses_anonymous_args = 0
 300              		.loc 1 71 32 is_stmt 0 view .LVU62
 301 0000 00B5     		push	{lr}
 302              		.cfi_def_cfa_offset 4
 303              		.cfi_offset 14, -4
 304 0002 094B     		ldr	r3, .L23
 305 0004 83B0     		sub	sp, sp, #12
 306              		.cfi_def_cfa_offset 16
 307              		.loc 1 71 32 view .LVU63
 308 0006 1B68     		ldr	r3, [r3]
 309 0008 0193     		str	r3, [sp, #4]
 310 000a 4FF00003 		mov	r3,#0
 311              		.loc 1 73 3 is_stmt 1 view .LVU64
 312 000e 064B     		ldr	r3, .L23
 313 0010 1A68     		ldr	r2, [r3]
 314 0012 019B     		ldr	r3, [sp, #4]
 315 0014 5A40     		eors	r2, r3, r2
 316 0016 05D1     		bne	.L22
 317 0018 0078     		ldrb	r0, [r0]	@ zero_extendqisi2
 318              	.LVL19:
 319              		.loc 1 74 1 is_stmt 0 view .LVU65
 320 001a 03B0     		add	sp, sp, #12
 321              		.cfi_remember_state
 322              		.cfi_def_cfa_offset 4
 323              		@ sp needed
 324 001c 5DF804EB 		ldr	lr, [sp], #4
 325              		.cfi_restore 14
 326              		.cfi_def_cfa_offset 0
 327              		.loc 1 73 3 view .LVU66
 328 0020 FFF7FEBF 		b	test_emit_token
 329              	.LVL20:
 330              	.L22:
 331              		.cfi_restore_state
 332              		.loc 1 73 3 view .LVU67
 333 0024 FFF7FEFF 		bl	__stack_chk_fail
 334              	.LVL21:
 335              	.L24:
 336              		.loc 1 73 3 view .LVU68
 337              		.align	2
 338              	.L23:
 339 0028 00000000 		.word	.LC5
 340              		.cfi_endproc
 341              	.LFE219:
 342              		.size	thread, .-thread
ARM GAS  /tmp/ccM74hFp.s 			page 7


 343              		.section	.rodata.dyn1_setup.cst4,"aM",%progbits,4
 344              		.align	2
 345              	.LC6:
 346 0000 00000000 		.word	__stack_chk_guard
 347              		.section	.text.dyn1_setup,"ax",%progbits
 348              		.align	1
 349              		.p2align 4,,15
 350              		.syntax unified
 351              		.thumb
 352              		.thumb_func
 353              		.fpu fpv4-sp-d16
 354              		.type	dyn1_setup, %function
 355              	dyn1_setup:
 356              	.LFB220:
 357              		.loc 1 77 30 is_stmt 1 view -0
 358              		.cfi_startproc
 359              		@ args = 0, pretend = 0, frame = 8
 360              		@ frame_needed = 0, uses_anonymous_args = 0
 361 0000 00B5     		push	{lr}
 362              		.cfi_def_cfa_offset 4
 363              		.cfi_offset 14, -4
 364 0002 0B4B     		ldr	r3, .L30
 365 0004 83B0     		sub	sp, sp, #12
 366              		.cfi_def_cfa_offset 16
 367              		.loc 1 77 30 is_stmt 0 view .LVU70
 368 0006 1B68     		ldr	r3, [r3]
 369 0008 0193     		str	r3, [sp, #4]
 370 000a 4FF00003 		mov	r3,#0
 371              		.loc 1 79 3 is_stmt 1 view .LVU71
 372 000e 084B     		ldr	r3, .L30
 373 0010 1A68     		ldr	r2, [r3]
 374 0012 019B     		ldr	r3, [sp, #4]
 375 0014 5A40     		eors	r2, r3, r2
 376 0016 08D1     		bne	.L29
 377 0018 0649     		ldr	r1, .L30+4
 378 001a 0748     		ldr	r0, .L30+8
 379 001c 40F6D812 		movw	r2, #2520
 380              		.loc 1 80 1 is_stmt 0 view .LVU72
 381 0020 03B0     		add	sp, sp, #12
 382              		.cfi_remember_state
 383              		.cfi_def_cfa_offset 4
 384              		@ sp needed
 385 0022 5DF804EB 		ldr	lr, [sp], #4
 386              		.cfi_restore 14
 387              		.cfi_def_cfa_offset 0
 388              		.loc 1 79 3 view .LVU73
 389 0026 FFF7FEBF 		b	chHeapObjectInit
 390              	.LVL22:
 391              	.L29:
 392              		.cfi_restore_state
 393 002a FFF7FEFF 		bl	__stack_chk_fail
 394              	.LVL23:
 395              	.L31:
 396 002e 00BF     		.align	2
 397              	.L30:
 398 0030 00000000 		.word	.LC6
 399 0034 00000000 		.word	test
ARM GAS  /tmp/ccM74hFp.s 			page 8


 400 0038 00000000 		.word	.LANCHOR0
 401              		.cfi_endproc
 402              	.LFE220:
 403              		.size	dyn1_setup, .-dyn1_setup
 404              		.section	.rodata.dyn3_setup.cst4,"aM",%progbits,4
 405              		.align	2
 406              	.LC7:
 407 0000 00000000 		.word	__stack_chk_guard
 408              		.section	.text.dyn3_setup,"ax",%progbits
 409              		.align	1
 410              		.p2align 4,,15
 411              		.syntax unified
 412              		.thumb
 413              		.thumb_func
 414              		.fpu fpv4-sp-d16
 415              		.type	dyn3_setup, %function
 416              	dyn3_setup:
 417              	.LFB228:
 418              		.cfi_startproc
 419              		@ args = 0, pretend = 0, frame = 8
 420              		@ frame_needed = 0, uses_anonymous_args = 0
 421 0000 00B5     		push	{lr}
 422              		.cfi_def_cfa_offset 4
 423              		.cfi_offset 14, -4
 424 0002 094B     		ldr	r3, .L37
 425 0004 83B0     		sub	sp, sp, #12
 426              		.cfi_def_cfa_offset 16
 427 0006 1B68     		ldr	r3, [r3]
 428 0008 0193     		str	r3, [sp, #4]
 429 000a 4FF00003 		mov	r3,#0
 430 000e 064B     		ldr	r3, .L37
 431 0010 1A68     		ldr	r2, [r3]
 432 0012 019B     		ldr	r3, [sp, #4]
 433 0014 5A40     		eors	r2, r3, r2
 434 0016 04D1     		bne	.L36
 435 0018 03B0     		add	sp, sp, #12
 436              		.cfi_remember_state
 437              		.cfi_def_cfa_offset 4
 438              		@ sp needed
 439 001a 5DF804EB 		ldr	lr, [sp], #4
 440              		.cfi_restore 14
 441              		.cfi_def_cfa_offset 0
 442 001e FFF7FEBF 		b	dyn1_setup
 443              	.L36:
 444              		.cfi_restore_state
 445 0022 FFF7FEFF 		bl	__stack_chk_fail
 446              	.L38:
 447 0026 00BF     		.align	2
 448              	.L37:
 449 0028 00000000 		.word	.LC7
 450              		.cfi_endproc
 451              	.LFE228:
 452              		.size	dyn3_setup, .-dyn3_setup
 453              		.section	.rodata.dyn2_execute.str1.4,"aMS",%progbits,1
 454              		.align	2
 455              	.LC8:
 456 0000 4400     		.ascii	"D\000"
ARM GAS  /tmp/ccM74hFp.s 			page 9


 457 0002 0000     		.align	2
 458              	.LC9:
 459 0004 4500     		.ascii	"E\000"
 460 0006 0000     		.align	2
 461              	.LC10:
 462 0008 41424344 		.ascii	"ABCD\000"
 462      00
 463              		.section	.rodata.dyn2_execute.cst4,"aM",%progbits,4
 464              		.align	2
 465              	.LC11:
 466 0000 00000000 		.word	__stack_chk_guard
 467              		.section	.text.dyn2_execute,"ax",%progbits
 468              		.align	1
 469              		.p2align 4,,15
 470              		.syntax unified
 471              		.thumb
 472              		.thumb_func
 473              		.fpu fpv4-sp-d16
 474              		.type	dyn2_execute, %function
 475              	dyn2_execute:
 476              	.LFB223:
 477              		.loc 1 143 32 is_stmt 1 view -0
 478              		.cfi_startproc
 479              		@ args = 0, pretend = 0, frame = 8
 480              		@ frame_needed = 0, uses_anonymous_args = 0
 481              		.loc 1 143 32 is_stmt 0 view .LVU75
 482 0000 F0B5     		push	{r4, r5, r6, r7, lr}
 483              		.cfi_def_cfa_offset 20
 484              		.cfi_offset 4, -20
 485              		.cfi_offset 5, -16
 486              		.cfi_offset 6, -12
 487              		.cfi_offset 7, -8
 488              		.cfi_offset 14, -4
 489              	.LBB28:
 490              	.LBB29:
 491              	.LBB30:
 492              	.LBB31:
 493              		.loc 2 176 18 view .LVU76
 494 0002 3E4B     		ldr	r3, .L57
 495 0004 3E4C     		ldr	r4, .L57+4
 496              	.LBE31:
 497              	.LBE30:
 498              		.loc 2 189 25 view .LVU77
 499 0006 9B69     		ldr	r3, [r3, #24]
 500              	.LBE29:
 501              	.LBE28:
 502              		.loc 1 149 5 view .LVU78
 503 0008 3E4F     		ldr	r7, .L57+8
 504              	.LBB36:
 505              	.LBB34:
 506              		.loc 2 189 25 view .LVU79
 507 000a 9D68     		ldr	r5, [r3, #8]
 508              	.LBE34:
 509              	.LBE36:
 510              		.loc 1 143 32 view .LVU80
 511 000c 3E4B     		ldr	r3, .L57+12
 512 000e 83B0     		sub	sp, sp, #12
ARM GAS  /tmp/ccM74hFp.s 			page 10


 513              		.cfi_def_cfa_offset 32
 514              		.loc 1 143 32 view .LVU81
 515 0010 1B68     		ldr	r3, [r3]
 516 0012 0193     		str	r3, [sp, #4]
 517 0014 4FF00003 		mov	r3,#0
 518              		.loc 1 144 3 is_stmt 1 view .LVU82
 519              		.loc 1 145 3 view .LVU83
 520              	.LBB37:
 521              	.LBI28:
 522              		.loc 2 187 23 view .LVU84
 523              	.LBB35:
 524              		.loc 2 189 3 view .LVU85
 525              	.LBB33:
 526              	.LBI30:
 527              		.loc 2 174 25 view .LVU86
 528              	.LBB32:
 529              		.loc 2 176 3 view .LVU87
 530              	.LVL24:
 531              		.loc 2 176 3 is_stmt 0 view .LVU88
 532              	.LBE32:
 533              	.LBE33:
 534              	.LBE35:
 535              	.LBE37:
 536              		.loc 1 148 3 is_stmt 1 view .LVU89
 537              		.loc 1 148 15 view .LVU90
 538 0018 04F11006 		add	r6, r4, #16
 539              	.LVL25:
 540              	.L40:
 541              		.loc 1 149 5 discriminator 3 view .LVU91
 542 001c 54F8041B 		ldr	r1, [r4], #4
 543 0020 3846     		mov	r0, r7
 544 0022 FFF7FEFF 		bl	chPoolFree
 545              	.LVL26:
 546              		.loc 1 148 22 discriminator 3 view .LVU92
 547              		.loc 1 148 15 discriminator 3 view .LVU93
 548              		.loc 1 148 3 is_stmt 0 discriminator 3 view .LVU94
 549 0026 B442     		cmp	r4, r6
 550 0028 F8D1     		bne	.L40
 551              		.loc 1 152 3 is_stmt 1 view .LVU95
 552              		.loc 1 152 16 is_stmt 0 view .LVU96
 553 002a 384B     		ldr	r3, .L57+16
 554 002c 384A     		ldr	r2, .L57+20
 555 002e 3548     		ldr	r0, .L57+8
 556              		.loc 1 152 14 view .LVU97
 557 0030 384C     		ldr	r4, .L57+24
 558              		.loc 1 152 16 view .LVU98
 559 0032 691E     		subs	r1, r5, #1
 560 0034 FFF7FEFF 		bl	chThdCreateFromMemoryPool
 561              	.LVL27:
 562 0038 0146     		mov	r1, r0
 563              		.loc 1 153 16 view .LVU99
 564 003a 374B     		ldr	r3, .L57+28
 565 003c 344A     		ldr	r2, .L57+20
 566              		.loc 1 152 14 view .LVU100
 567 003e 2160     		str	r1, [r4]
 568              		.loc 1 153 3 is_stmt 1 view .LVU101
 569              		.loc 1 153 16 is_stmt 0 view .LVU102
ARM GAS  /tmp/ccM74hFp.s 			page 11


 570 0040 3048     		ldr	r0, .L57+8
 571 0042 A91E     		subs	r1, r5, #2
 572 0044 FFF7FEFF 		bl	chThdCreateFromMemoryPool
 573              	.LVL28:
 574 0048 0146     		mov	r1, r0
 575              		.loc 1 154 16 view .LVU103
 576 004a 344B     		ldr	r3, .L57+32
 577 004c 304A     		ldr	r2, .L57+20
 578              		.loc 1 153 14 view .LVU104
 579 004e 6160     		str	r1, [r4, #4]
 580              		.loc 1 154 3 is_stmt 1 view .LVU105
 581              		.loc 1 154 16 is_stmt 0 view .LVU106
 582 0050 2C48     		ldr	r0, .L57+8
 583 0052 E91E     		subs	r1, r5, #3
 584 0054 FFF7FEFF 		bl	chThdCreateFromMemoryPool
 585              	.LVL29:
 586 0058 0146     		mov	r1, r0
 587              		.loc 1 155 16 view .LVU107
 588 005a 314B     		ldr	r3, .L57+36
 589 005c 2C4A     		ldr	r2, .L57+20
 590              		.loc 1 154 14 view .LVU108
 591 005e A160     		str	r1, [r4, #8]
 592              		.loc 1 155 3 is_stmt 1 view .LVU109
 593              		.loc 1 155 16 is_stmt 0 view .LVU110
 594 0060 2848     		ldr	r0, .L57+8
 595 0062 291F     		subs	r1, r5, #4
 596 0064 FFF7FEFF 		bl	chThdCreateFromMemoryPool
 597              	.LVL30:
 598              		.loc 1 156 16 view .LVU111
 599 0068 691F     		subs	r1, r5, #5
 600              		.loc 1 155 16 view .LVU112
 601 006a 0646     		mov	r6, r0
 602              		.loc 1 156 16 view .LVU113
 603 006c 2D4B     		ldr	r3, .L57+40
 604 006e 284A     		ldr	r2, .L57+20
 605 0070 2448     		ldr	r0, .L57+8
 606              		.loc 1 155 14 view .LVU114
 607 0072 E660     		str	r6, [r4, #12]
 608              		.loc 1 156 3 is_stmt 1 view .LVU115
 609              		.loc 1 156 16 is_stmt 0 view .LVU116
 610 0074 FFF7FEFF 		bl	chThdCreateFromMemoryPool
 611              	.LVL31:
 612              		.loc 1 158 3 view .LVU117
 613 0078 2168     		ldr	r1, [r4]
 614              		.loc 1 156 14 view .LVU118
 615 007a 2061     		str	r0, [r4, #16]
 616              		.loc 1 158 3 is_stmt 1 view .LVU119
 617 007c 41B1     		cbz	r1, .L41
 618              		.loc 1 158 3 is_stmt 0 discriminator 1 view .LVU120
 619 007e 6168     		ldr	r1, [r4, #4]
 620 0080 31B1     		cbz	r1, .L41
 621              		.loc 1 158 3 discriminator 3 view .LVU121
 622 0082 A168     		ldr	r1, [r4, #8]
 623 0084 21B1     		cbz	r1, .L41
 624              		.loc 1 158 3 discriminator 5 view .LVU122
 625 0086 E168     		ldr	r1, [r4, #12]
 626 0088 11B1     		cbz	r1, .L41
ARM GAS  /tmp/ccM74hFp.s 			page 12


 627              		.loc 1 158 3 discriminator 7 view .LVU123
 628 008a B0FA80F1 		clz	r1, r0
 629 008e 4909     		lsrs	r1, r1, #5
 630              	.L41:
 631              		.loc 1 158 3 discriminator 12 view .LVU124
 632 0090 0120     		movs	r0, #1
 633 0092 FFF7FEFF 		bl	_test_assert
 634              	.LVL32:
 635 0096 30B1     		cbz	r0, .L56
 636              	.LVL33:
 637              	.L39:
 638              		.loc 1 173 1 view .LVU125
 639 0098 1B4B     		ldr	r3, .L57+12
 640 009a 1A68     		ldr	r2, [r3]
 641 009c 019B     		ldr	r3, [sp, #4]
 642 009e 5A40     		eors	r2, r3, r2
 643 00a0 29D1     		bne	.L55
 644 00a2 03B0     		add	sp, sp, #12
 645              		.cfi_remember_state
 646              		.cfi_def_cfa_offset 20
 647              		@ sp needed
 648 00a4 F0BD     		pop	{r4, r5, r6, r7, pc}
 649              	.LVL34:
 650              	.L56:
 651              		.cfi_restore_state
 652              		.loc 1 163 43 is_stmt 1 view .LVU126
 653              		.loc 1 166 3 view .LVU127
 654 00a6 FFF7FEFF 		bl	test_wait_threads
 655              	.LVL35:
 656              		.loc 1 167 3 view .LVU128
 657 00aa 1F49     		ldr	r1, .L57+44
 658 00ac 0220     		movs	r0, #2
 659 00ae FFF7FEFF 		bl	_test_assert_sequence
 660              	.LVL36:
 661 00b2 0028     		cmp	r0, #0
 662 00b4 F0D1     		bne	.L39
 663              		.loc 1 171 5 is_stmt 0 view .LVU129
 664 00b6 134D     		ldr	r5, .L57+8
 665              	.LVL37:
 666              		.loc 1 171 5 view .LVU130
 667 00b8 0424     		movs	r4, #4
 668              	.L45:
 669              	.LVL38:
 670              		.loc 1 171 5 is_stmt 1 view .LVU131
 671 00ba 2846     		mov	r0, r5
 672 00bc FFF7FEFF 		bl	chPoolAlloc
 673              	.LVL39:
 674 00c0 011E     		subs	r1, r0, #0
 675 00c2 18BF     		it	ne
 676 00c4 0121     		movne	r1, #1
 677 00c6 0320     		movs	r0, #3
 678 00c8 FFF7FEFF 		bl	_test_assert
 679              	.LVL40:
 680 00cc 0028     		cmp	r0, #0
 681 00ce E3D1     		bne	.L39
 682              		.loc 1 170 22 discriminator 2 view .LVU132
 683              	.LVL41:
ARM GAS  /tmp/ccM74hFp.s 			page 13


 684              		.loc 1 170 15 discriminator 2 view .LVU133
 685              		.loc 1 170 3 is_stmt 0 discriminator 2 view .LVU134
 686 00d0 013C     		subs	r4, r4, #1
 687              	.LVL42:
 688              		.loc 1 170 3 discriminator 2 view .LVU135
 689 00d2 F2D1     		bne	.L45
 690              		.loc 1 171 65 is_stmt 1 view .LVU136
 691              		.loc 1 172 3 view .LVU137
 692 00d4 0B48     		ldr	r0, .L57+8
 693 00d6 FFF7FEFF 		bl	chPoolAlloc
 694              	.LVL43:
 695 00da 0B4B     		ldr	r3, .L57+12
 696 00dc 1A68     		ldr	r2, [r3]
 697 00de 019B     		ldr	r3, [sp, #4]
 698 00e0 5A40     		eors	r2, r3, r2
 699 00e2 08D1     		bne	.L55
 700 00e4 B0FA80F1 		clz	r1, r0
 701 00e8 4909     		lsrs	r1, r1, #5
 702 00ea 0420     		movs	r0, #4
 703              		.loc 1 173 1 is_stmt 0 view .LVU138
 704 00ec 03B0     		add	sp, sp, #12
 705              		.cfi_remember_state
 706              		.cfi_def_cfa_offset 20
 707              		@ sp needed
 708 00ee BDE8F040 		pop	{r4, r5, r6, r7, lr}
 709              		.cfi_restore 14
 710              		.cfi_restore 7
 711              		.cfi_restore 6
 712              		.cfi_restore 5
 713              		.cfi_restore 4
 714              		.cfi_def_cfa_offset 0
 715              	.LVL44:
 716              		.loc 1 172 3 view .LVU139
 717 00f2 FFF7FEBF 		b	_test_assert
 718              	.LVL45:
 719              	.L55:
 720              		.cfi_restore_state
 721              		.loc 1 173 1 view .LVU140
 722 00f6 FFF7FEFF 		bl	__stack_chk_fail
 723              	.LVL46:
 724              	.L58:
 725 00fa 00BF     		.align	2
 726              	.L57:
 727 00fc 00000000 		.word	ch
 728 0100 00000000 		.word	wa
 729 0104 00000000 		.word	.LANCHOR1
 730 0108 00000000 		.word	.LC11
 731 010c 00000000 		.word	.LC0
 732 0110 00000000 		.word	thread
 733 0114 00000000 		.word	threads
 734 0118 04000000 		.word	.LC1
 735 011c 08000000 		.word	.LC2
 736 0120 00000000 		.word	.LC8
 737 0124 04000000 		.word	.LC9
 738 0128 08000000 		.word	.LC10
 739              		.cfi_endproc
 740              	.LFE223:
ARM GAS  /tmp/ccM74hFp.s 			page 14


 741              		.size	dyn2_execute, .-dyn2_execute
 742              		.section	.rodata.dyn2_setup.cst4,"aM",%progbits,4
 743              		.align	2
 744              	.LC12:
 745 0000 00000000 		.word	__stack_chk_guard
 746              		.section	.text.dyn2_setup,"ax",%progbits
 747              		.align	1
 748              		.p2align 4,,15
 749              		.syntax unified
 750              		.thumb
 751              		.thumb_func
 752              		.fpu fpv4-sp-d16
 753              		.type	dyn2_setup, %function
 754              	dyn2_setup:
 755              	.LFB222:
 756              		.loc 1 138 30 is_stmt 1 view -0
 757              		.cfi_startproc
 758              		@ args = 0, pretend = 0, frame = 8
 759              		@ frame_needed = 0, uses_anonymous_args = 0
 760 0000 00B5     		push	{lr}
 761              		.cfi_def_cfa_offset 4
 762              		.cfi_offset 14, -4
 763 0002 0B4B     		ldr	r3, .L64
 764 0004 83B0     		sub	sp, sp, #12
 765              		.cfi_def_cfa_offset 16
 766              		.loc 1 138 30 is_stmt 0 view .LVU142
 767 0006 1B68     		ldr	r3, [r3]
 768 0008 0193     		str	r3, [sp, #4]
 769 000a 4FF00003 		mov	r3,#0
 770              		.loc 1 140 3 is_stmt 1 view .LVU143
 771 000e 084B     		ldr	r3, .L64
 772 0010 1A68     		ldr	r2, [r3]
 773 0012 019B     		ldr	r3, [sp, #4]
 774 0014 5A40     		eors	r2, r3, r2
 775 0016 08D1     		bne	.L63
 776 0018 0648     		ldr	r0, .L64+4
 777 001a 0022     		movs	r2, #0
 778 001c 4FF4FC71 		mov	r1, #504
 779              		.loc 1 141 1 is_stmt 0 view .LVU144
 780 0020 03B0     		add	sp, sp, #12
 781              		.cfi_remember_state
 782              		.cfi_def_cfa_offset 4
 783              		@ sp needed
 784 0022 5DF804EB 		ldr	lr, [sp], #4
 785              		.cfi_restore 14
 786              		.cfi_def_cfa_offset 0
 787              		.loc 1 140 3 view .LVU145
 788 0026 FFF7FEBF 		b	chPoolObjectInit
 789              	.LVL47:
 790              	.L63:
 791              		.cfi_restore_state
 792 002a FFF7FEFF 		bl	__stack_chk_fail
 793              	.LVL48:
 794              	.L65:
 795 002e 00BF     		.align	2
 796              	.L64:
 797 0030 00000000 		.word	.LC12
ARM GAS  /tmp/ccM74hFp.s 			page 15


 798 0034 00000000 		.word	.LANCHOR1
 799              		.cfi_endproc
 800              	.LFE222:
 801              		.size	dyn2_setup, .-dyn2_setup
 802              		.section	.rodata.regfind.cst4,"aM",%progbits,4
 803              		.align	2
 804              	.LC13:
 805 0000 00000000 		.word	__stack_chk_guard
 806              		.section	.text.regfind,"ax",%progbits
 807              		.align	1
 808              		.p2align 4,,15
 809              		.syntax unified
 810              		.thumb
 811              		.thumb_func
 812              		.fpu fpv4-sp-d16
 813              		.type	regfind, %function
 814              	regfind:
 815              	.LVL49:
 816              	.LFB224:
 817              		.loc 1 192 35 is_stmt 1 view -0
 818              		.cfi_startproc
 819              		@ args = 0, pretend = 0, frame = 8
 820              		@ frame_needed = 0, uses_anonymous_args = 0
 821              		.loc 1 192 35 is_stmt 0 view .LVU147
 822 0000 30B5     		push	{r4, r5, lr}
 823              		.cfi_def_cfa_offset 12
 824              		.cfi_offset 4, -12
 825              		.cfi_offset 5, -8
 826              		.cfi_offset 14, -4
 827 0002 0E4B     		ldr	r3, .L72
 828 0004 83B0     		sub	sp, sp, #12
 829              		.cfi_def_cfa_offset 24
 830              		.loc 1 192 35 view .LVU148
 831 0006 0546     		mov	r5, r0
 832 0008 1B68     		ldr	r3, [r3]
 833 000a 0193     		str	r3, [sp, #4]
 834 000c 4FF00003 		mov	r3,#0
 835              		.loc 1 193 3 is_stmt 1 view .LVU149
 836              		.loc 1 194 3 view .LVU150
 837              	.LVL50:
 838              		.loc 1 196 3 view .LVU151
 839              		.loc 1 196 9 is_stmt 0 view .LVU152
 840 0010 FFF7FEFF 		bl	chRegFirstThread
 841              	.LVL51:
 842              		.loc 1 194 8 view .LVU153
 843 0014 0024     		movs	r4, #0
 844              	.LVL52:
 845              	.L67:
 846              		.loc 1 197 3 is_stmt 1 discriminator 1 view .LVU154
 847              		.loc 1 198 5 discriminator 1 view .LVU155
 848 0016 A842     		cmp	r0, r5
 849 0018 08BF     		it	eq
 850 001a 44F00104 		orreq	r4, r4, #1
 851              	.LVL53:
 852              		.loc 1 199 5 discriminator 1 view .LVU156
 853              		.loc 1 199 11 is_stmt 0 discriminator 1 view .LVU157
 854 001e FFF7FEFF 		bl	chRegNextThread
ARM GAS  /tmp/ccM74hFp.s 			page 16


 855              	.LVL54:
 856              		.loc 1 200 11 is_stmt 1 discriminator 1 view .LVU158
 857              		.loc 1 200 3 is_stmt 0 discriminator 1 view .LVU159
 858 0022 0028     		cmp	r0, #0
 859 0024 F7D1     		bne	.L67
 860              		.loc 1 201 3 is_stmt 1 view .LVU160
 861              		.loc 1 202 1 is_stmt 0 view .LVU161
 862 0026 054B     		ldr	r3, .L72
 863 0028 1A68     		ldr	r2, [r3]
 864 002a 019B     		ldr	r3, [sp, #4]
 865 002c 5A40     		eors	r2, r3, r2
 866 002e 02D1     		bne	.L71
 867 0030 2046     		mov	r0, r4
 868              	.LVL55:
 869              		.loc 1 202 1 view .LVU162
 870 0032 03B0     		add	sp, sp, #12
 871              		.cfi_remember_state
 872              		.cfi_def_cfa_offset 12
 873              		@ sp needed
 874 0034 30BD     		pop	{r4, r5, pc}
 875              	.LVL56:
 876              	.L71:
 877              		.cfi_restore_state
 878              		.loc 1 202 1 view .LVU163
 879 0036 FFF7FEFF 		bl	__stack_chk_fail
 880              	.LVL57:
 881              	.L73:
 882              		.loc 1 202 1 view .LVU164
 883 003a 00BF     		.align	2
 884              	.L72:
 885 003c 00000000 		.word	.LC13
 886              		.cfi_endproc
 887              	.LFE224:
 888              		.size	regfind, .-regfind
 889              		.section	.rodata.dyn3_execute.cst4,"aM",%progbits,4
 890              		.align	2
 891              	.LC14:
 892 0000 00000000 		.word	__stack_chk_guard
 893              		.section	.text.dyn3_execute,"ax",%progbits
 894              		.align	1
 895              		.p2align 4,,15
 896              		.syntax unified
 897              		.thumb
 898              		.thumb_func
 899              		.fpu fpv4-sp-d16
 900              		.type	dyn3_execute, %function
 901              	dyn3_execute:
 902              	.LFB226:
 903              		.loc 1 209 32 is_stmt 1 view -0
 904              		.cfi_startproc
 905              		@ args = 0, pretend = 0, frame = 8
 906              		@ frame_needed = 0, uses_anonymous_args = 0
 907 0000 10B5     		push	{r4, lr}
 908              		.cfi_def_cfa_offset 8
 909              		.cfi_offset 4, -8
 910              		.cfi_offset 14, -4
 911              	.LBB38:
ARM GAS  /tmp/ccM74hFp.s 			page 17


 912              	.LBB39:
 913              	.LBB40:
 914              	.LBB41:
 915              		.loc 2 176 18 is_stmt 0 view .LVU166
 916 0002 544B     		ldr	r3, .L83
 917              	.LBE41:
 918              	.LBE40:
 919              	.LBE39:
 920              	.LBE38:
 921              		.loc 1 214 8 view .LVU167
 922 0004 5449     		ldr	r1, .L83+4
 923              	.LBB46:
 924              	.LBB44:
 925              		.loc 2 189 25 view .LVU168
 926 0006 9A69     		ldr	r2, [r3, #24]
 927              	.LBE44:
 928              	.LBE46:
 929              		.loc 1 209 32 view .LVU169
 930 0008 544C     		ldr	r4, .L83+8
 931              		.loc 1 214 8 view .LVU170
 932 000a 9268     		ldr	r2, [r2, #8]
 933 000c 544B     		ldr	r3, .L83+12
 934 000e 5548     		ldr	r0, .L83+16
 935              		.loc 1 209 32 view .LVU171
 936 0010 84B0     		sub	sp, sp, #16
 937              		.cfi_def_cfa_offset 24
 938              		.loc 1 214 8 view .LVU172
 939 0012 013A     		subs	r2, r2, #1
 940 0014 0091     		str	r1, [sp]
 941 0016 4FF4FC71 		mov	r1, #504
 942              		.loc 1 209 32 view .LVU173
 943 001a 2468     		ldr	r4, [r4]
 944 001c 0394     		str	r4, [sp, #12]
 945 001e 4FF00004 		mov	r4,#0
 946              		.loc 1 210 3 is_stmt 1 view .LVU174
 947              		.loc 1 211 3 view .LVU175
 948              	.LBB47:
 949              	.LBI38:
 950              		.loc 2 187 23 view .LVU176
 951              	.LBB45:
 952              		.loc 2 189 3 view .LVU177
 953              	.LBB43:
 954              	.LBI40:
 955              		.loc 2 174 25 view .LVU178
 956              	.LBB42:
 957              		.loc 2 176 3 view .LVU179
 958              	.LBE42:
 959              	.LBE43:
 960              	.LBE45:
 961              	.LBE47:
 962              		.loc 1 214 3 view .LVU180
 963              		.loc 1 214 8 is_stmt 0 view .LVU181
 964 0022 FFF7FEFF 		bl	chThdCreateFromHeap
 965              	.LVL58:
 966 0026 0446     		mov	r4, r0
 967              	.LVL59:
 968              		.loc 1 215 3 is_stmt 1 view .LVU182
ARM GAS  /tmp/ccM74hFp.s 			page 18


 969 0028 0120     		movs	r0, #1
 970              	.LVL60:
 971              		.loc 1 215 3 is_stmt 0 view .LVU183
 972 002a 94F82210 		ldrb	r1, [r4, #34]	@ zero_extendqisi2
 973 002e 091A     		subs	r1, r1, r0
 974 0030 B1FA81F1 		clz	r1, r1
 975 0034 4909     		lsrs	r1, r1, #5
 976 0036 FFF7FEFF 		bl	_test_assert
 977              	.LVL61:
 978 003a 38B1     		cbz	r0, .L82
 979              	.L74:
 980              		.loc 1 237 1 view .LVU184
 981 003c 474B     		ldr	r3, .L83+8
 982 003e 1A68     		ldr	r2, [r3]
 983 0040 039B     		ldr	r3, [sp, #12]
 984 0042 5A40     		eors	r2, r3, r2
 985 0044 40F08380 		bne	.L81
 986 0048 04B0     		add	sp, sp, #16
 987              		.cfi_remember_state
 988              		.cfi_def_cfa_offset 8
 989              		@ sp needed
 990 004a 10BD     		pop	{r4, pc}
 991              	.LVL62:
 992              	.L82:
 993              		.cfi_restore_state
 994              		.loc 1 215 69 is_stmt 1 discriminator 2 view .LVU185
 995              		.loc 1 216 3 discriminator 2 view .LVU186
 996 004c 2046     		mov	r0, r4
 997 004e FFF7FEFF 		bl	chThdAddRef
 998              	.LVL63:
 999              		.loc 1 217 3 discriminator 2 view .LVU187
 1000 0052 94F82210 		ldrb	r1, [r4, #34]	@ zero_extendqisi2
 1001 0056 0220     		movs	r0, #2
 1002 0058 091A     		subs	r1, r1, r0
 1003 005a B1FA81F1 		clz	r1, r1
 1004 005e 4909     		lsrs	r1, r1, #5
 1005 0060 FFF7FEFF 		bl	_test_assert
 1006              	.LVL64:
 1007 0064 0028     		cmp	r0, #0
 1008 0066 E9D1     		bne	.L74
 1009              		.loc 1 217 65 discriminator 2 view .LVU188
 1010              		.loc 1 218 3 discriminator 2 view .LVU189
 1011 0068 2046     		mov	r0, r4
 1012 006a FFF7FEFF 		bl	chThdRelease
 1013              	.LVL65:
 1014              		.loc 1 219 3 discriminator 2 view .LVU190
 1015 006e 94F82210 		ldrb	r1, [r4, #34]	@ zero_extendqisi2
 1016 0072 A1F10101 		sub	r1, #1
 1017 0076 B1FA81F1 		clz	r1, r1
 1018 007a 0320     		movs	r0, #3
 1019 007c 4909     		lsrs	r1, r1, #5
 1020 007e FFF7FEFF 		bl	_test_assert
 1021              	.LVL66:
 1022 0082 0028     		cmp	r0, #0
 1023 0084 DAD1     		bne	.L74
 1024              		.loc 1 219 65 discriminator 2 view .LVU191
 1025              		.loc 1 222 3 discriminator 2 view .LVU192
ARM GAS  /tmp/ccM74hFp.s 			page 19


 1026 0086 2046     		mov	r0, r4
 1027 0088 FFF7FEFF 		bl	regfind
 1028              	.LVL67:
 1029 008c 0146     		mov	r1, r0
 1030 008e 0420     		movs	r0, #4
 1031 0090 FFF7FEFF 		bl	_test_assert
 1032              	.LVL68:
 1033 0094 0028     		cmp	r0, #0
 1034 0096 D1D1     		bne	.L74
 1035              		.loc 1 222 62 discriminator 2 view .LVU193
 1036              		.loc 1 223 3 discriminator 2 view .LVU194
 1037 0098 2046     		mov	r0, r4
 1038 009a FFF7FEFF 		bl	regfind
 1039              	.LVL69:
 1040 009e 0146     		mov	r1, r0
 1041 00a0 0520     		movs	r0, #5
 1042 00a2 FFF7FEFF 		bl	_test_assert
 1043              	.LVL70:
 1044 00a6 0028     		cmp	r0, #0
 1045 00a8 C8D1     		bne	.L74
 1046              		.loc 1 223 52 discriminator 2 view .LVU195
 1047              		.loc 1 226 3 discriminator 2 view .LVU196
 1048 00aa 2046     		mov	r0, r4
 1049 00ac FFF7FEFF 		bl	chThdRelease
 1050              	.LVL71:
 1051              		.loc 1 227 3 discriminator 2 view .LVU197
 1052 00b0 94F82210 		ldrb	r1, [r4, #34]	@ zero_extendqisi2
 1053 00b4 B1FA81F1 		clz	r1, r1
 1054 00b8 4909     		lsrs	r1, r1, #5
 1055 00ba 0620     		movs	r0, #6
 1056 00bc FFF7FEFF 		bl	_test_assert
 1057              	.LVL72:
 1058 00c0 0028     		cmp	r0, #0
 1059 00c2 BBD1     		bne	.L74
 1060              		.loc 1 227 52 discriminator 2 view .LVU198
 1061              		.loc 1 228 3 discriminator 2 view .LVU199
 1062 00c4 94F82010 		ldrb	r1, [r4, #32]	@ zero_extendqisi2
 1063 00c8 B1FA81F1 		clz	r1, r1
 1064 00cc 4909     		lsrs	r1, r1, #5
 1065 00ce 0720     		movs	r0, #7
 1066 00d0 FFF7FEFF 		bl	_test_assert
 1067              	.LVL73:
 1068 00d4 0028     		cmp	r0, #0
 1069 00d6 B1D1     		bne	.L74
 1070              		.loc 1 228 65 discriminator 2 view .LVU200
 1071              		.loc 1 229 3 discriminator 2 view .LVU201
 1072 00d8 2046     		mov	r0, r4
 1073 00da FFF7FEFF 		bl	regfind
 1074              	.LVL74:
 1075 00de 0146     		mov	r1, r0
 1076 00e0 0820     		movs	r0, #8
 1077 00e2 FFF7FEFF 		bl	_test_assert
 1078              	.LVL75:
 1079 00e6 0028     		cmp	r0, #0
 1080 00e8 A8D1     		bne	.L74
 1081              		.loc 1 229 52 discriminator 2 view .LVU202
 1082              		.loc 1 230 3 discriminator 2 view .LVU203
ARM GAS  /tmp/ccM74hFp.s 			page 20


 1083 00ea 2046     		mov	r0, r4
 1084 00ec FFF7FEFF 		bl	regfind
 1085              	.LVL76:
 1086 00f0 0146     		mov	r1, r0
 1087 00f2 0920     		movs	r0, #9
 1088 00f4 FFF7FEFF 		bl	_test_assert
 1089              	.LVL77:
 1090 00f8 0028     		cmp	r0, #0
 1091 00fa 9FD1     		bne	.L74
 1092              		.loc 1 230 52 discriminator 2 view .LVU204
 1093              		.loc 1 231 3 discriminator 2 view .LVU205
 1094 00fc 3220     		movs	r0, #50
 1095 00fe FFF7FEFF 		bl	chThdSleep
 1096              	.LVL78:
 1097              		.loc 1 232 3 discriminator 2 view .LVU206
 1098 0102 94F82010 		ldrb	r1, [r4, #32]	@ zero_extendqisi2
 1099 0106 A1F10F01 		sub	r1, #15
 1100 010a B1FA81F1 		clz	r1, r1
 1101 010e 0A20     		movs	r0, #10
 1102 0110 4909     		lsrs	r1, r1, #5
 1103 0112 FFF7FEFF 		bl	_test_assert
 1104              	.LVL79:
 1105 0116 0028     		cmp	r0, #0
 1106 0118 90D1     		bne	.L74
 1107              		.loc 1 232 66 discriminator 2 view .LVU207
 1108              		.loc 1 235 3 discriminator 2 view .LVU208
 1109 011a 2046     		mov	r0, r4
 1110 011c FFF7FEFF 		bl	regfind
 1111              	.LVL80:
 1112 0120 0146     		mov	r1, r0
 1113 0122 0B20     		movs	r0, #11
 1114 0124 FFF7FEFF 		bl	_test_assert
 1115              	.LVL81:
 1116 0128 0028     		cmp	r0, #0
 1117 012a 87D1     		bne	.L74
 1118              		.loc 1 235 53 discriminator 2 view .LVU209
 1119              		.loc 1 236 3 discriminator 2 view .LVU210
 1120 012c 2046     		mov	r0, r4
 1121 012e FFF7FEFF 		bl	regfind
 1122              	.LVL82:
 1123 0132 0A4B     		ldr	r3, .L83+8
 1124 0134 1A68     		ldr	r2, [r3]
 1125 0136 039B     		ldr	r3, [sp, #12]
 1126 0138 5A40     		eors	r2, r3, r2
 1127 013a 08D1     		bne	.L81
 1128 013c 80F00101 		eor	r1, r0, #1
 1129 0140 C9B2     		uxtb	r1, r1
 1130 0142 0C20     		movs	r0, #12
 1131              		.loc 1 237 1 is_stmt 0 discriminator 2 view .LVU211
 1132 0144 04B0     		add	sp, sp, #16
 1133              		.cfi_remember_state
 1134              		.cfi_def_cfa_offset 8
 1135              		@ sp needed
 1136 0146 BDE81040 		pop	{r4, lr}
 1137              		.cfi_restore 14
 1138              		.cfi_restore 4
 1139              		.cfi_def_cfa_offset 0
ARM GAS  /tmp/ccM74hFp.s 			page 21


 1140              	.LVL83:
 1141              		.loc 1 236 3 discriminator 2 view .LVU212
 1142 014a FFF7FEBF 		b	_test_assert
 1143              	.LVL84:
 1144              	.L81:
 1145              		.cfi_restore_state
 1146              		.loc 1 237 1 view .LVU213
 1147 014e FFF7FEFF 		bl	__stack_chk_fail
 1148              	.LVL85:
 1149              	.L84:
 1150 0152 00BF     		.align	2
 1151              	.L83:
 1152 0154 00000000 		.word	ch
 1153 0158 00000000 		.word	.LC0
 1154 015c 00000000 		.word	.LC14
 1155 0160 00000000 		.word	thread
 1156 0164 00000000 		.word	.LANCHOR0
 1157              		.cfi_endproc
 1158              	.LFE226:
 1159              		.size	dyn3_execute, .-dyn3_execute
 1160              		.global	patterndyn
 1161              		.global	testdyn3
 1162              		.section	.rodata.str1.4,"aMS",%progbits,1
 1163              		.align	2
 1164              	.LC15:
 1165 0000 44796E61 		.ascii	"Dynamic APIs, registry and references\000"
 1165      6D696320 
 1165      41504973 
 1165      2C207265 
 1165      67697374 
 1166              		.global	testdyn2
 1167 0026 0000     		.align	2
 1168              	.LC16:
 1169 0028 44796E61 		.ascii	"Dynamic APIs, threads creation from memory pool\000"
 1169      6D696320 
 1169      41504973 
 1169      2C207468 
 1169      72656164 
 1170              		.global	testdyn1
 1171              		.align	2
 1172              	.LC17:
 1173 0058 44796E61 		.ascii	"Dynamic APIs, threads creation from heap\000"
 1173      6D696320 
 1173      41504973 
 1173      2C207468 
 1173      72656164 
 1174              		.section	.bss.heap1,"aw",%nobits
 1175              		.align	3
 1176              		.set	.LANCHOR0,. + 0
 1177              		.type	heap1, %object
 1178              		.size	heap1, 40
 1179              	heap1:
 1180 0000 00000000 		.space	40
 1180      00000000 
 1180      00000000 
 1180      00000000 
 1180      00000000 
ARM GAS  /tmp/ccM74hFp.s 			page 22


 1181              		.section	.bss.mp1,"aw",%nobits
 1182              		.align	2
 1183              		.set	.LANCHOR1,. + 0
 1184              		.type	mp1, %object
 1185              		.size	mp1, 12
 1186              	mp1:
 1187 0000 00000000 		.space	12
 1187      00000000 
 1187      00000000 
 1188              		.section	.rodata.patterndyn,"a"
 1189              		.align	2
 1190              		.type	patterndyn, %object
 1191              		.size	patterndyn, 16
 1192              	patterndyn:
 1193 0000 00000000 		.word	testdyn1
 1194 0004 00000000 		.word	testdyn2
 1195 0008 00000000 		.word	testdyn3
 1196 000c 00000000 		.word	0
 1197              		.section	.rodata.testdyn1,"a"
 1198              		.align	2
 1199              		.type	testdyn1, %object
 1200              		.size	testdyn1, 16
 1201              	testdyn1:
 1202 0000 58000000 		.word	.LC17
 1203 0004 00000000 		.word	dyn1_setup
 1204 0008 00000000 		.word	0
 1205 000c 00000000 		.word	dyn1_execute
 1206              		.section	.rodata.testdyn2,"a"
 1207              		.align	2
 1208              		.type	testdyn2, %object
 1209              		.size	testdyn2, 16
 1210              	testdyn2:
 1211 0000 28000000 		.word	.LC16
 1212 0004 00000000 		.word	dyn2_setup
 1213 0008 00000000 		.word	0
 1214 000c 00000000 		.word	dyn2_execute
 1215              		.section	.rodata.testdyn3,"a"
 1216              		.align	2
 1217              		.type	testdyn3, %object
 1218              		.size	testdyn3, 16
 1219              	testdyn3:
 1220 0000 00000000 		.word	.LC15
 1221 0004 00000000 		.word	dyn3_setup
 1222 0008 00000000 		.word	0
 1223 000c 00000000 		.word	dyn3_execute
 1224              		.text
 1225              	.Letext0:
 1226              		.file 3 "/usr/lib/gcc/arm-none-eabi/9.2.1/include/stddef.h"
 1227              		.file 4 "/usr/lib/gcc/arm-none-eabi/9.2.1/include/stdint.h"
 1228              		.file 5 ".//ChibiOS//os/rt/ports/ARMCMx/compilers/GCC/chtypes.h"
 1229              		.file 6 ".//ChibiOS//os/rt/include/chsystypes.h"
 1230              		.file 7 ".//ChibiOS//os/rt/include/chschd.h"
 1231              		.file 8 ".//ChibiOS//os/ext/CMSIS/include/core_cm4.h"
 1232              		.file 9 ".//ChibiOS//os/ext/CMSIS/ST/system_stm32f4xx.h"
 1233              		.file 10 ".//ChibiOS//os/rt/ports/ARMCMx/chcore.h"
 1234              		.file 11 ".//ChibiOS//os/rt/ports/ARMCMx/chcore_v7m.h"
 1235              		.file 12 ".//ChibiOS//os/rt/include/chdebug.h"
ARM GAS  /tmp/ccM74hFp.s 			page 23


 1236              		.file 13 ".//ChibiOS//os/rt/include/chtm.h"
 1237              		.file 14 ".//ChibiOS//os/rt/include/chstats.h"
 1238              		.file 15 ".//ChibiOS//os/rt/include/chsem.h"
 1239              		.file 16 ".//ChibiOS//os/rt/include/chmtx.h"
 1240              		.file 17 ".//ChibiOS//os/rt/include/chregistry.h"
 1241              		.file 18 ".//ChibiOS//os/rt/include/chmemcore.h"
 1242              		.file 19 ".//ChibiOS//os/rt/include/chheap.h"
 1243              		.file 20 ".//ChibiOS//os/rt/include/chmempools.h"
 1244              		.file 21 ".//ChibiOS//test/rt/test.h"
 1245              		.file 22 ".//ChibiOS//os/rt/include/chdynamic.h"