ARM GAS  /tmp/cc2QHUcT.s 			page 1


   1              		.cpu cortex-m4
   2              		.eabi_attribute 27, 1
   3              		.eabi_attribute 28, 1
   4              		.eabi_attribute 20, 1
   5              		.eabi_attribute 21, 1
   6              		.eabi_attribute 23, 3
   7              		.eabi_attribute 24, 1
   8              		.eabi_attribute 25, 1
   9              		.eabi_attribute 26, 1
  10              		.eabi_attribute 30, 2
  11              		.eabi_attribute 34, 1
  12              		.eabi_attribute 18, 4
  13              		.file	"testmsg.c"
  14              		.text
  15              	.Ltext0:
  16              		.cfi_sections	.debug_frame
  17              		.section	.rodata.msg1_execute.str1.4,"aMS",%progbits,1
  18              		.align	2
  19              	.LC0:
  20 0000 41424300 		.ascii	"ABC\000"
  21              		.section	.rodata.msg1_execute.cst4,"aM",%progbits,4
  22              		.align	2
  23              	.LC1:
  24 0000 00000000 		.word	__stack_chk_guard
  25              		.section	.text.msg1_execute,"ax",%progbits
  26              		.align	1
  27              		.p2align 4,,15
  28              		.arch armv7e-m
  29              		.syntax unified
  30              		.thumb
  31              		.thumb_func
  32              		.fpu fpv4-sp-d16
  33              		.type	msg1_execute, %function
  34              	msg1_execute:
  35              	.LFB220:
  36              		.file 1 ".//ChibiOS//test/rt/testmsg.c"
  37              		.loc 1 66 32 view -0
  38              		.cfi_startproc
  39              		@ args = 0, pretend = 0, frame = 8
  40              		@ frame_needed = 0, uses_anonymous_args = 0
  41 0000 10B5     		push	{r4, lr}
  42              		.cfi_def_cfa_offset 8
  43              		.cfi_offset 4, -8
  44              		.cfi_offset 14, -4
  45              	.LBB16:
  46              	.LBB17:
  47              	.LBB18:
  48              	.LBB19:
  49              		.file 2 ".//ChibiOS//os/rt/include/chthreads.h"
  50              		.loc 2 176 18 is_stmt 0 view .LVU1
  51 0002 1E4A     		ldr	r2, .L7
  52              	.LBE19:
  53              	.LBE18:
  54              	.LBE17:
  55              	.LBE16:
  56              		.loc 1 73 16 view .LVU2
  57 0004 1E4B     		ldr	r3, .L7+4
ARM GAS  /tmp/cc2QHUcT.s 			page 2


  58              	.LBB26:
  59              	.LBB24:
  60              	.LBB22:
  61              	.LBB20:
  62              		.loc 2 176 18 view .LVU3
  63 0006 9169     		ldr	r1, [r2, #24]
  64              	.LBE20:
  65              	.LBE22:
  66              	.LBE24:
  67              	.LBE26:
  68              		.loc 1 66 32 view .LVU4
  69 0008 1E4C     		ldr	r4, .L7+8
  70              		.loc 1 73 16 view .LVU5
  71 000a 8A68     		ldr	r2, [r1, #8]
  72 000c 1868     		ldr	r0, [r3]
  73 000e 1E4B     		ldr	r3, .L7+12
  74              		.loc 1 66 32 view .LVU6
  75 0010 84B0     		sub	sp, sp, #16
  76              		.cfi_def_cfa_offset 24
  77              		.loc 1 73 16 view .LVU7
  78 0012 0132     		adds	r2, r2, #1
  79 0014 0091     		str	r1, [sp]
  80 0016 4FF4FC71 		mov	r1, #504
  81              		.loc 1 66 32 view .LVU8
  82 001a 2468     		ldr	r4, [r4]
  83 001c 0394     		str	r4, [sp, #12]
  84 001e 4FF00004 		mov	r4,#0
  85              		.loc 1 67 3 is_stmt 1 view .LVU9
  86              		.loc 1 68 3 view .LVU10
  87              		.loc 1 73 3 view .LVU11
  88              	.LBB27:
  89              	.LBI16:
  90              		.loc 2 187 23 view .LVU12
  91              	.LBB25:
  92              		.loc 2 189 3 view .LVU13
  93              	.LBB23:
  94              	.LBI18:
  95              		.loc 2 174 25 view .LVU14
  96              	.LBB21:
  97              		.loc 2 176 3 view .LVU15
  98              	.LBE21:
  99              	.LBE23:
 100              	.LBE25:
 101              	.LBE27:
 102              		.loc 2 176 3 view .LVU16
 103              		.loc 1 73 16 is_stmt 0 view .LVU17
 104 0022 FFF7FEFF 		bl	chThdCreateStatic
 105              	.LVL0:
 106              		.loc 1 73 14 view .LVU18
 107 0026 194B     		ldr	r3, .L7+16
 108 0028 1860     		str	r0, [r3]
 109              		.loc 1 75 3 is_stmt 1 view .LVU19
 110              		.loc 1 75 8 is_stmt 0 view .LVU20
 111 002a FFF7FEFF 		bl	chMsgWait
 112              	.LVL1:
 113              		.loc 1 76 3 is_stmt 1 view .LVU21
 114              	.LBB28:
ARM GAS  /tmp/cc2QHUcT.s 			page 3


 115              	.LBI28:
 116              		.file 3 ".//ChibiOS//os/rt/include/chmsg.h"
 117              		.loc 3 96 21 view .LVU22
 118              	.LBB29:
 119              		.loc 3 98 3 view .LVU23
 120              		.loc 3 98 12 is_stmt 0 view .LVU24
 121 002e 846B     		ldr	r4, [r0, #56]
 122              	.LVL2:
 123              		.loc 3 98 12 view .LVU25
 124              	.LBE29:
 125              	.LBE28:
 126              		.loc 1 77 3 is_stmt 1 view .LVU26
 127 0030 2146     		mov	r1, r4
 128 0032 FFF7FEFF 		bl	chMsgRelease
 129              	.LVL3:
 130              		.loc 1 78 3 view .LVU27
 131 0036 E0B2     		uxtb	r0, r4
 132 0038 FFF7FEFF 		bl	test_emit_token
 133              	.LVL4:
 134              		.loc 1 79 3 view .LVU28
 135              		.loc 1 79 8 is_stmt 0 view .LVU29
 136 003c FFF7FEFF 		bl	chMsgWait
 137              	.LVL5:
 138              		.loc 1 80 3 is_stmt 1 view .LVU30
 139              	.LBB30:
 140              	.LBI30:
 141              		.loc 3 96 21 view .LVU31
 142              	.LBB31:
 143              		.loc 3 98 3 view .LVU32
 144              		.loc 3 98 12 is_stmt 0 view .LVU33
 145 0040 846B     		ldr	r4, [r0, #56]
 146              	.LVL6:
 147              		.loc 3 98 12 view .LVU34
 148              	.LBE31:
 149              	.LBE30:
 150              		.loc 1 81 3 is_stmt 1 view .LVU35
 151 0042 2146     		mov	r1, r4
 152 0044 FFF7FEFF 		bl	chMsgRelease
 153              	.LVL7:
 154              		.loc 1 82 3 view .LVU36
 155 0048 E0B2     		uxtb	r0, r4
 156 004a FFF7FEFF 		bl	test_emit_token
 157              	.LVL8:
 158              		.loc 1 83 3 view .LVU37
 159              		.loc 1 83 8 is_stmt 0 view .LVU38
 160 004e FFF7FEFF 		bl	chMsgWait
 161              	.LVL9:
 162              		.loc 1 84 3 is_stmt 1 view .LVU39
 163              	.LBB32:
 164              	.LBI32:
 165              		.loc 3 96 21 view .LVU40
 166              	.LBB33:
 167              		.loc 3 98 3 view .LVU41
 168              		.loc 3 98 12 is_stmt 0 view .LVU42
 169 0052 846B     		ldr	r4, [r0, #56]
 170              	.LVL10:
 171              		.loc 3 98 12 view .LVU43
ARM GAS  /tmp/cc2QHUcT.s 			page 4


 172              	.LBE33:
 173              	.LBE32:
 174              		.loc 1 85 3 is_stmt 1 view .LVU44
 175 0054 2146     		mov	r1, r4
 176 0056 FFF7FEFF 		bl	chMsgRelease
 177              	.LVL11:
 178              		.loc 1 86 3 view .LVU45
 179 005a E0B2     		uxtb	r0, r4
 180 005c FFF7FEFF 		bl	test_emit_token
 181              	.LVL12:
 182              		.loc 1 87 3 view .LVU46
 183 0060 084B     		ldr	r3, .L7+8
 184 0062 1A68     		ldr	r2, [r3]
 185 0064 039B     		ldr	r3, [sp, #12]
 186 0066 5A40     		eors	r2, r3, r2
 187 0068 06D1     		bne	.L6
 188 006a 0949     		ldr	r1, .L7+20
 189 006c 0120     		movs	r0, #1
 190              		.loc 1 88 1 is_stmt 0 view .LVU47
 191 006e 04B0     		add	sp, sp, #16
 192              		.cfi_remember_state
 193              		.cfi_def_cfa_offset 8
 194              		@ sp needed
 195 0070 BDE81040 		pop	{r4, lr}
 196              		.cfi_restore 14
 197              		.cfi_restore 4
 198              		.cfi_def_cfa_offset 0
 199              	.LVL13:
 200              		.loc 1 87 3 view .LVU48
 201 0074 FFF7FEBF 		b	_test_assert_sequence
 202              	.LVL14:
 203              	.L6:
 204              		.cfi_restore_state
 205              		.loc 1 87 3 view .LVU49
 206 0078 FFF7FEFF 		bl	__stack_chk_fail
 207              	.LVL15:
 208              	.L8:
 209              		.align	2
 210              	.L7:
 211 007c 00000000 		.word	ch
 212 0080 00000000 		.word	wa
 213 0084 00000000 		.word	.LC1
 214 0088 00000000 		.word	thread
 215 008c 00000000 		.word	threads
 216 0090 00000000 		.word	.LC0
 217              		.cfi_endproc
 218              	.LFE220:
 219              		.size	msg1_execute, .-msg1_execute
 220              		.section	.rodata.thread.cst4,"aM",%progbits,4
 221              		.align	2
 222              	.LC2:
 223 0000 00000000 		.word	__stack_chk_guard
 224              		.section	.text.thread,"ax",%progbits
 225              		.align	1
 226              		.p2align 4,,15
 227              		.syntax unified
 228              		.thumb
ARM GAS  /tmp/cc2QHUcT.s 			page 5


 229              		.thumb_func
 230              		.fpu fpv4-sp-d16
 231              		.type	thread, %function
 232              	thread:
 233              	.LVL16:
 234              	.LFB219:
 235              		.loc 1 59 32 is_stmt 1 view -0
 236              		.cfi_startproc
 237              		@ args = 0, pretend = 0, frame = 8
 238              		@ frame_needed = 0, uses_anonymous_args = 0
 239              		.loc 1 59 32 is_stmt 0 view .LVU51
 240 0000 10B5     		push	{r4, lr}
 241              		.cfi_def_cfa_offset 8
 242              		.cfi_offset 4, -8
 243              		.cfi_offset 14, -4
 244 0002 0E4B     		ldr	r3, .L14
 245 0004 82B0     		sub	sp, sp, #8
 246              		.cfi_def_cfa_offset 16
 247              		.loc 1 59 32 view .LVU52
 248 0006 0446     		mov	r4, r0
 249              		.loc 1 61 3 view .LVU53
 250 0008 4121     		movs	r1, #65
 251              		.loc 1 59 32 view .LVU54
 252 000a 1B68     		ldr	r3, [r3]
 253 000c 0193     		str	r3, [sp, #4]
 254 000e 4FF00003 		mov	r3,#0
 255              		.loc 1 61 3 is_stmt 1 view .LVU55
 256 0012 FFF7FEFF 		bl	chMsgSend
 257              	.LVL17:
 258              		.loc 1 62 3 view .LVU56
 259 0016 2046     		mov	r0, r4
 260 0018 4221     		movs	r1, #66
 261 001a FFF7FEFF 		bl	chMsgSend
 262              	.LVL18:
 263              		.loc 1 63 3 view .LVU57
 264 001e 074B     		ldr	r3, .L14
 265 0020 1A68     		ldr	r2, [r3]
 266 0022 019B     		ldr	r3, [sp, #4]
 267 0024 5A40     		eors	r2, r3, r2
 268 0026 06D1     		bne	.L13
 269 0028 2046     		mov	r0, r4
 270 002a 4321     		movs	r1, #67
 271              		.loc 1 64 1 is_stmt 0 view .LVU58
 272 002c 02B0     		add	sp, sp, #8
 273              		.cfi_remember_state
 274              		.cfi_def_cfa_offset 8
 275              		@ sp needed
 276 002e BDE81040 		pop	{r4, lr}
 277              		.cfi_restore 14
 278              		.cfi_restore 4
 279              		.cfi_def_cfa_offset 0
 280              	.LVL19:
 281              		.loc 1 63 3 view .LVU59
 282 0032 FFF7FEBF 		b	chMsgSend
 283              	.LVL20:
 284              	.L13:
 285              		.cfi_restore_state
ARM GAS  /tmp/cc2QHUcT.s 			page 6


 286              		.loc 1 63 3 view .LVU60
 287 0036 FFF7FEFF 		bl	__stack_chk_fail
 288              	.LVL21:
 289              	.L15:
 290 003a 00BF     		.align	2
 291              	.L14:
 292 003c 00000000 		.word	.LC2
 293              		.cfi_endproc
 294              	.LFE219:
 295              		.size	thread, .-thread
 296              		.global	patternmsg
 297              		.global	testmsg1
 298              		.section	.rodata.str1.4,"aMS",%progbits,1
 299              		.align	2
 300              	.LC3:
 301 0000 4D657373 		.ascii	"Messages, loop\000"
 301      61676573 
 301      2C206C6F 
 301      6F7000
 302              		.section	.rodata.patternmsg,"a"
 303              		.align	2
 304              		.type	patternmsg, %object
 305              		.size	patternmsg, 8
 306              	patternmsg:
 307 0000 00000000 		.word	testmsg1
 308 0004 00000000 		.word	0
 309              		.section	.rodata.testmsg1,"a"
 310              		.align	2
 311              		.type	testmsg1, %object
 312              		.size	testmsg1, 16
 313              	testmsg1:
 314 0000 00000000 		.word	.LC3
 315 0004 00000000 		.word	0
 316 0008 00000000 		.word	0
 317 000c 00000000 		.word	msg1_execute
 318              		.text
 319              	.Letext0:
 320              		.file 4 "/usr/lib/gcc/arm-none-eabi/9.2.1/include/stddef.h"
 321              		.file 5 "/usr/lib/gcc/arm-none-eabi/9.2.1/include/stdint.h"
 322              		.file 6 ".//ChibiOS//os/rt/ports/ARMCMx/compilers/GCC/chtypes.h"
 323              		.file 7 ".//ChibiOS//os/rt/include/chsystypes.h"
 324              		.file 8 ".//ChibiOS//os/rt/include/chschd.h"
 325              		.file 9 ".//ChibiOS//os/ext/CMSIS/include/core_cm4.h"
 326              		.file 10 ".//ChibiOS//os/ext/CMSIS/ST/system_stm32f4xx.h"
 327              		.file 11 ".//ChibiOS//os/rt/ports/ARMCMx/chcore.h"
 328              		.file 12 ".//ChibiOS//os/rt/ports/ARMCMx/chcore_v7m.h"
 329              		.file 13 ".//ChibiOS//os/rt/include/chdebug.h"
 330              		.file 14 ".//ChibiOS//os/rt/include/chtm.h"
 331              		.file 15 ".//ChibiOS//os/rt/include/chstats.h"
 332              		.file 16 ".//ChibiOS//os/rt/include/chsem.h"
 333              		.file 17 ".//ChibiOS//os/rt/include/chmtx.h"
 334              		.file 18 ".//ChibiOS//os/rt/include/chregistry.h"
 335              		.file 19 ".//ChibiOS//test/rt/test.h"
 336              		.section	.debug_info,"",%progbits
 337              	.Ldebug_info0:
 338 0000 BA0E0000 		.4byte	0xeba
 339 0004 0400     		.2byte	0x4
ARM GAS  /tmp/cc2QHUcT.s 			page 7


 340 0006 00000000 		.4byte	.Ldebug_abbrev0
 341 000a 04       		.byte	0x4
 342 000b 01       		.uleb128 0x1
 343 000c 90040000 		.4byte	.LASF175
 344 0010 0C       		.byte	0xc
 345 0011 C5080000 		.4byte	.LASF176
 346 0015 AF020000 		.4byte	.LASF177
 347 0019 40000000 		.4byte	.Ldebug_ranges0+0x40
 348 001d 00000000 		.4byte	0
 349 0021 00000000 		.4byte	.Ldebug_line0
 350 0025 02       		.uleb128 0x2
 351 0026 04       		.byte	0x4
 352 0027 05       		.byte	0x5
 353 0028 696E7400 		.ascii	"int\000"
 354 002c 03       		.uleb128 0x3
 355 002d 22000000 		.4byte	.LASF5
 356 0031 04       		.byte	0x4
 357 0032 D1       		.byte	0xd1
 358 0033 17       		.byte	0x17
 359 0034 38000000 		.4byte	0x38
 360 0038 04       		.uleb128 0x4
 361 0039 04       		.byte	0x4
 362 003a 07       		.byte	0x7
 363 003b 47020000 		.4byte	.LASF0
 364 003f 04       		.uleb128 0x4
 365 0040 08       		.byte	0x8
 366 0041 05       		.byte	0x5
 367 0042 24010000 		.4byte	.LASF1
 368 0046 04       		.uleb128 0x4
 369 0047 08       		.byte	0x8
 370 0048 04       		.byte	0x4
 371 0049 14040000 		.4byte	.LASF2
 372 004d 04       		.uleb128 0x4
 373 004e 01       		.byte	0x1
 374 004f 06       		.byte	0x6
 375 0050 32010000 		.4byte	.LASF3
 376 0054 04       		.uleb128 0x4
 377 0055 02       		.byte	0x2
 378 0056 05       		.byte	0x5
 379 0057 79060000 		.4byte	.LASF4
 380 005b 03       		.uleb128 0x3
 381 005c 59060000 		.4byte	.LASF6
 382 0060 05       		.byte	0x5
 383 0061 28       		.byte	0x28
 384 0062 18       		.byte	0x18
 385 0063 6C000000 		.4byte	0x6c
 386 0067 05       		.uleb128 0x5
 387 0068 5B000000 		.4byte	0x5b
 388 006c 04       		.uleb128 0x4
 389 006d 04       		.byte	0x4
 390 006e 05       		.byte	0x5
 391 006f 9C010000 		.4byte	.LASF7
 392 0073 03       		.uleb128 0x3
 393 0074 54080000 		.4byte	.LASF8
 394 0078 05       		.byte	0x5
 395 0079 2E       		.byte	0x2e
 396 007a 18       		.byte	0x18
ARM GAS  /tmp/cc2QHUcT.s 			page 8


 397 007b 7F000000 		.4byte	0x7f
 398 007f 04       		.uleb128 0x4
 399 0080 01       		.byte	0x1
 400 0081 08       		.byte	0x8
 401 0082 61060000 		.4byte	.LASF9
 402 0086 03       		.uleb128 0x3
 403 0087 5C020000 		.4byte	.LASF10
 404 008b 05       		.byte	0x5
 405 008c 31       		.byte	0x31
 406 008d 19       		.byte	0x19
 407 008e 92000000 		.4byte	0x92
 408 0092 04       		.uleb128 0x4
 409 0093 02       		.byte	0x2
 410 0094 07       		.byte	0x7
 411 0095 02030000 		.4byte	.LASF11
 412 0099 03       		.uleb128 0x3
 413 009a 42070000 		.4byte	.LASF12
 414 009e 05       		.byte	0x5
 415 009f 34       		.byte	0x34
 416 00a0 19       		.byte	0x19
 417 00a1 A5000000 		.4byte	0xa5
 418 00a5 04       		.uleb128 0x4
 419 00a6 04       		.byte	0x4
 420 00a7 07       		.byte	0x7
 421 00a8 77070000 		.4byte	.LASF13
 422 00ac 03       		.uleb128 0x3
 423 00ad 30000000 		.4byte	.LASF14
 424 00b1 05       		.byte	0x5
 425 00b2 37       		.byte	0x37
 426 00b3 19       		.byte	0x19
 427 00b4 B8000000 		.4byte	0xb8
 428 00b8 04       		.uleb128 0x4
 429 00b9 08       		.byte	0x8
 430 00ba 07       		.byte	0x7
 431 00bb 8B000000 		.4byte	.LASF15
 432 00bf 03       		.uleb128 0x3
 433 00c0 E4030000 		.4byte	.LASF16
 434 00c4 06       		.byte	0x6
 435 00c5 45       		.byte	0x45
 436 00c6 1D       		.byte	0x1d
 437 00c7 99000000 		.4byte	0x99
 438 00cb 03       		.uleb128 0x3
 439 00cc FE000000 		.4byte	.LASF17
 440 00d0 06       		.byte	0x6
 441 00d1 46       		.byte	0x46
 442 00d2 1D       		.byte	0x1d
 443 00d3 AC000000 		.4byte	0xac
 444 00d7 03       		.uleb128 0x3
 445 00d8 C4060000 		.4byte	.LASF18
 446 00dc 06       		.byte	0x6
 447 00dd 48       		.byte	0x48
 448 00de 1D       		.byte	0x1d
 449 00df 73000000 		.4byte	0x73
 450 00e3 03       		.uleb128 0x3
 451 00e4 AF010000 		.4byte	.LASF19
 452 00e8 06       		.byte	0x6
 453 00e9 49       		.byte	0x49
ARM GAS  /tmp/cc2QHUcT.s 			page 9


 454 00ea 1D       		.byte	0x1d
 455 00eb 73000000 		.4byte	0x73
 456 00ef 03       		.uleb128 0x3
 457 00f0 FF050000 		.4byte	.LASF20
 458 00f4 06       		.byte	0x6
 459 00f5 4A       		.byte	0x4a
 460 00f6 1D       		.byte	0x1d
 461 00f7 73000000 		.4byte	0x73
 462 00fb 03       		.uleb128 0x3
 463 00fc 82010000 		.4byte	.LASF21
 464 0100 06       		.byte	0x6
 465 0101 4B       		.byte	0x4b
 466 0102 1D       		.byte	0x1d
 467 0103 73000000 		.4byte	0x73
 468 0107 03       		.uleb128 0x3
 469 0108 3B060000 		.4byte	.LASF22
 470 010c 06       		.byte	0x6
 471 010d 4C       		.byte	0x4c
 472 010e 1D       		.byte	0x1d
 473 010f 99000000 		.4byte	0x99
 474 0113 03       		.uleb128 0x3
 475 0114 2E030000 		.4byte	.LASF23
 476 0118 06       		.byte	0x6
 477 0119 4D       		.byte	0x4d
 478 011a 1D       		.byte	0x1d
 479 011b 5B000000 		.4byte	0x5b
 480 011f 03       		.uleb128 0x3
 481 0120 7C030000 		.4byte	.LASF24
 482 0124 06       		.byte	0x6
 483 0125 4F       		.byte	0x4f
 484 0126 1D       		.byte	0x1d
 485 0127 99000000 		.4byte	0x99
 486 012b 03       		.uleb128 0x3
 487 012c 36020000 		.4byte	.LASF25
 488 0130 06       		.byte	0x6
 489 0131 51       		.byte	0x51
 490 0132 1D       		.byte	0x1d
 491 0133 5B000000 		.4byte	0x5b
 492 0137 03       		.uleb128 0x3
 493 0138 39030000 		.4byte	.LASF26
 494 013c 06       		.byte	0x6
 495 013d 52       		.byte	0x52
 496 013e 1D       		.byte	0x1d
 497 013f 99000000 		.4byte	0x99
 498 0143 03       		.uleb128 0x3
 499 0144 AA070000 		.4byte	.LASF27
 500 0148 07       		.byte	0x7
 501 0149 33       		.byte	0x33
 502 014a 12       		.byte	0x12
 503 014b 99000000 		.4byte	0x99
 504 014f 05       		.uleb128 0x5
 505 0150 43010000 		.4byte	0x143
 506 0154 03       		.uleb128 0x3
 507 0155 95070000 		.4byte	.LASF28
 508 0159 07       		.byte	0x7
 509 015a 3F       		.byte	0x3f
 510 015b 1A       		.byte	0x1a
ARM GAS  /tmp/cc2QHUcT.s 			page 10


 511 015c 60010000 		.4byte	0x160
 512 0160 06       		.uleb128 0x6
 513 0161 24030000 		.4byte	.LASF52
 514 0165 68       		.byte	0x68
 515 0166 08       		.byte	0x8
 516 0167 C2       		.byte	0xc2
 517 0168 08       		.byte	0x8
 518 0169 95020000 		.4byte	0x295
 519 016d 07       		.uleb128 0x7
 520 016e BD060000 		.4byte	.LASF29
 521 0172 08       		.byte	0x8
 522 0173 C3       		.byte	0xc3
 523 0174 1A       		.byte	0x1a
 524 0175 A1020000 		.4byte	0x2a1
 525 0179 00       		.byte	0
 526 017a 07       		.uleb128 0x7
 527 017b 2C060000 		.4byte	.LASF30
 528 017f 08       		.byte	0x8
 529 0180 C5       		.byte	0xc5
 530 0181 1A       		.byte	0x1a
 531 0182 A1020000 		.4byte	0x2a1
 532 0186 04       		.byte	0x4
 533 0187 07       		.uleb128 0x7
 534 0188 07010000 		.4byte	.LASF31
 535 018c 08       		.byte	0x8
 536 018d C7       		.byte	0xc7
 537 018e 19       		.byte	0x19
 538 018f 07010000 		.4byte	0x107
 539 0193 08       		.byte	0x8
 540 0194 07       		.uleb128 0x7
 541 0195 5C040000 		.4byte	.LASF32
 542 0199 08       		.byte	0x8
 543 019a C8       		.byte	0xc8
 544 019b 19       		.byte	0x19
 545 019c 4F050000 		.4byte	0x54f
 546 01a0 0C       		.byte	0xc
 547 01a1 07       		.uleb128 0x7
 548 01a2 CF010000 		.4byte	.LASF33
 549 01a6 08       		.byte	0x8
 550 01a7 CA       		.byte	0xca
 551 01a8 1A       		.byte	0x1a
 552 01a9 A1020000 		.4byte	0x2a1
 553 01ad 10       		.byte	0x10
 554 01ae 07       		.uleb128 0x7
 555 01af 4E040000 		.4byte	.LASF34
 556 01b3 08       		.byte	0x8
 557 01b4 CB       		.byte	0xcb
 558 01b5 1A       		.byte	0x1a
 559 01b6 A1020000 		.4byte	0x2a1
 560 01ba 14       		.byte	0x14
 561 01bb 07       		.uleb128 0x7
 562 01bc 90080000 		.4byte	.LASF35
 563 01c0 08       		.byte	0x8
 564 01c1 D2       		.byte	0xd2
 565 01c2 1A       		.byte	0x1a
 566 01c3 0C090000 		.4byte	0x90c
 567 01c7 18       		.byte	0x18
ARM GAS  /tmp/cc2QHUcT.s 			page 11


 568 01c8 07       		.uleb128 0x7
 569 01c9 3C020000 		.4byte	.LASF36
 570 01cd 08       		.byte	0x8
 571 01ce D8       		.byte	0xd8
 572 01cf 1A       		.byte	0x1a
 573 01d0 23090000 		.4byte	0x923
 574 01d4 1C       		.byte	0x1c
 575 01d5 07       		.uleb128 0x7
 576 01d6 83060000 		.4byte	.LASF37
 577 01da 08       		.byte	0x8
 578 01db DD       		.byte	0xdd
 579 01dc 19       		.byte	0x19
 580 01dd E3000000 		.4byte	0xe3
 581 01e1 20       		.byte	0x20
 582 01e2 07       		.uleb128 0x7
 583 01e3 DB060000 		.4byte	.LASF38
 584 01e7 08       		.byte	0x8
 585 01e8 E1       		.byte	0xe1
 586 01e9 19       		.byte	0x19
 587 01ea D7000000 		.4byte	0xd7
 588 01ee 21       		.byte	0x21
 589 01ef 07       		.uleb128 0x7
 590 01f0 28080000 		.4byte	.LASF39
 591 01f4 08       		.byte	0x8
 592 01f5 E6       		.byte	0xe6
 593 01f6 19       		.byte	0x19
 594 01f7 EF000000 		.4byte	0xef
 595 01fb 22       		.byte	0x22
 596 01fc 07       		.uleb128 0x7
 597 01fd 8B060000 		.4byte	.LASF40
 598 0201 08       		.byte	0x8
 599 0202 EC       		.byte	0xec
 600 0203 19       		.byte	0x19
 601 0204 FB000000 		.4byte	0xfb
 602 0208 23       		.byte	0x23
 603 0209 07       		.uleb128 0x7
 604 020a 75020000 		.4byte	.LASF41
 605 020e 08       		.byte	0x8
 606 020f F3       		.byte	0xf3
 607 0210 19       		.byte	0x19
 608 0211 4F010000 		.4byte	0x14f
 609 0215 24       		.byte	0x24
 610 0216 08       		.uleb128 0x8
 611 0217 705F7500 		.ascii	"p_u\000"
 612 021b 08       		.byte	0x8
 613 021c 3101     		.2byte	0x131
 614 021e 19       		.byte	0x19
 615 021f 2B080000 		.4byte	0x82b
 616 0223 28       		.byte	0x28
 617 0224 09       		.uleb128 0x9
 618 0225 CF030000 		.4byte	.LASF42
 619 0229 08       		.byte	0x8
 620 022a 3601     		.2byte	0x136
 621 022c 19       		.byte	0x19
 622 022d A7020000 		.4byte	0x2a7
 623 0231 2C       		.byte	0x2c
 624 0232 09       		.uleb128 0x9
ARM GAS  /tmp/cc2QHUcT.s 			page 12


 625 0233 8C020000 		.4byte	.LASF43
 626 0237 08       		.byte	0x8
 627 0238 3C01     		.2byte	0x13c
 628 023a 19       		.byte	0x19
 629 023b CE020000 		.4byte	0x2ce
 630 023f 30       		.byte	0x30
 631 0240 09       		.uleb128 0x9
 632 0241 F2070000 		.4byte	.LASF44
 633 0245 08       		.byte	0x8
 634 0246 4001     		.2byte	0x140
 635 0248 19       		.byte	0x19
 636 0249 13010000 		.4byte	0x113
 637 024d 38       		.byte	0x38
 638 024e 09       		.uleb128 0x9
 639 024f 37070000 		.4byte	.LASF45
 640 0253 08       		.byte	0x8
 641 0254 4601     		.2byte	0x146
 642 0256 19       		.byte	0x19
 643 0257 1F010000 		.4byte	0x11f
 644 025b 3C       		.byte	0x3c
 645 025c 09       		.uleb128 0x9
 646 025d 6F060000 		.4byte	.LASF46
 647 0261 08       		.byte	0x8
 648 0262 4D01     		.2byte	0x14d
 649 0264 1A       		.byte	0x1a
 650 0265 06090000 		.4byte	0x906
 651 0269 40       		.byte	0x40
 652 026a 09       		.uleb128 0x9
 653 026b B4070000 		.4byte	.LASF47
 654 026f 08       		.byte	0x8
 655 0270 5101     		.2byte	0x151
 656 0272 19       		.byte	0x19
 657 0273 07010000 		.4byte	0x107
 658 0277 44       		.byte	0x44
 659 0278 09       		.uleb128 0x9
 660 0279 5B010000 		.4byte	.LASF48
 661 027d 08       		.byte	0x8
 662 027e 5801     		.2byte	0x158
 663 0280 1A       		.byte	0x1a
 664 0281 8E030000 		.4byte	0x38e
 665 0285 48       		.byte	0x48
 666 0286 09       		.uleb128 0x9
 667 0287 E3060000 		.4byte	.LASF49
 668 028b 08       		.byte	0x8
 669 028c 5E01     		.2byte	0x15e
 670 028e 19       		.byte	0x19
 671 028f D5070000 		.4byte	0x7d5
 672 0293 50       		.byte	0x50
 673 0294 00       		.byte	0
 674 0295 03       		.uleb128 0x3
 675 0296 69080000 		.4byte	.LASF50
 676 029a 07       		.byte	0x7
 677 029b 44       		.byte	0x44
 678 029c 14       		.byte	0x14
 679 029d A1020000 		.4byte	0x2a1
 680 02a1 0A       		.uleb128 0xa
 681 02a2 04       		.byte	0x4
ARM GAS  /tmp/cc2QHUcT.s 			page 13


 682 02a3 54010000 		.4byte	0x154
 683 02a7 03       		.uleb128 0x3
 684 02a8 A5030000 		.4byte	.LASF51
 685 02ac 07       		.byte	0x7
 686 02ad 49       		.byte	0x49
 687 02ae 20       		.byte	0x20
 688 02af B3020000 		.4byte	0x2b3
 689 02b3 06       		.uleb128 0x6
 690 02b4 5F070000 		.4byte	.LASF53
 691 02b8 04       		.byte	0x4
 692 02b9 08       		.byte	0x8
 693 02ba B0       		.byte	0xb0
 694 02bb 08       		.byte	0x8
 695 02bc CE020000 		.4byte	0x2ce
 696 02c0 07       		.uleb128 0x7
 697 02c1 BD060000 		.4byte	.LASF29
 698 02c5 08       		.byte	0x8
 699 02c6 B1       		.byte	0xb1
 700 02c7 1A       		.byte	0x1a
 701 02c8 A1020000 		.4byte	0x2a1
 702 02cc 00       		.byte	0
 703 02cd 00       		.byte	0
 704 02ce 03       		.uleb128 0x3
 705 02cf EB060000 		.4byte	.LASF54
 706 02d3 07       		.byte	0x7
 707 02d4 50       		.byte	0x50
 708 02d5 21       		.byte	0x21
 709 02d6 DA020000 		.4byte	0x2da
 710 02da 06       		.uleb128 0x6
 711 02db 52000000 		.4byte	.LASF55
 712 02df 08       		.byte	0x8
 713 02e0 08       		.byte	0x8
 714 02e1 B7       		.byte	0xb7
 715 02e2 08       		.byte	0x8
 716 02e3 02030000 		.4byte	0x302
 717 02e7 07       		.uleb128 0x7
 718 02e8 BD060000 		.4byte	.LASF29
 719 02ec 08       		.byte	0x8
 720 02ed B8       		.byte	0xb8
 721 02ee 1A       		.byte	0x1a
 722 02ef A1020000 		.4byte	0x2a1
 723 02f3 00       		.byte	0
 724 02f4 07       		.uleb128 0x7
 725 02f5 2C060000 		.4byte	.LASF30
 726 02f9 08       		.byte	0x8
 727 02fa B9       		.byte	0xb9
 728 02fb 1A       		.byte	0x1a
 729 02fc A1020000 		.4byte	0x2a1
 730 0300 04       		.byte	0x4
 731 0301 00       		.byte	0
 732 0302 03       		.uleb128 0x3
 733 0303 0D000000 		.4byte	.LASF56
 734 0307 07       		.byte	0x7
 735 0308 57       		.byte	0x57
 736 0309 1E       		.byte	0x1e
 737 030a 0E030000 		.4byte	0x30e
 738 030e 0B       		.uleb128 0xb
ARM GAS  /tmp/cc2QHUcT.s 			page 14


 739 030f 6E030000 		.4byte	.LASF57
 740 0313 1C       		.byte	0x1c
 741 0314 08       		.byte	0x8
 742 0315 9001     		.2byte	0x190
 743 0317 08       		.byte	0x8
 744 0318 71030000 		.4byte	0x371
 745 031c 09       		.uleb128 0x9
 746 031d 57070000 		.4byte	.LASF58
 747 0321 08       		.byte	0x8
 748 0322 9101     		.2byte	0x191
 749 0324 19       		.byte	0x19
 750 0325 CE020000 		.4byte	0x2ce
 751 0329 00       		.byte	0
 752 032a 09       		.uleb128 0x9
 753 032b C8030000 		.4byte	.LASF59
 754 032f 08       		.byte	0x8
 755 0330 9201     		.2byte	0x192
 756 0332 19       		.byte	0x19
 757 0333 07010000 		.4byte	0x107
 758 0337 08       		.byte	0x8
 759 0338 09       		.uleb128 0x9
 760 0339 56040000 		.4byte	.LASF60
 761 033d 08       		.byte	0x8
 762 033e 9401     		.2byte	0x194
 763 0340 19       		.byte	0x19
 764 0341 4F050000 		.4byte	0x54f
 765 0345 0C       		.byte	0xc
 766 0346 09       		.uleb128 0x9
 767 0347 E7010000 		.4byte	.LASF61
 768 034b 08       		.byte	0x8
 769 034c 9701     		.2byte	0x197
 770 034e 1A       		.byte	0x1a
 771 034f A1020000 		.4byte	0x2a1
 772 0353 10       		.byte	0x10
 773 0354 09       		.uleb128 0x9
 774 0355 EC050000 		.4byte	.LASF62
 775 0359 08       		.byte	0x8
 776 035a 9801     		.2byte	0x198
 777 035c 1A       		.byte	0x1a
 778 035d A1020000 		.4byte	0x2a1
 779 0361 14       		.byte	0x14
 780 0362 09       		.uleb128 0x9
 781 0363 E2050000 		.4byte	.LASF63
 782 0367 08       		.byte	0x8
 783 0368 9B01     		.2byte	0x19b
 784 036a 1A       		.byte	0x1a
 785 036b A1020000 		.4byte	0x2a1
 786 036f 18       		.byte	0x18
 787 0370 00       		.byte	0
 788 0371 03       		.uleb128 0x3
 789 0372 BF070000 		.4byte	.LASF64
 790 0376 07       		.byte	0x7
 791 0377 5C       		.byte	0x5c
 792 0378 10       		.byte	0x10
 793 0379 7D030000 		.4byte	0x37d
 794 037d 0A       		.uleb128 0xa
 795 037e 04       		.byte	0x4
ARM GAS  /tmp/cc2QHUcT.s 			page 15


 796 037f 83030000 		.4byte	0x383
 797 0383 0C       		.uleb128 0xc
 798 0384 8E030000 		.4byte	0x38e
 799 0388 0D       		.uleb128 0xd
 800 0389 8E030000 		.4byte	0x38e
 801 038d 00       		.byte	0
 802 038e 0E       		.uleb128 0xe
 803 038f 04       		.byte	0x4
 804 0390 0F       		.uleb128 0xf
 805 0391 8E030000 		.4byte	0x38e
 806 0395 03       		.uleb128 0x3
 807 0396 1C060000 		.4byte	.LASF65
 808 039a 07       		.byte	0x7
 809 039b 61       		.byte	0x61
 810 039c 21       		.byte	0x21
 811 039d A1030000 		.4byte	0x3a1
 812 03a1 0B       		.uleb128 0xb
 813 03a2 FB060000 		.4byte	.LASF66
 814 03a6 14       		.byte	0x14
 815 03a7 08       		.byte	0x8
 816 03a8 6B01     		.2byte	0x16b
 817 03aa 08       		.byte	0x8
 818 03ab F6030000 		.4byte	0x3f6
 819 03af 09       		.uleb128 0x9
 820 03b0 54020000 		.4byte	.LASF67
 821 03b4 08       		.byte	0x8
 822 03b5 6C01     		.2byte	0x16c
 823 03b7 1A       		.byte	0x1a
 824 03b8 29090000 		.4byte	0x929
 825 03bc 00       		.byte	0
 826 03bd 09       		.uleb128 0x9
 827 03be F8010000 		.4byte	.LASF68
 828 03c2 08       		.byte	0x8
 829 03c3 6D01     		.2byte	0x16d
 830 03c5 1A       		.byte	0x1a
 831 03c6 29090000 		.4byte	0x929
 832 03ca 04       		.byte	0x4
 833 03cb 09       		.uleb128 0x9
 834 03cc 83020000 		.4byte	.LASF69
 835 03d0 08       		.byte	0x8
 836 03d1 6E01     		.2byte	0x16e
 837 03d3 19       		.byte	0x19
 838 03d4 43010000 		.4byte	0x143
 839 03d8 08       		.byte	0x8
 840 03d9 09       		.uleb128 0x9
 841 03da 03090000 		.4byte	.LASF70
 842 03de 08       		.byte	0x8
 843 03df 6F01     		.2byte	0x16f
 844 03e1 19       		.byte	0x19
 845 03e2 71030000 		.4byte	0x371
 846 03e6 0C       		.byte	0xc
 847 03e7 09       		.uleb128 0x9
 848 03e8 F8070000 		.4byte	.LASF71
 849 03ec 08       		.byte	0x8
 850 03ed 7101     		.2byte	0x171
 851 03ef 1A       		.byte	0x1a
 852 03f0 8E030000 		.4byte	0x38e
ARM GAS  /tmp/cc2QHUcT.s 			page 16


 853 03f4 10       		.byte	0x10
 854 03f5 00       		.byte	0
 855 03f6 03       		.uleb128 0x3
 856 03f7 DB000000 		.4byte	.LASF72
 857 03fb 07       		.byte	0x7
 858 03fc 66       		.byte	0x66
 859 03fd 28       		.byte	0x28
 860 03fe 02040000 		.4byte	0x402
 861 0402 0B       		.uleb128 0xb
 862 0403 FD030000 		.4byte	.LASF73
 863 0407 10       		.byte	0x10
 864 0408 08       		.byte	0x8
 865 0409 7B01     		.2byte	0x17b
 866 040b 08       		.byte	0x8
 867 040c 49040000 		.4byte	0x449
 868 0410 09       		.uleb128 0x9
 869 0411 54020000 		.4byte	.LASF67
 870 0415 08       		.byte	0x8
 871 0416 7C01     		.2byte	0x17c
 872 0418 1A       		.byte	0x1a
 873 0419 29090000 		.4byte	0x929
 874 041d 00       		.byte	0
 875 041e 09       		.uleb128 0x9
 876 041f F8010000 		.4byte	.LASF68
 877 0423 08       		.byte	0x8
 878 0424 7E01     		.2byte	0x17e
 879 0426 1A       		.byte	0x1a
 880 0427 29090000 		.4byte	0x929
 881 042b 04       		.byte	0x4
 882 042c 09       		.uleb128 0x9
 883 042d 83020000 		.4byte	.LASF69
 884 0431 08       		.byte	0x8
 885 0432 8001     		.2byte	0x180
 886 0434 19       		.byte	0x19
 887 0435 43010000 		.4byte	0x143
 888 0439 08       		.byte	0x8
 889 043a 09       		.uleb128 0x9
 890 043b 97080000 		.4byte	.LASF74
 891 043f 08       		.byte	0x8
 892 0440 8201     		.2byte	0x182
 893 0442 19       		.byte	0x19
 894 0443 4F010000 		.4byte	0x14f
 895 0447 0C       		.byte	0xc
 896 0448 00       		.byte	0
 897 0449 03       		.uleb128 0x3
 898 044a 63000000 		.4byte	.LASF75
 899 044e 07       		.byte	0x7
 900 044f 6B       		.byte	0x6b
 901 0450 20       		.byte	0x20
 902 0451 55040000 		.4byte	0x455
 903 0455 10       		.uleb128 0x10
 904 0456 00020000 		.4byte	.LASF76
 905 045a 1404     		.2byte	0x414
 906 045c 08       		.byte	0x8
 907 045d A201     		.2byte	0x1a2
 908 045f 08       		.byte	0x8
 909 0460 9D040000 		.4byte	0x49d
ARM GAS  /tmp/cc2QHUcT.s 			page 17


 910 0464 09       		.uleb128 0x9
 911 0465 C8070000 		.4byte	.LASF77
 912 0469 08       		.byte	0x8
 913 046a AA01     		.2byte	0x1aa
 914 046c 24       		.byte	0x24
 915 046d 12090000 		.4byte	0x912
 916 0471 00       		.byte	0
 917 0472 09       		.uleb128 0x9
 918 0473 2F080000 		.4byte	.LASF78
 919 0477 08       		.byte	0x8
 920 0478 AF01     		.2byte	0x1af
 921 047a 19       		.byte	0x19
 922 047b 2B010000 		.4byte	0x12b
 923 047f 04       		.byte	0x4
 924 0480 09       		.uleb128 0x9
 925 0481 1E020000 		.4byte	.LASF79
 926 0485 08       		.byte	0x8
 927 0486 B301     		.2byte	0x1b3
 928 0488 19       		.byte	0x19
 929 0489 2B010000 		.4byte	0x12b
 930 048d 08       		.byte	0x8
 931 048e 09       		.uleb128 0x9
 932 048f A2080000 		.4byte	.LASF80
 933 0493 08       		.byte	0x8
 934 0494 B901     		.2byte	0x1b9
 935 0496 19       		.byte	0x19
 936 0497 5D070000 		.4byte	0x75d
 937 049b 0C       		.byte	0xc
 938 049c 00       		.byte	0
 939 049d 03       		.uleb128 0x3
 940 049e 40030000 		.4byte	.LASF81
 941 04a2 07       		.byte	0x7
 942 04a3 70       		.byte	0x70
 943 04a4 1A       		.byte	0x1a
 944 04a5 A9040000 		.4byte	0x4a9
 945 04a9 10       		.uleb128 0x10
 946 04aa 92010000 		.4byte	.LASF82
 947 04ae 7006     		.2byte	0x670
 948 04b0 08       		.byte	0x8
 949 04b1 C201     		.2byte	0x1c2
 950 04b3 08       		.byte	0x8
 951 04b4 1E050000 		.4byte	0x51e
 952 04b8 09       		.uleb128 0x9
 953 04b9 40080000 		.4byte	.LASF83
 954 04bd 08       		.byte	0x8
 955 04be C601     		.2byte	0x1c6
 956 04c0 19       		.byte	0x19
 957 04c1 02030000 		.4byte	0x302
 958 04c5 00       		.byte	0
 959 04c6 09       		.uleb128 0x9
 960 04c7 7B010000 		.4byte	.LASF84
 961 04cb 08       		.byte	0x8
 962 04cc CA01     		.2byte	0x1ca
 963 04ce 19       		.byte	0x19
 964 04cf F6030000 		.4byte	0x3f6
 965 04d3 1C       		.byte	0x1c
 966 04d4 08       		.uleb128 0x8
ARM GAS  /tmp/cc2QHUcT.s 			page 18


 967 04d5 64626700 		.ascii	"dbg\000"
 968 04d9 08       		.byte	0x8
 969 04da CE01     		.2byte	0x1ce
 970 04dc 19       		.byte	0x19
 971 04dd 49040000 		.4byte	0x449
 972 04e1 2C       		.byte	0x2c
 973 04e2 11       		.uleb128 0x11
 974 04e3 CB000000 		.4byte	.LASF85
 975 04e7 08       		.byte	0x8
 976 04e8 D201     		.2byte	0x1d2
 977 04ea 19       		.byte	0x19
 978 04eb 54010000 		.4byte	0x154
 979 04ef 4004     		.2byte	0x440
 980 04f1 12       		.uleb128 0x12
 981 04f2 746D00   		.ascii	"tm\000"
 982 04f5 08       		.byte	0x8
 983 04f6 D701     		.2byte	0x1d7
 984 04f8 19       		.byte	0x19
 985 04f9 80070000 		.4byte	0x780
 986 04fd A804     		.2byte	0x4a8
 987 04ff 11       		.uleb128 0x11
 988 0500 39000000 		.4byte	.LASF86
 989 0504 08       		.byte	0x8
 990 0505 DD01     		.2byte	0x1dd
 991 0507 19       		.byte	0x19
 992 0508 1F080000 		.4byte	0x81f
 993 050c B004     		.2byte	0x4b0
 994 050e 11       		.uleb128 0x11
 995 050f 27020000 		.4byte	.LASF87
 996 0513 08       		.byte	0x8
 997 0514 E301     		.2byte	0x1e3
 998 0516 03       		.byte	0x3
 999 0517 2F090000 		.4byte	0x92f
 1000 051b E804     		.2byte	0x4e8
 1001 051d 00       		.byte	0
 1002 051e 13       		.uleb128 0x13
 1003 051f F1000000 		.4byte	.LASF88
 1004 0523 09       		.byte	0x9
 1005 0524 A706     		.2byte	0x6a7
 1006 0526 19       		.byte	0x19
 1007 0527 67000000 		.4byte	0x67
 1008 052b 14       		.uleb128 0x14
 1009 052c 65020000 		.4byte	.LASF89
 1010 0530 0A       		.byte	0xa
 1011 0531 4C       		.byte	0x4c
 1012 0532 11       		.byte	0x11
 1013 0533 99000000 		.4byte	0x99
 1014 0537 03       		.uleb128 0x3
 1015 0538 EF010000 		.4byte	.LASF90
 1016 053c 0B       		.byte	0xb
 1017 053d 65       		.byte	0x65
 1018 053e 0F       		.byte	0xf
 1019 053f 8E030000 		.4byte	0x38e
 1020 0543 03       		.uleb128 0x3
 1021 0544 88030000 		.4byte	.LASF91
 1022 0548 0B       		.byte	0xb
 1023 0549 6D       		.byte	0x6d
ARM GAS  /tmp/cc2QHUcT.s 			page 19


 1024 054a 12       		.byte	0x12
 1025 054b AC000000 		.4byte	0xac
 1026 054f 06       		.uleb128 0x6
 1027 0550 EA070000 		.4byte	.LASF92
 1028 0554 04       		.byte	0x4
 1029 0555 0B       		.byte	0xb
 1030 0556 89       		.byte	0x89
 1031 0557 08       		.byte	0x8
 1032 0558 6A050000 		.4byte	0x56a
 1033 055c 15       		.uleb128 0x15
 1034 055d 72313300 		.ascii	"r13\000"
 1035 0561 0B       		.byte	0xb
 1036 0562 8A       		.byte	0x8a
 1037 0563 17       		.byte	0x17
 1038 0564 C5060000 		.4byte	0x6c5
 1039 0568 00       		.byte	0
 1040 0569 00       		.byte	0
 1041 056a 06       		.uleb128 0x6
 1042 056b 46000000 		.4byte	.LASF93
 1043 056f 64       		.byte	0x64
 1044 0570 0C       		.byte	0xc
 1045 0571 F4       		.byte	0xf4
 1046 0572 08       		.byte	0x8
 1047 0573 C5060000 		.4byte	0x6c5
 1048 0577 15       		.uleb128 0x15
 1049 0578 73313600 		.ascii	"s16\000"
 1050 057c 0C       		.byte	0xc
 1051 057d F6       		.byte	0xf6
 1052 057e 11       		.byte	0x11
 1053 057f 37050000 		.4byte	0x537
 1054 0583 00       		.byte	0
 1055 0584 15       		.uleb128 0x15
 1056 0585 73313700 		.ascii	"s17\000"
 1057 0589 0C       		.byte	0xc
 1058 058a F7       		.byte	0xf7
 1059 058b 11       		.byte	0x11
 1060 058c 37050000 		.4byte	0x537
 1061 0590 04       		.byte	0x4
 1062 0591 15       		.uleb128 0x15
 1063 0592 73313800 		.ascii	"s18\000"
 1064 0596 0C       		.byte	0xc
 1065 0597 F8       		.byte	0xf8
 1066 0598 11       		.byte	0x11
 1067 0599 37050000 		.4byte	0x537
 1068 059d 08       		.byte	0x8
 1069 059e 15       		.uleb128 0x15
 1070 059f 73313900 		.ascii	"s19\000"
 1071 05a3 0C       		.byte	0xc
 1072 05a4 F9       		.byte	0xf9
 1073 05a5 11       		.byte	0x11
 1074 05a6 37050000 		.4byte	0x537
 1075 05aa 0C       		.byte	0xc
 1076 05ab 15       		.uleb128 0x15
 1077 05ac 73323000 		.ascii	"s20\000"
 1078 05b0 0C       		.byte	0xc
 1079 05b1 FA       		.byte	0xfa
 1080 05b2 11       		.byte	0x11
ARM GAS  /tmp/cc2QHUcT.s 			page 20


 1081 05b3 37050000 		.4byte	0x537
 1082 05b7 10       		.byte	0x10
 1083 05b8 15       		.uleb128 0x15
 1084 05b9 73323100 		.ascii	"s21\000"
 1085 05bd 0C       		.byte	0xc
 1086 05be FB       		.byte	0xfb
 1087 05bf 11       		.byte	0x11
 1088 05c0 37050000 		.4byte	0x537
 1089 05c4 14       		.byte	0x14
 1090 05c5 15       		.uleb128 0x15
 1091 05c6 73323200 		.ascii	"s22\000"
 1092 05ca 0C       		.byte	0xc
 1093 05cb FC       		.byte	0xfc
 1094 05cc 11       		.byte	0x11
 1095 05cd 37050000 		.4byte	0x537
 1096 05d1 18       		.byte	0x18
 1097 05d2 15       		.uleb128 0x15
 1098 05d3 73323300 		.ascii	"s23\000"
 1099 05d7 0C       		.byte	0xc
 1100 05d8 FD       		.byte	0xfd
 1101 05d9 11       		.byte	0x11
 1102 05da 37050000 		.4byte	0x537
 1103 05de 1C       		.byte	0x1c
 1104 05df 15       		.uleb128 0x15
 1105 05e0 73323400 		.ascii	"s24\000"
 1106 05e4 0C       		.byte	0xc
 1107 05e5 FE       		.byte	0xfe
 1108 05e6 11       		.byte	0x11
 1109 05e7 37050000 		.4byte	0x537
 1110 05eb 20       		.byte	0x20
 1111 05ec 15       		.uleb128 0x15
 1112 05ed 73323500 		.ascii	"s25\000"
 1113 05f1 0C       		.byte	0xc
 1114 05f2 FF       		.byte	0xff
 1115 05f3 11       		.byte	0x11
 1116 05f4 37050000 		.4byte	0x537
 1117 05f8 24       		.byte	0x24
 1118 05f9 08       		.uleb128 0x8
 1119 05fa 73323600 		.ascii	"s26\000"
 1120 05fe 0C       		.byte	0xc
 1121 05ff 0001     		.2byte	0x100
 1122 0601 11       		.byte	0x11
 1123 0602 37050000 		.4byte	0x537
 1124 0606 28       		.byte	0x28
 1125 0607 08       		.uleb128 0x8
 1126 0608 73323700 		.ascii	"s27\000"
 1127 060c 0C       		.byte	0xc
 1128 060d 0101     		.2byte	0x101
 1129 060f 11       		.byte	0x11
 1130 0610 37050000 		.4byte	0x537
 1131 0614 2C       		.byte	0x2c
 1132 0615 08       		.uleb128 0x8
 1133 0616 73323800 		.ascii	"s28\000"
 1134 061a 0C       		.byte	0xc
 1135 061b 0201     		.2byte	0x102
 1136 061d 11       		.byte	0x11
 1137 061e 37050000 		.4byte	0x537
ARM GAS  /tmp/cc2QHUcT.s 			page 21


 1138 0622 30       		.byte	0x30
 1139 0623 08       		.uleb128 0x8
 1140 0624 73323900 		.ascii	"s29\000"
 1141 0628 0C       		.byte	0xc
 1142 0629 0301     		.2byte	0x103
 1143 062b 11       		.byte	0x11
 1144 062c 37050000 		.4byte	0x537
 1145 0630 34       		.byte	0x34
 1146 0631 08       		.uleb128 0x8
 1147 0632 73333000 		.ascii	"s30\000"
 1148 0636 0C       		.byte	0xc
 1149 0637 0401     		.2byte	0x104
 1150 0639 11       		.byte	0x11
 1151 063a 37050000 		.4byte	0x537
 1152 063e 38       		.byte	0x38
 1153 063f 08       		.uleb128 0x8
 1154 0640 73333100 		.ascii	"s31\000"
 1155 0644 0C       		.byte	0xc
 1156 0645 0501     		.2byte	0x105
 1157 0647 11       		.byte	0x11
 1158 0648 37050000 		.4byte	0x537
 1159 064c 3C       		.byte	0x3c
 1160 064d 08       		.uleb128 0x8
 1161 064e 723400   		.ascii	"r4\000"
 1162 0651 0C       		.byte	0xc
 1163 0652 0701     		.2byte	0x107
 1164 0654 11       		.byte	0x11
 1165 0655 37050000 		.4byte	0x537
 1166 0659 40       		.byte	0x40
 1167 065a 08       		.uleb128 0x8
 1168 065b 723500   		.ascii	"r5\000"
 1169 065e 0C       		.byte	0xc
 1170 065f 0801     		.2byte	0x108
 1171 0661 11       		.byte	0x11
 1172 0662 37050000 		.4byte	0x537
 1173 0666 44       		.byte	0x44
 1174 0667 08       		.uleb128 0x8
 1175 0668 723600   		.ascii	"r6\000"
 1176 066b 0C       		.byte	0xc
 1177 066c 0901     		.2byte	0x109
 1178 066e 11       		.byte	0x11
 1179 066f 37050000 		.4byte	0x537
 1180 0673 48       		.byte	0x48
 1181 0674 08       		.uleb128 0x8
 1182 0675 723700   		.ascii	"r7\000"
 1183 0678 0C       		.byte	0xc
 1184 0679 0A01     		.2byte	0x10a
 1185 067b 11       		.byte	0x11
 1186 067c 37050000 		.4byte	0x537
 1187 0680 4C       		.byte	0x4c
 1188 0681 08       		.uleb128 0x8
 1189 0682 723800   		.ascii	"r8\000"
 1190 0685 0C       		.byte	0xc
 1191 0686 0B01     		.2byte	0x10b
 1192 0688 11       		.byte	0x11
 1193 0689 37050000 		.4byte	0x537
 1194 068d 50       		.byte	0x50
ARM GAS  /tmp/cc2QHUcT.s 			page 22


 1195 068e 08       		.uleb128 0x8
 1196 068f 723900   		.ascii	"r9\000"
 1197 0692 0C       		.byte	0xc
 1198 0693 0C01     		.2byte	0x10c
 1199 0695 11       		.byte	0x11
 1200 0696 37050000 		.4byte	0x537
 1201 069a 54       		.byte	0x54
 1202 069b 08       		.uleb128 0x8
 1203 069c 72313000 		.ascii	"r10\000"
 1204 06a0 0C       		.byte	0xc
 1205 06a1 0D01     		.2byte	0x10d
 1206 06a3 11       		.byte	0x11
 1207 06a4 37050000 		.4byte	0x537
 1208 06a8 58       		.byte	0x58
 1209 06a9 08       		.uleb128 0x8
 1210 06aa 72313100 		.ascii	"r11\000"
 1211 06ae 0C       		.byte	0xc
 1212 06af 0E01     		.2byte	0x10e
 1213 06b1 11       		.byte	0x11
 1214 06b2 37050000 		.4byte	0x537
 1215 06b6 5C       		.byte	0x5c
 1216 06b7 08       		.uleb128 0x8
 1217 06b8 6C7200   		.ascii	"lr\000"
 1218 06bb 0C       		.byte	0xc
 1219 06bc 0F01     		.2byte	0x10f
 1220 06be 11       		.byte	0x11
 1221 06bf 37050000 		.4byte	0x537
 1222 06c3 60       		.byte	0x60
 1223 06c4 00       		.byte	0
 1224 06c5 0A       		.uleb128 0xa
 1225 06c6 04       		.byte	0x4
 1226 06c7 6A050000 		.4byte	0x56a
 1227 06cb 16       		.uleb128 0x16
 1228 06cc 10       		.byte	0x10
 1229 06cd 0D       		.byte	0xd
 1230 06ce 51       		.byte	0x51
 1231 06cf 09       		.byte	0x9
 1232 06d0 09070000 		.4byte	0x709
 1233 06d4 07       		.uleb128 0x7
 1234 06d5 1A000000 		.4byte	.LASF94
 1235 06d9 0D       		.byte	0xd
 1236 06da 55       		.byte	0x55
 1237 06db 19       		.byte	0x19
 1238 06dc 43010000 		.4byte	0x143
 1239 06e0 00       		.byte	0
 1240 06e1 07       		.uleb128 0x7
 1241 06e2 B8010000 		.4byte	.LASF95
 1242 06e6 0D       		.byte	0xd
 1243 06e7 59       		.byte	0x59
 1244 06e8 1A       		.byte	0x1a
 1245 06e9 A1020000 		.4byte	0x2a1
 1246 06ed 04       		.byte	0x4
 1247 06ee 07       		.uleb128 0x7
 1248 06ef EB080000 		.4byte	.LASF96
 1249 06f3 0D       		.byte	0xd
 1250 06f4 5D       		.byte	0x5d
 1251 06f5 1A       		.byte	0x1a
ARM GAS  /tmp/cc2QHUcT.s 			page 23


 1252 06f6 8E030000 		.4byte	0x38e
 1253 06fa 08       		.byte	0x8
 1254 06fb 07       		.uleb128 0x7
 1255 06fc 37080000 		.4byte	.LASF97
 1256 0700 0D       		.byte	0xd
 1257 0701 61       		.byte	0x61
 1258 0702 19       		.byte	0x19
 1259 0703 73000000 		.4byte	0x73
 1260 0707 0C       		.byte	0xc
 1261 0708 00       		.byte	0
 1262 0709 03       		.uleb128 0x3
 1263 070a 33040000 		.4byte	.LASF98
 1264 070e 0D       		.byte	0xd
 1265 070f 62       		.byte	0x62
 1266 0710 03       		.byte	0x3
 1267 0711 CB060000 		.4byte	0x6cb
 1268 0715 17       		.uleb128 0x17
 1269 0716 0804     		.2byte	0x408
 1270 0718 0D       		.byte	0xd
 1271 0719 67       		.byte	0x67
 1272 071a 09       		.byte	0x9
 1273 071b 47070000 		.4byte	0x747
 1274 071f 07       		.uleb128 0x7
 1275 0720 DF010000 		.4byte	.LASF99
 1276 0724 0D       		.byte	0xd
 1277 0725 6B       		.byte	0x6b
 1278 0726 19       		.byte	0x19
 1279 0727 38000000 		.4byte	0x38
 1280 072b 00       		.byte	0
 1281 072c 07       		.uleb128 0x7
 1282 072d 2C040000 		.4byte	.LASF100
 1283 0731 0D       		.byte	0xd
 1284 0732 6F       		.byte	0x6f
 1285 0733 1A       		.byte	0x1a
 1286 0734 47070000 		.4byte	0x747
 1287 0738 04       		.byte	0x4
 1288 0739 07       		.uleb128 0x7
 1289 073a 07060000 		.4byte	.LASF101
 1290 073e 0D       		.byte	0xd
 1291 073f 73       		.byte	0x73
 1292 0740 19       		.byte	0x19
 1293 0741 4D070000 		.4byte	0x74d
 1294 0745 08       		.byte	0x8
 1295 0746 00       		.byte	0
 1296 0747 0A       		.uleb128 0xa
 1297 0748 04       		.byte	0x4
 1298 0749 09070000 		.4byte	0x709
 1299 074d 18       		.uleb128 0x18
 1300 074e 09070000 		.4byte	0x709
 1301 0752 5D070000 		.4byte	0x75d
 1302 0756 19       		.uleb128 0x19
 1303 0757 38000000 		.4byte	0x38
 1304 075b 3F       		.byte	0x3f
 1305 075c 00       		.byte	0
 1306 075d 03       		.uleb128 0x3
 1307 075e A2000000 		.4byte	.LASF102
 1308 0762 0D       		.byte	0xd
ARM GAS  /tmp/cc2QHUcT.s 			page 24


 1309 0763 74       		.byte	0x74
 1310 0764 03       		.byte	0x3
 1311 0765 15070000 		.4byte	0x715
 1312 0769 16       		.uleb128 0x16
 1313 076a 04       		.byte	0x4
 1314 076b 0E       		.byte	0xe
 1315 076c 38       		.byte	0x38
 1316 076d 09       		.byte	0x9
 1317 076e 80070000 		.4byte	0x780
 1318 0772 07       		.uleb128 0x7
 1319 0773 E3070000 		.4byte	.LASF103
 1320 0777 0E       		.byte	0xe
 1321 0778 3C       		.byte	0x3c
 1322 0779 19       		.byte	0x19
 1323 077a BF000000 		.4byte	0xbf
 1324 077e 00       		.byte	0
 1325 077f 00       		.byte	0
 1326 0780 03       		.uleb128 0x3
 1327 0781 EC030000 		.4byte	.LASF104
 1328 0785 0E       		.byte	0xe
 1329 0786 3D       		.byte	0x3d
 1330 0787 03       		.byte	0x3
 1331 0788 69070000 		.4byte	0x769
 1332 078c 16       		.uleb128 0x16
 1333 078d 18       		.byte	0x18
 1334 078e 0E       		.byte	0xe
 1335 078f 48       		.byte	0x48
 1336 0790 09       		.byte	0x9
 1337 0791 D5070000 		.4byte	0x7d5
 1338 0795 07       		.uleb128 0x7
 1339 0796 9E070000 		.4byte	.LASF105
 1340 079a 0E       		.byte	0xe
 1341 079b 49       		.byte	0x49
 1342 079c 19       		.byte	0x19
 1343 079d BF000000 		.4byte	0xbf
 1344 07a1 00       		.byte	0
 1345 07a2 07       		.uleb128 0x7
 1346 07a3 72000000 		.4byte	.LASF106
 1347 07a7 0E       		.byte	0xe
 1348 07a8 4A       		.byte	0x4a
 1349 07a9 19       		.byte	0x19
 1350 07aa BF000000 		.4byte	0xbf
 1351 07ae 04       		.byte	0x4
 1352 07af 07       		.uleb128 0x7
 1353 07b0 34030000 		.4byte	.LASF107
 1354 07b4 0E       		.byte	0xe
 1355 07b5 4B       		.byte	0x4b
 1356 07b6 19       		.byte	0x19
 1357 07b7 BF000000 		.4byte	0xbf
 1358 07bb 08       		.byte	0x8
 1359 07bc 15       		.uleb128 0x15
 1360 07bd 6E00     		.ascii	"n\000"
 1361 07bf 0E       		.byte	0xe
 1362 07c0 4C       		.byte	0x4c
 1363 07c1 19       		.byte	0x19
 1364 07c2 37010000 		.4byte	0x137
 1365 07c6 0C       		.byte	0xc
ARM GAS  /tmp/cc2QHUcT.s 			page 25


 1366 07c7 07       		.uleb128 0x7
 1367 07c8 F4050000 		.4byte	.LASF108
 1368 07cc 0E       		.byte	0xe
 1369 07cd 4D       		.byte	0x4d
 1370 07ce 19       		.byte	0x19
 1371 07cf CB000000 		.4byte	0xcb
 1372 07d3 10       		.byte	0x10
 1373 07d4 00       		.byte	0
 1374 07d5 03       		.uleb128 0x3
 1375 07d6 78000000 		.4byte	.LASF109
 1376 07da 0E       		.byte	0xe
 1377 07db 4E       		.byte	0x4e
 1378 07dc 03       		.byte	0x3
 1379 07dd 8C070000 		.4byte	0x78c
 1380 07e1 16       		.uleb128 0x16
 1381 07e2 38       		.byte	0x38
 1382 07e3 0F       		.byte	0xf
 1383 07e4 38       		.byte	0x38
 1384 07e5 09       		.byte	0x9
 1385 07e6 1F080000 		.4byte	0x81f
 1386 07ea 07       		.uleb128 0x7
 1387 07eb A9020000 		.4byte	.LASF110
 1388 07ef 0F       		.byte	0xf
 1389 07f0 39       		.byte	0x39
 1390 07f1 19       		.byte	0x19
 1391 07f2 37010000 		.4byte	0x137
 1392 07f6 00       		.byte	0
 1393 07f7 07       		.uleb128 0x7
 1394 07f8 4A060000 		.4byte	.LASF111
 1395 07fc 0F       		.byte	0xf
 1396 07fd 3A       		.byte	0x3a
 1397 07fe 19       		.byte	0x19
 1398 07ff 37010000 		.4byte	0x137
 1399 0803 04       		.byte	0x4
 1400 0804 07       		.uleb128 0x7
 1401 0805 BA080000 		.4byte	.LASF112
 1402 0809 0F       		.byte	0xf
 1403 080a 3B       		.byte	0x3b
 1404 080b 19       		.byte	0x19
 1405 080c D5070000 		.4byte	0x7d5
 1406 0810 08       		.byte	0x8
 1407 0811 07       		.uleb128 0x7
 1408 0812 63030000 		.4byte	.LASF113
 1409 0816 0F       		.byte	0xf
 1410 0817 3D       		.byte	0x3d
 1411 0818 19       		.byte	0x19
 1412 0819 D5070000 		.4byte	0x7d5
 1413 081d 20       		.byte	0x20
 1414 081e 00       		.byte	0
 1415 081f 03       		.uleb128 0x3
 1416 0820 15030000 		.4byte	.LASF114
 1417 0824 0F       		.byte	0xf
 1418 0825 3F       		.byte	0x3f
 1419 0826 03       		.byte	0x3
 1420 0827 E1070000 		.4byte	0x7e1
 1421 082b 1A       		.uleb128 0x1a
 1422 082c 04       		.byte	0x4
ARM GAS  /tmp/cc2QHUcT.s 			page 26


 1423 082d 08       		.byte	0x8
 1424 082e FA       		.byte	0xfa
 1425 082f 03       		.byte	0x3
 1426 0830 90080000 		.4byte	0x890
 1427 0834 1B       		.uleb128 0x1b
 1428 0835 29000000 		.4byte	.LASF115
 1429 0839 08       		.byte	0x8
 1430 083a 0101     		.2byte	0x101
 1431 083c 19       		.byte	0x19
 1432 083d 13010000 		.4byte	0x113
 1433 0841 1B       		.uleb128 0x1b
 1434 0842 C2000000 		.4byte	.LASF116
 1435 0846 08       		.byte	0x8
 1436 0847 0801     		.2byte	0x108
 1437 0849 19       		.byte	0x19
 1438 084a 13010000 		.4byte	0x113
 1439 084e 1B       		.uleb128 0x1b
 1440 084f 7C080000 		.4byte	.LASF117
 1441 0853 08       		.byte	0x8
 1442 0854 0F01     		.2byte	0x10f
 1443 0856 1A       		.byte	0x1a
 1444 0857 8E030000 		.4byte	0x38e
 1445 085b 1B       		.uleb128 0x1b
 1446 085c 8C010000 		.4byte	.LASF118
 1447 0860 08       		.byte	0x8
 1448 0861 1601     		.2byte	0x116
 1449 0863 1A       		.byte	0x1a
 1450 0864 90080000 		.4byte	0x890
 1451 0868 1B       		.uleb128 0x1b
 1452 0869 7C020000 		.4byte	.LASF119
 1453 086d 08       		.byte	0x8
 1454 086e 1E01     		.2byte	0x11e
 1455 0870 1A       		.byte	0x1a
 1456 0871 BE080000 		.4byte	0x8be
 1457 0875 1B       		.uleb128 0x1b
 1458 0876 8E070000 		.4byte	.LASF120
 1459 087a 08       		.byte	0x8
 1460 087b 2701     		.2byte	0x127
 1461 087d 1A       		.byte	0x1a
 1462 087e 06090000 		.4byte	0x906
 1463 0882 1B       		.uleb128 0x1b
 1464 0883 B6060000 		.4byte	.LASF121
 1465 0887 08       		.byte	0x8
 1466 0888 2F01     		.2byte	0x12f
 1467 088a 19       		.byte	0x19
 1468 088b 1F010000 		.4byte	0x11f
 1469 088f 00       		.byte	0
 1470 0890 0A       		.uleb128 0xa
 1471 0891 04       		.byte	0x4
 1472 0892 95020000 		.4byte	0x295
 1473 0896 06       		.uleb128 0x6
 1474 0897 2A070000 		.4byte	.LASF122
 1475 089b 0C       		.byte	0xc
 1476 089c 10       		.byte	0x10
 1477 089d 34       		.byte	0x34
 1478 089e 10       		.byte	0x10
 1479 089f BE080000 		.4byte	0x8be
ARM GAS  /tmp/cc2QHUcT.s 			page 27


 1480 08a3 07       		.uleb128 0x7
 1481 08a4 D7010000 		.4byte	.LASF123
 1482 08a8 10       		.byte	0x10
 1483 08a9 35       		.byte	0x35
 1484 08aa 19       		.byte	0x19
 1485 08ab CE020000 		.4byte	0x2ce
 1486 08af 00       		.byte	0
 1487 08b0 07       		.uleb128 0x7
 1488 08b1 F7020000 		.4byte	.LASF124
 1489 08b5 10       		.byte	0x10
 1490 08b6 37       		.byte	0x37
 1491 08b7 19       		.byte	0x19
 1492 08b8 2B010000 		.4byte	0x12b
 1493 08bc 08       		.byte	0x8
 1494 08bd 00       		.byte	0
 1495 08be 0A       		.uleb128 0xa
 1496 08bf 04       		.byte	0x4
 1497 08c0 96080000 		.4byte	0x896
 1498 08c4 06       		.uleb128 0x6
 1499 08c5 1F080000 		.4byte	.LASF125
 1500 08c9 14       		.byte	0x14
 1501 08ca 11       		.byte	0x11
 1502 08cb 39       		.byte	0x39
 1503 08cc 08       		.byte	0x8
 1504 08cd 06090000 		.4byte	0x906
 1505 08d1 07       		.uleb128 0x7
 1506 08d2 63010000 		.4byte	.LASF126
 1507 08d6 11       		.byte	0x11
 1508 08d7 3A       		.byte	0x3a
 1509 08d8 19       		.byte	0x19
 1510 08d9 CE020000 		.4byte	0x2ce
 1511 08dd 00       		.byte	0
 1512 08de 07       		.uleb128 0x7
 1513 08df E3080000 		.4byte	.LASF127
 1514 08e3 11       		.byte	0x11
 1515 08e4 3C       		.byte	0x3c
 1516 08e5 1A       		.byte	0x1a
 1517 08e6 A1020000 		.4byte	0x2a1
 1518 08ea 08       		.byte	0x8
 1519 08eb 07       		.uleb128 0x7
 1520 08ec A3070000 		.4byte	.LASF128
 1521 08f0 11       		.byte	0x11
 1522 08f1 3E       		.byte	0x3e
 1523 08f2 1A       		.byte	0x1a
 1524 08f3 780A0000 		.4byte	0xa78
 1525 08f7 0C       		.byte	0xc
 1526 08f8 07       		.uleb128 0x7
 1527 08f9 10020000 		.4byte	.LASF129
 1528 08fd 11       		.byte	0x11
 1529 08fe 41       		.byte	0x41
 1530 08ff 19       		.byte	0x19
 1531 0900 2B010000 		.4byte	0x12b
 1532 0904 10       		.byte	0x10
 1533 0905 00       		.byte	0
 1534 0906 0A       		.uleb128 0xa
 1535 0907 04       		.byte	0x4
 1536 0908 C4080000 		.4byte	0x8c4
ARM GAS  /tmp/cc2QHUcT.s 			page 28


 1537 090c 0A       		.uleb128 0xa
 1538 090d 04       		.byte	0x4
 1539 090e 1E090000 		.4byte	0x91e
 1540 0912 05       		.uleb128 0x5
 1541 0913 0C090000 		.4byte	0x90c
 1542 0917 04       		.uleb128 0x4
 1543 0918 01       		.byte	0x1
 1544 0919 08       		.byte	0x8
 1545 091a 89070000 		.4byte	.LASF130
 1546 091e 0F       		.uleb128 0xf
 1547 091f 17090000 		.4byte	0x917
 1548 0923 0A       		.uleb128 0xa
 1549 0924 04       		.byte	0x4
 1550 0925 43050000 		.4byte	0x543
 1551 0929 0A       		.uleb128 0xa
 1552 092a 04       		.byte	0x4
 1553 092b 95030000 		.4byte	0x395
 1554 092f 18       		.uleb128 0x18
 1555 0930 43050000 		.4byte	0x543
 1556 0934 3F090000 		.4byte	0x93f
 1557 0938 19       		.uleb128 0x19
 1558 0939 38000000 		.4byte	0x38
 1559 093d 30       		.byte	0x30
 1560 093e 00       		.byte	0
 1561 093f 1C       		.uleb128 0x1c
 1562 0940 636800   		.ascii	"ch\000"
 1563 0943 08       		.byte	0x8
 1564 0944 0902     		.2byte	0x209
 1565 0946 14       		.byte	0x14
 1566 0947 9D040000 		.4byte	0x49d
 1567 094b 16       		.uleb128 0x16
 1568 094c 16       		.byte	0x16
 1569 094d 12       		.byte	0x12
 1570 094e 34       		.byte	0x34
 1571 094f 09       		.byte	0x9
 1572 0950 3F0A0000 		.4byte	0xa3f
 1573 0954 07       		.uleb128 0x7
 1574 0955 F5080000 		.4byte	.LASF131
 1575 0959 12       		.byte	0x12
 1576 095a 35       		.byte	0x35
 1577 095b 0D       		.byte	0xd
 1578 095c 3F0A0000 		.4byte	0xa3f
 1579 0960 00       		.byte	0
 1580 0961 07       		.uleb128 0x7
 1581 0962 B4030000 		.4byte	.LASF132
 1582 0966 12       		.byte	0x12
 1583 0967 36       		.byte	0x36
 1584 0968 0D       		.byte	0xd
 1585 0969 73000000 		.4byte	0x73
 1586 096d 04       		.byte	0x4
 1587 096e 07       		.uleb128 0x7
 1588 096f 6F070000 		.4byte	.LASF133
 1589 0973 12       		.byte	0x12
 1590 0974 37       		.byte	0x37
 1591 0975 0D       		.byte	0xd
 1592 0976 73000000 		.4byte	0x73
 1593 097a 05       		.byte	0x5
ARM GAS  /tmp/cc2QHUcT.s 			page 29


 1594 097b 07       		.uleb128 0x7
 1595 097c AF080000 		.4byte	.LASF134
 1596 0980 12       		.byte	0x12
 1597 0981 38       		.byte	0x38
 1598 0982 0D       		.byte	0xd
 1599 0983 86000000 		.4byte	0x86
 1600 0987 06       		.byte	0x6
 1601 0988 07       		.uleb128 0x7
 1602 0989 11060000 		.4byte	.LASF135
 1603 098d 12       		.byte	0x12
 1604 098e 39       		.byte	0x39
 1605 098f 0D       		.byte	0xd
 1606 0990 73000000 		.4byte	0x73
 1607 0994 08       		.byte	0x8
 1608 0995 07       		.uleb128 0x7
 1609 0996 20040000 		.4byte	.LASF136
 1610 099a 12       		.byte	0x12
 1611 099b 3A       		.byte	0x3a
 1612 099c 0D       		.byte	0xd
 1613 099d 73000000 		.4byte	0x73
 1614 09a1 09       		.byte	0x9
 1615 09a2 07       		.uleb128 0x7
 1616 09a3 B4000000 		.4byte	.LASF137
 1617 09a7 12       		.byte	0x12
 1618 09a8 3B       		.byte	0x3b
 1619 09a9 0D       		.byte	0xd
 1620 09aa 73000000 		.4byte	0x73
 1621 09ae 0A       		.byte	0xa
 1622 09af 07       		.uleb128 0x7
 1623 09b0 4B070000 		.4byte	.LASF138
 1624 09b4 12       		.byte	0x12
 1625 09b5 3C       		.byte	0x3c
 1626 09b6 0D       		.byte	0xd
 1627 09b7 73000000 		.4byte	0x73
 1628 09bb 0B       		.byte	0xb
 1629 09bc 07       		.uleb128 0x7
 1630 09bd 4C030000 		.4byte	.LASF139
 1631 09c1 12       		.byte	0x12
 1632 09c2 3D       		.byte	0x3d
 1633 09c3 0D       		.byte	0xd
 1634 09c4 73000000 		.4byte	0x73
 1635 09c8 0C       		.byte	0xc
 1636 09c9 07       		.uleb128 0x7
 1637 09ca 83080000 		.4byte	.LASF140
 1638 09ce 12       		.byte	0x12
 1639 09cf 3E       		.byte	0x3e
 1640 09d0 0D       		.byte	0xd
 1641 09d1 73000000 		.4byte	0x73
 1642 09d5 0D       		.byte	0xd
 1643 09d6 07       		.uleb128 0x7
 1644 09d7 00000000 		.4byte	.LASF141
 1645 09db 12       		.byte	0x12
 1646 09dc 3F       		.byte	0x3f
 1647 09dd 0D       		.byte	0xd
 1648 09de 73000000 		.4byte	0x73
 1649 09e2 0E       		.byte	0xe
 1650 09e3 07       		.uleb128 0x7
ARM GAS  /tmp/cc2QHUcT.s 			page 30


 1651 09e4 42040000 		.4byte	.LASF142
 1652 09e8 12       		.byte	0x12
 1653 09e9 40       		.byte	0x40
 1654 09ea 0D       		.byte	0xd
 1655 09eb 73000000 		.4byte	0x73
 1656 09ef 0F       		.byte	0xf
 1657 09f0 07       		.uleb128 0x7
 1658 09f1 3E010000 		.4byte	.LASF143
 1659 09f5 12       		.byte	0x12
 1660 09f6 41       		.byte	0x41
 1661 09f7 0D       		.byte	0xd
 1662 09f8 73000000 		.4byte	0x73
 1663 09fc 10       		.byte	0x10
 1664 09fd 07       		.uleb128 0x7
 1665 09fe 0E010000 		.4byte	.LASF144
 1666 0a02 12       		.byte	0x12
 1667 0a03 43       		.byte	0x43
 1668 0a04 0D       		.byte	0xd
 1669 0a05 73000000 		.4byte	0x73
 1670 0a09 11       		.byte	0x11
 1671 0a0a 07       		.uleb128 0x7
 1672 0a0b 4E010000 		.4byte	.LASF145
 1673 0a0f 12       		.byte	0x12
 1674 0a10 44       		.byte	0x44
 1675 0a11 0D       		.byte	0xd
 1676 0a12 73000000 		.4byte	0x73
 1677 0a16 12       		.byte	0x12
 1678 0a17 07       		.uleb128 0x7
 1679 0a18 BC030000 		.4byte	.LASF146
 1680 0a1c 12       		.byte	0x12
 1681 0a1d 45       		.byte	0x45
 1682 0a1e 0D       		.byte	0xd
 1683 0a1f 73000000 		.4byte	0x73
 1684 0a23 13       		.byte	0x13
 1685 0a24 07       		.uleb128 0x7
 1686 0a25 CC060000 		.4byte	.LASF147
 1687 0a29 12       		.byte	0x12
 1688 0a2a 46       		.byte	0x46
 1689 0a2b 0D       		.byte	0xd
 1690 0a2c 73000000 		.4byte	0x73
 1691 0a30 14       		.byte	0x14
 1692 0a31 07       		.uleb128 0x7
 1693 0a32 57030000 		.4byte	.LASF148
 1694 0a36 12       		.byte	0x12
 1695 0a37 48       		.byte	0x48
 1696 0a38 0D       		.byte	0xd
 1697 0a39 73000000 		.4byte	0x73
 1698 0a3d 15       		.byte	0x15
 1699 0a3e 00       		.byte	0
 1700 0a3f 18       		.uleb128 0x18
 1701 0a40 17090000 		.4byte	0x917
 1702 0a44 4F0A0000 		.4byte	0xa4f
 1703 0a48 19       		.uleb128 0x19
 1704 0a49 38000000 		.4byte	0x38
 1705 0a4d 03       		.byte	0x3
 1706 0a4e 00       		.byte	0
 1707 0a4f 03       		.uleb128 0x3
ARM GAS  /tmp/cc2QHUcT.s 			page 31


 1708 0a50 BE010000 		.4byte	.LASF149
 1709 0a54 12       		.byte	0x12
 1710 0a55 49       		.byte	0x49
 1711 0a56 03       		.byte	0x3
 1712 0a57 4B090000 		.4byte	0x94b
 1713 0a5b 0F       		.uleb128 0xf
 1714 0a5c 4F0A0000 		.4byte	0xa4f
 1715 0a60 14       		.uleb128 0x14
 1716 0a61 97020000 		.4byte	.LASF150
 1717 0a65 12       		.byte	0x12
 1718 0a66 6E       		.byte	0x6e
 1719 0a67 1D       		.byte	0x1d
 1720 0a68 5B0A0000 		.4byte	0xa5b
 1721 0a6c 03       		.uleb128 0x3
 1722 0a6d 16020000 		.4byte	.LASF151
 1723 0a71 11       		.byte	0x11
 1724 0a72 34       		.byte	0x34
 1725 0a73 19       		.byte	0x19
 1726 0a74 C4080000 		.4byte	0x8c4
 1727 0a78 0A       		.uleb128 0xa
 1728 0a79 04       		.byte	0x4
 1729 0a7a 6C0A0000 		.4byte	0xa6c
 1730 0a7e 06       		.uleb128 0x6
 1731 0a7f 09080000 		.4byte	.LASF152
 1732 0a83 10       		.byte	0x10
 1733 0a84 13       		.byte	0x13
 1734 0a85 3B       		.byte	0x3b
 1735 0a86 08       		.byte	0x8
 1736 0a87 C00A0000 		.4byte	0xac0
 1737 0a8b 07       		.uleb128 0x7
 1738 0a8c FD020000 		.4byte	.LASF153
 1739 0a90 13       		.byte	0x13
 1740 0a91 3C       		.byte	0x3c
 1741 0a92 0F       		.byte	0xf
 1742 0a93 0C090000 		.4byte	0x90c
 1743 0a97 00       		.byte	0
 1744 0a98 07       		.uleb128 0x7
 1745 0a99 74040000 		.4byte	.LASF154
 1746 0a9d 13       		.byte	0x13
 1747 0a9e 3D       		.byte	0x3d
 1748 0a9f 0A       		.byte	0xa
 1749 0aa0 C60A0000 		.4byte	0xac6
 1750 0aa4 04       		.byte	0x4
 1751 0aa5 07       		.uleb128 0x7
 1752 0aa6 1B010000 		.4byte	.LASF155
 1753 0aaa 13       		.byte	0x13
 1754 0aab 3E       		.byte	0x3e
 1755 0aac 0A       		.byte	0xa
 1756 0aad C60A0000 		.4byte	0xac6
 1757 0ab1 08       		.byte	0x8
 1758 0ab2 07       		.uleb128 0x7
 1759 0ab3 33060000 		.4byte	.LASF156
 1760 0ab7 13       		.byte	0x13
 1761 0ab8 3F       		.byte	0x3f
 1762 0ab9 0A       		.byte	0xa
 1763 0aba C60A0000 		.4byte	0xac6
 1764 0abe 0C       		.byte	0xc
ARM GAS  /tmp/cc2QHUcT.s 			page 32


 1765 0abf 00       		.byte	0
 1766 0ac0 0F       		.uleb128 0xf
 1767 0ac1 7E0A0000 		.4byte	0xa7e
 1768 0ac5 1D       		.uleb128 0x1d
 1769 0ac6 0A       		.uleb128 0xa
 1770 0ac7 04       		.byte	0x4
 1771 0ac8 C50A0000 		.4byte	0xac5
 1772 0acc 17       		.uleb128 0x17
 1773 0acd D809     		.2byte	0x9d8
 1774 0acf 13       		.byte	0x13
 1775 0ad0 44       		.byte	0x44
 1776 0ad1 03       		.byte	0x3
 1777 0ad2 170B0000 		.4byte	0xb17
 1778 0ad6 15       		.uleb128 0x15
 1779 0ad7 543000   		.ascii	"T0\000"
 1780 0ada 13       		.byte	0x13
 1781 0adb 45       		.byte	0x45
 1782 0adc 05       		.byte	0x5
 1783 0add 170B0000 		.4byte	0xb17
 1784 0ae1 00       		.byte	0
 1785 0ae2 1E       		.uleb128 0x1e
 1786 0ae3 543100   		.ascii	"T1\000"
 1787 0ae6 13       		.byte	0x13
 1788 0ae7 46       		.byte	0x46
 1789 0ae8 05       		.byte	0x5
 1790 0ae9 170B0000 		.4byte	0xb17
 1791 0aed F801     		.2byte	0x1f8
 1792 0aef 1E       		.uleb128 0x1e
 1793 0af0 543200   		.ascii	"T2\000"
 1794 0af3 13       		.byte	0x13
 1795 0af4 47       		.byte	0x47
 1796 0af5 05       		.byte	0x5
 1797 0af6 170B0000 		.4byte	0xb17
 1798 0afa F003     		.2byte	0x3f0
 1799 0afc 1E       		.uleb128 0x1e
 1800 0afd 543300   		.ascii	"T3\000"
 1801 0b00 13       		.byte	0x13
 1802 0b01 48       		.byte	0x48
 1803 0b02 05       		.byte	0x5
 1804 0b03 170B0000 		.4byte	0xb17
 1805 0b07 E805     		.2byte	0x5e8
 1806 0b09 1E       		.uleb128 0x1e
 1807 0b0a 543400   		.ascii	"T4\000"
 1808 0b0d 13       		.byte	0x13
 1809 0b0e 49       		.byte	0x49
 1810 0b0f 05       		.byte	0x5
 1811 0b10 170B0000 		.4byte	0xb17
 1812 0b14 E007     		.2byte	0x7e0
 1813 0b16 00       		.byte	0
 1814 0b17 18       		.uleb128 0x18
 1815 0b18 43050000 		.4byte	0x543
 1816 0b1c 270B0000 		.4byte	0xb27
 1817 0b20 19       		.uleb128 0x19
 1818 0b21 38000000 		.4byte	0x38
 1819 0b25 3E       		.byte	0x3e
 1820 0b26 00       		.byte	0
 1821 0b27 1F       		.uleb128 0x1f
ARM GAS  /tmp/cc2QHUcT.s 			page 33


 1822 0b28 12080000 		.4byte	.LASF178
 1823 0b2c D809     		.2byte	0x9d8
 1824 0b2e 13       		.byte	0x13
 1825 0b2f 43       		.byte	0x43
 1826 0b30 07       		.byte	0x7
 1827 0b31 4D0B0000 		.4byte	0xb4d
 1828 0b35 20       		.uleb128 0x20
 1829 0b36 776100   		.ascii	"wa\000"
 1830 0b39 13       		.byte	0x13
 1831 0b3a 4A       		.byte	0x4a
 1832 0b3b 05       		.byte	0x5
 1833 0b3c CC0A0000 		.4byte	0xacc
 1834 0b40 21       		.uleb128 0x21
 1835 0b41 C8010000 		.4byte	.LASF157
 1836 0b45 13       		.byte	0x13
 1837 0b46 4B       		.byte	0x4b
 1838 0b47 0B       		.byte	0xb
 1839 0b48 4D0B0000 		.4byte	0xb4d
 1840 0b4c 00       		.byte	0
 1841 0b4d 18       		.uleb128 0x18
 1842 0b4e 73000000 		.4byte	0x73
 1843 0b52 5E0B0000 		.4byte	0xb5e
 1844 0b56 22       		.uleb128 0x22
 1845 0b57 38000000 		.4byte	0x38
 1846 0b5b D709     		.2byte	0x9d7
 1847 0b5d 00       		.byte	0
 1848 0b5e 14       		.uleb128 0x14
 1849 0b5f D2070000 		.4byte	.LASF158
 1850 0b63 13       		.byte	0x13
 1851 0b64 4F       		.byte	0x4f
 1852 0b65 0D       		.byte	0xd
 1853 0b66 6A0B0000 		.4byte	0xb6a
 1854 0b6a 04       		.uleb128 0x4
 1855 0b6b 01       		.byte	0x1
 1856 0b6c 02       		.byte	0x2
 1857 0b6d 53060000 		.4byte	.LASF159
 1858 0b71 18       		.uleb128 0x18
 1859 0b72 A1020000 		.4byte	0x2a1
 1860 0b76 810B0000 		.4byte	0xb81
 1861 0b7a 19       		.uleb128 0x19
 1862 0b7b 38000000 		.4byte	0x38
 1863 0b7f 04       		.byte	0x4
 1864 0b80 00       		.byte	0
 1865 0b81 14       		.uleb128 0x14
 1866 0b82 95060000 		.4byte	.LASF160
 1867 0b86 13       		.byte	0x13
 1868 0b87 A7       		.byte	0xa7
 1869 0b88 12       		.byte	0x12
 1870 0b89 710B0000 		.4byte	0xb71
 1871 0b8d 14       		.uleb128 0x14
 1872 0b8e D6000000 		.4byte	.LASF161
 1873 0b92 13       		.byte	0x13
 1874 0b93 A8       		.byte	0xa8
 1875 0b94 1B       		.byte	0x1b
 1876 0b95 270B0000 		.4byte	0xb27
 1877 0b99 18       		.uleb128 0x18
 1878 0b9a 90030000 		.4byte	0x390
ARM GAS  /tmp/cc2QHUcT.s 			page 34


 1879 0b9e A40B0000 		.4byte	0xba4
 1880 0ba2 23       		.uleb128 0x23
 1881 0ba3 00       		.byte	0
 1882 0ba4 0F       		.uleb128 0xf
 1883 0ba5 990B0000 		.4byte	0xb99
 1884 0ba9 24       		.uleb128 0x24
 1885 0baa 776100   		.ascii	"wa\000"
 1886 0bad 13       		.byte	0x13
 1887 0bae A9       		.byte	0xa9
 1888 0baf 18       		.byte	0x18
 1889 0bb0 A40B0000 		.4byte	0xba4
 1890 0bb4 14       		.uleb128 0x14
 1891 0bb5 9D060000 		.4byte	.LASF162
 1892 0bb9 13       		.byte	0x13
 1893 0bba AA       		.byte	0xaa
 1894 0bbb 0D       		.byte	0xd
 1895 0bbc 6A0B0000 		.4byte	0xb6a
 1896 0bc0 25       		.uleb128 0x25
 1897 0bc1 AD060000 		.4byte	.LASF163
 1898 0bc5 01       		.byte	0x1
 1899 0bc6 5A       		.byte	0x5a
 1900 0bc7 1A       		.byte	0x1a
 1901 0bc8 C00A0000 		.4byte	0xac0
 1902 0bcc 05       		.uleb128 0x5
 1903 0bcd 03       		.byte	0x3
 1904 0bce 00000000 		.4byte	testmsg1
 1905 0bd2 18       		.uleb128 0x18
 1906 0bd3 ED0B0000 		.4byte	0xbed
 1907 0bd7 E20B0000 		.4byte	0xbe2
 1908 0bdb 19       		.uleb128 0x19
 1909 0bdc 38000000 		.4byte	0x38
 1910 0be0 01       		.byte	0x1
 1911 0be1 00       		.byte	0
 1912 0be2 0F       		.uleb128 0xf
 1913 0be3 D20B0000 		.4byte	0xbd2
 1914 0be7 0A       		.uleb128 0xa
 1915 0be8 04       		.byte	0x4
 1916 0be9 C00A0000 		.4byte	0xac0
 1917 0bed 0F       		.uleb128 0xf
 1918 0bee E70B0000 		.4byte	0xbe7
 1919 0bf2 25       		.uleb128 0x25
 1920 0bf3 D9030000 		.4byte	.LASF164
 1921 0bf7 01       		.byte	0x1
 1922 0bf8 66       		.byte	0x66
 1923 0bf9 25       		.byte	0x25
 1924 0bfa E20B0000 		.4byte	0xbe2
 1925 0bfe 05       		.uleb128 0x5
 1926 0bff 03       		.byte	0x3
 1927 0c00 00000000 		.4byte	patternmsg
 1928 0c04 26       		.uleb128 0x26
 1929 0c05 5C080000 		.4byte	.LASF165
 1930 0c09 01       		.byte	0x1
 1931 0c0a 42       		.byte	0x42
 1932 0c0b 0D       		.byte	0xd
 1933 0c0c 00000000 		.4byte	.LFB220
 1934 0c10 94000000 		.4byte	.LFE220-.LFB220
 1935 0c14 01       		.uleb128 0x1
ARM GAS  /tmp/cc2QHUcT.s 			page 35


 1936 0c15 9C       		.byte	0x9c
 1937 0c16 B40D0000 		.4byte	0xdb4
 1938 0c1a 27       		.uleb128 0x27
 1939 0c1b 747000   		.ascii	"tp\000"
 1940 0c1e 01       		.byte	0x1
 1941 0c1f 43       		.byte	0x43
 1942 0c20 0D       		.byte	0xd
 1943 0c21 A1020000 		.4byte	0x2a1
 1944 0c25 06000000 		.4byte	.LLST0
 1945 0c29 00000000 		.4byte	.LVUS0
 1946 0c2d 27       		.uleb128 0x27
 1947 0c2e 6D736700 		.ascii	"msg\000"
 1948 0c32 01       		.byte	0x1
 1949 0c33 44       		.byte	0x44
 1950 0c34 09       		.byte	0x9
 1951 0c35 13010000 		.4byte	0x113
 1952 0c39 33000000 		.4byte	.LLST1
 1953 0c3d 2F000000 		.4byte	.LVUS1
 1954 0c41 28       		.uleb128 0x28
 1955 0c42 520E0000 		.4byte	0xe52
 1956 0c46 22000000 		.4byte	.LBI16
 1957 0c4a 03       		.byte	.LVU12
 1958 0c4b 00000000 		.4byte	.Ldebug_ranges0+0
 1959 0c4f 01       		.byte	0x1
 1960 0c50 49       		.byte	0x49
 1961 0c51 32       		.byte	0x32
 1962 0c52 680C0000 		.4byte	0xc68
 1963 0c56 29       		.uleb128 0x29
 1964 0c57 5F0E0000 		.4byte	0xe5f
 1965 0c5b 22000000 		.4byte	.LBI18
 1966 0c5f 05       		.byte	.LVU14
 1967 0c60 20000000 		.4byte	.Ldebug_ranges0+0x20
 1968 0c64 02       		.byte	0x2
 1969 0c65 BD       		.byte	0xbd
 1970 0c66 0A       		.byte	0xa
 1971 0c67 00       		.byte	0
 1972 0c68 2A       		.uleb128 0x2a
 1973 0c69 350E0000 		.4byte	0xe35
 1974 0c6d 2E000000 		.4byte	.LBI28
 1975 0c71 01       		.byte	.LVU22
 1976 0c72 2E000000 		.4byte	.LBB28
 1977 0c76 02000000 		.4byte	.LBE28-.LBB28
 1978 0c7a 01       		.byte	0x1
 1979 0c7b 4C       		.byte	0x4c
 1980 0c7c 09       		.byte	0x9
 1981 0c7d 8F0C0000 		.4byte	0xc8f
 1982 0c81 2B       		.uleb128 0x2b
 1983 0c82 460E0000 		.4byte	0xe46
 1984 0c86 53000000 		.4byte	.LLST2
 1985 0c8a 51000000 		.4byte	.LVUS2
 1986 0c8e 00       		.byte	0
 1987 0c8f 2A       		.uleb128 0x2a
 1988 0c90 350E0000 		.4byte	0xe35
 1989 0c94 40000000 		.4byte	.LBI30
 1990 0c98 01       		.byte	.LVU31
 1991 0c99 40000000 		.4byte	.LBB30
 1992 0c9d 02000000 		.4byte	.LBE30-.LBB30
ARM GAS  /tmp/cc2QHUcT.s 			page 36


 1993 0ca1 01       		.byte	0x1
 1994 0ca2 50       		.byte	0x50
 1995 0ca3 09       		.byte	0x9
 1996 0ca4 B60C0000 		.4byte	0xcb6
 1997 0ca8 2B       		.uleb128 0x2b
 1998 0ca9 460E0000 		.4byte	0xe46
 1999 0cad 68000000 		.4byte	.LLST3
 2000 0cb1 66000000 		.4byte	.LVUS3
 2001 0cb5 00       		.byte	0
 2002 0cb6 2A       		.uleb128 0x2a
 2003 0cb7 350E0000 		.4byte	0xe35
 2004 0cbb 52000000 		.4byte	.LBI32
 2005 0cbf 01       		.byte	.LVU40
 2006 0cc0 52000000 		.4byte	.LBB32
 2007 0cc4 02000000 		.4byte	.LBE32-.LBB32
 2008 0cc8 01       		.byte	0x1
 2009 0cc9 54       		.byte	0x54
 2010 0cca 09       		.byte	0x9
 2011 0ccb DD0C0000 		.4byte	0xcdd
 2012 0ccf 2B       		.uleb128 0x2b
 2013 0cd0 460E0000 		.4byte	0xe46
 2014 0cd4 7D000000 		.4byte	.LLST4
 2015 0cd8 7B000000 		.4byte	.LVUS4
 2016 0cdc 00       		.byte	0
 2017 0cdd 2C       		.uleb128 0x2c
 2018 0cde 26000000 		.4byte	.LVL0
 2019 0ce2 6C0E0000 		.4byte	0xe6c
 2020 0ce6 FB0C0000 		.4byte	0xcfb
 2021 0cea 2D       		.uleb128 0x2d
 2022 0ceb 01       		.uleb128 0x1
 2023 0cec 51       		.byte	0x51
 2024 0ced 03       		.uleb128 0x3
 2025 0cee 0A       		.byte	0xa
 2026 0cef F801     		.2byte	0x1f8
 2027 0cf1 2D       		.uleb128 0x2d
 2028 0cf2 01       		.uleb128 0x1
 2029 0cf3 53       		.byte	0x53
 2030 0cf4 05       		.uleb128 0x5
 2031 0cf5 03       		.byte	0x3
 2032 0cf6 00000000 		.4byte	thread
 2033 0cfa 00       		.byte	0
 2034 0cfb 2E       		.uleb128 0x2e
 2035 0cfc 2E000000 		.4byte	.LVL1
 2036 0d00 780E0000 		.4byte	0xe78
 2037 0d04 2C       		.uleb128 0x2c
 2038 0d05 36000000 		.4byte	.LVL3
 2039 0d09 840E0000 		.4byte	0xe84
 2040 0d0d 180D0000 		.4byte	0xd18
 2041 0d11 2D       		.uleb128 0x2d
 2042 0d12 01       		.uleb128 0x1
 2043 0d13 51       		.byte	0x51
 2044 0d14 02       		.uleb128 0x2
 2045 0d15 74       		.byte	0x74
 2046 0d16 00       		.sleb128 0
 2047 0d17 00       		.byte	0
 2048 0d18 2C       		.uleb128 0x2c
 2049 0d19 3C000000 		.4byte	.LVL4
ARM GAS  /tmp/cc2QHUcT.s 			page 37


 2050 0d1d 900E0000 		.4byte	0xe90
 2051 0d21 2C0D0000 		.4byte	0xd2c
 2052 0d25 2D       		.uleb128 0x2d
 2053 0d26 01       		.uleb128 0x1
 2054 0d27 50       		.byte	0x50
 2055 0d28 02       		.uleb128 0x2
 2056 0d29 74       		.byte	0x74
 2057 0d2a 00       		.sleb128 0
 2058 0d2b 00       		.byte	0
 2059 0d2c 2E       		.uleb128 0x2e
 2060 0d2d 40000000 		.4byte	.LVL5
 2061 0d31 780E0000 		.4byte	0xe78
 2062 0d35 2C       		.uleb128 0x2c
 2063 0d36 48000000 		.4byte	.LVL7
 2064 0d3a 840E0000 		.4byte	0xe84
 2065 0d3e 490D0000 		.4byte	0xd49
 2066 0d42 2D       		.uleb128 0x2d
 2067 0d43 01       		.uleb128 0x1
 2068 0d44 51       		.byte	0x51
 2069 0d45 02       		.uleb128 0x2
 2070 0d46 74       		.byte	0x74
 2071 0d47 00       		.sleb128 0
 2072 0d48 00       		.byte	0
 2073 0d49 2C       		.uleb128 0x2c
 2074 0d4a 4E000000 		.4byte	.LVL8
 2075 0d4e 900E0000 		.4byte	0xe90
 2076 0d52 5D0D0000 		.4byte	0xd5d
 2077 0d56 2D       		.uleb128 0x2d
 2078 0d57 01       		.uleb128 0x1
 2079 0d58 50       		.byte	0x50
 2080 0d59 02       		.uleb128 0x2
 2081 0d5a 74       		.byte	0x74
 2082 0d5b 00       		.sleb128 0
 2083 0d5c 00       		.byte	0
 2084 0d5d 2E       		.uleb128 0x2e
 2085 0d5e 52000000 		.4byte	.LVL9
 2086 0d62 780E0000 		.4byte	0xe78
 2087 0d66 2C       		.uleb128 0x2c
 2088 0d67 5A000000 		.4byte	.LVL11
 2089 0d6b 840E0000 		.4byte	0xe84
 2090 0d6f 7A0D0000 		.4byte	0xd7a
 2091 0d73 2D       		.uleb128 0x2d
 2092 0d74 01       		.uleb128 0x1
 2093 0d75 51       		.byte	0x51
 2094 0d76 02       		.uleb128 0x2
 2095 0d77 74       		.byte	0x74
 2096 0d78 00       		.sleb128 0
 2097 0d79 00       		.byte	0
 2098 0d7a 2C       		.uleb128 0x2c
 2099 0d7b 60000000 		.4byte	.LVL12
 2100 0d7f 900E0000 		.4byte	0xe90
 2101 0d83 8E0D0000 		.4byte	0xd8e
 2102 0d87 2D       		.uleb128 0x2d
 2103 0d88 01       		.uleb128 0x1
 2104 0d89 50       		.byte	0x50
 2105 0d8a 02       		.uleb128 0x2
 2106 0d8b 74       		.byte	0x74
ARM GAS  /tmp/cc2QHUcT.s 			page 38


 2107 0d8c 00       		.sleb128 0
 2108 0d8d 00       		.byte	0
 2109 0d8e 2F       		.uleb128 0x2f
 2110 0d8f 78000000 		.4byte	.LVL14
 2111 0d93 9C0E0000 		.4byte	0xe9c
 2112 0d97 AA0D0000 		.4byte	0xdaa
 2113 0d9b 2D       		.uleb128 0x2d
 2114 0d9c 01       		.uleb128 0x1
 2115 0d9d 50       		.byte	0x50
 2116 0d9e 01       		.uleb128 0x1
 2117 0d9f 31       		.byte	0x31
 2118 0da0 2D       		.uleb128 0x2d
 2119 0da1 01       		.uleb128 0x1
 2120 0da2 51       		.byte	0x51
 2121 0da3 05       		.uleb128 0x5
 2122 0da4 03       		.byte	0x3
 2123 0da5 00000000 		.4byte	.LC0
 2124 0da9 00       		.byte	0
 2125 0daa 2E       		.uleb128 0x2e
 2126 0dab 7C000000 		.4byte	.LVL15
 2127 0daf A80E0000 		.4byte	0xea8
 2128 0db3 00       		.byte	0
 2129 0db4 26       		.uleb128 0x26
 2130 0db5 43060000 		.4byte	.LASF166
 2131 0db9 01       		.byte	0x1
 2132 0dba 3B       		.byte	0x3b
 2133 0dbb 08       		.byte	0x8
 2134 0dbc 00000000 		.4byte	.LFB219
 2135 0dc0 40000000 		.4byte	.LFE219-.LFB219
 2136 0dc4 01       		.uleb128 0x1
 2137 0dc5 9C       		.byte	0x9c
 2138 0dc6 350E0000 		.4byte	0xe35
 2139 0dca 30       		.uleb128 0x30
 2140 0dcb 7000     		.ascii	"p\000"
 2141 0dcd 01       		.byte	0x1
 2142 0dce 3B       		.byte	0x3b
 2143 0dcf 08       		.byte	0x8
 2144 0dd0 8E030000 		.4byte	0x38e
 2145 0dd4 9A000000 		.4byte	.LLST5
 2146 0dd8 90000000 		.4byte	.LVUS5
 2147 0ddc 2C       		.uleb128 0x2c
 2148 0ddd 16000000 		.4byte	.LVL17
 2149 0de1 B10E0000 		.4byte	0xeb1
 2150 0de5 F60D0000 		.4byte	0xdf6
 2151 0de9 2D       		.uleb128 0x2d
 2152 0dea 01       		.uleb128 0x1
 2153 0deb 50       		.byte	0x50
 2154 0dec 02       		.uleb128 0x2
 2155 0ded 74       		.byte	0x74
 2156 0dee 00       		.sleb128 0
 2157 0def 2D       		.uleb128 0x2d
 2158 0df0 01       		.uleb128 0x1
 2159 0df1 51       		.byte	0x51
 2160 0df2 02       		.uleb128 0x2
 2161 0df3 08       		.byte	0x8
 2162 0df4 41       		.byte	0x41
 2163 0df5 00       		.byte	0
ARM GAS  /tmp/cc2QHUcT.s 			page 39


 2164 0df6 2C       		.uleb128 0x2c
 2165 0df7 1E000000 		.4byte	.LVL18
 2166 0dfb B10E0000 		.4byte	0xeb1
 2167 0dff 100E0000 		.4byte	0xe10
 2168 0e03 2D       		.uleb128 0x2d
 2169 0e04 01       		.uleb128 0x1
 2170 0e05 50       		.byte	0x50
 2171 0e06 02       		.uleb128 0x2
 2172 0e07 74       		.byte	0x74
 2173 0e08 00       		.sleb128 0
 2174 0e09 2D       		.uleb128 0x2d
 2175 0e0a 01       		.uleb128 0x1
 2176 0e0b 51       		.byte	0x51
 2177 0e0c 02       		.uleb128 0x2
 2178 0e0d 08       		.byte	0x8
 2179 0e0e 42       		.byte	0x42
 2180 0e0f 00       		.byte	0
 2181 0e10 2F       		.uleb128 0x2f
 2182 0e11 36000000 		.4byte	.LVL20
 2183 0e15 B10E0000 		.4byte	0xeb1
 2184 0e19 2B0E0000 		.4byte	0xe2b
 2185 0e1d 2D       		.uleb128 0x2d
 2186 0e1e 01       		.uleb128 0x1
 2187 0e1f 50       		.byte	0x50
 2188 0e20 03       		.uleb128 0x3
 2189 0e21 F3       		.byte	0xf3
 2190 0e22 01       		.uleb128 0x1
 2191 0e23 50       		.byte	0x50
 2192 0e24 2D       		.uleb128 0x2d
 2193 0e25 01       		.uleb128 0x1
 2194 0e26 51       		.byte	0x51
 2195 0e27 02       		.uleb128 0x2
 2196 0e28 08       		.byte	0x8
 2197 0e29 43       		.byte	0x43
 2198 0e2a 00       		.byte	0
 2199 0e2b 2E       		.uleb128 0x2e
 2200 0e2c 3A000000 		.4byte	.LVL21
 2201 0e30 A80E0000 		.4byte	0xea8
 2202 0e34 00       		.byte	0
 2203 0e35 31       		.uleb128 0x31
 2204 0e36 A0020000 		.4byte	.LASF179
 2205 0e3a 03       		.byte	0x3
 2206 0e3b 60       		.byte	0x60
 2207 0e3c 15       		.byte	0x15
 2208 0e3d 13010000 		.4byte	0x113
 2209 0e41 03       		.byte	0x3
 2210 0e42 520E0000 		.4byte	0xe52
 2211 0e46 32       		.uleb128 0x32
 2212 0e47 747000   		.ascii	"tp\000"
 2213 0e4a 03       		.byte	0x3
 2214 0e4b 60       		.byte	0x60
 2215 0e4c 28       		.byte	0x28
 2216 0e4d A1020000 		.4byte	0x2a1
 2217 0e51 00       		.byte	0
 2218 0e52 33       		.uleb128 0x33
 2219 0e53 62040000 		.4byte	.LASF167
 2220 0e57 02       		.byte	0x2
ARM GAS  /tmp/cc2QHUcT.s 			page 40


 2221 0e58 BB       		.byte	0xbb
 2222 0e59 17       		.byte	0x17
 2223 0e5a 07010000 		.4byte	0x107
 2224 0e5e 03       		.byte	0x3
 2225 0e5f 33       		.uleb128 0x33
 2226 0e60 46080000 		.4byte	.LASF168
 2227 0e64 02       		.byte	0x2
 2228 0e65 AE       		.byte	0xae
 2229 0e66 19       		.byte	0x19
 2230 0e67 A1020000 		.4byte	0x2a1
 2231 0e6b 03       		.byte	0x3
 2232 0e6c 34       		.uleb128 0x34
 2233 0e6d 93030000 		.4byte	.LASF169
 2234 0e71 93030000 		.4byte	.LASF169
 2235 0e75 02       		.byte	0x2
 2236 0e76 89       		.byte	0x89
 2237 0e77 0D       		.byte	0xd
 2238 0e78 34       		.uleb128 0x34
 2239 0e79 FF070000 		.4byte	.LASF170
 2240 0e7d FF070000 		.4byte	.LASF170
 2241 0e81 03       		.byte	0x3
 2242 0e82 3D       		.byte	0x3d
 2243 0e83 0E       		.byte	0xe
 2244 0e84 34       		.uleb128 0x34
 2245 0e85 0C070000 		.4byte	.LASF171
 2246 0e89 0C070000 		.4byte	.LASF171
 2247 0e8d 03       		.byte	0x3
 2248 0e8e 3E       		.byte	0x3e
 2249 0e8f 08       		.byte	0x8
 2250 0e90 34       		.uleb128 0x34
 2251 0e91 6B010000 		.4byte	.LASF172
 2252 0e95 6B010000 		.4byte	.LASF172
 2253 0e99 13       		.byte	0x13
 2254 0e9a 58       		.byte	0x58
 2255 0e9b 08       		.byte	0x8
 2256 0e9c 34       		.uleb128 0x34
 2257 0e9d 7A040000 		.4byte	.LASF173
 2258 0ea1 7A040000 		.4byte	.LASF173
 2259 0ea5 13       		.byte	0x13
 2260 0ea6 5B       		.byte	0x5b
 2261 0ea7 08       		.byte	0x8
 2262 0ea8 35       		.uleb128 0x35
 2263 0ea9 19070000 		.4byte	.LASF180
 2264 0ead 19070000 		.4byte	.LASF180
 2265 0eb1 34       		.uleb128 0x34
 2266 0eb2 A5010000 		.4byte	.LASF174
 2267 0eb6 A5010000 		.4byte	.LASF174
 2268 0eba 03       		.byte	0x3
 2269 0ebb 3C       		.byte	0x3c
 2270 0ebc 09       		.byte	0x9
 2271 0ebd 00       		.byte	0
 2272              		.section	.debug_abbrev,"",%progbits
 2273              	.Ldebug_abbrev0:
 2274 0000 01       		.uleb128 0x1
 2275 0001 11       		.uleb128 0x11
 2276 0002 01       		.byte	0x1
 2277 0003 25       		.uleb128 0x25
ARM GAS  /tmp/cc2QHUcT.s 			page 41


 2278 0004 0E       		.uleb128 0xe
 2279 0005 13       		.uleb128 0x13
 2280 0006 0B       		.uleb128 0xb
 2281 0007 03       		.uleb128 0x3
 2282 0008 0E       		.uleb128 0xe
 2283 0009 1B       		.uleb128 0x1b
 2284 000a 0E       		.uleb128 0xe
 2285 000b 55       		.uleb128 0x55
 2286 000c 17       		.uleb128 0x17
 2287 000d 11       		.uleb128 0x11
 2288 000e 01       		.uleb128 0x1
 2289 000f 10       		.uleb128 0x10
 2290 0010 17       		.uleb128 0x17
 2291 0011 00       		.byte	0
 2292 0012 00       		.byte	0
 2293 0013 02       		.uleb128 0x2
 2294 0014 24       		.uleb128 0x24
 2295 0015 00       		.byte	0
 2296 0016 0B       		.uleb128 0xb
 2297 0017 0B       		.uleb128 0xb
 2298 0018 3E       		.uleb128 0x3e
 2299 0019 0B       		.uleb128 0xb
 2300 001a 03       		.uleb128 0x3
 2301 001b 08       		.uleb128 0x8
 2302 001c 00       		.byte	0
 2303 001d 00       		.byte	0
 2304 001e 03       		.uleb128 0x3
 2305 001f 16       		.uleb128 0x16
 2306 0020 00       		.byte	0
 2307 0021 03       		.uleb128 0x3
 2308 0022 0E       		.uleb128 0xe
 2309 0023 3A       		.uleb128 0x3a
 2310 0024 0B       		.uleb128 0xb
 2311 0025 3B       		.uleb128 0x3b
 2312 0026 0B       		.uleb128 0xb
 2313 0027 39       		.uleb128 0x39
 2314 0028 0B       		.uleb128 0xb
 2315 0029 49       		.uleb128 0x49
 2316 002a 13       		.uleb128 0x13
 2317 002b 00       		.byte	0
 2318 002c 00       		.byte	0
 2319 002d 04       		.uleb128 0x4
 2320 002e 24       		.uleb128 0x24
 2321 002f 00       		.byte	0
 2322 0030 0B       		.uleb128 0xb
 2323 0031 0B       		.uleb128 0xb
 2324 0032 3E       		.uleb128 0x3e
 2325 0033 0B       		.uleb128 0xb
 2326 0034 03       		.uleb128 0x3
 2327 0035 0E       		.uleb128 0xe
 2328 0036 00       		.byte	0
 2329 0037 00       		.byte	0
 2330 0038 05       		.uleb128 0x5
 2331 0039 35       		.uleb128 0x35
 2332 003a 00       		.byte	0
 2333 003b 49       		.uleb128 0x49
 2334 003c 13       		.uleb128 0x13
ARM GAS  /tmp/cc2QHUcT.s 			page 42


 2335 003d 00       		.byte	0
 2336 003e 00       		.byte	0
 2337 003f 06       		.uleb128 0x6
 2338 0040 13       		.uleb128 0x13
 2339 0041 01       		.byte	0x1
 2340 0042 03       		.uleb128 0x3
 2341 0043 0E       		.uleb128 0xe
 2342 0044 0B       		.uleb128 0xb
 2343 0045 0B       		.uleb128 0xb
 2344 0046 3A       		.uleb128 0x3a
 2345 0047 0B       		.uleb128 0xb
 2346 0048 3B       		.uleb128 0x3b
 2347 0049 0B       		.uleb128 0xb
 2348 004a 39       		.uleb128 0x39
 2349 004b 0B       		.uleb128 0xb
 2350 004c 01       		.uleb128 0x1
 2351 004d 13       		.uleb128 0x13
 2352 004e 00       		.byte	0
 2353 004f 00       		.byte	0
 2354 0050 07       		.uleb128 0x7
 2355 0051 0D       		.uleb128 0xd
 2356 0052 00       		.byte	0
 2357 0053 03       		.uleb128 0x3
 2358 0054 0E       		.uleb128 0xe
 2359 0055 3A       		.uleb128 0x3a
 2360 0056 0B       		.uleb128 0xb
 2361 0057 3B       		.uleb128 0x3b
 2362 0058 0B       		.uleb128 0xb
 2363 0059 39       		.uleb128 0x39
 2364 005a 0B       		.uleb128 0xb
 2365 005b 49       		.uleb128 0x49
 2366 005c 13       		.uleb128 0x13
 2367 005d 38       		.uleb128 0x38
 2368 005e 0B       		.uleb128 0xb
 2369 005f 00       		.byte	0
 2370 0060 00       		.byte	0
 2371 0061 08       		.uleb128 0x8
 2372 0062 0D       		.uleb128 0xd
 2373 0063 00       		.byte	0
 2374 0064 03       		.uleb128 0x3
 2375 0065 08       		.uleb128 0x8
 2376 0066 3A       		.uleb128 0x3a
 2377 0067 0B       		.uleb128 0xb
 2378 0068 3B       		.uleb128 0x3b
 2379 0069 05       		.uleb128 0x5
 2380 006a 39       		.uleb128 0x39
 2381 006b 0B       		.uleb128 0xb
 2382 006c 49       		.uleb128 0x49
 2383 006d 13       		.uleb128 0x13
 2384 006e 38       		.uleb128 0x38
 2385 006f 0B       		.uleb128 0xb
 2386 0070 00       		.byte	0
 2387 0071 00       		.byte	0
 2388 0072 09       		.uleb128 0x9
 2389 0073 0D       		.uleb128 0xd
 2390 0074 00       		.byte	0
 2391 0075 03       		.uleb128 0x3
ARM GAS  /tmp/cc2QHUcT.s 			page 43


 2392 0076 0E       		.uleb128 0xe
 2393 0077 3A       		.uleb128 0x3a
 2394 0078 0B       		.uleb128 0xb
 2395 0079 3B       		.uleb128 0x3b
 2396 007a 05       		.uleb128 0x5
 2397 007b 39       		.uleb128 0x39
 2398 007c 0B       		.uleb128 0xb
 2399 007d 49       		.uleb128 0x49
 2400 007e 13       		.uleb128 0x13
 2401 007f 38       		.uleb128 0x38
 2402 0080 0B       		.uleb128 0xb
 2403 0081 00       		.byte	0
 2404 0082 00       		.byte	0
 2405 0083 0A       		.uleb128 0xa
 2406 0084 0F       		.uleb128 0xf
 2407 0085 00       		.byte	0
 2408 0086 0B       		.uleb128 0xb
 2409 0087 0B       		.uleb128 0xb
 2410 0088 49       		.uleb128 0x49
 2411 0089 13       		.uleb128 0x13
 2412 008a 00       		.byte	0
 2413 008b 00       		.byte	0
 2414 008c 0B       		.uleb128 0xb
 2415 008d 13       		.uleb128 0x13
 2416 008e 01       		.byte	0x1
 2417 008f 03       		.uleb128 0x3
 2418 0090 0E       		.uleb128 0xe
 2419 0091 0B       		.uleb128 0xb
 2420 0092 0B       		.uleb128 0xb
 2421 0093 3A       		.uleb128 0x3a
 2422 0094 0B       		.uleb128 0xb
 2423 0095 3B       		.uleb128 0x3b
 2424 0096 05       		.uleb128 0x5
 2425 0097 39       		.uleb128 0x39
 2426 0098 0B       		.uleb128 0xb
 2427 0099 01       		.uleb128 0x1
 2428 009a 13       		.uleb128 0x13
 2429 009b 00       		.byte	0
 2430 009c 00       		.byte	0
 2431 009d 0C       		.uleb128 0xc
 2432 009e 15       		.uleb128 0x15
 2433 009f 01       		.byte	0x1
 2434 00a0 27       		.uleb128 0x27
 2435 00a1 19       		.uleb128 0x19
 2436 00a2 01       		.uleb128 0x1
 2437 00a3 13       		.uleb128 0x13
 2438 00a4 00       		.byte	0
 2439 00a5 00       		.byte	0
 2440 00a6 0D       		.uleb128 0xd
 2441 00a7 05       		.uleb128 0x5
 2442 00a8 00       		.byte	0
 2443 00a9 49       		.uleb128 0x49
 2444 00aa 13       		.uleb128 0x13
 2445 00ab 00       		.byte	0
 2446 00ac 00       		.byte	0
 2447 00ad 0E       		.uleb128 0xe
 2448 00ae 0F       		.uleb128 0xf
ARM GAS  /tmp/cc2QHUcT.s 			page 44


 2449 00af 00       		.byte	0
 2450 00b0 0B       		.uleb128 0xb
 2451 00b1 0B       		.uleb128 0xb
 2452 00b2 00       		.byte	0
 2453 00b3 00       		.byte	0
 2454 00b4 0F       		.uleb128 0xf
 2455 00b5 26       		.uleb128 0x26
 2456 00b6 00       		.byte	0
 2457 00b7 49       		.uleb128 0x49
 2458 00b8 13       		.uleb128 0x13
 2459 00b9 00       		.byte	0
 2460 00ba 00       		.byte	0
 2461 00bb 10       		.uleb128 0x10
 2462 00bc 13       		.uleb128 0x13
 2463 00bd 01       		.byte	0x1
 2464 00be 03       		.uleb128 0x3
 2465 00bf 0E       		.uleb128 0xe
 2466 00c0 0B       		.uleb128 0xb
 2467 00c1 05       		.uleb128 0x5
 2468 00c2 3A       		.uleb128 0x3a
 2469 00c3 0B       		.uleb128 0xb
 2470 00c4 3B       		.uleb128 0x3b
 2471 00c5 05       		.uleb128 0x5
 2472 00c6 39       		.uleb128 0x39
 2473 00c7 0B       		.uleb128 0xb
 2474 00c8 01       		.uleb128 0x1
 2475 00c9 13       		.uleb128 0x13
 2476 00ca 00       		.byte	0
 2477 00cb 00       		.byte	0
 2478 00cc 11       		.uleb128 0x11
 2479 00cd 0D       		.uleb128 0xd
 2480 00ce 00       		.byte	0
 2481 00cf 03       		.uleb128 0x3
 2482 00d0 0E       		.uleb128 0xe
 2483 00d1 3A       		.uleb128 0x3a
 2484 00d2 0B       		.uleb128 0xb
 2485 00d3 3B       		.uleb128 0x3b
 2486 00d4 05       		.uleb128 0x5
 2487 00d5 39       		.uleb128 0x39
 2488 00d6 0B       		.uleb128 0xb
 2489 00d7 49       		.uleb128 0x49
 2490 00d8 13       		.uleb128 0x13
 2491 00d9 38       		.uleb128 0x38
 2492 00da 05       		.uleb128 0x5
 2493 00db 00       		.byte	0
 2494 00dc 00       		.byte	0
 2495 00dd 12       		.uleb128 0x12
 2496 00de 0D       		.uleb128 0xd
 2497 00df 00       		.byte	0
 2498 00e0 03       		.uleb128 0x3
 2499 00e1 08       		.uleb128 0x8
 2500 00e2 3A       		.uleb128 0x3a
 2501 00e3 0B       		.uleb128 0xb
 2502 00e4 3B       		.uleb128 0x3b
 2503 00e5 05       		.uleb128 0x5
 2504 00e6 39       		.uleb128 0x39
 2505 00e7 0B       		.uleb128 0xb
ARM GAS  /tmp/cc2QHUcT.s 			page 45


 2506 00e8 49       		.uleb128 0x49
 2507 00e9 13       		.uleb128 0x13
 2508 00ea 38       		.uleb128 0x38
 2509 00eb 05       		.uleb128 0x5
 2510 00ec 00       		.byte	0
 2511 00ed 00       		.byte	0
 2512 00ee 13       		.uleb128 0x13
 2513 00ef 34       		.uleb128 0x34
 2514 00f0 00       		.byte	0
 2515 00f1 03       		.uleb128 0x3
 2516 00f2 0E       		.uleb128 0xe
 2517 00f3 3A       		.uleb128 0x3a
 2518 00f4 0B       		.uleb128 0xb
 2519 00f5 3B       		.uleb128 0x3b
 2520 00f6 05       		.uleb128 0x5
 2521 00f7 39       		.uleb128 0x39
 2522 00f8 0B       		.uleb128 0xb
 2523 00f9 49       		.uleb128 0x49
 2524 00fa 13       		.uleb128 0x13
 2525 00fb 3F       		.uleb128 0x3f
 2526 00fc 19       		.uleb128 0x19
 2527 00fd 3C       		.uleb128 0x3c
 2528 00fe 19       		.uleb128 0x19
 2529 00ff 00       		.byte	0
 2530 0100 00       		.byte	0
 2531 0101 14       		.uleb128 0x14
 2532 0102 34       		.uleb128 0x34
 2533 0103 00       		.byte	0
 2534 0104 03       		.uleb128 0x3
 2535 0105 0E       		.uleb128 0xe
 2536 0106 3A       		.uleb128 0x3a
 2537 0107 0B       		.uleb128 0xb
 2538 0108 3B       		.uleb128 0x3b
 2539 0109 0B       		.uleb128 0xb
 2540 010a 39       		.uleb128 0x39
 2541 010b 0B       		.uleb128 0xb
 2542 010c 49       		.uleb128 0x49
 2543 010d 13       		.uleb128 0x13
 2544 010e 3F       		.uleb128 0x3f
 2545 010f 19       		.uleb128 0x19
 2546 0110 3C       		.uleb128 0x3c
 2547 0111 19       		.uleb128 0x19
 2548 0112 00       		.byte	0
 2549 0113 00       		.byte	0
 2550 0114 15       		.uleb128 0x15
 2551 0115 0D       		.uleb128 0xd
 2552 0116 00       		.byte	0
 2553 0117 03       		.uleb128 0x3
 2554 0118 08       		.uleb128 0x8
 2555 0119 3A       		.uleb128 0x3a
 2556 011a 0B       		.uleb128 0xb
 2557 011b 3B       		.uleb128 0x3b
 2558 011c 0B       		.uleb128 0xb
 2559 011d 39       		.uleb128 0x39
 2560 011e 0B       		.uleb128 0xb
 2561 011f 49       		.uleb128 0x49
 2562 0120 13       		.uleb128 0x13
ARM GAS  /tmp/cc2QHUcT.s 			page 46


 2563 0121 38       		.uleb128 0x38
 2564 0122 0B       		.uleb128 0xb
 2565 0123 00       		.byte	0
 2566 0124 00       		.byte	0
 2567 0125 16       		.uleb128 0x16
 2568 0126 13       		.uleb128 0x13
 2569 0127 01       		.byte	0x1
 2570 0128 0B       		.uleb128 0xb
 2571 0129 0B       		.uleb128 0xb
 2572 012a 3A       		.uleb128 0x3a
 2573 012b 0B       		.uleb128 0xb
 2574 012c 3B       		.uleb128 0x3b
 2575 012d 0B       		.uleb128 0xb
 2576 012e 39       		.uleb128 0x39
 2577 012f 0B       		.uleb128 0xb
 2578 0130 01       		.uleb128 0x1
 2579 0131 13       		.uleb128 0x13
 2580 0132 00       		.byte	0
 2581 0133 00       		.byte	0
 2582 0134 17       		.uleb128 0x17
 2583 0135 13       		.uleb128 0x13
 2584 0136 01       		.byte	0x1
 2585 0137 0B       		.uleb128 0xb
 2586 0138 05       		.uleb128 0x5
 2587 0139 3A       		.uleb128 0x3a
 2588 013a 0B       		.uleb128 0xb
 2589 013b 3B       		.uleb128 0x3b
 2590 013c 0B       		.uleb128 0xb
 2591 013d 39       		.uleb128 0x39
 2592 013e 0B       		.uleb128 0xb
 2593 013f 01       		.uleb128 0x1
 2594 0140 13       		.uleb128 0x13
 2595 0141 00       		.byte	0
 2596 0142 00       		.byte	0
 2597 0143 18       		.uleb128 0x18
 2598 0144 01       		.uleb128 0x1
 2599 0145 01       		.byte	0x1
 2600 0146 49       		.uleb128 0x49
 2601 0147 13       		.uleb128 0x13
 2602 0148 01       		.uleb128 0x1
 2603 0149 13       		.uleb128 0x13
 2604 014a 00       		.byte	0
 2605 014b 00       		.byte	0
 2606 014c 19       		.uleb128 0x19
 2607 014d 21       		.uleb128 0x21
 2608 014e 00       		.byte	0
 2609 014f 49       		.uleb128 0x49
 2610 0150 13       		.uleb128 0x13
 2611 0151 2F       		.uleb128 0x2f
 2612 0152 0B       		.uleb128 0xb
 2613 0153 00       		.byte	0
 2614 0154 00       		.byte	0
 2615 0155 1A       		.uleb128 0x1a
 2616 0156 17       		.uleb128 0x17
 2617 0157 01       		.byte	0x1
 2618 0158 0B       		.uleb128 0xb
 2619 0159 0B       		.uleb128 0xb
ARM GAS  /tmp/cc2QHUcT.s 			page 47


 2620 015a 3A       		.uleb128 0x3a
 2621 015b 0B       		.uleb128 0xb
 2622 015c 3B       		.uleb128 0x3b
 2623 015d 0B       		.uleb128 0xb
 2624 015e 39       		.uleb128 0x39
 2625 015f 0B       		.uleb128 0xb
 2626 0160 01       		.uleb128 0x1
 2627 0161 13       		.uleb128 0x13
 2628 0162 00       		.byte	0
 2629 0163 00       		.byte	0
 2630 0164 1B       		.uleb128 0x1b
 2631 0165 0D       		.uleb128 0xd
 2632 0166 00       		.byte	0
 2633 0167 03       		.uleb128 0x3
 2634 0168 0E       		.uleb128 0xe
 2635 0169 3A       		.uleb128 0x3a
 2636 016a 0B       		.uleb128 0xb
 2637 016b 3B       		.uleb128 0x3b
 2638 016c 05       		.uleb128 0x5
 2639 016d 39       		.uleb128 0x39
 2640 016e 0B       		.uleb128 0xb
 2641 016f 49       		.uleb128 0x49
 2642 0170 13       		.uleb128 0x13
 2643 0171 00       		.byte	0
 2644 0172 00       		.byte	0
 2645 0173 1C       		.uleb128 0x1c
 2646 0174 34       		.uleb128 0x34
 2647 0175 00       		.byte	0
 2648 0176 03       		.uleb128 0x3
 2649 0177 08       		.uleb128 0x8
 2650 0178 3A       		.uleb128 0x3a
 2651 0179 0B       		.uleb128 0xb
 2652 017a 3B       		.uleb128 0x3b
 2653 017b 05       		.uleb128 0x5
 2654 017c 39       		.uleb128 0x39
 2655 017d 0B       		.uleb128 0xb
 2656 017e 49       		.uleb128 0x49
 2657 017f 13       		.uleb128 0x13
 2658 0180 3F       		.uleb128 0x3f
 2659 0181 19       		.uleb128 0x19
 2660 0182 3C       		.uleb128 0x3c
 2661 0183 19       		.uleb128 0x19
 2662 0184 00       		.byte	0
 2663 0185 00       		.byte	0
 2664 0186 1D       		.uleb128 0x1d
 2665 0187 15       		.uleb128 0x15
 2666 0188 00       		.byte	0
 2667 0189 27       		.uleb128 0x27
 2668 018a 19       		.uleb128 0x19
 2669 018b 00       		.byte	0
 2670 018c 00       		.byte	0
 2671 018d 1E       		.uleb128 0x1e
 2672 018e 0D       		.uleb128 0xd
 2673 018f 00       		.byte	0
 2674 0190 03       		.uleb128 0x3
 2675 0191 08       		.uleb128 0x8
 2676 0192 3A       		.uleb128 0x3a
ARM GAS  /tmp/cc2QHUcT.s 			page 48


 2677 0193 0B       		.uleb128 0xb
 2678 0194 3B       		.uleb128 0x3b
 2679 0195 0B       		.uleb128 0xb
 2680 0196 39       		.uleb128 0x39
 2681 0197 0B       		.uleb128 0xb
 2682 0198 49       		.uleb128 0x49
 2683 0199 13       		.uleb128 0x13
 2684 019a 38       		.uleb128 0x38
 2685 019b 05       		.uleb128 0x5
 2686 019c 00       		.byte	0
 2687 019d 00       		.byte	0
 2688 019e 1F       		.uleb128 0x1f
 2689 019f 17       		.uleb128 0x17
 2690 01a0 01       		.byte	0x1
 2691 01a1 03       		.uleb128 0x3
 2692 01a2 0E       		.uleb128 0xe
 2693 01a3 0B       		.uleb128 0xb
 2694 01a4 05       		.uleb128 0x5
 2695 01a5 3A       		.uleb128 0x3a
 2696 01a6 0B       		.uleb128 0xb
 2697 01a7 3B       		.uleb128 0x3b
 2698 01a8 0B       		.uleb128 0xb
 2699 01a9 39       		.uleb128 0x39
 2700 01aa 0B       		.uleb128 0xb
 2701 01ab 01       		.uleb128 0x1
 2702 01ac 13       		.uleb128 0x13
 2703 01ad 00       		.byte	0
 2704 01ae 00       		.byte	0
 2705 01af 20       		.uleb128 0x20
 2706 01b0 0D       		.uleb128 0xd
 2707 01b1 00       		.byte	0
 2708 01b2 03       		.uleb128 0x3
 2709 01b3 08       		.uleb128 0x8
 2710 01b4 3A       		.uleb128 0x3a
 2711 01b5 0B       		.uleb128 0xb
 2712 01b6 3B       		.uleb128 0x3b
 2713 01b7 0B       		.uleb128 0xb
 2714 01b8 39       		.uleb128 0x39
 2715 01b9 0B       		.uleb128 0xb
 2716 01ba 49       		.uleb128 0x49
 2717 01bb 13       		.uleb128 0x13
 2718 01bc 00       		.byte	0
 2719 01bd 00       		.byte	0
 2720 01be 21       		.uleb128 0x21
 2721 01bf 0D       		.uleb128 0xd
 2722 01c0 00       		.byte	0
 2723 01c1 03       		.uleb128 0x3
 2724 01c2 0E       		.uleb128 0xe
 2725 01c3 3A       		.uleb128 0x3a
 2726 01c4 0B       		.uleb128 0xb
 2727 01c5 3B       		.uleb128 0x3b
 2728 01c6 0B       		.uleb128 0xb
 2729 01c7 39       		.uleb128 0x39
 2730 01c8 0B       		.uleb128 0xb
 2731 01c9 49       		.uleb128 0x49
 2732 01ca 13       		.uleb128 0x13
 2733 01cb 00       		.byte	0
ARM GAS  /tmp/cc2QHUcT.s 			page 49


 2734 01cc 00       		.byte	0
 2735 01cd 22       		.uleb128 0x22
 2736 01ce 21       		.uleb128 0x21
 2737 01cf 00       		.byte	0
 2738 01d0 49       		.uleb128 0x49
 2739 01d1 13       		.uleb128 0x13
 2740 01d2 2F       		.uleb128 0x2f
 2741 01d3 05       		.uleb128 0x5
 2742 01d4 00       		.byte	0
 2743 01d5 00       		.byte	0
 2744 01d6 23       		.uleb128 0x23
 2745 01d7 21       		.uleb128 0x21
 2746 01d8 00       		.byte	0
 2747 01d9 00       		.byte	0
 2748 01da 00       		.byte	0
 2749 01db 24       		.uleb128 0x24
 2750 01dc 34       		.uleb128 0x34
 2751 01dd 00       		.byte	0
 2752 01de 03       		.uleb128 0x3
 2753 01df 08       		.uleb128 0x8
 2754 01e0 3A       		.uleb128 0x3a
 2755 01e1 0B       		.uleb128 0xb
 2756 01e2 3B       		.uleb128 0x3b
 2757 01e3 0B       		.uleb128 0xb
 2758 01e4 39       		.uleb128 0x39
 2759 01e5 0B       		.uleb128 0xb
 2760 01e6 49       		.uleb128 0x49
 2761 01e7 13       		.uleb128 0x13
 2762 01e8 3F       		.uleb128 0x3f
 2763 01e9 19       		.uleb128 0x19
 2764 01ea 3C       		.uleb128 0x3c
 2765 01eb 19       		.uleb128 0x19
 2766 01ec 00       		.byte	0
 2767 01ed 00       		.byte	0
 2768 01ee 25       		.uleb128 0x25
 2769 01ef 34       		.uleb128 0x34
 2770 01f0 00       		.byte	0
 2771 01f1 03       		.uleb128 0x3
 2772 01f2 0E       		.uleb128 0xe
 2773 01f3 3A       		.uleb128 0x3a
 2774 01f4 0B       		.uleb128 0xb
 2775 01f5 3B       		.uleb128 0x3b
 2776 01f6 0B       		.uleb128 0xb
 2777 01f7 39       		.uleb128 0x39
 2778 01f8 0B       		.uleb128 0xb
 2779 01f9 49       		.uleb128 0x49
 2780 01fa 13       		.uleb128 0x13
 2781 01fb 3F       		.uleb128 0x3f
 2782 01fc 19       		.uleb128 0x19
 2783 01fd 02       		.uleb128 0x2
 2784 01fe 18       		.uleb128 0x18
 2785 01ff 00       		.byte	0
 2786 0200 00       		.byte	0
 2787 0201 26       		.uleb128 0x26
 2788 0202 2E       		.uleb128 0x2e
 2789 0203 01       		.byte	0x1
 2790 0204 03       		.uleb128 0x3
ARM GAS  /tmp/cc2QHUcT.s 			page 50


 2791 0205 0E       		.uleb128 0xe
 2792 0206 3A       		.uleb128 0x3a
 2793 0207 0B       		.uleb128 0xb
 2794 0208 3B       		.uleb128 0x3b
 2795 0209 0B       		.uleb128 0xb
 2796 020a 39       		.uleb128 0x39
 2797 020b 0B       		.uleb128 0xb
 2798 020c 27       		.uleb128 0x27
 2799 020d 19       		.uleb128 0x19
 2800 020e 11       		.uleb128 0x11
 2801 020f 01       		.uleb128 0x1
 2802 0210 12       		.uleb128 0x12
 2803 0211 06       		.uleb128 0x6
 2804 0212 40       		.uleb128 0x40
 2805 0213 18       		.uleb128 0x18
 2806 0214 9742     		.uleb128 0x2117
 2807 0216 19       		.uleb128 0x19
 2808 0217 01       		.uleb128 0x1
 2809 0218 13       		.uleb128 0x13
 2810 0219 00       		.byte	0
 2811 021a 00       		.byte	0
 2812 021b 27       		.uleb128 0x27
 2813 021c 34       		.uleb128 0x34
 2814 021d 00       		.byte	0
 2815 021e 03       		.uleb128 0x3
 2816 021f 08       		.uleb128 0x8
 2817 0220 3A       		.uleb128 0x3a
 2818 0221 0B       		.uleb128 0xb
 2819 0222 3B       		.uleb128 0x3b
 2820 0223 0B       		.uleb128 0xb
 2821 0224 39       		.uleb128 0x39
 2822 0225 0B       		.uleb128 0xb
 2823 0226 49       		.uleb128 0x49
 2824 0227 13       		.uleb128 0x13
 2825 0228 02       		.uleb128 0x2
 2826 0229 17       		.uleb128 0x17
 2827 022a B742     		.uleb128 0x2137
 2828 022c 17       		.uleb128 0x17
 2829 022d 00       		.byte	0
 2830 022e 00       		.byte	0
 2831 022f 28       		.uleb128 0x28
 2832 0230 1D       		.uleb128 0x1d
 2833 0231 01       		.byte	0x1
 2834 0232 31       		.uleb128 0x31
 2835 0233 13       		.uleb128 0x13
 2836 0234 52       		.uleb128 0x52
 2837 0235 01       		.uleb128 0x1
 2838 0236 B842     		.uleb128 0x2138
 2839 0238 0B       		.uleb128 0xb
 2840 0239 55       		.uleb128 0x55
 2841 023a 17       		.uleb128 0x17
 2842 023b 58       		.uleb128 0x58
 2843 023c 0B       		.uleb128 0xb
 2844 023d 59       		.uleb128 0x59
 2845 023e 0B       		.uleb128 0xb
 2846 023f 57       		.uleb128 0x57
 2847 0240 0B       		.uleb128 0xb
ARM GAS  /tmp/cc2QHUcT.s 			page 51


 2848 0241 01       		.uleb128 0x1
 2849 0242 13       		.uleb128 0x13
 2850 0243 00       		.byte	0
 2851 0244 00       		.byte	0
 2852 0245 29       		.uleb128 0x29
 2853 0246 1D       		.uleb128 0x1d
 2854 0247 00       		.byte	0
 2855 0248 31       		.uleb128 0x31
 2856 0249 13       		.uleb128 0x13
 2857 024a 52       		.uleb128 0x52
 2858 024b 01       		.uleb128 0x1
 2859 024c B842     		.uleb128 0x2138
 2860 024e 0B       		.uleb128 0xb
 2861 024f 55       		.uleb128 0x55
 2862 0250 17       		.uleb128 0x17
 2863 0251 58       		.uleb128 0x58
 2864 0252 0B       		.uleb128 0xb
 2865 0253 59       		.uleb128 0x59
 2866 0254 0B       		.uleb128 0xb
 2867 0255 57       		.uleb128 0x57
 2868 0256 0B       		.uleb128 0xb
 2869 0257 00       		.byte	0
 2870 0258 00       		.byte	0
 2871 0259 2A       		.uleb128 0x2a
 2872 025a 1D       		.uleb128 0x1d
 2873 025b 01       		.byte	0x1
 2874 025c 31       		.uleb128 0x31
 2875 025d 13       		.uleb128 0x13
 2876 025e 52       		.uleb128 0x52
 2877 025f 01       		.uleb128 0x1
 2878 0260 B842     		.uleb128 0x2138
 2879 0262 0B       		.uleb128 0xb
 2880 0263 11       		.uleb128 0x11
 2881 0264 01       		.uleb128 0x1
 2882 0265 12       		.uleb128 0x12
 2883 0266 06       		.uleb128 0x6
 2884 0267 58       		.uleb128 0x58
 2885 0268 0B       		.uleb128 0xb
 2886 0269 59       		.uleb128 0x59
 2887 026a 0B       		.uleb128 0xb
 2888 026b 57       		.uleb128 0x57
 2889 026c 0B       		.uleb128 0xb
 2890 026d 01       		.uleb128 0x1
 2891 026e 13       		.uleb128 0x13
 2892 026f 00       		.byte	0
 2893 0270 00       		.byte	0
 2894 0271 2B       		.uleb128 0x2b
 2895 0272 05       		.uleb128 0x5
 2896 0273 00       		.byte	0
 2897 0274 31       		.uleb128 0x31
 2898 0275 13       		.uleb128 0x13
 2899 0276 02       		.uleb128 0x2
 2900 0277 17       		.uleb128 0x17
 2901 0278 B742     		.uleb128 0x2137
 2902 027a 17       		.uleb128 0x17
 2903 027b 00       		.byte	0
 2904 027c 00       		.byte	0
ARM GAS  /tmp/cc2QHUcT.s 			page 52


 2905 027d 2C       		.uleb128 0x2c
 2906 027e 898201   		.uleb128 0x4109
 2907 0281 01       		.byte	0x1
 2908 0282 11       		.uleb128 0x11
 2909 0283 01       		.uleb128 0x1
 2910 0284 31       		.uleb128 0x31
 2911 0285 13       		.uleb128 0x13
 2912 0286 01       		.uleb128 0x1
 2913 0287 13       		.uleb128 0x13
 2914 0288 00       		.byte	0
 2915 0289 00       		.byte	0
 2916 028a 2D       		.uleb128 0x2d
 2917 028b 8A8201   		.uleb128 0x410a
 2918 028e 00       		.byte	0
 2919 028f 02       		.uleb128 0x2
 2920 0290 18       		.uleb128 0x18
 2921 0291 9142     		.uleb128 0x2111
 2922 0293 18       		.uleb128 0x18
 2923 0294 00       		.byte	0
 2924 0295 00       		.byte	0
 2925 0296 2E       		.uleb128 0x2e
 2926 0297 898201   		.uleb128 0x4109
 2927 029a 00       		.byte	0
 2928 029b 11       		.uleb128 0x11
 2929 029c 01       		.uleb128 0x1
 2930 029d 31       		.uleb128 0x31
 2931 029e 13       		.uleb128 0x13
 2932 029f 00       		.byte	0
 2933 02a0 00       		.byte	0
 2934 02a1 2F       		.uleb128 0x2f
 2935 02a2 898201   		.uleb128 0x4109
 2936 02a5 01       		.byte	0x1
 2937 02a6 11       		.uleb128 0x11
 2938 02a7 01       		.uleb128 0x1
 2939 02a8 9542     		.uleb128 0x2115
 2940 02aa 19       		.uleb128 0x19
 2941 02ab 31       		.uleb128 0x31
 2942 02ac 13       		.uleb128 0x13
 2943 02ad 01       		.uleb128 0x1
 2944 02ae 13       		.uleb128 0x13
 2945 02af 00       		.byte	0
 2946 02b0 00       		.byte	0
 2947 02b1 30       		.uleb128 0x30
 2948 02b2 05       		.uleb128 0x5
 2949 02b3 00       		.byte	0
 2950 02b4 03       		.uleb128 0x3
 2951 02b5 08       		.uleb128 0x8
 2952 02b6 3A       		.uleb128 0x3a
 2953 02b7 0B       		.uleb128 0xb
 2954 02b8 3B       		.uleb128 0x3b
 2955 02b9 0B       		.uleb128 0xb
 2956 02ba 39       		.uleb128 0x39
 2957 02bb 0B       		.uleb128 0xb
 2958 02bc 49       		.uleb128 0x49
 2959 02bd 13       		.uleb128 0x13
 2960 02be 02       		.uleb128 0x2
 2961 02bf 17       		.uleb128 0x17
ARM GAS  /tmp/cc2QHUcT.s 			page 53


 2962 02c0 B742     		.uleb128 0x2137
 2963 02c2 17       		.uleb128 0x17
 2964 02c3 00       		.byte	0
 2965 02c4 00       		.byte	0
 2966 02c5 31       		.uleb128 0x31
 2967 02c6 2E       		.uleb128 0x2e
 2968 02c7 01       		.byte	0x1
 2969 02c8 03       		.uleb128 0x3
 2970 02c9 0E       		.uleb128 0xe
 2971 02ca 3A       		.uleb128 0x3a
 2972 02cb 0B       		.uleb128 0xb
 2973 02cc 3B       		.uleb128 0x3b
 2974 02cd 0B       		.uleb128 0xb
 2975 02ce 39       		.uleb128 0x39
 2976 02cf 0B       		.uleb128 0xb
 2977 02d0 27       		.uleb128 0x27
 2978 02d1 19       		.uleb128 0x19
 2979 02d2 49       		.uleb128 0x49
 2980 02d3 13       		.uleb128 0x13
 2981 02d4 20       		.uleb128 0x20
 2982 02d5 0B       		.uleb128 0xb
 2983 02d6 01       		.uleb128 0x1
 2984 02d7 13       		.uleb128 0x13
 2985 02d8 00       		.byte	0
 2986 02d9 00       		.byte	0
 2987 02da 32       		.uleb128 0x32
 2988 02db 05       		.uleb128 0x5
 2989 02dc 00       		.byte	0
 2990 02dd 03       		.uleb128 0x3
 2991 02de 08       		.uleb128 0x8
 2992 02df 3A       		.uleb128 0x3a
 2993 02e0 0B       		.uleb128 0xb
 2994 02e1 3B       		.uleb128 0x3b
 2995 02e2 0B       		.uleb128 0xb
 2996 02e3 39       		.uleb128 0x39
 2997 02e4 0B       		.uleb128 0xb
 2998 02e5 49       		.uleb128 0x49
 2999 02e6 13       		.uleb128 0x13
 3000 02e7 00       		.byte	0
 3001 02e8 00       		.byte	0
 3002 02e9 33       		.uleb128 0x33
 3003 02ea 2E       		.uleb128 0x2e
 3004 02eb 00       		.byte	0
 3005 02ec 03       		.uleb128 0x3
 3006 02ed 0E       		.uleb128 0xe
 3007 02ee 3A       		.uleb128 0x3a
 3008 02ef 0B       		.uleb128 0xb
 3009 02f0 3B       		.uleb128 0x3b
 3010 02f1 0B       		.uleb128 0xb
 3011 02f2 39       		.uleb128 0x39
 3012 02f3 0B       		.uleb128 0xb
 3013 02f4 27       		.uleb128 0x27
 3014 02f5 19       		.uleb128 0x19
 3015 02f6 49       		.uleb128 0x49
 3016 02f7 13       		.uleb128 0x13
 3017 02f8 20       		.uleb128 0x20
 3018 02f9 0B       		.uleb128 0xb
ARM GAS  /tmp/cc2QHUcT.s 			page 54


 3019 02fa 00       		.byte	0
 3020 02fb 00       		.byte	0
 3021 02fc 34       		.uleb128 0x34
 3022 02fd 2E       		.uleb128 0x2e
 3023 02fe 00       		.byte	0
 3024 02ff 3F       		.uleb128 0x3f
 3025 0300 19       		.uleb128 0x19
 3026 0301 3C       		.uleb128 0x3c
 3027 0302 19       		.uleb128 0x19
 3028 0303 6E       		.uleb128 0x6e
 3029 0304 0E       		.uleb128 0xe
 3030 0305 03       		.uleb128 0x3
 3031 0306 0E       		.uleb128 0xe
 3032 0307 3A       		.uleb128 0x3a
 3033 0308 0B       		.uleb128 0xb
 3034 0309 3B       		.uleb128 0x3b
 3035 030a 0B       		.uleb128 0xb
 3036 030b 39       		.uleb128 0x39
 3037 030c 0B       		.uleb128 0xb
 3038 030d 00       		.byte	0
 3039 030e 00       		.byte	0
 3040 030f 35       		.uleb128 0x35
 3041 0310 2E       		.uleb128 0x2e
 3042 0311 00       		.byte	0
 3043 0312 3F       		.uleb128 0x3f
 3044 0313 19       		.uleb128 0x19
 3045 0314 3C       		.uleb128 0x3c
 3046 0315 19       		.uleb128 0x19
 3047 0316 6E       		.uleb128 0x6e
 3048 0317 0E       		.uleb128 0xe
 3049 0318 03       		.uleb128 0x3
 3050 0319 0E       		.uleb128 0xe
 3051 031a 00       		.byte	0
 3052 031b 00       		.byte	0
 3053 031c 00       		.byte	0
 3054              		.section	.debug_loc,"",%progbits
 3055              	.Ldebug_loc0:
 3056              	.LVUS0:
 3057 0000 00       		.uleb128 .LVU21
 3058 0001 00       		.uleb128 .LVU27
 3059 0002 00       		.uleb128 .LVU30
 3060 0003 00       		.uleb128 .LVU36
 3061 0004 00       		.uleb128 .LVU39
 3062 0005 00       		.uleb128 .LVU45
 3063              	.LLST0:
 3064 0006 2E000000 		.4byte	.LVL1
 3065 000a 35000000 		.4byte	.LVL3-1
 3066 000e 0100     		.2byte	0x1
 3067 0010 50       		.byte	0x50
 3068 0011 40000000 		.4byte	.LVL5
 3069 0015 47000000 		.4byte	.LVL7-1
 3070 0019 0100     		.2byte	0x1
 3071 001b 50       		.byte	0x50
 3072 001c 52000000 		.4byte	.LVL9
 3073 0020 59000000 		.4byte	.LVL11-1
 3074 0024 0100     		.2byte	0x1
 3075 0026 50       		.byte	0x50
ARM GAS  /tmp/cc2QHUcT.s 			page 55


 3076 0027 00000000 		.4byte	0
 3077 002b 00000000 		.4byte	0
 3078              	.LVUS1:
 3079 002f 00       		.uleb128 .LVU25
 3080 0030 00       		.uleb128 .LVU48
 3081 0031 00       		.uleb128 .LVU49
 3082 0032 00       		.uleb128 0
 3083              	.LLST1:
 3084 0033 30000000 		.4byte	.LVL2
 3085 0037 74000000 		.4byte	.LVL13
 3086 003b 0100     		.2byte	0x1
 3087 003d 54       		.byte	0x54
 3088 003e 78000000 		.4byte	.LVL14
 3089 0042 94000000 		.4byte	.LFE220
 3090 0046 0100     		.2byte	0x1
 3091 0048 54       		.byte	0x54
 3092 0049 00000000 		.4byte	0
 3093 004d 00000000 		.4byte	0
 3094              	.LVUS2:
 3095 0051 01       		.uleb128 .LVU22
 3096 0052 00       		.uleb128 .LVU25
 3097              	.LLST2:
 3098 0053 2E000000 		.4byte	.LVL1
 3099 0057 30000000 		.4byte	.LVL2
 3100 005b 0100     		.2byte	0x1
 3101 005d 50       		.byte	0x50
 3102 005e 00000000 		.4byte	0
 3103 0062 00000000 		.4byte	0
 3104              	.LVUS3:
 3105 0066 01       		.uleb128 .LVU31
 3106 0067 00       		.uleb128 .LVU34
 3107              	.LLST3:
 3108 0068 40000000 		.4byte	.LVL5
 3109 006c 42000000 		.4byte	.LVL6
 3110 0070 0100     		.2byte	0x1
 3111 0072 50       		.byte	0x50
 3112 0073 00000000 		.4byte	0
 3113 0077 00000000 		.4byte	0
 3114              	.LVUS4:
 3115 007b 01       		.uleb128 .LVU40
 3116 007c 00       		.uleb128 .LVU43
 3117              	.LLST4:
 3118 007d 52000000 		.4byte	.LVL9
 3119 0081 54000000 		.4byte	.LVL10
 3120 0085 0100     		.2byte	0x1
 3121 0087 50       		.byte	0x50
 3122 0088 00000000 		.4byte	0
 3123 008c 00000000 		.4byte	0
 3124              	.LVUS5:
 3125 0090 00       		.uleb128 0
 3126 0091 00       		.uleb128 .LVU56
 3127 0092 00       		.uleb128 .LVU56
 3128 0093 00       		.uleb128 .LVU59
 3129 0094 00       		.uleb128 .LVU59
 3130 0095 00       		.uleb128 .LVU60
 3131 0096 00       		.uleb128 .LVU60
 3132 0097 00       		.uleb128 .LVU60
ARM GAS  /tmp/cc2QHUcT.s 			page 56


 3133 0098 00       		.uleb128 .LVU60
 3134 0099 00       		.uleb128 0
 3135              	.LLST5:
 3136 009a 00000000 		.4byte	.LVL16
 3137 009e 15000000 		.4byte	.LVL17-1
 3138 00a2 0100     		.2byte	0x1
 3139 00a4 50       		.byte	0x50
 3140 00a5 15000000 		.4byte	.LVL17-1
 3141 00a9 32000000 		.4byte	.LVL19
 3142 00ad 0100     		.2byte	0x1
 3143 00af 54       		.byte	0x54
 3144 00b0 32000000 		.4byte	.LVL19
 3145 00b4 35000000 		.4byte	.LVL20-1
 3146 00b8 0100     		.2byte	0x1
 3147 00ba 50       		.byte	0x50
 3148 00bb 35000000 		.4byte	.LVL20-1
 3149 00bf 36000000 		.4byte	.LVL20
 3150 00c3 0400     		.2byte	0x4
 3151 00c5 F3       		.byte	0xf3
 3152 00c6 01       		.uleb128 0x1
 3153 00c7 50       		.byte	0x50
 3154 00c8 9F       		.byte	0x9f
 3155 00c9 36000000 		.4byte	.LVL20
 3156 00cd 40000000 		.4byte	.LFE219
 3157 00d1 0100     		.2byte	0x1
 3158 00d3 54       		.byte	0x54
 3159 00d4 00000000 		.4byte	0
 3160 00d8 00000000 		.4byte	0
 3161              		.section	.debug_aranges,"",%progbits
 3162 0000 24000000 		.4byte	0x24
 3163 0004 0200     		.2byte	0x2
 3164 0006 00000000 		.4byte	.Ldebug_info0
 3165 000a 04       		.byte	0x4
 3166 000b 00       		.byte	0
 3167 000c 0000     		.2byte	0
 3168 000e 0000     		.2byte	0
 3169 0010 00000000 		.4byte	.LFB220
 3170 0014 94000000 		.4byte	.LFE220-.LFB220
 3171 0018 00000000 		.4byte	.LFB219
 3172 001c 40000000 		.4byte	.LFE219-.LFB219
 3173 0020 00000000 		.4byte	0
 3174 0024 00000000 		.4byte	0
 3175              		.section	.debug_ranges,"",%progbits
 3176              	.Ldebug_ranges0:
 3177 0000 02000000 		.4byte	.LBB16
 3178 0004 04000000 		.4byte	.LBE16
 3179 0008 06000000 		.4byte	.LBB26
 3180 000c 08000000 		.4byte	.LBE26
 3181 0010 22000000 		.4byte	.LBB27
 3182 0014 22000000 		.4byte	.LBE27
 3183 0018 00000000 		.4byte	0
 3184 001c 00000000 		.4byte	0
 3185 0020 02000000 		.4byte	.LBB18
 3186 0024 04000000 		.4byte	.LBE18
 3187 0028 06000000 		.4byte	.LBB22
 3188 002c 08000000 		.4byte	.LBE22
 3189 0030 22000000 		.4byte	.LBB23
ARM GAS  /tmp/cc2QHUcT.s 			page 57


 3190 0034 22000000 		.4byte	.LBE23
 3191 0038 00000000 		.4byte	0
 3192 003c 00000000 		.4byte	0
 3193 0040 00000000 		.4byte	.LFB220
 3194 0044 94000000 		.4byte	.LFE220
 3195 0048 00000000 		.4byte	.LFB219
 3196 004c 40000000 		.4byte	.LFE219
 3197 0050 00000000 		.4byte	0
 3198 0054 00000000 		.4byte	0
 3199              		.section	.debug_line,"",%progbits
 3200              	.Ldebug_line0:
 3201 0000 F5020000 		.section	.debug_str,"MS",%progbits,1
 3201      0300EF01 
 3201      00000201 
 3201      FB0E0D00 
 3201      01010101 
 3202              	.LASF141:
 3203 0000 63665F6F 		.ascii	"cf_off_older\000"
 3203      66665F6F 
 3203      6C646572 
 3203      00
 3204              	.LASF56:
 3205 000d 72656164 		.ascii	"ready_list_t\000"
 3205      795F6C69 
 3205      73745F74 
 3205      00
 3206              	.LASF94:
 3207 001a 73655F74 		.ascii	"se_time\000"
 3207      696D6500 
 3208              	.LASF5:
 3209 0022 73697A65 		.ascii	"size_t\000"
 3209      5F7400
 3210              	.LASF115:
 3211 0029 7264796D 		.ascii	"rdymsg\000"
 3211      736700
 3212              	.LASF14:
 3213 0030 75696E74 		.ascii	"uint64_t\000"
 3213      36345F74 
 3213      00
 3214              	.LASF86:
 3215 0039 6B65726E 		.ascii	"kernel_stats\000"
 3215      656C5F73 
 3215      74617473 
 3215      00
 3216              	.LASF93:
 3217 0046 706F7274 		.ascii	"port_intctx\000"
 3217      5F696E74 
 3217      63747800 
 3218              	.LASF55:
 3219 0052 63685F74 		.ascii	"ch_threads_queue\000"
 3219      68726561 
 3219      64735F71 
 3219      75657565 
 3219      00
 3220              	.LASF75:
 3221 0063 73797374 		.ascii	"system_debug_t\000"
 3221      656D5F64 
ARM GAS  /tmp/cc2QHUcT.s 			page 58


 3221      65627567 
 3221      5F7400
 3222              	.LASF106:
 3223 0072 776F7273 		.ascii	"worst\000"
 3223      7400
 3224              	.LASF109:
 3225 0078 74696D65 		.ascii	"time_measurement_t\000"
 3225      5F6D6561 
 3225      73757265 
 3225      6D656E74 
 3225      5F7400
 3226              	.LASF15:
 3227 008b 6C6F6E67 		.ascii	"long long unsigned int\000"
 3227      206C6F6E 
 3227      6720756E 
 3227      7369676E 
 3227      65642069 
 3228              	.LASF102:
 3229 00a2 63685F74 		.ascii	"ch_trace_buffer_t\000"
 3229      72616365 
 3229      5F627566 
 3229      6665725F 
 3229      7400
 3230              	.LASF137:
 3231 00b4 63685F74 		.ascii	"ch_threadsize\000"
 3231      68726561 
 3231      6473697A 
 3231      6500
 3232              	.LASF116:
 3233 00c2 65786974 		.ascii	"exitcode\000"
 3233      636F6465 
 3233      00
 3234              	.LASF85:
 3235 00cb 6D61696E 		.ascii	"mainthread\000"
 3235      74687265 
 3235      616400
 3236              	.LASF161:
 3237 00d6 74657374 		.ascii	"test\000"
 3237      00
 3238              	.LASF72:
 3239 00db 76697274 		.ascii	"virtual_timers_list_t\000"
 3239      75616C5F 
 3239      74696D65 
 3239      72735F6C 
 3239      6973745F 
 3240              	.LASF88:
 3241 00f1 49544D5F 		.ascii	"ITM_RxBuffer\000"
 3241      52784275 
 3241      66666572 
 3241      00
 3242              	.LASF17:
 3243 00fe 72747469 		.ascii	"rttime_t\000"
 3243      6D655F74 
 3243      00
 3244              	.LASF31:
 3245 0107 705F7072 		.ascii	"p_prio\000"
 3245      696F00
ARM GAS  /tmp/cc2QHUcT.s 			page 59


 3246              	.LASF144:
 3247 010e 63665F6F 		.ascii	"cf_off_state\000"
 3247      66665F73 
 3247      74617465 
 3247      00
 3248              	.LASF155:
 3249 011b 74656172 		.ascii	"teardown\000"
 3249      646F776E 
 3249      00
 3250              	.LASF1:
 3251 0124 6C6F6E67 		.ascii	"long long int\000"
 3251      206C6F6E 
 3251      6720696E 
 3251      7400
 3252              	.LASF3:
 3253 0132 7369676E 		.ascii	"signed char\000"
 3253      65642063 
 3253      68617200 
 3254              	.LASF143:
 3255 013e 63665F6F 		.ascii	"cf_off_stklimit\000"
 3255      66665F73 
 3255      746B6C69 
 3255      6D697400 
 3256              	.LASF145:
 3257 014e 63665F6F 		.ascii	"cf_off_flags\000"
 3257      66665F66 
 3257      6C616773 
 3257      00
 3258              	.LASF48:
 3259 015b 705F6D70 		.ascii	"p_mpool\000"
 3259      6F6F6C00 
 3260              	.LASF126:
 3261 0163 6D5F7175 		.ascii	"m_queue\000"
 3261      65756500 
 3262              	.LASF172:
 3263 016b 74657374 		.ascii	"test_emit_token\000"
 3263      5F656D69 
 3263      745F746F 
 3263      6B656E00 
 3264              	.LASF84:
 3265 017b 76746C69 		.ascii	"vtlist\000"
 3265      737400
 3266              	.LASF21:
 3267 0182 74736C69 		.ascii	"tslices_t\000"
 3267      6365735F 
 3267      7400
 3268              	.LASF118:
 3269 018c 77747472 		.ascii	"wttrp\000"
 3269      7000
 3270              	.LASF82:
 3271 0192 63685F73 		.ascii	"ch_system\000"
 3271      79737465 
 3271      6D00
 3272              	.LASF7:
 3273 019c 6C6F6E67 		.ascii	"long int\000"
 3273      20696E74 
 3273      00
ARM GAS  /tmp/cc2QHUcT.s 			page 60


 3274              	.LASF174:
 3275 01a5 63684D73 		.ascii	"chMsgSend\000"
 3275      6753656E 
 3275      6400
 3276              	.LASF19:
 3277 01af 74737461 		.ascii	"tstate_t\000"
 3277      74655F74 
 3277      00
 3278              	.LASF95:
 3279 01b8 73655F74 		.ascii	"se_tp\000"
 3279      7000
 3280              	.LASF149:
 3281 01be 63686465 		.ascii	"chdebug_t\000"
 3281      6275675F 
 3281      7400
 3282              	.LASF157:
 3283 01c8 62756666 		.ascii	"buffer\000"
 3283      657200
 3284              	.LASF33:
 3285 01cf 705F6E65 		.ascii	"p_newer\000"
 3285      77657200 
 3286              	.LASF123:
 3287 01d7 735F7175 		.ascii	"s_queue\000"
 3287      65756500 
 3288              	.LASF99:
 3289 01df 74625F73 		.ascii	"tb_size\000"
 3289      697A6500 
 3290              	.LASF61:
 3291 01e7 725F6E65 		.ascii	"r_newer\000"
 3291      77657200 
 3292              	.LASF90:
 3293 01ef 72656761 		.ascii	"regarm_t\000"
 3293      726D5F74 
 3293      00
 3294              	.LASF68:
 3295 01f8 76745F70 		.ascii	"vt_prev\000"
 3295      72657600 
 3296              	.LASF76:
 3297 0200 63685F73 		.ascii	"ch_system_debug\000"
 3297      79737465 
 3297      6D5F6465 
 3297      62756700 
 3298              	.LASF129:
 3299 0210 6D5F636E 		.ascii	"m_cnt\000"
 3299      7400
 3300              	.LASF151:
 3301 0216 6D757465 		.ascii	"mutex_t\000"
 3301      785F7400 
 3302              	.LASF79:
 3303 021e 6C6F636B 		.ascii	"lock_cnt\000"
 3303      5F636E74 
 3303      00
 3304              	.LASF87:
 3305 0227 69646C65 		.ascii	"idle_thread_wa\000"
 3305      5F746872 
 3305      6561645F 
 3305      776100
ARM GAS  /tmp/cc2QHUcT.s 			page 61


 3306              	.LASF25:
 3307 0236 636E745F 		.ascii	"cnt_t\000"
 3307      7400
 3308              	.LASF36:
 3309 023c 705F7374 		.ascii	"p_stklimit\000"
 3309      6B6C696D 
 3309      697400
 3310              	.LASF0:
 3311 0247 756E7369 		.ascii	"unsigned int\000"
 3311      676E6564 
 3311      20696E74 
 3311      00
 3312              	.LASF67:
 3313 0254 76745F6E 		.ascii	"vt_next\000"
 3313      65787400 
 3314              	.LASF10:
 3315 025c 75696E74 		.ascii	"uint16_t\000"
 3315      31365F74 
 3315      00
 3316              	.LASF89:
 3317 0265 53797374 		.ascii	"SystemCoreClock\000"
 3317      656D436F 
 3317      7265436C 
 3317      6F636B00 
 3318              	.LASF41:
 3319 0275 705F7469 		.ascii	"p_time\000"
 3319      6D6500
 3320              	.LASF119:
 3321 027c 77747365 		.ascii	"wtsemp\000"
 3321      6D7000
 3322              	.LASF69:
 3323 0283 76745F64 		.ascii	"vt_delta\000"
 3323      656C7461 
 3323      00
 3324              	.LASF43:
 3325 028c 705F6D73 		.ascii	"p_msgqueue\000"
 3325      67717565 
 3325      756500
 3326              	.LASF150:
 3327 0297 63685F64 		.ascii	"ch_debug\000"
 3327      65627567 
 3327      00
 3328              	.LASF179:
 3329 02a0 63684D73 		.ascii	"chMsgGet\000"
 3329      67476574 
 3329      00
 3330              	.LASF110:
 3331 02a9 6E5F6972 		.ascii	"n_irq\000"
 3331      7100
 3332              	.LASF177:
 3333 02af 2F686F6D 		.ascii	"/home/olof/Documents/MICRO-315/micro-315/tp4/lib/e-"
 3333      652F6F6C 
 3333      6F662F44 
 3333      6F63756D 
 3333      656E7473 
 3334 02e2 7075636B 		.ascii	"puck2_main-processor\000"
 3334      325F6D61 
ARM GAS  /tmp/cc2QHUcT.s 			page 62


 3334      696E2D70 
 3334      726F6365 
 3334      73736F72 
 3335              	.LASF124:
 3336 02f7 735F636E 		.ascii	"s_cnt\000"
 3336      7400
 3337              	.LASF153:
 3338 02fd 6E616D65 		.ascii	"name\000"
 3338      00
 3339              	.LASF11:
 3340 0302 73686F72 		.ascii	"short unsigned int\000"
 3340      7420756E 
 3340      7369676E 
 3340      65642069 
 3340      6E7400
 3341              	.LASF114:
 3342 0315 6B65726E 		.ascii	"kernel_stats_t\000"
 3342      656C5F73 
 3342      74617473 
 3342      5F7400
 3343              	.LASF52:
 3344 0324 63685F74 		.ascii	"ch_thread\000"
 3344      68726561 
 3344      6400
 3345              	.LASF23:
 3346 032e 6D73675F 		.ascii	"msg_t\000"
 3346      7400
 3347              	.LASF107:
 3348 0334 6C617374 		.ascii	"last\000"
 3348      00
 3349              	.LASF26:
 3350 0339 75636E74 		.ascii	"ucnt_t\000"
 3350      5F7400
 3351              	.LASF81:
 3352 0340 63685F73 		.ascii	"ch_system_t\000"
 3352      79737465 
 3352      6D5F7400 
 3353              	.LASF139:
 3354 034c 63665F6F 		.ascii	"cf_off_ctx\000"
 3354      66665F63 
 3354      747800
 3355              	.LASF148:
 3356 0357 63665F6F 		.ascii	"cf_off_time\000"
 3356      66665F74 
 3356      696D6500 
 3357              	.LASF113:
 3358 0363 6D5F6372 		.ascii	"m_crit_isr\000"
 3358      69745F69 
 3358      737200
 3359              	.LASF57:
 3360 036e 63685F72 		.ascii	"ch_ready_list\000"
 3360      65616479 
 3360      5F6C6973 
 3360      7400
 3361              	.LASF24:
 3362 037c 6576656E 		.ascii	"eventmask_t\000"
 3362      746D6173 
ARM GAS  /tmp/cc2QHUcT.s 			page 63


 3362      6B5F7400 
 3363              	.LASF91:
 3364 0388 73746B61 		.ascii	"stkalign_t\000"
 3364      6C69676E 
 3364      5F7400
 3365              	.LASF169:
 3366 0393 63685468 		.ascii	"chThdCreateStatic\000"
 3366      64437265 
 3366      61746553 
 3366      74617469 
 3366      6300
 3367              	.LASF51:
 3368 03a5 74687265 		.ascii	"threads_list_t\000"
 3368      6164735F 
 3368      6C697374 
 3368      5F7400
 3369              	.LASF132:
 3370 03b4 63685F7A 		.ascii	"ch_zero\000"
 3370      65726F00 
 3371              	.LASF146:
 3372 03bc 63665F6F 		.ascii	"cf_off_refs\000"
 3372      66665F72 
 3372      65667300 
 3373              	.LASF59:
 3374 03c8 725F7072 		.ascii	"r_prio\000"
 3374      696F00
 3375              	.LASF42:
 3376 03cf 705F7761 		.ascii	"p_waiting\000"
 3376      6974696E 
 3376      6700
 3377              	.LASF164:
 3378 03d9 70617474 		.ascii	"patternmsg\000"
 3378      65726E6D 
 3378      736700
 3379              	.LASF16:
 3380 03e4 7274636E 		.ascii	"rtcnt_t\000"
 3380      745F7400 
 3381              	.LASF104:
 3382 03ec 746D5F63 		.ascii	"tm_calibration_t\000"
 3382      616C6962 
 3382      72617469 
 3382      6F6E5F74 
 3382      00
 3383              	.LASF73:
 3384 03fd 63685F76 		.ascii	"ch_virtual_timers_list\000"
 3384      69727475 
 3384      616C5F74 
 3384      696D6572 
 3384      735F6C69 
 3385              	.LASF2:
 3386 0414 6C6F6E67 		.ascii	"long double\000"
 3386      20646F75 
 3386      626C6500 
 3387              	.LASF136:
 3388 0420 63685F74 		.ascii	"ch_timesize\000"
 3388      696D6573 
 3388      697A6500 
ARM GAS  /tmp/cc2QHUcT.s 			page 64


 3389              	.LASF100:
 3390 042c 74625F70 		.ascii	"tb_ptr\000"
 3390      747200
 3391              	.LASF98:
 3392 0433 63685F73 		.ascii	"ch_swc_event_t\000"
 3392      77635F65 
 3392      76656E74 
 3392      5F7400
 3393              	.LASF142:
 3394 0442 63665F6F 		.ascii	"cf_off_name\000"
 3394      66665F6E 
 3394      616D6500 
 3395              	.LASF34:
 3396 044e 705F6F6C 		.ascii	"p_older\000"
 3396      64657200 
 3397              	.LASF60:
 3398 0456 725F6374 		.ascii	"r_ctx\000"
 3398      7800
 3399              	.LASF32:
 3400 045c 705F6374 		.ascii	"p_ctx\000"
 3400      7800
 3401              	.LASF167:
 3402 0462 63685468 		.ascii	"chThdGetPriorityX\000"
 3402      64476574 
 3402      5072696F 
 3402      72697479 
 3402      5800
 3403              	.LASF154:
 3404 0474 73657475 		.ascii	"setup\000"
 3404      7000
 3405              	.LASF173:
 3406 047a 5F746573 		.ascii	"_test_assert_sequence\000"
 3406      745F6173 
 3406      73657274 
 3406      5F736571 
 3406      75656E63 
 3407              	.LASF175:
 3408 0490 474E5520 		.ascii	"GNU C17 9.2.1 20191025 (release) [ARM/arm-9-branch "
 3408      43313720 
 3408      392E322E 
 3408      31203230 
 3408      31393130 
 3409 04c3 72657669 		.ascii	"revision 277599] -mcpu=cortex-m4 -mfloat-abi=hard -"
 3409      73696F6E 
 3409      20323737 
 3409      3539395D 
 3409      202D6D63 
 3410 04f6 6D667075 		.ascii	"mfpu=fpv4-sp-d16 -mno-thumb-interwork -mthumb -marc"
 3410      3D667076 
 3410      342D7370 
 3410      2D643136 
 3410      202D6D6E 
 3411 0529 683D6172 		.ascii	"h=armv7e-m+fp -ggdb -O2 -fomit-frame-pointer -falig"
 3411      6D763765 
 3411      2D6D2B66 
 3411      70202D67 
 3411      67646220 
ARM GAS  /tmp/cc2QHUcT.s 			page 65


 3412 055c 6E2D6675 		.ascii	"n-functions=16 -fno-strict-aliasing -fstack-protect"
 3412      6E637469 
 3412      6F6E733D 
 3412      3136202D 
 3412      666E6F2D 
 3413 058f 6F722D61 		.ascii	"or-all -ffunction-sections -fdata-sections -fno-com"
 3413      6C6C202D 
 3413      6666756E 
 3413      6374696F 
 3413      6E2D7365 
 3414 05c2 6D6F6E20 		.ascii	"mon -fsingle-precision-constant\000"
 3414      2D667369 
 3414      6E676C65 
 3414      2D707265 
 3414      63697369 
 3415              	.LASF63:
 3416 05e2 725F6375 		.ascii	"r_current\000"
 3416      7272656E 
 3416      7400
 3417              	.LASF62:
 3418 05ec 725F6F6C 		.ascii	"r_older\000"
 3418      64657200 
 3419              	.LASF108:
 3420 05f4 63756D75 		.ascii	"cumulative\000"
 3420      6C617469 
 3420      766500
 3421              	.LASF20:
 3422 05ff 74726566 		.ascii	"trefs_t\000"
 3422      735F7400 
 3423              	.LASF101:
 3424 0607 74625F62 		.ascii	"tb_buffer\000"
 3424      75666665 
 3424      7200
 3425              	.LASF135:
 3426 0611 63685F70 		.ascii	"ch_ptrsize\000"
 3426      74727369 
 3426      7A6500
 3427              	.LASF65:
 3428 061c 76697274 		.ascii	"virtual_timer_t\000"
 3428      75616C5F 
 3428      74696D65 
 3428      725F7400 
 3429              	.LASF30:
 3430 062c 705F7072 		.ascii	"p_prev\000"
 3430      657600
 3431              	.LASF156:
 3432 0633 65786563 		.ascii	"execute\000"
 3432      75746500 
 3433              	.LASF22:
 3434 063b 74707269 		.ascii	"tprio_t\000"
 3434      6F5F7400 
 3435              	.LASF166:
 3436 0643 74687265 		.ascii	"thread\000"
 3436      616400
 3437              	.LASF111:
 3438 064a 6E5F6374 		.ascii	"n_ctxswc\000"
 3438      78737763 
ARM GAS  /tmp/cc2QHUcT.s 			page 66


 3438      00
 3439              	.LASF159:
 3440 0653 5F426F6F 		.ascii	"_Bool\000"
 3440      6C00
 3441              	.LASF6:
 3442 0659 696E7433 		.ascii	"int32_t\000"
 3442      325F7400 
 3443              	.LASF9:
 3444 0661 756E7369 		.ascii	"unsigned char\000"
 3444      676E6564 
 3444      20636861 
 3444      7200
 3445              	.LASF46:
 3446 066f 705F6D74 		.ascii	"p_mtxlist\000"
 3446      786C6973 
 3446      7400
 3447              	.LASF4:
 3448 0679 73686F72 		.ascii	"short int\000"
 3448      7420696E 
 3448      7400
 3449              	.LASF37:
 3450 0683 705F7374 		.ascii	"p_state\000"
 3450      61746500 
 3451              	.LASF40:
 3452 068b 705F7072 		.ascii	"p_preempt\000"
 3452      65656D70 
 3452      7400
 3453              	.LASF160:
 3454 0695 74687265 		.ascii	"threads\000"
 3454      61647300 
 3455              	.LASF162:
 3456 069d 74657374 		.ascii	"test_timer_done\000"
 3456      5F74696D 
 3456      65725F64 
 3456      6F6E6500 
 3457              	.LASF163:
 3458 06ad 74657374 		.ascii	"testmsg1\000"
 3458      6D736731 
 3458      00
 3459              	.LASF121:
 3460 06b6 65776D61 		.ascii	"ewmask\000"
 3460      736B00
 3461              	.LASF29:
 3462 06bd 705F6E65 		.ascii	"p_next\000"
 3462      787400
 3463              	.LASF18:
 3464 06c4 746D6F64 		.ascii	"tmode_t\000"
 3464      655F7400 
 3465              	.LASF147:
 3466 06cc 63665F6F 		.ascii	"cf_off_preempt\000"
 3466      66665F70 
 3466      7265656D 
 3466      707400
 3467              	.LASF38:
 3468 06db 705F666C 		.ascii	"p_flags\000"
 3468      61677300 
 3469              	.LASF49:
ARM GAS  /tmp/cc2QHUcT.s 			page 67


 3470 06e3 705F7374 		.ascii	"p_stats\000"
 3470      61747300 
 3471              	.LASF54:
 3472 06eb 74687265 		.ascii	"threads_queue_t\000"
 3472      6164735F 
 3472      71756575 
 3472      655F7400 
 3473              	.LASF66:
 3474 06fb 63685F76 		.ascii	"ch_virtual_timer\000"
 3474      69727475 
 3474      616C5F74 
 3474      696D6572 
 3474      00
 3475              	.LASF171:
 3476 070c 63684D73 		.ascii	"chMsgRelease\000"
 3476      6752656C 
 3476      65617365 
 3476      00
 3477              	.LASF180:
 3478 0719 5F5F7374 		.ascii	"__stack_chk_fail\000"
 3478      61636B5F 
 3478      63686B5F 
 3478      6661696C 
 3478      00
 3479              	.LASF122:
 3480 072a 63685F73 		.ascii	"ch_semaphore\000"
 3480      656D6170 
 3480      686F7265 
 3480      00
 3481              	.LASF45:
 3482 0737 705F6570 		.ascii	"p_epending\000"
 3482      656E6469 
 3482      6E6700
 3483              	.LASF12:
 3484 0742 75696E74 		.ascii	"uint32_t\000"
 3484      33325F74 
 3484      00
 3485              	.LASF138:
 3486 074b 63665F6F 		.ascii	"cf_off_prio\000"
 3486      66665F70 
 3486      72696F00 
 3487              	.LASF58:
 3488 0757 725F7175 		.ascii	"r_queue\000"
 3488      65756500 
 3489              	.LASF53:
 3490 075f 63685F74 		.ascii	"ch_threads_list\000"
 3490      68726561 
 3490      64735F6C 
 3490      69737400 
 3491              	.LASF133:
 3492 076f 63685F73 		.ascii	"ch_size\000"
 3492      697A6500 
 3493              	.LASF13:
 3494 0777 6C6F6E67 		.ascii	"long unsigned int\000"
 3494      20756E73 
 3494      69676E65 
 3494      6420696E 
ARM GAS  /tmp/cc2QHUcT.s 			page 68


 3494      7400
 3495              	.LASF130:
 3496 0789 63686172 		.ascii	"char\000"
 3496      00
 3497              	.LASF120:
 3498 078e 77746D74 		.ascii	"wtmtxp\000"
 3498      787000
 3499              	.LASF28:
 3500 0795 74687265 		.ascii	"thread_t\000"
 3500      61645F74 
 3500      00
 3501              	.LASF105:
 3502 079e 62657374 		.ascii	"best\000"
 3502      00
 3503              	.LASF128:
 3504 07a3 6D5F6E65 		.ascii	"m_next\000"
 3504      787400
 3505              	.LASF27:
 3506 07aa 73797374 		.ascii	"systime_t\000"
 3506      696D655F 
 3506      7400
 3507              	.LASF47:
 3508 07b4 705F7265 		.ascii	"p_realprio\000"
 3508      616C7072 
 3508      696F00
 3509              	.LASF64:
 3510 07bf 76746675 		.ascii	"vtfunc_t\000"
 3510      6E635F74 
 3510      00
 3511              	.LASF77:
 3512 07c8 70616E69 		.ascii	"panic_msg\000"
 3512      635F6D73 
 3512      6700
 3513              	.LASF158:
 3514 07d2 74657374 		.ascii	"test_global_fail\000"
 3514      5F676C6F 
 3514      62616C5F 
 3514      6661696C 
 3514      00
 3515              	.LASF103:
 3516 07e3 6F666673 		.ascii	"offset\000"
 3516      657400
 3517              	.LASF92:
 3518 07ea 636F6E74 		.ascii	"context\000"
 3518      65787400 
 3519              	.LASF44:
 3520 07f2 705F6D73 		.ascii	"p_msg\000"
 3520      6700
 3521              	.LASF71:
 3522 07f8 76745F70 		.ascii	"vt_par\000"
 3522      617200
 3523              	.LASF170:
 3524 07ff 63684D73 		.ascii	"chMsgWait\000"
 3524      67576169 
 3524      7400
 3525              	.LASF152:
 3526 0809 74657374 		.ascii	"testcase\000"
ARM GAS  /tmp/cc2QHUcT.s 			page 69


 3526      63617365 
 3526      00
 3527              	.LASF178:
 3528 0812 74657374 		.ascii	"test_buffers\000"
 3528      5F627566 
 3528      66657273 
 3528      00
 3529              	.LASF125:
 3530 081f 63685F6D 		.ascii	"ch_mutex\000"
 3530      75746578 
 3530      00
 3531              	.LASF39:
 3532 0828 705F7265 		.ascii	"p_refs\000"
 3532      667300
 3533              	.LASF78:
 3534 082f 6973725F 		.ascii	"isr_cnt\000"
 3534      636E7400 
 3535              	.LASF97:
 3536 0837 73655F73 		.ascii	"se_state\000"
 3536      74617465 
 3536      00
 3537              	.LASF83:
 3538 0840 726C6973 		.ascii	"rlist\000"
 3538      7400
 3539              	.LASF168:
 3540 0846 63685468 		.ascii	"chThdGetSelfX\000"
 3540      64476574 
 3540      53656C66 
 3540      5800
 3541              	.LASF8:
 3542 0854 75696E74 		.ascii	"uint8_t\000"
 3542      385F7400 
 3543              	.LASF165:
 3544 085c 6D736731 		.ascii	"msg1_execute\000"
 3544      5F657865 
 3544      63757465 
 3544      00
 3545              	.LASF50:
 3546 0869 74687265 		.ascii	"thread_reference_t\000"
 3546      61645F72 
 3546      65666572 
 3546      656E6365 
 3546      5F7400
 3547              	.LASF117:
 3548 087c 77746F62 		.ascii	"wtobjp\000"
 3548      6A7000
 3549              	.LASF140:
 3550 0883 63665F6F 		.ascii	"cf_off_newer\000"
 3550      66665F6E 
 3550      65776572 
 3550      00
 3551              	.LASF35:
 3552 0890 705F6E61 		.ascii	"p_name\000"
 3552      6D6500
 3553              	.LASF74:
 3554 0897 76745F73 		.ascii	"vt_systime\000"
 3554      79737469 
ARM GAS  /tmp/cc2QHUcT.s 			page 70


 3554      6D6500
 3555              	.LASF80:
 3556 08a2 74726163 		.ascii	"trace_buffer\000"
 3556      655F6275 
 3556      66666572 
 3556      00
 3557              	.LASF134:
 3558 08af 63685F76 		.ascii	"ch_version\000"
 3558      65727369 
 3558      6F6E00
 3559              	.LASF112:
 3560 08ba 6D5F6372 		.ascii	"m_crit_thd\000"
 3560      69745F74 
 3560      686400
 3561              	.LASF176:
 3562 08c5 2E2F2F43 		.ascii	".//ChibiOS//test/rt/testmsg.c\000"
 3562      68696269 
 3562      4F532F2F 
 3562      74657374 
 3562      2F72742F 
 3563              	.LASF127:
 3564 08e3 6D5F6F77 		.ascii	"m_owner\000"
 3564      6E657200 
 3565              	.LASF96:
 3566 08eb 73655F77 		.ascii	"se_wtobjp\000"
 3566      746F626A 
 3566      7000
 3567              	.LASF131:
 3568 08f5 63685F69 		.ascii	"ch_identifier\000"
 3568      64656E74 
 3568      69666965 
 3568      7200
 3569              	.LASF70:
 3570 0903 76745F66 		.ascii	"vt_func\000"
 3570      756E6300 
 3571              		.ident	"GCC: (15:9-2019-q4-0ubuntu1) 9.2.1 20191025 (release) [ARM/arm-9-branch revision 277599]"
ARM GAS  /tmp/cc2QHUcT.s 			page 71


DEFINED SYMBOLS
                            *ABS*:0000000000000000 testmsg.c
     /tmp/cc2QHUcT.s:18     .rodata.msg1_execute.str1.4:0000000000000000 $d
     /tmp/cc2QHUcT.s:22     .rodata.msg1_execute.cst4:0000000000000000 $d
     /tmp/cc2QHUcT.s:26     .text.msg1_execute:0000000000000000 $t
     /tmp/cc2QHUcT.s:34     .text.msg1_execute:0000000000000000 msg1_execute
     /tmp/cc2QHUcT.s:211    .text.msg1_execute:000000000000007c $d
     /tmp/cc2QHUcT.s:232    .text.thread:0000000000000000 thread
     /tmp/cc2QHUcT.s:221    .rodata.thread.cst4:0000000000000000 $d
     /tmp/cc2QHUcT.s:225    .text.thread:0000000000000000 $t
     /tmp/cc2QHUcT.s:292    .text.thread:000000000000003c $d
     /tmp/cc2QHUcT.s:306    .rodata.patternmsg:0000000000000000 patternmsg
     /tmp/cc2QHUcT.s:313    .rodata.testmsg1:0000000000000000 testmsg1
     /tmp/cc2QHUcT.s:299    .rodata.str1.4:0000000000000000 $d
     /tmp/cc2QHUcT.s:303    .rodata.patternmsg:0000000000000000 $d
     /tmp/cc2QHUcT.s:310    .rodata.testmsg1:0000000000000000 $d

UNDEFINED SYMBOLS
__stack_chk_guard
chThdCreateStatic
chMsgWait
chMsgRelease
test_emit_token
_test_assert_sequence
__stack_chk_fail
ch
wa
threads
chMsgSend
