ARM GAS  /tmp/cc2QHUcT.s 			page 1


   1              		.cpu cortex-m4
   2              		.eabi_attribute 27, 1
   3              		.eabi_attribute 28, 1
   4              		.eabi_attribute 20, 1
   5              		.eabi_attribute 21, 1
   6              		.eabi_attribute 23, 3
   7              		.eabi_attribute 24, 1
   8              		.eabi_attribute 25, 1
   9              		.eabi_attribute 26, 1
  10              		.eabi_attribute 30, 2
  11              		.eabi_attribute 34, 1
  12              		.eabi_attribute 18, 4
  13              		.file	"testmsg.c"
  14              		.text
  15              	.Ltext0:
  16              		.cfi_sections	.debug_frame
  17              		.section	.rodata.msg1_execute.str1.4,"aMS",%progbits,1
  18              		.align	2
  19              	.LC0:
  20 0000 41424300 		.ascii	"ABC\000"
  21              		.section	.rodata.msg1_execute.cst4,"aM",%progbits,4
  22              		.align	2
  23              	.LC1:
  24 0000 00000000 		.word	__stack_chk_guard
  25              		.section	.text.msg1_execute,"ax",%progbits
  26              		.align	1
  27              		.p2align 4,,15
  28              		.arch armv7e-m
  29              		.syntax unified
  30              		.thumb
  31              		.thumb_func
  32              		.fpu fpv4-sp-d16
  33              		.type	msg1_execute, %function
  34              	msg1_execute:
  35              	.LFB220:
  36              		.file 1 ".//ChibiOS//test/rt/testmsg.c"
  37              		.loc 1 66 32 view -0
  38              		.cfi_startproc
  39              		@ args = 0, pretend = 0, frame = 8
  40              		@ frame_needed = 0, uses_anonymous_args = 0
  41 0000 10B5     		push	{r4, lr}
  42              		.cfi_def_cfa_offset 8
  43              		.cfi_offset 4, -8
  44              		.cfi_offset 14, -4
  45              	.LBB16:
  46              	.LBB17:
  47              	.LBB18:
  48              	.LBB19:
  49              		.file 2 ".//ChibiOS//os/rt/include/chthreads.h"
  50              		.loc 2 176 18 is_stmt 0 view .LVU1
  51 0002 1E4A     		ldr	r2, .L7
  52              	.LBE19:
  53              	.LBE18:
  54              	.LBE17:
  55              	.LBE16:
  56              		.loc 1 73 16 view .LVU2
  57 0004 1E4B     		ldr	r3, .L7+4
ARM GAS  /tmp/cc2QHUcT.s 			page 2


  58              	.LBB26:
  59              	.LBB24:
  60              	.LBB22:
  61              	.LBB20:
  62              		.loc 2 176 18 view .LVU3
  63 0006 9169     		ldr	r1, [r2, #24]
  64              	.LBE20:
  65              	.LBE22:
  66              	.LBE24:
  67              	.LBE26:
  68              		.loc 1 66 32 view .LVU4
  69 0008 1E4C     		ldr	r4, .L7+8
  70              		.loc 1 73 16 view .LVU5
  71 000a 8A68     		ldr	r2, [r1, #8]
  72 000c 1868     		ldr	r0, [r3]
  73 000e 1E4B     		ldr	r3, .L7+12
  74              		.loc 1 66 32 view .LVU6
  75 0010 84B0     		sub	sp, sp, #16
  76              		.cfi_def_cfa_offset 24
  77              		.loc 1 73 16 view .LVU7
  78 0012 0132     		adds	r2, r2, #1
  79 0014 0091     		str	r1, [sp]
  80 0016 4FF4FC71 		mov	r1, #504
  81              		.loc 1 66 32 view .LVU8
  82 001a 2468     		ldr	r4, [r4]
  83 001c 0394     		str	r4, [sp, #12]
  84 001e 4FF00004 		mov	r4,#0
  85              		.loc 1 67 3 is_stmt 1 view .LVU9
  86              		.loc 1 68 3 view .LVU10
  87              		.loc 1 73 3 view .LVU11
  88              	.LBB27:
  89              	.LBI16:
  90              		.loc 2 187 23 view .LVU12
  91              	.LBB25:
  92              		.loc 2 189 3 view .LVU13
  93              	.LBB23:
  94              	.LBI18:
  95              		.loc 2 174 25 view .LVU14
  96              	.LBB21:
  97              		.loc 2 176 3 view .LVU15
  98              	.LBE21:
  99              	.LBE23:
 100              	.LBE25:
 101              	.LBE27:
 102              		.loc 2 176 3 view .LVU16
 103              		.loc 1 73 16 is_stmt 0 view .LVU17
 104 0022 FFF7FEFF 		bl	chThdCreateStatic
 105              	.LVL0:
 106              		.loc 1 73 14 view .LVU18
 107 0026 194B     		ldr	r3, .L7+16
 108 0028 1860     		str	r0, [r3]
 109              		.loc 1 75 3 is_stmt 1 view .LVU19
 110              		.loc 1 75 8 is_stmt 0 view .LVU20
 111 002a FFF7FEFF 		bl	chMsgWait
 112              	.LVL1:
 113              		.loc 1 76 3 is_stmt 1 view .LVU21
 114              	.LBB28:
ARM GAS  /tmp/cc2QHUcT.s 			page 3


 115              	.LBI28:
 116              		.file 3 ".//ChibiOS//os/rt/include/chmsg.h"
 117              		.loc 3 96 21 view .LVU22
 118              	.LBB29:
 119              		.loc 3 98 3 view .LVU23
 120              		.loc 3 98 12 is_stmt 0 view .LVU24
 121 002e 846B     		ldr	r4, [r0, #56]
 122              	.LVL2:
 123              		.loc 3 98 12 view .LVU25
 124              	.LBE29:
 125              	.LBE28:
 126              		.loc 1 77 3 is_stmt 1 view .LVU26
 127 0030 2146     		mov	r1, r4
 128 0032 FFF7FEFF 		bl	chMsgRelease
 129              	.LVL3:
 130              		.loc 1 78 3 view .LVU27
 131 0036 E0B2     		uxtb	r0, r4
 132 0038 FFF7FEFF 		bl	test_emit_token
 133              	.LVL4:
 134              		.loc 1 79 3 view .LVU28
 135              		.loc 1 79 8 is_stmt 0 view .LVU29
 136 003c FFF7FEFF 		bl	chMsgWait
 137              	.LVL5:
 138              		.loc 1 80 3 is_stmt 1 view .LVU30
 139              	.LBB30:
 140              	.LBI30:
 141              		.loc 3 96 21 view .LVU31
 142              	.LBB31:
 143              		.loc 3 98 3 view .LVU32
 144              		.loc 3 98 12 is_stmt 0 view .LVU33
 145 0040 846B     		ldr	r4, [r0, #56]
 146              	.LVL6:
 147              		.loc 3 98 12 view .LVU34
 148              	.LBE31:
 149              	.LBE30:
 150              		.loc 1 81 3 is_stmt 1 view .LVU35
 151 0042 2146     		mov	r1, r4
 152 0044 FFF7FEFF 		bl	chMsgRelease
 153              	.LVL7:
 154              		.loc 1 82 3 view .LVU36
 155 0048 E0B2     		uxtb	r0, r4
 156 004a FFF7FEFF 		bl	test_emit_token
 157              	.LVL8:
 158              		.loc 1 83 3 view .LVU37
 159              		.loc 1 83 8 is_stmt 0 view .LVU38
 160 004e FFF7FEFF 		bl	chMsgWait
 161              	.LVL9:
 162              		.loc 1 84 3 is_stmt 1 view .LVU39
 163              	.LBB32:
 164              	.LBI32:
 165              		.loc 3 96 21 view .LVU40
 166              	.LBB33:
 167              		.loc 3 98 3 view .LVU41
 168              		.loc 3 98 12 is_stmt 0 view .LVU42
 169 0052 846B     		ldr	r4, [r0, #56]
 170              	.LVL10:
 171              		.loc 3 98 12 view .LVU43
ARM GAS  /tmp/cc2QHUcT.s 			page 4


 172              	.LBE33:
 173              	.LBE32:
 174              		.loc 1 85 3 is_stmt 1 view .LVU44
 175 0054 2146     		mov	r1, r4
 176 0056 FFF7FEFF 		bl	chMsgRelease
 177              	.LVL11:
 178              		.loc 1 86 3 view .LVU45
 179 005a E0B2     		uxtb	r0, r4
 180 005c FFF7FEFF 		bl	test_emit_token
 181              	.LVL12:
 182              		.loc 1 87 3 view .LVU46
 183 0060 084B     		ldr	r3, .L7+8
 184 0062 1A68     		ldr	r2, [r3]
 185 0064 039B     		ldr	r3, [sp, #12]
 186 0066 5A40     		eors	r2, r3, r2
 187 0068 06D1     		bne	.L6
 188 006a 0949     		ldr	r1, .L7+20
 189 006c 0120     		movs	r0, #1
 190              		.loc 1 88 1 is_stmt 0 view .LVU47
 191 006e 04B0     		add	sp, sp, #16
 192              		.cfi_remember_state
 193              		.cfi_def_cfa_offset 8
 194              		@ sp needed
 195 0070 BDE81040 		pop	{r4, lr}
 196              		.cfi_restore 14
 197              		.cfi_restore 4
 198              		.cfi_def_cfa_offset 0
 199              	.LVL13:
 200              		.loc 1 87 3 view .LVU48
 201 0074 FFF7FEBF 		b	_test_assert_sequence
 202              	.LVL14:
 203              	.L6:
 204              		.cfi_restore_state
 205              		.loc 1 87 3 view .LVU49
 206 0078 FFF7FEFF 		bl	__stack_chk_fail
 207              	.LVL15:
 208              	.L8:
 209              		.align	2
 210              	.L7:
 211 007c 00000000 		.word	ch
 212 0080 00000000 		.word	wa
 213 0084 00000000 		.word	.LC1
 214 0088 00000000 		.word	thread
 215 008c 00000000 		.word	threads
 216 0090 00000000 		.word	.LC0
 217              		.cfi_endproc
 218              	.LFE220:
 219              		.size	msg1_execute, .-msg1_execute
 220              		.section	.rodata.thread.cst4,"aM",%progbits,4
 221              		.align	2
 222              	.LC2:
 223 0000 00000000 		.word	__stack_chk_guard
 224              		.section	.text.thread,"ax",%progbits
 225              		.align	1
 226              		.p2align 4,,15
 227              		.syntax unified
 228              		.thumb
ARM GAS  /tmp/cc2QHUcT.s 			page 5


 229              		.thumb_func
 230              		.fpu fpv4-sp-d16
 231              		.type	thread, %function
 232              	thread:
 233              	.LVL16:
 234              	.LFB219:
 235              		.loc 1 59 32 is_stmt 1 view -0
 236              		.cfi_startproc
 237              		@ args = 0, pretend = 0, frame = 8
 238              		@ frame_needed = 0, uses_anonymous_args = 0
 239              		.loc 1 59 32 is_stmt 0 view .LVU51
 240 0000 10B5     		push	{r4, lr}
 241              		.cfi_def_cfa_offset 8
 242              		.cfi_offset 4, -8
 243              		.cfi_offset 14, -4
 244 0002 0E4B     		ldr	r3, .L14
 245 0004 82B0     		sub	sp, sp, #8
 246              		.cfi_def_cfa_offset 16
 247              		.loc 1 59 32 view .LVU52
 248 0006 0446     		mov	r4, r0
 249              		.loc 1 61 3 view .LVU53
 250 0008 4121     		movs	r1, #65
 251              		.loc 1 59 32 view .LVU54
 252 000a 1B68     		ldr	r3, [r3]
 253 000c 0193     		str	r3, [sp, #4]
 254 000e 4FF00003 		mov	r3,#0
 255              		.loc 1 61 3 is_stmt 1 view .LVU55
 256 0012 FFF7FEFF 		bl	chMsgSend
 257              	.LVL17:
 258              		.loc 1 62 3 view .LVU56
 259 0016 2046     		mov	r0, r4
 260 0018 4221     		movs	r1, #66
 261 001a FFF7FEFF 		bl	chMsgSend
 262              	.LVL18:
 263              		.loc 1 63 3 view .LVU57
 264 001e 074B     		ldr	r3, .L14
 265 0020 1A68     		ldr	r2, [r3]
 266 0022 019B     		ldr	r3, [sp, #4]
 267 0024 5A40     		eors	r2, r3, r2
 268 0026 06D1     		bne	.L13
 269 0028 2046     		mov	r0, r4
 270 002a 4321     		movs	r1, #67
 271              		.loc 1 64 1 is_stmt 0 view .LVU58
 272 002c 02B0     		add	sp, sp, #8
 273              		.cfi_remember_state
 274              		.cfi_def_cfa_offset 8
 275              		@ sp needed
 276 002e BDE81040 		pop	{r4, lr}
 277              		.cfi_restore 14
 278              		.cfi_restore 4
 279              		.cfi_def_cfa_offset 0
 280              	.LVL19:
 281              		.loc 1 63 3 view .LVU59
 282 0032 FFF7FEBF 		b	chMsgSend
 283              	.LVL20:
 284              	.L13:
 285              		.cfi_restore_state
ARM GAS  /tmp/cc2QHUcT.s 			page 6


 286              		.loc 1 63 3 view .LVU60
 287 0036 FFF7FEFF 		bl	__stack_chk_fail
 288              	.LVL21:
 289              	.L15:
 290 003a 00BF     		.align	2
 291              	.L14:
 292 003c 00000000 		.word	.LC2
 293              		.cfi_endproc
 294              	.LFE219:
 295              		.size	thread, .-thread
 296              		.global	patternmsg
 297              		.global	testmsg1
 298              		.section	.rodata.str1.4,"aMS",%progbits,1
 299              		.align	2
 300              	.LC3:
 301 0000 4D657373 		.ascii	"Messages, loop\000"
 301      61676573 
 301      2C206C6F 
 301      6F7000
 302              		.section	.rodata.patternmsg,"a"
 303              		.align	2
 304              		.type	patternmsg, %object
 305              		.size	patternmsg, 8
 306              	patternmsg:
 307 0000 00000000 		.word	testmsg1
 308 0004 00000000 		.word	0
 309              		.section	.rodata.testmsg1,"a"
 310              		.align	2
 311              		.type	testmsg1, %object
 312              		.size	testmsg1, 16
 313              	testmsg1:
 314 0000 00000000 		.word	.LC3
 315 0004 00000000 		.word	0
 316 0008 00000000 		.word	0
 317 000c 00000000 		.word	msg1_execute
 318              		.text
 319              	.Letext0:
 320              		.file 4 "/usr/lib/gcc/arm-none-eabi/9.2.1/include/stddef.h"
 321              		.file 5 "/usr/lib/gcc/arm-none-eabi/9.2.1/include/stdint.h"
 322              		.file 6 ".//ChibiOS//os/rt/ports/ARMCMx/compilers/GCC/chtypes.h"
 323              		.file 7 ".//ChibiOS//os/rt/include/chsystypes.h"
 324              		.file 8 ".//ChibiOS//os/rt/include/chschd.h"
 325              		.file 9 ".//ChibiOS//os/ext/CMSIS/include/core_cm4.h"
 326              		.file 10 ".//ChibiOS//os/ext/CMSIS/ST/system_stm32f4xx.h"
 327              		.file 11 ".//ChibiOS//os/rt/ports/ARMCMx/chcore.h"
 328              		.file 12 ".//ChibiOS//os/rt/ports/ARMCMx/chcore_v7m.h"
 329              		.file 13 ".//ChibiOS//os/rt/include/chdebug.h"
 330              		.file 14 ".//ChibiOS//os/rt/include/chtm.h"
 331              		.file 15 ".//ChibiOS//os/rt/include/chstats.h"
 332              		.file 16 ".//ChibiOS//os/rt/include/chsem.h"
 333              		.file 17 ".//ChibiOS//os/rt/include/chmtx.h"
 334              		.file 18 ".//ChibiOS//os/rt/include/chregistry.h"
 335              		.file 19 ".//ChibiOS//test/rt/test.h"