ARM GAS  /tmp/ccvURch4.s 			page 1


   1              		.cpu cortex-m4
   2              		.eabi_attribute 27, 1
   3              		.eabi_attribute 28, 1
   4              		.eabi_attribute 20, 1
   5              		.eabi_attribute 21, 1
   6              		.eabi_attribute 23, 3
   7              		.eabi_attribute 24, 1
   8              		.eabi_attribute 25, 1
   9              		.eabi_attribute 26, 1
  10              		.eabi_attribute 30, 2
  11              		.eabi_attribute 34, 1
  12              		.eabi_attribute 18, 4
  13              		.file	"testbmk.c"
  14              		.text
  15              	.Ltext0:
  16              		.cfi_sections	.debug_frame
  17              		.section	.rodata.tmo.cst4,"aM",%progbits,4
  18              		.align	2
  19              	.LC0:
  20 0000 00000000 		.word	__stack_chk_guard
  21              		.section	.text.tmo,"ax",%progbits
  22              		.align	1
  23              		.p2align 4,,15
  24              		.arch armv7e-m
  25              		.syntax unified
  26              		.thumb
  27              		.thumb_func
  28              		.fpu fpv4-sp-d16
  29              		.type	tmo, %function
  30              	tmo:
  31              	.LVL0:
  32              	.LFB235:
  33              		.file 1 ".//ChibiOS//test/rt/testbmk.c"
  34              		.loc 1 505 30 view -0
  35              		.cfi_startproc
  36              		@ args = 0, pretend = 0, frame = 8
  37              		@ frame_needed = 0, uses_anonymous_args = 0
  38              		.loc 1 505 30 is_stmt 0 view .LVU1
  39 0000 00B5     		push	{lr}
  40              		.cfi_def_cfa_offset 4
  41              		.cfi_offset 14, -4
  42 0002 084B     		ldr	r3, .L6
  43 0004 83B0     		sub	sp, sp, #12
  44              		.cfi_def_cfa_offset 16
  45              		.loc 1 505 30 view .LVU2
  46 0006 1B68     		ldr	r3, [r3]
  47 0008 0193     		str	r3, [sp, #4]
  48 000a 4FF00003 		mov	r3,#0
  49              		.loc 1 505 31 is_stmt 1 view .LVU3
  50              		.loc 1 505 1 is_stmt 0 view .LVU4
  51 000e 054B     		ldr	r3, .L6
  52 0010 1A68     		ldr	r2, [r3]
  53 0012 019B     		ldr	r3, [sp, #4]
  54 0014 5A40     		eors	r2, r3, r2
  55 0016 02D1     		bne	.L5
  56 0018 03B0     		add	sp, sp, #12
  57              		.cfi_remember_state
ARM GAS  /tmp/ccvURch4.s 			page 2


  58              		.cfi_def_cfa_offset 4
  59              		@ sp needed
  60 001a 5DF804FB 		ldr	pc, [sp], #4
  61              	.L5:
  62              		.cfi_restore_state
  63 001e FFF7FEFF 		bl	__stack_chk_fail
  64              	.LVL1:
  65              	.L7:
  66              		.loc 1 505 1 view .LVU5
  67 0022 00BF     		.align	2
  68              	.L6:
  69 0024 00000000 		.word	.LC0
  70              		.cfi_endproc
  71              	.LFE235:
  72              		.size	tmo, .-tmo
  73              		.section	.rodata.bmk13_execute.str1.4,"aMS",%progbits,1
  74              		.align	2
  75              	.LC1:
  76 0000 2D2D2D20 		.ascii	"--- System: \000"
  76      53797374 
  76      656D3A20 
  76      00
  77 000d 000000   		.align	2
  78              	.LC2:
  79 0010 20627974 		.ascii	" bytes\000"
  79      657300
  80 0017 00       		.align	2
  81              	.LC3:
  82 0018 2D2D2D20 		.ascii	"--- Thread: \000"
  82      54687265 
  82      61643A20 
  82      00
  83 0025 000000   		.align	2
  84              	.LC4:
  85 0028 2D2D2D20 		.ascii	"--- Timer : \000"
  85      54696D65 
  85      72203A20 
  85      00
  86 0035 000000   		.align	2
  87              	.LC5:
  88 0038 2D2D2D20 		.ascii	"--- Semaph: \000"
  88      53656D61 
  88      70683A20 
  88      00
  89 0045 000000   		.align	2
  90              	.LC6:
  91 0048 2D2D2D20 		.ascii	"--- EventS: \000"
  91      4576656E 
  91      74533A20 
  91      00
  92 0055 000000   		.align	2
  93              	.LC7:
  94 0058 2D2D2D20 		.ascii	"--- EventL: \000"
  94      4576656E 
  94      744C3A20 
  94      00
  95 0065 000000   		.align	2
ARM GAS  /tmp/ccvURch4.s 			page 3


  96              	.LC8:
  97 0068 2D2D2D20 		.ascii	"--- Mutex : \000"
  97      4D757465 
  97      78203A20 
  97      00
  98 0075 000000   		.align	2
  99              	.LC9:
 100 0078 2D2D2D20 		.ascii	"--- CondV.: \000"
 100      436F6E64 
 100      562E3A20 
 100      00
 101 0085 000000   		.align	2
 102              	.LC10:
 103 0088 2D2D2D20 		.ascii	"--- Queue : \000"
 103      51756575 
 103      65203A20 
 103      00
 104 0095 000000   		.align	2
 105              	.LC11:
 106 0098 2D2D2D20 		.ascii	"--- MailB.: \000"
 106      4D61696C 
 106      422E3A20 
 106      00
 107              		.section	.rodata.bmk13_execute.cst4,"aM",%progbits,4
 108              		.align	2
 109              	.LC12:
 110 0000 00000000 		.word	__stack_chk_guard
 111              		.section	.text.bmk13_execute,"ax",%progbits
 112              		.align	1
 113              		.p2align 4,,15
 114              		.syntax unified
 115              		.thumb
 116              		.thumb_func
 117              		.fpu fpv4-sp-d16
 118              		.type	bmk13_execute, %function
 119              	bmk13_execute:
 120              	.LFB241:
 121              		.loc 1 640 33 is_stmt 1 view -0
 122              		.cfi_startproc
 123              		@ args = 0, pretend = 0, frame = 8
 124              		@ frame_needed = 0, uses_anonymous_args = 0
 125 0000 00B5     		push	{lr}
 126              		.cfi_def_cfa_offset 4
 127              		.cfi_offset 14, -4
 128 0002 354B     		ldr	r3, .L13
 129              		.loc 1 642 3 is_stmt 0 view .LVU7
 130 0004 3548     		ldr	r0, .L13+4
 131              		.loc 1 640 33 view .LVU8
 132 0006 83B0     		sub	sp, sp, #12
 133              		.cfi_def_cfa_offset 16
 134              		.loc 1 640 33 view .LVU9
 135 0008 1B68     		ldr	r3, [r3]
 136 000a 0193     		str	r3, [sp, #4]
 137 000c 4FF00003 		mov	r3,#0
 138              		.loc 1 642 3 is_stmt 1 view .LVU10
 139 0010 FFF7FEFF 		bl	test_print
 140              	.LVL2:
ARM GAS  /tmp/ccvURch4.s 			page 4


 141              		.loc 1 643 3 view .LVU11
 142 0014 4FF4CE60 		mov	r0, #1648
 143 0018 FFF7FEFF 		bl	test_printn
 144              	.LVL3:
 145              		.loc 1 644 3 view .LVU12
 146 001c 3048     		ldr	r0, .L13+8
 147 001e FFF7FEFF 		bl	test_println
 148              	.LVL4:
 149              		.loc 1 645 3 view .LVU13
 150 0022 3048     		ldr	r0, .L13+12
 151 0024 FFF7FEFF 		bl	test_print
 152              	.LVL5:
 153              		.loc 1 646 3 view .LVU14
 154 0028 6820     		movs	r0, #104
 155 002a FFF7FEFF 		bl	test_printn
 156              	.LVL6:
 157              		.loc 1 647 3 view .LVU15
 158 002e 2C48     		ldr	r0, .L13+8
 159 0030 FFF7FEFF 		bl	test_println
 160              	.LVL7:
 161              		.loc 1 648 3 view .LVU16
 162 0034 2C48     		ldr	r0, .L13+16
 163 0036 FFF7FEFF 		bl	test_print
 164              	.LVL8:
 165              		.loc 1 649 3 view .LVU17
 166 003a 1420     		movs	r0, #20
 167 003c FFF7FEFF 		bl	test_printn
 168              	.LVL9:
 169              		.loc 1 650 3 view .LVU18
 170 0040 2748     		ldr	r0, .L13+8
 171 0042 FFF7FEFF 		bl	test_println
 172              	.LVL10:
 173              		.loc 1 652 3 view .LVU19
 174 0046 2948     		ldr	r0, .L13+20
 175 0048 FFF7FEFF 		bl	test_print
 176              	.LVL11:
 177              		.loc 1 653 3 view .LVU20
 178 004c 0C20     		movs	r0, #12
 179 004e FFF7FEFF 		bl	test_printn
 180              	.LVL12:
 181              		.loc 1 654 3 view .LVU21
 182 0052 2348     		ldr	r0, .L13+8
 183 0054 FFF7FEFF 		bl	test_println
 184              	.LVL13:
 185              		.loc 1 657 3 view .LVU22
 186 0058 2548     		ldr	r0, .L13+24
 187 005a FFF7FEFF 		bl	test_print
 188              	.LVL14:
 189              		.loc 1 658 3 view .LVU23
 190 005e 0420     		movs	r0, #4
 191 0060 FFF7FEFF 		bl	test_printn
 192              	.LVL15:
 193              		.loc 1 659 3 view .LVU24
 194 0064 1E48     		ldr	r0, .L13+8
 195 0066 FFF7FEFF 		bl	test_println
 196              	.LVL16:
 197              		.loc 1 660 3 view .LVU25
ARM GAS  /tmp/ccvURch4.s 			page 5


 198 006a 2248     		ldr	r0, .L13+28
 199 006c FFF7FEFF 		bl	test_print
 200              	.LVL17:
 201              		.loc 1 661 3 view .LVU26
 202 0070 1420     		movs	r0, #20
 203 0072 FFF7FEFF 		bl	test_printn
 204              	.LVL18:
 205              		.loc 1 662 3 view .LVU27
 206 0076 1A48     		ldr	r0, .L13+8
 207 0078 FFF7FEFF 		bl	test_println
 208              	.LVL19:
 209              		.loc 1 665 3 view .LVU28
 210 007c 1E48     		ldr	r0, .L13+32
 211 007e FFF7FEFF 		bl	test_print
 212              	.LVL20:
 213              		.loc 1 666 3 view .LVU29
 214 0082 1420     		movs	r0, #20
 215 0084 FFF7FEFF 		bl	test_printn
 216              	.LVL21:
 217              		.loc 1 667 3 view .LVU30
 218 0088 1548     		ldr	r0, .L13+8
 219 008a FFF7FEFF 		bl	test_println
 220              	.LVL22:
 221              		.loc 1 670 3 view .LVU31
 222 008e 1B48     		ldr	r0, .L13+36
 223 0090 FFF7FEFF 		bl	test_print
 224              	.LVL23:
 225              		.loc 1 671 3 view .LVU32
 226 0094 0820     		movs	r0, #8
 227 0096 FFF7FEFF 		bl	test_printn
 228              	.LVL24:
 229              		.loc 1 672 3 view .LVU33
 230 009a 1148     		ldr	r0, .L13+8
 231 009c FFF7FEFF 		bl	test_println
 232              	.LVL25:
 233              		.loc 1 675 3 view .LVU34
 234 00a0 1748     		ldr	r0, .L13+40
 235 00a2 FFF7FEFF 		bl	test_print
 236              	.LVL26:
 237              		.loc 1 676 3 view .LVU35
 238 00a6 2420     		movs	r0, #36
 239 00a8 FFF7FEFF 		bl	test_printn
 240              	.LVL27:
 241              		.loc 1 677 3 view .LVU36
 242 00ac 0C48     		ldr	r0, .L13+8
 243 00ae FFF7FEFF 		bl	test_println
 244              	.LVL28:
 245              		.loc 1 680 3 view .LVU37
 246 00b2 1448     		ldr	r0, .L13+44
 247 00b4 FFF7FEFF 		bl	test_print
 248              	.LVL29:
 249              		.loc 1 681 3 view .LVU38
 250 00b8 2820     		movs	r0, #40
 251 00ba FFF7FEFF 		bl	test_printn
 252              	.LVL30:
 253              		.loc 1 682 3 view .LVU39
 254 00be 064B     		ldr	r3, .L13
ARM GAS  /tmp/ccvURch4.s 			page 6


 255 00c0 1A68     		ldr	r2, [r3]
 256 00c2 019B     		ldr	r3, [sp, #4]
 257 00c4 5A40     		eors	r2, r3, r2
 258 00c6 05D1     		bne	.L12
 259 00c8 0548     		ldr	r0, .L13+8
 260              		.loc 1 684 1 is_stmt 0 view .LVU40
 261 00ca 03B0     		add	sp, sp, #12
 262              		.cfi_remember_state
 263              		.cfi_def_cfa_offset 4
 264              		@ sp needed
 265 00cc 5DF804EB 		ldr	lr, [sp], #4
 266              		.cfi_restore 14
 267              		.cfi_def_cfa_offset 0
 268              		.loc 1 682 3 view .LVU41
 269 00d0 FFF7FEBF 		b	test_println
 270              	.LVL31:
 271              	.L12:
 272              		.cfi_restore_state
 273 00d4 FFF7FEFF 		bl	__stack_chk_fail
 274              	.LVL32:
 275              	.L14:
 276              		.align	2
 277              	.L13:
 278 00d8 00000000 		.word	.LC12
 279 00dc 00000000 		.word	.LC1
 280 00e0 10000000 		.word	.LC2
 281 00e4 18000000 		.word	.LC3
 282 00e8 28000000 		.word	.LC4
 283 00ec 38000000 		.word	.LC5
 284 00f0 48000000 		.word	.LC6
 285 00f4 58000000 		.word	.LC7
 286 00f8 68000000 		.word	.LC8
 287 00fc 78000000 		.word	.LC9
 288 0100 88000000 		.word	.LC10
 289 0104 98000000 		.word	.LC11
 290              		.cfi_endproc
 291              	.LFE241:
 292              		.size	bmk13_execute, .-bmk13_execute
 293              		.section	.rodata.thread2.cst4,"aM",%progbits,4
 294              		.align	2
 295              	.LC13:
 296 0000 00000000 		.word	__stack_chk_guard
 297              		.section	.text.thread2,"ax",%progbits
 298              		.align	1
 299              		.p2align 4,,15
 300              		.syntax unified
 301              		.thumb
 302              		.thumb_func
 303              		.fpu fpv4-sp-d16
 304              		.type	thread2, %function
 305              	thread2:
 306              	.LVL33:
 307              	.LFB220:
 308              		.loc 1 72 33 is_stmt 1 view -0
 309              		.cfi_startproc
 310              		@ args = 0, pretend = 0, frame = 8
 311              		@ frame_needed = 0, uses_anonymous_args = 0
ARM GAS  /tmp/ccvURch4.s 			page 7


 312              		.loc 1 72 33 is_stmt 0 view .LVU43
 313 0000 10B5     		push	{r4, lr}
 314              		.cfi_def_cfa_offset 8
 315              		.cfi_offset 4, -8
 316              		.cfi_offset 14, -4
 317 0002 0B4B     		ldr	r3, .L21
 318 0004 82B0     		sub	sp, sp, #8
 319              		.cfi_def_cfa_offset 16
 320              		.loc 1 72 33 view .LVU44
 321 0006 1B68     		ldr	r3, [r3]
 322 0008 0193     		str	r3, [sp, #4]
 323 000a 4FF00003 		mov	r3,#0
 324              	.LVL34:
 325              	.L16:
 326              		.loc 1 73 3 is_stmt 1 discriminator 1 view .LVU45
 327              		.loc 1 74 3 discriminator 1 view .LVU46
 328              		.loc 1 76 3 discriminator 1 view .LVU47
 329              		.loc 1 77 3 discriminator 1 view .LVU48
 330              		.loc 1 78 5 discriminator 1 view .LVU49
 331              		.loc 1 78 10 is_stmt 0 discriminator 1 view .LVU50
 332 000e FFF7FEFF 		bl	chMsgWait
 333              	.LVL35:
 334              		.loc 1 79 5 is_stmt 1 discriminator 1 view .LVU51
 335              	.LBB143:
 336              	.LBI143:
 337              		.file 2 ".//ChibiOS//os/rt/include/chmsg.h"
 338              		.loc 2 96 21 discriminator 1 view .LVU52
 339              	.LBB144:
 340              		.loc 2 98 3 discriminator 1 view .LVU53
 341              		.loc 2 98 12 is_stmt 0 discriminator 1 view .LVU54
 342 0012 846B     		ldr	r4, [r0, #56]
 343              	.LVL36:
 344              		.loc 2 98 12 discriminator 1 view .LVU55
 345              	.LBE144:
 346              	.LBE143:
 347              		.loc 1 80 5 is_stmt 1 discriminator 1 view .LVU56
 348 0014 2146     		mov	r1, r4
 349 0016 FFF7FEFF 		bl	chMsgRelease
 350              	.LVL37:
 351              		.loc 1 81 11 discriminator 1 view .LVU57
 352              		.loc 1 81 3 is_stmt 0 discriminator 1 view .LVU58
 353 001a 002C     		cmp	r4, #0
 354 001c F7D1     		bne	.L16
 355              		.loc 1 82 1 view .LVU59
 356 001e 044B     		ldr	r3, .L21
 357 0020 1A68     		ldr	r2, [r3]
 358 0022 019B     		ldr	r3, [sp, #4]
 359 0024 5A40     		eors	r2, r3, r2
 360 0026 01D1     		bne	.L20
 361 0028 02B0     		add	sp, sp, #8
 362              		.cfi_remember_state
 363              		.cfi_def_cfa_offset 8
 364              		@ sp needed
 365 002a 10BD     		pop	{r4, pc}
 366              	.LVL38:
 367              	.L20:
 368              		.cfi_restore_state
ARM GAS  /tmp/ccvURch4.s 			page 8


 369              		.loc 1 82 1 view .LVU60
 370 002c FFF7FEFF 		bl	__stack_chk_fail
 371              	.LVL39:
 372              	.L22:
 373              		.align	2
 374              	.L21:
 375 0030 00000000 		.word	.LC13
 376              		.cfi_endproc
 377              	.LFE220:
 378              		.size	thread2, .-thread2
 379              		.section	.rodata.bmk6_execute.str1.4,"aMS",%progbits,1
 380              		.align	2
 381              	.LC14:
 382 0000 2D2D2D20 		.ascii	"--- Score : \000"
 382      53636F72 
 382      65203A20 
 382      00
 383 000d 000000   		.align	2
 384              	.LC15:
 385 0010 20746872 		.ascii	" threads/S\000"
 385      65616473 
 385      2F5300
 386              		.section	.rodata.bmk6_execute.cst4,"aM",%progbits,4
 387              		.align	2
 388              	.LC16:
 389 0000 00000000 		.word	__stack_chk_guard
 390              		.section	.text.bmk6_execute,"ax",%progbits
 391              		.align	1
 392              		.p2align 4,,15
 393              		.syntax unified
 394              		.thumb
 395              		.thumb_func
 396              		.fpu fpv4-sp-d16
 397              		.type	bmk6_execute, %function
 398              	bmk6_execute:
 399              	.LFB228:
 400              		.loc 1 307 32 is_stmt 1 view -0
 401              		.cfi_startproc
 402              		@ args = 0, pretend = 0, frame = 8
 403              		@ frame_needed = 0, uses_anonymous_args = 0
 404 0000 2DE9F043 		push	{r4, r5, r6, r7, r8, r9, lr}
 405              		.cfi_def_cfa_offset 28
 406              		.cfi_offset 4, -28
 407              		.cfi_offset 5, -24
 408              		.cfi_offset 6, -20
 409              		.cfi_offset 7, -16
 410              		.cfi_offset 8, -12
 411              		.cfi_offset 9, -8
 412              		.cfi_offset 14, -4
 413              	.LBB145:
 414              	.LBB146:
 415              	.LBB147:
 416              	.LBB148:
 417              		.file 3 ".//ChibiOS//os/rt/include/chthreads.h"
 418              		.loc 3 176 18 is_stmt 0 view .LVU62
 419 0004 1B4A     		ldr	r2, .L31
 420              	.LBE148:
ARM GAS  /tmp/ccvURch4.s 			page 9


 421              	.LBE147:
 422              	.LBE146:
 423              	.LBE145:
 424              		.loc 1 310 9 view .LVU63
 425 0006 1C4B     		ldr	r3, .L31+4
 426              	.LBB153:
 427              	.LBB151:
 428              		.loc 3 189 25 view .LVU64
 429 0008 9269     		ldr	r2, [r2, #24]
 430              	.LBE151:
 431              	.LBE153:
 432              		.loc 1 307 32 view .LVU65
 433 000a 1C49     		ldr	r1, .L31+8
 434              		.loc 1 311 11 view .LVU66
 435 000c 9568     		ldr	r5, [r2, #8]
 436              		.loc 1 310 9 view .LVU67
 437 000e D3F80090 		ldr	r9, [r3]
 438 0012 DFF87880 		ldr	r8, .L31+24
 439              		.loc 1 315 5 view .LVU68
 440 0016 1A4F     		ldr	r7, .L31+12
 441              		.loc 1 307 32 view .LVU69
 442 0018 85B0     		sub	sp, sp, #20
 443              		.cfi_def_cfa_offset 48
 444              		.loc 1 307 32 view .LVU70
 445 001a 0968     		ldr	r1, [r1]
 446 001c 0391     		str	r1, [sp, #12]
 447 001e 4FF00001 		mov	r1,#0
 448              		.loc 1 309 3 is_stmt 1 view .LVU71
 449              	.LVL40:
 450              		.loc 1 310 3 view .LVU72
 451              		.loc 1 311 3 view .LVU73
 452              	.LBB154:
 453              	.LBI145:
 454              		.loc 3 187 23 view .LVU74
 455              	.LBB152:
 456              		.loc 3 189 3 view .LVU75
 457              	.LBB150:
 458              	.LBI147:
 459              		.loc 3 174 25 view .LVU76
 460              	.LBB149:
 461              		.loc 3 176 3 view .LVU77
 462              	.LBE149:
 463              	.LBE150:
 464              	.LBE152:
 465              	.LBE154:
 466              		.loc 1 312 3 is_stmt 0 view .LVU78
 467 0022 FFF7FEFF 		bl	test_wait_tick
 468              	.LVL41:
 469              		.loc 1 313 3 view .LVU79
 470 0026 4FF47A70 		mov	r0, #1000
 471 002a FFF7FEFF 		bl	test_start_timer
 472              	.LVL42:
 473              		.loc 1 309 12 view .LVU80
 474 002e 0024     		movs	r4, #0
 475              		.loc 1 311 11 view .LVU81
 476 0030 0135     		adds	r5, r5, #1
 477              	.LVL43:
ARM GAS  /tmp/ccvURch4.s 			page 10


 478              		.loc 1 312 3 is_stmt 1 view .LVU82
 479              		.loc 1 313 3 view .LVU83
 480              		.loc 1 315 5 is_stmt 0 view .LVU84
 481 0032 2646     		mov	r6, r4
 482              	.LVL44:
 483              	.L24:
 484              		.loc 1 314 3 is_stmt 1 discriminator 1 view .LVU85
 485              		.loc 1 315 5 discriminator 1 view .LVU86
 486 0034 4FF4FC71 		mov	r1, #504
 487 0038 0096     		str	r6, [sp]
 488 003a 3B46     		mov	r3, r7
 489 003c 2A46     		mov	r2, r5
 490 003e 4846     		mov	r0, r9
 491 0040 FFF7FEFF 		bl	chThdCreateStatic
 492              	.LVL45:
 493              		.loc 1 316 5 discriminator 1 view .LVU87
 494              		.loc 1 320 3 is_stmt 0 discriminator 1 view .LVU88
 495 0044 98F80010 		ldrb	r1, [r8]	@ zero_extendqisi2
 496              		.loc 1 316 6 discriminator 1 view .LVU89
 497 0048 0134     		adds	r4, r4, #1
 498              	.LVL46:
 499              		.loc 1 320 11 is_stmt 1 discriminator 1 view .LVU90
 500              		.loc 1 320 3 is_stmt 0 discriminator 1 view .LVU91
 501 004a 0029     		cmp	r1, #0
 502 004c F2D0     		beq	.L24
 503              		.loc 1 321 3 is_stmt 1 view .LVU92
 504 004e 0D48     		ldr	r0, .L31+16
 505 0050 FFF7FEFF 		bl	test_print
 506              	.LVL47:
 507              		.loc 1 322 3 view .LVU93
 508 0054 2046     		mov	r0, r4
 509 0056 FFF7FEFF 		bl	test_printn
 510              	.LVL48:
 511              		.loc 1 323 3 view .LVU94
 512 005a 084B     		ldr	r3, .L31+8
 513 005c 1A68     		ldr	r2, [r3]
 514 005e 039B     		ldr	r3, [sp, #12]
 515 0060 5A40     		eors	r2, r3, r2
 516 0062 05D1     		bne	.L30
 517 0064 0848     		ldr	r0, .L31+20
 518              		.loc 1 324 1 is_stmt 0 view .LVU95
 519 0066 05B0     		add	sp, sp, #20
 520              		.cfi_remember_state
 521              		.cfi_def_cfa_offset 28
 522              		@ sp needed
 523 0068 BDE8F043 		pop	{r4, r5, r6, r7, r8, r9, lr}
 524              		.cfi_restore 14
 525              		.cfi_restore 9
 526              		.cfi_restore 8
 527              		.cfi_restore 7
 528              		.cfi_restore 6
 529              		.cfi_restore 5
 530              		.cfi_restore 4
 531              		.cfi_def_cfa_offset 0
 532              	.LVL49:
 533              		.loc 1 323 3 view .LVU96
 534 006c FFF7FEBF 		b	test_println
ARM GAS  /tmp/ccvURch4.s 			page 11


 535              	.LVL50:
 536              	.L30:
 537              		.cfi_restore_state
 538              		.loc 1 323 3 view .LVU97
 539 0070 FFF7FEFF 		bl	__stack_chk_fail
 540              	.LVL51:
 541              	.L32:
 542              		.align	2
 543              	.L31:
 544 0074 00000000 		.word	ch
 545 0078 00000000 		.word	wa
 546 007c 00000000 		.word	.LC16
 547 0080 00000000 		.word	thread1
 548 0084 00000000 		.word	.LC14
 549 0088 10000000 		.word	.LC15
 550 008c 00000000 		.word	test_timer_done
 551              		.cfi_endproc
 552              	.LFE228:
 553              		.size	bmk6_execute, .-bmk6_execute
 554              		.section	.rodata.msg_loop_test.cst4,"aM",%progbits,4
 555              		.align	2
 556              	.LC17:
 557 0000 00000000 		.word	__stack_chk_guard
 558              		.section	.text.msg_loop_test,"ax",%progbits
 559              		.align	1
 560              		.p2align 4,,15
 561              		.syntax unified
 562              		.thumb
 563              		.thumb_func
 564              		.fpu fpv4-sp-d16
 565              		.type	msg_loop_test, %function
 566              	msg_loop_test:
 567              	.LVL52:
 568              	.LFB221:
 569              		.loc 1 87 49 is_stmt 1 view -0
 570              		.cfi_startproc
 571              		@ args = 0, pretend = 0, frame = 8
 572              		@ frame_needed = 0, uses_anonymous_args = 0
 573              		.loc 1 87 49 is_stmt 0 view .LVU99
 574 0000 70B5     		push	{r4, r5, r6, lr}
 575              		.cfi_def_cfa_offset 16
 576              		.cfi_offset 4, -16
 577              		.cfi_offset 5, -12
 578              		.cfi_offset 6, -8
 579              		.cfi_offset 14, -4
 580 0002 124B     		ldr	r3, .L40
 581 0004 124E     		ldr	r6, .L40+4
 582 0006 82B0     		sub	sp, sp, #8
 583              		.cfi_def_cfa_offset 24
 584              		.loc 1 87 49 view .LVU100
 585 0008 1B68     		ldr	r3, [r3]
 586 000a 0193     		str	r3, [sp, #4]
 587 000c 4FF00003 		mov	r3,#0
 588              		.loc 1 89 3 is_stmt 1 view .LVU101
 589              	.LVL53:
 590              		.loc 1 90 3 view .LVU102
 591              		.loc 1 87 49 is_stmt 0 view .LVU103
ARM GAS  /tmp/ccvURch4.s 			page 12


 592 0010 0546     		mov	r5, r0
 593              		.loc 1 90 3 view .LVU104
 594 0012 FFF7FEFF 		bl	test_wait_tick
 595              	.LVL54:
 596              		.loc 1 91 3 is_stmt 1 view .LVU105
 597 0016 4FF47A70 		mov	r0, #1000
 598 001a FFF7FEFF 		bl	test_start_timer
 599              	.LVL55:
 600              		.loc 1 89 12 is_stmt 0 view .LVU106
 601 001e 0024     		movs	r4, #0
 602              	.LVL56:
 603              	.L34:
 604              		.loc 1 92 3 is_stmt 1 discriminator 1 view .LVU107
 605              		.loc 1 93 5 discriminator 1 view .LVU108
 606              		.loc 1 93 11 is_stmt 0 discriminator 1 view .LVU109
 607 0020 0121     		movs	r1, #1
 608 0022 2846     		mov	r0, r5
 609 0024 FFF7FEFF 		bl	chMsgSend
 610              	.LVL57:
 611              		.loc 1 94 5 is_stmt 1 discriminator 1 view .LVU110
 612              		.loc 1 98 3 is_stmt 0 discriminator 1 view .LVU111
 613 0028 3378     		ldrb	r3, [r6]	@ zero_extendqisi2
 614              		.loc 1 94 6 discriminator 1 view .LVU112
 615 002a 0134     		adds	r4, r4, #1
 616              	.LVL58:
 617              		.loc 1 98 11 is_stmt 1 discriminator 1 view .LVU113
 618              		.loc 1 98 3 is_stmt 0 discriminator 1 view .LVU114
 619 002c 002B     		cmp	r3, #0
 620 002e F7D0     		beq	.L34
 621              		.loc 1 99 3 is_stmt 1 view .LVU115
 622              		.loc 1 99 9 is_stmt 0 view .LVU116
 623 0030 2846     		mov	r0, r5
 624 0032 0021     		movs	r1, #0
 625 0034 FFF7FEFF 		bl	chMsgSend
 626              	.LVL59:
 627              		.loc 1 100 3 is_stmt 1 view .LVU117
 628              		.loc 1 101 1 is_stmt 0 view .LVU118
 629 0038 044B     		ldr	r3, .L40
 630 003a 1A68     		ldr	r2, [r3]
 631 003c 019B     		ldr	r3, [sp, #4]
 632 003e 5A40     		eors	r2, r3, r2
 633 0040 02D1     		bne	.L39
 634 0042 2046     		mov	r0, r4
 635 0044 02B0     		add	sp, sp, #8
 636              		.cfi_remember_state
 637              		.cfi_def_cfa_offset 16
 638              		@ sp needed
 639 0046 70BD     		pop	{r4, r5, r6, pc}
 640              	.LVL60:
 641              	.L39:
 642              		.cfi_restore_state
 643              		.loc 1 101 1 view .LVU119
 644 0048 FFF7FEFF 		bl	__stack_chk_fail
 645              	.LVL61:
 646              	.L41:
 647              		.align	2
 648              	.L40:
ARM GAS  /tmp/ccvURch4.s 			page 13


 649 004c 00000000 		.word	.LC17
 650 0050 00000000 		.word	test_timer_done
 651              		.cfi_endproc
 652              	.LFE221:
 653              		.size	msg_loop_test, .-msg_loop_test
 654              		.section	.rodata.bmk1_execute.str1.4,"aMS",%progbits,1
 655              		.align	2
 656              	.LC18:
 657 0000 206D7367 		.ascii	" msgs/S, \000"
 657      732F532C 
 657      2000
 658 000a 0000     		.align	2
 659              	.LC19:
 660 000c 20637478 		.ascii	" ctxswc/S\000"
 660      7377632F 
 660      5300
 661              		.section	.rodata.bmk1_execute.cst4,"aM",%progbits,4
 662              		.align	2
 663              	.LC20:
 664 0000 00000000 		.word	__stack_chk_guard
 665              		.section	.text.bmk1_execute,"ax",%progbits
 666              		.align	1
 667              		.p2align 4,,15
 668              		.syntax unified
 669              		.thumb
 670              		.thumb_func
 671              		.fpu fpv4-sp-d16
 672              		.type	bmk1_execute, %function
 673              	bmk1_execute:
 674              	.LFB222:
 675              		.loc 1 112 32 is_stmt 1 view -0
 676              		.cfi_startproc
 677              		@ args = 0, pretend = 0, frame = 8
 678              		@ frame_needed = 0, uses_anonymous_args = 0
 679 0000 10B5     		push	{r4, lr}
 680              		.cfi_def_cfa_offset 8
 681              		.cfi_offset 4, -8
 682              		.cfi_offset 14, -4
 683              	.LBB155:
 684              	.LBB156:
 685              	.LBB157:
 686              	.LBB158:
 687              		.loc 3 176 18 is_stmt 0 view .LVU121
 688 0002 194B     		ldr	r3, .L47
 689              	.LBE158:
 690              	.LBE157:
 691              	.LBE156:
 692              	.LBE155:
 693              		.loc 1 115 16 view .LVU122
 694 0004 194A     		ldr	r2, .L47+4
 695              	.LBB163:
 696              	.LBB161:
 697              		.loc 3 189 25 view .LVU123
 698 0006 9B69     		ldr	r3, [r3, #24]
 699              	.LBE161:
 700              	.LBE163:
 701              		.loc 1 112 32 view .LVU124
ARM GAS  /tmp/ccvURch4.s 			page 14


 702 0008 1949     		ldr	r1, .L47+8
 703              		.loc 1 115 16 view .LVU125
 704 000a 1068     		ldr	r0, [r2]
 705 000c 9A68     		ldr	r2, [r3, #8]
 706 000e 194B     		ldr	r3, .L47+12
 707              		.loc 1 112 32 view .LVU126
 708 0010 84B0     		sub	sp, sp, #16
 709              		.cfi_def_cfa_offset 24
 710              		.loc 1 112 32 view .LVU127
 711 0012 0968     		ldr	r1, [r1]
 712 0014 0391     		str	r1, [sp, #12]
 713 0016 4FF00001 		mov	r1,#0
 714              		.loc 1 113 3 is_stmt 1 view .LVU128
 715              		.loc 1 115 3 view .LVU129
 716              	.LBB164:
 717              	.LBI155:
 718              		.loc 3 187 23 view .LVU130
 719              	.LBB162:
 720              		.loc 3 189 3 view .LVU131
 721              	.LBB160:
 722              	.LBI157:
 723              		.loc 3 174 25 view .LVU132
 724              	.LBB159:
 725              		.loc 3 176 3 view .LVU133
 726              	.LBE159:
 727              	.LBE160:
 728              	.LBE162:
 729              	.LBE164:
 730              		.loc 1 115 16 is_stmt 0 view .LVU134
 731 001a 0021     		movs	r1, #0
 732 001c 013A     		subs	r2, r2, #1
 733 001e 0091     		str	r1, [sp]
 734 0020 4FF4FC71 		mov	r1, #504
 735 0024 FFF7FEFF 		bl	chThdCreateStatic
 736              	.LVL62:
 737              		.loc 1 115 14 view .LVU135
 738 0028 134B     		ldr	r3, .L47+16
 739 002a 1860     		str	r0, [r3]
 740              		.loc 1 116 3 is_stmt 1 view .LVU136
 741              		.loc 1 116 7 is_stmt 0 view .LVU137
 742 002c FFF7FEFF 		bl	msg_loop_test
 743              	.LVL63:
 744 0030 0446     		mov	r4, r0
 745              	.LVL64:
 746              		.loc 1 117 3 is_stmt 1 view .LVU138
 747 0032 FFF7FEFF 		bl	test_wait_threads
 748              	.LVL65:
 749              		.loc 1 118 3 view .LVU139
 750 0036 1148     		ldr	r0, .L47+20
 751 0038 FFF7FEFF 		bl	test_print
 752              	.LVL66:
 753              		.loc 1 119 3 view .LVU140
 754 003c 2046     		mov	r0, r4
 755 003e FFF7FEFF 		bl	test_printn
 756              	.LVL67:
 757              		.loc 1 120 3 view .LVU141
 758 0042 0F48     		ldr	r0, .L47+24
ARM GAS  /tmp/ccvURch4.s 			page 15


 759 0044 FFF7FEFF 		bl	test_print
 760              	.LVL68:
 761              		.loc 1 121 3 view .LVU142
 762 0048 6000     		lsls	r0, r4, #1
 763 004a FFF7FEFF 		bl	test_printn
 764              	.LVL69:
 765              		.loc 1 122 3 view .LVU143
 766 004e 084B     		ldr	r3, .L47+8
 767 0050 1A68     		ldr	r2, [r3]
 768 0052 039B     		ldr	r3, [sp, #12]
 769 0054 5A40     		eors	r2, r3, r2
 770 0056 05D1     		bne	.L46
 771 0058 0A48     		ldr	r0, .L47+28
 772              		.loc 1 123 1 is_stmt 0 view .LVU144
 773 005a 04B0     		add	sp, sp, #16
 774              		.cfi_remember_state
 775              		.cfi_def_cfa_offset 8
 776              		@ sp needed
 777 005c BDE81040 		pop	{r4, lr}
 778              		.cfi_restore 14
 779              		.cfi_restore 4
 780              		.cfi_def_cfa_offset 0
 781              	.LVL70:
 782              		.loc 1 122 3 view .LVU145
 783 0060 FFF7FEBF 		b	test_println
 784              	.LVL71:
 785              	.L46:
 786              		.cfi_restore_state
 787              		.loc 1 122 3 view .LVU146
 788 0064 FFF7FEFF 		bl	__stack_chk_fail
 789              	.LVL72:
 790              	.L48:
 791              		.align	2
 792              	.L47:
 793 0068 00000000 		.word	ch
 794 006c 00000000 		.word	wa
 795 0070 00000000 		.word	.LC20
 796 0074 00000000 		.word	thread2
 797 0078 00000000 		.word	threads
 798 007c 00000000 		.word	.LC14
 799 0080 00000000 		.word	.LC18
 800 0084 0C000000 		.word	.LC19
 801              		.cfi_endproc
 802              	.LFE222:
 803              		.size	bmk1_execute, .-bmk1_execute
 804              		.section	.rodata.bmk2_execute.cst4,"aM",%progbits,4
 805              		.align	2
 806              	.LC21:
 807 0000 00000000 		.word	__stack_chk_guard
 808              		.section	.text.bmk2_execute,"ax",%progbits
 809              		.align	1
 810              		.p2align 4,,15
 811              		.syntax unified
 812              		.thumb
 813              		.thumb_func
 814              		.fpu fpv4-sp-d16
 815              		.type	bmk2_execute, %function
ARM GAS  /tmp/ccvURch4.s 			page 16


 816              	bmk2_execute:
 817              	.LFB223:
 818              		.loc 1 141 32 is_stmt 1 view -0
 819              		.cfi_startproc
 820              		@ args = 0, pretend = 0, frame = 8
 821              		@ frame_needed = 0, uses_anonymous_args = 0
 822 0000 10B5     		push	{r4, lr}
 823              		.cfi_def_cfa_offset 8
 824              		.cfi_offset 4, -8
 825              		.cfi_offset 14, -4
 826              	.LBB165:
 827              	.LBB166:
 828              	.LBB167:
 829              	.LBB168:
 830              		.loc 3 176 18 is_stmt 0 view .LVU148
 831 0002 194B     		ldr	r3, .L54
 832              	.LBE168:
 833              	.LBE167:
 834              	.LBE166:
 835              	.LBE165:
 836              		.loc 1 144 16 view .LVU149
 837 0004 194A     		ldr	r2, .L54+4
 838              	.LBB173:
 839              	.LBB171:
 840              		.loc 3 189 25 view .LVU150
 841 0006 9B69     		ldr	r3, [r3, #24]
 842              	.LBE171:
 843              	.LBE173:
 844              		.loc 1 141 32 view .LVU151
 845 0008 1949     		ldr	r1, .L54+8
 846              		.loc 1 144 16 view .LVU152
 847 000a 1068     		ldr	r0, [r2]
 848 000c 9A68     		ldr	r2, [r3, #8]
 849 000e 194B     		ldr	r3, .L54+12
 850              		.loc 1 141 32 view .LVU153
 851 0010 84B0     		sub	sp, sp, #16
 852              		.cfi_def_cfa_offset 24
 853              		.loc 1 141 32 view .LVU154
 854 0012 0968     		ldr	r1, [r1]
 855 0014 0391     		str	r1, [sp, #12]
 856 0016 4FF00001 		mov	r1,#0
 857              		.loc 1 142 3 is_stmt 1 view .LVU155
 858              		.loc 1 144 3 view .LVU156
 859              	.LBB174:
 860              	.LBI165:
 861              		.loc 3 187 23 view .LVU157
 862              	.LBB172:
 863              		.loc 3 189 3 view .LVU158
 864              	.LBB170:
 865              	.LBI167:
 866              		.loc 3 174 25 view .LVU159
 867              	.LBB169:
 868              		.loc 3 176 3 view .LVU160
 869              	.LBE169:
 870              	.LBE170:
 871              	.LBE172:
 872              	.LBE174:
ARM GAS  /tmp/ccvURch4.s 			page 17


 873              		.loc 1 144 16 is_stmt 0 view .LVU161
 874 001a 0021     		movs	r1, #0
 875 001c 0132     		adds	r2, r2, #1
 876 001e 0091     		str	r1, [sp]
 877 0020 4FF4FC71 		mov	r1, #504
 878 0024 FFF7FEFF 		bl	chThdCreateStatic
 879              	.LVL73:
 880              		.loc 1 144 14 view .LVU162
 881 0028 134B     		ldr	r3, .L54+16
 882 002a 1860     		str	r0, [r3]
 883              		.loc 1 145 3 is_stmt 1 view .LVU163
 884              		.loc 1 145 7 is_stmt 0 view .LVU164
 885 002c FFF7FEFF 		bl	msg_loop_test
 886              	.LVL74:
 887 0030 0446     		mov	r4, r0
 888              	.LVL75:
 889              		.loc 1 146 3 is_stmt 1 view .LVU165
 890 0032 FFF7FEFF 		bl	test_wait_threads
 891              	.LVL76:
 892              		.loc 1 147 3 view .LVU166
 893 0036 1148     		ldr	r0, .L54+20
 894 0038 FFF7FEFF 		bl	test_print
 895              	.LVL77:
 896              		.loc 1 148 3 view .LVU167
 897 003c 2046     		mov	r0, r4
 898 003e FFF7FEFF 		bl	test_printn
 899              	.LVL78:
 900              		.loc 1 149 3 view .LVU168
 901 0042 0F48     		ldr	r0, .L54+24
 902 0044 FFF7FEFF 		bl	test_print
 903              	.LVL79:
 904              		.loc 1 150 3 view .LVU169
 905 0048 6000     		lsls	r0, r4, #1
 906 004a FFF7FEFF 		bl	test_printn
 907              	.LVL80:
 908              		.loc 1 151 3 view .LVU170
 909 004e 084B     		ldr	r3, .L54+8
 910 0050 1A68     		ldr	r2, [r3]
 911 0052 039B     		ldr	r3, [sp, #12]
 912 0054 5A40     		eors	r2, r3, r2
 913 0056 05D1     		bne	.L53
 914 0058 0A48     		ldr	r0, .L54+28
 915              		.loc 1 152 1 is_stmt 0 view .LVU171
 916 005a 04B0     		add	sp, sp, #16
 917              		.cfi_remember_state
 918              		.cfi_def_cfa_offset 8
 919              		@ sp needed
 920 005c BDE81040 		pop	{r4, lr}
 921              		.cfi_restore 14
 922              		.cfi_restore 4
 923              		.cfi_def_cfa_offset 0
 924              	.LVL81:
 925              		.loc 1 151 3 view .LVU172
 926 0060 FFF7FEBF 		b	test_println
 927              	.LVL82:
 928              	.L53:
 929              		.cfi_restore_state
ARM GAS  /tmp/ccvURch4.s 			page 18


 930              		.loc 1 151 3 view .LVU173
 931 0064 FFF7FEFF 		bl	__stack_chk_fail
 932              	.LVL83:
 933              	.L55:
 934              		.align	2
 935              	.L54:
 936 0068 00000000 		.word	ch
 937 006c 00000000 		.word	wa
 938 0070 00000000 		.word	.LC21
 939 0074 00000000 		.word	thread2
 940 0078 00000000 		.word	threads
 941 007c 00000000 		.word	.LC14
 942 0080 00000000 		.word	.LC18
 943 0084 0C000000 		.word	.LC19
 944              		.cfi_endproc
 945              	.LFE223:
 946              		.size	bmk2_execute, .-bmk2_execute
 947              		.section	.rodata.bmk3_execute.cst4,"aM",%progbits,4
 948              		.align	2
 949              	.LC22:
 950 0000 00000000 		.word	__stack_chk_guard
 951              		.section	.text.bmk3_execute,"ax",%progbits
 952              		.align	1
 953              		.p2align 4,,15
 954              		.syntax unified
 955              		.thumb
 956              		.thumb_func
 957              		.fpu fpv4-sp-d16
 958              		.type	bmk3_execute, %function
 959              	bmk3_execute:
 960              	.LFB224:
 961              		.loc 1 171 32 is_stmt 1 view -0
 962              		.cfi_startproc
 963              		@ args = 0, pretend = 0, frame = 8
 964              		@ frame_needed = 0, uses_anonymous_args = 0
 965 0000 F0B5     		push	{r4, r5, r6, r7, lr}
 966              		.cfi_def_cfa_offset 20
 967              		.cfi_offset 4, -20
 968              		.cfi_offset 5, -16
 969              		.cfi_offset 6, -12
 970              		.cfi_offset 7, -8
 971              		.cfi_offset 14, -4
 972              	.LBB175:
 973              	.LBB176:
 974              	.LBB177:
 975              	.LBB178:
 976              		.loc 3 176 18 is_stmt 0 view .LVU175
 977 0002 304F     		ldr	r7, .L61
 978              	.LBE178:
 979              	.LBE177:
 980              	.LBE176:
 981              	.LBE175:
 982              		.loc 1 174 16 view .LVU176
 983 0004 304E     		ldr	r6, .L61+4
 984              	.LBB183:
 985              	.LBB181:
 986              		.loc 3 189 25 view .LVU177
ARM GAS  /tmp/ccvURch4.s 			page 19


 987 0006 BB69     		ldr	r3, [r7, #24]
 988              	.LBE181:
 989              	.LBE183:
 990              		.loc 1 171 32 view .LVU178
 991 0008 3049     		ldr	r1, .L61+8
 992              		.loc 1 174 16 view .LVU179
 993 000a 9A68     		ldr	r2, [r3, #8]
 994 000c 3068     		ldr	r0, [r6]
 995 000e 304B     		ldr	r3, .L61+12
 996              		.loc 1 174 14 view .LVU180
 997 0010 304C     		ldr	r4, .L61+16
 998              		.loc 1 171 32 view .LVU181
 999 0012 85B0     		sub	sp, sp, #20
 1000              		.cfi_def_cfa_offset 40
 1001              		.loc 1 174 16 view .LVU182
 1002 0014 0025     		movs	r5, #0
 1003              		.loc 1 171 32 view .LVU183
 1004 0016 0968     		ldr	r1, [r1]
 1005 0018 0391     		str	r1, [sp, #12]
 1006 001a 4FF00001 		mov	r1,#0
 1007              		.loc 1 172 3 is_stmt 1 view .LVU184
 1008              		.loc 1 174 3 view .LVU185
 1009              	.LBB184:
 1010              	.LBI175:
 1011              		.loc 3 187 23 view .LVU186
 1012              	.LBB182:
 1013              		.loc 3 189 3 view .LVU187
 1014              	.LBB180:
 1015              	.LBI177:
 1016              		.loc 3 174 25 view .LVU188
 1017              	.LBB179:
 1018              		.loc 3 176 3 view .LVU189
 1019              	.LBE179:
 1020              	.LBE180:
 1021              	.LBE182:
 1022              	.LBE184:
 1023              		.loc 1 174 16 is_stmt 0 view .LVU190
 1024 001e 0132     		adds	r2, r2, #1
 1025 0020 4FF4FC71 		mov	r1, #504
 1026 0024 0095     		str	r5, [sp]
 1027 0026 FFF7FEFF 		bl	chThdCreateStatic
 1028              	.LVL84:
 1029              	.LBB185:
 1030              	.LBB186:
 1031              		.loc 3 189 25 view .LVU191
 1032 002a BB69     		ldr	r3, [r7, #24]
 1033              	.LBE186:
 1034              	.LBE185:
 1035              		.loc 1 174 14 view .LVU192
 1036 002c 2060     		str	r0, [r4]
 1037              		.loc 1 175 3 is_stmt 1 view .LVU193
 1038              	.LBB190:
 1039              	.LBI185:
 1040              		.loc 3 187 23 view .LVU194
 1041              	.LBB189:
 1042              		.loc 3 189 3 view .LVU195
 1043              	.LBB187:
ARM GAS  /tmp/ccvURch4.s 			page 20


 1044              	.LBI187:
 1045              		.loc 3 174 25 view .LVU196
 1046              	.LBB188:
 1047              		.loc 3 176 3 view .LVU197
 1048              	.LBE188:
 1049              	.LBE187:
 1050              	.LBE189:
 1051              	.LBE190:
 1052              		.loc 1 175 16 is_stmt 0 view .LVU198
 1053 002e 9A68     		ldr	r2, [r3, #8]
 1054 0030 7068     		ldr	r0, [r6, #4]
 1055 0032 294B     		ldr	r3, .L61+20
 1056 0034 0095     		str	r5, [sp]
 1057 0036 023A     		subs	r2, r2, #2
 1058 0038 4FF4FC71 		mov	r1, #504
 1059 003c FFF7FEFF 		bl	chThdCreateStatic
 1060              	.LVL85:
 1061              	.LBB191:
 1062              	.LBB192:
 1063              		.loc 3 189 25 view .LVU199
 1064 0040 BB69     		ldr	r3, [r7, #24]
 1065              	.LBE192:
 1066              	.LBE191:
 1067              		.loc 1 175 14 view .LVU200
 1068 0042 6060     		str	r0, [r4, #4]
 1069              		.loc 1 176 3 is_stmt 1 view .LVU201
 1070              	.LBB196:
 1071              	.LBI191:
 1072              		.loc 3 187 23 view .LVU202
 1073              	.LBB195:
 1074              		.loc 3 189 3 view .LVU203
 1075              	.LBB193:
 1076              	.LBI193:
 1077              		.loc 3 174 25 view .LVU204
 1078              	.LBB194:
 1079              		.loc 3 176 3 view .LVU205
 1080              	.LBE194:
 1081              	.LBE193:
 1082              	.LBE195:
 1083              	.LBE196:
 1084              		.loc 1 176 16 is_stmt 0 view .LVU206
 1085 0044 9A68     		ldr	r2, [r3, #8]
 1086 0046 B068     		ldr	r0, [r6, #8]
 1087 0048 234B     		ldr	r3, .L61+20
 1088 004a 0095     		str	r5, [sp]
 1089 004c 033A     		subs	r2, r2, #3
 1090 004e 4FF4FC71 		mov	r1, #504
 1091 0052 FFF7FEFF 		bl	chThdCreateStatic
 1092              	.LVL86:
 1093              	.LBB197:
 1094              	.LBB198:
 1095              		.loc 3 189 25 view .LVU207
 1096 0056 BB69     		ldr	r3, [r7, #24]
 1097              	.LBE198:
 1098              	.LBE197:
 1099              		.loc 1 176 14 view .LVU208
 1100 0058 A060     		str	r0, [r4, #8]
ARM GAS  /tmp/ccvURch4.s 			page 21


 1101              		.loc 1 177 3 is_stmt 1 view .LVU209
 1102              	.LBB202:
 1103              	.LBI197:
 1104              		.loc 3 187 23 view .LVU210
 1105              	.LBB201:
 1106              		.loc 3 189 3 view .LVU211
 1107              	.LBB199:
 1108              	.LBI199:
 1109              		.loc 3 174 25 view .LVU212
 1110              	.LBB200:
 1111              		.loc 3 176 3 view .LVU213
 1112              	.LBE200:
 1113              	.LBE199:
 1114              	.LBE201:
 1115              	.LBE202:
 1116              		.loc 1 177 16 is_stmt 0 view .LVU214
 1117 005a 9A68     		ldr	r2, [r3, #8]
 1118 005c F068     		ldr	r0, [r6, #12]
 1119 005e 1E4B     		ldr	r3, .L61+20
 1120 0060 0095     		str	r5, [sp]
 1121 0062 043A     		subs	r2, r2, #4
 1122 0064 4FF4FC71 		mov	r1, #504
 1123 0068 FFF7FEFF 		bl	chThdCreateStatic
 1124              	.LVL87:
 1125              	.LBB203:
 1126              	.LBB204:
 1127              		.loc 3 189 25 view .LVU215
 1128 006c BB69     		ldr	r3, [r7, #24]
 1129              	.LBE204:
 1130              	.LBE203:
 1131              		.loc 1 177 14 view .LVU216
 1132 006e E060     		str	r0, [r4, #12]
 1133              		.loc 1 178 3 is_stmt 1 view .LVU217
 1134              	.LBB208:
 1135              	.LBI203:
 1136              		.loc 3 187 23 view .LVU218
 1137              	.LBB207:
 1138              		.loc 3 189 3 view .LVU219
 1139              	.LBB205:
 1140              	.LBI205:
 1141              		.loc 3 174 25 view .LVU220
 1142              	.LBB206:
 1143              		.loc 3 176 3 view .LVU221
 1144              	.LBE206:
 1145              	.LBE205:
 1146              	.LBE207:
 1147              	.LBE208:
 1148              		.loc 1 178 16 is_stmt 0 view .LVU222
 1149 0070 9A68     		ldr	r2, [r3, #8]
 1150 0072 3069     		ldr	r0, [r6, #16]
 1151 0074 184B     		ldr	r3, .L61+20
 1152 0076 0095     		str	r5, [sp]
 1153 0078 053A     		subs	r2, r2, #5
 1154 007a 4FF4FC71 		mov	r1, #504
 1155 007e FFF7FEFF 		bl	chThdCreateStatic
 1156              	.LVL88:
 1157 0082 0346     		mov	r3, r0
ARM GAS  /tmp/ccvURch4.s 			page 22


 1158              		.loc 1 179 7 view .LVU223
 1159 0084 2068     		ldr	r0, [r4]
 1160              		.loc 1 178 14 view .LVU224
 1161 0086 2361     		str	r3, [r4, #16]
 1162              		.loc 1 179 3 is_stmt 1 view .LVU225
 1163              		.loc 1 179 7 is_stmt 0 view .LVU226
 1164 0088 FFF7FEFF 		bl	msg_loop_test
 1165              	.LVL89:
 1166 008c 0446     		mov	r4, r0
 1167              	.LVL90:
 1168              		.loc 1 180 3 is_stmt 1 view .LVU227
 1169 008e FFF7FEFF 		bl	test_wait_threads
 1170              	.LVL91:
 1171              		.loc 1 181 3 view .LVU228
 1172 0092 1248     		ldr	r0, .L61+24
 1173 0094 FFF7FEFF 		bl	test_print
 1174              	.LVL92:
 1175              		.loc 1 182 3 view .LVU229
 1176 0098 2046     		mov	r0, r4
 1177 009a FFF7FEFF 		bl	test_printn
 1178              	.LVL93:
 1179              		.loc 1 183 3 view .LVU230
 1180 009e 1048     		ldr	r0, .L61+28
 1181 00a0 FFF7FEFF 		bl	test_print
 1182              	.LVL94:
 1183              		.loc 1 184 3 view .LVU231
 1184 00a4 6000     		lsls	r0, r4, #1
 1185 00a6 FFF7FEFF 		bl	test_printn
 1186              	.LVL95:
 1187              		.loc 1 185 3 view .LVU232
 1188 00aa 084B     		ldr	r3, .L61+8
 1189 00ac 1A68     		ldr	r2, [r3]
 1190 00ae 039B     		ldr	r3, [sp, #12]
 1191 00b0 5A40     		eors	r2, r3, r2
 1192 00b2 05D1     		bne	.L60
 1193 00b4 0B48     		ldr	r0, .L61+32
 1194              		.loc 1 186 1 is_stmt 0 view .LVU233
 1195 00b6 05B0     		add	sp, sp, #20
 1196              		.cfi_remember_state
 1197              		.cfi_def_cfa_offset 20
 1198              		@ sp needed
 1199 00b8 BDE8F040 		pop	{r4, r5, r6, r7, lr}
 1200              		.cfi_restore 14
 1201              		.cfi_restore 7
 1202              		.cfi_restore 6
 1203              		.cfi_restore 5
 1204              		.cfi_restore 4
 1205              		.cfi_def_cfa_offset 0
 1206              	.LVL96:
 1207              		.loc 1 185 3 view .LVU234
 1208 00bc FFF7FEBF 		b	test_println
 1209              	.LVL97:
 1210              	.L60:
 1211              		.cfi_restore_state
 1212              		.loc 1 185 3 view .LVU235
 1213 00c0 FFF7FEFF 		bl	__stack_chk_fail
 1214              	.LVL98:
ARM GAS  /tmp/ccvURch4.s 			page 23


 1215              	.L62:
 1216              		.align	2
 1217              	.L61:
 1218 00c4 00000000 		.word	ch
 1219 00c8 00000000 		.word	wa
 1220 00cc 00000000 		.word	.LC22
 1221 00d0 00000000 		.word	thread2
 1222 00d4 00000000 		.word	threads
 1223 00d8 00000000 		.word	thread1
 1224 00dc 00000000 		.word	.LC14
 1225 00e0 00000000 		.word	.LC18
 1226 00e4 0C000000 		.word	.LC19
 1227              		.cfi_endproc
 1228              	.LFE224:
 1229              		.size	bmk3_execute, .-bmk3_execute
 1230              		.section	.rodata.thread1.cst4,"aM",%progbits,4
 1231              		.align	2
 1232              	.LC23:
 1233 0000 00000000 		.word	__stack_chk_guard
 1234              		.section	.text.thread1,"ax",%progbits
 1235              		.align	1
 1236              		.p2align 4,,15
 1237              		.syntax unified
 1238              		.thumb
 1239              		.thumb_func
 1240              		.fpu fpv4-sp-d16
 1241              		.type	thread1, %function
 1242              	thread1:
 1243              	.LVL99:
 1244              	.LFB219:
 1245              		.loc 1 66 33 is_stmt 1 view -0
 1246              		.cfi_startproc
 1247              		@ args = 0, pretend = 0, frame = 8
 1248              		@ frame_needed = 0, uses_anonymous_args = 0
 1249              		.loc 1 66 33 is_stmt 0 view .LVU237
 1250 0000 00B5     		push	{lr}
 1251              		.cfi_def_cfa_offset 4
 1252              		.cfi_offset 14, -4
 1253 0002 094B     		ldr	r3, .L68
 1254 0004 83B0     		sub	sp, sp, #12
 1255              		.cfi_def_cfa_offset 16
 1256              		.loc 1 66 33 view .LVU238
 1257 0006 1B68     		ldr	r3, [r3]
 1258 0008 0193     		str	r3, [sp, #4]
 1259 000a 4FF00003 		mov	r3,#0
 1260              		.loc 1 68 3 is_stmt 1 view .LVU239
 1261 000e 064B     		ldr	r3, .L68
 1262 0010 1A68     		ldr	r2, [r3]
 1263 0012 019B     		ldr	r3, [sp, #4]
 1264 0014 5A40     		eors	r2, r3, r2
 1265 0016 04D1     		bne	.L67
 1266              		.loc 1 69 1 is_stmt 0 view .LVU240
 1267 0018 03B0     		add	sp, sp, #12
 1268              		.cfi_remember_state
 1269              		.cfi_def_cfa_offset 4
 1270              		@ sp needed
 1271 001a 5DF804EB 		ldr	lr, [sp], #4
ARM GAS  /tmp/ccvURch4.s 			page 24


 1272              		.cfi_restore 14
 1273              		.cfi_def_cfa_offset 0
 1274              		.loc 1 68 3 view .LVU241
 1275 001e FFF7FEBF 		b	chThdExit
 1276              	.LVL100:
 1277              	.L67:
 1278              		.cfi_restore_state
 1279              		.loc 1 68 3 view .LVU242
 1280 0022 FFF7FEFF 		bl	__stack_chk_fail
 1281              	.LVL101:
 1282              	.L69:
 1283              		.loc 1 68 3 view .LVU243
 1284 0026 00BF     		.align	2
 1285              	.L68:
 1286 0028 00000000 		.word	.LC23
 1287              		.cfi_endproc
 1288              	.LFE219:
 1289              		.size	thread1, .-thread1
 1290              		.section	.rodata.bmk5_execute.cst4,"aM",%progbits,4
 1291              		.align	2
 1292              	.LC24:
 1293 0000 00000000 		.word	__stack_chk_guard
 1294              		.section	.text.bmk5_execute,"ax",%progbits
 1295              		.align	1
 1296              		.p2align 4,,15
 1297              		.syntax unified
 1298              		.thumb
 1299              		.thumb_func
 1300              		.fpu fpv4-sp-d16
 1301              		.type	bmk5_execute, %function
 1302              	bmk5_execute:
 1303              	.LFB227:
 1304              		.loc 1 268 32 is_stmt 1 view -0
 1305              		.cfi_startproc
 1306              		@ args = 0, pretend = 0, frame = 8
 1307              		@ frame_needed = 0, uses_anonymous_args = 0
 1308 0000 2DE9F043 		push	{r4, r5, r6, r7, r8, r9, lr}
 1309              		.cfi_def_cfa_offset 28
 1310              		.cfi_offset 4, -28
 1311              		.cfi_offset 5, -24
 1312              		.cfi_offset 6, -20
 1313              		.cfi_offset 7, -16
 1314              		.cfi_offset 8, -12
 1315              		.cfi_offset 9, -8
 1316              		.cfi_offset 14, -4
 1317              	.LBB209:
 1318              	.LBB210:
 1319              	.LBB211:
 1320              	.LBB212:
 1321              		.loc 3 176 18 is_stmt 0 view .LVU245
 1322 0004 1C4A     		ldr	r2, .L78
 1323              	.LBE212:
 1324              	.LBE211:
 1325              	.LBE210:
 1326              	.LBE209:
 1327              		.loc 1 271 9 view .LVU246
 1328 0006 1D4B     		ldr	r3, .L78+4
ARM GAS  /tmp/ccvURch4.s 			page 25


 1329              	.LBB217:
 1330              	.LBB215:
 1331              		.loc 3 189 25 view .LVU247
 1332 0008 9269     		ldr	r2, [r2, #24]
 1333              	.LBE215:
 1334              	.LBE217:
 1335              		.loc 1 268 32 view .LVU248
 1336 000a 1D49     		ldr	r1, .L78+8
 1337              		.loc 1 272 11 view .LVU249
 1338 000c 9568     		ldr	r5, [r2, #8]
 1339              		.loc 1 271 9 view .LVU250
 1340 000e D3F80090 		ldr	r9, [r3]
 1341 0012 DFF87C80 		ldr	r8, .L78+24
 1342              		.loc 1 276 5 view .LVU251
 1343 0016 1B4F     		ldr	r7, .L78+12
 1344              		.loc 1 268 32 view .LVU252
 1345 0018 85B0     		sub	sp, sp, #20
 1346              		.cfi_def_cfa_offset 48
 1347              		.loc 1 268 32 view .LVU253
 1348 001a 0968     		ldr	r1, [r1]
 1349 001c 0391     		str	r1, [sp, #12]
 1350 001e 4FF00001 		mov	r1,#0
 1351              		.loc 1 270 3 is_stmt 1 view .LVU254
 1352              	.LVL102:
 1353              		.loc 1 271 3 view .LVU255
 1354              		.loc 1 272 3 view .LVU256
 1355              	.LBB218:
 1356              	.LBI209:
 1357              		.loc 3 187 23 view .LVU257
 1358              	.LBB216:
 1359              		.loc 3 189 3 view .LVU258
 1360              	.LBB214:
 1361              	.LBI211:
 1362              		.loc 3 174 25 view .LVU259
 1363              	.LBB213:
 1364              		.loc 3 176 3 view .LVU260
 1365              	.LBE213:
 1366              	.LBE214:
 1367              	.LBE216:
 1368              	.LBE218:
 1369              		.loc 1 273 3 is_stmt 0 view .LVU261
 1370 0022 FFF7FEFF 		bl	test_wait_tick
 1371              	.LVL103:
 1372              		.loc 1 274 3 view .LVU262
 1373 0026 4FF47A70 		mov	r0, #1000
 1374 002a FFF7FEFF 		bl	test_start_timer
 1375              	.LVL104:
 1376              		.loc 1 270 12 view .LVU263
 1377 002e 0024     		movs	r4, #0
 1378              		.loc 1 272 11 view .LVU264
 1379 0030 013D     		subs	r5, r5, #1
 1380              	.LVL105:
 1381              		.loc 1 273 3 is_stmt 1 view .LVU265
 1382              		.loc 1 274 3 view .LVU266
 1383              		.loc 1 276 5 is_stmt 0 view .LVU267
 1384 0032 2646     		mov	r6, r4
 1385              	.LVL106:
ARM GAS  /tmp/ccvURch4.s 			page 26


 1386              	.L71:
 1387              		.loc 1 275 3 is_stmt 1 discriminator 1 view .LVU268
 1388              		.loc 1 276 5 discriminator 1 view .LVU269
 1389 0034 4FF4FC71 		mov	r1, #504
 1390 0038 3B46     		mov	r3, r7
 1391 003a 2A46     		mov	r2, r5
 1392 003c 0096     		str	r6, [sp]
 1393 003e 4846     		mov	r0, r9
 1394 0040 FFF7FEFF 		bl	chThdCreateStatic
 1395              	.LVL107:
 1396 0044 FFF7FEFF 		bl	chThdWait
 1397              	.LVL108:
 1398              		.loc 1 277 5 discriminator 1 view .LVU270
 1399              		.loc 1 281 3 is_stmt 0 discriminator 1 view .LVU271
 1400 0048 98F80010 		ldrb	r1, [r8]	@ zero_extendqisi2
 1401              		.loc 1 277 6 discriminator 1 view .LVU272
 1402 004c 0134     		adds	r4, r4, #1
 1403              	.LVL109:
 1404              		.loc 1 281 11 is_stmt 1 discriminator 1 view .LVU273
 1405              		.loc 1 281 3 is_stmt 0 discriminator 1 view .LVU274
 1406 004e 0029     		cmp	r1, #0
 1407 0050 F0D0     		beq	.L71
 1408              		.loc 1 282 3 is_stmt 1 view .LVU275
 1409 0052 0D48     		ldr	r0, .L78+16
 1410 0054 FFF7FEFF 		bl	test_print
 1411              	.LVL110:
 1412              		.loc 1 283 3 view .LVU276
 1413 0058 2046     		mov	r0, r4
 1414 005a FFF7FEFF 		bl	test_printn
 1415              	.LVL111:
 1416              		.loc 1 284 3 view .LVU277
 1417 005e 084B     		ldr	r3, .L78+8
 1418 0060 1A68     		ldr	r2, [r3]
 1419 0062 039B     		ldr	r3, [sp, #12]
 1420 0064 5A40     		eors	r2, r3, r2
 1421 0066 05D1     		bne	.L77
 1422 0068 0848     		ldr	r0, .L78+20
 1423              		.loc 1 285 1 is_stmt 0 view .LVU278
 1424 006a 05B0     		add	sp, sp, #20
 1425              		.cfi_remember_state
 1426              		.cfi_def_cfa_offset 28
 1427              		@ sp needed
 1428 006c BDE8F043 		pop	{r4, r5, r6, r7, r8, r9, lr}
 1429              		.cfi_restore 14
 1430              		.cfi_restore 9
 1431              		.cfi_restore 8
 1432              		.cfi_restore 7
 1433              		.cfi_restore 6
 1434              		.cfi_restore 5
 1435              		.cfi_restore 4
 1436              		.cfi_def_cfa_offset 0
 1437              	.LVL112:
 1438              		.loc 1 284 3 view .LVU279
 1439 0070 FFF7FEBF 		b	test_println
 1440              	.LVL113:
 1441              	.L77:
 1442              		.cfi_restore_state
ARM GAS  /tmp/ccvURch4.s 			page 27


 1443              		.loc 1 284 3 view .LVU280
 1444 0074 FFF7FEFF 		bl	__stack_chk_fail
 1445              	.LVL114:
 1446              	.L79:
 1447              		.align	2
 1448              	.L78:
 1449 0078 00000000 		.word	ch
 1450 007c 00000000 		.word	wa
 1451 0080 00000000 		.word	.LC24
 1452 0084 00000000 		.word	thread1
 1453 0088 00000000 		.word	.LC14
 1454 008c 10000000 		.word	.LC15
 1455 0090 00000000 		.word	test_timer_done
 1456              		.cfi_endproc
 1457              	.LFE227:
 1458              		.size	bmk5_execute, .-bmk5_execute
 1459              		.section	.rodata.bmk7_execute.str1.4,"aMS",%progbits,1
 1460              		.align	2
 1461              	.LC25:
 1462 0000 20726573 		.ascii	" reschedules/S, \000"
 1462      63686564 
 1462      756C6573 
 1462      2F532C20 
 1462      00
 1463              		.section	.rodata.bmk7_execute.cst4,"aM",%progbits,4
 1464              		.align	2
 1465              	.LC26:
 1466 0000 00000000 		.word	__stack_chk_guard
 1467              		.section	.text.bmk7_execute,"ax",%progbits
 1468              		.align	1
 1469              		.p2align 4,,15
 1470              		.syntax unified
 1471              		.thumb
 1472              		.thumb_func
 1473              		.fpu fpv4-sp-d16
 1474              		.type	bmk7_execute, %function
 1475              	bmk7_execute:
 1476              	.LFB231:
 1477              		.loc 1 357 32 is_stmt 1 view -0
 1478              		.cfi_startproc
 1479              		@ args = 0, pretend = 0, frame = 8
 1480              		@ frame_needed = 0, uses_anonymous_args = 0
 1481 0000 2DE9F041 		push	{r4, r5, r6, r7, r8, lr}
 1482              		.cfi_def_cfa_offset 24
 1483              		.cfi_offset 4, -24
 1484              		.cfi_offset 5, -20
 1485              		.cfi_offset 6, -16
 1486              		.cfi_offset 7, -12
 1487              		.cfi_offset 8, -8
 1488              		.cfi_offset 14, -4
 1489              	.LBB219:
 1490              	.LBB220:
 1491              	.LBB221:
 1492              	.LBB222:
 1493              		.loc 3 176 18 is_stmt 0 view .LVU282
 1494 0004 DFF81481 		ldr	r8, .L88+36
 1495              	.LBE222:
ARM GAS  /tmp/ccvURch4.s 			page 28


 1496              	.LBE221:
 1497              	.LBE220:
 1498              	.LBE219:
 1499              		.loc 1 360 16 view .LVU283
 1500 0008 3B4D     		ldr	r5, .L88
 1501              	.LBB227:
 1502              	.LBB225:
 1503              		.loc 3 189 25 view .LVU284
 1504 000a D8F81830 		ldr	r3, [r8, #24]
 1505              	.LBE225:
 1506              	.LBE227:
 1507              		.loc 1 357 32 view .LVU285
 1508 000e 3B49     		ldr	r1, .L88+4
 1509              		.loc 1 360 16 view .LVU286
 1510 0010 9A68     		ldr	r2, [r3, #8]
 1511 0012 2868     		ldr	r0, [r5]
 1512 0014 3A4B     		ldr	r3, .L88+8
 1513              		.loc 1 360 14 view .LVU287
 1514 0016 3B4F     		ldr	r7, .L88+12
 1515 0018 3B4E     		ldr	r6, .L88+16
 1516              		.loc 1 357 32 view .LVU288
 1517 001a 84B0     		sub	sp, sp, #16
 1518              		.cfi_def_cfa_offset 40
 1519              		.loc 1 360 16 view .LVU289
 1520 001c 0024     		movs	r4, #0
 1521              		.loc 1 357 32 view .LVU290
 1522 001e 0968     		ldr	r1, [r1]
 1523 0020 0391     		str	r1, [sp, #12]
 1524 0022 4FF00001 		mov	r1,#0
 1525              		.loc 1 358 3 is_stmt 1 view .LVU291
 1526              		.loc 1 360 3 view .LVU292
 1527              	.LBB228:
 1528              	.LBI219:
 1529              		.loc 3 187 23 view .LVU293
 1530              	.LBB226:
 1531              		.loc 3 189 3 view .LVU294
 1532              	.LBB224:
 1533              	.LBI221:
 1534              		.loc 3 174 25 view .LVU295
 1535              	.LBB223:
 1536              		.loc 3 176 3 view .LVU296
 1537              	.LBE223:
 1538              	.LBE224:
 1539              	.LBE226:
 1540              	.LBE228:
 1541              		.loc 1 360 16 is_stmt 0 view .LVU297
 1542 0026 0532     		adds	r2, r2, #5
 1543 0028 4FF4FC71 		mov	r1, #504
 1544 002c 0094     		str	r4, [sp]
 1545 002e FFF7FEFF 		bl	chThdCreateStatic
 1546              	.LVL115:
 1547              	.LBB229:
 1548              	.LBB230:
 1549              		.loc 3 189 25 view .LVU298
 1550 0032 D8F81830 		ldr	r3, [r8, #24]
 1551              	.LBE230:
 1552              	.LBE229:
ARM GAS  /tmp/ccvURch4.s 			page 29


 1553              		.loc 1 360 14 view .LVU299
 1554 0036 3860     		str	r0, [r7]
 1555              		.loc 1 361 3 is_stmt 1 view .LVU300
 1556              	.LBB234:
 1557              	.LBI229:
 1558              		.loc 3 187 23 view .LVU301
 1559              	.LBB233:
 1560              		.loc 3 189 3 view .LVU302
 1561              	.LBB231:
 1562              	.LBI231:
 1563              		.loc 3 174 25 view .LVU303
 1564              	.LBB232:
 1565              		.loc 3 176 3 view .LVU304
 1566              	.LBE232:
 1567              	.LBE231:
 1568              	.LBE233:
 1569              	.LBE234:
 1570              		.loc 1 361 16 is_stmt 0 view .LVU305
 1571 0038 9A68     		ldr	r2, [r3, #8]
 1572 003a 6868     		ldr	r0, [r5, #4]
 1573 003c 304B     		ldr	r3, .L88+8
 1574 003e 0094     		str	r4, [sp]
 1575 0040 0432     		adds	r2, r2, #4
 1576 0042 4FF4FC71 		mov	r1, #504
 1577 0046 FFF7FEFF 		bl	chThdCreateStatic
 1578              	.LVL116:
 1579              	.LBB235:
 1580              	.LBB236:
 1581              		.loc 3 189 25 view .LVU306
 1582 004a D8F81830 		ldr	r3, [r8, #24]
 1583              	.LBE236:
 1584              	.LBE235:
 1585              		.loc 1 361 14 view .LVU307
 1586 004e 7860     		str	r0, [r7, #4]
 1587              		.loc 1 362 3 is_stmt 1 view .LVU308
 1588              	.LBB240:
 1589              	.LBI235:
 1590              		.loc 3 187 23 view .LVU309
 1591              	.LBB239:
 1592              		.loc 3 189 3 view .LVU310
 1593              	.LBB237:
 1594              	.LBI237:
 1595              		.loc 3 174 25 view .LVU311
 1596              	.LBB238:
 1597              		.loc 3 176 3 view .LVU312
 1598              	.LBE238:
 1599              	.LBE237:
 1600              	.LBE239:
 1601              	.LBE240:
 1602              		.loc 1 362 16 is_stmt 0 view .LVU313
 1603 0050 9A68     		ldr	r2, [r3, #8]
 1604 0052 A868     		ldr	r0, [r5, #8]
 1605 0054 2A4B     		ldr	r3, .L88+8
 1606 0056 0094     		str	r4, [sp]
 1607 0058 0332     		adds	r2, r2, #3
 1608 005a 4FF4FC71 		mov	r1, #504
 1609 005e FFF7FEFF 		bl	chThdCreateStatic
ARM GAS  /tmp/ccvURch4.s 			page 30


 1610              	.LVL117:
 1611              	.LBB241:
 1612              	.LBB242:
 1613              		.loc 3 189 25 view .LVU314
 1614 0062 D8F81830 		ldr	r3, [r8, #24]
 1615              	.LBE242:
 1616              	.LBE241:
 1617              		.loc 1 362 14 view .LVU315
 1618 0066 B860     		str	r0, [r7, #8]
 1619              		.loc 1 363 3 is_stmt 1 view .LVU316
 1620              	.LBB246:
 1621              	.LBI241:
 1622              		.loc 3 187 23 view .LVU317
 1623              	.LBB245:
 1624              		.loc 3 189 3 view .LVU318
 1625              	.LBB243:
 1626              	.LBI243:
 1627              		.loc 3 174 25 view .LVU319
 1628              	.LBB244:
 1629              		.loc 3 176 3 view .LVU320
 1630              	.LBE244:
 1631              	.LBE243:
 1632              	.LBE245:
 1633              	.LBE246:
 1634              		.loc 1 363 16 is_stmt 0 view .LVU321
 1635 0068 9A68     		ldr	r2, [r3, #8]
 1636 006a E868     		ldr	r0, [r5, #12]
 1637 006c 244B     		ldr	r3, .L88+8
 1638 006e 0094     		str	r4, [sp]
 1639 0070 0232     		adds	r2, r2, #2
 1640 0072 4FF4FC71 		mov	r1, #504
 1641 0076 FFF7FEFF 		bl	chThdCreateStatic
 1642              	.LVL118:
 1643              	.LBB247:
 1644              	.LBB248:
 1645              		.loc 3 189 25 view .LVU322
 1646 007a D8F81830 		ldr	r3, [r8, #24]
 1647              	.LBE248:
 1648              	.LBE247:
 1649              		.loc 1 363 14 view .LVU323
 1650 007e F860     		str	r0, [r7, #12]
 1651              		.loc 1 364 3 is_stmt 1 view .LVU324
 1652              	.LBB252:
 1653              	.LBI247:
 1654              		.loc 3 187 23 view .LVU325
 1655              	.LBB251:
 1656              		.loc 3 189 3 view .LVU326
 1657              	.LBB249:
 1658              	.LBI249:
 1659              		.loc 3 174 25 view .LVU327
 1660              	.LBB250:
 1661              		.loc 3 176 3 view .LVU328
 1662              	.LBE250:
 1663              	.LBE249:
 1664              	.LBE251:
 1665              	.LBE252:
 1666              		.loc 1 364 16 is_stmt 0 view .LVU329
ARM GAS  /tmp/ccvURch4.s 			page 31


 1667 0080 9A68     		ldr	r2, [r3, #8]
 1668 0082 2869     		ldr	r0, [r5, #16]
 1669 0084 1E4B     		ldr	r3, .L88+8
 1670 0086 0094     		str	r4, [sp]
 1671 0088 0132     		adds	r2, r2, #1
 1672 008a 4FF4FC71 		mov	r1, #504
 1673 008e FFF7FEFF 		bl	chThdCreateStatic
 1674              	.LVL119:
 1675              		.loc 1 364 14 view .LVU330
 1676 0092 3861     		str	r0, [r7, #16]
 1677              		.loc 1 366 3 is_stmt 1 view .LVU331
 1678              	.LVL120:
 1679              		.loc 1 367 3 view .LVU332
 1680 0094 FFF7FEFF 		bl	test_wait_tick
 1681              	.LVL121:
 1682              		.loc 1 368 3 view .LVU333
 1683 0098 4FF47A70 		mov	r0, #1000
 1684              		.loc 1 370 5 is_stmt 0 view .LVU334
 1685 009c 1B4D     		ldr	r5, .L88+20
 1686              		.loc 1 368 3 view .LVU335
 1687 009e FFF7FEFF 		bl	test_start_timer
 1688              	.LVL122:
 1689              	.L81:
 1690              		.loc 1 369 3 is_stmt 1 discriminator 1 view .LVU336
 1691              		.loc 1 370 5 discriminator 1 view .LVU337
 1692 00a2 0021     		movs	r1, #0
 1693 00a4 2846     		mov	r0, r5
 1694 00a6 FFF7FEFF 		bl	chSemReset
 1695              	.LVL123:
 1696              		.loc 1 371 5 discriminator 1 view .LVU338
 1697              		.loc 1 375 3 is_stmt 0 discriminator 1 view .LVU339
 1698 00aa 3378     		ldrb	r3, [r6]	@ zero_extendqisi2
 1699              		.loc 1 371 6 discriminator 1 view .LVU340
 1700 00ac 0134     		adds	r4, r4, #1
 1701              	.LVL124:
 1702              		.loc 1 375 11 is_stmt 1 discriminator 1 view .LVU341
 1703              		.loc 1 375 3 is_stmt 0 discriminator 1 view .LVU342
 1704 00ae 002B     		cmp	r3, #0
 1705 00b0 F7D0     		beq	.L81
 1706              		.loc 1 376 3 is_stmt 1 view .LVU343
 1707 00b2 FFF7FEFF 		bl	test_terminate_threads
 1708              	.LVL125:
 1709              		.loc 1 377 3 view .LVU344
 1710 00b6 0021     		movs	r1, #0
 1711 00b8 1448     		ldr	r0, .L88+20
 1712 00ba FFF7FEFF 		bl	chSemReset
 1713              	.LVL126:
 1714              		.loc 1 378 3 view .LVU345
 1715 00be FFF7FEFF 		bl	test_wait_threads
 1716              	.LVL127:
 1717              		.loc 1 380 3 view .LVU346
 1718 00c2 1348     		ldr	r0, .L88+24
 1719 00c4 FFF7FEFF 		bl	test_print
 1720              	.LVL128:
 1721              		.loc 1 381 3 view .LVU347
 1722 00c8 2046     		mov	r0, r4
 1723 00ca FFF7FEFF 		bl	test_printn
ARM GAS  /tmp/ccvURch4.s 			page 32


 1724              	.LVL129:
 1725              		.loc 1 382 3 view .LVU348
 1726              		.loc 1 383 3 is_stmt 0 view .LVU349
 1727 00ce 04EB4404 		add	r4, r4, r4, lsl #1
 1728              	.LVL130:
 1729              		.loc 1 382 3 view .LVU350
 1730 00d2 1048     		ldr	r0, .L88+28
 1731 00d4 FFF7FEFF 		bl	test_print
 1732              	.LVL131:
 1733              		.loc 1 383 3 is_stmt 1 view .LVU351
 1734 00d8 6000     		lsls	r0, r4, #1
 1735 00da FFF7FEFF 		bl	test_printn
 1736              	.LVL132:
 1737              		.loc 1 384 3 view .LVU352
 1738 00de 074B     		ldr	r3, .L88+4
 1739 00e0 1A68     		ldr	r2, [r3]
 1740 00e2 039B     		ldr	r3, [sp, #12]
 1741 00e4 5A40     		eors	r2, r3, r2
 1742 00e6 05D1     		bne	.L87
 1743 00e8 0B48     		ldr	r0, .L88+32
 1744              		.loc 1 385 1 is_stmt 0 view .LVU353
 1745 00ea 04B0     		add	sp, sp, #16
 1746              		.cfi_remember_state
 1747              		.cfi_def_cfa_offset 24
 1748              		@ sp needed
 1749 00ec BDE8F041 		pop	{r4, r5, r6, r7, r8, lr}
 1750              		.cfi_restore 14
 1751              		.cfi_restore 8
 1752              		.cfi_restore 7
 1753              		.cfi_restore 6
 1754              		.cfi_restore 5
 1755              		.cfi_restore 4
 1756              		.cfi_def_cfa_offset 0
 1757              		.loc 1 384 3 view .LVU354
 1758 00f0 FFF7FEBF 		b	test_println
 1759              	.LVL133:
 1760              	.L87:
 1761              		.cfi_restore_state
 1762 00f4 FFF7FEFF 		bl	__stack_chk_fail
 1763              	.LVL134:
 1764              	.L89:
 1765              		.align	2
 1766              	.L88:
 1767 00f8 00000000 		.word	wa
 1768 00fc 00000000 		.word	.LC26
 1769 0100 00000000 		.word	thread3
 1770 0104 00000000 		.word	threads
 1771 0108 00000000 		.word	test_timer_done
 1772 010c 00000000 		.word	.LANCHOR0
 1773 0110 00000000 		.word	.LC14
 1774 0114 00000000 		.word	.LC25
 1775 0118 0C000000 		.word	.LC19
 1776 011c 00000000 		.word	ch
 1777              		.cfi_endproc
 1778              	.LFE231:
 1779              		.size	bmk7_execute, .-bmk7_execute
 1780              		.section	.rodata.thread3.cst4,"aM",%progbits,4
ARM GAS  /tmp/ccvURch4.s 			page 33


 1781              		.align	2
 1782              	.LC27:
 1783 0000 00000000 		.word	__stack_chk_guard
 1784              		.section	.text.thread3,"ax",%progbits
 1785              		.align	1
 1786              		.p2align 4,,15
 1787              		.syntax unified
 1788              		.thumb
 1789              		.thumb_func
 1790              		.fpu fpv4-sp-d16
 1791              		.type	thread3, %function
 1792              	thread3:
 1793              	.LVL135:
 1794              	.LFB229:
 1795              		.loc 1 345 33 is_stmt 1 view -0
 1796              		.cfi_startproc
 1797              		@ args = 0, pretend = 0, frame = 8
 1798              		@ frame_needed = 0, uses_anonymous_args = 0
 1799              		.loc 1 345 33 is_stmt 0 view .LVU356
 1800 0000 30B5     		push	{r4, r5, lr}
 1801              		.cfi_def_cfa_offset 12
 1802              		.cfi_offset 4, -12
 1803              		.cfi_offset 5, -8
 1804              		.cfi_offset 14, -4
 1805 0002 0F4B     		ldr	r3, .L98
 1806              	.LBB253:
 1807              	.LBB254:
 1808              	.LBB255:
 1809              	.LBB256:
 1810              		.loc 3 176 18 view .LVU357
 1811 0004 0F4C     		ldr	r4, .L98+4
 1812              	.LBE256:
 1813              	.LBE255:
 1814              	.LBE254:
 1815              	.LBE253:
 1816              		.loc 1 345 33 view .LVU358
 1817 0006 83B0     		sub	sp, sp, #12
 1818              		.cfi_def_cfa_offset 24
 1819              		.loc 1 345 33 view .LVU359
 1820 0008 1B68     		ldr	r3, [r3]
 1821 000a 0193     		str	r3, [sp, #4]
 1822 000c 4FF00003 		mov	r3,#0
 1823              		.loc 1 347 3 is_stmt 1 view .LVU360
 1824              		.loc 1 348 3 view .LVU361
 1825              		.loc 1 348 9 view .LVU362
 1826              	.LBB263:
 1827              	.LBI253:
 1828              		.loc 3 231 20 view .LVU363
 1829              	.LBB261:
 1830              		.loc 3 233 3 view .LVU364
 1831              	.LBB259:
 1832              	.LBI255:
 1833              		.loc 3 174 25 view .LVU365
 1834              	.LBB257:
 1835              		.loc 3 176 3 view .LVU366
 1836              	.LBE257:
 1837              	.LBE259:
ARM GAS  /tmp/ccvURch4.s 			page 34


 1838              		.loc 3 233 33 is_stmt 0 view .LVU367
 1839 0010 A369     		ldr	r3, [r4, #24]
 1840              	.LBE261:
 1841              	.LBE263:
 1842              		.loc 1 348 9 view .LVU368
 1843 0012 93F82130 		ldrb	r3, [r3, #33]	@ zero_extendqisi2
 1844 0016 5A07     		lsls	r2, r3, #29
 1845 0018 08D4     		bmi	.L90
 1846              		.loc 1 349 5 view .LVU369
 1847 001a 0B4D     		ldr	r5, .L98+8
 1848              	.LVL136:
 1849              	.L92:
 1850              		.loc 1 349 5 is_stmt 1 view .LVU370
 1851 001c 2846     		mov	r0, r5
 1852 001e FFF7FEFF 		bl	chSemWait
 1853              	.LVL137:
 1854              		.loc 1 348 9 view .LVU371
 1855              	.LBB264:
 1856              		.loc 3 231 20 view .LVU372
 1857              	.LBB262:
 1858              		.loc 3 233 3 view .LVU373
 1859              	.LBB260:
 1860              		.loc 3 174 25 view .LVU374
 1861              	.LBB258:
 1862              		.loc 3 176 3 view .LVU375
 1863              	.LBE258:
 1864              	.LBE260:
 1865              		.loc 3 233 33 is_stmt 0 view .LVU376
 1866 0022 A369     		ldr	r3, [r4, #24]
 1867              	.LBE262:
 1868              	.LBE264:
 1869              		.loc 1 348 9 view .LVU377
 1870 0024 93F82130 		ldrb	r3, [r3, #33]	@ zero_extendqisi2
 1871 0028 5B07     		lsls	r3, r3, #29
 1872 002a F7D5     		bpl	.L92
 1873              	.L90:
 1874              		.loc 1 350 1 view .LVU378
 1875 002c 044B     		ldr	r3, .L98
 1876 002e 1A68     		ldr	r2, [r3]
 1877 0030 019B     		ldr	r3, [sp, #4]
 1878 0032 5A40     		eors	r2, r3, r2
 1879 0034 01D1     		bne	.L97
 1880 0036 03B0     		add	sp, sp, #12
 1881              		.cfi_remember_state
 1882              		.cfi_def_cfa_offset 12
 1883              		@ sp needed
 1884 0038 30BD     		pop	{r4, r5, pc}
 1885              	.L97:
 1886              		.cfi_restore_state
 1887 003a FFF7FEFF 		bl	__stack_chk_fail
 1888              	.LVL138:
 1889              	.L99:
 1890 003e 00BF     		.align	2
 1891              	.L98:
 1892 0040 00000000 		.word	.LC27
 1893 0044 00000000 		.word	ch
 1894 0048 00000000 		.word	.LANCHOR0
ARM GAS  /tmp/ccvURch4.s 			page 35


 1895              		.cfi_endproc
 1896              	.LFE229:
 1897              		.size	thread3, .-thread3
 1898              		.section	.rodata.bmk7_setup.cst4,"aM",%progbits,4
 1899              		.align	2
 1900              	.LC28:
 1901 0000 00000000 		.word	__stack_chk_guard
 1902              		.section	.text.bmk7_setup,"ax",%progbits
 1903              		.align	1
 1904              		.p2align 4,,15
 1905              		.syntax unified
 1906              		.thumb
 1907              		.thumb_func
 1908              		.fpu fpv4-sp-d16
 1909              		.type	bmk7_setup, %function
 1910              	bmk7_setup:
 1911              	.LFB230:
 1912              		.loc 1 352 30 is_stmt 1 view -0
 1913              		.cfi_startproc
 1914              		@ args = 0, pretend = 0, frame = 8
 1915              		@ frame_needed = 0, uses_anonymous_args = 0
 1916 0000 00B5     		push	{lr}
 1917              		.cfi_def_cfa_offset 4
 1918              		.cfi_offset 14, -4
 1919 0002 0A4B     		ldr	r3, .L105
 1920 0004 83B0     		sub	sp, sp, #12
 1921              		.cfi_def_cfa_offset 16
 1922              		.loc 1 352 30 is_stmt 0 view .LVU380
 1923 0006 1B68     		ldr	r3, [r3]
 1924 0008 0193     		str	r3, [sp, #4]
 1925 000a 4FF00003 		mov	r3,#0
 1926              		.loc 1 354 3 is_stmt 1 view .LVU381
 1927 000e 074B     		ldr	r3, .L105
 1928 0010 1A68     		ldr	r2, [r3]
 1929 0012 019B     		ldr	r3, [sp, #4]
 1930 0014 5A40     		eors	r2, r3, r2
 1931 0016 06D1     		bne	.L104
 1932 0018 0548     		ldr	r0, .L105+4
 1933 001a 0021     		movs	r1, #0
 1934              		.loc 1 355 1 is_stmt 0 view .LVU382
 1935 001c 03B0     		add	sp, sp, #12
 1936              		.cfi_remember_state
 1937              		.cfi_def_cfa_offset 4
 1938              		@ sp needed
 1939 001e 5DF804EB 		ldr	lr, [sp], #4
 1940              		.cfi_restore 14
 1941              		.cfi_def_cfa_offset 0
 1942              		.loc 1 354 3 view .LVU383
 1943 0022 FFF7FEBF 		b	chSemObjectInit
 1944              	.LVL139:
 1945              	.L104:
 1946              		.cfi_restore_state
 1947 0026 FFF7FEFF 		bl	__stack_chk_fail
 1948              	.LVL140:
 1949              	.L106:
 1950 002a 00BF     		.align	2
 1951              	.L105:
ARM GAS  /tmp/ccvURch4.s 			page 36


 1952 002c 00000000 		.word	.LC28
 1953 0030 00000000 		.word	.LANCHOR0
 1954              		.cfi_endproc
 1955              	.LFE230:
 1956              		.size	bmk7_setup, .-bmk7_setup
 1957              		.section	.rodata.bmk11_setup.cst4,"aM",%progbits,4
 1958              		.align	2
 1959              	.LC29:
 1960 0000 00000000 		.word	__stack_chk_guard
 1961              		.section	.text.bmk11_setup,"ax",%progbits
 1962              		.align	1
 1963              		.p2align 4,,15
 1964              		.syntax unified
 1965              		.thumb
 1966              		.thumb_func
 1967              		.fpu fpv4-sp-d16
 1968              		.type	bmk11_setup, %function
 1969              	bmk11_setup:
 1970              	.LFB237:
 1971              		.loc 1 548 31 is_stmt 1 view -0
 1972              		.cfi_startproc
 1973              		@ args = 0, pretend = 0, frame = 8
 1974              		@ frame_needed = 0, uses_anonymous_args = 0
 1975 0000 00B5     		push	{lr}
 1976              		.cfi_def_cfa_offset 4
 1977              		.cfi_offset 14, -4
 1978 0002 0A4B     		ldr	r3, .L112
 1979 0004 83B0     		sub	sp, sp, #12
 1980              		.cfi_def_cfa_offset 16
 1981              		.loc 1 548 31 is_stmt 0 view .LVU385
 1982 0006 1B68     		ldr	r3, [r3]
 1983 0008 0193     		str	r3, [sp, #4]
 1984 000a 4FF00003 		mov	r3,#0
 1985              		.loc 1 550 3 is_stmt 1 view .LVU386
 1986 000e 074B     		ldr	r3, .L112
 1987 0010 1A68     		ldr	r2, [r3]
 1988 0012 019B     		ldr	r3, [sp, #4]
 1989 0014 5A40     		eors	r2, r3, r2
 1990 0016 06D1     		bne	.L111
 1991 0018 0548     		ldr	r0, .L112+4
 1992 001a 0121     		movs	r1, #1
 1993              		.loc 1 551 1 is_stmt 0 view .LVU387
 1994 001c 03B0     		add	sp, sp, #12
 1995              		.cfi_remember_state
 1996              		.cfi_def_cfa_offset 4
 1997              		@ sp needed
 1998 001e 5DF804EB 		ldr	lr, [sp], #4
 1999              		.cfi_restore 14
 2000              		.cfi_def_cfa_offset 0
 2001              		.loc 1 550 3 view .LVU388
 2002 0022 FFF7FEBF 		b	chSemObjectInit
 2003              	.LVL141:
 2004              	.L111:
 2005              		.cfi_restore_state
 2006 0026 FFF7FEFF 		bl	__stack_chk_fail
 2007              	.LVL142:
 2008              	.L113:
ARM GAS  /tmp/ccvURch4.s 			page 37


 2009 002a 00BF     		.align	2
 2010              	.L112:
 2011 002c 00000000 		.word	.LC29
 2012 0030 00000000 		.word	.LANCHOR0
 2013              		.cfi_endproc
 2014              	.LFE237:
 2015              		.size	bmk11_setup, .-bmk11_setup
 2016              		.section	.rodata.bmk8_execute.cst4,"aM",%progbits,4
 2017              		.align	2
 2018              	.LC30:
 2019 0000 00000000 		.word	__stack_chk_guard
 2020              		.section	.text.bmk8_execute,"ax",%progbits
 2021              		.align	1
 2022              		.p2align 4,,15
 2023              		.syntax unified
 2024              		.thumb
 2025              		.thumb_func
 2026              		.fpu fpv4-sp-d16
 2027              		.type	bmk8_execute, %function
 2028              	bmk8_execute:
 2029              	.LFB233:
 2030              		.loc 1 419 32 is_stmt 1 view -0
 2031              		.cfi_startproc
 2032              		@ args = 0, pretend = 0, frame = 8
 2033              		@ frame_needed = 0, uses_anonymous_args = 0
 2034 0000 F0B5     		push	{r4, r5, r6, r7, lr}
 2035              		.cfi_def_cfa_offset 20
 2036              		.cfi_offset 4, -20
 2037              		.cfi_offset 5, -16
 2038              		.cfi_offset 6, -12
 2039              		.cfi_offset 7, -8
 2040              		.cfi_offset 14, -4
 2041 0002 304B     		ldr	r3, .L118
 2042              	.LBB265:
 2043              	.LBB266:
 2044              	.LBB267:
 2045              	.LBB268:
 2046              		.loc 3 176 18 is_stmt 0 view .LVU390
 2047 0004 304F     		ldr	r7, .L118+4
 2048              	.LBE268:
 2049              	.LBE267:
 2050              	.LBE266:
 2051              	.LBE265:
 2052              		.loc 1 425 16 view .LVU391
 2053 0006 314E     		ldr	r6, .L118+8
 2054              		.loc 1 425 14 view .LVU392
 2055 0008 314C     		ldr	r4, .L118+12
 2056              		.loc 1 419 32 view .LVU393
 2057 000a 85B0     		sub	sp, sp, #20
 2058              		.cfi_def_cfa_offset 40
 2059              		.loc 1 419 32 view .LVU394
 2060 000c 1B68     		ldr	r3, [r3]
 2061 000e 0393     		str	r3, [sp, #12]
 2062 0010 4FF00003 		mov	r3,#0
 2063              		.loc 1 420 3 is_stmt 1 view .LVU395
 2064              		.loc 1 422 3 view .LVU396
 2065              		.loc 1 422 5 is_stmt 0 view .LVU397
ARM GAS  /tmp/ccvURch4.s 			page 38


 2066 0014 0023     		movs	r3, #0
 2067 0016 0293     		str	r3, [sp, #8]
 2068              		.loc 1 423 3 is_stmt 1 view .LVU398
 2069 0018 FFF7FEFF 		bl	test_wait_tick
 2070              	.LVL143:
 2071              		.loc 1 425 3 view .LVU399
 2072              	.LBB272:
 2073              	.LBI265:
 2074              		.loc 3 187 23 view .LVU400
 2075              	.LBB271:
 2076              		.loc 3 189 3 view .LVU401
 2077              	.LBB270:
 2078              	.LBI267:
 2079              		.loc 3 174 25 view .LVU402
 2080              	.LBB269:
 2081              		.loc 3 176 3 view .LVU403
 2082              	.LBE269:
 2083              	.LBE270:
 2084              		.loc 3 189 25 is_stmt 0 view .LVU404
 2085 001c BB69     		ldr	r3, [r7, #24]
 2086              	.LBE271:
 2087              	.LBE272:
 2088              		.loc 1 425 16 view .LVU405
 2089 001e 3068     		ldr	r0, [r6]
 2090 0020 9A68     		ldr	r2, [r3, #8]
 2091 0022 2C4B     		ldr	r3, .L118+16
 2092 0024 02AD     		add	r5, sp, #8
 2093 0026 013A     		subs	r2, r2, #1
 2094 0028 4FF4FC71 		mov	r1, #504
 2095 002c 0095     		str	r5, [sp]
 2096 002e FFF7FEFF 		bl	chThdCreateStatic
 2097              	.LVL144:
 2098              	.LBB273:
 2099              	.LBB274:
 2100              		.loc 3 189 25 view .LVU406
 2101 0032 BB69     		ldr	r3, [r7, #24]
 2102              	.LBE274:
 2103              	.LBE273:
 2104              		.loc 1 425 14 view .LVU407
 2105 0034 2060     		str	r0, [r4]
 2106              		.loc 1 426 3 is_stmt 1 view .LVU408
 2107              	.LBB278:
 2108              	.LBI273:
 2109              		.loc 3 187 23 view .LVU409
 2110              	.LBB277:
 2111              		.loc 3 189 3 view .LVU410
 2112              	.LBB275:
 2113              	.LBI275:
 2114              		.loc 3 174 25 view .LVU411
 2115              	.LBB276:
 2116              		.loc 3 176 3 view .LVU412
 2117              	.LBE276:
 2118              	.LBE275:
 2119              	.LBE277:
 2120              	.LBE278:
 2121              		.loc 1 426 16 is_stmt 0 view .LVU413
 2122 0036 9A68     		ldr	r2, [r3, #8]
ARM GAS  /tmp/ccvURch4.s 			page 39


 2123 0038 7068     		ldr	r0, [r6, #4]
 2124 003a 264B     		ldr	r3, .L118+16
 2125 003c 0095     		str	r5, [sp]
 2126 003e 013A     		subs	r2, r2, #1
 2127 0040 4FF4FC71 		mov	r1, #504
 2128 0044 FFF7FEFF 		bl	chThdCreateStatic
 2129              	.LVL145:
 2130              	.LBB279:
 2131              	.LBB280:
 2132              		.loc 3 189 25 view .LVU414
 2133 0048 BB69     		ldr	r3, [r7, #24]
 2134              	.LBE280:
 2135              	.LBE279:
 2136              		.loc 1 426 14 view .LVU415
 2137 004a 6060     		str	r0, [r4, #4]
 2138              		.loc 1 427 3 is_stmt 1 view .LVU416
 2139              	.LBB284:
 2140              	.LBI279:
 2141              		.loc 3 187 23 view .LVU417
 2142              	.LBB283:
 2143              		.loc 3 189 3 view .LVU418
 2144              	.LBB281:
 2145              	.LBI281:
 2146              		.loc 3 174 25 view .LVU419
 2147              	.LBB282:
 2148              		.loc 3 176 3 view .LVU420
 2149              	.LBE282:
 2150              	.LBE281:
 2151              	.LBE283:
 2152              	.LBE284:
 2153              		.loc 1 427 16 is_stmt 0 view .LVU421
 2154 004c 9A68     		ldr	r2, [r3, #8]
 2155 004e B068     		ldr	r0, [r6, #8]
 2156 0050 204B     		ldr	r3, .L118+16
 2157 0052 0095     		str	r5, [sp]
 2158 0054 013A     		subs	r2, r2, #1
 2159 0056 4FF4FC71 		mov	r1, #504
 2160 005a FFF7FEFF 		bl	chThdCreateStatic
 2161              	.LVL146:
 2162              	.LBB285:
 2163              	.LBB286:
 2164              		.loc 3 189 25 view .LVU422
 2165 005e BB69     		ldr	r3, [r7, #24]
 2166              	.LBE286:
 2167              	.LBE285:
 2168              		.loc 1 427 14 view .LVU423
 2169 0060 A060     		str	r0, [r4, #8]
 2170              		.loc 1 428 3 is_stmt 1 view .LVU424
 2171              	.LBB290:
 2172              	.LBI285:
 2173              		.loc 3 187 23 view .LVU425
 2174              	.LBB289:
 2175              		.loc 3 189 3 view .LVU426
 2176              	.LBB287:
 2177              	.LBI287:
 2178              		.loc 3 174 25 view .LVU427
 2179              	.LBB288:
ARM GAS  /tmp/ccvURch4.s 			page 40


 2180              		.loc 3 176 3 view .LVU428
 2181              	.LBE288:
 2182              	.LBE287:
 2183              	.LBE289:
 2184              	.LBE290:
 2185              		.loc 1 428 16 is_stmt 0 view .LVU429
 2186 0062 9A68     		ldr	r2, [r3, #8]
 2187 0064 F068     		ldr	r0, [r6, #12]
 2188 0066 1B4B     		ldr	r3, .L118+16
 2189 0068 0095     		str	r5, [sp]
 2190 006a 013A     		subs	r2, r2, #1
 2191 006c 4FF4FC71 		mov	r1, #504
 2192 0070 FFF7FEFF 		bl	chThdCreateStatic
 2193              	.LVL147:
 2194              	.LBB291:
 2195              	.LBB292:
 2196              		.loc 3 189 25 view .LVU430
 2197 0074 BB69     		ldr	r3, [r7, #24]
 2198              	.LBE292:
 2199              	.LBE291:
 2200              		.loc 1 428 14 view .LVU431
 2201 0076 E060     		str	r0, [r4, #12]
 2202              		.loc 1 429 3 is_stmt 1 view .LVU432
 2203              	.LBB296:
 2204              	.LBI291:
 2205              		.loc 3 187 23 view .LVU433
 2206              	.LBB295:
 2207              		.loc 3 189 3 view .LVU434
 2208              	.LBB293:
 2209              	.LBI293:
 2210              		.loc 3 174 25 view .LVU435
 2211              	.LBB294:
 2212              		.loc 3 176 3 view .LVU436
 2213              	.LBE294:
 2214              	.LBE293:
 2215              	.LBE295:
 2216              	.LBE296:
 2217              		.loc 1 429 16 is_stmt 0 view .LVU437
 2218 0078 9A68     		ldr	r2, [r3, #8]
 2219 007a 3069     		ldr	r0, [r6, #16]
 2220 007c 154B     		ldr	r3, .L118+16
 2221 007e 0095     		str	r5, [sp]
 2222 0080 013A     		subs	r2, r2, #1
 2223 0082 4FF4FC71 		mov	r1, #504
 2224 0086 FFF7FEFF 		bl	chThdCreateStatic
 2225              	.LVL148:
 2226 008a 0346     		mov	r3, r0
 2227              		.loc 1 431 3 view .LVU438
 2228 008c 4FF47A70 		mov	r0, #1000
 2229              		.loc 1 429 14 view .LVU439
 2230 0090 2361     		str	r3, [r4, #16]
 2231              		.loc 1 431 3 is_stmt 1 view .LVU440
 2232 0092 FFF7FEFF 		bl	chThdSleep
 2233              	.LVL149:
 2234              		.loc 1 432 3 view .LVU441
 2235 0096 FFF7FEFF 		bl	test_terminate_threads
 2236              	.LVL150:
ARM GAS  /tmp/ccvURch4.s 			page 41


 2237              		.loc 1 433 3 view .LVU442
 2238 009a FFF7FEFF 		bl	test_wait_threads
 2239              	.LVL151:
 2240              		.loc 1 435 3 view .LVU443
 2241 009e 0E48     		ldr	r0, .L118+20
 2242 00a0 FFF7FEFF 		bl	test_print
 2243              	.LVL152:
 2244              		.loc 1 436 3 view .LVU444
 2245 00a4 0298     		ldr	r0, [sp, #8]
 2246 00a6 FFF7FEFF 		bl	test_printn
 2247              	.LVL153:
 2248              		.loc 1 437 3 view .LVU445
 2249 00aa 0C48     		ldr	r0, .L118+24
 2250 00ac FFF7FEFF 		bl	test_println
 2251              	.LVL154:
 2252              		.loc 1 438 1 is_stmt 0 view .LVU446
 2253 00b0 044B     		ldr	r3, .L118
 2254 00b2 1A68     		ldr	r2, [r3]
 2255 00b4 039B     		ldr	r3, [sp, #12]
 2256 00b6 5A40     		eors	r2, r3, r2
 2257 00b8 01D1     		bne	.L117
 2258 00ba 05B0     		add	sp, sp, #20
 2259              		.cfi_remember_state
 2260              		.cfi_def_cfa_offset 20
 2261              		@ sp needed
 2262 00bc F0BD     		pop	{r4, r5, r6, r7, pc}
 2263              	.L117:
 2264              		.cfi_restore_state
 2265 00be FFF7FEFF 		bl	__stack_chk_fail
 2266              	.LVL155:
 2267              	.L119:
 2268 00c2 00BF     		.align	2
 2269              	.L118:
 2270 00c4 00000000 		.word	.LC30
 2271 00c8 00000000 		.word	ch
 2272 00cc 00000000 		.word	wa
 2273 00d0 00000000 		.word	threads
 2274 00d4 00000000 		.word	thread8
 2275 00d8 00000000 		.word	.LC14
 2276 00dc 0C000000 		.word	.LC19
 2277              		.cfi_endproc
 2278              	.LFE233:
 2279              		.size	bmk8_execute, .-bmk8_execute
 2280              		.section	.rodata.thread8.cst4,"aM",%progbits,4
 2281              		.align	2
 2282              	.LC31:
 2283 0000 00000000 		.word	__stack_chk_guard
 2284              		.section	.text.thread8,"ax",%progbits
 2285              		.align	1
 2286              		.p2align 4,,15
 2287              		.syntax unified
 2288              		.thumb
 2289              		.thumb_func
 2290              		.fpu fpv4-sp-d16
 2291              		.type	thread8, %function
 2292              	thread8:
 2293              	.LVL156:
ARM GAS  /tmp/ccvURch4.s 			page 42


 2294              	.LFB232:
 2295              		.loc 1 405 33 is_stmt 1 view -0
 2296              		.cfi_startproc
 2297              		@ args = 0, pretend = 0, frame = 8
 2298              		@ frame_needed = 0, uses_anonymous_args = 0
 2299              		.loc 1 405 33 is_stmt 0 view .LVU448
 2300 0000 30B5     		push	{r4, r5, lr}
 2301              		.cfi_def_cfa_offset 12
 2302              		.cfi_offset 4, -12
 2303              		.cfi_offset 5, -8
 2304              		.cfi_offset 14, -4
 2305 0002 104B     		ldr	r3, .L127
 2306 0004 104D     		ldr	r5, .L127+4
 2307 0006 83B0     		sub	sp, sp, #12
 2308              		.cfi_def_cfa_offset 24
 2309              		.loc 1 405 33 view .LVU449
 2310 0008 1B68     		ldr	r3, [r3]
 2311 000a 0193     		str	r3, [sp, #4]
 2312 000c 4FF00003 		mov	r3,#0
 2313 0010 0446     		mov	r4, r0
 2314              	.LVL157:
 2315              	.L121:
 2316              		.loc 1 407 3 is_stmt 1 discriminator 1 view .LVU450
 2317              		.loc 1 408 5 discriminator 1 view .LVU451
 2318 0012 FFF7FEFF 		bl	chThdYield
 2319              	.LVL158:
 2320              		.loc 1 409 5 discriminator 1 view .LVU452
 2321 0016 FFF7FEFF 		bl	chThdYield
 2322              	.LVL159:
 2323              		.loc 1 410 5 discriminator 1 view .LVU453
 2324 001a FFF7FEFF 		bl	chThdYield
 2325              	.LVL160:
 2326              		.loc 1 411 5 discriminator 1 view .LVU454
 2327 001e FFF7FEFF 		bl	chThdYield
 2328              	.LVL161:
 2329              		.loc 1 412 5 discriminator 1 view .LVU455
 2330              		.loc 1 412 22 is_stmt 0 discriminator 1 view .LVU456
 2331 0022 2368     		ldr	r3, [r4]
 2332 0024 0433     		adds	r3, r3, #4
 2333 0026 2360     		str	r3, [r4]
 2334              		.loc 1 416 10 is_stmt 1 discriminator 1 view .LVU457
 2335              	.LBB297:
 2336              	.LBI297:
 2337              		.loc 3 231 20 discriminator 1 view .LVU458
 2338              	.LBB298:
 2339              		.loc 3 233 3 discriminator 1 view .LVU459
 2340              	.LBB299:
 2341              	.LBI299:
 2342              		.loc 3 174 25 discriminator 1 view .LVU460
 2343              	.LBB300:
 2344              		.loc 3 176 3 discriminator 1 view .LVU461
 2345              	.LBE300:
 2346              	.LBE299:
 2347              		.loc 3 233 33 is_stmt 0 discriminator 1 view .LVU462
 2348 0028 AB69     		ldr	r3, [r5, #24]
 2349              	.LBE298:
 2350              	.LBE297:
ARM GAS  /tmp/ccvURch4.s 			page 43


 2351              		.loc 1 416 3 discriminator 1 view .LVU463
 2352 002a 93F82130 		ldrb	r3, [r3, #33]	@ zero_extendqisi2
 2353 002e 5B07     		lsls	r3, r3, #29
 2354 0030 EFD5     		bpl	.L121
 2355              		.loc 1 417 1 view .LVU464
 2356 0032 044B     		ldr	r3, .L127
 2357 0034 1A68     		ldr	r2, [r3]
 2358 0036 019B     		ldr	r3, [sp, #4]
 2359 0038 5A40     		eors	r2, r3, r2
 2360 003a 01D1     		bne	.L126
 2361 003c 03B0     		add	sp, sp, #12
 2362              		.cfi_remember_state
 2363              		.cfi_def_cfa_offset 12
 2364              		@ sp needed
 2365 003e 30BD     		pop	{r4, r5, pc}
 2366              	.LVL162:
 2367              	.L126:
 2368              		.cfi_restore_state
 2369              		.loc 1 417 1 view .LVU465
 2370 0040 FFF7FEFF 		bl	__stack_chk_fail
 2371              	.LVL163:
 2372              	.L128:
 2373              		.align	2
 2374              	.L127:
 2375 0044 00000000 		.word	.LC31
 2376 0048 00000000 		.word	ch
 2377              		.cfi_endproc
 2378              	.LFE232:
 2379              		.size	thread8, .-thread8
 2380              		.section	.rodata.bmk11_execute.str1.4,"aMS",%progbits,1
 2381              		.align	2
 2382              	.LC32:
 2383 0000 20776169 		.ascii	" wait+signal/S\000"
 2383      742B7369 
 2383      676E616C 
 2383      2F5300
 2384              		.section	.rodata.bmk11_execute.cst4,"aM",%progbits,4
 2385              		.align	2
 2386              	.LC33:
 2387 0000 00000000 		.word	__stack_chk_guard
 2388              		.section	.text.bmk11_execute,"ax",%progbits
 2389              		.align	1
 2390              		.p2align 4,,15
 2391              		.syntax unified
 2392              		.thumb
 2393              		.thumb_func
 2394              		.fpu fpv4-sp-d16
 2395              		.type	bmk11_execute, %function
 2396              	bmk11_execute:
 2397              	.LFB238:
 2398              		.loc 1 553 33 is_stmt 1 view -0
 2399              		.cfi_startproc
 2400              		@ args = 0, pretend = 0, frame = 8
 2401              		@ frame_needed = 0, uses_anonymous_args = 0
 2402 0000 70B5     		push	{r4, r5, r6, lr}
 2403              		.cfi_def_cfa_offset 16
 2404              		.cfi_offset 4, -16
ARM GAS  /tmp/ccvURch4.s 			page 44


 2405              		.cfi_offset 5, -12
 2406              		.cfi_offset 6, -8
 2407              		.cfi_offset 14, -4
 2408 0002 1F4B     		ldr	r3, .L137
 2409 0004 1F4E     		ldr	r6, .L137+4
 2410              		.loc 1 559 5 is_stmt 0 view .LVU467
 2411 0006 204C     		ldr	r4, .L137+8
 2412              		.loc 1 553 33 view .LVU468
 2413 0008 82B0     		sub	sp, sp, #8
 2414              		.cfi_def_cfa_offset 24
 2415              		.loc 1 553 33 view .LVU469
 2416 000a 1B68     		ldr	r3, [r3]
 2417 000c 0193     		str	r3, [sp, #4]
 2418 000e 4FF00003 		mov	r3,#0
 2419              		.loc 1 554 3 is_stmt 1 view .LVU470
 2420              	.LVL164:
 2421              		.loc 1 556 3 view .LVU471
 2422 0012 FFF7FEFF 		bl	test_wait_tick
 2423              	.LVL165:
 2424              		.loc 1 557 3 view .LVU472
 2425 0016 4FF47A70 		mov	r0, #1000
 2426 001a FFF7FEFF 		bl	test_start_timer
 2427              	.LVL166:
 2428              		.loc 1 554 12 is_stmt 0 view .LVU473
 2429 001e 0025     		movs	r5, #0
 2430              	.LVL167:
 2431              	.L130:
 2432              		.loc 1 558 3 is_stmt 1 discriminator 1 view .LVU474
 2433              		.loc 1 559 5 discriminator 1 view .LVU475
 2434 0020 2046     		mov	r0, r4
 2435 0022 FFF7FEFF 		bl	chSemWait
 2436              	.LVL168:
 2437              		.loc 1 560 5 discriminator 1 view .LVU476
 2438 0026 2046     		mov	r0, r4
 2439 0028 FFF7FEFF 		bl	chSemSignal
 2440              	.LVL169:
 2441              		.loc 1 561 5 discriminator 1 view .LVU477
 2442 002c 2046     		mov	r0, r4
 2443 002e FFF7FEFF 		bl	chSemWait
 2444              	.LVL170:
 2445              		.loc 1 562 5 discriminator 1 view .LVU478
 2446 0032 2046     		mov	r0, r4
 2447 0034 FFF7FEFF 		bl	chSemSignal
 2448              	.LVL171:
 2449              		.loc 1 563 5 discriminator 1 view .LVU479
 2450 0038 2046     		mov	r0, r4
 2451 003a FFF7FEFF 		bl	chSemWait
 2452              	.LVL172:
 2453              		.loc 1 564 5 discriminator 1 view .LVU480
 2454 003e 2046     		mov	r0, r4
 2455 0040 FFF7FEFF 		bl	chSemSignal
 2456              	.LVL173:
 2457              		.loc 1 565 5 discriminator 1 view .LVU481
 2458 0044 2046     		mov	r0, r4
 2459 0046 FFF7FEFF 		bl	chSemWait
 2460              	.LVL174:
 2461              		.loc 1 566 5 discriminator 1 view .LVU482
ARM GAS  /tmp/ccvURch4.s 			page 45


 2462 004a 2046     		mov	r0, r4
 2463 004c FFF7FEFF 		bl	chSemSignal
 2464              	.LVL175:
 2465              		.loc 1 567 5 discriminator 1 view .LVU483
 2466              		.loc 1 571 3 is_stmt 0 discriminator 1 view .LVU484
 2467 0050 3378     		ldrb	r3, [r6]	@ zero_extendqisi2
 2468              		.loc 1 567 6 discriminator 1 view .LVU485
 2469 0052 0135     		adds	r5, r5, #1
 2470              	.LVL176:
 2471              		.loc 1 571 11 is_stmt 1 discriminator 1 view .LVU486
 2472              		.loc 1 571 3 is_stmt 0 discriminator 1 view .LVU487
 2473 0054 002B     		cmp	r3, #0
 2474 0056 E3D0     		beq	.L130
 2475              		.loc 1 572 3 is_stmt 1 view .LVU488
 2476 0058 0C48     		ldr	r0, .L137+12
 2477 005a FFF7FEFF 		bl	test_print
 2478              	.LVL177:
 2479              		.loc 1 573 3 view .LVU489
 2480 005e A800     		lsls	r0, r5, #2
 2481 0060 FFF7FEFF 		bl	test_printn
 2482              	.LVL178:
 2483              		.loc 1 574 3 view .LVU490
 2484 0064 064B     		ldr	r3, .L137
 2485 0066 1A68     		ldr	r2, [r3]
 2486 0068 019B     		ldr	r3, [sp, #4]
 2487 006a 5A40     		eors	r2, r3, r2
 2488 006c 05D1     		bne	.L136
 2489 006e 0848     		ldr	r0, .L137+16
 2490              		.loc 1 575 1 is_stmt 0 view .LVU491
 2491 0070 02B0     		add	sp, sp, #8
 2492              		.cfi_remember_state
 2493              		.cfi_def_cfa_offset 16
 2494              		@ sp needed
 2495 0072 BDE87040 		pop	{r4, r5, r6, lr}
 2496              		.cfi_restore 14
 2497              		.cfi_restore 6
 2498              		.cfi_restore 5
 2499              		.cfi_restore 4
 2500              		.cfi_def_cfa_offset 0
 2501              	.LVL179:
 2502              		.loc 1 574 3 view .LVU492
 2503 0076 FFF7FEBF 		b	test_println
 2504              	.LVL180:
 2505              	.L136:
 2506              		.cfi_restore_state
 2507              		.loc 1 574 3 view .LVU493
 2508 007a FFF7FEFF 		bl	__stack_chk_fail
 2509              	.LVL181:
 2510              	.L138:
 2511 007e 00BF     		.align	2
 2512              	.L137:
 2513 0080 00000000 		.word	.LC33
 2514 0084 00000000 		.word	test_timer_done
 2515 0088 00000000 		.word	.LANCHOR0
 2516 008c 00000000 		.word	.LC14
 2517 0090 00000000 		.word	.LC32
 2518              		.cfi_endproc
ARM GAS  /tmp/ccvURch4.s 			page 46


 2519              	.LFE238:
 2520              		.size	bmk11_execute, .-bmk11_execute
 2521              		.section	.rodata.bmk12_execute.str1.4,"aMS",%progbits,1
 2522              		.align	2
 2523              	.LC34:
 2524 0000 206C6F63 		.ascii	" lock+unlock/S\000"
 2524      6B2B756E 
 2524      6C6F636B 
 2524      2F5300
 2525              		.section	.rodata.bmk12_execute.cst4,"aM",%progbits,4
 2526              		.align	2
 2527              	.LC35:
 2528 0000 00000000 		.word	__stack_chk_guard
 2529              		.section	.text.bmk12_execute,"ax",%progbits
 2530              		.align	1
 2531              		.p2align 4,,15
 2532              		.syntax unified
 2533              		.thumb
 2534              		.thumb_func
 2535              		.fpu fpv4-sp-d16
 2536              		.type	bmk12_execute, %function
 2537              	bmk12_execute:
 2538              	.LFB240:
 2539              		.loc 1 601 33 is_stmt 1 view -0
 2540              		.cfi_startproc
 2541              		@ args = 0, pretend = 0, frame = 8
 2542              		@ frame_needed = 0, uses_anonymous_args = 0
 2543 0000 70B5     		push	{r4, r5, r6, lr}
 2544              		.cfi_def_cfa_offset 16
 2545              		.cfi_offset 4, -16
 2546              		.cfi_offset 5, -12
 2547              		.cfi_offset 6, -8
 2548              		.cfi_offset 14, -4
 2549 0002 1F4B     		ldr	r3, .L147
 2550 0004 1F4E     		ldr	r6, .L147+4
 2551              		.loc 1 607 5 is_stmt 0 view .LVU495
 2552 0006 204C     		ldr	r4, .L147+8
 2553              		.loc 1 601 33 view .LVU496
 2554 0008 82B0     		sub	sp, sp, #8
 2555              		.cfi_def_cfa_offset 24
 2556              		.loc 1 601 33 view .LVU497
 2557 000a 1B68     		ldr	r3, [r3]
 2558 000c 0193     		str	r3, [sp, #4]
 2559 000e 4FF00003 		mov	r3,#0
 2560              		.loc 1 602 3 is_stmt 1 view .LVU498
 2561              	.LVL182:
 2562              		.loc 1 604 3 view .LVU499
 2563 0012 FFF7FEFF 		bl	test_wait_tick
 2564              	.LVL183:
 2565              		.loc 1 605 3 view .LVU500
 2566 0016 4FF47A70 		mov	r0, #1000
 2567 001a FFF7FEFF 		bl	test_start_timer
 2568              	.LVL184:
 2569              		.loc 1 602 12 is_stmt 0 view .LVU501
 2570 001e 0025     		movs	r5, #0
 2571              	.LVL185:
 2572              	.L140:
ARM GAS  /tmp/ccvURch4.s 			page 47


 2573              		.loc 1 606 3 is_stmt 1 discriminator 1 view .LVU502
 2574              		.loc 1 607 5 discriminator 1 view .LVU503
 2575 0020 2046     		mov	r0, r4
 2576 0022 FFF7FEFF 		bl	chMtxLock
 2577              	.LVL186:
 2578              		.loc 1 608 5 discriminator 1 view .LVU504
 2579 0026 2046     		mov	r0, r4
 2580 0028 FFF7FEFF 		bl	chMtxUnlock
 2581              	.LVL187:
 2582              		.loc 1 609 5 discriminator 1 view .LVU505
 2583 002c 2046     		mov	r0, r4
 2584 002e FFF7FEFF 		bl	chMtxLock
 2585              	.LVL188:
 2586              		.loc 1 610 5 discriminator 1 view .LVU506
 2587 0032 2046     		mov	r0, r4
 2588 0034 FFF7FEFF 		bl	chMtxUnlock
 2589              	.LVL189:
 2590              		.loc 1 611 5 discriminator 1 view .LVU507
 2591 0038 2046     		mov	r0, r4
 2592 003a FFF7FEFF 		bl	chMtxLock
 2593              	.LVL190:
 2594              		.loc 1 612 5 discriminator 1 view .LVU508
 2595 003e 2046     		mov	r0, r4
 2596 0040 FFF7FEFF 		bl	chMtxUnlock
 2597              	.LVL191:
 2598              		.loc 1 613 5 discriminator 1 view .LVU509
 2599 0044 2046     		mov	r0, r4
 2600 0046 FFF7FEFF 		bl	chMtxLock
 2601              	.LVL192:
 2602              		.loc 1 614 5 discriminator 1 view .LVU510
 2603 004a 2046     		mov	r0, r4
 2604 004c FFF7FEFF 		bl	chMtxUnlock
 2605              	.LVL193:
 2606              		.loc 1 615 5 discriminator 1 view .LVU511
 2607              		.loc 1 619 3 is_stmt 0 discriminator 1 view .LVU512
 2608 0050 3378     		ldrb	r3, [r6]	@ zero_extendqisi2
 2609              		.loc 1 615 6 discriminator 1 view .LVU513
 2610 0052 0135     		adds	r5, r5, #1
 2611              	.LVL194:
 2612              		.loc 1 619 11 is_stmt 1 discriminator 1 view .LVU514
 2613              		.loc 1 619 3 is_stmt 0 discriminator 1 view .LVU515
 2614 0054 002B     		cmp	r3, #0
 2615 0056 E3D0     		beq	.L140
 2616              		.loc 1 620 3 is_stmt 1 view .LVU516
 2617 0058 0C48     		ldr	r0, .L147+12
 2618 005a FFF7FEFF 		bl	test_print
 2619              	.LVL195:
 2620              		.loc 1 621 3 view .LVU517
 2621 005e A800     		lsls	r0, r5, #2
 2622 0060 FFF7FEFF 		bl	test_printn
 2623              	.LVL196:
 2624              		.loc 1 622 3 view .LVU518
 2625 0064 064B     		ldr	r3, .L147
 2626 0066 1A68     		ldr	r2, [r3]
 2627 0068 019B     		ldr	r3, [sp, #4]
 2628 006a 5A40     		eors	r2, r3, r2
 2629 006c 05D1     		bne	.L146
ARM GAS  /tmp/ccvURch4.s 			page 48


 2630 006e 0848     		ldr	r0, .L147+16
 2631              		.loc 1 623 1 is_stmt 0 view .LVU519
 2632 0070 02B0     		add	sp, sp, #8
 2633              		.cfi_remember_state
 2634              		.cfi_def_cfa_offset 16
 2635              		@ sp needed
 2636 0072 BDE87040 		pop	{r4, r5, r6, lr}
 2637              		.cfi_restore 14
 2638              		.cfi_restore 6
 2639              		.cfi_restore 5
 2640              		.cfi_restore 4
 2641              		.cfi_def_cfa_offset 0
 2642              	.LVL197:
 2643              		.loc 1 622 3 view .LVU520
 2644 0076 FFF7FEBF 		b	test_println
 2645              	.LVL198:
 2646              	.L146:
 2647              		.cfi_restore_state
 2648              		.loc 1 622 3 view .LVU521
 2649 007a FFF7FEFF 		bl	__stack_chk_fail
 2650              	.LVL199:
 2651              	.L148:
 2652 007e 00BF     		.align	2
 2653              	.L147:
 2654 0080 00000000 		.word	.LC35
 2655 0084 00000000 		.word	test_timer_done
 2656 0088 00000000 		.word	.LANCHOR1
 2657 008c 00000000 		.word	.LC14
 2658 0090 00000000 		.word	.LC34
 2659              		.cfi_endproc
 2660              	.LFE240:
 2661              		.size	bmk12_execute, .-bmk12_execute
 2662              		.section	.rodata.bmk12_setup.cst4,"aM",%progbits,4
 2663              		.align	2
 2664              	.LC36:
 2665 0000 00000000 		.word	__stack_chk_guard
 2666              		.section	.text.bmk12_setup,"ax",%progbits
 2667              		.align	1
 2668              		.p2align 4,,15
 2669              		.syntax unified
 2670              		.thumb
 2671              		.thumb_func
 2672              		.fpu fpv4-sp-d16
 2673              		.type	bmk12_setup, %function
 2674              	bmk12_setup:
 2675              	.LFB239:
 2676              		.loc 1 596 31 is_stmt 1 view -0
 2677              		.cfi_startproc
 2678              		@ args = 0, pretend = 0, frame = 8
 2679              		@ frame_needed = 0, uses_anonymous_args = 0
 2680 0000 00B5     		push	{lr}
 2681              		.cfi_def_cfa_offset 4
 2682              		.cfi_offset 14, -4
 2683 0002 094B     		ldr	r3, .L154
 2684 0004 83B0     		sub	sp, sp, #12
 2685              		.cfi_def_cfa_offset 16
 2686              		.loc 1 596 31 is_stmt 0 view .LVU523
ARM GAS  /tmp/ccvURch4.s 			page 49


 2687 0006 1B68     		ldr	r3, [r3]
 2688 0008 0193     		str	r3, [sp, #4]
 2689 000a 4FF00003 		mov	r3,#0
 2690              		.loc 1 598 3 is_stmt 1 view .LVU524
 2691 000e 064B     		ldr	r3, .L154
 2692 0010 1A68     		ldr	r2, [r3]
 2693 0012 019B     		ldr	r3, [sp, #4]
 2694 0014 5A40     		eors	r2, r3, r2
 2695 0016 05D1     		bne	.L153
 2696 0018 0448     		ldr	r0, .L154+4
 2697              		.loc 1 599 1 is_stmt 0 view .LVU525
 2698 001a 03B0     		add	sp, sp, #12
 2699              		.cfi_remember_state
 2700              		.cfi_def_cfa_offset 4
 2701              		@ sp needed
 2702 001c 5DF804EB 		ldr	lr, [sp], #4
 2703              		.cfi_restore 14
 2704              		.cfi_def_cfa_offset 0
 2705              		.loc 1 598 3 view .LVU526
 2706 0020 FFF7FEBF 		b	chMtxObjectInit
 2707              	.LVL200:
 2708              	.L153:
 2709              		.cfi_restore_state
 2710 0024 FFF7FEFF 		bl	__stack_chk_fail
 2711              	.LVL201:
 2712              	.L155:
 2713              		.align	2
 2714              	.L154:
 2715 0028 00000000 		.word	.LC36
 2716 002c 00000000 		.word	.LANCHOR1
 2717              		.cfi_endproc
 2718              	.LFE239:
 2719              		.size	bmk12_setup, .-bmk12_setup
 2720              		.section	.rodata.bmk10_execute.str1.4,"aMS",%progbits,1
 2721              		.align	2
 2722              	.LC37:
 2723 0000 2074696D 		.ascii	" timers/S\000"
 2723      6572732F 
 2723      5300
 2724              		.section	.rodata.bmk10_execute.cst4,"aM",%progbits,4
 2725              		.align	2
 2726              	.LC38:
 2727 0000 00000000 		.word	__stack_chk_guard
 2728              		.section	.text.bmk10_execute,"ax",%progbits
 2729              		.align	1
 2730              		.p2align 4,,15
 2731              		.syntax unified
 2732              		.thumb
 2733              		.thumb_func
 2734              		.fpu fpv4-sp-d16
 2735              		.type	bmk10_execute, %function
 2736              	bmk10_execute:
 2737              	.LFB236:
 2738              		.loc 1 507 33 is_stmt 1 view -0
 2739              		.cfi_startproc
 2740              		@ args = 0, pretend = 0, frame = 8
 2741              		@ frame_needed = 0, uses_anonymous_args = 0
ARM GAS  /tmp/ccvURch4.s 			page 50


 2742 0000 2DE9F04F 		push	{r4, r5, r6, r7, r8, r9, r10, fp, lr}
 2743              		.cfi_def_cfa_offset 36
 2744              		.cfi_offset 4, -36
 2745              		.cfi_offset 5, -32
 2746              		.cfi_offset 6, -28
 2747              		.cfi_offset 7, -24
 2748              		.cfi_offset 8, -20
 2749              		.cfi_offset 9, -16
 2750              		.cfi_offset 10, -12
 2751              		.cfi_offset 11, -8
 2752              		.cfi_offset 14, -4
 2753 0004 2F4B     		ldr	r3, .L166
 2754 0006 304C     		ldr	r4, .L166+4
 2755 0008 DFF8D4A0 		ldr	r10, .L166+28
 2756              		.loc 1 515 5 is_stmt 0 view .LVU528
 2757 000c DFF8D4B0 		ldr	fp, .L166+32
 2758 0010 2E4F     		ldr	r7, .L166+8
 2759              		.loc 1 516 5 view .LVU529
 2760 0012 2F4E     		ldr	r6, .L166+12
 2761              		.loc 1 507 33 view .LVU530
 2762 0014 83B0     		sub	sp, sp, #12
 2763              		.cfi_def_cfa_offset 48
 2764              		.loc 1 507 33 view .LVU531
 2765 0016 1B68     		ldr	r3, [r3]
 2766 0018 0193     		str	r3, [sp, #4]
 2767 001a 4FF00003 		mov	r3,#0
 2768              		.loc 1 508 3 is_stmt 1 view .LVU532
 2769              		.loc 1 509 3 view .LVU533
 2770              	.LVL202:
 2771              		.loc 1 511 3 view .LVU534
 2772              		.loc 1 509 12 is_stmt 0 view .LVU535
 2773 001e 0025     		movs	r5, #0
 2774              		.loc 1 511 3 view .LVU536
 2775 0020 FFF7FEFF 		bl	test_wait_tick
 2776              	.LVL203:
 2777              		.loc 1 512 3 is_stmt 1 view .LVU537
 2778 0024 4FF47A70 		mov	r0, #1000
 2779 0028 FFF7FEFF 		bl	test_start_timer
 2780              	.LVL204:
 2781              		.loc 1 515 5 is_stmt 0 view .LVU538
 2782 002c A946     		mov	r9, r5
 2783              	.LBB311:
 2784              	.LBB312:
 2785              	.LBB313:
 2786              	.LBB314:
 2787              	.LBB315:
 2788              		.file 4 ".//ChibiOS//os/ext/CMSIS/include/core_cmFunc.h"
 2789              		.loc 4 546 3 view .LVU539
 2790 002e 4FF02008 		mov	r8, #32
 2791 0032 05E0     		b	.L158
 2792              	.LVL205:
 2793              	.L157:
 2794              		.loc 4 546 3 view .LVU540
 2795              	.LBE315:
 2796              	.LBE314:
 2797              	.LBE313:
 2798              	.LBE312:
ARM GAS  /tmp/ccvURch4.s 			page 51


 2799              	.LBE311:
 2800              	.LBB322:
 2801              	.LBB323:
 2802              		.file 5 ".//ChibiOS//os/rt/include/chsys.h"
 2803              		.loc 5 367 3 is_stmt 1 view .LVU541
 2804              		.loc 5 371 3 view .LVU542
 2805              	.LBB324:
 2806              	.LBI324:
 2807              		.file 6 ".//ChibiOS//os/rt/ports/ARMCMx/chcore_v7m.h"
 2808              		.loc 6 458 20 view .LVU543
 2809              	.LBE324:
 2810              	.LBE323:
 2811              	.LBE322:
 2812              		.loc 6 461 3 view .LVU544
 2813              	.LBB335:
 2814              	.LBB332:
 2815              	.LBB329:
 2816              	.LBB325:
 2817              	.LBI325:
 2818              		.loc 4 544 57 view .LVU545
 2819              	.LBB326:
 2820              		.loc 4 546 3 view .LVU546
 2821              		.syntax unified
 2822              	@ 546 ".//ChibiOS//os/ext/CMSIS/include/core_cmFunc.h" 1
 2823 0034 89F31188 		MSR basepri, r9
 2824              	@ 0 "" 2
 2825              	.LVL206:
 2826              		.loc 4 546 3 is_stmt 0 view .LVU547
 2827              		.thumb
 2828              		.syntax unified
 2829              	.LBE326:
 2830              	.LBE325:
 2831              	.LBE329:
 2832              	.LBE332:
 2833              	.LBE335:
 2834              		.loc 1 520 5 is_stmt 1 view .LVU548
 2835              		.loc 1 524 3 is_stmt 0 view .LVU549
 2836 0038 9AF80030 		ldrb	r3, [r10]	@ zero_extendqisi2
 2837              		.loc 1 520 6 view .LVU550
 2838 003c 0135     		adds	r5, r5, #1
 2839              	.LVL207:
 2840              		.loc 1 524 11 is_stmt 1 view .LVU551
 2841              		.loc 1 524 3 is_stmt 0 view .LVU552
 2842 003e 73BB     		cbnz	r3, .L164
 2843              	.LVL208:
 2844              	.L158:
 2845              		.loc 1 513 3 is_stmt 1 discriminator 1 view .LVU553
 2846              		.loc 1 514 5 discriminator 1 view .LVU554
 2847              	.LBB336:
 2848              	.LBI311:
 2849              		.loc 5 346 20 discriminator 1 view .LVU555
 2850              	.LBB320:
 2851              		.loc 5 348 3 discriminator 1 view .LVU556
 2852              	.LBB318:
 2853              	.LBI313:
 2854              		.loc 6 444 20 discriminator 1 view .LVU557
 2855              	.LBE318:
ARM GAS  /tmp/ccvURch4.s 			page 52


 2856              	.LBE320:
 2857              	.LBE336:
 2858              		.loc 6 447 3 discriminator 1 view .LVU558
 2859              	.LBB337:
 2860              	.LBB321:
 2861              	.LBB319:
 2862              	.LBB317:
 2863              	.LBI314:
 2864              		.loc 4 544 57 discriminator 1 view .LVU559
 2865              	.LBB316:
 2866              		.loc 4 546 3 discriminator 1 view .LVU560
 2867              		.syntax unified
 2868              	@ 546 ".//ChibiOS//os/ext/CMSIS/include/core_cmFunc.h" 1
 2869 0040 88F31188 		MSR basepri, r8
 2870              	@ 0 "" 2
 2871              	.LVL209:
 2872              		.loc 4 546 3 is_stmt 0 discriminator 1 view .LVU561
 2873              		.thumb
 2874              		.syntax unified
 2875              	.LBE316:
 2876              	.LBE317:
 2877              	.LBE319:
 2878              		.loc 5 349 3 is_stmt 1 discriminator 1 view .LVU562
 2879 0044 FFF7FEFF 		bl	_stats_start_measure_crit_thd
 2880              	.LVL210:
 2881              		.loc 5 350 3 discriminator 1 view .LVU563
 2882 0048 FFF7FEFF 		bl	_dbg_check_lock
 2883              	.LVL211:
 2884              	.LBE321:
 2885              	.LBE337:
 2886              		.loc 1 515 5 discriminator 1 view .LVU564
 2887 004c 5A46     		mov	r2, fp
 2888 004e 3846     		mov	r0, r7
 2889 0050 0023     		movs	r3, #0
 2890 0052 0121     		movs	r1, #1
 2891 0054 FFF7FEFF 		bl	chVTDoSetI
 2892              	.LVL212:
 2893              		.loc 1 516 5 discriminator 1 view .LVU565
 2894 0058 0023     		movs	r3, #0
 2895 005a 5A46     		mov	r2, fp
 2896 005c 42F21071 		movw	r1, #10000
 2897 0060 3046     		mov	r0, r6
 2898 0062 FFF7FEFF 		bl	chVTDoSetI
 2899              	.LVL213:
 2900              		.loc 1 517 5 discriminator 1 view .LVU566
 2901 0066 3846     		mov	r0, r7
 2902 0068 FFF7FEFF 		bl	chVTDoResetI
 2903              	.LVL214:
 2904              		.loc 1 518 5 discriminator 1 view .LVU567
 2905 006c 3046     		mov	r0, r6
 2906 006e FFF7FEFF 		bl	chVTDoResetI
 2907              	.LVL215:
 2908              		.loc 1 519 5 discriminator 1 view .LVU568
 2909              	.LBB338:
 2910              	.LBI322:
 2911              		.loc 5 358 20 discriminator 1 view .LVU569
 2912              	.LBB333:
ARM GAS  /tmp/ccvURch4.s 			page 53


 2913              		.loc 5 360 3 discriminator 1 view .LVU570
 2914 0072 FFF7FEFF 		bl	_dbg_check_unlock
 2915              	.LVL216:
 2916              		.loc 5 361 3 discriminator 1 view .LVU571
 2917 0076 FFF7FEFF 		bl	_stats_stop_measure_crit_thd
 2918              	.LVL217:
 2919              		.loc 5 367 3 discriminator 1 view .LVU572
 2920              		.loc 5 367 3 discriminator 1 view .LVU573
 2921              		.loc 5 367 3 discriminator 1 view .LVU574
 2922 007a 2368     		ldr	r3, [r4]
 2923 007c A342     		cmp	r3, r4
 2924 007e D9D0     		beq	.L157
 2925              		.loc 5 367 3 is_stmt 0 view .LVU575
 2926 0080 A269     		ldr	r2, [r4, #24]
 2927 0082 9B68     		ldr	r3, [r3, #8]
 2928 0084 9268     		ldr	r2, [r2, #8]
 2929 0086 9A42     		cmp	r2, r3
 2930 0088 D4D2     		bcs	.L157
 2931              		.loc 5 367 3 is_stmt 1 view .LVU576
 2932 008a 1248     		ldr	r0, .L166+16
 2933 008c FFF7FEFF 		bl	chSysHalt
 2934              	.LVL218:
 2935              		.loc 5 367 3 view .LVU577
 2936              		.loc 5 371 3 view .LVU578
 2937              	.LBB330:
 2938              		.loc 6 458 20 view .LVU579
 2939              	.LBE330:
 2940              	.LBE333:
 2941              	.LBE338:
 2942              		.loc 6 461 3 view .LVU580
 2943              	.LBB339:
 2944              	.LBB334:
 2945              	.LBB331:
 2946              	.LBB328:
 2947              		.loc 4 544 57 view .LVU581
 2948              	.LBB327:
 2949              		.loc 4 546 3 view .LVU582
 2950              		.syntax unified
 2951              	@ 546 ".//ChibiOS//os/ext/CMSIS/include/core_cmFunc.h" 1
 2952 0090 89F31188 		MSR basepri, r9
 2953              	@ 0 "" 2
 2954              	.LVL219:
 2955              		.loc 4 546 3 is_stmt 0 view .LVU583
 2956              		.thumb
 2957              		.syntax unified
 2958              	.LBE327:
 2959              	.LBE328:
 2960              	.LBE331:
 2961              	.LBE334:
 2962              	.LBE339:
 2963              		.loc 1 520 5 is_stmt 1 view .LVU584
 2964              		.loc 1 524 3 is_stmt 0 view .LVU585
 2965 0094 9AF80030 		ldrb	r3, [r10]	@ zero_extendqisi2
 2966              		.loc 1 520 6 view .LVU586
 2967 0098 0135     		adds	r5, r5, #1
 2968              	.LVL220:
 2969              		.loc 1 524 11 is_stmt 1 view .LVU587
ARM GAS  /tmp/ccvURch4.s 			page 54


 2970              		.loc 1 524 3 is_stmt 0 view .LVU588
 2971 009a 002B     		cmp	r3, #0
 2972 009c D0D0     		beq	.L158
 2973              	.L164:
 2974              		.loc 1 525 3 is_stmt 1 view .LVU589
 2975 009e 0E48     		ldr	r0, .L166+20
 2976 00a0 FFF7FEFF 		bl	test_print
 2977              	.LVL221:
 2978              		.loc 1 526 3 view .LVU590
 2979 00a4 6800     		lsls	r0, r5, #1
 2980 00a6 FFF7FEFF 		bl	test_printn
 2981              	.LVL222:
 2982              		.loc 1 527 3 view .LVU591
 2983 00aa 064B     		ldr	r3, .L166
 2984 00ac 1A68     		ldr	r2, [r3]
 2985 00ae 019B     		ldr	r3, [sp, #4]
 2986 00b0 5A40     		eors	r2, r3, r2
 2987 00b2 05D1     		bne	.L165
 2988              		.loc 1 527 3 is_stmt 0 view .LVU592
 2989 00b4 0948     		ldr	r0, .L166+24
 2990              		.loc 1 528 1 view .LVU593
 2991 00b6 03B0     		add	sp, sp, #12
 2992              		.cfi_remember_state
 2993              		.cfi_def_cfa_offset 36
 2994              		@ sp needed
 2995 00b8 BDE8F04F 		pop	{r4, r5, r6, r7, r8, r9, r10, fp, lr}
 2996              		.cfi_restore 14
 2997              		.cfi_restore 11
 2998              		.cfi_restore 10
 2999              		.cfi_restore 9
 3000              		.cfi_restore 8
 3001              		.cfi_restore 7
 3002              		.cfi_restore 6
 3003              		.cfi_restore 5
 3004              		.cfi_restore 4
 3005              		.cfi_def_cfa_offset 0
 3006              	.LVL223:
 3007              		.loc 1 527 3 view .LVU594
 3008 00bc FFF7FEBF 		b	test_println
 3009              	.LVL224:
 3010              	.L165:
 3011              		.cfi_restore_state
 3012              		.loc 1 527 3 view .LVU595
 3013 00c0 FFF7FEFF 		bl	__stack_chk_fail
 3014              	.LVL225:
 3015              	.L167:
 3016              		.align	2
 3017              	.L166:
 3018 00c4 00000000 		.word	.LC38
 3019 00c8 00000000 		.word	ch
 3020 00cc 00000000 		.word	.LANCHOR2
 3021 00d0 00000000 		.word	.LANCHOR3
 3022 00d4 00000000 		.word	.LANCHOR4
 3023 00d8 00000000 		.word	.LC14
 3024 00dc 00000000 		.word	.LC37
 3025 00e0 00000000 		.word	test_timer_done
 3026 00e4 00000000 		.word	tmo
ARM GAS  /tmp/ccvURch4.s 			page 55


 3027              		.cfi_endproc
 3028              	.LFE236:
 3029              		.size	bmk10_execute, .-bmk10_execute
 3030              		.section	.rodata.bmk9_execute.str1.4,"aMS",%progbits,1
 3031              		.align	2
 3032              	.LC39:
 3033 0000 20627974 		.ascii	" bytes/S\000"
 3033      65732F53 
 3033      00
 3034              		.section	.rodata.bmk9_execute.cst4,"aM",%progbits,4
 3035              		.align	2
 3036              	.LC40:
 3037 0000 00000000 		.word	__stack_chk_guard
 3038              		.section	.text.bmk9_execute,"ax",%progbits
 3039              		.align	1
 3040              		.p2align 4,,15
 3041              		.syntax unified
 3042              		.thumb
 3043              		.thumb_func
 3044              		.fpu fpv4-sp-d16
 3045              		.type	bmk9_execute, %function
 3046              	bmk9_execute:
 3047              	.LFB234:
 3048              		.loc 1 458 32 is_stmt 1 view -0
 3049              		.cfi_startproc
 3050              		@ args = 0, pretend = 0, frame = 8
 3051              		@ frame_needed = 0, uses_anonymous_args = 0
 3052 0000 2DE9F041 		push	{r4, r5, r6, r7, r8, lr}
 3053              		.cfi_def_cfa_offset 24
 3054              		.cfi_offset 4, -24
 3055              		.cfi_offset 5, -20
 3056              		.cfi_offset 6, -16
 3057              		.cfi_offset 7, -12
 3058              		.cfi_offset 8, -8
 3059              		.cfi_offset 14, -4
 3060 0004 84B0     		sub	sp, sp, #16
 3061              		.cfi_def_cfa_offset 40
 3062              		.loc 1 463 3 is_stmt 0 view .LVU597
 3063 0006 0026     		movs	r6, #0
 3064              		.loc 1 458 32 view .LVU598
 3065 0008 354C     		ldr	r4, .L178
 3066              		.loc 1 463 3 view .LVU599
 3067 000a 3649     		ldr	r1, .L178+4
 3068 000c 3648     		ldr	r0, .L178+8
 3069 000e 0096     		str	r6, [sp]
 3070 0010 3346     		mov	r3, r6
 3071 0012 1022     		movs	r2, #16
 3072              		.loc 1 458 32 view .LVU600
 3073 0014 2468     		ldr	r4, [r4]
 3074 0016 0394     		str	r4, [sp, #12]
 3075 0018 4FF00004 		mov	r4,#0
 3076              		.loc 1 459 3 is_stmt 1 view .LVU601
 3077              		.loc 1 460 3 view .LVU602
 3078              		.loc 1 461 3 view .LVU603
 3079              		.loc 1 463 3 view .LVU604
 3080 001c FFF7FEFF 		bl	chIQObjectInit
 3081              	.LVL226:
ARM GAS  /tmp/ccvURch4.s 			page 56


 3082              		.loc 1 464 3 view .LVU605
 3083              		.loc 1 465 3 view .LVU606
 3084 0020 FFF7FEFF 		bl	test_wait_tick
 3085              	.LVL227:
 3086              		.loc 1 466 3 view .LVU607
 3087 0024 4FF47A70 		mov	r0, #1000
 3088 0028 FFF7FEFF 		bl	test_start_timer
 3089              	.LVL228:
 3090 002c 2F4D     		ldr	r5, .L178+12
 3091 002e DFF8CC80 		ldr	r8, .L178+28
 3092              		.loc 1 469 5 is_stmt 0 view .LVU608
 3093 0032 2D4C     		ldr	r4, .L178+8
 3094 0034 3746     		mov	r7, r6
 3095 0036 19E0     		b	.L170
 3096              	.LVL229:
 3097              	.L169:
 3098              	.LBB358:
 3099              	.LBB359:
 3100              		.loc 5 367 3 is_stmt 1 view .LVU609
 3101              		.loc 5 371 3 view .LVU610
 3102              	.LBB360:
 3103              	.LBI360:
 3104              		.loc 6 458 20 view .LVU611
 3105              	.LBE360:
 3106              	.LBE359:
 3107              	.LBE358:
 3108              		.loc 6 461 3 view .LVU612
 3109              	.LBB366:
 3110              	.LBB364:
 3111              	.LBB363:
 3112              	.LBB361:
 3113              	.LBI361:
 3114              		.loc 4 544 57 view .LVU613
 3115              	.LBB362:
 3116              		.loc 4 546 3 view .LVU614
 3117              		.syntax unified
 3118              	@ 546 ".//ChibiOS//os/ext/CMSIS/include/core_cmFunc.h" 1
 3119 0038 87F31188 		MSR basepri, r7
 3120              	@ 0 "" 2
 3121              	.LVL230:
 3122              		.loc 4 546 3 is_stmt 0 view .LVU615
 3123              		.thumb
 3124              		.syntax unified
 3125              	.LBE362:
 3126              	.LBE361:
 3127              	.LBE363:
 3128              	.LBE364:
 3129              	.LBE366:
 3130              		.loc 1 474 5 is_stmt 1 view .LVU616
 3131              	.LBB367:
 3132              	.LBI367:
 3133              		.file 7 ".//ChibiOS//os/rt/include/chqueues.h"
 3134              		.loc 7 339 21 view .LVU617
 3135              	.LBB368:
 3136              		.loc 7 341 3 view .LVU618
 3137              		.loc 7 341 10 is_stmt 0 view .LVU619
 3138 003c 4FF0FF31 		mov	r1, #-1
ARM GAS  /tmp/ccvURch4.s 			page 57


 3139 0040 2046     		mov	r0, r4
 3140 0042 FFF7FEFF 		bl	chIQGetTimeout
 3141              	.LVL231:
 3142              		.loc 7 341 10 view .LVU620
 3143              	.LBE368:
 3144              	.LBE367:
 3145              		.loc 1 475 5 is_stmt 1 view .LVU621
 3146              	.LBB369:
 3147              	.LBI369:
 3148              		.loc 7 339 21 view .LVU622
 3149              	.LBB370:
 3150              		.loc 7 341 3 view .LVU623
 3151              		.loc 7 341 10 is_stmt 0 view .LVU624
 3152 0046 4FF0FF31 		mov	r1, #-1
 3153 004a 2046     		mov	r0, r4
 3154 004c FFF7FEFF 		bl	chIQGetTimeout
 3155              	.LVL232:
 3156              		.loc 7 341 10 view .LVU625
 3157              	.LBE370:
 3158              	.LBE369:
 3159              		.loc 1 476 5 is_stmt 1 view .LVU626
 3160              	.LBB371:
 3161              	.LBI371:
 3162              		.loc 7 339 21 view .LVU627
 3163              	.LBB372:
 3164              		.loc 7 341 3 view .LVU628
 3165              		.loc 7 341 10 is_stmt 0 view .LVU629
 3166 0050 4FF0FF31 		mov	r1, #-1
 3167 0054 2046     		mov	r0, r4
 3168 0056 FFF7FEFF 		bl	chIQGetTimeout
 3169              	.LVL233:
 3170              		.loc 7 341 10 view .LVU630
 3171              	.LBE372:
 3172              	.LBE371:
 3173              		.loc 1 477 5 is_stmt 1 view .LVU631
 3174              	.LBB373:
 3175              	.LBI373:
 3176              		.loc 7 339 21 view .LVU632
 3177              	.LBB374:
 3178              		.loc 7 341 3 view .LVU633
 3179              		.loc 7 341 10 is_stmt 0 view .LVU634
 3180 005a 2046     		mov	r0, r4
 3181 005c 4FF0FF31 		mov	r1, #-1
 3182 0060 FFF7FEFF 		bl	chIQGetTimeout
 3183              	.LVL234:
 3184              		.loc 7 341 10 view .LVU635
 3185              	.LBE374:
 3186              	.LBE373:
 3187              		.loc 1 478 5 is_stmt 1 view .LVU636
 3188              		.loc 1 482 3 is_stmt 0 view .LVU637
 3189 0064 98F80030 		ldrb	r3, [r8]	@ zero_extendqisi2
 3190              		.loc 1 478 6 view .LVU638
 3191 0068 0136     		adds	r6, r6, #1
 3192              	.LVL235:
 3193              		.loc 1 482 11 is_stmt 1 view .LVU639
 3194              		.loc 1 482 3 is_stmt 0 view .LVU640
 3195 006a 33BB     		cbnz	r3, .L176
ARM GAS  /tmp/ccvURch4.s 			page 58


 3196              	.LVL236:
 3197              	.L170:
 3198              		.loc 1 467 3 is_stmt 1 discriminator 1 view .LVU641
 3199              		.loc 1 468 5 discriminator 1 view .LVU642
 3200              	.LBB375:
 3201              	.LBI375:
 3202              		.loc 5 346 20 discriminator 1 view .LVU643
 3203              	.LBB376:
 3204              		.loc 5 348 3 discriminator 1 view .LVU644
 3205              	.LBB377:
 3206              	.LBI377:
 3207              		.loc 6 444 20 discriminator 1 view .LVU645
 3208              	.LBE377:
 3209              	.LBE376:
 3210              	.LBE375:
 3211              		.loc 6 447 3 discriminator 1 view .LVU646
 3212              	.LBB382:
 3213              	.LBB381:
 3214              	.LBB380:
 3215              	.LBB378:
 3216              	.LBI378:
 3217              		.loc 4 544 57 discriminator 1 view .LVU647
 3218              	.LBB379:
 3219              		.loc 4 546 3 discriminator 1 view .LVU648
 3220 006c 2023     		movs	r3, #32
 3221              		.syntax unified
 3222              	@ 546 ".//ChibiOS//os/ext/CMSIS/include/core_cmFunc.h" 1
 3223 006e 83F31188 		MSR basepri, r3
 3224              	@ 0 "" 2
 3225              	.LVL237:
 3226              		.loc 4 546 3 is_stmt 0 discriminator 1 view .LVU649
 3227              		.thumb
 3228              		.syntax unified
 3229              	.LBE379:
 3230              	.LBE378:
 3231              	.LBE380:
 3232              		.loc 5 349 3 is_stmt 1 discriminator 1 view .LVU650
 3233 0072 FFF7FEFF 		bl	_stats_start_measure_crit_thd
 3234              	.LVL238:
 3235              		.loc 5 350 3 discriminator 1 view .LVU651
 3236 0076 FFF7FEFF 		bl	_dbg_check_lock
 3237              	.LVL239:
 3238              	.LBE381:
 3239              	.LBE382:
 3240              		.loc 1 469 5 discriminator 1 view .LVU652
 3241 007a 0021     		movs	r1, #0
 3242 007c 2046     		mov	r0, r4
 3243 007e FFF7FEFF 		bl	chIQPutI
 3244              	.LVL240:
 3245              		.loc 1 470 5 discriminator 1 view .LVU653
 3246 0082 0121     		movs	r1, #1
 3247 0084 2046     		mov	r0, r4
 3248 0086 FFF7FEFF 		bl	chIQPutI
 3249              	.LVL241:
 3250              		.loc 1 471 5 discriminator 1 view .LVU654
 3251 008a 0221     		movs	r1, #2
 3252 008c 2046     		mov	r0, r4
ARM GAS  /tmp/ccvURch4.s 			page 59


 3253 008e FFF7FEFF 		bl	chIQPutI
 3254              	.LVL242:
 3255              		.loc 1 472 5 discriminator 1 view .LVU655
 3256 0092 0321     		movs	r1, #3
 3257 0094 2046     		mov	r0, r4
 3258 0096 FFF7FEFF 		bl	chIQPutI
 3259              	.LVL243:
 3260              		.loc 1 473 5 discriminator 1 view .LVU656
 3261              	.LBB383:
 3262              	.LBI358:
 3263              		.loc 5 358 20 discriminator 1 view .LVU657
 3264              	.LBB365:
 3265              		.loc 5 360 3 discriminator 1 view .LVU658
 3266 009a FFF7FEFF 		bl	_dbg_check_unlock
 3267              	.LVL244:
 3268              		.loc 5 361 3 discriminator 1 view .LVU659
 3269 009e FFF7FEFF 		bl	_stats_stop_measure_crit_thd
 3270              	.LVL245:
 3271              		.loc 5 367 3 discriminator 1 view .LVU660
 3272              		.loc 5 367 3 discriminator 1 view .LVU661
 3273              		.loc 5 367 3 discriminator 1 view .LVU662
 3274 00a2 2B68     		ldr	r3, [r5]
 3275 00a4 AB42     		cmp	r3, r5
 3276 00a6 C7D0     		beq	.L169
 3277              		.loc 5 367 3 is_stmt 0 view .LVU663
 3278 00a8 AA69     		ldr	r2, [r5, #24]
 3279 00aa 9B68     		ldr	r3, [r3, #8]
 3280 00ac 9268     		ldr	r2, [r2, #8]
 3281 00ae 9A42     		cmp	r2, r3
 3282 00b0 C2D2     		bcs	.L169
 3283              		.loc 5 367 3 is_stmt 1 view .LVU664
 3284 00b2 0F48     		ldr	r0, .L178+16
 3285 00b4 FFF7FEFF 		bl	chSysHalt
 3286              	.LVL246:
 3287 00b8 BEE7     		b	.L169
 3288              	.L176:
 3289              		.loc 5 367 3 is_stmt 0 view .LVU665
 3290              	.LBE365:
 3291              	.LBE383:
 3292              		.loc 1 483 3 is_stmt 1 view .LVU666
 3293 00ba 0E48     		ldr	r0, .L178+20
 3294 00bc FFF7FEFF 		bl	test_print
 3295              	.LVL247:
 3296              		.loc 1 484 3 view .LVU667
 3297 00c0 B000     		lsls	r0, r6, #2
 3298 00c2 FFF7FEFF 		bl	test_printn
 3299              	.LVL248:
 3300              		.loc 1 485 3 view .LVU668
 3301 00c6 064B     		ldr	r3, .L178
 3302 00c8 1A68     		ldr	r2, [r3]
 3303 00ca 039B     		ldr	r3, [sp, #12]
 3304 00cc 5A40     		eors	r2, r3, r2
 3305 00ce 05D1     		bne	.L177
 3306 00d0 0948     		ldr	r0, .L178+24
 3307              		.loc 1 486 1 is_stmt 0 view .LVU669
 3308 00d2 04B0     		add	sp, sp, #16
 3309              		.cfi_remember_state
ARM GAS  /tmp/ccvURch4.s 			page 60


 3310              		.cfi_def_cfa_offset 24
 3311              		@ sp needed
 3312 00d4 BDE8F041 		pop	{r4, r5, r6, r7, r8, lr}
 3313              		.cfi_restore 14
 3314              		.cfi_restore 8
 3315              		.cfi_restore 7
 3316              		.cfi_restore 6
 3317              		.cfi_restore 5
 3318              		.cfi_restore 4
 3319              		.cfi_def_cfa_offset 0
 3320              	.LVL249:
 3321              		.loc 1 485 3 view .LVU670
 3322 00d8 FFF7FEBF 		b	test_println
 3323              	.LVL250:
 3324              	.L177:
 3325              		.cfi_restore_state
 3326              		.loc 1 485 3 view .LVU671
 3327 00dc FFF7FEFF 		bl	__stack_chk_fail
 3328              	.LVL251:
 3329              	.L179:
 3330              		.align	2
 3331              	.L178:
 3332 00e0 00000000 		.word	.LC40
 3333 00e4 00000000 		.word	.LANCHOR5
 3334 00e8 00000000 		.word	.LANCHOR6
 3335 00ec 00000000 		.word	ch
 3336 00f0 00000000 		.word	.LANCHOR4
 3337 00f4 00000000 		.word	.LC14
 3338 00f8 00000000 		.word	.LC39
 3339 00fc 00000000 		.word	test_timer_done
 3340              		.cfi_endproc
 3341              	.LFE234:
 3342              		.size	bmk9_execute, .-bmk9_execute
 3343              		.section	.rodata.bmk4_execute.cst4,"aM",%progbits,4
 3344              		.align	2
 3345              	.LC41:
 3346 0000 00000000 		.word	__stack_chk_guard
 3347              		.section	.text.bmk4_execute,"ax",%progbits
 3348              		.align	1
 3349              		.p2align 4,,15
 3350              		.syntax unified
 3351              		.thumb
 3352              		.thumb_func
 3353              		.fpu fpv4-sp-d16
 3354              		.type	bmk4_execute, %function
 3355              	bmk4_execute:
 3356              	.LFB226:
 3357              		.loc 1 219 32 is_stmt 1 view -0
 3358              		.cfi_startproc
 3359              		@ args = 0, pretend = 0, frame = 8
 3360              		@ frame_needed = 0, uses_anonymous_args = 0
 3361 0000 2DE9F047 		push	{r4, r5, r6, r7, r8, r9, r10, lr}
 3362              		.cfi_def_cfa_offset 32
 3363              		.cfi_offset 4, -32
 3364              		.cfi_offset 5, -28
 3365              		.cfi_offset 6, -24
 3366              		.cfi_offset 7, -20
ARM GAS  /tmp/ccvURch4.s 			page 61


 3367              		.cfi_offset 8, -16
 3368              		.cfi_offset 9, -12
 3369              		.cfi_offset 10, -8
 3370              		.cfi_offset 14, -4
 3371              	.LBB408:
 3372              	.LBB409:
 3373              	.LBB410:
 3374              	.LBB411:
 3375              		.loc 3 176 18 is_stmt 0 view .LVU673
 3376 0004 444D     		ldr	r5, .L192
 3377              	.LBE411:
 3378              	.LBE410:
 3379              	.LBE409:
 3380              	.LBE408:
 3381              		.loc 1 223 21 view .LVU674
 3382 0006 454A     		ldr	r2, .L192+4
 3383              	.LBB416:
 3384              	.LBB414:
 3385              		.loc 3 189 25 view .LVU675
 3386 0008 AB69     		ldr	r3, [r5, #24]
 3387              	.LBE414:
 3388              	.LBE416:
 3389              		.loc 1 223 21 view .LVU676
 3390 000a 1068     		ldr	r0, [r2]
 3391              		.loc 1 219 32 view .LVU677
 3392 000c 4449     		ldr	r1, .L192+8
 3393              		.loc 1 223 21 view .LVU678
 3394 000e 9A68     		ldr	r2, [r3, #8]
 3395 0010 444B     		ldr	r3, .L192+12
 3396 0012 DFF82491 		ldr	r9, .L192+32
 3397              	.LBB417:
 3398              	.LBB418:
 3399              		.loc 5 367 3 view .LVU679
 3400 0016 DFF81CA1 		ldr	r10, .L192+28
 3401              	.LBE418:
 3402              	.LBE417:
 3403              		.loc 1 219 32 view .LVU680
 3404 001a 84B0     		sub	sp, sp, #16
 3405              		.cfi_def_cfa_offset 48
 3406              		.loc 1 223 21 view .LVU681
 3407 001c 0026     		movs	r6, #0
 3408              		.loc 1 219 32 view .LVU682
 3409 001e 0968     		ldr	r1, [r1]
 3410 0020 0391     		str	r1, [sp, #12]
 3411 0022 4FF00001 		mov	r1,#0
 3412              		.loc 1 220 3 is_stmt 1 view .LVU683
 3413              		.loc 1 221 3 view .LVU684
 3414              		.loc 1 223 3 view .LVU685
 3415              	.LBB431:
 3416              	.LBI408:
 3417              		.loc 3 187 23 view .LVU686
 3418              	.LBB415:
 3419              		.loc 3 189 3 view .LVU687
 3420              	.LBB413:
 3421              	.LBI410:
 3422              		.loc 3 174 25 view .LVU688
 3423              	.LBB412:
ARM GAS  /tmp/ccvURch4.s 			page 62


 3424              		.loc 3 176 3 view .LVU689
 3425              	.LBE412:
 3426              	.LBE413:
 3427              	.LBE415:
 3428              	.LBE431:
 3429              		.loc 1 223 21 is_stmt 0 view .LVU690
 3430 0026 0132     		adds	r2, r2, #1
 3431 0028 4FF4FC71 		mov	r1, #504
 3432 002c 0096     		str	r6, [sp]
 3433 002e FFF7FEFF 		bl	chThdCreateStatic
 3434              	.LVL252:
 3435              		.loc 1 223 19 view .LVU691
 3436 0032 3D4B     		ldr	r3, .L192+16
 3437              		.loc 1 223 21 view .LVU692
 3438 0034 0446     		mov	r4, r0
 3439              		.loc 1 223 19 view .LVU693
 3440 0036 1860     		str	r0, [r3]
 3441              	.LVL253:
 3442              		.loc 1 225 3 is_stmt 1 view .LVU694
 3443              		.loc 1 226 3 view .LVU695
 3444 0038 FFF7FEFF 		bl	test_wait_tick
 3445              	.LVL254:
 3446              		.loc 1 227 3 view .LVU696
 3447 003c 4FF47A70 		mov	r0, #1000
 3448 0040 FFF7FEFF 		bl	test_start_timer
 3449              	.LVL255:
 3450              		.loc 1 230 5 is_stmt 0 view .LVU697
 3451 0044 B046     		mov	r8, r6
 3452              	.LBB432:
 3453              	.LBB433:
 3454              	.LBB434:
 3455              	.LBB435:
 3456              	.LBB436:
 3457              		.loc 4 546 3 view .LVU698
 3458 0046 2027     		movs	r7, #32
 3459 0048 05E0     		b	.L182
 3460              	.LVL256:
 3461              	.L181:
 3462              		.loc 4 546 3 view .LVU699
 3463              	.LBE436:
 3464              	.LBE435:
 3465              	.LBE434:
 3466              	.LBE433:
 3467              	.LBE432:
 3468              	.LBB443:
 3469              	.LBB427:
 3470              		.loc 5 367 3 is_stmt 1 view .LVU700
 3471              		.loc 5 371 3 view .LVU701
 3472              	.LBB419:
 3473              	.LBI419:
 3474              		.loc 6 458 20 view .LVU702
 3475              	.LBE419:
 3476              	.LBE427:
 3477              	.LBE443:
 3478              		.loc 6 461 3 view .LVU703
 3479              	.LBB444:
 3480              	.LBB428:
ARM GAS  /tmp/ccvURch4.s 			page 63


 3481              	.LBB424:
 3482              	.LBB420:
 3483              	.LBI420:
 3484              		.loc 4 544 57 view .LVU704
 3485              	.LBB421:
 3486              		.loc 4 546 3 view .LVU705
 3487              		.syntax unified
 3488              	@ 546 ".//ChibiOS//os/ext/CMSIS/include/core_cmFunc.h" 1
 3489 004a 88F31188 		MSR basepri, r8
 3490              	@ 0 "" 2
 3491              	.LVL257:
 3492              		.loc 4 546 3 is_stmt 0 view .LVU706
 3493              		.thumb
 3494              		.syntax unified
 3495              	.LBE421:
 3496              	.LBE420:
 3497              	.LBE424:
 3498              	.LBE428:
 3499              	.LBE444:
 3500              		.loc 1 235 5 is_stmt 1 view .LVU707
 3501              		.loc 1 239 3 is_stmt 0 view .LVU708
 3502 004e 99F80030 		ldrb	r3, [r9]	@ zero_extendqisi2
 3503              		.loc 1 235 7 view .LVU709
 3504 0052 0436     		adds	r6, r6, #4
 3505              	.LVL258:
 3506              		.loc 1 239 11 is_stmt 1 view .LVU710
 3507              		.loc 1 239 3 is_stmt 0 view .LVU711
 3508 0054 5BBB     		cbnz	r3, .L189
 3509              	.LVL259:
 3510              	.L182:
 3511              		.loc 1 228 3 is_stmt 1 discriminator 1 view .LVU712
 3512              		.loc 1 229 5 discriminator 1 view .LVU713
 3513              	.LBB445:
 3514              	.LBI432:
 3515              		.loc 5 346 20 discriminator 1 view .LVU714
 3516              	.LBB441:
 3517              		.loc 5 348 3 discriminator 1 view .LVU715
 3518              	.LBB439:
 3519              	.LBI434:
 3520              		.loc 6 444 20 discriminator 1 view .LVU716
 3521              	.LBE439:
 3522              	.LBE441:
 3523              	.LBE445:
 3524              		.loc 6 447 3 discriminator 1 view .LVU717
 3525              	.LBB446:
 3526              	.LBB442:
 3527              	.LBB440:
 3528              	.LBB438:
 3529              	.LBI435:
 3530              		.loc 4 544 57 discriminator 1 view .LVU718
 3531              	.LBB437:
 3532              		.loc 4 546 3 discriminator 1 view .LVU719
 3533              		.syntax unified
 3534              	@ 546 ".//ChibiOS//os/ext/CMSIS/include/core_cmFunc.h" 1
 3535 0056 87F31188 		MSR basepri, r7
 3536              	@ 0 "" 2
 3537              	.LVL260:
ARM GAS  /tmp/ccvURch4.s 			page 64


 3538              		.loc 4 546 3 is_stmt 0 discriminator 1 view .LVU720
 3539              		.thumb
 3540              		.syntax unified
 3541              	.LBE437:
 3542              	.LBE438:
 3543              	.LBE440:
 3544              		.loc 5 349 3 is_stmt 1 discriminator 1 view .LVU721
 3545 005a FFF7FEFF 		bl	_stats_start_measure_crit_thd
 3546              	.LVL261:
 3547              		.loc 5 350 3 discriminator 1 view .LVU722
 3548 005e FFF7FEFF 		bl	_dbg_check_lock
 3549              	.LVL262:
 3550              	.LBE442:
 3551              	.LBE446:
 3552              		.loc 1 230 5 discriminator 1 view .LVU723
 3553 0062 2046     		mov	r0, r4
 3554 0064 0021     		movs	r1, #0
 3555 0066 FFF7FEFF 		bl	chSchWakeupS
 3556              	.LVL263:
 3557              		.loc 1 231 5 discriminator 1 view .LVU724
 3558 006a 2046     		mov	r0, r4
 3559 006c 0021     		movs	r1, #0
 3560 006e FFF7FEFF 		bl	chSchWakeupS
 3561              	.LVL264:
 3562              		.loc 1 232 5 discriminator 1 view .LVU725
 3563 0072 2046     		mov	r0, r4
 3564 0074 0021     		movs	r1, #0
 3565 0076 FFF7FEFF 		bl	chSchWakeupS
 3566              	.LVL265:
 3567              		.loc 1 233 5 discriminator 1 view .LVU726
 3568 007a 2046     		mov	r0, r4
 3569 007c 0021     		movs	r1, #0
 3570 007e FFF7FEFF 		bl	chSchWakeupS
 3571              	.LVL266:
 3572              		.loc 1 234 5 discriminator 1 view .LVU727
 3573              	.LBB447:
 3574              	.LBI417:
 3575              		.loc 5 358 20 discriminator 1 view .LVU728
 3576              	.LBB429:
 3577              		.loc 5 360 3 discriminator 1 view .LVU729
 3578 0082 FFF7FEFF 		bl	_dbg_check_unlock
 3579              	.LVL267:
 3580              		.loc 5 361 3 discriminator 1 view .LVU730
 3581 0086 FFF7FEFF 		bl	_stats_stop_measure_crit_thd
 3582              	.LVL268:
 3583              		.loc 5 367 3 discriminator 1 view .LVU731
 3584              		.loc 5 367 3 discriminator 1 view .LVU732
 3585              		.loc 5 367 3 discriminator 1 view .LVU733
 3586 008a 2B68     		ldr	r3, [r5]
 3587 008c AB42     		cmp	r3, r5
 3588 008e DCD0     		beq	.L181
 3589              		.loc 5 367 3 is_stmt 0 view .LVU734
 3590 0090 AA69     		ldr	r2, [r5, #24]
 3591 0092 9B68     		ldr	r3, [r3, #8]
 3592 0094 9268     		ldr	r2, [r2, #8]
 3593 0096 9A42     		cmp	r2, r3
 3594 0098 D7D2     		bcs	.L181
ARM GAS  /tmp/ccvURch4.s 			page 65


 3595              		.loc 5 367 3 is_stmt 1 view .LVU735
 3596 009a 5046     		mov	r0, r10
 3597 009c FFF7FEFF 		bl	chSysHalt
 3598              	.LVL269:
 3599              		.loc 5 367 3 view .LVU736
 3600              		.loc 5 371 3 view .LVU737
 3601              	.LBB425:
 3602              		.loc 6 458 20 view .LVU738
 3603              	.LBE425:
 3604              	.LBE429:
 3605              	.LBE447:
 3606              		.loc 6 461 3 view .LVU739
 3607              	.LBB448:
 3608              	.LBB430:
 3609              	.LBB426:
 3610              	.LBB423:
 3611              		.loc 4 544 57 view .LVU740
 3612              	.LBB422:
 3613              		.loc 4 546 3 view .LVU741
 3614              		.syntax unified
 3615              	@ 546 ".//ChibiOS//os/ext/CMSIS/include/core_cmFunc.h" 1
 3616 00a0 88F31188 		MSR basepri, r8
 3617              	@ 0 "" 2
 3618              	.LVL270:
 3619              		.loc 4 546 3 is_stmt 0 view .LVU742
 3620              		.thumb
 3621              		.syntax unified
 3622              	.LBE422:
 3623              	.LBE423:
 3624              	.LBE426:
 3625              	.LBE430:
 3626              	.LBE448:
 3627              		.loc 1 235 5 is_stmt 1 view .LVU743
 3628              		.loc 1 239 3 is_stmt 0 view .LVU744
 3629 00a4 99F80030 		ldrb	r3, [r9]	@ zero_extendqisi2
 3630              		.loc 1 235 7 view .LVU745
 3631 00a8 0436     		adds	r6, r6, #4
 3632              	.LVL271:
 3633              		.loc 1 239 11 is_stmt 1 view .LVU746
 3634              		.loc 1 239 3 is_stmt 0 view .LVU747
 3635 00aa 002B     		cmp	r3, #0
 3636 00ac D3D0     		beq	.L182
 3637              	.L189:
 3638              		.loc 1 240 3 is_stmt 1 view .LVU748
 3639              	.LBB449:
 3640              	.LBI449:
 3641              		.loc 5 346 20 view .LVU749
 3642              	.LBB450:
 3643              		.loc 5 348 3 view .LVU750
 3644              	.LBB451:
 3645              	.LBI451:
 3646              		.loc 6 444 20 view .LVU751
 3647              	.LBE451:
 3648              	.LBE450:
 3649              	.LBE449:
 3650              		.loc 6 447 3 view .LVU752
 3651              	.LVL272:
ARM GAS  /tmp/ccvURch4.s 			page 66


 3652              	.LBB456:
 3653              	.LBB455:
 3654              	.LBB454:
 3655              	.LBB452:
 3656              	.LBI452:
 3657              		.loc 4 544 57 view .LVU753
 3658              	.LBB453:
 3659              		.loc 4 546 3 view .LVU754
 3660 00ae 2023     		movs	r3, #32
 3661              		.syntax unified
 3662              	@ 546 ".//ChibiOS//os/ext/CMSIS/include/core_cmFunc.h" 1
 3663 00b0 83F31188 		MSR basepri, r3
 3664              	@ 0 "" 2
 3665              	.LVL273:
 3666              		.loc 4 546 3 is_stmt 0 view .LVU755
 3667              		.thumb
 3668              		.syntax unified
 3669              	.LBE453:
 3670              	.LBE452:
 3671              	.LBE454:
 3672              		.loc 5 349 3 is_stmt 1 view .LVU756
 3673 00b4 FFF7FEFF 		bl	_stats_start_measure_crit_thd
 3674              	.LVL274:
 3675              		.loc 5 350 3 view .LVU757
 3676 00b8 FFF7FEFF 		bl	_dbg_check_lock
 3677              	.LVL275:
 3678              	.LBE455:
 3679              	.LBE456:
 3680              		.loc 1 241 3 view .LVU758
 3681 00bc 2046     		mov	r0, r4
 3682 00be 4FF0FF31 		mov	r1, #-1
 3683 00c2 FFF7FEFF 		bl	chSchWakeupS
 3684              	.LVL276:
 3685              		.loc 1 242 3 view .LVU759
 3686              	.LBB457:
 3687              	.LBI457:
 3688              		.loc 5 358 20 view .LVU760
 3689              	.LBB458:
 3690              		.loc 5 360 3 view .LVU761
 3691 00c6 FFF7FEFF 		bl	_dbg_check_unlock
 3692              	.LVL277:
 3693              		.loc 5 361 3 view .LVU762
 3694 00ca FFF7FEFF 		bl	_stats_stop_measure_crit_thd
 3695              	.LVL278:
 3696              		.loc 5 367 3 view .LVU763
 3697              		.loc 5 367 3 view .LVU764
 3698              		.loc 5 367 3 view .LVU765
 3699 00ce 2B68     		ldr	r3, [r5]
 3700 00d0 AB42     		cmp	r3, r5
 3701 00d2 04D0     		beq	.L183
 3702 00d4 AA69     		ldr	r2, [r5, #24]
 3703 00d6 9B68     		ldr	r3, [r3, #8]
 3704 00d8 9268     		ldr	r2, [r2, #8]
 3705 00da 9A42     		cmp	r2, r3
 3706 00dc 15D3     		bcc	.L190
 3707              	.L183:
 3708              		.loc 5 367 3 view .LVU766
ARM GAS  /tmp/ccvURch4.s 			page 67


 3709              		.loc 5 371 3 view .LVU767
 3710              	.LBB459:
 3711              	.LBI459:
 3712              		.loc 6 458 20 view .LVU768
 3713              	.LBE459:
 3714              	.LBE458:
 3715              	.LBE457:
 3716              		.loc 6 461 3 view .LVU769
 3717              	.LVL279:
 3718              	.LBB465:
 3719              	.LBB463:
 3720              	.LBB462:
 3721              	.LBB460:
 3722              	.LBI460:
 3723              		.loc 4 544 57 view .LVU770
 3724              	.LBB461:
 3725              		.loc 4 546 3 view .LVU771
 3726 00de 0023     		movs	r3, #0
 3727              		.syntax unified
 3728              	@ 546 ".//ChibiOS//os/ext/CMSIS/include/core_cmFunc.h" 1
 3729 00e0 83F31188 		MSR basepri, r3
 3730              	@ 0 "" 2
 3731              	.LVL280:
 3732              		.loc 4 546 3 is_stmt 0 view .LVU772
 3733              		.thumb
 3734              		.syntax unified
 3735              	.LBE461:
 3736              	.LBE460:
 3737              	.LBE462:
 3738              	.LBE463:
 3739              	.LBE465:
 3740              		.loc 1 244 3 is_stmt 1 view .LVU773
 3741 00e4 FFF7FEFF 		bl	test_wait_threads
 3742              	.LVL281:
 3743              		.loc 1 245 3 view .LVU774
 3744 00e8 1048     		ldr	r0, .L192+20
 3745 00ea FFF7FEFF 		bl	test_print
 3746              	.LVL282:
 3747              		.loc 1 246 3 view .LVU775
 3748 00ee 7000     		lsls	r0, r6, #1
 3749 00f0 FFF7FEFF 		bl	test_printn
 3750              	.LVL283:
 3751              		.loc 1 247 3 view .LVU776
 3752 00f4 0A4B     		ldr	r3, .L192+8
 3753 00f6 1A68     		ldr	r2, [r3]
 3754 00f8 039B     		ldr	r3, [sp, #12]
 3755 00fa 5A40     		eors	r2, r3, r2
 3756 00fc 09D1     		bne	.L191
 3757              		.loc 1 247 3 is_stmt 0 view .LVU777
 3758 00fe 0C48     		ldr	r0, .L192+24
 3759              		.loc 1 248 1 view .LVU778
 3760 0100 04B0     		add	sp, sp, #16
 3761              		.cfi_remember_state
 3762              		.cfi_def_cfa_offset 32
 3763              		@ sp needed
 3764 0102 BDE8F047 		pop	{r4, r5, r6, r7, r8, r9, r10, lr}
 3765              		.cfi_restore 14
ARM GAS  /tmp/ccvURch4.s 			page 68


 3766              		.cfi_restore 10
 3767              		.cfi_restore 9
 3768              		.cfi_restore 8
 3769              		.cfi_restore 7
 3770              		.cfi_restore 6
 3771              		.cfi_restore 5
 3772              		.cfi_restore 4
 3773              		.cfi_def_cfa_offset 0
 3774              	.LVL284:
 3775              		.loc 1 247 3 view .LVU779
 3776 0106 FFF7FEBF 		b	test_println
 3777              	.LVL285:
 3778              	.L190:
 3779              		.cfi_restore_state
 3780              	.LBB466:
 3781              	.LBB464:
 3782              		.loc 5 367 3 is_stmt 1 view .LVU780
 3783 010a 0A48     		ldr	r0, .L192+28
 3784 010c FFF7FEFF 		bl	chSysHalt
 3785              	.LVL286:
 3786 0110 E5E7     		b	.L183
 3787              	.L191:
 3788              		.loc 5 367 3 is_stmt 0 view .LVU781
 3789              	.LBE464:
 3790              	.LBE466:
 3791              		.loc 1 247 3 view .LVU782
 3792 0112 FFF7FEFF 		bl	__stack_chk_fail
 3793              	.LVL287:
 3794              	.L193:
 3795 0116 00BF     		.align	2
 3796              	.L192:
 3797 0118 00000000 		.word	ch
 3798 011c 00000000 		.word	wa
 3799 0120 00000000 		.word	.LC41
 3800 0124 00000000 		.word	thread4
 3801 0128 00000000 		.word	threads
 3802 012c 00000000 		.word	.LC14
 3803 0130 0C000000 		.word	.LC19
 3804 0134 00000000 		.word	.LANCHOR4
 3805 0138 00000000 		.word	test_timer_done
 3806              		.cfi_endproc
 3807              	.LFE226:
 3808              		.size	bmk4_execute, .-bmk4_execute
 3809              		.section	.rodata.thread4.cst4,"aM",%progbits,4
 3810              		.align	2
 3811              	.LC42:
 3812 0000 00000000 		.word	__stack_chk_guard
 3813              		.section	.text.thread4,"ax",%progbits
 3814              		.align	1
 3815              		.p2align 4,,15
 3816              		.syntax unified
 3817              		.thumb
 3818              		.thumb_func
 3819              		.fpu fpv4-sp-d16
 3820              		.type	thread4, %function
 3821              	thread4:
 3822              	.LVL288:
ARM GAS  /tmp/ccvURch4.s 			page 69


 3823              	.LFB225:
 3824              		.loc 1 206 33 is_stmt 1 view -0
 3825              		.cfi_startproc
 3826              		@ args = 0, pretend = 0, frame = 8
 3827              		@ frame_needed = 0, uses_anonymous_args = 0
 3828              		.loc 1 206 33 is_stmt 0 view .LVU784
 3829 0000 30B5     		push	{r4, r5, lr}
 3830              		.cfi_def_cfa_offset 12
 3831              		.cfi_offset 4, -12
 3832              		.cfi_offset 5, -8
 3833              		.cfi_offset 14, -4
 3834 0002 184B     		ldr	r3, .L203
 3835              	.LBB479:
 3836              	.LBB480:
 3837              		.loc 3 176 18 view .LVU785
 3838 0004 184D     		ldr	r5, .L203+4
 3839              	.LBE480:
 3840              	.LBE479:
 3841              		.loc 1 206 33 view .LVU786
 3842 0006 83B0     		sub	sp, sp, #12
 3843              		.cfi_def_cfa_offset 24
 3844              		.loc 1 206 33 view .LVU787
 3845 0008 1B68     		ldr	r3, [r3]
 3846 000a 0193     		str	r3, [sp, #4]
 3847 000c 4FF00003 		mov	r3,#0
 3848              		.loc 1 207 3 is_stmt 1 view .LVU788
 3849              		.loc 1 208 3 view .LVU789
 3850              	.LBB482:
 3851              	.LBI479:
 3852              		.loc 3 174 25 view .LVU790
 3853              	.LBB481:
 3854              		.loc 3 176 3 view .LVU791
 3855              		.loc 3 176 18 is_stmt 0 view .LVU792
 3856 0010 AC69     		ldr	r4, [r5, #24]
 3857              	.LVL289:
 3858              		.loc 3 176 18 view .LVU793
 3859              	.LBE481:
 3860              	.LBE482:
 3861              		.loc 1 210 3 is_stmt 1 view .LVU794
 3862              		.loc 1 211 3 view .LVU795
 3863              	.LBB483:
 3864              	.LBI483:
 3865              		.loc 5 346 20 view .LVU796
 3866              	.LBB484:
 3867              		.loc 5 348 3 view .LVU797
 3868              	.LBB485:
 3869              	.LBI485:
 3870              		.loc 6 444 20 view .LVU798
 3871              	.LBE485:
 3872              	.LBE484:
 3873              	.LBE483:
 3874              		.loc 6 447 3 view .LVU799
 3875              	.LBB490:
 3876              	.LBB489:
 3877              	.LBB488:
 3878              	.LBB486:
 3879              	.LBI486:
ARM GAS  /tmp/ccvURch4.s 			page 70


 3880              		.loc 4 544 57 view .LVU800
 3881              	.LBB487:
 3882              		.loc 4 546 3 view .LVU801
 3883 0012 2023     		movs	r3, #32
 3884              		.syntax unified
 3885              	@ 546 ".//ChibiOS//os/ext/CMSIS/include/core_cmFunc.h" 1
 3886 0014 83F31188 		MSR basepri, r3
 3887              	@ 0 "" 2
 3888              	.LVL290:
 3889              		.loc 4 546 3 is_stmt 0 view .LVU802
 3890              		.thumb
 3891              		.syntax unified
 3892              	.LBE487:
 3893              	.LBE486:
 3894              	.LBE488:
 3895              		.loc 5 349 3 is_stmt 1 view .LVU803
 3896 0018 FFF7FEFF 		bl	_stats_start_measure_crit_thd
 3897              	.LVL291:
 3898              		.loc 5 350 3 view .LVU804
 3899 001c FFF7FEFF 		bl	_dbg_check_lock
 3900              	.LVL292:
 3901              	.L195:
 3902              	.LBE489:
 3903              	.LBE490:
 3904              		.loc 1 212 3 discriminator 1 view .LVU805
 3905              		.loc 1 213 5 discriminator 1 view .LVU806
 3906 0020 0320     		movs	r0, #3
 3907 0022 FFF7FEFF 		bl	chSchGoSleepS
 3908              	.LVL293:
 3909              		.loc 1 214 5 discriminator 1 view .LVU807
 3910              		.loc 1 215 11 discriminator 1 view .LVU808
 3911              		.loc 1 215 3 is_stmt 0 discriminator 1 view .LVU809
 3912 0026 A36A     		ldr	r3, [r4, #40]
 3913 0028 002B     		cmp	r3, #0
 3914 002a F9D0     		beq	.L195
 3915              		.loc 1 216 3 is_stmt 1 view .LVU810
 3916              	.LBB491:
 3917              	.LBI491:
 3918              		.loc 5 358 20 view .LVU811
 3919              	.LBB492:
 3920              		.loc 5 360 3 view .LVU812
 3921 002c FFF7FEFF 		bl	_dbg_check_unlock
 3922              	.LVL294:
 3923              		.loc 5 361 3 view .LVU813
 3924 0030 FFF7FEFF 		bl	_stats_stop_measure_crit_thd
 3925              	.LVL295:
 3926              		.loc 5 367 3 view .LVU814
 3927              		.loc 5 367 3 view .LVU815
 3928              		.loc 5 367 3 view .LVU816
 3929 0034 2B68     		ldr	r3, [r5]
 3930 0036 AB42     		cmp	r3, r5
 3931 0038 04D0     		beq	.L196
 3932 003a AA69     		ldr	r2, [r5, #24]
 3933 003c 9B68     		ldr	r3, [r3, #8]
 3934 003e 9268     		ldr	r2, [r2, #8]
 3935 0040 9A42     		cmp	r2, r3
 3936 0042 09D3     		bcc	.L201
ARM GAS  /tmp/ccvURch4.s 			page 71


 3937              	.L196:
 3938              		.loc 5 367 3 view .LVU817
 3939              		.loc 5 371 3 view .LVU818
 3940              	.LBB493:
 3941              	.LBI493:
 3942              		.loc 6 458 20 view .LVU819
 3943              	.LBE493:
 3944              	.LBE492:
 3945              	.LBE491:
 3946              		.loc 6 461 3 view .LVU820
 3947              	.LVL296:
 3948              	.LBB499:
 3949              	.LBB497:
 3950              	.LBB496:
 3951              	.LBB494:
 3952              	.LBI494:
 3953              		.loc 4 544 57 view .LVU821
 3954              	.LBB495:
 3955              		.loc 4 546 3 view .LVU822
 3956 0044 0023     		movs	r3, #0
 3957              		.syntax unified
 3958              	@ 546 ".//ChibiOS//os/ext/CMSIS/include/core_cmFunc.h" 1
 3959 0046 83F31188 		MSR basepri, r3
 3960              	@ 0 "" 2
 3961              	.LVL297:
 3962              		.loc 4 546 3 is_stmt 0 view .LVU823
 3963              		.thumb
 3964              		.syntax unified
 3965              	.LBE495:
 3966              	.LBE494:
 3967              	.LBE496:
 3968              	.LBE497:
 3969              	.LBE499:
 3970              		.loc 1 217 1 view .LVU824
 3971 004a 064B     		ldr	r3, .L203
 3972 004c 1A68     		ldr	r2, [r3]
 3973 004e 019B     		ldr	r3, [sp, #4]
 3974 0050 5A40     		eors	r2, r3, r2
 3975 0052 05D1     		bne	.L202
 3976 0054 03B0     		add	sp, sp, #12
 3977              		.cfi_remember_state
 3978              		.cfi_def_cfa_offset 12
 3979              		@ sp needed
 3980 0056 30BD     		pop	{r4, r5, pc}
 3981              	.LVL298:
 3982              	.L201:
 3983              		.cfi_restore_state
 3984              	.LBB500:
 3985              	.LBB498:
 3986              		.loc 5 367 3 is_stmt 1 view .LVU825
 3987 0058 0448     		ldr	r0, .L203+8
 3988 005a FFF7FEFF 		bl	chSysHalt
 3989              	.LVL299:
 3990 005e F1E7     		b	.L196
 3991              	.L202:
 3992              	.LBE498:
 3993              	.LBE500:
ARM GAS  /tmp/ccvURch4.s 			page 72


 3994              		.loc 1 217 1 is_stmt 0 view .LVU826
 3995 0060 FFF7FEFF 		bl	__stack_chk_fail
 3996              	.LVL300:
 3997              	.L204:
 3998              		.align	2
 3999              	.L203:
 4000 0064 00000000 		.word	.LC42
 4001 0068 00000000 		.word	ch
 4002 006c 00000000 		.word	.LANCHOR4
 4003              		.cfi_endproc
 4004              	.LFE225:
 4005              		.size	thread4, .-thread4
 4006              		.global	patternbmk
 4007              		.global	testbmk13
 4008              		.section	.rodata.str1.4,"aMS",%progbits,1
 4009              		.align	2
 4010              	.LC43:
 4011 0000 42656E63 		.ascii	"Benchmark, RAM footprint\000"
 4011      686D6172 
 4011      6B2C2052 
 4011      414D2066 
 4011      6F6F7470 
 4012              		.global	testbmk12
 4013 0019 000000   		.align	2
 4014              	.LC44:
 4015 001c 42656E63 		.ascii	"Benchmark, mutexes lock/unlock\000"
 4015      686D6172 
 4015      6B2C206D 
 4015      75746578 
 4015      6573206C 
 4016              		.global	testbmk11
 4017 003b 00       		.align	2
 4018              	.LC45:
 4019 003c 42656E63 		.ascii	"Benchmark, semaphores wait/signal\000"
 4019      686D6172 
 4019      6B2C2073 
 4019      656D6170 
 4019      686F7265 
 4020              		.global	testbmk10
 4021 005e 0000     		.align	2
 4022              	.LC46:
 4023 0060 42656E63 		.ascii	"Benchmark, virtual timers set/reset\000"
 4023      686D6172 
 4023      6B2C2076 
 4023      69727475 
 4023      616C2074 
 4024              		.global	testbmk9
 4025              		.align	2
 4026              	.LC47:
 4027 0084 42656E63 		.ascii	"Benchmark, I/O Queues throughput\000"
 4027      686D6172 
 4027      6B2C2049 
 4027      2F4F2051 
 4027      75657565 
 4028              		.global	testbmk8
 4029 00a5 000000   		.align	2
 4030              	.LC48:
ARM GAS  /tmp/ccvURch4.s 			page 73


 4031 00a8 42656E63 		.ascii	"Benchmark, round robin context switching\000"
 4031      686D6172 
 4031      6B2C2072 
 4031      6F756E64 
 4031      20726F62 
 4032              		.global	testbmk7
 4033 00d1 000000   		.align	2
 4034              	.LC49:
 4035 00d4 42656E63 		.ascii	"Benchmark, mass reschedule, 5 threads\000"
 4035      686D6172 
 4035      6B2C206D 
 4035      61737320 
 4035      72657363 
 4036              		.global	testbmk6
 4037 00fa 0000     		.align	2
 4038              	.LC50:
 4039 00fc 42656E63 		.ascii	"Benchmark, threads, create only\000"
 4039      686D6172 
 4039      6B2C2074 
 4039      68726561 
 4039      64732C20 
 4040              		.global	testbmk5
 4041              		.align	2
 4042              	.LC51:
 4043 011c 42656E63 		.ascii	"Benchmark, threads, full cycle\000"
 4043      686D6172 
 4043      6B2C2074 
 4043      68726561 
 4043      64732C20 
 4044              		.global	testbmk4
 4045 013b 00       		.align	2
 4046              	.LC52:
 4047 013c 42656E63 		.ascii	"Benchmark, context switch\000"
 4047      686D6172 
 4047      6B2C2063 
 4047      6F6E7465 
 4047      78742073 
 4048              		.global	testbmk3
 4049 0156 0000     		.align	2
 4050              	.LC53:
 4051 0158 42656E63 		.ascii	"Benchmark, messages #3\000"
 4051      686D6172 
 4051      6B2C206D 
 4051      65737361 
 4051      67657320 
 4052              		.global	testbmk2
 4053 016f 00       		.align	2
 4054              	.LC54:
 4055 0170 42656E63 		.ascii	"Benchmark, messages #2\000"
 4055      686D6172 
 4055      6B2C206D 
 4055      65737361 
 4055      67657320 
 4056              		.global	testbmk1
 4057 0187 00       		.align	2
 4058              	.LC55:
 4059 0188 42656E63 		.ascii	"Benchmark, messages #1\000"
ARM GAS  /tmp/ccvURch4.s 			page 74


 4059      686D6172 
 4059      6B2C206D 
 4059      65737361 
 4059      67657320 
 4060              		.section	.bss.ib.8104,"aw",%nobits
 4061              		.align	2
 4062              		.set	.LANCHOR5,. + 0
 4063              		.type	ib.8104, %object
 4064              		.size	ib.8104, 16
 4065              	ib.8104:
 4066 0000 00000000 		.space	16
 4066      00000000 
 4066      00000000 
 4066      00000000 
 4067              		.section	.bss.iq.8105,"aw",%nobits
 4068              		.align	2
 4069              		.set	.LANCHOR6,. + 0
 4070              		.type	iq.8105, %object
 4071              		.size	iq.8105, 36
 4072              	iq.8105:
 4073 0000 00000000 		.space	36
 4073      00000000 
 4073      00000000 
 4073      00000000 
 4073      00000000 
 4074              		.section	.bss.mtx1,"aw",%nobits
 4075              		.align	2
 4076              		.set	.LANCHOR1,. + 0
 4077              		.type	mtx1, %object
 4078              		.size	mtx1, 20
 4079              	mtx1:
 4080 0000 00000000 		.space	20
 4080      00000000 
 4080      00000000 
 4080      00000000 
 4080      00000000 
 4081              		.section	.bss.sem1,"aw",%nobits
 4082              		.align	2
 4083              		.set	.LANCHOR0,. + 0
 4084              		.type	sem1, %object
 4085              		.size	sem1, 12
 4086              	sem1:
 4087 0000 00000000 		.space	12
 4087      00000000 
 4087      00000000 
 4088              		.section	.bss.vt1.8115,"aw",%nobits
 4089              		.align	2
 4090              		.set	.LANCHOR2,. + 0
 4091              		.type	vt1.8115, %object
 4092              		.size	vt1.8115, 20
 4093              	vt1.8115:
 4094 0000 00000000 		.space	20
 4094      00000000 
 4094      00000000 
 4094      00000000 
 4094      00000000 
 4095              		.section	.bss.vt2.8116,"aw",%nobits
ARM GAS  /tmp/ccvURch4.s 			page 75


 4096              		.align	2
 4097              		.set	.LANCHOR3,. + 0
 4098              		.type	vt2.8116, %object
 4099              		.size	vt2.8116, 20
 4100              	vt2.8116:
 4101 0000 00000000 		.space	20
 4101      00000000 
 4101      00000000 
 4101      00000000 
 4101      00000000 
 4102              		.section	.rodata.__func__.7261,"a"
 4103              		.align	2
 4104              		.set	.LANCHOR4,. + 0
 4105              		.type	__func__.7261, %object
 4106              		.size	__func__.7261, 12
 4107              	__func__.7261:
 4108 0000 63685379 		.ascii	"chSysUnlock\000"
 4108      73556E6C 
 4108      6F636B00 
 4109              		.section	.rodata.patternbmk,"a"
 4110              		.align	2
 4111              		.type	patternbmk, %object
 4112              		.size	patternbmk, 56
 4113              	patternbmk:
 4114 0000 00000000 		.word	testbmk1
 4115 0004 00000000 		.word	testbmk2
 4116 0008 00000000 		.word	testbmk3
 4117 000c 00000000 		.word	testbmk4
 4118 0010 00000000 		.word	testbmk5
 4119 0014 00000000 		.word	testbmk6
 4120 0018 00000000 		.word	testbmk7
 4121 001c 00000000 		.word	testbmk8
 4122 0020 00000000 		.word	testbmk9
 4123 0024 00000000 		.word	testbmk10
 4124 0028 00000000 		.word	testbmk11
 4125 002c 00000000 		.word	testbmk12
 4126 0030 00000000 		.word	testbmk13
 4127 0034 00000000 		.word	0
 4128              		.section	.rodata.testbmk1,"a"
 4129              		.align	2
 4130              		.type	testbmk1, %object
 4131              		.size	testbmk1, 16
 4132              	testbmk1:
 4133 0000 88010000 		.word	.LC55
 4134 0004 00000000 		.word	0
 4135 0008 00000000 		.word	0
 4136 000c 00000000 		.word	bmk1_execute
 4137              		.section	.rodata.testbmk10,"a"
 4138              		.align	2
 4139              		.type	testbmk10, %object
 4140              		.size	testbmk10, 16
 4141              	testbmk10:
 4142 0000 60000000 		.word	.LC46
 4143 0004 00000000 		.word	0
 4144 0008 00000000 		.word	0
 4145 000c 00000000 		.word	bmk10_execute
 4146              		.section	.rodata.testbmk11,"a"
ARM GAS  /tmp/ccvURch4.s 			page 76


 4147              		.align	2
 4148              		.type	testbmk11, %object
 4149              		.size	testbmk11, 16
 4150              	testbmk11:
 4151 0000 3C000000 		.word	.LC45
 4152 0004 00000000 		.word	bmk11_setup
 4153 0008 00000000 		.word	0
 4154 000c 00000000 		.word	bmk11_execute
 4155              		.section	.rodata.testbmk12,"a"
 4156              		.align	2
 4157              		.type	testbmk12, %object
 4158              		.size	testbmk12, 16
 4159              	testbmk12:
 4160 0000 1C000000 		.word	.LC44
 4161 0004 00000000 		.word	bmk12_setup
 4162 0008 00000000 		.word	0
 4163 000c 00000000 		.word	bmk12_execute
 4164              		.section	.rodata.testbmk13,"a"
 4165              		.align	2
 4166              		.type	testbmk13, %object
 4167              		.size	testbmk13, 16
 4168              	testbmk13:
 4169 0000 00000000 		.word	.LC43
 4170 0004 00000000 		.word	0
 4171 0008 00000000 		.word	0
 4172 000c 00000000 		.word	bmk13_execute
 4173              		.section	.rodata.testbmk2,"a"
 4174              		.align	2
 4175              		.type	testbmk2, %object
 4176              		.size	testbmk2, 16
 4177              	testbmk2:
 4178 0000 70010000 		.word	.LC54
 4179 0004 00000000 		.word	0
 4180 0008 00000000 		.word	0
 4181 000c 00000000 		.word	bmk2_execute
 4182              		.section	.rodata.testbmk3,"a"
 4183              		.align	2
 4184              		.type	testbmk3, %object
 4185              		.size	testbmk3, 16
 4186              	testbmk3:
 4187 0000 58010000 		.word	.LC53
 4188 0004 00000000 		.word	0
 4189 0008 00000000 		.word	0
 4190 000c 00000000 		.word	bmk3_execute
 4191              		.section	.rodata.testbmk4,"a"
 4192              		.align	2
 4193              		.type	testbmk4, %object
 4194              		.size	testbmk4, 16
 4195              	testbmk4:
 4196 0000 3C010000 		.word	.LC52
 4197 0004 00000000 		.word	0
 4198 0008 00000000 		.word	0
 4199 000c 00000000 		.word	bmk4_execute
 4200              		.section	.rodata.testbmk5,"a"
 4201              		.align	2
 4202              		.type	testbmk5, %object
 4203              		.size	testbmk5, 16
ARM GAS  /tmp/ccvURch4.s 			page 77


 4204              	testbmk5:
 4205 0000 1C010000 		.word	.LC51
 4206 0004 00000000 		.word	0
 4207 0008 00000000 		.word	0
 4208 000c 00000000 		.word	bmk5_execute
 4209              		.section	.rodata.testbmk6,"a"
 4210              		.align	2
 4211              		.type	testbmk6, %object
 4212              		.size	testbmk6, 16
 4213              	testbmk6:
 4214 0000 FC000000 		.word	.LC50
 4215 0004 00000000 		.word	0
 4216 0008 00000000 		.word	0
 4217 000c 00000000 		.word	bmk6_execute
 4218              		.section	.rodata.testbmk7,"a"
 4219              		.align	2
 4220              		.type	testbmk7, %object
 4221              		.size	testbmk7, 16
 4222              	testbmk7:
 4223 0000 D4000000 		.word	.LC49
 4224 0004 00000000 		.word	bmk7_setup
 4225 0008 00000000 		.word	0
 4226 000c 00000000 		.word	bmk7_execute
 4227              		.section	.rodata.testbmk8,"a"
 4228              		.align	2
 4229              		.type	testbmk8, %object
 4230              		.size	testbmk8, 16
 4231              	testbmk8:
 4232 0000 A8000000 		.word	.LC48
 4233 0004 00000000 		.word	0
 4234 0008 00000000 		.word	0
 4235 000c 00000000 		.word	bmk8_execute
 4236              		.section	.rodata.testbmk9,"a"
 4237              		.align	2
 4238              		.type	testbmk9, %object
 4239              		.size	testbmk9, 16
 4240              	testbmk9:
 4241 0000 84000000 		.word	.LC47
 4242 0004 00000000 		.word	0
 4243 0008 00000000 		.word	0
 4244 000c 00000000 		.word	bmk9_execute
 4245              		.text
 4246              	.Letext0:
 4247              		.file 8 "/usr/lib/gcc/arm-none-eabi/9.2.1/include/stddef.h"
 4248              		.file 9 "/usr/lib/gcc/arm-none-eabi/9.2.1/include/stdint.h"
 4249              		.file 10 ".//ChibiOS//os/rt/ports/ARMCMx/compilers/GCC/chtypes.h"
 4250              		.file 11 ".//ChibiOS//os/rt/include/chsystypes.h"
 4251              		.file 12 ".//ChibiOS//os/rt/include/chschd.h"
 4252              		.file 13 ".//ChibiOS//os/ext/CMSIS/include/core_cm4.h"
 4253              		.file 14 ".//ChibiOS//os/ext/CMSIS/ST/system_stm32f4xx.h"
 4254              		.file 15 ".//ChibiOS//os/rt/ports/ARMCMx/chcore.h"
 4255              		.file 16 ".//ChibiOS//os/rt/include/chdebug.h"
 4256              		.file 17 ".//ChibiOS//os/rt/include/chtm.h"
 4257              		.file 18 ".//ChibiOS//os/rt/include/chstats.h"
 4258              		.file 19 ".//ChibiOS//os/rt/include/chsem.h"
 4259              		.file 20 ".//ChibiOS//os/rt/include/chmtx.h"
 4260              		.file 21 ".//ChibiOS//os/rt/include/chregistry.h"
ARM GAS  /tmp/ccvURch4.s 			page 78


 4261              		.file 22 ".//ChibiOS//test/rt/test.h"
 4262              		.file 23 ".//ChibiOS//os/rt/include/chvt.h"