ARM GAS  /tmp/ccZrRhiO.s 			page 1


   1              		.cpu cortex-m4
   2              		.eabi_attribute 27, 1
   3              		.eabi_attribute 28, 1
   4              		.eabi_attribute 20, 1
   5              		.eabi_attribute 21, 1
   6              		.eabi_attribute 23, 3
   7              		.eabi_attribute 24, 1
   8              		.eabi_attribute 25, 1
   9              		.eabi_attribute 26, 1
  10              		.eabi_attribute 30, 2
  11              		.eabi_attribute 34, 1
  12              		.eabi_attribute 18, 4
  13              		.file	"testheap.c"
  14              		.text
  15              	.Ltext0:
  16              		.cfi_sections	.debug_frame
  17              		.section	.rodata.heap1_execute.cst4,"aM",%progbits,4
  18              		.align	2
  19              	.LC0:
  20 0000 00000000 		.word	__stack_chk_guard
  21              		.section	.text.heap1_execute,"ax",%progbits
  22              		.align	1
  23              		.p2align 4,,15
  24              		.arch armv7e-m
  25              		.syntax unified
  26              		.thumb
  27              		.thumb_func
  28              		.fpu fpv4-sp-d16
  29              		.type	heap1_execute, %function
  30              	heap1_execute:
  31              	.LFB220:
  32              		.file 1 ".//ChibiOS//test/rt/testheap.c"
  33              		.loc 1 69 33 view -0
  34              		.cfi_startproc
  35              		@ args = 0, pretend = 0, frame = 16
  36              		@ frame_needed = 0, uses_anonymous_args = 0
  37 0000 70B5     		push	{r4, r5, r6, lr}
  38              		.cfi_def_cfa_offset 16
  39              		.cfi_offset 4, -16
  40              		.cfi_offset 5, -12
  41              		.cfi_offset 6, -8
  42              		.cfi_offset 14, -4
  43 0002 994B     		ldr	r3, .L12
  44 0004 84B0     		sub	sp, sp, #16
  45              		.cfi_def_cfa_offset 32
  46              		.loc 1 69 33 is_stmt 0 view .LVU1
  47 0006 1B68     		ldr	r3, [r3]
  48 0008 0393     		str	r3, [sp, #12]
  49 000a 4FF00003 		mov	r3,#0
  50              		.loc 1 70 3 is_stmt 1 view .LVU2
  51              		.loc 1 71 3 view .LVU3
  52              		.loc 1 74 3 view .LVU4
  53              		.loc 1 74 9 is_stmt 0 view .LVU5
  54 000e FFF7FEFF 		bl	chCoreGetStatusX
  55              	.LVL0:
  56              		.loc 1 80 3 is_stmt 1 view .LVU6
  57              		.loc 1 80 9 is_stmt 0 view .LVU7
ARM GAS  /tmp/ccZrRhiO.s 			page 2


  58 0012 02A9     		add	r1, sp, #8
  59 0014 0020     		movs	r0, #0
  60 0016 FFF7FEFF 		bl	chHeapStatus
  61              	.LVL1:
  62              		.loc 1 81 3 is_stmt 1 view .LVU8
  63              		.loc 1 81 8 is_stmt 0 view .LVU9
  64 001a 1021     		movs	r1, #16
  65 001c 0020     		movs	r0, #0
  66 001e FFF7FEFF 		bl	chHeapAlloc
  67              	.LVL2:
  68              		.loc 1 82 3 view .LVU10
  69 0022 011E     		subs	r1, r0, #0
  70              		.loc 1 81 8 view .LVU11
  71 0024 0546     		mov	r5, r0
  72              	.LVL3:
  73              		.loc 1 82 3 is_stmt 1 view .LVU12
  74 0026 18BF     		it	ne
  75 0028 0121     		movne	r1, #1
  76 002a 0120     		movs	r0, #1
  77              	.LVL4:
  78              		.loc 1 82 3 is_stmt 0 view .LVU13
  79 002c FFF7FEFF 		bl	_test_assert
  80              	.LVL5:
  81 0030 38B1     		cbz	r0, .L10
  82              	.LVL6:
  83              	.L1:
  84              		.loc 1 140 1 view .LVU14
  85 0032 8D4B     		ldr	r3, .L12
  86 0034 1A68     		ldr	r2, [r3]
  87 0036 039B     		ldr	r3, [sp, #12]
  88 0038 5A40     		eors	r2, r3, r2
  89 003a 40F01281 		bne	.L11
  90 003e 04B0     		add	sp, sp, #16
  91              		.cfi_remember_state
  92              		.cfi_def_cfa_offset 16
  93              		@ sp needed
  94 0040 70BD     		pop	{r4, r5, r6, pc}
  95              	.LVL7:
  96              	.L10:
  97              		.cfi_restore_state
  98              		.loc 1 82 50 is_stmt 1 discriminator 2 view .LVU15
  99              		.loc 1 83 3 discriminator 2 view .LVU16
 100 0042 0446     		mov	r4, r0
 101 0044 2846     		mov	r0, r5
 102 0046 FFF7FEFF 		bl	chHeapFree
 103              	.LVL8:
 104              		.loc 1 84 3 discriminator 2 view .LVU17
 105              		.loc 1 84 8 is_stmt 0 discriminator 2 view .LVU18
 106 004a 6FF0FF01 		mvn	r1, #255
 107 004e 2046     		mov	r0, r4
 108 0050 FFF7FEFF 		bl	chHeapAlloc
 109              	.LVL9:
 110              		.loc 1 85 3 is_stmt 1 discriminator 2 view .LVU19
 111 0054 B0FA80F1 		clz	r1, r0
 112 0058 4909     		lsrs	r1, r1, #5
 113 005a 0220     		movs	r0, #2
 114              	.LVL10:
ARM GAS  /tmp/ccZrRhiO.s 			page 3


 115              		.loc 1 85 3 is_stmt 0 discriminator 2 view .LVU20
 116 005c FFF7FEFF 		bl	_test_assert
 117              	.LVL11:
 118 0060 0028     		cmp	r0, #0
 119 0062 E6D1     		bne	.L1
 120              		.loc 1 85 54 is_stmt 1 discriminator 2 view .LVU21
 121              		.loc 1 88 3 discriminator 2 view .LVU22
 122              		.loc 1 88 9 is_stmt 0 discriminator 2 view .LVU23
 123 0064 02A9     		add	r1, sp, #8
 124 0066 8148     		ldr	r0, .L12+4
 125 0068 FFF7FEFF 		bl	chHeapStatus
 126              	.LVL12:
 127              		.loc 1 91 3 is_stmt 1 discriminator 2 view .LVU24
 128              		.loc 1 91 8 is_stmt 0 discriminator 2 view .LVU25
 129 006c 1021     		movs	r1, #16
 130 006e 7F48     		ldr	r0, .L12+4
 131 0070 FFF7FEFF 		bl	chHeapAlloc
 132              	.LVL13:
 133              		.loc 1 92 8 discriminator 2 view .LVU26
 134 0074 1021     		movs	r1, #16
 135              		.loc 1 91 8 discriminator 2 view .LVU27
 136 0076 0646     		mov	r6, r0
 137              		.loc 1 92 8 discriminator 2 view .LVU28
 138 0078 7C48     		ldr	r0, .L12+4
 139              	.LVL14:
 140              		.loc 1 92 3 is_stmt 1 discriminator 2 view .LVU29
 141              		.loc 1 92 8 is_stmt 0 discriminator 2 view .LVU30
 142 007a FFF7FEFF 		bl	chHeapAlloc
 143              	.LVL15:
 144              		.loc 1 93 8 discriminator 2 view .LVU31
 145 007e 1021     		movs	r1, #16
 146              		.loc 1 92 8 discriminator 2 view .LVU32
 147 0080 0546     		mov	r5, r0
 148              		.loc 1 93 8 discriminator 2 view .LVU33
 149 0082 7A48     		ldr	r0, .L12+4
 150              	.LVL16:
 151              		.loc 1 93 3 is_stmt 1 discriminator 2 view .LVU34
 152              		.loc 1 93 8 is_stmt 0 discriminator 2 view .LVU35
 153 0084 FFF7FEFF 		bl	chHeapAlloc
 154              	.LVL17:
 155 0088 0446     		mov	r4, r0
 156              		.loc 1 94 3 discriminator 2 view .LVU36
 157 008a 3046     		mov	r0, r6
 158              	.LVL18:
 159              		.loc 1 94 3 is_stmt 1 discriminator 2 view .LVU37
 160 008c FFF7FEFF 		bl	chHeapFree
 161              	.LVL19:
 162              		.loc 1 95 3 discriminator 2 view .LVU38
 163 0090 2846     		mov	r0, r5
 164 0092 FFF7FEFF 		bl	chHeapFree
 165              	.LVL20:
 166              		.loc 1 96 3 discriminator 2 view .LVU39
 167 0096 2046     		mov	r0, r4
 168 0098 FFF7FEFF 		bl	chHeapFree
 169              	.LVL21:
 170              		.loc 1 97 3 discriminator 2 view .LVU40
 171 009c 01A9     		add	r1, sp, #4
ARM GAS  /tmp/ccZrRhiO.s 			page 4


 172 009e 7348     		ldr	r0, .L12+4
 173 00a0 FFF7FEFF 		bl	chHeapStatus
 174              	.LVL22:
 175 00a4 A0F10101 		sub	r1, r0, #1
 176 00a8 B1FA81F1 		clz	r1, r1
 177 00ac 4909     		lsrs	r1, r1, #5
 178 00ae 0320     		movs	r0, #3
 179 00b0 FFF7FEFF 		bl	_test_assert
 180              	.LVL23:
 181 00b4 0028     		cmp	r0, #0
 182 00b6 BCD1     		bne	.L1
 183              		.loc 1 97 71 discriminator 2 view .LVU41
 184              		.loc 1 100 3 discriminator 2 view .LVU42
 185              		.loc 1 100 8 is_stmt 0 discriminator 2 view .LVU43
 186 00b8 1021     		movs	r1, #16
 187 00ba 6C48     		ldr	r0, .L12+4
 188 00bc FFF7FEFF 		bl	chHeapAlloc
 189              	.LVL24:
 190              		.loc 1 101 8 discriminator 2 view .LVU44
 191 00c0 1021     		movs	r1, #16
 192              		.loc 1 100 8 discriminator 2 view .LVU45
 193 00c2 0446     		mov	r4, r0
 194              	.LVL25:
 195              		.loc 1 101 8 discriminator 2 view .LVU46
 196 00c4 6948     		ldr	r0, .L12+4
 197              	.LVL26:
 198              		.loc 1 101 3 is_stmt 1 discriminator 2 view .LVU47
 199              		.loc 1 101 8 is_stmt 0 discriminator 2 view .LVU48
 200 00c6 FFF7FEFF 		bl	chHeapAlloc
 201              	.LVL27:
 202              		.loc 1 102 8 discriminator 2 view .LVU49
 203 00ca 1021     		movs	r1, #16
 204              		.loc 1 101 8 discriminator 2 view .LVU50
 205 00cc 0546     		mov	r5, r0
 206              	.LVL28:
 207              		.loc 1 102 8 discriminator 2 view .LVU51
 208 00ce 6748     		ldr	r0, .L12+4
 209              	.LVL29:
 210              		.loc 1 102 3 is_stmt 1 discriminator 2 view .LVU52
 211              		.loc 1 102 8 is_stmt 0 discriminator 2 view .LVU53
 212 00d0 FFF7FEFF 		bl	chHeapAlloc
 213              	.LVL30:
 214              		.loc 1 103 3 is_stmt 1 discriminator 2 view .LVU54
 215 00d4 FFF7FEFF 		bl	chHeapFree
 216              	.LVL31:
 217              		.loc 1 104 3 discriminator 2 view .LVU55
 218 00d8 2846     		mov	r0, r5
 219 00da FFF7FEFF 		bl	chHeapFree
 220              	.LVL32:
 221              		.loc 1 105 3 discriminator 2 view .LVU56
 222 00de 2046     		mov	r0, r4
 223 00e0 FFF7FEFF 		bl	chHeapFree
 224              	.LVL33:
 225              		.loc 1 106 3 discriminator 2 view .LVU57
 226 00e4 01A9     		add	r1, sp, #4
 227 00e6 6148     		ldr	r0, .L12+4
 228 00e8 FFF7FEFF 		bl	chHeapStatus
ARM GAS  /tmp/ccZrRhiO.s 			page 5


 229              	.LVL34:
 230 00ec A0F10101 		sub	r1, r0, #1
 231 00f0 B1FA81F1 		clz	r1, r1
 232 00f4 4909     		lsrs	r1, r1, #5
 233 00f6 0420     		movs	r0, #4
 234 00f8 FFF7FEFF 		bl	_test_assert
 235              	.LVL35:
 236 00fc 0028     		cmp	r0, #0
 237 00fe 98D1     		bne	.L1
 238              		.loc 1 106 71 discriminator 2 view .LVU58
 239              		.loc 1 109 3 discriminator 2 view .LVU59
 240              		.loc 1 109 8 is_stmt 0 discriminator 2 view .LVU60
 241 0100 1121     		movs	r1, #17
 242 0102 5A48     		ldr	r0, .L12+4
 243 0104 FFF7FEFF 		bl	chHeapAlloc
 244              	.LVL36:
 245              		.loc 1 110 8 discriminator 2 view .LVU61
 246 0108 1021     		movs	r1, #16
 247              		.loc 1 109 8 discriminator 2 view .LVU62
 248 010a 0446     		mov	r4, r0
 249              	.LVL37:
 250              		.loc 1 110 3 is_stmt 1 discriminator 2 view .LVU63
 251              		.loc 1 110 8 is_stmt 0 discriminator 2 view .LVU64
 252 010c 5748     		ldr	r0, .L12+4
 253              	.LVL38:
 254              		.loc 1 110 8 discriminator 2 view .LVU65
 255 010e FFF7FEFF 		bl	chHeapAlloc
 256              	.LVL39:
 257 0112 0346     		mov	r3, r0
 258              		.loc 1 111 3 discriminator 2 view .LVU66
 259 0114 2046     		mov	r0, r4
 260              		.loc 1 110 8 discriminator 2 view .LVU67
 261 0116 1C46     		mov	r4, r3
 262              	.LVL40:
 263              		.loc 1 111 3 is_stmt 1 discriminator 2 view .LVU68
 264 0118 FFF7FEFF 		bl	chHeapFree
 265              	.LVL41:
 266              		.loc 1 112 3 discriminator 2 view .LVU69
 267 011c 01A9     		add	r1, sp, #4
 268 011e 5348     		ldr	r0, .L12+4
 269 0120 FFF7FEFF 		bl	chHeapStatus
 270              	.LVL42:
 271 0124 A0F10201 		sub	r1, r0, #2
 272 0128 B1FA81F1 		clz	r1, r1
 273 012c 4909     		lsrs	r1, r1, #5
 274 012e 0520     		movs	r0, #5
 275 0130 FFF7FEFF 		bl	_test_assert
 276              	.LVL43:
 277 0134 0028     		cmp	r0, #0
 278 0136 7FF47CAF 		bne	.L1
 279              		.loc 1 112 69 discriminator 2 view .LVU70
 280              		.loc 1 113 3 discriminator 2 view .LVU71
 281              		.loc 1 113 8 is_stmt 0 discriminator 2 view .LVU72
 282 013a 1021     		movs	r1, #16
 283 013c 4B48     		ldr	r0, .L12+4
 284 013e FFF7FEFF 		bl	chHeapAlloc
 285              	.LVL44:
ARM GAS  /tmp/ccZrRhiO.s 			page 6


 286              		.loc 1 116 3 discriminator 2 view .LVU73
 287 0142 01A9     		add	r1, sp, #4
 288              		.loc 1 113 8 discriminator 2 view .LVU74
 289 0144 0546     		mov	r5, r0
 290              		.loc 1 116 3 discriminator 2 view .LVU75
 291 0146 4948     		ldr	r0, .L12+4
 292              	.LVL45:
 293              		.loc 1 116 3 is_stmt 1 discriminator 2 view .LVU76
 294 0148 FFF7FEFF 		bl	chHeapStatus
 295              	.LVL46:
 296 014c 0128     		cmp	r0, #1
 297 014e 0146     		mov	r1, r0
 298 0150 08D0     		beq	.L5
 299 0152 01A9     		add	r1, sp, #4
 300 0154 4548     		ldr	r0, .L12+4
 301 0156 FFF7FEFF 		bl	chHeapStatus
 302              	.LVL47:
 303 015a A0F10201 		sub	r1, r0, #2
 304 015e B1FA81F1 		clz	r1, r1
 305 0162 4909     		lsrs	r1, r1, #5
 306              	.L5:
 307              		.loc 1 116 3 is_stmt 0 discriminator 6 view .LVU77
 308 0164 0620     		movs	r0, #6
 309 0166 FFF7FEFF 		bl	_test_assert
 310              	.LVL48:
 311 016a 0028     		cmp	r0, #0
 312 016c 7FF461AF 		bne	.L1
 313              		.loc 1 117 73 is_stmt 1 view .LVU78
 314              		.loc 1 118 3 view .LVU79
 315 0170 2046     		mov	r0, r4
 316 0172 FFF7FEFF 		bl	chHeapFree
 317              	.LVL49:
 318              		.loc 1 119 3 view .LVU80
 319 0176 2846     		mov	r0, r5
 320 0178 FFF7FEFF 		bl	chHeapFree
 321              	.LVL50:
 322              		.loc 1 120 3 view .LVU81
 323 017c 01A9     		add	r1, sp, #4
 324 017e 3B48     		ldr	r0, .L12+4
 325 0180 FFF7FEFF 		bl	chHeapStatus
 326              	.LVL51:
 327 0184 A0F10101 		sub	r1, r0, #1
 328 0188 B1FA81F1 		clz	r1, r1
 329 018c 4909     		lsrs	r1, r1, #5
 330 018e 0720     		movs	r0, #7
 331 0190 FFF7FEFF 		bl	_test_assert
 332              	.LVL52:
 333 0194 0028     		cmp	r0, #0
 334 0196 7FF44CAF 		bne	.L1
 335              		.loc 1 120 71 discriminator 2 view .LVU82
 336              		.loc 1 123 3 discriminator 2 view .LVU83
 337              		.loc 1 123 8 is_stmt 0 discriminator 2 view .LVU84
 338 019a 1021     		movs	r1, #16
 339 019c 3348     		ldr	r0, .L12+4
 340 019e FFF7FEFF 		bl	chHeapAlloc
 341              	.LVL53:
 342              		.loc 1 124 8 discriminator 2 view .LVU85
ARM GAS  /tmp/ccZrRhiO.s 			page 7


 343 01a2 1021     		movs	r1, #16
 344              		.loc 1 123 8 discriminator 2 view .LVU86
 345 01a4 0446     		mov	r4, r0
 346              	.LVL54:
 347              		.loc 1 124 3 is_stmt 1 discriminator 2 view .LVU87
 348              		.loc 1 124 8 is_stmt 0 discriminator 2 view .LVU88
 349 01a6 3148     		ldr	r0, .L12+4
 350              	.LVL55:
 351              		.loc 1 124 8 discriminator 2 view .LVU89
 352 01a8 FFF7FEFF 		bl	chHeapAlloc
 353              	.LVL56:
 354 01ac 0346     		mov	r3, r0
 355              		.loc 1 125 3 discriminator 2 view .LVU90
 356 01ae 2046     		mov	r0, r4
 357              		.loc 1 124 8 discriminator 2 view .LVU91
 358 01b0 1C46     		mov	r4, r3
 359              	.LVL57:
 360              		.loc 1 125 3 is_stmt 1 discriminator 2 view .LVU92
 361 01b2 FFF7FEFF 		bl	chHeapFree
 362              	.LVL58:
 363              		.loc 1 126 3 discriminator 2 view .LVU93
 364 01b6 01A9     		add	r1, sp, #4
 365 01b8 2C48     		ldr	r0, .L12+4
 366 01ba FFF7FEFF 		bl	chHeapStatus
 367              	.LVL59:
 368 01be A0F10201 		sub	r1, r0, #2
 369 01c2 B1FA81F1 		clz	r1, r1
 370 01c6 4909     		lsrs	r1, r1, #5
 371 01c8 0820     		movs	r0, #8
 372 01ca FFF7FEFF 		bl	_test_assert
 373              	.LVL60:
 374 01ce 0028     		cmp	r0, #0
 375 01d0 7FF42FAF 		bne	.L1
 376              		.loc 1 126 69 discriminator 2 view .LVU94
 377              		.loc 1 127 3 discriminator 2 view .LVU95
 378              		.loc 1 127 8 is_stmt 0 discriminator 2 view .LVU96
 379 01d4 2021     		movs	r1, #32
 380 01d6 2548     		ldr	r0, .L12+4
 381 01d8 FFF7FEFF 		bl	chHeapAlloc
 382              	.LVL61:
 383              		.loc 1 128 3 is_stmt 1 discriminator 2 view .LVU97
 384 01dc FFF7FEFF 		bl	chHeapFree
 385              	.LVL62:
 386              		.loc 1 129 3 discriminator 2 view .LVU98
 387 01e0 2046     		mov	r0, r4
 388 01e2 FFF7FEFF 		bl	chHeapFree
 389              	.LVL63:
 390              		.loc 1 130 3 discriminator 2 view .LVU99
 391 01e6 01A9     		add	r1, sp, #4
 392 01e8 2048     		ldr	r0, .L12+4
 393 01ea FFF7FEFF 		bl	chHeapStatus
 394              	.LVL64:
 395 01ee A0F10101 		sub	r1, r0, #1
 396 01f2 B1FA81F1 		clz	r1, r1
 397 01f6 4909     		lsrs	r1, r1, #5
 398 01f8 0920     		movs	r0, #9
 399 01fa FFF7FEFF 		bl	_test_assert
ARM GAS  /tmp/ccZrRhiO.s 			page 8


 400              	.LVL65:
 401 01fe 0028     		cmp	r0, #0
 402 0200 7FF417AF 		bne	.L1
 403              		.loc 1 130 71 discriminator 2 view .LVU100
 404              		.loc 1 133 3 discriminator 2 view .LVU101
 405              		.loc 1 133 9 is_stmt 0 discriminator 2 view .LVU102
 406 0204 01A9     		add	r1, sp, #4
 407 0206 1948     		ldr	r0, .L12+4
 408 0208 FFF7FEFF 		bl	chHeapStatus
 409              	.LVL66:
 410              		.loc 1 134 3 is_stmt 1 discriminator 2 view .LVU103
 411              		.loc 1 134 8 is_stmt 0 discriminator 2 view .LVU104
 412 020c 0199     		ldr	r1, [sp, #4]
 413 020e 1748     		ldr	r0, .L12+4
 414 0210 FFF7FEFF 		bl	chHeapAlloc
 415              	.LVL67:
 416              		.loc 1 135 3 discriminator 2 view .LVU105
 417 0214 01A9     		add	r1, sp, #4
 418              		.loc 1 134 8 discriminator 2 view .LVU106
 419 0216 0446     		mov	r4, r0
 420              	.LVL68:
 421              		.loc 1 135 3 discriminator 2 view .LVU107
 422 0218 1448     		ldr	r0, .L12+4
 423              	.LVL69:
 424              		.loc 1 135 3 is_stmt 1 discriminator 2 view .LVU108
 425 021a FFF7FEFF 		bl	chHeapStatus
 426              	.LVL70:
 427 021e B0FA80F1 		clz	r1, r0
 428 0222 4909     		lsrs	r1, r1, #5
 429 0224 0A20     		movs	r0, #10
 430 0226 FFF7FEFF 		bl	_test_assert
 431              	.LVL71:
 432 022a 0028     		cmp	r0, #0
 433 022c 7FF401AF 		bne	.L1
 434              		.loc 1 135 66 discriminator 2 view .LVU109
 435              		.loc 1 136 3 discriminator 2 view .LVU110
 436 0230 2046     		mov	r0, r4
 437 0232 FFF7FEFF 		bl	chHeapFree
 438              	.LVL72:
 439              		.loc 1 138 3 discriminator 2 view .LVU111
 440 0236 01A9     		add	r1, sp, #4
 441 0238 0C48     		ldr	r0, .L12+4
 442 023a FFF7FEFF 		bl	chHeapStatus
 443              	.LVL73:
 444 023e 421E     		subs	r2, r0, #1
 445 0240 5142     		rsbs	r1, r2, #0
 446 0242 5141     		adcs	r1, r1, r2
 447 0244 0B20     		movs	r0, #11
 448 0246 FFF7FEFF 		bl	_test_assert
 449              	.LVL74:
 450 024a 0028     		cmp	r0, #0
 451 024c 7FF4F1AE 		bne	.L1
 452              		.loc 1 138 72 discriminator 2 view .LVU112
 453              		.loc 1 139 3 discriminator 2 view .LVU113
 454 0250 DDE90113 		ldrd	r1, r3, [sp, #4]
 455 0254 CB1A     		subs	r3, r1, r3
 456 0256 5942     		rsbs	r1, r3, #0
ARM GAS  /tmp/ccZrRhiO.s 			page 9


 457 0258 5941     		adcs	r1, r1, r3
 458 025a 0C20     		movs	r0, #12
 459 025c FFF7FEFF 		bl	_test_assert
 460              	.LVL75:
 461              		.loc 1 139 3 discriminator 2 view .LVU114
 462 0260 E7E6     		b	.L1
 463              	.LVL76:
 464              	.L11:
 465              		.loc 1 140 1 is_stmt 0 view .LVU115
 466 0262 FFF7FEFF 		bl	__stack_chk_fail
 467              	.LVL77:
 468              	.L13:
 469 0266 00BF     		.align	2
 470              	.L12:
 471 0268 00000000 		.word	.LC0
 472 026c 00000000 		.word	.LANCHOR0
 473              		.cfi_endproc
 474              	.LFE220:
 475              		.size	heap1_execute, .-heap1_execute
 476              		.section	.rodata.heap1_setup.cst4,"aM",%progbits,4
 477              		.align	2
 478              	.LC1:
 479 0000 00000000 		.word	__stack_chk_guard
 480              		.section	.text.heap1_setup,"ax",%progbits
 481              		.align	1
 482              		.p2align 4,,15
 483              		.syntax unified
 484              		.thumb
 485              		.thumb_func
 486              		.fpu fpv4-sp-d16
 487              		.type	heap1_setup, %function
 488              	heap1_setup:
 489              	.LFB219:
 490              		.loc 1 64 31 is_stmt 1 view -0
 491              		.cfi_startproc
 492              		@ args = 0, pretend = 0, frame = 8
 493              		@ frame_needed = 0, uses_anonymous_args = 0
 494 0000 00B5     		push	{lr}
 495              		.cfi_def_cfa_offset 4
 496              		.cfi_offset 14, -4
 497 0002 0B4B     		ldr	r3, .L19
 498 0004 83B0     		sub	sp, sp, #12
 499              		.cfi_def_cfa_offset 16
 500              		.loc 1 64 31 is_stmt 0 view .LVU117
 501 0006 1B68     		ldr	r3, [r3]
 502 0008 0193     		str	r3, [sp, #4]
 503 000a 4FF00003 		mov	r3,#0
 504              		.loc 1 66 3 is_stmt 1 view .LVU118
 505 000e 084B     		ldr	r3, .L19
 506 0010 1A68     		ldr	r2, [r3]
 507 0012 019B     		ldr	r3, [sp, #4]
 508 0014 5A40     		eors	r2, r3, r2
 509 0016 08D1     		bne	.L18
 510 0018 0649     		ldr	r1, .L19+4
 511 001a 0748     		ldr	r0, .L19+8
 512 001c 40F6D812 		movw	r2, #2520
 513              		.loc 1 67 1 is_stmt 0 view .LVU119
ARM GAS  /tmp/ccZrRhiO.s 			page 10


 514 0020 03B0     		add	sp, sp, #12
 515              		.cfi_remember_state
 516              		.cfi_def_cfa_offset 4
 517              		@ sp needed
 518 0022 5DF804EB 		ldr	lr, [sp], #4
 519              		.cfi_restore 14
 520              		.cfi_def_cfa_offset 0
 521              		.loc 1 66 3 view .LVU120
 522 0026 FFF7FEBF 		b	chHeapObjectInit
 523              	.LVL78:
 524              	.L18:
 525              		.cfi_restore_state
 526 002a FFF7FEFF 		bl	__stack_chk_fail
 527              	.LVL79:
 528              	.L20:
 529 002e 00BF     		.align	2
 530              	.L19:
 531 0030 00000000 		.word	.LC1
 532 0034 00000000 		.word	test
 533 0038 00000000 		.word	.LANCHOR0
 534              		.cfi_endproc
 535              	.LFE219:
 536              		.size	heap1_setup, .-heap1_setup
 537              		.global	patternheap
 538              		.global	testheap1
 539              		.section	.rodata.str1.4,"aMS",%progbits,1
 540              		.align	2
 541              	.LC2:
 542 0000 48656170 		.ascii	"Heap, allocation and fragmentation test\000"
 542      2C20616C 
 542      6C6F6361 
 542      74696F6E 
 542      20616E64 
 543              		.section	.bss.test_heap,"aw",%nobits
 544              		.align	3
 545              		.set	.LANCHOR0,. + 0
 546              		.type	test_heap, %object
 547              		.size	test_heap, 40
 548              	test_heap:
 549 0000 00000000 		.space	40
 549      00000000 
 549      00000000 
 549      00000000 
 549      00000000 
 550              		.section	.rodata.patternheap,"a"
 551              		.align	2
 552              		.type	patternheap, %object
 553              		.size	patternheap, 8
 554              	patternheap:
 555 0000 00000000 		.word	testheap1
 556 0004 00000000 		.word	0
 557              		.section	.rodata.testheap1,"a"
 558              		.align	2
 559              		.type	testheap1, %object
 560              		.size	testheap1, 16
 561              	testheap1:
 562 0000 00000000 		.word	.LC2
ARM GAS  /tmp/ccZrRhiO.s 			page 11


 563 0004 00000000 		.word	heap1_setup
 564 0008 00000000 		.word	0
 565 000c 00000000 		.word	heap1_execute
 566              		.text
 567              	.Letext0:
 568              		.file 2 "/usr/lib/gcc/arm-none-eabi/9.2.1/include/stddef.h"
 569              		.file 3 "/usr/lib/gcc/arm-none-eabi/9.2.1/include/stdint.h"
 570              		.file 4 ".//ChibiOS//os/rt/ports/ARMCMx/compilers/GCC/chtypes.h"
 571              		.file 5 ".//ChibiOS//os/rt/include/chsystypes.h"
 572              		.file 6 ".//ChibiOS//os/rt/include/chschd.h"
 573              		.file 7 ".//ChibiOS//os/ext/CMSIS/include/core_cm4.h"
 574              		.file 8 ".//ChibiOS//os/ext/CMSIS/ST/system_stm32f4xx.h"
 575              		.file 9 ".//ChibiOS//os/rt/ports/ARMCMx/chcore.h"
 576              		.file 10 ".//ChibiOS//os/rt/ports/ARMCMx/chcore_v7m.h"
 577              		.file 11 ".//ChibiOS//os/rt/include/chdebug.h"
 578              		.file 12 ".//ChibiOS//os/rt/include/chtm.h"
 579              		.file 13 ".//ChibiOS//os/rt/include/chstats.h"
 580              		.file 14 ".//ChibiOS//os/rt/include/chsem.h"
 581              		.file 15 ".//ChibiOS//os/rt/include/chmtx.h"
 582              		.file 16 ".//ChibiOS//os/rt/include/chregistry.h"
 583              		.file 17 ".//ChibiOS//os/rt/include/chmemcore.h"
 584              		.file 18 ".//ChibiOS//os/rt/include/chheap.h"
 585              		.file 19 ".//ChibiOS//test/rt/test.h"