ARM GAS  /tmp/ccZrRhiO.s 			page 1


   1              		.cpu cortex-m4
   2              		.eabi_attribute 27, 1
   3              		.eabi_attribute 28, 1
   4              		.eabi_attribute 20, 1
   5              		.eabi_attribute 21, 1
   6              		.eabi_attribute 23, 3
   7              		.eabi_attribute 24, 1
   8              		.eabi_attribute 25, 1
   9              		.eabi_attribute 26, 1
  10              		.eabi_attribute 30, 2
  11              		.eabi_attribute 34, 1
  12              		.eabi_attribute 18, 4
  13              		.file	"testheap.c"
  14              		.text
  15              	.Ltext0:
  16              		.cfi_sections	.debug_frame
  17              		.section	.rodata.heap1_execute.cst4,"aM",%progbits,4
  18              		.align	2
  19              	.LC0:
  20 0000 00000000 		.word	__stack_chk_guard
  21              		.section	.text.heap1_execute,"ax",%progbits
  22              		.align	1
  23              		.p2align 4,,15
  24              		.arch armv7e-m
  25              		.syntax unified
  26              		.thumb
  27              		.thumb_func
  28              		.fpu fpv4-sp-d16
  29              		.type	heap1_execute, %function
  30              	heap1_execute:
  31              	.LFB220:
  32              		.file 1 ".//ChibiOS//test/rt/testheap.c"
  33              		.loc 1 69 33 view -0
  34              		.cfi_startproc
  35              		@ args = 0, pretend = 0, frame = 16
  36              		@ frame_needed = 0, uses_anonymous_args = 0
  37 0000 70B5     		push	{r4, r5, r6, lr}
  38              		.cfi_def_cfa_offset 16
  39              		.cfi_offset 4, -16
  40              		.cfi_offset 5, -12
  41              		.cfi_offset 6, -8
  42              		.cfi_offset 14, -4
  43 0002 994B     		ldr	r3, .L12
  44 0004 84B0     		sub	sp, sp, #16
  45              		.cfi_def_cfa_offset 32
  46              		.loc 1 69 33 is_stmt 0 view .LVU1
  47 0006 1B68     		ldr	r3, [r3]
  48 0008 0393     		str	r3, [sp, #12]
  49 000a 4FF00003 		mov	r3,#0
  50              		.loc 1 70 3 is_stmt 1 view .LVU2
  51              		.loc 1 71 3 view .LVU3
  52              		.loc 1 74 3 view .LVU4
  53              		.loc 1 74 9 is_stmt 0 view .LVU5
  54 000e FFF7FEFF 		bl	chCoreGetStatusX
  55              	.LVL0:
  56              		.loc 1 80 3 is_stmt 1 view .LVU6
  57              		.loc 1 80 9 is_stmt 0 view .LVU7
ARM GAS  /tmp/ccZrRhiO.s 			page 2


  58 0012 02A9     		add	r1, sp, #8
  59 0014 0020     		movs	r0, #0
  60 0016 FFF7FEFF 		bl	chHeapStatus
  61              	.LVL1:
  62              		.loc 1 81 3 is_stmt 1 view .LVU8
  63              		.loc 1 81 8 is_stmt 0 view .LVU9
  64 001a 1021     		movs	r1, #16
  65 001c 0020     		movs	r0, #0
  66 001e FFF7FEFF 		bl	chHeapAlloc
  67              	.LVL2:
  68              		.loc 1 82 3 view .LVU10
  69 0022 011E     		subs	r1, r0, #0
  70              		.loc 1 81 8 view .LVU11
  71 0024 0546     		mov	r5, r0
  72              	.LVL3:
  73              		.loc 1 82 3 is_stmt 1 view .LVU12
  74 0026 18BF     		it	ne
  75 0028 0121     		movne	r1, #1
  76 002a 0120     		movs	r0, #1
  77              	.LVL4:
  78              		.loc 1 82 3 is_stmt 0 view .LVU13
  79 002c FFF7FEFF 		bl	_test_assert
  80              	.LVL5:
  81 0030 38B1     		cbz	r0, .L10
  82              	.LVL6:
  83              	.L1:
  84              		.loc 1 140 1 view .LVU14
  85 0032 8D4B     		ldr	r3, .L12
  86 0034 1A68     		ldr	r2, [r3]
  87 0036 039B     		ldr	r3, [sp, #12]
  88 0038 5A40     		eors	r2, r3, r2
  89 003a 40F01281 		bne	.L11
  90 003e 04B0     		add	sp, sp, #16
  91              		.cfi_remember_state
  92              		.cfi_def_cfa_offset 16
  93              		@ sp needed
  94 0040 70BD     		pop	{r4, r5, r6, pc}
  95              	.LVL7:
  96              	.L10:
  97              		.cfi_restore_state
  98              		.loc 1 82 50 is_stmt 1 discriminator 2 view .LVU15
  99              		.loc 1 83 3 discriminator 2 view .LVU16
 100 0042 0446     		mov	r4, r0
 101 0044 2846     		mov	r0, r5
 102 0046 FFF7FEFF 		bl	chHeapFree
 103              	.LVL8:
 104              		.loc 1 84 3 discriminator 2 view .LVU17
 105              		.loc 1 84 8 is_stmt 0 discriminator 2 view .LVU18
 106 004a 6FF0FF01 		mvn	r1, #255
 107 004e 2046     		mov	r0, r4
 108 0050 FFF7FEFF 		bl	chHeapAlloc
 109              	.LVL9:
 110              		.loc 1 85 3 is_stmt 1 discriminator 2 view .LVU19
 111 0054 B0FA80F1 		clz	r1, r0
 112 0058 4909     		lsrs	r1, r1, #5
 113 005a 0220     		movs	r0, #2
 114              	.LVL10:
ARM GAS  /tmp/ccZrRhiO.s 			page 3


 115              		.loc 1 85 3 is_stmt 0 discriminator 2 view .LVU20
 116 005c FFF7FEFF 		bl	_test_assert
 117              	.LVL11:
 118 0060 0028     		cmp	r0, #0
 119 0062 E6D1     		bne	.L1
 120              		.loc 1 85 54 is_stmt 1 discriminator 2 view .LVU21
 121              		.loc 1 88 3 discriminator 2 view .LVU22
 122              		.loc 1 88 9 is_stmt 0 discriminator 2 view .LVU23
 123 0064 02A9     		add	r1, sp, #8
 124 0066 8148     		ldr	r0, .L12+4
 125 0068 FFF7FEFF 		bl	chHeapStatus
 126              	.LVL12:
 127              		.loc 1 91 3 is_stmt 1 discriminator 2 view .LVU24
 128              		.loc 1 91 8 is_stmt 0 discriminator 2 view .LVU25
 129 006c 1021     		movs	r1, #16
 130 006e 7F48     		ldr	r0, .L12+4
 131 0070 FFF7FEFF 		bl	chHeapAlloc
 132              	.LVL13:
 133              		.loc 1 92 8 discriminator 2 view .LVU26
 134 0074 1021     		movs	r1, #16
 135              		.loc 1 91 8 discriminator 2 view .LVU27
 136 0076 0646     		mov	r6, r0
 137              		.loc 1 92 8 discriminator 2 view .LVU28
 138 0078 7C48     		ldr	r0, .L12+4
 139              	.LVL14:
 140              		.loc 1 92 3 is_stmt 1 discriminator 2 view .LVU29
 141              		.loc 1 92 8 is_stmt 0 discriminator 2 view .LVU30
 142 007a FFF7FEFF 		bl	chHeapAlloc
 143              	.LVL15:
 144              		.loc 1 93 8 discriminator 2 view .LVU31
 145 007e 1021     		movs	r1, #16
 146              		.loc 1 92 8 discriminator 2 view .LVU32
 147 0080 0546     		mov	r5, r0
 148              		.loc 1 93 8 discriminator 2 view .LVU33
 149 0082 7A48     		ldr	r0, .L12+4
 150              	.LVL16:
 151              		.loc 1 93 3 is_stmt 1 discriminator 2 view .LVU34
 152              		.loc 1 93 8 is_stmt 0 discriminator 2 view .LVU35
 153 0084 FFF7FEFF 		bl	chHeapAlloc
 154              	.LVL17:
 155 0088 0446     		mov	r4, r0
 156              		.loc 1 94 3 discriminator 2 view .LVU36
 157 008a 3046     		mov	r0, r6
 158              	.LVL18:
 159              		.loc 1 94 3 is_stmt 1 discriminator 2 view .LVU37
 160 008c FFF7FEFF 		bl	chHeapFree
 161              	.LVL19:
 162              		.loc 1 95 3 discriminator 2 view .LVU38
 163 0090 2846     		mov	r0, r5
 164 0092 FFF7FEFF 		bl	chHeapFree
 165              	.LVL20:
 166              		.loc 1 96 3 discriminator 2 view .LVU39
 167 0096 2046     		mov	r0, r4
 168 0098 FFF7FEFF 		bl	chHeapFree
 169              	.LVL21:
 170              		.loc 1 97 3 discriminator 2 view .LVU40
 171 009c 01A9     		add	r1, sp, #4
ARM GAS  /tmp/ccZrRhiO.s 			page 4


 172 009e 7348     		ldr	r0, .L12+4
 173 00a0 FFF7FEFF 		bl	chHeapStatus
 174              	.LVL22:
 175 00a4 A0F10101 		sub	r1, r0, #1
 176 00a8 B1FA81F1 		clz	r1, r1
 177 00ac 4909     		lsrs	r1, r1, #5
 178 00ae 0320     		movs	r0, #3
 179 00b0 FFF7FEFF 		bl	_test_assert
 180              	.LVL23:
 181 00b4 0028     		cmp	r0, #0
 182 00b6 BCD1     		bne	.L1
 183              		.loc 1 97 71 discriminator 2 view .LVU41
 184              		.loc 1 100 3 discriminator 2 view .LVU42
 185              		.loc 1 100 8 is_stmt 0 discriminator 2 view .LVU43
 186 00b8 1021     		movs	r1, #16
 187 00ba 6C48     		ldr	r0, .L12+4
 188 00bc FFF7FEFF 		bl	chHeapAlloc
 189              	.LVL24:
 190              		.loc 1 101 8 discriminator 2 view .LVU44
 191 00c0 1021     		movs	r1, #16
 192              		.loc 1 100 8 discriminator 2 view .LVU45
 193 00c2 0446     		mov	r4, r0
 194              	.LVL25:
 195              		.loc 1 101 8 discriminator 2 view .LVU46
 196 00c4 6948     		ldr	r0, .L12+4
 197              	.LVL26:
 198              		.loc 1 101 3 is_stmt 1 discriminator 2 view .LVU47
 199              		.loc 1 101 8 is_stmt 0 discriminator 2 view .LVU48
 200 00c6 FFF7FEFF 		bl	chHeapAlloc
 201              	.LVL27:
 202              		.loc 1 102 8 discriminator 2 view .LVU49
 203 00ca 1021     		movs	r1, #16
 204              		.loc 1 101 8 discriminator 2 view .LVU50
 205 00cc 0546     		mov	r5, r0
 206              	.LVL28:
 207              		.loc 1 102 8 discriminator 2 view .LVU51
 208 00ce 6748     		ldr	r0, .L12+4
 209              	.LVL29:
 210              		.loc 1 102 3 is_stmt 1 discriminator 2 view .LVU52
 211              		.loc 1 102 8 is_stmt 0 discriminator 2 view .LVU53
 212 00d0 FFF7FEFF 		bl	chHeapAlloc
 213              	.LVL30:
 214              		.loc 1 103 3 is_stmt 1 discriminator 2 view .LVU54
 215 00d4 FFF7FEFF 		bl	chHeapFree
 216              	.LVL31:
 217              		.loc 1 104 3 discriminator 2 view .LVU55
 218 00d8 2846     		mov	r0, r5
 219 00da FFF7FEFF 		bl	chHeapFree
 220              	.LVL32:
 221              		.loc 1 105 3 discriminator 2 view .LVU56
 222 00de 2046     		mov	r0, r4
 223 00e0 FFF7FEFF 		bl	chHeapFree
 224              	.LVL33:
 225              		.loc 1 106 3 discriminator 2 view .LVU57
 226 00e4 01A9     		add	r1, sp, #4
 227 00e6 6148     		ldr	r0, .L12+4
 228 00e8 FFF7FEFF 		bl	chHeapStatus
ARM GAS  /tmp/ccZrRhiO.s 			page 5


 229              	.LVL34:
 230 00ec A0F10101 		sub	r1, r0, #1
 231 00f0 B1FA81F1 		clz	r1, r1
 232 00f4 4909     		lsrs	r1, r1, #5
 233 00f6 0420     		movs	r0, #4
 234 00f8 FFF7FEFF 		bl	_test_assert
 235              	.LVL35:
 236 00fc 0028     		cmp	r0, #0
 237 00fe 98D1     		bne	.L1
 238              		.loc 1 106 71 discriminator 2 view .LVU58
 239              		.loc 1 109 3 discriminator 2 view .LVU59
 240              		.loc 1 109 8 is_stmt 0 discriminator 2 view .LVU60
 241 0100 1121     		movs	r1, #17
 242 0102 5A48     		ldr	r0, .L12+4
 243 0104 FFF7FEFF 		bl	chHeapAlloc
 244              	.LVL36:
 245              		.loc 1 110 8 discriminator 2 view .LVU61
 246 0108 1021     		movs	r1, #16
 247              		.loc 1 109 8 discriminator 2 view .LVU62
 248 010a 0446     		mov	r4, r0
 249              	.LVL37:
 250              		.loc 1 110 3 is_stmt 1 discriminator 2 view .LVU63
 251              		.loc 1 110 8 is_stmt 0 discriminator 2 view .LVU64
 252 010c 5748     		ldr	r0, .L12+4
 253              	.LVL38:
 254              		.loc 1 110 8 discriminator 2 view .LVU65
 255 010e FFF7FEFF 		bl	chHeapAlloc
 256              	.LVL39:
 257 0112 0346     		mov	r3, r0
 258              		.loc 1 111 3 discriminator 2 view .LVU66
 259 0114 2046     		mov	r0, r4
 260              		.loc 1 110 8 discriminator 2 view .LVU67
 261 0116 1C46     		mov	r4, r3
 262              	.LVL40:
 263              		.loc 1 111 3 is_stmt 1 discriminator 2 view .LVU68
 264 0118 FFF7FEFF 		bl	chHeapFree
 265              	.LVL41:
 266              		.loc 1 112 3 discriminator 2 view .LVU69
 267 011c 01A9     		add	r1, sp, #4
 268 011e 5348     		ldr	r0, .L12+4
 269 0120 FFF7FEFF 		bl	chHeapStatus
 270              	.LVL42:
 271 0124 A0F10201 		sub	r1, r0, #2
 272 0128 B1FA81F1 		clz	r1, r1
 273 012c 4909     		lsrs	r1, r1, #5
 274 012e 0520     		movs	r0, #5
 275 0130 FFF7FEFF 		bl	_test_assert
 276              	.LVL43:
 277 0134 0028     		cmp	r0, #0
 278 0136 7FF47CAF 		bne	.L1
 279              		.loc 1 112 69 discriminator 2 view .LVU70
 280              		.loc 1 113 3 discriminator 2 view .LVU71
 281              		.loc 1 113 8 is_stmt 0 discriminator 2 view .LVU72
 282 013a 1021     		movs	r1, #16
 283 013c 4B48     		ldr	r0, .L12+4
 284 013e FFF7FEFF 		bl	chHeapAlloc
 285              	.LVL44:
ARM GAS  /tmp/ccZrRhiO.s 			page 6


 286              		.loc 1 116 3 discriminator 2 view .LVU73
 287 0142 01A9     		add	r1, sp, #4
 288              		.loc 1 113 8 discriminator 2 view .LVU74
 289 0144 0546     		mov	r5, r0
 290              		.loc 1 116 3 discriminator 2 view .LVU75
 291 0146 4948     		ldr	r0, .L12+4
 292              	.LVL45:
 293              		.loc 1 116 3 is_stmt 1 discriminator 2 view .LVU76
 294 0148 FFF7FEFF 		bl	chHeapStatus
 295              	.LVL46:
 296 014c 0128     		cmp	r0, #1
 297 014e 0146     		mov	r1, r0
 298 0150 08D0     		beq	.L5
 299 0152 01A9     		add	r1, sp, #4
 300 0154 4548     		ldr	r0, .L12+4
 301 0156 FFF7FEFF 		bl	chHeapStatus
 302              	.LVL47:
 303 015a A0F10201 		sub	r1, r0, #2
 304 015e B1FA81F1 		clz	r1, r1
 305 0162 4909     		lsrs	r1, r1, #5
 306              	.L5:
 307              		.loc 1 116 3 is_stmt 0 discriminator 6 view .LVU77
 308 0164 0620     		movs	r0, #6
 309 0166 FFF7FEFF 		bl	_test_assert
 310              	.LVL48:
 311 016a 0028     		cmp	r0, #0
 312 016c 7FF461AF 		bne	.L1
 313              		.loc 1 117 73 is_stmt 1 view .LVU78
 314              		.loc 1 118 3 view .LVU79
 315 0170 2046     		mov	r0, r4
 316 0172 FFF7FEFF 		bl	chHeapFree
 317              	.LVL49:
 318              		.loc 1 119 3 view .LVU80
 319 0176 2846     		mov	r0, r5
 320 0178 FFF7FEFF 		bl	chHeapFree
 321              	.LVL50:
 322              		.loc 1 120 3 view .LVU81
 323 017c 01A9     		add	r1, sp, #4
 324 017e 3B48     		ldr	r0, .L12+4
 325 0180 FFF7FEFF 		bl	chHeapStatus
 326              	.LVL51:
 327 0184 A0F10101 		sub	r1, r0, #1
 328 0188 B1FA81F1 		clz	r1, r1
 329 018c 4909     		lsrs	r1, r1, #5
 330 018e 0720     		movs	r0, #7
 331 0190 FFF7FEFF 		bl	_test_assert
 332              	.LVL52:
 333 0194 0028     		cmp	r0, #0
 334 0196 7FF44CAF 		bne	.L1
 335              		.loc 1 120 71 discriminator 2 view .LVU82
 336              		.loc 1 123 3 discriminator 2 view .LVU83
 337              		.loc 1 123 8 is_stmt 0 discriminator 2 view .LVU84
 338 019a 1021     		movs	r1, #16
 339 019c 3348     		ldr	r0, .L12+4
 340 019e FFF7FEFF 		bl	chHeapAlloc
 341              	.LVL53:
 342              		.loc 1 124 8 discriminator 2 view .LVU85
ARM GAS  /tmp/ccZrRhiO.s 			page 7


 343 01a2 1021     		movs	r1, #16
 344              		.loc 1 123 8 discriminator 2 view .LVU86
 345 01a4 0446     		mov	r4, r0
 346              	.LVL54:
 347              		.loc 1 124 3 is_stmt 1 discriminator 2 view .LVU87
 348              		.loc 1 124 8 is_stmt 0 discriminator 2 view .LVU88
 349 01a6 3148     		ldr	r0, .L12+4
 350              	.LVL55:
 351              		.loc 1 124 8 discriminator 2 view .LVU89
 352 01a8 FFF7FEFF 		bl	chHeapAlloc
 353              	.LVL56:
 354 01ac 0346     		mov	r3, r0
 355              		.loc 1 125 3 discriminator 2 view .LVU90
 356 01ae 2046     		mov	r0, r4
 357              		.loc 1 124 8 discriminator 2 view .LVU91
 358 01b0 1C46     		mov	r4, r3
 359              	.LVL57:
 360              		.loc 1 125 3 is_stmt 1 discriminator 2 view .LVU92
 361 01b2 FFF7FEFF 		bl	chHeapFree
 362              	.LVL58:
 363              		.loc 1 126 3 discriminator 2 view .LVU93
 364 01b6 01A9     		add	r1, sp, #4
 365 01b8 2C48     		ldr	r0, .L12+4
 366 01ba FFF7FEFF 		bl	chHeapStatus
 367              	.LVL59:
 368 01be A0F10201 		sub	r1, r0, #2
 369 01c2 B1FA81F1 		clz	r1, r1
 370 01c6 4909     		lsrs	r1, r1, #5
 371 01c8 0820     		movs	r0, #8
 372 01ca FFF7FEFF 		bl	_test_assert
 373              	.LVL60:
 374 01ce 0028     		cmp	r0, #0
 375 01d0 7FF42FAF 		bne	.L1
 376              		.loc 1 126 69 discriminator 2 view .LVU94
 377              		.loc 1 127 3 discriminator 2 view .LVU95
 378              		.loc 1 127 8 is_stmt 0 discriminator 2 view .LVU96
 379 01d4 2021     		movs	r1, #32
 380 01d6 2548     		ldr	r0, .L12+4
 381 01d8 FFF7FEFF 		bl	chHeapAlloc
 382              	.LVL61:
 383              		.loc 1 128 3 is_stmt 1 discriminator 2 view .LVU97
 384 01dc FFF7FEFF 		bl	chHeapFree
 385              	.LVL62:
 386              		.loc 1 129 3 discriminator 2 view .LVU98
 387 01e0 2046     		mov	r0, r4
 388 01e2 FFF7FEFF 		bl	chHeapFree
 389              	.LVL63:
 390              		.loc 1 130 3 discriminator 2 view .LVU99
 391 01e6 01A9     		add	r1, sp, #4
 392 01e8 2048     		ldr	r0, .L12+4
 393 01ea FFF7FEFF 		bl	chHeapStatus
 394              	.LVL64:
 395 01ee A0F10101 		sub	r1, r0, #1
 396 01f2 B1FA81F1 		clz	r1, r1
 397 01f6 4909     		lsrs	r1, r1, #5
 398 01f8 0920     		movs	r0, #9
 399 01fa FFF7FEFF 		bl	_test_assert
ARM GAS  /tmp/ccZrRhiO.s 			page 8


 400              	.LVL65:
 401 01fe 0028     		cmp	r0, #0
 402 0200 7FF417AF 		bne	.L1
 403              		.loc 1 130 71 discriminator 2 view .LVU100
 404              		.loc 1 133 3 discriminator 2 view .LVU101
 405              		.loc 1 133 9 is_stmt 0 discriminator 2 view .LVU102
 406 0204 01A9     		add	r1, sp, #4
 407 0206 1948     		ldr	r0, .L12+4
 408 0208 FFF7FEFF 		bl	chHeapStatus
 409              	.LVL66:
 410              		.loc 1 134 3 is_stmt 1 discriminator 2 view .LVU103
 411              		.loc 1 134 8 is_stmt 0 discriminator 2 view .LVU104
 412 020c 0199     		ldr	r1, [sp, #4]
 413 020e 1748     		ldr	r0, .L12+4
 414 0210 FFF7FEFF 		bl	chHeapAlloc
 415              	.LVL67:
 416              		.loc 1 135 3 discriminator 2 view .LVU105
 417 0214 01A9     		add	r1, sp, #4
 418              		.loc 1 134 8 discriminator 2 view .LVU106
 419 0216 0446     		mov	r4, r0
 420              	.LVL68:
 421              		.loc 1 135 3 discriminator 2 view .LVU107
 422 0218 1448     		ldr	r0, .L12+4
 423              	.LVL69:
 424              		.loc 1 135 3 is_stmt 1 discriminator 2 view .LVU108
 425 021a FFF7FEFF 		bl	chHeapStatus
 426              	.LVL70:
 427 021e B0FA80F1 		clz	r1, r0
 428 0222 4909     		lsrs	r1, r1, #5
 429 0224 0A20     		movs	r0, #10
 430 0226 FFF7FEFF 		bl	_test_assert
 431              	.LVL71:
 432 022a 0028     		cmp	r0, #0
 433 022c 7FF401AF 		bne	.L1
 434              		.loc 1 135 66 discriminator 2 view .LVU109
 435              		.loc 1 136 3 discriminator 2 view .LVU110
 436 0230 2046     		mov	r0, r4
 437 0232 FFF7FEFF 		bl	chHeapFree
 438              	.LVL72:
 439              		.loc 1 138 3 discriminator 2 view .LVU111
 440 0236 01A9     		add	r1, sp, #4
 441 0238 0C48     		ldr	r0, .L12+4
 442 023a FFF7FEFF 		bl	chHeapStatus
 443              	.LVL73:
 444 023e 421E     		subs	r2, r0, #1
 445 0240 5142     		rsbs	r1, r2, #0
 446 0242 5141     		adcs	r1, r1, r2
 447 0244 0B20     		movs	r0, #11
 448 0246 FFF7FEFF 		bl	_test_assert
 449              	.LVL74:
 450 024a 0028     		cmp	r0, #0
 451 024c 7FF4F1AE 		bne	.L1
 452              		.loc 1 138 72 discriminator 2 view .LVU112
 453              		.loc 1 139 3 discriminator 2 view .LVU113
 454 0250 DDE90113 		ldrd	r1, r3, [sp, #4]
 455 0254 CB1A     		subs	r3, r1, r3
 456 0256 5942     		rsbs	r1, r3, #0
ARM GAS  /tmp/ccZrRhiO.s 			page 9


 457 0258 5941     		adcs	r1, r1, r3
 458 025a 0C20     		movs	r0, #12
 459 025c FFF7FEFF 		bl	_test_assert
 460              	.LVL75:
 461              		.loc 1 139 3 discriminator 2 view .LVU114
 462 0260 E7E6     		b	.L1
 463              	.LVL76:
 464              	.L11:
 465              		.loc 1 140 1 is_stmt 0 view .LVU115
 466 0262 FFF7FEFF 		bl	__stack_chk_fail
 467              	.LVL77:
 468              	.L13:
 469 0266 00BF     		.align	2
 470              	.L12:
 471 0268 00000000 		.word	.LC0
 472 026c 00000000 		.word	.LANCHOR0
 473              		.cfi_endproc
 474              	.LFE220:
 475              		.size	heap1_execute, .-heap1_execute
 476              		.section	.rodata.heap1_setup.cst4,"aM",%progbits,4
 477              		.align	2
 478              	.LC1:
 479 0000 00000000 		.word	__stack_chk_guard
 480              		.section	.text.heap1_setup,"ax",%progbits
 481              		.align	1
 482              		.p2align 4,,15
 483              		.syntax unified
 484              		.thumb
 485              		.thumb_func
 486              		.fpu fpv4-sp-d16
 487              		.type	heap1_setup, %function
 488              	heap1_setup:
 489              	.LFB219:
 490              		.loc 1 64 31 is_stmt 1 view -0
 491              		.cfi_startproc
 492              		@ args = 0, pretend = 0, frame = 8
 493              		@ frame_needed = 0, uses_anonymous_args = 0
 494 0000 00B5     		push	{lr}
 495              		.cfi_def_cfa_offset 4
 496              		.cfi_offset 14, -4
 497 0002 0B4B     		ldr	r3, .L19
 498 0004 83B0     		sub	sp, sp, #12
 499              		.cfi_def_cfa_offset 16
 500              		.loc 1 64 31 is_stmt 0 view .LVU117
 501 0006 1B68     		ldr	r3, [r3]
 502 0008 0193     		str	r3, [sp, #4]
 503 000a 4FF00003 		mov	r3,#0
 504              		.loc 1 66 3 is_stmt 1 view .LVU118
 505 000e 084B     		ldr	r3, .L19
 506 0010 1A68     		ldr	r2, [r3]
 507 0012 019B     		ldr	r3, [sp, #4]
 508 0014 5A40     		eors	r2, r3, r2
 509 0016 08D1     		bne	.L18
 510 0018 0649     		ldr	r1, .L19+4
 511 001a 0748     		ldr	r0, .L19+8
 512 001c 40F6D812 		movw	r2, #2520
 513              		.loc 1 67 1 is_stmt 0 view .LVU119
ARM GAS  /tmp/ccZrRhiO.s 			page 10


 514 0020 03B0     		add	sp, sp, #12
 515              		.cfi_remember_state
 516              		.cfi_def_cfa_offset 4
 517              		@ sp needed
 518 0022 5DF804EB 		ldr	lr, [sp], #4
 519              		.cfi_restore 14
 520              		.cfi_def_cfa_offset 0
 521              		.loc 1 66 3 view .LVU120
 522 0026 FFF7FEBF 		b	chHeapObjectInit
 523              	.LVL78:
 524              	.L18:
 525              		.cfi_restore_state
 526 002a FFF7FEFF 		bl	__stack_chk_fail
 527              	.LVL79:
 528              	.L20:
 529 002e 00BF     		.align	2
 530              	.L19:
 531 0030 00000000 		.word	.LC1
 532 0034 00000000 		.word	test
 533 0038 00000000 		.word	.LANCHOR0
 534              		.cfi_endproc
 535              	.LFE219:
 536              		.size	heap1_setup, .-heap1_setup
 537              		.global	patternheap
 538              		.global	testheap1
 539              		.section	.rodata.str1.4,"aMS",%progbits,1
 540              		.align	2
 541              	.LC2:
 542 0000 48656170 		.ascii	"Heap, allocation and fragmentation test\000"
 542      2C20616C 
 542      6C6F6361 
 542      74696F6E 
 542      20616E64 
 543              		.section	.bss.test_heap,"aw",%nobits
 544              		.align	3
 545              		.set	.LANCHOR0,. + 0
 546              		.type	test_heap, %object
 547              		.size	test_heap, 40
 548              	test_heap:
 549 0000 00000000 		.space	40
 549      00000000 
 549      00000000 
 549      00000000 
 549      00000000 
 550              		.section	.rodata.patternheap,"a"
 551              		.align	2
 552              		.type	patternheap, %object
 553              		.size	patternheap, 8
 554              	patternheap:
 555 0000 00000000 		.word	testheap1
 556 0004 00000000 		.word	0
 557              		.section	.rodata.testheap1,"a"
 558              		.align	2
 559              		.type	testheap1, %object
 560              		.size	testheap1, 16
 561              	testheap1:
 562 0000 00000000 		.word	.LC2
ARM GAS  /tmp/ccZrRhiO.s 			page 11


 563 0004 00000000 		.word	heap1_setup
 564 0008 00000000 		.word	0
 565 000c 00000000 		.word	heap1_execute
 566              		.text
 567              	.Letext0:
 568              		.file 2 "/usr/lib/gcc/arm-none-eabi/9.2.1/include/stddef.h"
 569              		.file 3 "/usr/lib/gcc/arm-none-eabi/9.2.1/include/stdint.h"
 570              		.file 4 ".//ChibiOS//os/rt/ports/ARMCMx/compilers/GCC/chtypes.h"
 571              		.file 5 ".//ChibiOS//os/rt/include/chsystypes.h"
 572              		.file 6 ".//ChibiOS//os/rt/include/chschd.h"
 573              		.file 7 ".//ChibiOS//os/ext/CMSIS/include/core_cm4.h"
 574              		.file 8 ".//ChibiOS//os/ext/CMSIS/ST/system_stm32f4xx.h"
 575              		.file 9 ".//ChibiOS//os/rt/ports/ARMCMx/chcore.h"
 576              		.file 10 ".//ChibiOS//os/rt/ports/ARMCMx/chcore_v7m.h"
 577              		.file 11 ".//ChibiOS//os/rt/include/chdebug.h"
 578              		.file 12 ".//ChibiOS//os/rt/include/chtm.h"
 579              		.file 13 ".//ChibiOS//os/rt/include/chstats.h"
 580              		.file 14 ".//ChibiOS//os/rt/include/chsem.h"
 581              		.file 15 ".//ChibiOS//os/rt/include/chmtx.h"
 582              		.file 16 ".//ChibiOS//os/rt/include/chregistry.h"
 583              		.file 17 ".//ChibiOS//os/rt/include/chmemcore.h"
 584              		.file 18 ".//ChibiOS//os/rt/include/chheap.h"
 585              		.file 19 ".//ChibiOS//test/rt/test.h"
 586              		.section	.debug_info,"",%progbits
 587              	.Ldebug_info0:
 588 0000 E5120000 		.4byte	0x12e5
 589 0004 0400     		.2byte	0x4
 590 0006 00000000 		.4byte	.Ldebug_abbrev0
 591 000a 04       		.byte	0x4
 592 000b 01       		.uleb128 0x1
 593 000c C3040000 		.4byte	.LASF186
 594 0010 0C       		.byte	0xc
 595 0011 43020000 		.4byte	.LASF187
 596 0015 0B030000 		.4byte	.LASF188
 597 0019 00000000 		.4byte	.Ldebug_ranges0+0
 598 001d 00000000 		.4byte	0
 599 0021 00000000 		.4byte	.Ldebug_line0
 600 0025 02       		.uleb128 0x2
 601 0026 04       		.byte	0x4
 602 0027 05       		.byte	0x5
 603 0028 696E7400 		.ascii	"int\000"
 604 002c 03       		.uleb128 0x3
 605 002d 24000000 		.4byte	.LASF5
 606 0031 02       		.byte	0x2
 607 0032 D1       		.byte	0xd1
 608 0033 17       		.byte	0x17
 609 0034 38000000 		.4byte	0x38
 610 0038 04       		.uleb128 0x4
 611 0039 04       		.byte	0x4
 612 003a 07       		.byte	0x7
 613 003b 9F020000 		.4byte	.LASF0
 614 003f 04       		.uleb128 0x4
 615 0040 08       		.byte	0x8
 616 0041 05       		.byte	0x5
 617 0042 52010000 		.4byte	.LASF1
 618 0046 04       		.uleb128 0x4
 619 0047 08       		.byte	0x8
ARM GAS  /tmp/ccZrRhiO.s 			page 12


 620 0048 04       		.byte	0x4
 621 0049 5E040000 		.4byte	.LASF2
 622 004d 04       		.uleb128 0x4
 623 004e 01       		.byte	0x1
 624 004f 06       		.byte	0x6
 625 0050 60010000 		.4byte	.LASF3
 626 0054 04       		.uleb128 0x4
 627 0055 02       		.byte	0x2
 628 0056 05       		.byte	0x5
 629 0057 BD060000 		.4byte	.LASF4
 630 005b 03       		.uleb128 0x3
 631 005c 91060000 		.4byte	.LASF6
 632 0060 03       		.byte	0x3
 633 0061 28       		.byte	0x28
 634 0062 18       		.byte	0x18
 635 0063 6C000000 		.4byte	0x6c
 636 0067 05       		.uleb128 0x5
 637 0068 5B000000 		.4byte	0x5b
 638 006c 04       		.uleb128 0x4
 639 006d 04       		.byte	0x4
 640 006e 05       		.byte	0x5
 641 006f CB010000 		.4byte	.LASF7
 642 0073 03       		.uleb128 0x3
 643 0074 9D080000 		.4byte	.LASF8
 644 0078 03       		.byte	0x3
 645 0079 2E       		.byte	0x2e
 646 007a 18       		.byte	0x18
 647 007b 7F000000 		.4byte	0x7f
 648 007f 04       		.uleb128 0x4
 649 0080 01       		.byte	0x1
 650 0081 08       		.byte	0x8
 651 0082 99060000 		.4byte	.LASF9
 652 0086 03       		.uleb128 0x3
 653 0087 B4020000 		.4byte	.LASF10
 654 008b 03       		.byte	0x3
 655 008c 31       		.byte	0x31
 656 008d 19       		.byte	0x19
 657 008e 92000000 		.4byte	0x92
 658 0092 04       		.uleb128 0x4
 659 0093 02       		.byte	0x2
 660 0094 07       		.byte	0x7
 661 0095 63030000 		.4byte	.LASF11
 662 0099 03       		.uleb128 0x3
 663 009a 78070000 		.4byte	.LASF12
 664 009e 03       		.byte	0x3
 665 009f 34       		.byte	0x34
 666 00a0 19       		.byte	0x19
 667 00a1 A5000000 		.4byte	0xa5
 668 00a5 04       		.uleb128 0x4
 669 00a6 04       		.byte	0x4
 670 00a7 07       		.byte	0x7
 671 00a8 B2070000 		.4byte	.LASF13
 672 00ac 03       		.uleb128 0x3
 673 00ad 37000000 		.4byte	.LASF14
 674 00b1 03       		.byte	0x3
 675 00b2 37       		.byte	0x37
 676 00b3 19       		.byte	0x19
ARM GAS  /tmp/ccZrRhiO.s 			page 13


 677 00b4 B8000000 		.4byte	0xb8
 678 00b8 04       		.uleb128 0x4
 679 00b9 08       		.byte	0x8
 680 00ba 07       		.byte	0x7
 681 00bb 92000000 		.4byte	.LASF15
 682 00bf 03       		.uleb128 0x3
 683 00c0 3F040000 		.4byte	.LASF16
 684 00c4 04       		.byte	0x4
 685 00c5 45       		.byte	0x45
 686 00c6 1D       		.byte	0x1d
 687 00c7 99000000 		.4byte	0x99
 688 00cb 03       		.uleb128 0x3
 689 00cc 18010000 		.4byte	.LASF17
 690 00d0 04       		.byte	0x4
 691 00d1 46       		.byte	0x46
 692 00d2 1D       		.byte	0x1d
 693 00d3 AC000000 		.4byte	0xac
 694 00d7 03       		.uleb128 0x3
 695 00d8 FF060000 		.4byte	.LASF18
 696 00dc 04       		.byte	0x4
 697 00dd 48       		.byte	0x48
 698 00de 1D       		.byte	0x1d
 699 00df 73000000 		.4byte	0x73
 700 00e3 03       		.uleb128 0x3
 701 00e4 D4010000 		.4byte	.LASF19
 702 00e8 04       		.byte	0x4
 703 00e9 49       		.byte	0x49
 704 00ea 1D       		.byte	0x1d
 705 00eb 73000000 		.4byte	0x73
 706 00ef 03       		.uleb128 0x3
 707 00f0 32060000 		.4byte	.LASF20
 708 00f4 04       		.byte	0x4
 709 00f5 4A       		.byte	0x4a
 710 00f6 1D       		.byte	0x1d
 711 00f7 73000000 		.4byte	0x73
 712 00fb 03       		.uleb128 0x3
 713 00fc B1010000 		.4byte	.LASF21
 714 0100 04       		.byte	0x4
 715 0101 4B       		.byte	0x4b
 716 0102 1D       		.byte	0x1d
 717 0103 73000000 		.4byte	0x73
 718 0107 03       		.uleb128 0x3
 719 0108 6E060000 		.4byte	.LASF22
 720 010c 04       		.byte	0x4
 721 010d 4C       		.byte	0x4c
 722 010e 1D       		.byte	0x1d
 723 010f 99000000 		.4byte	0x99
 724 0113 03       		.uleb128 0x3
 725 0114 9A030000 		.4byte	.LASF23
 726 0118 04       		.byte	0x4
 727 0119 4D       		.byte	0x4d
 728 011a 1D       		.byte	0x1d
 729 011b 5B000000 		.4byte	0x5b
 730 011f 03       		.uleb128 0x3
 731 0120 E8030000 		.4byte	.LASF24
 732 0124 04       		.byte	0x4
 733 0125 4F       		.byte	0x4f
ARM GAS  /tmp/ccZrRhiO.s 			page 14


 734 0126 1D       		.byte	0x1d
 735 0127 99000000 		.4byte	0x99
 736 012b 03       		.uleb128 0x3
 737 012c 8E020000 		.4byte	.LASF25
 738 0130 04       		.byte	0x4
 739 0131 51       		.byte	0x51
 740 0132 1D       		.byte	0x1d
 741 0133 5B000000 		.4byte	0x5b
 742 0137 03       		.uleb128 0x3
 743 0138 A5030000 		.4byte	.LASF26
 744 013c 04       		.byte	0x4
 745 013d 52       		.byte	0x52
 746 013e 1D       		.byte	0x1d
 747 013f 99000000 		.4byte	0x99
 748 0143 03       		.uleb128 0x3
 749 0144 F3070000 		.4byte	.LASF27
 750 0148 05       		.byte	0x5
 751 0149 33       		.byte	0x33
 752 014a 12       		.byte	0x12
 753 014b 99000000 		.4byte	0x99
 754 014f 05       		.uleb128 0x5
 755 0150 43010000 		.4byte	0x143
 756 0154 03       		.uleb128 0x3
 757 0155 D6070000 		.4byte	.LASF28
 758 0159 05       		.byte	0x5
 759 015a 3F       		.byte	0x3f
 760 015b 1A       		.byte	0x1a
 761 015c 60010000 		.4byte	0x160
 762 0160 06       		.uleb128 0x6
 763 0161 85030000 		.4byte	.LASF52
 764 0165 68       		.byte	0x68
 765 0166 06       		.byte	0x6
 766 0167 C2       		.byte	0xc2
 767 0168 08       		.byte	0x8
 768 0169 95020000 		.4byte	0x295
 769 016d 07       		.uleb128 0x7
 770 016e F8060000 		.4byte	.LASF29
 771 0172 06       		.byte	0x6
 772 0173 C3       		.byte	0xc3
 773 0174 1A       		.byte	0x1a
 774 0175 A1020000 		.4byte	0x2a1
 775 0179 00       		.byte	0
 776 017a 07       		.uleb128 0x7
 777 017b 5F060000 		.4byte	.LASF30
 778 017f 06       		.byte	0x6
 779 0180 C5       		.byte	0xc5
 780 0181 1A       		.byte	0x1a
 781 0182 A1020000 		.4byte	0x2a1
 782 0186 04       		.byte	0x4
 783 0187 07       		.uleb128 0x7
 784 0188 21010000 		.4byte	.LASF31
 785 018c 06       		.byte	0x6
 786 018d C7       		.byte	0xc7
 787 018e 19       		.byte	0x19
 788 018f 07010000 		.4byte	0x107
 789 0193 08       		.byte	0x8
 790 0194 07       		.uleb128 0x7
ARM GAS  /tmp/ccZrRhiO.s 			page 15


 791 0195 A6040000 		.4byte	.LASF32
 792 0199 06       		.byte	0x6
 793 019a C8       		.byte	0xc8
 794 019b 19       		.byte	0x19
 795 019c 4F050000 		.4byte	0x54f
 796 01a0 0C       		.byte	0xc
 797 01a1 07       		.uleb128 0x7
 798 01a2 02020000 		.4byte	.LASF33
 799 01a6 06       		.byte	0x6
 800 01a7 CA       		.byte	0xca
 801 01a8 1A       		.byte	0x1a
 802 01a9 A1020000 		.4byte	0x2a1
 803 01ad 10       		.byte	0x10
 804 01ae 07       		.uleb128 0x7
 805 01af 98040000 		.4byte	.LASF34
 806 01b3 06       		.byte	0x6
 807 01b4 CB       		.byte	0xcb
 808 01b5 1A       		.byte	0x1a
 809 01b6 A1020000 		.4byte	0x2a1
 810 01ba 14       		.byte	0x14
 811 01bb 07       		.uleb128 0x7
 812 01bc D4080000 		.4byte	.LASF35
 813 01c0 06       		.byte	0x6
 814 01c1 D2       		.byte	0xd2
 815 01c2 1A       		.byte	0x1a
 816 01c3 0C090000 		.4byte	0x90c
 817 01c7 18       		.byte	0x18
 818 01c8 07       		.uleb128 0x7
 819 01c9 94020000 		.4byte	.LASF36
 820 01cd 06       		.byte	0x6
 821 01ce D8       		.byte	0xd8
 822 01cf 1A       		.byte	0x1a
 823 01d0 23090000 		.4byte	0x923
 824 01d4 1C       		.byte	0x1c
 825 01d5 07       		.uleb128 0x7
 826 01d6 C7060000 		.4byte	.LASF37
 827 01da 06       		.byte	0x6
 828 01db DD       		.byte	0xdd
 829 01dc 19       		.byte	0x19
 830 01dd E3000000 		.4byte	0xe3
 831 01e1 20       		.byte	0x20
 832 01e2 07       		.uleb128 0x7
 833 01e3 16070000 		.4byte	.LASF38
 834 01e7 06       		.byte	0x6
 835 01e8 E1       		.byte	0xe1
 836 01e9 19       		.byte	0x19
 837 01ea D7000000 		.4byte	0xd7
 838 01ee 21       		.byte	0x21
 839 01ef 07       		.uleb128 0x7
 840 01f0 7F080000 		.4byte	.LASF39
 841 01f4 06       		.byte	0x6
 842 01f5 E6       		.byte	0xe6
 843 01f6 19       		.byte	0x19
 844 01f7 EF000000 		.4byte	0xef
 845 01fb 22       		.byte	0x22
 846 01fc 07       		.uleb128 0x7
 847 01fd CF060000 		.4byte	.LASF40
ARM GAS  /tmp/ccZrRhiO.s 			page 16


 848 0201 06       		.byte	0x6
 849 0202 EC       		.byte	0xec
 850 0203 19       		.byte	0x19
 851 0204 FB000000 		.4byte	0xfb
 852 0208 23       		.byte	0x23
 853 0209 07       		.uleb128 0x7
 854 020a CD020000 		.4byte	.LASF41
 855 020e 06       		.byte	0x6
 856 020f F3       		.byte	0xf3
 857 0210 19       		.byte	0x19
 858 0211 4F010000 		.4byte	0x14f
 859 0215 24       		.byte	0x24
 860 0216 08       		.uleb128 0x8
 861 0217 705F7500 		.ascii	"p_u\000"
 862 021b 06       		.byte	0x6
 863 021c 3101     		.2byte	0x131
 864 021e 19       		.byte	0x19
 865 021f 2B080000 		.4byte	0x82b
 866 0223 28       		.byte	0x28
 867 0224 09       		.uleb128 0x9
 868 0225 35040000 		.4byte	.LASF42
 869 0229 06       		.byte	0x6
 870 022a 3601     		.2byte	0x136
 871 022c 19       		.byte	0x19
 872 022d A7020000 		.4byte	0x2a7
 873 0231 2C       		.byte	0x2c
 874 0232 09       		.uleb128 0x9
 875 0233 F1020000 		.4byte	.LASF43
 876 0237 06       		.byte	0x6
 877 0238 3C01     		.2byte	0x13c
 878 023a 19       		.byte	0x19
 879 023b CE020000 		.4byte	0x2ce
 880 023f 30       		.byte	0x30
 881 0240 09       		.uleb128 0x9
 882 0241 D0070000 		.4byte	.LASF44
 883 0245 06       		.byte	0x6
 884 0246 4001     		.2byte	0x140
 885 0248 19       		.byte	0x19
 886 0249 13010000 		.4byte	0x113
 887 024d 38       		.byte	0x38
 888 024e 09       		.uleb128 0x9
 889 024f 6D070000 		.4byte	.LASF45
 890 0253 06       		.byte	0x6
 891 0254 4601     		.2byte	0x146
 892 0256 19       		.byte	0x19
 893 0257 1F010000 		.4byte	0x11f
 894 025b 3C       		.byte	0x3c
 895 025c 09       		.uleb128 0x9
 896 025d B3060000 		.4byte	.LASF46
 897 0261 06       		.byte	0x6
 898 0262 4D01     		.2byte	0x14d
 899 0264 1A       		.byte	0x1a
 900 0265 06090000 		.4byte	0x906
 901 0269 40       		.byte	0x40
 902 026a 09       		.uleb128 0x9
 903 026b FD070000 		.4byte	.LASF47
 904 026f 06       		.byte	0x6
ARM GAS  /tmp/ccZrRhiO.s 			page 17


 905 0270 5101     		.2byte	0x151
 906 0272 19       		.byte	0x19
 907 0273 07010000 		.4byte	0x107
 908 0277 44       		.byte	0x44
 909 0278 09       		.uleb128 0x9
 910 0279 8F010000 		.4byte	.LASF48
 911 027d 06       		.byte	0x6
 912 027e 5801     		.2byte	0x158
 913 0280 1A       		.byte	0x1a
 914 0281 8E030000 		.4byte	0x38e
 915 0285 48       		.byte	0x48
 916 0286 09       		.uleb128 0x9
 917 0287 1E070000 		.4byte	.LASF49
 918 028b 06       		.byte	0x6
 919 028c 5E01     		.2byte	0x15e
 920 028e 19       		.byte	0x19
 921 028f D5070000 		.4byte	0x7d5
 922 0293 50       		.byte	0x50
 923 0294 00       		.byte	0
 924 0295 03       		.uleb128 0x3
 925 0296 BA080000 		.4byte	.LASF50
 926 029a 05       		.byte	0x5
 927 029b 44       		.byte	0x44
 928 029c 14       		.byte	0x14
 929 029d A1020000 		.4byte	0x2a1
 930 02a1 0A       		.uleb128 0xa
 931 02a2 04       		.byte	0x4
 932 02a3 54010000 		.4byte	0x154
 933 02a7 03       		.uleb128 0x3
 934 02a8 00000000 		.4byte	.LASF51
 935 02ac 05       		.byte	0x5
 936 02ad 49       		.byte	0x49
 937 02ae 20       		.byte	0x20
 938 02af B3020000 		.4byte	0x2b3
 939 02b3 06       		.uleb128 0x6
 940 02b4 95070000 		.4byte	.LASF53
 941 02b8 04       		.byte	0x4
 942 02b9 06       		.byte	0x6
 943 02ba B0       		.byte	0xb0
 944 02bb 08       		.byte	0x8
 945 02bc CE020000 		.4byte	0x2ce
 946 02c0 07       		.uleb128 0x7
 947 02c1 F8060000 		.4byte	.LASF29
 948 02c5 06       		.byte	0x6
 949 02c6 B1       		.byte	0xb1
 950 02c7 1A       		.byte	0x1a
 951 02c8 A1020000 		.4byte	0x2a1
 952 02cc 00       		.byte	0
 953 02cd 00       		.byte	0
 954 02ce 03       		.uleb128 0x3
 955 02cf 26070000 		.4byte	.LASF54
 956 02d3 05       		.byte	0x5
 957 02d4 50       		.byte	0x50
 958 02d5 21       		.byte	0x21
 959 02d6 DA020000 		.4byte	0x2da
 960 02da 06       		.uleb128 0x6
 961 02db 59000000 		.4byte	.LASF55
ARM GAS  /tmp/ccZrRhiO.s 			page 18


 962 02df 08       		.byte	0x8
 963 02e0 06       		.byte	0x6
 964 02e1 B7       		.byte	0xb7
 965 02e2 08       		.byte	0x8
 966 02e3 02030000 		.4byte	0x302
 967 02e7 07       		.uleb128 0x7
 968 02e8 F8060000 		.4byte	.LASF29
 969 02ec 06       		.byte	0x6
 970 02ed B8       		.byte	0xb8
 971 02ee 1A       		.byte	0x1a
 972 02ef A1020000 		.4byte	0x2a1
 973 02f3 00       		.byte	0
 974 02f4 07       		.uleb128 0x7
 975 02f5 5F060000 		.4byte	.LASF30
 976 02f9 06       		.byte	0x6
 977 02fa B9       		.byte	0xb9
 978 02fb 1A       		.byte	0x1a
 979 02fc A1020000 		.4byte	0x2a1
 980 0300 04       		.byte	0x4
 981 0301 00       		.byte	0
 982 0302 03       		.uleb128 0x3
 983 0303 0F000000 		.4byte	.LASF56
 984 0307 05       		.byte	0x5
 985 0308 57       		.byte	0x57
 986 0309 1E       		.byte	0x1e
 987 030a 0E030000 		.4byte	0x30e
 988 030e 0B       		.uleb128 0xb
 989 030f DA030000 		.4byte	.LASF57
 990 0313 1C       		.byte	0x1c
 991 0314 06       		.byte	0x6
 992 0315 9001     		.2byte	0x190
 993 0317 08       		.byte	0x8
 994 0318 71030000 		.4byte	0x371
 995 031c 09       		.uleb128 0x9
 996 031d 8D070000 		.4byte	.LASF58
 997 0321 06       		.byte	0x6
 998 0322 9101     		.2byte	0x191
 999 0324 19       		.byte	0x19
 1000 0325 CE020000 		.4byte	0x2ce
 1001 0329 00       		.byte	0
 1002 032a 09       		.uleb128 0x9
 1003 032b 2E040000 		.4byte	.LASF59
 1004 032f 06       		.byte	0x6
 1005 0330 9201     		.2byte	0x192
 1006 0332 19       		.byte	0x19
 1007 0333 07010000 		.4byte	0x107
 1008 0337 08       		.byte	0x8
 1009 0338 09       		.uleb128 0x9
 1010 0339 A0040000 		.4byte	.LASF60
 1011 033d 06       		.byte	0x6
 1012 033e 9401     		.2byte	0x194
 1013 0340 19       		.byte	0x19
 1014 0341 4F050000 		.4byte	0x54f
 1015 0345 0C       		.byte	0xc
 1016 0346 09       		.uleb128 0x9
 1017 0347 2A020000 		.4byte	.LASF61
 1018 034b 06       		.byte	0x6
ARM GAS  /tmp/ccZrRhiO.s 			page 19


 1019 034c 9701     		.2byte	0x197
 1020 034e 1A       		.byte	0x1a
 1021 034f A1020000 		.4byte	0x2a1
 1022 0353 10       		.byte	0x10
 1023 0354 09       		.uleb128 0x9
 1024 0355 1F060000 		.4byte	.LASF62
 1025 0359 06       		.byte	0x6
 1026 035a 9801     		.2byte	0x198
 1027 035c 1A       		.byte	0x1a
 1028 035d A1020000 		.4byte	0x2a1
 1029 0361 14       		.byte	0x14
 1030 0362 09       		.uleb128 0x9
 1031 0363 15060000 		.4byte	.LASF63
 1032 0367 06       		.byte	0x6
 1033 0368 9B01     		.2byte	0x19b
 1034 036a 1A       		.byte	0x1a
 1035 036b A1020000 		.4byte	0x2a1
 1036 036f 18       		.byte	0x18
 1037 0370 00       		.byte	0
 1038 0371 03       		.uleb128 0x3
 1039 0372 08080000 		.4byte	.LASF64
 1040 0376 05       		.byte	0x5
 1041 0377 5C       		.byte	0x5c
 1042 0378 10       		.byte	0x10
 1043 0379 7D030000 		.4byte	0x37d
 1044 037d 0A       		.uleb128 0xa
 1045 037e 04       		.byte	0x4
 1046 037f 83030000 		.4byte	0x383
 1047 0383 0C       		.uleb128 0xc
 1048 0384 8E030000 		.4byte	0x38e
 1049 0388 0D       		.uleb128 0xd
 1050 0389 8E030000 		.4byte	0x38e
 1051 038d 00       		.byte	0
 1052 038e 0E       		.uleb128 0xe
 1053 038f 04       		.byte	0x4
 1054 0390 0F       		.uleb128 0xf
 1055 0391 8E030000 		.4byte	0x38e
 1056 0395 03       		.uleb128 0x3
 1057 0396 4F060000 		.4byte	.LASF65
 1058 039a 05       		.byte	0x5
 1059 039b 61       		.byte	0x61
 1060 039c 21       		.byte	0x21
 1061 039d A1030000 		.4byte	0x3a1
 1062 03a1 0B       		.uleb128 0xb
 1063 03a2 3B080000 		.4byte	.LASF66
 1064 03a6 14       		.byte	0x14
 1065 03a7 06       		.byte	0x6
 1066 03a8 6B01     		.2byte	0x16b
 1067 03aa 08       		.byte	0x8
 1068 03ab F6030000 		.4byte	0x3f6
 1069 03af 09       		.uleb128 0x9
 1070 03b0 AC020000 		.4byte	.LASF67
 1071 03b4 06       		.byte	0x6
 1072 03b5 6C01     		.2byte	0x16c
 1073 03b7 1A       		.byte	0x1a
 1074 03b8 29090000 		.4byte	0x929
 1075 03bc 00       		.byte	0
ARM GAS  /tmp/ccZrRhiO.s 			page 20


 1076 03bd 09       		.uleb128 0x9
 1077 03be 3B020000 		.4byte	.LASF68
 1078 03c2 06       		.byte	0x6
 1079 03c3 6D01     		.2byte	0x16d
 1080 03c5 1A       		.byte	0x1a
 1081 03c6 29090000 		.4byte	0x929
 1082 03ca 04       		.byte	0x4
 1083 03cb 09       		.uleb128 0x9
 1084 03cc E8020000 		.4byte	.LASF69
 1085 03d0 06       		.byte	0x6
 1086 03d1 6E01     		.2byte	0x16e
 1087 03d3 19       		.byte	0x19
 1088 03d4 43010000 		.4byte	0x143
 1089 03d8 08       		.byte	0x8
 1090 03d9 09       		.uleb128 0x9
 1091 03da 3B090000 		.4byte	.LASF70
 1092 03de 06       		.byte	0x6
 1093 03df 6F01     		.2byte	0x16f
 1094 03e1 19       		.byte	0x19
 1095 03e2 71030000 		.4byte	0x371
 1096 03e6 0C       		.byte	0xc
 1097 03e7 09       		.uleb128 0x9
 1098 03e8 59080000 		.4byte	.LASF71
 1099 03ec 06       		.byte	0x6
 1100 03ed 7101     		.2byte	0x171
 1101 03ef 1A       		.byte	0x1a
 1102 03f0 8E030000 		.4byte	0x38e
 1103 03f4 10       		.byte	0x10
 1104 03f5 00       		.byte	0
 1105 03f6 03       		.uleb128 0x3
 1106 03f7 EF000000 		.4byte	.LASF72
 1107 03fb 05       		.byte	0x5
 1108 03fc 66       		.byte	0x66
 1109 03fd 28       		.byte	0x28
 1110 03fe 02040000 		.4byte	0x402
 1111 0402 0B       		.uleb128 0xb
 1112 0403 47040000 		.4byte	.LASF73
 1113 0407 10       		.byte	0x10
 1114 0408 06       		.byte	0x6
 1115 0409 7B01     		.2byte	0x17b
 1116 040b 08       		.byte	0x8
 1117 040c 49040000 		.4byte	0x449
 1118 0410 09       		.uleb128 0x9
 1119 0411 AC020000 		.4byte	.LASF67
 1120 0415 06       		.byte	0x6
 1121 0416 7C01     		.2byte	0x17c
 1122 0418 1A       		.byte	0x1a
 1123 0419 29090000 		.4byte	0x929
 1124 041d 00       		.byte	0
 1125 041e 09       		.uleb128 0x9
 1126 041f 3B020000 		.4byte	.LASF68
 1127 0423 06       		.byte	0x6
 1128 0424 7E01     		.2byte	0x17e
 1129 0426 1A       		.byte	0x1a
 1130 0427 29090000 		.4byte	0x929
 1131 042b 04       		.byte	0x4
 1132 042c 09       		.uleb128 0x9
ARM GAS  /tmp/ccZrRhiO.s 			page 21


 1133 042d E8020000 		.4byte	.LASF69
 1134 0431 06       		.byte	0x6
 1135 0432 8001     		.2byte	0x180
 1136 0434 19       		.byte	0x19
 1137 0435 43010000 		.4byte	0x143
 1138 0439 08       		.byte	0x8
 1139 043a 09       		.uleb128 0x9
 1140 043b ED080000 		.4byte	.LASF74
 1141 043f 06       		.byte	0x6
 1142 0440 8201     		.2byte	0x182
 1143 0442 19       		.byte	0x19
 1144 0443 4F010000 		.4byte	0x14f
 1145 0447 0C       		.byte	0xc
 1146 0448 00       		.byte	0
 1147 0449 03       		.uleb128 0x3
 1148 044a 6A000000 		.4byte	.LASF75
 1149 044e 05       		.byte	0x5
 1150 044f 6B       		.byte	0x6b
 1151 0450 20       		.byte	0x20
 1152 0451 55040000 		.4byte	0x455
 1153 0455 10       		.uleb128 0x10
 1154 0456 12020000 		.4byte	.LASF76
 1155 045a 1404     		.2byte	0x414
 1156 045c 06       		.byte	0x6
 1157 045d A201     		.2byte	0x1a2
 1158 045f 08       		.byte	0x8
 1159 0460 9D040000 		.4byte	0x49d
 1160 0464 09       		.uleb128 0x9
 1161 0465 11080000 		.4byte	.LASF77
 1162 0469 06       		.byte	0x6
 1163 046a AA01     		.2byte	0x1aa
 1164 046c 24       		.byte	0x24
 1165 046d 12090000 		.4byte	0x912
 1166 0471 00       		.byte	0
 1167 0472 09       		.uleb128 0x9
 1168 0473 86080000 		.4byte	.LASF78
 1169 0477 06       		.byte	0x6
 1170 0478 AF01     		.2byte	0x1af
 1171 047a 19       		.byte	0x19
 1172 047b 2B010000 		.4byte	0x12b
 1173 047f 04       		.byte	0x4
 1174 0480 09       		.uleb128 0x9
 1175 0481 76020000 		.4byte	.LASF79
 1176 0485 06       		.byte	0x6
 1177 0486 B301     		.2byte	0x1b3
 1178 0488 19       		.byte	0x19
 1179 0489 2B010000 		.4byte	0x12b
 1180 048d 08       		.byte	0x8
 1181 048e 09       		.uleb128 0x9
 1182 048f F8080000 		.4byte	.LASF80
 1183 0493 06       		.byte	0x6
 1184 0494 B901     		.2byte	0x1b9
 1185 0496 19       		.byte	0x19
 1186 0497 5D070000 		.4byte	0x75d
 1187 049b 0C       		.byte	0xc
 1188 049c 00       		.byte	0
 1189 049d 03       		.uleb128 0x3
ARM GAS  /tmp/ccZrRhiO.s 			page 22


 1190 049e AC030000 		.4byte	.LASF81
 1191 04a2 05       		.byte	0x5
 1192 04a3 70       		.byte	0x70
 1193 04a4 1A       		.byte	0x1a
 1194 04a5 A9040000 		.4byte	0x4a9
 1195 04a9 10       		.uleb128 0x10
 1196 04aa C1010000 		.4byte	.LASF82
 1197 04ae 7006     		.2byte	0x670
 1198 04b0 06       		.byte	0x6
 1199 04b1 C201     		.2byte	0x1c2
 1200 04b3 08       		.byte	0x8
 1201 04b4 1E050000 		.4byte	0x51e
 1202 04b8 09       		.uleb128 0x9
 1203 04b9 97080000 		.4byte	.LASF83
 1204 04bd 06       		.byte	0x6
 1205 04be C601     		.2byte	0x1c6
 1206 04c0 19       		.byte	0x19
 1207 04c1 02030000 		.4byte	0x302
 1208 04c5 00       		.byte	0
 1209 04c6 09       		.uleb128 0x9
 1210 04c7 AA010000 		.4byte	.LASF84
 1211 04cb 06       		.byte	0x6
 1212 04cc CA01     		.2byte	0x1ca
 1213 04ce 19       		.byte	0x19
 1214 04cf F6030000 		.4byte	0x3f6
 1215 04d3 1C       		.byte	0x1c
 1216 04d4 08       		.uleb128 0x8
 1217 04d5 64626700 		.ascii	"dbg\000"
 1218 04d9 06       		.byte	0x6
 1219 04da CE01     		.2byte	0x1ce
 1220 04dc 19       		.byte	0x19
 1221 04dd 49040000 		.4byte	0x449
 1222 04e1 2C       		.byte	0x2c
 1223 04e2 11       		.uleb128 0x11
 1224 04e3 8F030000 		.4byte	.LASF85
 1225 04e7 06       		.byte	0x6
 1226 04e8 D201     		.2byte	0x1d2
 1227 04ea 19       		.byte	0x19
 1228 04eb 54010000 		.4byte	0x154
 1229 04ef 4004     		.2byte	0x440
 1230 04f1 12       		.uleb128 0x12
 1231 04f2 746D00   		.ascii	"tm\000"
 1232 04f5 06       		.byte	0x6
 1233 04f6 D701     		.2byte	0x1d7
 1234 04f8 19       		.byte	0x19
 1235 04f9 80070000 		.4byte	0x780
 1236 04fd A804     		.2byte	0x4a8
 1237 04ff 11       		.uleb128 0x11
 1238 0500 40000000 		.4byte	.LASF86
 1239 0504 06       		.byte	0x6
 1240 0505 DD01     		.2byte	0x1dd
 1241 0507 19       		.byte	0x19
 1242 0508 1F080000 		.4byte	0x81f
 1243 050c B004     		.2byte	0x4b0
 1244 050e 11       		.uleb128 0x11
 1245 050f 7F020000 		.4byte	.LASF87
 1246 0513 06       		.byte	0x6
ARM GAS  /tmp/ccZrRhiO.s 			page 23


 1247 0514 E301     		.2byte	0x1e3
 1248 0516 03       		.byte	0x3
 1249 0517 2F090000 		.4byte	0x92f
 1250 051b E804     		.2byte	0x4e8
 1251 051d 00       		.byte	0
 1252 051e 13       		.uleb128 0x13
 1253 051f 05010000 		.4byte	.LASF88
 1254 0523 07       		.byte	0x7
 1255 0524 A706     		.2byte	0x6a7
 1256 0526 19       		.byte	0x19
 1257 0527 67000000 		.4byte	0x67
 1258 052b 14       		.uleb128 0x14
 1259 052c BD020000 		.4byte	.LASF89
 1260 0530 08       		.byte	0x8
 1261 0531 4C       		.byte	0x4c
 1262 0532 11       		.byte	0x11
 1263 0533 99000000 		.4byte	0x99
 1264 0537 03       		.uleb128 0x3
 1265 0538 32020000 		.4byte	.LASF90
 1266 053c 09       		.byte	0x9
 1267 053d 65       		.byte	0x65
 1268 053e 0F       		.byte	0xf
 1269 053f 8E030000 		.4byte	0x38e
 1270 0543 03       		.uleb128 0x3
 1271 0544 F4030000 		.4byte	.LASF91
 1272 0548 09       		.byte	0x9
 1273 0549 6D       		.byte	0x6d
 1274 054a 12       		.byte	0x12
 1275 054b AC000000 		.4byte	0xac
 1276 054f 06       		.uleb128 0x6
 1277 0550 33080000 		.4byte	.LASF92
 1278 0554 04       		.byte	0x4
 1279 0555 09       		.byte	0x9
 1280 0556 89       		.byte	0x89
 1281 0557 08       		.byte	0x8
 1282 0558 6A050000 		.4byte	0x56a
 1283 055c 15       		.uleb128 0x15
 1284 055d 72313300 		.ascii	"r13\000"
 1285 0561 09       		.byte	0x9
 1286 0562 8A       		.byte	0x8a
 1287 0563 17       		.byte	0x17
 1288 0564 C5060000 		.4byte	0x6c5
 1289 0568 00       		.byte	0
 1290 0569 00       		.byte	0
 1291 056a 06       		.uleb128 0x6
 1292 056b 4D000000 		.4byte	.LASF93
 1293 056f 64       		.byte	0x64
 1294 0570 0A       		.byte	0xa
 1295 0571 F4       		.byte	0xf4
 1296 0572 08       		.byte	0x8
 1297 0573 C5060000 		.4byte	0x6c5
 1298 0577 15       		.uleb128 0x15
 1299 0578 73313600 		.ascii	"s16\000"
 1300 057c 0A       		.byte	0xa
 1301 057d F6       		.byte	0xf6
 1302 057e 11       		.byte	0x11
 1303 057f 37050000 		.4byte	0x537
ARM GAS  /tmp/ccZrRhiO.s 			page 24


 1304 0583 00       		.byte	0
 1305 0584 15       		.uleb128 0x15
 1306 0585 73313700 		.ascii	"s17\000"
 1307 0589 0A       		.byte	0xa
 1308 058a F7       		.byte	0xf7
 1309 058b 11       		.byte	0x11
 1310 058c 37050000 		.4byte	0x537
 1311 0590 04       		.byte	0x4
 1312 0591 15       		.uleb128 0x15
 1313 0592 73313800 		.ascii	"s18\000"
 1314 0596 0A       		.byte	0xa
 1315 0597 F8       		.byte	0xf8
 1316 0598 11       		.byte	0x11
 1317 0599 37050000 		.4byte	0x537
 1318 059d 08       		.byte	0x8
 1319 059e 15       		.uleb128 0x15
 1320 059f 73313900 		.ascii	"s19\000"
 1321 05a3 0A       		.byte	0xa
 1322 05a4 F9       		.byte	0xf9
 1323 05a5 11       		.byte	0x11
 1324 05a6 37050000 		.4byte	0x537
 1325 05aa 0C       		.byte	0xc
 1326 05ab 15       		.uleb128 0x15
 1327 05ac 73323000 		.ascii	"s20\000"
 1328 05b0 0A       		.byte	0xa
 1329 05b1 FA       		.byte	0xfa
 1330 05b2 11       		.byte	0x11
 1331 05b3 37050000 		.4byte	0x537
 1332 05b7 10       		.byte	0x10
 1333 05b8 15       		.uleb128 0x15
 1334 05b9 73323100 		.ascii	"s21\000"
 1335 05bd 0A       		.byte	0xa
 1336 05be FB       		.byte	0xfb
 1337 05bf 11       		.byte	0x11
 1338 05c0 37050000 		.4byte	0x537
 1339 05c4 14       		.byte	0x14
 1340 05c5 15       		.uleb128 0x15
 1341 05c6 73323200 		.ascii	"s22\000"
 1342 05ca 0A       		.byte	0xa
 1343 05cb FC       		.byte	0xfc
 1344 05cc 11       		.byte	0x11
 1345 05cd 37050000 		.4byte	0x537
 1346 05d1 18       		.byte	0x18
 1347 05d2 15       		.uleb128 0x15
 1348 05d3 73323300 		.ascii	"s23\000"
 1349 05d7 0A       		.byte	0xa
 1350 05d8 FD       		.byte	0xfd
 1351 05d9 11       		.byte	0x11
 1352 05da 37050000 		.4byte	0x537
 1353 05de 1C       		.byte	0x1c
 1354 05df 15       		.uleb128 0x15
 1355 05e0 73323400 		.ascii	"s24\000"
 1356 05e4 0A       		.byte	0xa
 1357 05e5 FE       		.byte	0xfe
 1358 05e6 11       		.byte	0x11
 1359 05e7 37050000 		.4byte	0x537
 1360 05eb 20       		.byte	0x20
ARM GAS  /tmp/ccZrRhiO.s 			page 25


 1361 05ec 15       		.uleb128 0x15
 1362 05ed 73323500 		.ascii	"s25\000"
 1363 05f1 0A       		.byte	0xa
 1364 05f2 FF       		.byte	0xff
 1365 05f3 11       		.byte	0x11
 1366 05f4 37050000 		.4byte	0x537
 1367 05f8 24       		.byte	0x24
 1368 05f9 08       		.uleb128 0x8
 1369 05fa 73323600 		.ascii	"s26\000"
 1370 05fe 0A       		.byte	0xa
 1371 05ff 0001     		.2byte	0x100
 1372 0601 11       		.byte	0x11
 1373 0602 37050000 		.4byte	0x537
 1374 0606 28       		.byte	0x28
 1375 0607 08       		.uleb128 0x8
 1376 0608 73323700 		.ascii	"s27\000"
 1377 060c 0A       		.byte	0xa
 1378 060d 0101     		.2byte	0x101
 1379 060f 11       		.byte	0x11
 1380 0610 37050000 		.4byte	0x537
 1381 0614 2C       		.byte	0x2c
 1382 0615 08       		.uleb128 0x8
 1383 0616 73323800 		.ascii	"s28\000"
 1384 061a 0A       		.byte	0xa
 1385 061b 0201     		.2byte	0x102
 1386 061d 11       		.byte	0x11
 1387 061e 37050000 		.4byte	0x537
 1388 0622 30       		.byte	0x30
 1389 0623 08       		.uleb128 0x8
 1390 0624 73323900 		.ascii	"s29\000"
 1391 0628 0A       		.byte	0xa
 1392 0629 0301     		.2byte	0x103
 1393 062b 11       		.byte	0x11
 1394 062c 37050000 		.4byte	0x537
 1395 0630 34       		.byte	0x34
 1396 0631 08       		.uleb128 0x8
 1397 0632 73333000 		.ascii	"s30\000"
 1398 0636 0A       		.byte	0xa
 1399 0637 0401     		.2byte	0x104
 1400 0639 11       		.byte	0x11
 1401 063a 37050000 		.4byte	0x537
 1402 063e 38       		.byte	0x38
 1403 063f 08       		.uleb128 0x8
 1404 0640 73333100 		.ascii	"s31\000"
 1405 0644 0A       		.byte	0xa
 1406 0645 0501     		.2byte	0x105
 1407 0647 11       		.byte	0x11
 1408 0648 37050000 		.4byte	0x537
 1409 064c 3C       		.byte	0x3c
 1410 064d 08       		.uleb128 0x8
 1411 064e 723400   		.ascii	"r4\000"
 1412 0651 0A       		.byte	0xa
 1413 0652 0701     		.2byte	0x107
 1414 0654 11       		.byte	0x11
 1415 0655 37050000 		.4byte	0x537
 1416 0659 40       		.byte	0x40
 1417 065a 08       		.uleb128 0x8
ARM GAS  /tmp/ccZrRhiO.s 			page 26


 1418 065b 723500   		.ascii	"r5\000"
 1419 065e 0A       		.byte	0xa
 1420 065f 0801     		.2byte	0x108
 1421 0661 11       		.byte	0x11
 1422 0662 37050000 		.4byte	0x537
 1423 0666 44       		.byte	0x44
 1424 0667 08       		.uleb128 0x8
 1425 0668 723600   		.ascii	"r6\000"
 1426 066b 0A       		.byte	0xa
 1427 066c 0901     		.2byte	0x109
 1428 066e 11       		.byte	0x11
 1429 066f 37050000 		.4byte	0x537
 1430 0673 48       		.byte	0x48
 1431 0674 08       		.uleb128 0x8
 1432 0675 723700   		.ascii	"r7\000"
 1433 0678 0A       		.byte	0xa
 1434 0679 0A01     		.2byte	0x10a
 1435 067b 11       		.byte	0x11
 1436 067c 37050000 		.4byte	0x537
 1437 0680 4C       		.byte	0x4c
 1438 0681 08       		.uleb128 0x8
 1439 0682 723800   		.ascii	"r8\000"
 1440 0685 0A       		.byte	0xa
 1441 0686 0B01     		.2byte	0x10b
 1442 0688 11       		.byte	0x11
 1443 0689 37050000 		.4byte	0x537
 1444 068d 50       		.byte	0x50
 1445 068e 08       		.uleb128 0x8
 1446 068f 723900   		.ascii	"r9\000"
 1447 0692 0A       		.byte	0xa
 1448 0693 0C01     		.2byte	0x10c
 1449 0695 11       		.byte	0x11
 1450 0696 37050000 		.4byte	0x537
 1451 069a 54       		.byte	0x54
 1452 069b 08       		.uleb128 0x8
 1453 069c 72313000 		.ascii	"r10\000"
 1454 06a0 0A       		.byte	0xa
 1455 06a1 0D01     		.2byte	0x10d
 1456 06a3 11       		.byte	0x11
 1457 06a4 37050000 		.4byte	0x537
 1458 06a8 58       		.byte	0x58
 1459 06a9 08       		.uleb128 0x8
 1460 06aa 72313100 		.ascii	"r11\000"
 1461 06ae 0A       		.byte	0xa
 1462 06af 0E01     		.2byte	0x10e
 1463 06b1 11       		.byte	0x11
 1464 06b2 37050000 		.4byte	0x537
 1465 06b6 5C       		.byte	0x5c
 1466 06b7 08       		.uleb128 0x8
 1467 06b8 6C7200   		.ascii	"lr\000"
 1468 06bb 0A       		.byte	0xa
 1469 06bc 0F01     		.2byte	0x10f
 1470 06be 11       		.byte	0x11
 1471 06bf 37050000 		.4byte	0x537
 1472 06c3 60       		.byte	0x60
 1473 06c4 00       		.byte	0
 1474 06c5 0A       		.uleb128 0xa
ARM GAS  /tmp/ccZrRhiO.s 			page 27


 1475 06c6 04       		.byte	0x4
 1476 06c7 6A050000 		.4byte	0x56a
 1477 06cb 16       		.uleb128 0x16
 1478 06cc 10       		.byte	0x10
 1479 06cd 0B       		.byte	0xb
 1480 06ce 51       		.byte	0x51
 1481 06cf 09       		.byte	0x9
 1482 06d0 09070000 		.4byte	0x709
 1483 06d4 07       		.uleb128 0x7
 1484 06d5 1C000000 		.4byte	.LASF94
 1485 06d9 0B       		.byte	0xb
 1486 06da 55       		.byte	0x55
 1487 06db 19       		.byte	0x19
 1488 06dc 43010000 		.4byte	0x143
 1489 06e0 00       		.byte	0
 1490 06e1 07       		.uleb128 0x7
 1491 06e2 EB010000 		.4byte	.LASF95
 1492 06e6 0B       		.byte	0xb
 1493 06e7 59       		.byte	0x59
 1494 06e8 1A       		.byte	0x1a
 1495 06e9 A1020000 		.4byte	0x2a1
 1496 06ed 04       		.byte	0x4
 1497 06ee 07       		.uleb128 0x7
 1498 06ef 23090000 		.4byte	.LASF96
 1499 06f3 0B       		.byte	0xb
 1500 06f4 5D       		.byte	0x5d
 1501 06f5 1A       		.byte	0x1a
 1502 06f6 8E030000 		.4byte	0x38e
 1503 06fa 08       		.byte	0x8
 1504 06fb 07       		.uleb128 0x7
 1505 06fc 8E080000 		.4byte	.LASF97
 1506 0700 0B       		.byte	0xb
 1507 0701 61       		.byte	0x61
 1508 0702 19       		.byte	0x19
 1509 0703 73000000 		.4byte	0x73
 1510 0707 0C       		.byte	0xc
 1511 0708 00       		.byte	0
 1512 0709 03       		.uleb128 0x3
 1513 070a 7D040000 		.4byte	.LASF98
 1514 070e 0B       		.byte	0xb
 1515 070f 62       		.byte	0x62
 1516 0710 03       		.byte	0x3
 1517 0711 CB060000 		.4byte	0x6cb
 1518 0715 17       		.uleb128 0x17
 1519 0716 0804     		.2byte	0x408
 1520 0718 0B       		.byte	0xb
 1521 0719 67       		.byte	0x67
 1522 071a 09       		.byte	0x9
 1523 071b 47070000 		.4byte	0x747
 1524 071f 07       		.uleb128 0x7
 1525 0720 22020000 		.4byte	.LASF99
 1526 0724 0B       		.byte	0xb
 1527 0725 6B       		.byte	0x6b
 1528 0726 19       		.byte	0x19
 1529 0727 38000000 		.4byte	0x38
 1530 072b 00       		.byte	0
 1531 072c 07       		.uleb128 0x7
ARM GAS  /tmp/ccZrRhiO.s 			page 28


 1532 072d 76040000 		.4byte	.LASF100
 1533 0731 0B       		.byte	0xb
 1534 0732 6F       		.byte	0x6f
 1535 0733 1A       		.byte	0x1a
 1536 0734 47070000 		.4byte	0x747
 1537 0738 04       		.byte	0x4
 1538 0739 07       		.uleb128 0x7
 1539 073a 3A060000 		.4byte	.LASF101
 1540 073e 0B       		.byte	0xb
 1541 073f 73       		.byte	0x73
 1542 0740 19       		.byte	0x19
 1543 0741 4D070000 		.4byte	0x74d
 1544 0745 08       		.byte	0x8
 1545 0746 00       		.byte	0
 1546 0747 0A       		.uleb128 0xa
 1547 0748 04       		.byte	0x4
 1548 0749 09070000 		.4byte	0x709
 1549 074d 18       		.uleb128 0x18
 1550 074e 09070000 		.4byte	0x709
 1551 0752 5D070000 		.4byte	0x75d
 1552 0756 19       		.uleb128 0x19
 1553 0757 38000000 		.4byte	0x38
 1554 075b 3F       		.byte	0x3f
 1555 075c 00       		.byte	0
 1556 075d 03       		.uleb128 0x3
 1557 075e A9000000 		.4byte	.LASF102
 1558 0762 0B       		.byte	0xb
 1559 0763 74       		.byte	0x74
 1560 0764 03       		.byte	0x3
 1561 0765 15070000 		.4byte	0x715
 1562 0769 16       		.uleb128 0x16
 1563 076a 04       		.byte	0x4
 1564 076b 0C       		.byte	0xc
 1565 076c 38       		.byte	0x38
 1566 076d 09       		.byte	0x9
 1567 076e 80070000 		.4byte	0x780
 1568 0772 07       		.uleb128 0x7
 1569 0773 2C080000 		.4byte	.LASF103
 1570 0777 0C       		.byte	0xc
 1571 0778 3C       		.byte	0x3c
 1572 0779 19       		.byte	0x19
 1573 077a BF000000 		.4byte	0xbf
 1574 077e 00       		.byte	0
 1575 077f 00       		.byte	0
 1576 0780 03       		.uleb128 0x3
 1577 0781 AC040000 		.4byte	.LASF104
 1578 0785 0C       		.byte	0xc
 1579 0786 3D       		.byte	0x3d
 1580 0787 03       		.byte	0x3
 1581 0788 69070000 		.4byte	0x769
 1582 078c 16       		.uleb128 0x16
 1583 078d 18       		.byte	0x18
 1584 078e 0C       		.byte	0xc
 1585 078f 48       		.byte	0x48
 1586 0790 09       		.byte	0x9
 1587 0791 D5070000 		.4byte	0x7d5
 1588 0795 07       		.uleb128 0x7
ARM GAS  /tmp/ccZrRhiO.s 			page 29


 1589 0796 5E030000 		.4byte	.LASF105
 1590 079a 0C       		.byte	0xc
 1591 079b 49       		.byte	0x49
 1592 079c 19       		.byte	0x19
 1593 079d BF000000 		.4byte	0xbf
 1594 07a1 00       		.byte	0
 1595 07a2 07       		.uleb128 0x7
 1596 07a3 79000000 		.4byte	.LASF106
 1597 07a7 0C       		.byte	0xc
 1598 07a8 4A       		.byte	0x4a
 1599 07a9 19       		.byte	0x19
 1600 07aa BF000000 		.4byte	0xbf
 1601 07ae 04       		.byte	0x4
 1602 07af 07       		.uleb128 0x7
 1603 07b0 A0030000 		.4byte	.LASF107
 1604 07b4 0C       		.byte	0xc
 1605 07b5 4B       		.byte	0x4b
 1606 07b6 19       		.byte	0x19
 1607 07b7 BF000000 		.4byte	0xbf
 1608 07bb 08       		.byte	0x8
 1609 07bc 15       		.uleb128 0x15
 1610 07bd 6E00     		.ascii	"n\000"
 1611 07bf 0C       		.byte	0xc
 1612 07c0 4C       		.byte	0x4c
 1613 07c1 19       		.byte	0x19
 1614 07c2 37010000 		.4byte	0x137
 1615 07c6 0C       		.byte	0xc
 1616 07c7 07       		.uleb128 0x7
 1617 07c8 27060000 		.4byte	.LASF108
 1618 07cc 0C       		.byte	0xc
 1619 07cd 4D       		.byte	0x4d
 1620 07ce 19       		.byte	0x19
 1621 07cf CB000000 		.4byte	0xcb
 1622 07d3 10       		.byte	0x10
 1623 07d4 00       		.byte	0
 1624 07d5 03       		.uleb128 0x3
 1625 07d6 7F000000 		.4byte	.LASF109
 1626 07da 0C       		.byte	0xc
 1627 07db 4E       		.byte	0x4e
 1628 07dc 03       		.byte	0x3
 1629 07dd 8C070000 		.4byte	0x78c
 1630 07e1 16       		.uleb128 0x16
 1631 07e2 38       		.byte	0x38
 1632 07e3 0D       		.byte	0xd
 1633 07e4 38       		.byte	0x38
 1634 07e5 09       		.byte	0x9
 1635 07e6 1F080000 		.4byte	0x81f
 1636 07ea 07       		.uleb128 0x7
 1637 07eb 05030000 		.4byte	.LASF110
 1638 07ef 0D       		.byte	0xd
 1639 07f0 39       		.byte	0x39
 1640 07f1 19       		.byte	0x19
 1641 07f2 37010000 		.4byte	0x137
 1642 07f6 00       		.byte	0
 1643 07f7 07       		.uleb128 0x7
 1644 07f8 82060000 		.4byte	.LASF111
 1645 07fc 0D       		.byte	0xd
ARM GAS  /tmp/ccZrRhiO.s 			page 30


 1646 07fd 3A       		.byte	0x3a
 1647 07fe 19       		.byte	0x19
 1648 07ff 37010000 		.4byte	0x137
 1649 0803 04       		.byte	0x4
 1650 0804 07       		.uleb128 0x7
 1651 0805 10090000 		.4byte	.LASF112
 1652 0809 0D       		.byte	0xd
 1653 080a 3B       		.byte	0x3b
 1654 080b 19       		.byte	0x19
 1655 080c D5070000 		.4byte	0x7d5
 1656 0810 08       		.byte	0x8
 1657 0811 07       		.uleb128 0x7
 1658 0812 CF030000 		.4byte	.LASF113
 1659 0816 0D       		.byte	0xd
 1660 0817 3D       		.byte	0x3d
 1661 0818 19       		.byte	0x19
 1662 0819 D5070000 		.4byte	0x7d5
 1663 081d 20       		.byte	0x20
 1664 081e 00       		.byte	0
 1665 081f 03       		.uleb128 0x3
 1666 0820 76030000 		.4byte	.LASF114
 1667 0824 0D       		.byte	0xd
 1668 0825 3F       		.byte	0x3f
 1669 0826 03       		.byte	0x3
 1670 0827 E1070000 		.4byte	0x7e1
 1671 082b 1A       		.uleb128 0x1a
 1672 082c 04       		.byte	0x4
 1673 082d 06       		.byte	0x6
 1674 082e FA       		.byte	0xfa
 1675 082f 03       		.byte	0x3
 1676 0830 90080000 		.4byte	0x890
 1677 0834 1B       		.uleb128 0x1b
 1678 0835 30000000 		.4byte	.LASF115
 1679 0839 06       		.byte	0x6
 1680 083a 0101     		.2byte	0x101
 1681 083c 19       		.byte	0x19
 1682 083d 13010000 		.4byte	0x113
 1683 0841 1B       		.uleb128 0x1b
 1684 0842 DA000000 		.4byte	.LASF116
 1685 0846 06       		.byte	0x6
 1686 0847 0801     		.2byte	0x108
 1687 0849 19       		.byte	0x19
 1688 084a 13010000 		.4byte	0x113
 1689 084e 1B       		.uleb128 0x1b
 1690 084f CD080000 		.4byte	.LASF117
 1691 0853 06       		.byte	0x6
 1692 0854 0F01     		.2byte	0x10f
 1693 0856 1A       		.byte	0x1a
 1694 0857 8E030000 		.4byte	0x38e
 1695 085b 1B       		.uleb128 0x1b
 1696 085c BB010000 		.4byte	.LASF118
 1697 0860 06       		.byte	0x6
 1698 0861 1601     		.2byte	0x116
 1699 0863 1A       		.byte	0x1a
 1700 0864 90080000 		.4byte	0x890
 1701 0868 1B       		.uleb128 0x1b
 1702 0869 D4020000 		.4byte	.LASF119
ARM GAS  /tmp/ccZrRhiO.s 			page 31


 1703 086d 06       		.byte	0x6
 1704 086e 1E01     		.2byte	0x11e
 1705 0870 1A       		.byte	0x1a
 1706 0871 BE080000 		.4byte	0x8be
 1707 0875 1B       		.uleb128 0x1b
 1708 0876 C9070000 		.4byte	.LASF120
 1709 087a 06       		.byte	0x6
 1710 087b 2701     		.2byte	0x127
 1711 087d 1A       		.byte	0x1a
 1712 087e 06090000 		.4byte	0x906
 1713 0882 1B       		.uleb128 0x1b
 1714 0883 F1060000 		.4byte	.LASF121
 1715 0887 06       		.byte	0x6
 1716 0888 2F01     		.2byte	0x12f
 1717 088a 19       		.byte	0x19
 1718 088b 1F010000 		.4byte	0x11f
 1719 088f 00       		.byte	0
 1720 0890 0A       		.uleb128 0xa
 1721 0891 04       		.byte	0x4
 1722 0892 95020000 		.4byte	0x295
 1723 0896 06       		.uleb128 0x6
 1724 0897 60070000 		.4byte	.LASF122
 1725 089b 0C       		.byte	0xc
 1726 089c 0E       		.byte	0xe
 1727 089d 34       		.byte	0x34
 1728 089e 10       		.byte	0x10
 1729 089f BE080000 		.4byte	0x8be
 1730 08a3 07       		.uleb128 0x7
 1731 08a4 0A020000 		.4byte	.LASF123
 1732 08a8 0E       		.byte	0xe
 1733 08a9 35       		.byte	0x35
 1734 08aa 19       		.byte	0x19
 1735 08ab CE020000 		.4byte	0x2ce
 1736 08af 00       		.byte	0
 1737 08b0 07       		.uleb128 0x7
 1738 08b1 53030000 		.4byte	.LASF124
 1739 08b5 0E       		.byte	0xe
 1740 08b6 37       		.byte	0x37
 1741 08b7 19       		.byte	0x19
 1742 08b8 2B010000 		.4byte	0x12b
 1743 08bc 08       		.byte	0x8
 1744 08bd 00       		.byte	0
 1745 08be 0A       		.uleb128 0xa
 1746 08bf 04       		.byte	0x4
 1747 08c0 96080000 		.4byte	0x896
 1748 08c4 06       		.uleb128 0x6
 1749 08c5 76080000 		.4byte	.LASF125
 1750 08c9 14       		.byte	0x14
 1751 08ca 0F       		.byte	0xf
 1752 08cb 39       		.byte	0x39
 1753 08cc 08       		.byte	0x8
 1754 08cd 06090000 		.4byte	0x906
 1755 08d1 07       		.uleb128 0x7
 1756 08d2 97010000 		.4byte	.LASF126
 1757 08d6 0F       		.byte	0xf
 1758 08d7 3A       		.byte	0x3a
 1759 08d8 19       		.byte	0x19
ARM GAS  /tmp/ccZrRhiO.s 			page 32


 1760 08d9 CE020000 		.4byte	0x2ce
 1761 08dd 00       		.byte	0
 1762 08de 07       		.uleb128 0x7
 1763 08df 1B090000 		.4byte	.LASF127
 1764 08e3 0F       		.byte	0xf
 1765 08e4 3C       		.byte	0x3c
 1766 08e5 1A       		.byte	0x1a
 1767 08e6 A1020000 		.4byte	0x2a1
 1768 08ea 08       		.byte	0x8
 1769 08eb 07       		.uleb128 0x7
 1770 08ec EC070000 		.4byte	.LASF128
 1771 08f0 0F       		.byte	0xf
 1772 08f1 3E       		.byte	0x3e
 1773 08f2 1A       		.byte	0x1a
 1774 08f3 780A0000 		.4byte	0xa78
 1775 08f7 0C       		.byte	0xc
 1776 08f8 07       		.uleb128 0x7
 1777 08f9 62020000 		.4byte	.LASF129
 1778 08fd 0F       		.byte	0xf
 1779 08fe 41       		.byte	0x41
 1780 08ff 19       		.byte	0x19
 1781 0900 2B010000 		.4byte	0x12b
 1782 0904 10       		.byte	0x10
 1783 0905 00       		.byte	0
 1784 0906 0A       		.uleb128 0xa
 1785 0907 04       		.byte	0x4
 1786 0908 C4080000 		.4byte	0x8c4
 1787 090c 0A       		.uleb128 0xa
 1788 090d 04       		.byte	0x4
 1789 090e 1E090000 		.4byte	0x91e
 1790 0912 05       		.uleb128 0x5
 1791 0913 0C090000 		.4byte	0x90c
 1792 0917 04       		.uleb128 0x4
 1793 0918 01       		.byte	0x1
 1794 0919 08       		.byte	0x8
 1795 091a C4070000 		.4byte	.LASF130
 1796 091e 0F       		.uleb128 0xf
 1797 091f 17090000 		.4byte	0x917
 1798 0923 0A       		.uleb128 0xa
 1799 0924 04       		.byte	0x4
 1800 0925 43050000 		.4byte	0x543
 1801 0929 0A       		.uleb128 0xa
 1802 092a 04       		.byte	0x4
 1803 092b 95030000 		.4byte	0x395
 1804 092f 18       		.uleb128 0x18
 1805 0930 43050000 		.4byte	0x543
 1806 0934 3F090000 		.4byte	0x93f
 1807 0938 19       		.uleb128 0x19
 1808 0939 38000000 		.4byte	0x38
 1809 093d 30       		.byte	0x30
 1810 093e 00       		.byte	0
 1811 093f 1C       		.uleb128 0x1c
 1812 0940 636800   		.ascii	"ch\000"
 1813 0943 06       		.byte	0x6
 1814 0944 0902     		.2byte	0x209
 1815 0946 14       		.byte	0x14
 1816 0947 9D040000 		.4byte	0x49d
ARM GAS  /tmp/ccZrRhiO.s 			page 33


 1817 094b 16       		.uleb128 0x16
 1818 094c 16       		.byte	0x16
 1819 094d 10       		.byte	0x10
 1820 094e 34       		.byte	0x34
 1821 094f 09       		.byte	0x9
 1822 0950 3F0A0000 		.4byte	0xa3f
 1823 0954 07       		.uleb128 0x7
 1824 0955 2D090000 		.4byte	.LASF131
 1825 0959 10       		.byte	0x10
 1826 095a 35       		.byte	0x35
 1827 095b 0D       		.byte	0xd
 1828 095c 3F0A0000 		.4byte	0xa3f
 1829 0960 00       		.byte	0
 1830 0961 07       		.uleb128 0x7
 1831 0962 1A040000 		.4byte	.LASF132
 1832 0966 10       		.byte	0x10
 1833 0967 36       		.byte	0x36
 1834 0968 0D       		.byte	0xd
 1835 0969 73000000 		.4byte	0x73
 1836 096d 04       		.byte	0x4
 1837 096e 07       		.uleb128 0x7
 1838 096f A5070000 		.4byte	.LASF133
 1839 0973 10       		.byte	0x10
 1840 0974 37       		.byte	0x37
 1841 0975 0D       		.byte	0xd
 1842 0976 73000000 		.4byte	0x73
 1843 097a 05       		.byte	0x5
 1844 097b 07       		.uleb128 0x7
 1845 097c 05090000 		.4byte	.LASF134
 1846 0980 10       		.byte	0x10
 1847 0981 38       		.byte	0x38
 1848 0982 0D       		.byte	0xd
 1849 0983 86000000 		.4byte	0x86
 1850 0987 06       		.byte	0x6
 1851 0988 07       		.uleb128 0x7
 1852 0989 44060000 		.4byte	.LASF135
 1853 098d 10       		.byte	0x10
 1854 098e 39       		.byte	0x39
 1855 098f 0D       		.byte	0xd
 1856 0990 73000000 		.4byte	0x73
 1857 0994 08       		.byte	0x8
 1858 0995 07       		.uleb128 0x7
 1859 0996 6A040000 		.4byte	.LASF136
 1860 099a 10       		.byte	0x10
 1861 099b 3A       		.byte	0x3a
 1862 099c 0D       		.byte	0xd
 1863 099d 73000000 		.4byte	0x73
 1864 09a1 09       		.byte	0x9
 1865 09a2 07       		.uleb128 0x7
 1866 09a3 CC000000 		.4byte	.LASF137
 1867 09a7 10       		.byte	0x10
 1868 09a8 3B       		.byte	0x3b
 1869 09a9 0D       		.byte	0xd
 1870 09aa 73000000 		.4byte	0x73
 1871 09ae 0A       		.byte	0xa
 1872 09af 07       		.uleb128 0x7
 1873 09b0 81070000 		.4byte	.LASF138
ARM GAS  /tmp/ccZrRhiO.s 			page 34


 1874 09b4 10       		.byte	0x10
 1875 09b5 3C       		.byte	0x3c
 1876 09b6 0D       		.byte	0xd
 1877 09b7 73000000 		.4byte	0x73
 1878 09bb 0B       		.byte	0xb
 1879 09bc 07       		.uleb128 0x7
 1880 09bd B8030000 		.4byte	.LASF139
 1881 09c1 10       		.byte	0x10
 1882 09c2 3D       		.byte	0x3d
 1883 09c3 0D       		.byte	0xd
 1884 09c4 73000000 		.4byte	0x73
 1885 09c8 0C       		.byte	0xc
 1886 09c9 07       		.uleb128 0x7
 1887 09ca 42070000 		.4byte	.LASF140
 1888 09ce 10       		.byte	0x10
 1889 09cf 3E       		.byte	0x3e
 1890 09d0 0D       		.byte	0xd
 1891 09d1 73000000 		.4byte	0x73
 1892 09d5 0D       		.byte	0xd
 1893 09d6 07       		.uleb128 0x7
 1894 09d7 DB020000 		.4byte	.LASF141
 1895 09db 10       		.byte	0x10
 1896 09dc 3F       		.byte	0x3f
 1897 09dd 0D       		.byte	0xd
 1898 09de 73000000 		.4byte	0x73
 1899 09e2 0E       		.byte	0xe
 1900 09e3 07       		.uleb128 0x7
 1901 09e4 8C040000 		.4byte	.LASF142
 1902 09e8 10       		.byte	0x10
 1903 09e9 40       		.byte	0x40
 1904 09ea 0D       		.byte	0xd
 1905 09eb 73000000 		.4byte	0x73
 1906 09ef 0F       		.byte	0xf
 1907 09f0 07       		.uleb128 0x7
 1908 09f1 72010000 		.4byte	.LASF143
 1909 09f5 10       		.byte	0x10
 1910 09f6 41       		.byte	0x41
 1911 09f7 0D       		.byte	0xd
 1912 09f8 73000000 		.4byte	0x73
 1913 09fc 10       		.byte	0x10
 1914 09fd 07       		.uleb128 0x7
 1915 09fe 28010000 		.4byte	.LASF144
 1916 0a02 10       		.byte	0x10
 1917 0a03 43       		.byte	0x43
 1918 0a04 0D       		.byte	0xd
 1919 0a05 73000000 		.4byte	0x73
 1920 0a09 11       		.byte	0x11
 1921 0a0a 07       		.uleb128 0x7
 1922 0a0b 82010000 		.4byte	.LASF145
 1923 0a0f 10       		.byte	0x10
 1924 0a10 44       		.byte	0x44
 1925 0a11 0D       		.byte	0xd
 1926 0a12 73000000 		.4byte	0x73
 1927 0a16 12       		.byte	0x12
 1928 0a17 07       		.uleb128 0x7
 1929 0a18 22040000 		.4byte	.LASF146
 1930 0a1c 10       		.byte	0x10
ARM GAS  /tmp/ccZrRhiO.s 			page 35


 1931 0a1d 45       		.byte	0x45
 1932 0a1e 0D       		.byte	0xd
 1933 0a1f 73000000 		.4byte	0x73
 1934 0a23 13       		.byte	0x13
 1935 0a24 07       		.uleb128 0x7
 1936 0a25 07070000 		.4byte	.LASF147
 1937 0a29 10       		.byte	0x10
 1938 0a2a 46       		.byte	0x46
 1939 0a2b 0D       		.byte	0xd
 1940 0a2c 73000000 		.4byte	0x73
 1941 0a30 14       		.byte	0x14
 1942 0a31 07       		.uleb128 0x7
 1943 0a32 C3030000 		.4byte	.LASF148
 1944 0a36 10       		.byte	0x10
 1945 0a37 48       		.byte	0x48
 1946 0a38 0D       		.byte	0xd
 1947 0a39 73000000 		.4byte	0x73
 1948 0a3d 15       		.byte	0x15
 1949 0a3e 00       		.byte	0
 1950 0a3f 18       		.uleb128 0x18
 1951 0a40 17090000 		.4byte	0x917
 1952 0a44 4F0A0000 		.4byte	0xa4f
 1953 0a48 19       		.uleb128 0x19
 1954 0a49 38000000 		.4byte	0x38
 1955 0a4d 03       		.byte	0x3
 1956 0a4e 00       		.byte	0
 1957 0a4f 03       		.uleb128 0x3
 1958 0a50 F1010000 		.4byte	.LASF149
 1959 0a54 10       		.byte	0x10
 1960 0a55 49       		.byte	0x49
 1961 0a56 03       		.byte	0x3
 1962 0a57 4B090000 		.4byte	0x94b
 1963 0a5b 0F       		.uleb128 0xf
 1964 0a5c 4F0A0000 		.4byte	0xa4f
 1965 0a60 14       		.uleb128 0x14
 1966 0a61 FC020000 		.4byte	.LASF150
 1967 0a65 10       		.byte	0x10
 1968 0a66 6E       		.byte	0x6e
 1969 0a67 1D       		.byte	0x1d
 1970 0a68 5B0A0000 		.4byte	0xa5b
 1971 0a6c 03       		.uleb128 0x3
 1972 0a6d 4A010000 		.4byte	.LASF151
 1973 0a71 0F       		.byte	0xf
 1974 0a72 34       		.byte	0x34
 1975 0a73 19       		.byte	0x19
 1976 0a74 C4080000 		.4byte	0x8c4
 1977 0a78 0A       		.uleb128 0xa
 1978 0a79 04       		.byte	0x4
 1979 0a7a 6C0A0000 		.4byte	0xa6c
 1980 0a7e 03       		.uleb128 0x3
 1981 0a7f 4C080000 		.4byte	.LASF152
 1982 0a83 11       		.byte	0x11
 1983 0a84 36       		.byte	0x36
 1984 0a85 11       		.byte	0x11
 1985 0a86 8A0A0000 		.4byte	0xa8a
 1986 0a8a 0A       		.uleb128 0xa
 1987 0a8b 04       		.byte	0x4
ARM GAS  /tmp/ccZrRhiO.s 			page 36


 1988 0a8c 900A0000 		.4byte	0xa90
 1989 0a90 1D       		.uleb128 0x1d
 1990 0a91 8E030000 		.4byte	0x38e
 1991 0a95 9F0A0000 		.4byte	0xa9f
 1992 0a99 0D       		.uleb128 0xd
 1993 0a9a 2C000000 		.4byte	0x2c
 1994 0a9e 00       		.byte	0
 1995 0a9f 03       		.uleb128 0x3
 1996 0aa0 DD010000 		.4byte	.LASF153
 1997 0aa4 12       		.byte	0x12
 1998 0aa5 3C       		.byte	0x3c
 1999 0aa6 1C       		.byte	0x1c
 2000 0aa7 AB0A0000 		.4byte	0xaab
 2001 0aab 06       		.uleb128 0x6
 2002 0aac 43090000 		.4byte	.LASF154
 2003 0ab0 28       		.byte	0x28
 2004 0ab1 12       		.byte	0x12
 2005 0ab2 4F       		.byte	0x4f
 2006 0ab3 08       		.byte	0x8
 2007 0ab4 E00A0000 		.4byte	0xae0
 2008 0ab8 07       		.uleb128 0x7
 2009 0ab9 AF080000 		.4byte	.LASF155
 2010 0abd 12       		.byte	0x12
 2011 0abe 50       		.byte	0x50
 2012 0abf 19       		.byte	0x19
 2013 0ac0 7E0A0000 		.4byte	0xa7e
 2014 0ac4 00       		.byte	0
 2015 0ac5 07       		.uleb128 0x7
 2016 0ac6 E3000000 		.4byte	.LASF156
 2017 0aca 12       		.byte	0x12
 2018 0acb 52       		.byte	0x52
 2019 0acc 19       		.byte	0x19
 2020 0acd 020B0000 		.4byte	0xb02
 2021 0ad1 08       		.byte	0x8
 2022 0ad2 07       		.uleb128 0x7
 2023 0ad3 6C010000 		.4byte	.LASF157
 2024 0ad7 12       		.byte	0x12
 2025 0ad8 54       		.byte	0x54
 2026 0ad9 19       		.byte	0x19
 2027 0ada 6C0A0000 		.4byte	0xa6c
 2028 0ade 10       		.byte	0x10
 2029 0adf 00       		.byte	0
 2030 0ae0 1A       		.uleb128 0x1a
 2031 0ae1 04       		.byte	0x4
 2032 0ae2 12       		.byte	0x12
 2033 0ae3 44       		.byte	0x44
 2034 0ae4 05       		.byte	0x5
 2035 0ae5 020B0000 		.4byte	0xb02
 2036 0ae9 1E       		.uleb128 0x1e
 2037 0aea 2B000000 		.4byte	.LASF158
 2038 0aee 12       		.byte	0x12
 2039 0aef 45       		.byte	0x45
 2040 0af0 1A       		.byte	0x1a
 2041 0af1 260B0000 		.4byte	0xb26
 2042 0af5 1E       		.uleb128 0x1e
 2043 0af6 AD070000 		.4byte	.LASF159
 2044 0afa 12       		.byte	0x12
ARM GAS  /tmp/ccZrRhiO.s 			page 37


 2045 0afb 46       		.byte	0x46
 2046 0afc 1A       		.byte	0x1a
 2047 0afd 2C0B0000 		.4byte	0xb2c
 2048 0b01 00       		.byte	0
 2049 0b02 1F       		.uleb128 0x1f
 2050 0b03 A7060000 		.4byte	.LASF167
 2051 0b07 08       		.byte	0x8
 2052 0b08 12       		.byte	0x12
 2053 0b09 41       		.byte	0x41
 2054 0b0a 07       		.byte	0x7
 2055 0b0b 260B0000 		.4byte	0xb26
 2056 0b0f 1E       		.uleb128 0x1e
 2057 0b10 12010000 		.4byte	.LASF160
 2058 0b14 12       		.byte	0x12
 2059 0b15 42       		.byte	0x42
 2060 0b16 0E       		.byte	0xe
 2061 0b17 43050000 		.4byte	0x543
 2062 0b1b 20       		.uleb128 0x20
 2063 0b1c 6800     		.ascii	"h\000"
 2064 0b1e 12       		.byte	0x12
 2065 0b1f 49       		.byte	0x49
 2066 0b20 05       		.byte	0x5
 2067 0b21 320B0000 		.4byte	0xb32
 2068 0b25 00       		.byte	0
 2069 0b26 0A       		.uleb128 0xa
 2070 0b27 04       		.byte	0x4
 2071 0b28 020B0000 		.4byte	0xb02
 2072 0b2c 0A       		.uleb128 0xa
 2073 0b2d 04       		.byte	0x4
 2074 0b2e 9F0A0000 		.4byte	0xa9f
 2075 0b32 16       		.uleb128 0x16
 2076 0b33 08       		.byte	0x8
 2077 0b34 12       		.byte	0x12
 2078 0b35 43       		.byte	0x43
 2079 0b36 03       		.byte	0x3
 2080 0b37 540B0000 		.4byte	0xb54
 2081 0b3b 15       		.uleb128 0x15
 2082 0b3c 7500     		.ascii	"u\000"
 2083 0b3e 12       		.byte	0x12
 2084 0b3f 47       		.byte	0x47
 2085 0b40 07       		.byte	0x7
 2086 0b41 E00A0000 		.4byte	0xae0
 2087 0b45 00       		.byte	0
 2088 0b46 07       		.uleb128 0x7
 2089 0b47 DB080000 		.4byte	.LASF161
 2090 0b4b 12       		.byte	0x12
 2091 0b4c 48       		.byte	0x48
 2092 0b4d 19       		.byte	0x19
 2093 0b4e 2C000000 		.4byte	0x2c
 2094 0b52 04       		.byte	0x4
 2095 0b53 00       		.byte	0
 2096 0b54 06       		.uleb128 0x6
 2097 0b55 60080000 		.4byte	.LASF162
 2098 0b59 10       		.byte	0x10
 2099 0b5a 13       		.byte	0x13
 2100 0b5b 3B       		.byte	0x3b
 2101 0b5c 08       		.byte	0x8
ARM GAS  /tmp/ccZrRhiO.s 			page 38


 2102 0b5d 960B0000 		.4byte	0xb96
 2103 0b61 07       		.uleb128 0x7
 2104 0b62 59030000 		.4byte	.LASF163
 2105 0b66 13       		.byte	0x13
 2106 0b67 3C       		.byte	0x3c
 2107 0b68 0F       		.byte	0xf
 2108 0b69 0C090000 		.4byte	0x90c
 2109 0b6d 00       		.byte	0
 2110 0b6e 07       		.uleb128 0x7
 2111 0b6f BD040000 		.4byte	.LASF164
 2112 0b73 13       		.byte	0x13
 2113 0b74 3D       		.byte	0x3d
 2114 0b75 0A       		.byte	0xa
 2115 0b76 9C0B0000 		.4byte	0xb9c
 2116 0b7a 04       		.byte	0x4
 2117 0b7b 07       		.uleb128 0x7
 2118 0b7c 35010000 		.4byte	.LASF165
 2119 0b80 13       		.byte	0x13
 2120 0b81 3E       		.byte	0x3e
 2121 0b82 0A       		.byte	0xa
 2122 0b83 9C0B0000 		.4byte	0xb9c
 2123 0b87 08       		.byte	0x8
 2124 0b88 07       		.uleb128 0x7
 2125 0b89 66060000 		.4byte	.LASF166
 2126 0b8d 13       		.byte	0x13
 2127 0b8e 3F       		.byte	0x3f
 2128 0b8f 0A       		.byte	0xa
 2129 0b90 9C0B0000 		.4byte	0xb9c
 2130 0b94 0C       		.byte	0xc
 2131 0b95 00       		.byte	0
 2132 0b96 0F       		.uleb128 0xf
 2133 0b97 540B0000 		.4byte	0xb54
 2134 0b9b 21       		.uleb128 0x21
 2135 0b9c 0A       		.uleb128 0xa
 2136 0b9d 04       		.byte	0x4
 2137 0b9e 9B0B0000 		.4byte	0xb9b
 2138 0ba2 17       		.uleb128 0x17
 2139 0ba3 D809     		.2byte	0x9d8
 2140 0ba5 13       		.byte	0x13
 2141 0ba6 44       		.byte	0x44
 2142 0ba7 03       		.byte	0x3
 2143 0ba8 ED0B0000 		.4byte	0xbed
 2144 0bac 15       		.uleb128 0x15
 2145 0bad 543000   		.ascii	"T0\000"
 2146 0bb0 13       		.byte	0x13
 2147 0bb1 45       		.byte	0x45
 2148 0bb2 05       		.byte	0x5
 2149 0bb3 ED0B0000 		.4byte	0xbed
 2150 0bb7 00       		.byte	0
 2151 0bb8 22       		.uleb128 0x22
 2152 0bb9 543100   		.ascii	"T1\000"
 2153 0bbc 13       		.byte	0x13
 2154 0bbd 46       		.byte	0x46
 2155 0bbe 05       		.byte	0x5
 2156 0bbf ED0B0000 		.4byte	0xbed
 2157 0bc3 F801     		.2byte	0x1f8
 2158 0bc5 22       		.uleb128 0x22
ARM GAS  /tmp/ccZrRhiO.s 			page 39


 2159 0bc6 543200   		.ascii	"T2\000"
 2160 0bc9 13       		.byte	0x13
 2161 0bca 47       		.byte	0x47
 2162 0bcb 05       		.byte	0x5
 2163 0bcc ED0B0000 		.4byte	0xbed
 2164 0bd0 F003     		.2byte	0x3f0
 2165 0bd2 22       		.uleb128 0x22
 2166 0bd3 543300   		.ascii	"T3\000"
 2167 0bd6 13       		.byte	0x13
 2168 0bd7 48       		.byte	0x48
 2169 0bd8 05       		.byte	0x5
 2170 0bd9 ED0B0000 		.4byte	0xbed
 2171 0bdd E805     		.2byte	0x5e8
 2172 0bdf 22       		.uleb128 0x22
 2173 0be0 543400   		.ascii	"T4\000"
 2174 0be3 13       		.byte	0x13
 2175 0be4 49       		.byte	0x49
 2176 0be5 05       		.byte	0x5
 2177 0be6 ED0B0000 		.4byte	0xbed
 2178 0bea E007     		.2byte	0x7e0
 2179 0bec 00       		.byte	0
 2180 0bed 18       		.uleb128 0x18
 2181 0bee 43050000 		.4byte	0x543
 2182 0bf2 FD0B0000 		.4byte	0xbfd
 2183 0bf6 19       		.uleb128 0x19
 2184 0bf7 38000000 		.4byte	0x38
 2185 0bfb 3E       		.byte	0x3e
 2186 0bfc 00       		.byte	0
 2187 0bfd 23       		.uleb128 0x23
 2188 0bfe 69080000 		.4byte	.LASF168
 2189 0c02 D809     		.2byte	0x9d8
 2190 0c04 13       		.byte	0x13
 2191 0c05 43       		.byte	0x43
 2192 0c06 07       		.byte	0x7
 2193 0c07 230C0000 		.4byte	0xc23
 2194 0c0b 20       		.uleb128 0x20
 2195 0c0c 776100   		.ascii	"wa\000"
 2196 0c0f 13       		.byte	0x13
 2197 0c10 4A       		.byte	0x4a
 2198 0c11 05       		.byte	0x5
 2199 0c12 A20B0000 		.4byte	0xba2
 2200 0c16 1E       		.uleb128 0x1e
 2201 0c17 FB010000 		.4byte	.LASF169
 2202 0c1b 13       		.byte	0x13
 2203 0c1c 4B       		.byte	0x4b
 2204 0c1d 0B       		.byte	0xb
 2205 0c1e 230C0000 		.4byte	0xc23
 2206 0c22 00       		.byte	0
 2207 0c23 18       		.uleb128 0x18
 2208 0c24 73000000 		.4byte	0x73
 2209 0c28 340C0000 		.4byte	0xc34
 2210 0c2c 24       		.uleb128 0x24
 2211 0c2d 38000000 		.4byte	0x38
 2212 0c31 D709     		.2byte	0x9d7
 2213 0c33 00       		.byte	0
 2214 0c34 14       		.uleb128 0x14
 2215 0c35 1B080000 		.4byte	.LASF170
ARM GAS  /tmp/ccZrRhiO.s 			page 40


 2216 0c39 13       		.byte	0x13
 2217 0c3a 4F       		.byte	0x4f
 2218 0c3b 0D       		.byte	0xd
 2219 0c3c 400C0000 		.4byte	0xc40
 2220 0c40 04       		.uleb128 0x4
 2221 0c41 01       		.byte	0x1
 2222 0c42 02       		.byte	0x2
 2223 0c43 8B060000 		.4byte	.LASF171
 2224 0c47 18       		.uleb128 0x18
 2225 0c48 A1020000 		.4byte	0x2a1
 2226 0c4c 570C0000 		.4byte	0xc57
 2227 0c50 19       		.uleb128 0x19
 2228 0c51 38000000 		.4byte	0x38
 2229 0c55 04       		.byte	0x4
 2230 0c56 00       		.byte	0
 2231 0c57 14       		.uleb128 0x14
 2232 0c58 D9060000 		.4byte	.LASF172
 2233 0c5c 13       		.byte	0x13
 2234 0c5d A7       		.byte	0xa7
 2235 0c5e 12       		.byte	0x12
 2236 0c5f 470C0000 		.4byte	0xc47
 2237 0c63 14       		.uleb128 0x14
 2238 0c64 EA000000 		.4byte	.LASF173
 2239 0c68 13       		.byte	0x13
 2240 0c69 A8       		.byte	0xa8
 2241 0c6a 1B       		.byte	0x1b
 2242 0c6b FD0B0000 		.4byte	0xbfd
 2243 0c6f 18       		.uleb128 0x18
 2244 0c70 90030000 		.4byte	0x390
 2245 0c74 7A0C0000 		.4byte	0xc7a
 2246 0c78 25       		.uleb128 0x25
 2247 0c79 00       		.byte	0
 2248 0c7a 0F       		.uleb128 0xf
 2249 0c7b 6F0C0000 		.4byte	0xc6f
 2250 0c7f 26       		.uleb128 0x26
 2251 0c80 776100   		.ascii	"wa\000"
 2252 0c83 13       		.byte	0x13
 2253 0c84 A9       		.byte	0xa9
 2254 0c85 18       		.byte	0x18
 2255 0c86 7A0C0000 		.4byte	0xc7a
 2256 0c8a 14       		.uleb128 0x14
 2257 0c8b E1060000 		.4byte	.LASF174
 2258 0c8f 13       		.byte	0x13
 2259 0c90 AA       		.byte	0xaa
 2260 0c91 0D       		.byte	0xd
 2261 0c92 400C0000 		.4byte	0xc40
 2262 0c96 27       		.uleb128 0x27
 2263 0c97 A5080000 		.4byte	.LASF177
 2264 0c9b 01       		.byte	0x1
 2265 0c9c 33       		.byte	0x33
 2266 0c9d 16       		.byte	0x16
 2267 0c9e 9F0A0000 		.4byte	0xa9f
 2268 0ca2 05       		.uleb128 0x5
 2269 0ca3 03       		.byte	0x3
 2270 0ca4 00000000 		.4byte	test_heap
 2271 0ca8 28       		.uleb128 0x28
 2272 0ca9 FF030000 		.4byte	.LASF175
ARM GAS  /tmp/ccZrRhiO.s 			page 41


 2273 0cad 01       		.byte	0x1
 2274 0cae 8E       		.byte	0x8e
 2275 0caf 1A       		.byte	0x1a
 2276 0cb0 960B0000 		.4byte	0xb96
 2277 0cb4 05       		.uleb128 0x5
 2278 0cb5 03       		.byte	0x3
 2279 0cb6 00000000 		.4byte	testheap1
 2280 0cba 18       		.uleb128 0x18
 2281 0cbb D50C0000 		.4byte	0xcd5
 2282 0cbf CA0C0000 		.4byte	0xcca
 2283 0cc3 19       		.uleb128 0x19
 2284 0cc4 38000000 		.4byte	0x38
 2285 0cc8 01       		.byte	0x1
 2286 0cc9 00       		.byte	0
 2287 0cca 0F       		.uleb128 0xf
 2288 0ccb BA0C0000 		.4byte	0xcba
 2289 0ccf 0A       		.uleb128 0xa
 2290 0cd0 04       		.byte	0x4
 2291 0cd1 960B0000 		.4byte	0xb96
 2292 0cd5 0F       		.uleb128 0xf
 2293 0cd6 CF0C0000 		.4byte	0xccf
 2294 0cda 28       		.uleb128 0x28
 2295 0cdb 3E010000 		.4byte	.LASF176
 2296 0cdf 01       		.byte	0x1
 2297 0ce0 9A       		.byte	0x9a
 2298 0ce1 25       		.byte	0x25
 2299 0ce2 CA0C0000 		.4byte	0xcca
 2300 0ce6 05       		.uleb128 0x5
 2301 0ce7 03       		.byte	0x3
 2302 0ce8 00000000 		.4byte	patternheap
 2303 0cec 29       		.uleb128 0x29
 2304 0ced 68020000 		.4byte	.LASF178
 2305 0cf1 01       		.byte	0x1
 2306 0cf2 45       		.byte	0x45
 2307 0cf3 0D       		.byte	0xd
 2308 0cf4 00000000 		.4byte	.LFB220
 2309 0cf8 70020000 		.4byte	.LFE220-.LFB220
 2310 0cfc 01       		.uleb128 0x1
 2311 0cfd 9C       		.byte	0x9c
 2312 0cfe 59120000 		.4byte	0x1259
 2313 0d02 2A       		.uleb128 0x2a
 2314 0d03 703100   		.ascii	"p1\000"
 2315 0d06 01       		.byte	0x1
 2316 0d07 46       		.byte	0x46
 2317 0d08 09       		.byte	0x9
 2318 0d09 8E030000 		.4byte	0x38e
 2319 0d0d 1E000000 		.4byte	.LLST0
 2320 0d11 00000000 		.4byte	.LVUS0
 2321 0d15 2A       		.uleb128 0x2a
 2322 0d16 703200   		.ascii	"p2\000"
 2323 0d19 01       		.byte	0x1
 2324 0d1a 46       		.byte	0x46
 2325 0d1b 0E       		.byte	0xe
 2326 0d1c 8E030000 		.4byte	0x38e
 2327 0d20 D7000000 		.4byte	.LLST1
 2328 0d24 CB000000 		.4byte	.LVUS1
 2329 0d28 2A       		.uleb128 0x2a
ARM GAS  /tmp/ccZrRhiO.s 			page 42


 2330 0d29 703300   		.ascii	"p3\000"
 2331 0d2c 01       		.byte	0x1
 2332 0d2d 46       		.byte	0x46
 2333 0d2e 13       		.byte	0x13
 2334 0d2f 8E030000 		.4byte	0x38e
 2335 0d33 25010000 		.4byte	.LLST2
 2336 0d37 21010000 		.4byte	.LVUS2
 2337 0d3b 2B       		.uleb128 0x2b
 2338 0d3c 6E00     		.ascii	"n\000"
 2339 0d3e 01       		.byte	0x1
 2340 0d3f 47       		.byte	0x47
 2341 0d40 0A       		.byte	0xa
 2342 0d41 2C000000 		.4byte	0x2c
 2343 0d45 02       		.uleb128 0x2
 2344 0d46 91       		.byte	0x91
 2345 0d47 64       		.sleb128 -28
 2346 0d48 2B       		.uleb128 0x2b
 2347 0d49 737A00   		.ascii	"sz\000"
 2348 0d4c 01       		.byte	0x1
 2349 0d4d 47       		.byte	0x47
 2350 0d4e 0D       		.byte	0xd
 2351 0d4f 2C000000 		.4byte	0x2c
 2352 0d53 02       		.uleb128 0x2
 2353 0d54 91       		.byte	0x91
 2354 0d55 68       		.sleb128 -24
 2355 0d56 2C       		.uleb128 0x2c
 2356 0d57 12000000 		.4byte	.LVL0
 2357 0d5b 97120000 		.4byte	0x1297
 2358 0d5f 2D       		.uleb128 0x2d
 2359 0d60 1A000000 		.4byte	.LVL1
 2360 0d64 A3120000 		.4byte	0x12a3
 2361 0d68 780D0000 		.4byte	0xd78
 2362 0d6c 2E       		.uleb128 0x2e
 2363 0d6d 01       		.uleb128 0x1
 2364 0d6e 50       		.byte	0x50
 2365 0d6f 01       		.uleb128 0x1
 2366 0d70 30       		.byte	0x30
 2367 0d71 2E       		.uleb128 0x2e
 2368 0d72 01       		.uleb128 0x1
 2369 0d73 51       		.byte	0x51
 2370 0d74 02       		.uleb128 0x2
 2371 0d75 91       		.byte	0x91
 2372 0d76 68       		.sleb128 -24
 2373 0d77 00       		.byte	0
 2374 0d78 2D       		.uleb128 0x2d
 2375 0d79 22000000 		.4byte	.LVL2
 2376 0d7d AF120000 		.4byte	0x12af
 2377 0d81 900D0000 		.4byte	0xd90
 2378 0d85 2E       		.uleb128 0x2e
 2379 0d86 01       		.uleb128 0x1
 2380 0d87 50       		.byte	0x50
 2381 0d88 01       		.uleb128 0x1
 2382 0d89 30       		.byte	0x30
 2383 0d8a 2E       		.uleb128 0x2e
 2384 0d8b 01       		.uleb128 0x1
 2385 0d8c 51       		.byte	0x51
 2386 0d8d 01       		.uleb128 0x1
ARM GAS  /tmp/ccZrRhiO.s 			page 43


 2387 0d8e 40       		.byte	0x40
 2388 0d8f 00       		.byte	0
 2389 0d90 2D       		.uleb128 0x2d
 2390 0d91 30000000 		.4byte	.LVL5
 2391 0d95 BB120000 		.4byte	0x12bb
 2392 0d99 B30D0000 		.4byte	0xdb3
 2393 0d9d 2E       		.uleb128 0x2e
 2394 0d9e 01       		.uleb128 0x1
 2395 0d9f 50       		.byte	0x50
 2396 0da0 01       		.uleb128 0x1
 2397 0da1 31       		.byte	0x31
 2398 0da2 2E       		.uleb128 0x2e
 2399 0da3 01       		.uleb128 0x1
 2400 0da4 51       		.byte	0x51
 2401 0da5 0C       		.uleb128 0xc
 2402 0da6 31       		.byte	0x31
 2403 0da7 75       		.byte	0x75
 2404 0da8 00       		.sleb128 0
 2405 0da9 75       		.byte	0x75
 2406 0daa 00       		.sleb128 0
 2407 0dab 30       		.byte	0x30
 2408 0dac 2E       		.byte	0x2e
 2409 0dad 28       		.byte	0x28
 2410 0dae 0100     		.2byte	0x1
 2411 0db0 16       		.byte	0x16
 2412 0db1 13       		.byte	0x13
 2413 0db2 00       		.byte	0
 2414 0db3 2D       		.uleb128 0x2d
 2415 0db4 4A000000 		.4byte	.LVL8
 2416 0db8 C7120000 		.4byte	0x12c7
 2417 0dbc C70D0000 		.4byte	0xdc7
 2418 0dc0 2E       		.uleb128 0x2e
 2419 0dc1 01       		.uleb128 0x1
 2420 0dc2 50       		.byte	0x50
 2421 0dc3 02       		.uleb128 0x2
 2422 0dc4 75       		.byte	0x75
 2423 0dc5 00       		.sleb128 0
 2424 0dc6 00       		.byte	0
 2425 0dc7 2D       		.uleb128 0x2d
 2426 0dc8 54000000 		.4byte	.LVL9
 2427 0dcc AF120000 		.4byte	0x12af
 2428 0dd0 E20D0000 		.4byte	0xde2
 2429 0dd4 2E       		.uleb128 0x2e
 2430 0dd5 01       		.uleb128 0x1
 2431 0dd6 50       		.byte	0x50
 2432 0dd7 02       		.uleb128 0x2
 2433 0dd8 74       		.byte	0x74
 2434 0dd9 00       		.sleb128 0
 2435 0dda 2E       		.uleb128 0x2e
 2436 0ddb 01       		.uleb128 0x1
 2437 0ddc 51       		.byte	0x51
 2438 0ddd 03       		.uleb128 0x3
 2439 0dde 0B       		.byte	0xb
 2440 0ddf 00FF     		.2byte	0xff00
 2441 0de1 00       		.byte	0
 2442 0de2 2D       		.uleb128 0x2d
 2443 0de3 60000000 		.4byte	.LVL11
ARM GAS  /tmp/ccZrRhiO.s 			page 44


 2444 0de7 BB120000 		.4byte	0x12bb
 2445 0deb F50D0000 		.4byte	0xdf5
 2446 0def 2E       		.uleb128 0x2e
 2447 0df0 01       		.uleb128 0x1
 2448 0df1 50       		.byte	0x50
 2449 0df2 01       		.uleb128 0x1
 2450 0df3 32       		.byte	0x32
 2451 0df4 00       		.byte	0
 2452 0df5 2D       		.uleb128 0x2d
 2453 0df6 6C000000 		.4byte	.LVL12
 2454 0dfa A3120000 		.4byte	0x12a3
 2455 0dfe 120E0000 		.4byte	0xe12
 2456 0e02 2E       		.uleb128 0x2e
 2457 0e03 01       		.uleb128 0x1
 2458 0e04 50       		.byte	0x50
 2459 0e05 05       		.uleb128 0x5
 2460 0e06 03       		.byte	0x3
 2461 0e07 00000000 		.4byte	.LANCHOR0
 2462 0e0b 2E       		.uleb128 0x2e
 2463 0e0c 01       		.uleb128 0x1
 2464 0e0d 51       		.byte	0x51
 2465 0e0e 02       		.uleb128 0x2
 2466 0e0f 91       		.byte	0x91
 2467 0e10 68       		.sleb128 -24
 2468 0e11 00       		.byte	0
 2469 0e12 2D       		.uleb128 0x2d
 2470 0e13 74000000 		.4byte	.LVL13
 2471 0e17 AF120000 		.4byte	0x12af
 2472 0e1b 2E0E0000 		.4byte	0xe2e
 2473 0e1f 2E       		.uleb128 0x2e
 2474 0e20 01       		.uleb128 0x1
 2475 0e21 50       		.byte	0x50
 2476 0e22 05       		.uleb128 0x5
 2477 0e23 03       		.byte	0x3
 2478 0e24 00000000 		.4byte	.LANCHOR0
 2479 0e28 2E       		.uleb128 0x2e
 2480 0e29 01       		.uleb128 0x1
 2481 0e2a 51       		.byte	0x51
 2482 0e2b 01       		.uleb128 0x1
 2483 0e2c 40       		.byte	0x40
 2484 0e2d 00       		.byte	0
 2485 0e2e 2D       		.uleb128 0x2d
 2486 0e2f 7E000000 		.4byte	.LVL15
 2487 0e33 AF120000 		.4byte	0x12af
 2488 0e37 4A0E0000 		.4byte	0xe4a
 2489 0e3b 2E       		.uleb128 0x2e
 2490 0e3c 01       		.uleb128 0x1
 2491 0e3d 50       		.byte	0x50
 2492 0e3e 05       		.uleb128 0x5
 2493 0e3f 03       		.byte	0x3
 2494 0e40 00000000 		.4byte	.LANCHOR0
 2495 0e44 2E       		.uleb128 0x2e
 2496 0e45 01       		.uleb128 0x1
 2497 0e46 51       		.byte	0x51
 2498 0e47 01       		.uleb128 0x1
 2499 0e48 40       		.byte	0x40
 2500 0e49 00       		.byte	0
ARM GAS  /tmp/ccZrRhiO.s 			page 45


 2501 0e4a 2D       		.uleb128 0x2d
 2502 0e4b 88000000 		.4byte	.LVL17
 2503 0e4f AF120000 		.4byte	0x12af
 2504 0e53 660E0000 		.4byte	0xe66
 2505 0e57 2E       		.uleb128 0x2e
 2506 0e58 01       		.uleb128 0x1
 2507 0e59 50       		.byte	0x50
 2508 0e5a 05       		.uleb128 0x5
 2509 0e5b 03       		.byte	0x3
 2510 0e5c 00000000 		.4byte	.LANCHOR0
 2511 0e60 2E       		.uleb128 0x2e
 2512 0e61 01       		.uleb128 0x1
 2513 0e62 51       		.byte	0x51
 2514 0e63 01       		.uleb128 0x1
 2515 0e64 40       		.byte	0x40
 2516 0e65 00       		.byte	0
 2517 0e66 2D       		.uleb128 0x2d
 2518 0e67 90000000 		.4byte	.LVL19
 2519 0e6b C7120000 		.4byte	0x12c7
 2520 0e6f 7A0E0000 		.4byte	0xe7a
 2521 0e73 2E       		.uleb128 0x2e
 2522 0e74 01       		.uleb128 0x1
 2523 0e75 50       		.byte	0x50
 2524 0e76 02       		.uleb128 0x2
 2525 0e77 76       		.byte	0x76
 2526 0e78 00       		.sleb128 0
 2527 0e79 00       		.byte	0
 2528 0e7a 2D       		.uleb128 0x2d
 2529 0e7b 96000000 		.4byte	.LVL20
 2530 0e7f C7120000 		.4byte	0x12c7
 2531 0e83 8E0E0000 		.4byte	0xe8e
 2532 0e87 2E       		.uleb128 0x2e
 2533 0e88 01       		.uleb128 0x1
 2534 0e89 50       		.byte	0x50
 2535 0e8a 02       		.uleb128 0x2
 2536 0e8b 75       		.byte	0x75
 2537 0e8c 00       		.sleb128 0
 2538 0e8d 00       		.byte	0
 2539 0e8e 2D       		.uleb128 0x2d
 2540 0e8f 9C000000 		.4byte	.LVL21
 2541 0e93 C7120000 		.4byte	0x12c7
 2542 0e97 A20E0000 		.4byte	0xea2
 2543 0e9b 2E       		.uleb128 0x2e
 2544 0e9c 01       		.uleb128 0x1
 2545 0e9d 50       		.byte	0x50
 2546 0e9e 02       		.uleb128 0x2
 2547 0e9f 74       		.byte	0x74
 2548 0ea0 00       		.sleb128 0
 2549 0ea1 00       		.byte	0
 2550 0ea2 2D       		.uleb128 0x2d
 2551 0ea3 A4000000 		.4byte	.LVL22
 2552 0ea7 A3120000 		.4byte	0x12a3
 2553 0eab BF0E0000 		.4byte	0xebf
 2554 0eaf 2E       		.uleb128 0x2e
 2555 0eb0 01       		.uleb128 0x1
 2556 0eb1 50       		.byte	0x50
 2557 0eb2 05       		.uleb128 0x5
ARM GAS  /tmp/ccZrRhiO.s 			page 46


 2558 0eb3 03       		.byte	0x3
 2559 0eb4 00000000 		.4byte	.LANCHOR0
 2560 0eb8 2E       		.uleb128 0x2e
 2561 0eb9 01       		.uleb128 0x1
 2562 0eba 51       		.byte	0x51
 2563 0ebb 02       		.uleb128 0x2
 2564 0ebc 91       		.byte	0x91
 2565 0ebd 64       		.sleb128 -28
 2566 0ebe 00       		.byte	0
 2567 0ebf 2D       		.uleb128 0x2d
 2568 0ec0 B4000000 		.4byte	.LVL23
 2569 0ec4 BB120000 		.4byte	0x12bb
 2570 0ec8 D20E0000 		.4byte	0xed2
 2571 0ecc 2E       		.uleb128 0x2e
 2572 0ecd 01       		.uleb128 0x1
 2573 0ece 50       		.byte	0x50
 2574 0ecf 01       		.uleb128 0x1
 2575 0ed0 33       		.byte	0x33
 2576 0ed1 00       		.byte	0
 2577 0ed2 2D       		.uleb128 0x2d
 2578 0ed3 C0000000 		.4byte	.LVL24
 2579 0ed7 AF120000 		.4byte	0x12af
 2580 0edb EE0E0000 		.4byte	0xeee
 2581 0edf 2E       		.uleb128 0x2e
 2582 0ee0 01       		.uleb128 0x1
 2583 0ee1 50       		.byte	0x50
 2584 0ee2 05       		.uleb128 0x5
 2585 0ee3 03       		.byte	0x3
 2586 0ee4 00000000 		.4byte	.LANCHOR0
 2587 0ee8 2E       		.uleb128 0x2e
 2588 0ee9 01       		.uleb128 0x1
 2589 0eea 51       		.byte	0x51
 2590 0eeb 01       		.uleb128 0x1
 2591 0eec 40       		.byte	0x40
 2592 0eed 00       		.byte	0
 2593 0eee 2D       		.uleb128 0x2d
 2594 0eef CA000000 		.4byte	.LVL27
 2595 0ef3 AF120000 		.4byte	0x12af
 2596 0ef7 0A0F0000 		.4byte	0xf0a
 2597 0efb 2E       		.uleb128 0x2e
 2598 0efc 01       		.uleb128 0x1
 2599 0efd 50       		.byte	0x50
 2600 0efe 05       		.uleb128 0x5
 2601 0eff 03       		.byte	0x3
 2602 0f00 00000000 		.4byte	.LANCHOR0
 2603 0f04 2E       		.uleb128 0x2e
 2604 0f05 01       		.uleb128 0x1
 2605 0f06 51       		.byte	0x51
 2606 0f07 01       		.uleb128 0x1
 2607 0f08 40       		.byte	0x40
 2608 0f09 00       		.byte	0
 2609 0f0a 2D       		.uleb128 0x2d
 2610 0f0b D4000000 		.4byte	.LVL30
 2611 0f0f AF120000 		.4byte	0x12af
 2612 0f13 260F0000 		.4byte	0xf26
 2613 0f17 2E       		.uleb128 0x2e
 2614 0f18 01       		.uleb128 0x1
ARM GAS  /tmp/ccZrRhiO.s 			page 47


 2615 0f19 50       		.byte	0x50
 2616 0f1a 05       		.uleb128 0x5
 2617 0f1b 03       		.byte	0x3
 2618 0f1c 00000000 		.4byte	.LANCHOR0
 2619 0f20 2E       		.uleb128 0x2e
 2620 0f21 01       		.uleb128 0x1
 2621 0f22 51       		.byte	0x51
 2622 0f23 01       		.uleb128 0x1
 2623 0f24 40       		.byte	0x40
 2624 0f25 00       		.byte	0
 2625 0f26 2C       		.uleb128 0x2c
 2626 0f27 D8000000 		.4byte	.LVL31
 2627 0f2b C7120000 		.4byte	0x12c7
 2628 0f2f 2D       		.uleb128 0x2d
 2629 0f30 DE000000 		.4byte	.LVL32
 2630 0f34 C7120000 		.4byte	0x12c7
 2631 0f38 430F0000 		.4byte	0xf43
 2632 0f3c 2E       		.uleb128 0x2e
 2633 0f3d 01       		.uleb128 0x1
 2634 0f3e 50       		.byte	0x50
 2635 0f3f 02       		.uleb128 0x2
 2636 0f40 75       		.byte	0x75
 2637 0f41 00       		.sleb128 0
 2638 0f42 00       		.byte	0
 2639 0f43 2D       		.uleb128 0x2d
 2640 0f44 E4000000 		.4byte	.LVL33
 2641 0f48 C7120000 		.4byte	0x12c7
 2642 0f4c 570F0000 		.4byte	0xf57
 2643 0f50 2E       		.uleb128 0x2e
 2644 0f51 01       		.uleb128 0x1
 2645 0f52 50       		.byte	0x50
 2646 0f53 02       		.uleb128 0x2
 2647 0f54 74       		.byte	0x74
 2648 0f55 00       		.sleb128 0
 2649 0f56 00       		.byte	0
 2650 0f57 2D       		.uleb128 0x2d
 2651 0f58 EC000000 		.4byte	.LVL34
 2652 0f5c A3120000 		.4byte	0x12a3
 2653 0f60 740F0000 		.4byte	0xf74
 2654 0f64 2E       		.uleb128 0x2e
 2655 0f65 01       		.uleb128 0x1
 2656 0f66 50       		.byte	0x50
 2657 0f67 05       		.uleb128 0x5
 2658 0f68 03       		.byte	0x3
 2659 0f69 00000000 		.4byte	.LANCHOR0
 2660 0f6d 2E       		.uleb128 0x2e
 2661 0f6e 01       		.uleb128 0x1
 2662 0f6f 51       		.byte	0x51
 2663 0f70 02       		.uleb128 0x2
 2664 0f71 91       		.byte	0x91
 2665 0f72 64       		.sleb128 -28
 2666 0f73 00       		.byte	0
 2667 0f74 2D       		.uleb128 0x2d
 2668 0f75 FC000000 		.4byte	.LVL35
 2669 0f79 BB120000 		.4byte	0x12bb
 2670 0f7d 870F0000 		.4byte	0xf87
 2671 0f81 2E       		.uleb128 0x2e
ARM GAS  /tmp/ccZrRhiO.s 			page 48


 2672 0f82 01       		.uleb128 0x1
 2673 0f83 50       		.byte	0x50
 2674 0f84 01       		.uleb128 0x1
 2675 0f85 34       		.byte	0x34
 2676 0f86 00       		.byte	0
 2677 0f87 2D       		.uleb128 0x2d
 2678 0f88 08010000 		.4byte	.LVL36
 2679 0f8c AF120000 		.4byte	0x12af
 2680 0f90 A30F0000 		.4byte	0xfa3
 2681 0f94 2E       		.uleb128 0x2e
 2682 0f95 01       		.uleb128 0x1
 2683 0f96 50       		.byte	0x50
 2684 0f97 05       		.uleb128 0x5
 2685 0f98 03       		.byte	0x3
 2686 0f99 00000000 		.4byte	.LANCHOR0
 2687 0f9d 2E       		.uleb128 0x2e
 2688 0f9e 01       		.uleb128 0x1
 2689 0f9f 51       		.byte	0x51
 2690 0fa0 01       		.uleb128 0x1
 2691 0fa1 41       		.byte	0x41
 2692 0fa2 00       		.byte	0
 2693 0fa3 2D       		.uleb128 0x2d
 2694 0fa4 12010000 		.4byte	.LVL39
 2695 0fa8 AF120000 		.4byte	0x12af
 2696 0fac BF0F0000 		.4byte	0xfbf
 2697 0fb0 2E       		.uleb128 0x2e
 2698 0fb1 01       		.uleb128 0x1
 2699 0fb2 50       		.byte	0x50
 2700 0fb3 05       		.uleb128 0x5
 2701 0fb4 03       		.byte	0x3
 2702 0fb5 00000000 		.4byte	.LANCHOR0
 2703 0fb9 2E       		.uleb128 0x2e
 2704 0fba 01       		.uleb128 0x1
 2705 0fbb 51       		.byte	0x51
 2706 0fbc 01       		.uleb128 0x1
 2707 0fbd 40       		.byte	0x40
 2708 0fbe 00       		.byte	0
 2709 0fbf 2C       		.uleb128 0x2c
 2710 0fc0 1C010000 		.4byte	.LVL41
 2711 0fc4 C7120000 		.4byte	0x12c7
 2712 0fc8 2D       		.uleb128 0x2d
 2713 0fc9 24010000 		.4byte	.LVL42
 2714 0fcd A3120000 		.4byte	0x12a3
 2715 0fd1 E50F0000 		.4byte	0xfe5
 2716 0fd5 2E       		.uleb128 0x2e
 2717 0fd6 01       		.uleb128 0x1
 2718 0fd7 50       		.byte	0x50
 2719 0fd8 05       		.uleb128 0x5
 2720 0fd9 03       		.byte	0x3
 2721 0fda 00000000 		.4byte	.LANCHOR0
 2722 0fde 2E       		.uleb128 0x2e
 2723 0fdf 01       		.uleb128 0x1
 2724 0fe0 51       		.byte	0x51
 2725 0fe1 02       		.uleb128 0x2
 2726 0fe2 91       		.byte	0x91
 2727 0fe3 64       		.sleb128 -28
 2728 0fe4 00       		.byte	0
ARM GAS  /tmp/ccZrRhiO.s 			page 49


 2729 0fe5 2D       		.uleb128 0x2d
 2730 0fe6 34010000 		.4byte	.LVL43
 2731 0fea BB120000 		.4byte	0x12bb
 2732 0fee F80F0000 		.4byte	0xff8
 2733 0ff2 2E       		.uleb128 0x2e
 2734 0ff3 01       		.uleb128 0x1
 2735 0ff4 50       		.byte	0x50
 2736 0ff5 01       		.uleb128 0x1
 2737 0ff6 35       		.byte	0x35
 2738 0ff7 00       		.byte	0
 2739 0ff8 2D       		.uleb128 0x2d
 2740 0ff9 42010000 		.4byte	.LVL44
 2741 0ffd AF120000 		.4byte	0x12af
 2742 1001 14100000 		.4byte	0x1014
 2743 1005 2E       		.uleb128 0x2e
 2744 1006 01       		.uleb128 0x1
 2745 1007 50       		.byte	0x50
 2746 1008 05       		.uleb128 0x5
 2747 1009 03       		.byte	0x3
 2748 100a 00000000 		.4byte	.LANCHOR0
 2749 100e 2E       		.uleb128 0x2e
 2750 100f 01       		.uleb128 0x1
 2751 1010 51       		.byte	0x51
 2752 1011 01       		.uleb128 0x1
 2753 1012 40       		.byte	0x40
 2754 1013 00       		.byte	0
 2755 1014 2D       		.uleb128 0x2d
 2756 1015 4C010000 		.4byte	.LVL46
 2757 1019 A3120000 		.4byte	0x12a3
 2758 101d 31100000 		.4byte	0x1031
 2759 1021 2E       		.uleb128 0x2e
 2760 1022 01       		.uleb128 0x1
 2761 1023 50       		.byte	0x50
 2762 1024 05       		.uleb128 0x5
 2763 1025 03       		.byte	0x3
 2764 1026 00000000 		.4byte	.LANCHOR0
 2765 102a 2E       		.uleb128 0x2e
 2766 102b 01       		.uleb128 0x1
 2767 102c 51       		.byte	0x51
 2768 102d 02       		.uleb128 0x2
 2769 102e 91       		.byte	0x91
 2770 102f 64       		.sleb128 -28
 2771 1030 00       		.byte	0
 2772 1031 2D       		.uleb128 0x2d
 2773 1032 5A010000 		.4byte	.LVL47
 2774 1036 A3120000 		.4byte	0x12a3
 2775 103a 4E100000 		.4byte	0x104e
 2776 103e 2E       		.uleb128 0x2e
 2777 103f 01       		.uleb128 0x1
 2778 1040 50       		.byte	0x50
 2779 1041 05       		.uleb128 0x5
 2780 1042 03       		.byte	0x3
 2781 1043 00000000 		.4byte	.LANCHOR0
 2782 1047 2E       		.uleb128 0x2e
 2783 1048 01       		.uleb128 0x1
 2784 1049 51       		.byte	0x51
 2785 104a 02       		.uleb128 0x2
ARM GAS  /tmp/ccZrRhiO.s 			page 50


 2786 104b 91       		.byte	0x91
 2787 104c 64       		.sleb128 -28
 2788 104d 00       		.byte	0
 2789 104e 2D       		.uleb128 0x2d
 2790 104f 6A010000 		.4byte	.LVL48
 2791 1053 BB120000 		.4byte	0x12bb
 2792 1057 61100000 		.4byte	0x1061
 2793 105b 2E       		.uleb128 0x2e
 2794 105c 01       		.uleb128 0x1
 2795 105d 50       		.byte	0x50
 2796 105e 01       		.uleb128 0x1
 2797 105f 36       		.byte	0x36
 2798 1060 00       		.byte	0
 2799 1061 2D       		.uleb128 0x2d
 2800 1062 76010000 		.4byte	.LVL49
 2801 1066 C7120000 		.4byte	0x12c7
 2802 106a 75100000 		.4byte	0x1075
 2803 106e 2E       		.uleb128 0x2e
 2804 106f 01       		.uleb128 0x1
 2805 1070 50       		.byte	0x50
 2806 1071 02       		.uleb128 0x2
 2807 1072 74       		.byte	0x74
 2808 1073 00       		.sleb128 0
 2809 1074 00       		.byte	0
 2810 1075 2D       		.uleb128 0x2d
 2811 1076 7C010000 		.4byte	.LVL50
 2812 107a C7120000 		.4byte	0x12c7
 2813 107e 89100000 		.4byte	0x1089
 2814 1082 2E       		.uleb128 0x2e
 2815 1083 01       		.uleb128 0x1
 2816 1084 50       		.byte	0x50
 2817 1085 02       		.uleb128 0x2
 2818 1086 75       		.byte	0x75
 2819 1087 00       		.sleb128 0
 2820 1088 00       		.byte	0
 2821 1089 2D       		.uleb128 0x2d
 2822 108a 84010000 		.4byte	.LVL51
 2823 108e A3120000 		.4byte	0x12a3
 2824 1092 A6100000 		.4byte	0x10a6
 2825 1096 2E       		.uleb128 0x2e
 2826 1097 01       		.uleb128 0x1
 2827 1098 50       		.byte	0x50
 2828 1099 05       		.uleb128 0x5
 2829 109a 03       		.byte	0x3
 2830 109b 00000000 		.4byte	.LANCHOR0
 2831 109f 2E       		.uleb128 0x2e
 2832 10a0 01       		.uleb128 0x1
 2833 10a1 51       		.byte	0x51
 2834 10a2 02       		.uleb128 0x2
 2835 10a3 91       		.byte	0x91
 2836 10a4 64       		.sleb128 -28
 2837 10a5 00       		.byte	0
 2838 10a6 2D       		.uleb128 0x2d
 2839 10a7 94010000 		.4byte	.LVL52
 2840 10ab BB120000 		.4byte	0x12bb
 2841 10af B9100000 		.4byte	0x10b9
 2842 10b3 2E       		.uleb128 0x2e
ARM GAS  /tmp/ccZrRhiO.s 			page 51


 2843 10b4 01       		.uleb128 0x1
 2844 10b5 50       		.byte	0x50
 2845 10b6 01       		.uleb128 0x1
 2846 10b7 37       		.byte	0x37
 2847 10b8 00       		.byte	0
 2848 10b9 2D       		.uleb128 0x2d
 2849 10ba A2010000 		.4byte	.LVL53
 2850 10be AF120000 		.4byte	0x12af
 2851 10c2 D5100000 		.4byte	0x10d5
 2852 10c6 2E       		.uleb128 0x2e
 2853 10c7 01       		.uleb128 0x1
 2854 10c8 50       		.byte	0x50
 2855 10c9 05       		.uleb128 0x5
 2856 10ca 03       		.byte	0x3
 2857 10cb 00000000 		.4byte	.LANCHOR0
 2858 10cf 2E       		.uleb128 0x2e
 2859 10d0 01       		.uleb128 0x1
 2860 10d1 51       		.byte	0x51
 2861 10d2 01       		.uleb128 0x1
 2862 10d3 40       		.byte	0x40
 2863 10d4 00       		.byte	0
 2864 10d5 2D       		.uleb128 0x2d
 2865 10d6 AC010000 		.4byte	.LVL56
 2866 10da AF120000 		.4byte	0x12af
 2867 10de F1100000 		.4byte	0x10f1
 2868 10e2 2E       		.uleb128 0x2e
 2869 10e3 01       		.uleb128 0x1
 2870 10e4 50       		.byte	0x50
 2871 10e5 05       		.uleb128 0x5
 2872 10e6 03       		.byte	0x3
 2873 10e7 00000000 		.4byte	.LANCHOR0
 2874 10eb 2E       		.uleb128 0x2e
 2875 10ec 01       		.uleb128 0x1
 2876 10ed 51       		.byte	0x51
 2877 10ee 01       		.uleb128 0x1
 2878 10ef 40       		.byte	0x40
 2879 10f0 00       		.byte	0
 2880 10f1 2C       		.uleb128 0x2c
 2881 10f2 B6010000 		.4byte	.LVL58
 2882 10f6 C7120000 		.4byte	0x12c7
 2883 10fa 2D       		.uleb128 0x2d
 2884 10fb BE010000 		.4byte	.LVL59
 2885 10ff A3120000 		.4byte	0x12a3
 2886 1103 17110000 		.4byte	0x1117
 2887 1107 2E       		.uleb128 0x2e
 2888 1108 01       		.uleb128 0x1
 2889 1109 50       		.byte	0x50
 2890 110a 05       		.uleb128 0x5
 2891 110b 03       		.byte	0x3
 2892 110c 00000000 		.4byte	.LANCHOR0
 2893 1110 2E       		.uleb128 0x2e
 2894 1111 01       		.uleb128 0x1
 2895 1112 51       		.byte	0x51
 2896 1113 02       		.uleb128 0x2
 2897 1114 91       		.byte	0x91
 2898 1115 64       		.sleb128 -28
 2899 1116 00       		.byte	0
ARM GAS  /tmp/ccZrRhiO.s 			page 52


 2900 1117 2D       		.uleb128 0x2d
 2901 1118 CE010000 		.4byte	.LVL60
 2902 111c BB120000 		.4byte	0x12bb
 2903 1120 2A110000 		.4byte	0x112a
 2904 1124 2E       		.uleb128 0x2e
 2905 1125 01       		.uleb128 0x1
 2906 1126 50       		.byte	0x50
 2907 1127 01       		.uleb128 0x1
 2908 1128 38       		.byte	0x38
 2909 1129 00       		.byte	0
 2910 112a 2D       		.uleb128 0x2d
 2911 112b DC010000 		.4byte	.LVL61
 2912 112f AF120000 		.4byte	0x12af
 2913 1133 47110000 		.4byte	0x1147
 2914 1137 2E       		.uleb128 0x2e
 2915 1138 01       		.uleb128 0x1
 2916 1139 50       		.byte	0x50
 2917 113a 05       		.uleb128 0x5
 2918 113b 03       		.byte	0x3
 2919 113c 00000000 		.4byte	.LANCHOR0
 2920 1140 2E       		.uleb128 0x2e
 2921 1141 01       		.uleb128 0x1
 2922 1142 51       		.byte	0x51
 2923 1143 02       		.uleb128 0x2
 2924 1144 08       		.byte	0x8
 2925 1145 20       		.byte	0x20
 2926 1146 00       		.byte	0
 2927 1147 2C       		.uleb128 0x2c
 2928 1148 E0010000 		.4byte	.LVL62
 2929 114c C7120000 		.4byte	0x12c7
 2930 1150 2D       		.uleb128 0x2d
 2931 1151 E6010000 		.4byte	.LVL63
 2932 1155 C7120000 		.4byte	0x12c7
 2933 1159 64110000 		.4byte	0x1164
 2934 115d 2E       		.uleb128 0x2e
 2935 115e 01       		.uleb128 0x1
 2936 115f 50       		.byte	0x50
 2937 1160 02       		.uleb128 0x2
 2938 1161 74       		.byte	0x74
 2939 1162 00       		.sleb128 0
 2940 1163 00       		.byte	0
 2941 1164 2D       		.uleb128 0x2d
 2942 1165 EE010000 		.4byte	.LVL64
 2943 1169 A3120000 		.4byte	0x12a3
 2944 116d 81110000 		.4byte	0x1181
 2945 1171 2E       		.uleb128 0x2e
 2946 1172 01       		.uleb128 0x1
 2947 1173 50       		.byte	0x50
 2948 1174 05       		.uleb128 0x5
 2949 1175 03       		.byte	0x3
 2950 1176 00000000 		.4byte	.LANCHOR0
 2951 117a 2E       		.uleb128 0x2e
 2952 117b 01       		.uleb128 0x1
 2953 117c 51       		.byte	0x51
 2954 117d 02       		.uleb128 0x2
 2955 117e 91       		.byte	0x91
 2956 117f 64       		.sleb128 -28
ARM GAS  /tmp/ccZrRhiO.s 			page 53


 2957 1180 00       		.byte	0
 2958 1181 2D       		.uleb128 0x2d
 2959 1182 FE010000 		.4byte	.LVL65
 2960 1186 BB120000 		.4byte	0x12bb
 2961 118a 94110000 		.4byte	0x1194
 2962 118e 2E       		.uleb128 0x2e
 2963 118f 01       		.uleb128 0x1
 2964 1190 50       		.byte	0x50
 2965 1191 01       		.uleb128 0x1
 2966 1192 39       		.byte	0x39
 2967 1193 00       		.byte	0
 2968 1194 2D       		.uleb128 0x2d
 2969 1195 0C020000 		.4byte	.LVL66
 2970 1199 A3120000 		.4byte	0x12a3
 2971 119d B1110000 		.4byte	0x11b1
 2972 11a1 2E       		.uleb128 0x2e
 2973 11a2 01       		.uleb128 0x1
 2974 11a3 50       		.byte	0x50
 2975 11a4 05       		.uleb128 0x5
 2976 11a5 03       		.byte	0x3
 2977 11a6 00000000 		.4byte	.LANCHOR0
 2978 11aa 2E       		.uleb128 0x2e
 2979 11ab 01       		.uleb128 0x1
 2980 11ac 51       		.byte	0x51
 2981 11ad 02       		.uleb128 0x2
 2982 11ae 91       		.byte	0x91
 2983 11af 64       		.sleb128 -28
 2984 11b0 00       		.byte	0
 2985 11b1 2D       		.uleb128 0x2d
 2986 11b2 14020000 		.4byte	.LVL67
 2987 11b6 AF120000 		.4byte	0x12af
 2988 11ba C8110000 		.4byte	0x11c8
 2989 11be 2E       		.uleb128 0x2e
 2990 11bf 01       		.uleb128 0x1
 2991 11c0 50       		.byte	0x50
 2992 11c1 05       		.uleb128 0x5
 2993 11c2 03       		.byte	0x3
 2994 11c3 00000000 		.4byte	.LANCHOR0
 2995 11c7 00       		.byte	0
 2996 11c8 2D       		.uleb128 0x2d
 2997 11c9 1E020000 		.4byte	.LVL70
 2998 11cd A3120000 		.4byte	0x12a3
 2999 11d1 E5110000 		.4byte	0x11e5
 3000 11d5 2E       		.uleb128 0x2e
 3001 11d6 01       		.uleb128 0x1
 3002 11d7 50       		.byte	0x50
 3003 11d8 05       		.uleb128 0x5
 3004 11d9 03       		.byte	0x3
 3005 11da 00000000 		.4byte	.LANCHOR0
 3006 11de 2E       		.uleb128 0x2e
 3007 11df 01       		.uleb128 0x1
 3008 11e0 51       		.byte	0x51
 3009 11e1 02       		.uleb128 0x2
 3010 11e2 91       		.byte	0x91
 3011 11e3 64       		.sleb128 -28
 3012 11e4 00       		.byte	0
 3013 11e5 2D       		.uleb128 0x2d
ARM GAS  /tmp/ccZrRhiO.s 			page 54


 3014 11e6 2A020000 		.4byte	.LVL71
 3015 11ea BB120000 		.4byte	0x12bb
 3016 11ee F8110000 		.4byte	0x11f8
 3017 11f2 2E       		.uleb128 0x2e
 3018 11f3 01       		.uleb128 0x1
 3019 11f4 50       		.byte	0x50
 3020 11f5 01       		.uleb128 0x1
 3021 11f6 3A       		.byte	0x3a
 3022 11f7 00       		.byte	0
 3023 11f8 2D       		.uleb128 0x2d
 3024 11f9 36020000 		.4byte	.LVL72
 3025 11fd C7120000 		.4byte	0x12c7
 3026 1201 0C120000 		.4byte	0x120c
 3027 1205 2E       		.uleb128 0x2e
 3028 1206 01       		.uleb128 0x1
 3029 1207 50       		.byte	0x50
 3030 1208 02       		.uleb128 0x2
 3031 1209 74       		.byte	0x74
 3032 120a 00       		.sleb128 0
 3033 120b 00       		.byte	0
 3034 120c 2D       		.uleb128 0x2d
 3035 120d 3E020000 		.4byte	.LVL73
 3036 1211 A3120000 		.4byte	0x12a3
 3037 1215 29120000 		.4byte	0x1229
 3038 1219 2E       		.uleb128 0x2e
 3039 121a 01       		.uleb128 0x1
 3040 121b 50       		.byte	0x50
 3041 121c 05       		.uleb128 0x5
 3042 121d 03       		.byte	0x3
 3043 121e 00000000 		.4byte	.LANCHOR0
 3044 1222 2E       		.uleb128 0x2e
 3045 1223 01       		.uleb128 0x1
 3046 1224 51       		.byte	0x51
 3047 1225 02       		.uleb128 0x2
 3048 1226 91       		.byte	0x91
 3049 1227 64       		.sleb128 -28
 3050 1228 00       		.byte	0
 3051 1229 2D       		.uleb128 0x2d
 3052 122a 4A020000 		.4byte	.LVL74
 3053 122e BB120000 		.4byte	0x12bb
 3054 1232 3C120000 		.4byte	0x123c
 3055 1236 2E       		.uleb128 0x2e
 3056 1237 01       		.uleb128 0x1
 3057 1238 50       		.byte	0x50
 3058 1239 01       		.uleb128 0x1
 3059 123a 3B       		.byte	0x3b
 3060 123b 00       		.byte	0
 3061 123c 2D       		.uleb128 0x2d
 3062 123d 60020000 		.4byte	.LVL75
 3063 1241 BB120000 		.4byte	0x12bb
 3064 1245 4F120000 		.4byte	0x124f
 3065 1249 2E       		.uleb128 0x2e
 3066 124a 01       		.uleb128 0x1
 3067 124b 50       		.byte	0x50
 3068 124c 01       		.uleb128 0x1
 3069 124d 3C       		.byte	0x3c
 3070 124e 00       		.byte	0
ARM GAS  /tmp/ccZrRhiO.s 			page 55


 3071 124f 2C       		.uleb128 0x2c
 3072 1250 66020000 		.4byte	.LVL77
 3073 1254 D3120000 		.4byte	0x12d3
 3074 1258 00       		.byte	0
 3075 1259 29       		.uleb128 0x29
 3076 125a 76060000 		.4byte	.LASF179
 3077 125e 01       		.byte	0x1
 3078 125f 40       		.byte	0x40
 3079 1260 0D       		.byte	0xd
 3080 1261 00000000 		.4byte	.LFB219
 3081 1265 3C000000 		.4byte	.LFE219-.LFB219
 3082 1269 01       		.uleb128 0x1
 3083 126a 9C       		.byte	0x9c
 3084 126b 97120000 		.4byte	0x1297
 3085 126f 2F       		.uleb128 0x2f
 3086 1270 2A000000 		.4byte	.LVL78
 3087 1274 DC120000 		.4byte	0x12dc
 3088 1278 8D120000 		.4byte	0x128d
 3089 127c 2E       		.uleb128 0x2e
 3090 127d 01       		.uleb128 0x1
 3091 127e 50       		.byte	0x50
 3092 127f 05       		.uleb128 0x5
 3093 1280 03       		.byte	0x3
 3094 1281 00000000 		.4byte	.LANCHOR0
 3095 1285 2E       		.uleb128 0x2e
 3096 1286 01       		.uleb128 0x1
 3097 1287 52       		.byte	0x52
 3098 1288 03       		.uleb128 0x3
 3099 1289 0A       		.byte	0xa
 3100 128a D809     		.2byte	0x9d8
 3101 128c 00       		.byte	0
 3102 128d 2C       		.uleb128 0x2c
 3103 128e 2E000000 		.4byte	.LVL79
 3104 1292 D3120000 		.4byte	0x12d3
 3105 1296 00       		.byte	0
 3106 1297 30       		.uleb128 0x30
 3107 1298 BB000000 		.4byte	.LASF180
 3108 129c BB000000 		.4byte	.LASF180
 3109 12a0 11       		.byte	0x11
 3110 12a1 64       		.byte	0x64
 3111 12a2 0A       		.byte	0xa
 3112 12a3 30       		.uleb128 0x30
 3113 12a4 DF070000 		.4byte	.LASF181
 3114 12a8 DF070000 		.4byte	.LASF181
 3115 12ac 12       		.byte	0x12
 3116 12ad 69       		.byte	0x69
 3117 12ae 0A       		.byte	0xa
 3118 12af 30       		.uleb128 0x30
 3119 12b0 36070000 		.4byte	.LASF182
 3120 12b4 36070000 		.4byte	.LASF182
 3121 12b8 12       		.byte	0x12
 3122 12b9 67       		.byte	0x67
 3123 12ba 09       		.byte	0x9
 3124 12bb 30       		.uleb128 0x30
 3125 12bc E0080000 		.4byte	.LASF183
 3126 12c0 E0080000 		.4byte	.LASF183
 3127 12c4 13       		.byte	0x13
ARM GAS  /tmp/ccZrRhiO.s 			page 56


 3128 12c5 5A       		.byte	0x5a
 3129 12c6 08       		.byte	0x8
 3130 12c7 30       		.uleb128 0x30
 3131 12c8 9F010000 		.4byte	.LASF184
 3132 12cc 9F010000 		.4byte	.LASF184
 3133 12d0 12       		.byte	0x12
 3134 12d1 68       		.byte	0x68
 3135 12d2 08       		.byte	0x8
 3136 12d3 31       		.uleb128 0x31
 3137 12d4 4F070000 		.4byte	.LASF189
 3138 12d8 4F070000 		.4byte	.LASF189
 3139 12dc 30       		.uleb128 0x30
 3140 12dd 09040000 		.4byte	.LASF185
 3141 12e1 09040000 		.4byte	.LASF185
 3142 12e5 12       		.byte	0x12
 3143 12e6 66       		.byte	0x66
 3144 12e7 08       		.byte	0x8
 3145 12e8 00       		.byte	0
 3146              		.section	.debug_abbrev,"",%progbits
 3147              	.Ldebug_abbrev0:
 3148 0000 01       		.uleb128 0x1
 3149 0001 11       		.uleb128 0x11
 3150 0002 01       		.byte	0x1
 3151 0003 25       		.uleb128 0x25
 3152 0004 0E       		.uleb128 0xe
 3153 0005 13       		.uleb128 0x13
 3154 0006 0B       		.uleb128 0xb
 3155 0007 03       		.uleb128 0x3
 3156 0008 0E       		.uleb128 0xe
 3157 0009 1B       		.uleb128 0x1b
 3158 000a 0E       		.uleb128 0xe
 3159 000b 55       		.uleb128 0x55
 3160 000c 17       		.uleb128 0x17
 3161 000d 11       		.uleb128 0x11
 3162 000e 01       		.uleb128 0x1
 3163 000f 10       		.uleb128 0x10
 3164 0010 17       		.uleb128 0x17
 3165 0011 00       		.byte	0
 3166 0012 00       		.byte	0
 3167 0013 02       		.uleb128 0x2
 3168 0014 24       		.uleb128 0x24
 3169 0015 00       		.byte	0
 3170 0016 0B       		.uleb128 0xb
 3171 0017 0B       		.uleb128 0xb
 3172 0018 3E       		.uleb128 0x3e
 3173 0019 0B       		.uleb128 0xb
 3174 001a 03       		.uleb128 0x3
 3175 001b 08       		.uleb128 0x8
 3176 001c 00       		.byte	0
 3177 001d 00       		.byte	0
 3178 001e 03       		.uleb128 0x3
 3179 001f 16       		.uleb128 0x16
 3180 0020 00       		.byte	0
 3181 0021 03       		.uleb128 0x3
 3182 0022 0E       		.uleb128 0xe
 3183 0023 3A       		.uleb128 0x3a
 3184 0024 0B       		.uleb128 0xb
ARM GAS  /tmp/ccZrRhiO.s 			page 57


 3185 0025 3B       		.uleb128 0x3b
 3186 0026 0B       		.uleb128 0xb
 3187 0027 39       		.uleb128 0x39
 3188 0028 0B       		.uleb128 0xb
 3189 0029 49       		.uleb128 0x49
 3190 002a 13       		.uleb128 0x13
 3191 002b 00       		.byte	0
 3192 002c 00       		.byte	0
 3193 002d 04       		.uleb128 0x4
 3194 002e 24       		.uleb128 0x24
 3195 002f 00       		.byte	0
 3196 0030 0B       		.uleb128 0xb
 3197 0031 0B       		.uleb128 0xb
 3198 0032 3E       		.uleb128 0x3e
 3199 0033 0B       		.uleb128 0xb
 3200 0034 03       		.uleb128 0x3
 3201 0035 0E       		.uleb128 0xe
 3202 0036 00       		.byte	0
 3203 0037 00       		.byte	0
 3204 0038 05       		.uleb128 0x5
 3205 0039 35       		.uleb128 0x35
 3206 003a 00       		.byte	0
 3207 003b 49       		.uleb128 0x49
 3208 003c 13       		.uleb128 0x13
 3209 003d 00       		.byte	0
 3210 003e 00       		.byte	0
 3211 003f 06       		.uleb128 0x6
 3212 0040 13       		.uleb128 0x13
 3213 0041 01       		.byte	0x1
 3214 0042 03       		.uleb128 0x3
 3215 0043 0E       		.uleb128 0xe
 3216 0044 0B       		.uleb128 0xb
 3217 0045 0B       		.uleb128 0xb
 3218 0046 3A       		.uleb128 0x3a
 3219 0047 0B       		.uleb128 0xb
 3220 0048 3B       		.uleb128 0x3b
 3221 0049 0B       		.uleb128 0xb
 3222 004a 39       		.uleb128 0x39
 3223 004b 0B       		.uleb128 0xb
 3224 004c 01       		.uleb128 0x1
 3225 004d 13       		.uleb128 0x13
 3226 004e 00       		.byte	0
 3227 004f 00       		.byte	0
 3228 0050 07       		.uleb128 0x7
 3229 0051 0D       		.uleb128 0xd
 3230 0052 00       		.byte	0
 3231 0053 03       		.uleb128 0x3
 3232 0054 0E       		.uleb128 0xe
 3233 0055 3A       		.uleb128 0x3a
 3234 0056 0B       		.uleb128 0xb
 3235 0057 3B       		.uleb128 0x3b
 3236 0058 0B       		.uleb128 0xb
 3237 0059 39       		.uleb128 0x39
 3238 005a 0B       		.uleb128 0xb
 3239 005b 49       		.uleb128 0x49
 3240 005c 13       		.uleb128 0x13
 3241 005d 38       		.uleb128 0x38
ARM GAS  /tmp/ccZrRhiO.s 			page 58


 3242 005e 0B       		.uleb128 0xb
 3243 005f 00       		.byte	0
 3244 0060 00       		.byte	0
 3245 0061 08       		.uleb128 0x8
 3246 0062 0D       		.uleb128 0xd
 3247 0063 00       		.byte	0
 3248 0064 03       		.uleb128 0x3
 3249 0065 08       		.uleb128 0x8
 3250 0066 3A       		.uleb128 0x3a
 3251 0067 0B       		.uleb128 0xb
 3252 0068 3B       		.uleb128 0x3b
 3253 0069 05       		.uleb128 0x5
 3254 006a 39       		.uleb128 0x39
 3255 006b 0B       		.uleb128 0xb
 3256 006c 49       		.uleb128 0x49
 3257 006d 13       		.uleb128 0x13
 3258 006e 38       		.uleb128 0x38
 3259 006f 0B       		.uleb128 0xb
 3260 0070 00       		.byte	0
 3261 0071 00       		.byte	0
 3262 0072 09       		.uleb128 0x9
 3263 0073 0D       		.uleb128 0xd
 3264 0074 00       		.byte	0
 3265 0075 03       		.uleb128 0x3
 3266 0076 0E       		.uleb128 0xe
 3267 0077 3A       		.uleb128 0x3a
 3268 0078 0B       		.uleb128 0xb
 3269 0079 3B       		.uleb128 0x3b
 3270 007a 05       		.uleb128 0x5
 3271 007b 39       		.uleb128 0x39
 3272 007c 0B       		.uleb128 0xb
 3273 007d 49       		.uleb128 0x49
 3274 007e 13       		.uleb128 0x13
 3275 007f 38       		.uleb128 0x38
 3276 0080 0B       		.uleb128 0xb
 3277 0081 00       		.byte	0
 3278 0082 00       		.byte	0
 3279 0083 0A       		.uleb128 0xa
 3280 0084 0F       		.uleb128 0xf
 3281 0085 00       		.byte	0
 3282 0086 0B       		.uleb128 0xb
 3283 0087 0B       		.uleb128 0xb
 3284 0088 49       		.uleb128 0x49
 3285 0089 13       		.uleb128 0x13
 3286 008a 00       		.byte	0
 3287 008b 00       		.byte	0
 3288 008c 0B       		.uleb128 0xb
 3289 008d 13       		.uleb128 0x13
 3290 008e 01       		.byte	0x1
 3291 008f 03       		.uleb128 0x3
 3292 0090 0E       		.uleb128 0xe
 3293 0091 0B       		.uleb128 0xb
 3294 0092 0B       		.uleb128 0xb
 3295 0093 3A       		.uleb128 0x3a
 3296 0094 0B       		.uleb128 0xb
 3297 0095 3B       		.uleb128 0x3b
 3298 0096 05       		.uleb128 0x5
ARM GAS  /tmp/ccZrRhiO.s 			page 59


 3299 0097 39       		.uleb128 0x39
 3300 0098 0B       		.uleb128 0xb
 3301 0099 01       		.uleb128 0x1
 3302 009a 13       		.uleb128 0x13
 3303 009b 00       		.byte	0
 3304 009c 00       		.byte	0
 3305 009d 0C       		.uleb128 0xc
 3306 009e 15       		.uleb128 0x15
 3307 009f 01       		.byte	0x1
 3308 00a0 27       		.uleb128 0x27
 3309 00a1 19       		.uleb128 0x19
 3310 00a2 01       		.uleb128 0x1
 3311 00a3 13       		.uleb128 0x13
 3312 00a4 00       		.byte	0
 3313 00a5 00       		.byte	0
 3314 00a6 0D       		.uleb128 0xd
 3315 00a7 05       		.uleb128 0x5
 3316 00a8 00       		.byte	0
 3317 00a9 49       		.uleb128 0x49
 3318 00aa 13       		.uleb128 0x13
 3319 00ab 00       		.byte	0
 3320 00ac 00       		.byte	0
 3321 00ad 0E       		.uleb128 0xe
 3322 00ae 0F       		.uleb128 0xf
 3323 00af 00       		.byte	0
 3324 00b0 0B       		.uleb128 0xb
 3325 00b1 0B       		.uleb128 0xb
 3326 00b2 00       		.byte	0
 3327 00b3 00       		.byte	0
 3328 00b4 0F       		.uleb128 0xf
 3329 00b5 26       		.uleb128 0x26
 3330 00b6 00       		.byte	0
 3331 00b7 49       		.uleb128 0x49
 3332 00b8 13       		.uleb128 0x13
 3333 00b9 00       		.byte	0
 3334 00ba 00       		.byte	0
 3335 00bb 10       		.uleb128 0x10
 3336 00bc 13       		.uleb128 0x13
 3337 00bd 01       		.byte	0x1
 3338 00be 03       		.uleb128 0x3
 3339 00bf 0E       		.uleb128 0xe
 3340 00c0 0B       		.uleb128 0xb
 3341 00c1 05       		.uleb128 0x5
 3342 00c2 3A       		.uleb128 0x3a
 3343 00c3 0B       		.uleb128 0xb
 3344 00c4 3B       		.uleb128 0x3b
 3345 00c5 05       		.uleb128 0x5
 3346 00c6 39       		.uleb128 0x39
 3347 00c7 0B       		.uleb128 0xb
 3348 00c8 01       		.uleb128 0x1
 3349 00c9 13       		.uleb128 0x13
 3350 00ca 00       		.byte	0
 3351 00cb 00       		.byte	0
 3352 00cc 11       		.uleb128 0x11
 3353 00cd 0D       		.uleb128 0xd
 3354 00ce 00       		.byte	0
 3355 00cf 03       		.uleb128 0x3
ARM GAS  /tmp/ccZrRhiO.s 			page 60


 3356 00d0 0E       		.uleb128 0xe
 3357 00d1 3A       		.uleb128 0x3a
 3358 00d2 0B       		.uleb128 0xb
 3359 00d3 3B       		.uleb128 0x3b
 3360 00d4 05       		.uleb128 0x5
 3361 00d5 39       		.uleb128 0x39
 3362 00d6 0B       		.uleb128 0xb
 3363 00d7 49       		.uleb128 0x49
 3364 00d8 13       		.uleb128 0x13
 3365 00d9 38       		.uleb128 0x38
 3366 00da 05       		.uleb128 0x5
 3367 00db 00       		.byte	0
 3368 00dc 00       		.byte	0
 3369 00dd 12       		.uleb128 0x12
 3370 00de 0D       		.uleb128 0xd
 3371 00df 00       		.byte	0
 3372 00e0 03       		.uleb128 0x3
 3373 00e1 08       		.uleb128 0x8
 3374 00e2 3A       		.uleb128 0x3a
 3375 00e3 0B       		.uleb128 0xb
 3376 00e4 3B       		.uleb128 0x3b
 3377 00e5 05       		.uleb128 0x5
 3378 00e6 39       		.uleb128 0x39
 3379 00e7 0B       		.uleb128 0xb
 3380 00e8 49       		.uleb128 0x49
 3381 00e9 13       		.uleb128 0x13
 3382 00ea 38       		.uleb128 0x38
 3383 00eb 05       		.uleb128 0x5
 3384 00ec 00       		.byte	0
 3385 00ed 00       		.byte	0
 3386 00ee 13       		.uleb128 0x13
 3387 00ef 34       		.uleb128 0x34
 3388 00f0 00       		.byte	0
 3389 00f1 03       		.uleb128 0x3
 3390 00f2 0E       		.uleb128 0xe
 3391 00f3 3A       		.uleb128 0x3a
 3392 00f4 0B       		.uleb128 0xb
 3393 00f5 3B       		.uleb128 0x3b
 3394 00f6 05       		.uleb128 0x5
 3395 00f7 39       		.uleb128 0x39
 3396 00f8 0B       		.uleb128 0xb
 3397 00f9 49       		.uleb128 0x49
 3398 00fa 13       		.uleb128 0x13
 3399 00fb 3F       		.uleb128 0x3f
 3400 00fc 19       		.uleb128 0x19
 3401 00fd 3C       		.uleb128 0x3c
 3402 00fe 19       		.uleb128 0x19
 3403 00ff 00       		.byte	0
 3404 0100 00       		.byte	0
 3405 0101 14       		.uleb128 0x14
 3406 0102 34       		.uleb128 0x34
 3407 0103 00       		.byte	0
 3408 0104 03       		.uleb128 0x3
 3409 0105 0E       		.uleb128 0xe
 3410 0106 3A       		.uleb128 0x3a
 3411 0107 0B       		.uleb128 0xb
 3412 0108 3B       		.uleb128 0x3b
ARM GAS  /tmp/ccZrRhiO.s 			page 61


 3413 0109 0B       		.uleb128 0xb
 3414 010a 39       		.uleb128 0x39
 3415 010b 0B       		.uleb128 0xb
 3416 010c 49       		.uleb128 0x49
 3417 010d 13       		.uleb128 0x13
 3418 010e 3F       		.uleb128 0x3f
 3419 010f 19       		.uleb128 0x19
 3420 0110 3C       		.uleb128 0x3c
 3421 0111 19       		.uleb128 0x19
 3422 0112 00       		.byte	0
 3423 0113 00       		.byte	0
 3424 0114 15       		.uleb128 0x15
 3425 0115 0D       		.uleb128 0xd
 3426 0116 00       		.byte	0
 3427 0117 03       		.uleb128 0x3
 3428 0118 08       		.uleb128 0x8
 3429 0119 3A       		.uleb128 0x3a
 3430 011a 0B       		.uleb128 0xb
 3431 011b 3B       		.uleb128 0x3b
 3432 011c 0B       		.uleb128 0xb
 3433 011d 39       		.uleb128 0x39
 3434 011e 0B       		.uleb128 0xb
 3435 011f 49       		.uleb128 0x49
 3436 0120 13       		.uleb128 0x13
 3437 0121 38       		.uleb128 0x38
 3438 0122 0B       		.uleb128 0xb
 3439 0123 00       		.byte	0
 3440 0124 00       		.byte	0
 3441 0125 16       		.uleb128 0x16
 3442 0126 13       		.uleb128 0x13
 3443 0127 01       		.byte	0x1
 3444 0128 0B       		.uleb128 0xb
 3445 0129 0B       		.uleb128 0xb
 3446 012a 3A       		.uleb128 0x3a
 3447 012b 0B       		.uleb128 0xb
 3448 012c 3B       		.uleb128 0x3b
 3449 012d 0B       		.uleb128 0xb
 3450 012e 39       		.uleb128 0x39
 3451 012f 0B       		.uleb128 0xb
 3452 0130 01       		.uleb128 0x1
 3453 0131 13       		.uleb128 0x13
 3454 0132 00       		.byte	0
 3455 0133 00       		.byte	0
 3456 0134 17       		.uleb128 0x17
 3457 0135 13       		.uleb128 0x13
 3458 0136 01       		.byte	0x1
 3459 0137 0B       		.uleb128 0xb
 3460 0138 05       		.uleb128 0x5
 3461 0139 3A       		.uleb128 0x3a
 3462 013a 0B       		.uleb128 0xb
 3463 013b 3B       		.uleb128 0x3b
 3464 013c 0B       		.uleb128 0xb
 3465 013d 39       		.uleb128 0x39
 3466 013e 0B       		.uleb128 0xb
 3467 013f 01       		.uleb128 0x1
 3468 0140 13       		.uleb128 0x13
 3469 0141 00       		.byte	0
ARM GAS  /tmp/ccZrRhiO.s 			page 62


 3470 0142 00       		.byte	0
 3471 0143 18       		.uleb128 0x18
 3472 0144 01       		.uleb128 0x1
 3473 0145 01       		.byte	0x1
 3474 0146 49       		.uleb128 0x49
 3475 0147 13       		.uleb128 0x13
 3476 0148 01       		.uleb128 0x1
 3477 0149 13       		.uleb128 0x13
 3478 014a 00       		.byte	0
 3479 014b 00       		.byte	0
 3480 014c 19       		.uleb128 0x19
 3481 014d 21       		.uleb128 0x21
 3482 014e 00       		.byte	0
 3483 014f 49       		.uleb128 0x49
 3484 0150 13       		.uleb128 0x13
 3485 0151 2F       		.uleb128 0x2f
 3486 0152 0B       		.uleb128 0xb
 3487 0153 00       		.byte	0
 3488 0154 00       		.byte	0
 3489 0155 1A       		.uleb128 0x1a
 3490 0156 17       		.uleb128 0x17
 3491 0157 01       		.byte	0x1
 3492 0158 0B       		.uleb128 0xb
 3493 0159 0B       		.uleb128 0xb
 3494 015a 3A       		.uleb128 0x3a
 3495 015b 0B       		.uleb128 0xb
 3496 015c 3B       		.uleb128 0x3b
 3497 015d 0B       		.uleb128 0xb
 3498 015e 39       		.uleb128 0x39
 3499 015f 0B       		.uleb128 0xb
 3500 0160 01       		.uleb128 0x1
 3501 0161 13       		.uleb128 0x13
 3502 0162 00       		.byte	0
 3503 0163 00       		.byte	0
 3504 0164 1B       		.uleb128 0x1b
 3505 0165 0D       		.uleb128 0xd
 3506 0166 00       		.byte	0
 3507 0167 03       		.uleb128 0x3
 3508 0168 0E       		.uleb128 0xe
 3509 0169 3A       		.uleb128 0x3a
 3510 016a 0B       		.uleb128 0xb
 3511 016b 3B       		.uleb128 0x3b
 3512 016c 05       		.uleb128 0x5
 3513 016d 39       		.uleb128 0x39
 3514 016e 0B       		.uleb128 0xb
 3515 016f 49       		.uleb128 0x49
 3516 0170 13       		.uleb128 0x13
 3517 0171 00       		.byte	0
 3518 0172 00       		.byte	0
 3519 0173 1C       		.uleb128 0x1c
 3520 0174 34       		.uleb128 0x34
 3521 0175 00       		.byte	0
 3522 0176 03       		.uleb128 0x3
 3523 0177 08       		.uleb128 0x8
 3524 0178 3A       		.uleb128 0x3a
 3525 0179 0B       		.uleb128 0xb
 3526 017a 3B       		.uleb128 0x3b
ARM GAS  /tmp/ccZrRhiO.s 			page 63


 3527 017b 05       		.uleb128 0x5
 3528 017c 39       		.uleb128 0x39
 3529 017d 0B       		.uleb128 0xb
 3530 017e 49       		.uleb128 0x49
 3531 017f 13       		.uleb128 0x13
 3532 0180 3F       		.uleb128 0x3f
 3533 0181 19       		.uleb128 0x19
 3534 0182 3C       		.uleb128 0x3c
 3535 0183 19       		.uleb128 0x19
 3536 0184 00       		.byte	0
 3537 0185 00       		.byte	0
 3538 0186 1D       		.uleb128 0x1d
 3539 0187 15       		.uleb128 0x15
 3540 0188 01       		.byte	0x1
 3541 0189 27       		.uleb128 0x27
 3542 018a 19       		.uleb128 0x19
 3543 018b 49       		.uleb128 0x49
 3544 018c 13       		.uleb128 0x13
 3545 018d 01       		.uleb128 0x1
 3546 018e 13       		.uleb128 0x13
 3547 018f 00       		.byte	0
 3548 0190 00       		.byte	0
 3549 0191 1E       		.uleb128 0x1e
 3550 0192 0D       		.uleb128 0xd
 3551 0193 00       		.byte	0
 3552 0194 03       		.uleb128 0x3
 3553 0195 0E       		.uleb128 0xe
 3554 0196 3A       		.uleb128 0x3a
 3555 0197 0B       		.uleb128 0xb
 3556 0198 3B       		.uleb128 0x3b
 3557 0199 0B       		.uleb128 0xb
 3558 019a 39       		.uleb128 0x39
 3559 019b 0B       		.uleb128 0xb
 3560 019c 49       		.uleb128 0x49
 3561 019d 13       		.uleb128 0x13
 3562 019e 00       		.byte	0
 3563 019f 00       		.byte	0
 3564 01a0 1F       		.uleb128 0x1f
 3565 01a1 17       		.uleb128 0x17
 3566 01a2 01       		.byte	0x1
 3567 01a3 03       		.uleb128 0x3
 3568 01a4 0E       		.uleb128 0xe
 3569 01a5 0B       		.uleb128 0xb
 3570 01a6 0B       		.uleb128 0xb
 3571 01a7 3A       		.uleb128 0x3a
 3572 01a8 0B       		.uleb128 0xb
 3573 01a9 3B       		.uleb128 0x3b
 3574 01aa 0B       		.uleb128 0xb
 3575 01ab 39       		.uleb128 0x39
 3576 01ac 0B       		.uleb128 0xb
 3577 01ad 01       		.uleb128 0x1
 3578 01ae 13       		.uleb128 0x13
 3579 01af 00       		.byte	0
 3580 01b0 00       		.byte	0
 3581 01b1 20       		.uleb128 0x20
 3582 01b2 0D       		.uleb128 0xd
 3583 01b3 00       		.byte	0
ARM GAS  /tmp/ccZrRhiO.s 			page 64


 3584 01b4 03       		.uleb128 0x3
 3585 01b5 08       		.uleb128 0x8
 3586 01b6 3A       		.uleb128 0x3a
 3587 01b7 0B       		.uleb128 0xb
 3588 01b8 3B       		.uleb128 0x3b
 3589 01b9 0B       		.uleb128 0xb
 3590 01ba 39       		.uleb128 0x39
 3591 01bb 0B       		.uleb128 0xb
 3592 01bc 49       		.uleb128 0x49
 3593 01bd 13       		.uleb128 0x13
 3594 01be 00       		.byte	0
 3595 01bf 00       		.byte	0
 3596 01c0 21       		.uleb128 0x21
 3597 01c1 15       		.uleb128 0x15
 3598 01c2 00       		.byte	0
 3599 01c3 27       		.uleb128 0x27
 3600 01c4 19       		.uleb128 0x19
 3601 01c5 00       		.byte	0
 3602 01c6 00       		.byte	0
 3603 01c7 22       		.uleb128 0x22
 3604 01c8 0D       		.uleb128 0xd
 3605 01c9 00       		.byte	0
 3606 01ca 03       		.uleb128 0x3
 3607 01cb 08       		.uleb128 0x8
 3608 01cc 3A       		.uleb128 0x3a
 3609 01cd 0B       		.uleb128 0xb
 3610 01ce 3B       		.uleb128 0x3b
 3611 01cf 0B       		.uleb128 0xb
 3612 01d0 39       		.uleb128 0x39
 3613 01d1 0B       		.uleb128 0xb
 3614 01d2 49       		.uleb128 0x49
 3615 01d3 13       		.uleb128 0x13
 3616 01d4 38       		.uleb128 0x38
 3617 01d5 05       		.uleb128 0x5
 3618 01d6 00       		.byte	0
 3619 01d7 00       		.byte	0
 3620 01d8 23       		.uleb128 0x23
 3621 01d9 17       		.uleb128 0x17
 3622 01da 01       		.byte	0x1
 3623 01db 03       		.uleb128 0x3
 3624 01dc 0E       		.uleb128 0xe
 3625 01dd 0B       		.uleb128 0xb
 3626 01de 05       		.uleb128 0x5
 3627 01df 3A       		.uleb128 0x3a
 3628 01e0 0B       		.uleb128 0xb
 3629 01e1 3B       		.uleb128 0x3b
 3630 01e2 0B       		.uleb128 0xb
 3631 01e3 39       		.uleb128 0x39
 3632 01e4 0B       		.uleb128 0xb
 3633 01e5 01       		.uleb128 0x1
 3634 01e6 13       		.uleb128 0x13
 3635 01e7 00       		.byte	0
 3636 01e8 00       		.byte	0
 3637 01e9 24       		.uleb128 0x24
 3638 01ea 21       		.uleb128 0x21
 3639 01eb 00       		.byte	0
 3640 01ec 49       		.uleb128 0x49
ARM GAS  /tmp/ccZrRhiO.s 			page 65


 3641 01ed 13       		.uleb128 0x13
 3642 01ee 2F       		.uleb128 0x2f
 3643 01ef 05       		.uleb128 0x5
 3644 01f0 00       		.byte	0
 3645 01f1 00       		.byte	0
 3646 01f2 25       		.uleb128 0x25
 3647 01f3 21       		.uleb128 0x21
 3648 01f4 00       		.byte	0
 3649 01f5 00       		.byte	0
 3650 01f6 00       		.byte	0
 3651 01f7 26       		.uleb128 0x26
 3652 01f8 34       		.uleb128 0x34
 3653 01f9 00       		.byte	0
 3654 01fa 03       		.uleb128 0x3
 3655 01fb 08       		.uleb128 0x8
 3656 01fc 3A       		.uleb128 0x3a
 3657 01fd 0B       		.uleb128 0xb
 3658 01fe 3B       		.uleb128 0x3b
 3659 01ff 0B       		.uleb128 0xb
 3660 0200 39       		.uleb128 0x39
 3661 0201 0B       		.uleb128 0xb
 3662 0202 49       		.uleb128 0x49
 3663 0203 13       		.uleb128 0x13
 3664 0204 3F       		.uleb128 0x3f
 3665 0205 19       		.uleb128 0x19
 3666 0206 3C       		.uleb128 0x3c
 3667 0207 19       		.uleb128 0x19
 3668 0208 00       		.byte	0
 3669 0209 00       		.byte	0
 3670 020a 27       		.uleb128 0x27
 3671 020b 34       		.uleb128 0x34
 3672 020c 00       		.byte	0
 3673 020d 03       		.uleb128 0x3
 3674 020e 0E       		.uleb128 0xe
 3675 020f 3A       		.uleb128 0x3a
 3676 0210 0B       		.uleb128 0xb
 3677 0211 3B       		.uleb128 0x3b
 3678 0212 0B       		.uleb128 0xb
 3679 0213 39       		.uleb128 0x39
 3680 0214 0B       		.uleb128 0xb
 3681 0215 49       		.uleb128 0x49
 3682 0216 13       		.uleb128 0x13
 3683 0217 02       		.uleb128 0x2
 3684 0218 18       		.uleb128 0x18
 3685 0219 00       		.byte	0
 3686 021a 00       		.byte	0
 3687 021b 28       		.uleb128 0x28
 3688 021c 34       		.uleb128 0x34
 3689 021d 00       		.byte	0
 3690 021e 03       		.uleb128 0x3
 3691 021f 0E       		.uleb128 0xe
 3692 0220 3A       		.uleb128 0x3a
 3693 0221 0B       		.uleb128 0xb
 3694 0222 3B       		.uleb128 0x3b
 3695 0223 0B       		.uleb128 0xb
 3696 0224 39       		.uleb128 0x39
 3697 0225 0B       		.uleb128 0xb
ARM GAS  /tmp/ccZrRhiO.s 			page 66


 3698 0226 49       		.uleb128 0x49
 3699 0227 13       		.uleb128 0x13
 3700 0228 3F       		.uleb128 0x3f
 3701 0229 19       		.uleb128 0x19
 3702 022a 02       		.uleb128 0x2
 3703 022b 18       		.uleb128 0x18
 3704 022c 00       		.byte	0
 3705 022d 00       		.byte	0
 3706 022e 29       		.uleb128 0x29
 3707 022f 2E       		.uleb128 0x2e
 3708 0230 01       		.byte	0x1
 3709 0231 03       		.uleb128 0x3
 3710 0232 0E       		.uleb128 0xe
 3711 0233 3A       		.uleb128 0x3a
 3712 0234 0B       		.uleb128 0xb
 3713 0235 3B       		.uleb128 0x3b
 3714 0236 0B       		.uleb128 0xb
 3715 0237 39       		.uleb128 0x39
 3716 0238 0B       		.uleb128 0xb
 3717 0239 27       		.uleb128 0x27
 3718 023a 19       		.uleb128 0x19
 3719 023b 11       		.uleb128 0x11
 3720 023c 01       		.uleb128 0x1
 3721 023d 12       		.uleb128 0x12
 3722 023e 06       		.uleb128 0x6
 3723 023f 40       		.uleb128 0x40
 3724 0240 18       		.uleb128 0x18
 3725 0241 9742     		.uleb128 0x2117
 3726 0243 19       		.uleb128 0x19
 3727 0244 01       		.uleb128 0x1
 3728 0245 13       		.uleb128 0x13
 3729 0246 00       		.byte	0
 3730 0247 00       		.byte	0
 3731 0248 2A       		.uleb128 0x2a
 3732 0249 34       		.uleb128 0x34
 3733 024a 00       		.byte	0
 3734 024b 03       		.uleb128 0x3
 3735 024c 08       		.uleb128 0x8
 3736 024d 3A       		.uleb128 0x3a
 3737 024e 0B       		.uleb128 0xb
 3738 024f 3B       		.uleb128 0x3b
 3739 0250 0B       		.uleb128 0xb
 3740 0251 39       		.uleb128 0x39
 3741 0252 0B       		.uleb128 0xb
 3742 0253 49       		.uleb128 0x49
 3743 0254 13       		.uleb128 0x13
 3744 0255 02       		.uleb128 0x2
 3745 0256 17       		.uleb128 0x17
 3746 0257 B742     		.uleb128 0x2137
 3747 0259 17       		.uleb128 0x17
 3748 025a 00       		.byte	0
 3749 025b 00       		.byte	0
 3750 025c 2B       		.uleb128 0x2b
 3751 025d 34       		.uleb128 0x34
 3752 025e 00       		.byte	0
 3753 025f 03       		.uleb128 0x3
 3754 0260 08       		.uleb128 0x8
ARM GAS  /tmp/ccZrRhiO.s 			page 67


 3755 0261 3A       		.uleb128 0x3a
 3756 0262 0B       		.uleb128 0xb
 3757 0263 3B       		.uleb128 0x3b
 3758 0264 0B       		.uleb128 0xb
 3759 0265 39       		.uleb128 0x39
 3760 0266 0B       		.uleb128 0xb
 3761 0267 49       		.uleb128 0x49
 3762 0268 13       		.uleb128 0x13
 3763 0269 02       		.uleb128 0x2
 3764 026a 18       		.uleb128 0x18
 3765 026b 00       		.byte	0
 3766 026c 00       		.byte	0
 3767 026d 2C       		.uleb128 0x2c
 3768 026e 898201   		.uleb128 0x4109
 3769 0271 00       		.byte	0
 3770 0272 11       		.uleb128 0x11
 3771 0273 01       		.uleb128 0x1
 3772 0274 31       		.uleb128 0x31
 3773 0275 13       		.uleb128 0x13
 3774 0276 00       		.byte	0
 3775 0277 00       		.byte	0
 3776 0278 2D       		.uleb128 0x2d
 3777 0279 898201   		.uleb128 0x4109
 3778 027c 01       		.byte	0x1
 3779 027d 11       		.uleb128 0x11
 3780 027e 01       		.uleb128 0x1
 3781 027f 31       		.uleb128 0x31
 3782 0280 13       		.uleb128 0x13
 3783 0281 01       		.uleb128 0x1
 3784 0282 13       		.uleb128 0x13
 3785 0283 00       		.byte	0
 3786 0284 00       		.byte	0
 3787 0285 2E       		.uleb128 0x2e
 3788 0286 8A8201   		.uleb128 0x410a
 3789 0289 00       		.byte	0
 3790 028a 02       		.uleb128 0x2
 3791 028b 18       		.uleb128 0x18
 3792 028c 9142     		.uleb128 0x2111
 3793 028e 18       		.uleb128 0x18
 3794 028f 00       		.byte	0
 3795 0290 00       		.byte	0
 3796 0291 2F       		.uleb128 0x2f
 3797 0292 898201   		.uleb128 0x4109
 3798 0295 01       		.byte	0x1
 3799 0296 11       		.uleb128 0x11
 3800 0297 01       		.uleb128 0x1
 3801 0298 9542     		.uleb128 0x2115
 3802 029a 19       		.uleb128 0x19
 3803 029b 31       		.uleb128 0x31
 3804 029c 13       		.uleb128 0x13
 3805 029d 01       		.uleb128 0x1
 3806 029e 13       		.uleb128 0x13
 3807 029f 00       		.byte	0
 3808 02a0 00       		.byte	0
 3809 02a1 30       		.uleb128 0x30
 3810 02a2 2E       		.uleb128 0x2e
 3811 02a3 00       		.byte	0
ARM GAS  /tmp/ccZrRhiO.s 			page 68


 3812 02a4 3F       		.uleb128 0x3f
 3813 02a5 19       		.uleb128 0x19
 3814 02a6 3C       		.uleb128 0x3c
 3815 02a7 19       		.uleb128 0x19
 3816 02a8 6E       		.uleb128 0x6e
 3817 02a9 0E       		.uleb128 0xe
 3818 02aa 03       		.uleb128 0x3
 3819 02ab 0E       		.uleb128 0xe
 3820 02ac 3A       		.uleb128 0x3a
 3821 02ad 0B       		.uleb128 0xb
 3822 02ae 3B       		.uleb128 0x3b
 3823 02af 0B       		.uleb128 0xb
 3824 02b0 39       		.uleb128 0x39
 3825 02b1 0B       		.uleb128 0xb
 3826 02b2 00       		.byte	0
 3827 02b3 00       		.byte	0
 3828 02b4 31       		.uleb128 0x31
 3829 02b5 2E       		.uleb128 0x2e
 3830 02b6 00       		.byte	0
 3831 02b7 3F       		.uleb128 0x3f
 3832 02b8 19       		.uleb128 0x19
 3833 02b9 3C       		.uleb128 0x3c
 3834 02ba 19       		.uleb128 0x19
 3835 02bb 6E       		.uleb128 0x6e
 3836 02bc 0E       		.uleb128 0xe
 3837 02bd 03       		.uleb128 0x3
 3838 02be 0E       		.uleb128 0xe
 3839 02bf 00       		.byte	0
 3840 02c0 00       		.byte	0
 3841 02c1 00       		.byte	0
 3842              		.section	.debug_loc,"",%progbits
 3843              	.Ldebug_loc0:
 3844              	.LVUS0:
 3845 0000 00       		.uleb128 .LVU12
 3846 0001 00       		.uleb128 .LVU13
 3847 0002 00       		.uleb128 .LVU13
 3848 0003 00       		.uleb128 .LVU14
 3849 0004 00       		.uleb128 .LVU15
 3850 0005 00       		.uleb128 .LVU19
 3851 0006 00       		.uleb128 .LVU19
 3852 0007 00       		.uleb128 .LVU20
 3853 0008 00       		.uleb128 .LVU29
 3854 0009 00       		.uleb128 .LVU47
 3855 000a 00       		.uleb128 .LVU47
 3856 000b 00       		.uleb128 .LVU63
 3857 000c 00       		.uleb128 .LVU63
 3858 000d 00       		.uleb128 .LVU65
 3859 000e 00       		.uleb128 .LVU65
 3860 000f 00       		.uleb128 .LVU68
 3861 0010 00       		.uleb128 .LVU68
 3862 0011 00       		.uleb128 .LVU69
 3863 0012 00       		.uleb128 .LVU76
 3864 0013 00       		.uleb128 .LVU87
 3865 0014 00       		.uleb128 .LVU87
 3866 0015 00       		.uleb128 .LVU89
 3867 0016 00       		.uleb128 .LVU89
 3868 0017 00       		.uleb128 .LVU92
ARM GAS  /tmp/ccZrRhiO.s 			page 69


 3869 0018 00       		.uleb128 .LVU92
 3870 0019 00       		.uleb128 .LVU93
 3871 001a 00       		.uleb128 .LVU97
 3872 001b 00       		.uleb128 .LVU98
 3873 001c 00       		.uleb128 .LVU108
 3874 001d 00       		.uleb128 .LVU115
 3875              	.LLST0:
 3876 001e 26000000 		.4byte	.LVL3
 3877 0022 2C000000 		.4byte	.LVL4
 3878 0026 0100     		.2byte	0x1
 3879 0028 50       		.byte	0x50
 3880 0029 2C000000 		.4byte	.LVL4
 3881 002d 32000000 		.4byte	.LVL6
 3882 0031 0100     		.2byte	0x1
 3883 0033 55       		.byte	0x55
 3884 0034 42000000 		.4byte	.LVL7
 3885 0038 54000000 		.4byte	.LVL9
 3886 003c 0100     		.2byte	0x1
 3887 003e 55       		.byte	0x55
 3888 003f 54000000 		.4byte	.LVL9
 3889 0043 5C000000 		.4byte	.LVL10
 3890 0047 0100     		.2byte	0x1
 3891 0049 50       		.byte	0x50
 3892 004a 7A000000 		.4byte	.LVL14
 3893 004e C6000000 		.4byte	.LVL26
 3894 0052 0100     		.2byte	0x1
 3895 0054 56       		.byte	0x56
 3896 0055 C6000000 		.4byte	.LVL26
 3897 0059 0C010000 		.4byte	.LVL37
 3898 005d 0100     		.2byte	0x1
 3899 005f 54       		.byte	0x54
 3900 0060 0C010000 		.4byte	.LVL37
 3901 0064 0E010000 		.4byte	.LVL38
 3902 0068 0100     		.2byte	0x1
 3903 006a 50       		.byte	0x50
 3904 006b 0E010000 		.4byte	.LVL38
 3905 006f 18010000 		.4byte	.LVL40
 3906 0073 0100     		.2byte	0x1
 3907 0075 54       		.byte	0x54
 3908 0076 18010000 		.4byte	.LVL40
 3909 007a 1B010000 		.4byte	.LVL41-1
 3910 007e 0100     		.2byte	0x1
 3911 0080 50       		.byte	0x50
 3912 0081 48010000 		.4byte	.LVL45
 3913 0085 A6010000 		.4byte	.LVL54
 3914 0089 0100     		.2byte	0x1
 3915 008b 55       		.byte	0x55
 3916 008c A6010000 		.4byte	.LVL54
 3917 0090 A8010000 		.4byte	.LVL55
 3918 0094 0100     		.2byte	0x1
 3919 0096 50       		.byte	0x50
 3920 0097 A8010000 		.4byte	.LVL55
 3921 009b B2010000 		.4byte	.LVL57
 3922 009f 0100     		.2byte	0x1
 3923 00a1 54       		.byte	0x54
 3924 00a2 B2010000 		.4byte	.LVL57
 3925 00a6 B5010000 		.4byte	.LVL58-1
ARM GAS  /tmp/ccZrRhiO.s 			page 70


 3926 00aa 0100     		.2byte	0x1
 3927 00ac 50       		.byte	0x50
 3928 00ad DC010000 		.4byte	.LVL61
 3929 00b1 DF010000 		.4byte	.LVL62-1
 3930 00b5 0100     		.2byte	0x1
 3931 00b7 50       		.byte	0x50
 3932 00b8 1A020000 		.4byte	.LVL69
 3933 00bc 62020000 		.4byte	.LVL76
 3934 00c0 0100     		.2byte	0x1
 3935 00c2 54       		.byte	0x54
 3936 00c3 00000000 		.4byte	0
 3937 00c7 00000000 		.4byte	0
 3938              	.LVUS1:
 3939 00cb 00       		.uleb128 .LVU34
 3940 00cc 00       		.uleb128 .LVU51
 3941 00cd 00       		.uleb128 .LVU52
 3942 00ce 00       		.uleb128 .LVU68
 3943 00cf 00       		.uleb128 .LVU68
 3944 00d0 00       		.uleb128 .LVU69
 3945 00d1 00       		.uleb128 .LVU69
 3946 00d2 00       		.uleb128 .LVU87
 3947 00d3 00       		.uleb128 .LVU92
 3948 00d4 00       		.uleb128 .LVU93
 3949 00d5 00       		.uleb128 .LVU93
 3950 00d6 00       		.uleb128 .LVU107
 3951              	.LLST1:
 3952 00d7 84000000 		.4byte	.LVL16
 3953 00db CE000000 		.4byte	.LVL28
 3954 00df 0100     		.2byte	0x1
 3955 00e1 55       		.byte	0x55
 3956 00e2 D0000000 		.4byte	.LVL29
 3957 00e6 18010000 		.4byte	.LVL40
 3958 00ea 0100     		.2byte	0x1
 3959 00ec 55       		.byte	0x55
 3960 00ed 18010000 		.4byte	.LVL40
 3961 00f1 1B010000 		.4byte	.LVL41-1
 3962 00f5 0100     		.2byte	0x1
 3963 00f7 53       		.byte	0x53
 3964 00f8 1B010000 		.4byte	.LVL41-1
 3965 00fc A6010000 		.4byte	.LVL54
 3966 0100 0100     		.2byte	0x1
 3967 0102 54       		.byte	0x54
 3968 0103 B2010000 		.4byte	.LVL57
 3969 0107 B5010000 		.4byte	.LVL58-1
 3970 010b 0100     		.2byte	0x1
 3971 010d 53       		.byte	0x53
 3972 010e B5010000 		.4byte	.LVL58-1
 3973 0112 18020000 		.4byte	.LVL68
 3974 0116 0100     		.2byte	0x1
 3975 0118 54       		.byte	0x54
 3976 0119 00000000 		.4byte	0
 3977 011d 00000000 		.4byte	0
 3978              	.LVUS2:
 3979 0121 00       		.uleb128 .LVU37
 3980 0122 00       		.uleb128 .LVU46
 3981 0123 00       		.uleb128 .LVU54
 3982 0124 00       		.uleb128 .LVU55
ARM GAS  /tmp/ccZrRhiO.s 			page 71


 3983              	.LLST2:
 3984 0125 8C000000 		.4byte	.LVL18
 3985 0129 C4000000 		.4byte	.LVL25
 3986 012d 0100     		.2byte	0x1
 3987 012f 54       		.byte	0x54
 3988 0130 D4000000 		.4byte	.LVL30
 3989 0134 D7000000 		.4byte	.LVL31-1
 3990 0138 0100     		.2byte	0x1
 3991 013a 50       		.byte	0x50
 3992 013b 00000000 		.4byte	0
 3993 013f 00000000 		.4byte	0
 3994              		.section	.debug_aranges,"",%progbits
 3995 0000 24000000 		.4byte	0x24
 3996 0004 0200     		.2byte	0x2
 3997 0006 00000000 		.4byte	.Ldebug_info0
 3998 000a 04       		.byte	0x4
 3999 000b 00       		.byte	0
 4000 000c 0000     		.2byte	0
 4001 000e 0000     		.2byte	0
 4002 0010 00000000 		.4byte	.LFB220
 4003 0014 70020000 		.4byte	.LFE220-.LFB220
 4004 0018 00000000 		.4byte	.LFB219
 4005 001c 3C000000 		.4byte	.LFE219-.LFB219
 4006 0020 00000000 		.4byte	0
 4007 0024 00000000 		.4byte	0
 4008              		.section	.debug_ranges,"",%progbits
 4009              	.Ldebug_ranges0:
 4010 0000 00000000 		.4byte	.LFB220
 4011 0004 70020000 		.4byte	.LFE220
 4012 0008 00000000 		.4byte	.LFB219
 4013 000c 3C000000 		.4byte	.LFE219
 4014 0010 00000000 		.4byte	0
 4015 0014 00000000 		.4byte	0
 4016              		.section	.debug_line,"",%progbits
 4017              	.Ldebug_line0:
 4018 0000 DF040000 		.section	.debug_str,"MS",%progbits,1
 4018      0300F101 
 4018      00000201 
 4018      FB0E0D00 
 4018      01010101 
 4019              	.LASF51:
 4020 0000 74687265 		.ascii	"threads_list_t\000"
 4020      6164735F 
 4020      6C697374 
 4020      5F7400
 4021              	.LASF56:
 4022 000f 72656164 		.ascii	"ready_list_t\000"
 4022      795F6C69 
 4022      73745F74 
 4022      00
 4023              	.LASF94:
 4024 001c 73655F74 		.ascii	"se_time\000"
 4024      696D6500 
 4025              	.LASF5:
 4026 0024 73697A65 		.ascii	"size_t\000"
 4026      5F7400
 4027              	.LASF158:
ARM GAS  /tmp/ccZrRhiO.s 			page 72


 4028 002b 6E657874 		.ascii	"next\000"
 4028      00
 4029              	.LASF115:
 4030 0030 7264796D 		.ascii	"rdymsg\000"
 4030      736700
 4031              	.LASF14:
 4032 0037 75696E74 		.ascii	"uint64_t\000"
 4032      36345F74 
 4032      00
 4033              	.LASF86:
 4034 0040 6B65726E 		.ascii	"kernel_stats\000"
 4034      656C5F73 
 4034      74617473 
 4034      00
 4035              	.LASF93:
 4036 004d 706F7274 		.ascii	"port_intctx\000"
 4036      5F696E74 
 4036      63747800 
 4037              	.LASF55:
 4038 0059 63685F74 		.ascii	"ch_threads_queue\000"
 4038      68726561 
 4038      64735F71 
 4038      75657565 
 4038      00
 4039              	.LASF75:
 4040 006a 73797374 		.ascii	"system_debug_t\000"
 4040      656D5F64 
 4040      65627567 
 4040      5F7400
 4041              	.LASF106:
 4042 0079 776F7273 		.ascii	"worst\000"
 4042      7400
 4043              	.LASF109:
 4044 007f 74696D65 		.ascii	"time_measurement_t\000"
 4044      5F6D6561 
 4044      73757265 
 4044      6D656E74 
 4044      5F7400
 4045              	.LASF15:
 4046 0092 6C6F6E67 		.ascii	"long long unsigned int\000"
 4046      206C6F6E 
 4046      6720756E 
 4046      7369676E 
 4046      65642069 
 4047              	.LASF102:
 4048 00a9 63685F74 		.ascii	"ch_trace_buffer_t\000"
 4048      72616365 
 4048      5F627566 
 4048      6665725F 
 4048      7400
 4049              	.LASF180:
 4050 00bb 6368436F 		.ascii	"chCoreGetStatusX\000"
 4050      72654765 
 4050      74537461 
 4050      74757358 
 4050      00
 4051              	.LASF137:
ARM GAS  /tmp/ccZrRhiO.s 			page 73


 4052 00cc 63685F74 		.ascii	"ch_threadsize\000"
 4052      68726561 
 4052      6473697A 
 4052      6500
 4053              	.LASF116:
 4054 00da 65786974 		.ascii	"exitcode\000"
 4054      636F6465 
 4054      00
 4055              	.LASF156:
 4056 00e3 685F6672 		.ascii	"h_free\000"
 4056      656500
 4057              	.LASF173:
 4058 00ea 74657374 		.ascii	"test\000"
 4058      00
 4059              	.LASF72:
 4060 00ef 76697274 		.ascii	"virtual_timers_list_t\000"
 4060      75616C5F 
 4060      74696D65 
 4060      72735F6C 
 4060      6973745F 
 4061              	.LASF88:
 4062 0105 49544D5F 		.ascii	"ITM_RxBuffer\000"
 4062      52784275 
 4062      66666572 
 4062      00
 4063              	.LASF160:
 4064 0112 616C6967 		.ascii	"align\000"
 4064      6E00
 4065              	.LASF17:
 4066 0118 72747469 		.ascii	"rttime_t\000"
 4066      6D655F74 
 4066      00
 4067              	.LASF31:
 4068 0121 705F7072 		.ascii	"p_prio\000"
 4068      696F00
 4069              	.LASF144:
 4070 0128 63665F6F 		.ascii	"cf_off_state\000"
 4070      66665F73 
 4070      74617465 
 4070      00
 4071              	.LASF165:
 4072 0135 74656172 		.ascii	"teardown\000"
 4072      646F776E 
 4072      00
 4073              	.LASF176:
 4074 013e 70617474 		.ascii	"patternheap\000"
 4074      65726E68 
 4074      65617000 
 4075              	.LASF151:
 4076 014a 6D757465 		.ascii	"mutex_t\000"
 4076      785F7400 
 4077              	.LASF1:
 4078 0152 6C6F6E67 		.ascii	"long long int\000"
 4078      206C6F6E 
 4078      6720696E 
 4078      7400
 4079              	.LASF3:
ARM GAS  /tmp/ccZrRhiO.s 			page 74


 4080 0160 7369676E 		.ascii	"signed char\000"
 4080      65642063 
 4080      68617200 
 4081              	.LASF157:
 4082 016c 685F6D74 		.ascii	"h_mtx\000"
 4082      7800
 4083              	.LASF143:
 4084 0172 63665F6F 		.ascii	"cf_off_stklimit\000"
 4084      66665F73 
 4084      746B6C69 
 4084      6D697400 
 4085              	.LASF145:
 4086 0182 63665F6F 		.ascii	"cf_off_flags\000"
 4086      66665F66 
 4086      6C616773 
 4086      00
 4087              	.LASF48:
 4088 018f 705F6D70 		.ascii	"p_mpool\000"
 4088      6F6F6C00 
 4089              	.LASF126:
 4090 0197 6D5F7175 		.ascii	"m_queue\000"
 4090      65756500 
 4091              	.LASF184:
 4092 019f 63684865 		.ascii	"chHeapFree\000"
 4092      61704672 
 4092      656500
 4093              	.LASF84:
 4094 01aa 76746C69 		.ascii	"vtlist\000"
 4094      737400
 4095              	.LASF21:
 4096 01b1 74736C69 		.ascii	"tslices_t\000"
 4096      6365735F 
 4096      7400
 4097              	.LASF118:
 4098 01bb 77747472 		.ascii	"wttrp\000"
 4098      7000
 4099              	.LASF82:
 4100 01c1 63685F73 		.ascii	"ch_system\000"
 4100      79737465 
 4100      6D00
 4101              	.LASF7:
 4102 01cb 6C6F6E67 		.ascii	"long int\000"
 4102      20696E74 
 4102      00
 4103              	.LASF19:
 4104 01d4 74737461 		.ascii	"tstate_t\000"
 4104      74655F74 
 4104      00
 4105              	.LASF153:
 4106 01dd 6D656D6F 		.ascii	"memory_heap_t\000"
 4106      72795F68 
 4106      6561705F 
 4106      7400
 4107              	.LASF95:
 4108 01eb 73655F74 		.ascii	"se_tp\000"
 4108      7000
 4109              	.LASF149:
ARM GAS  /tmp/ccZrRhiO.s 			page 75


 4110 01f1 63686465 		.ascii	"chdebug_t\000"
 4110      6275675F 
 4110      7400
 4111              	.LASF169:
 4112 01fb 62756666 		.ascii	"buffer\000"
 4112      657200
 4113              	.LASF33:
 4114 0202 705F6E65 		.ascii	"p_newer\000"
 4114      77657200 
 4115              	.LASF123:
 4116 020a 735F7175 		.ascii	"s_queue\000"
 4116      65756500 
 4117              	.LASF76:
 4118 0212 63685F73 		.ascii	"ch_system_debug\000"
 4118      79737465 
 4118      6D5F6465 
 4118      62756700 
 4119              	.LASF99:
 4120 0222 74625F73 		.ascii	"tb_size\000"
 4120      697A6500 
 4121              	.LASF61:
 4122 022a 725F6E65 		.ascii	"r_newer\000"
 4122      77657200 
 4123              	.LASF90:
 4124 0232 72656761 		.ascii	"regarm_t\000"
 4124      726D5F74 
 4124      00
 4125              	.LASF68:
 4126 023b 76745F70 		.ascii	"vt_prev\000"
 4126      72657600 
 4127              	.LASF187:
 4128 0243 2E2F2F43 		.ascii	".//ChibiOS//test/rt/testheap.c\000"
 4128      68696269 
 4128      4F532F2F 
 4128      74657374 
 4128      2F72742F 
 4129              	.LASF129:
 4130 0262 6D5F636E 		.ascii	"m_cnt\000"
 4130      7400
 4131              	.LASF178:
 4132 0268 68656170 		.ascii	"heap1_execute\000"
 4132      315F6578 
 4132      65637574 
 4132      6500
 4133              	.LASF79:
 4134 0276 6C6F636B 		.ascii	"lock_cnt\000"
 4134      5F636E74 
 4134      00
 4135              	.LASF87:
 4136 027f 69646C65 		.ascii	"idle_thread_wa\000"
 4136      5F746872 
 4136      6561645F 
 4136      776100
 4137              	.LASF25:
 4138 028e 636E745F 		.ascii	"cnt_t\000"
 4138      7400
 4139              	.LASF36:
ARM GAS  /tmp/ccZrRhiO.s 			page 76


 4140 0294 705F7374 		.ascii	"p_stklimit\000"
 4140      6B6C696D 
 4140      697400
 4141              	.LASF0:
 4142 029f 756E7369 		.ascii	"unsigned int\000"
 4142      676E6564 
 4142      20696E74 
 4142      00
 4143              	.LASF67:
 4144 02ac 76745F6E 		.ascii	"vt_next\000"
 4144      65787400 
 4145              	.LASF10:
 4146 02b4 75696E74 		.ascii	"uint16_t\000"
 4146      31365F74 
 4146      00
 4147              	.LASF89:
 4148 02bd 53797374 		.ascii	"SystemCoreClock\000"
 4148      656D436F 
 4148      7265436C 
 4148      6F636B00 
 4149              	.LASF41:
 4150 02cd 705F7469 		.ascii	"p_time\000"
 4150      6D6500
 4151              	.LASF119:
 4152 02d4 77747365 		.ascii	"wtsemp\000"
 4152      6D7000
 4153              	.LASF141:
 4154 02db 63665F6F 		.ascii	"cf_off_older\000"
 4154      66665F6F 
 4154      6C646572 
 4154      00
 4155              	.LASF69:
 4156 02e8 76745F64 		.ascii	"vt_delta\000"
 4156      656C7461 
 4156      00
 4157              	.LASF43:
 4158 02f1 705F6D73 		.ascii	"p_msgqueue\000"
 4158      67717565 
 4158      756500
 4159              	.LASF150:
 4160 02fc 63685F64 		.ascii	"ch_debug\000"
 4160      65627567 
 4160      00
 4161              	.LASF110:
 4162 0305 6E5F6972 		.ascii	"n_irq\000"
 4162      7100
 4163              	.LASF188:
 4164 030b 2F686F6D 		.ascii	"/home/olof/Documents/MICRO-315/micro-315/tp4/lib/e-"
 4164      652F6F6C 
 4164      6F662F44 
 4164      6F63756D 
 4164      656E7473 
 4165 033e 7075636B 		.ascii	"puck2_main-processor\000"
 4165      325F6D61 
 4165      696E2D70 
 4165      726F6365 
 4165      73736F72 
ARM GAS  /tmp/ccZrRhiO.s 			page 77


 4166              	.LASF124:
 4167 0353 735F636E 		.ascii	"s_cnt\000"
 4167      7400
 4168              	.LASF163:
 4169 0359 6E616D65 		.ascii	"name\000"
 4169      00
 4170              	.LASF105:
 4171 035e 62657374 		.ascii	"best\000"
 4171      00
 4172              	.LASF11:
 4173 0363 73686F72 		.ascii	"short unsigned int\000"
 4173      7420756E 
 4173      7369676E 
 4173      65642069 
 4173      6E7400
 4174              	.LASF114:
 4175 0376 6B65726E 		.ascii	"kernel_stats_t\000"
 4175      656C5F73 
 4175      74617473 
 4175      5F7400
 4176              	.LASF52:
 4177 0385 63685F74 		.ascii	"ch_thread\000"
 4177      68726561 
 4177      6400
 4178              	.LASF85:
 4179 038f 6D61696E 		.ascii	"mainthread\000"
 4179      74687265 
 4179      616400
 4180              	.LASF23:
 4181 039a 6D73675F 		.ascii	"msg_t\000"
 4181      7400
 4182              	.LASF107:
 4183 03a0 6C617374 		.ascii	"last\000"
 4183      00
 4184              	.LASF26:
 4185 03a5 75636E74 		.ascii	"ucnt_t\000"
 4185      5F7400
 4186              	.LASF81:
 4187 03ac 63685F73 		.ascii	"ch_system_t\000"
 4187      79737465 
 4187      6D5F7400 
 4188              	.LASF139:
 4189 03b8 63665F6F 		.ascii	"cf_off_ctx\000"
 4189      66665F63 
 4189      747800
 4190              	.LASF148:
 4191 03c3 63665F6F 		.ascii	"cf_off_time\000"
 4191      66665F74 
 4191      696D6500 
 4192              	.LASF113:
 4193 03cf 6D5F6372 		.ascii	"m_crit_isr\000"
 4193      69745F69 
 4193      737200
 4194              	.LASF57:
 4195 03da 63685F72 		.ascii	"ch_ready_list\000"
 4195      65616479 
 4195      5F6C6973 
ARM GAS  /tmp/ccZrRhiO.s 			page 78


 4195      7400
 4196              	.LASF24:
 4197 03e8 6576656E 		.ascii	"eventmask_t\000"
 4197      746D6173 
 4197      6B5F7400 
 4198              	.LASF91:
 4199 03f4 73746B61 		.ascii	"stkalign_t\000"
 4199      6C69676E 
 4199      5F7400
 4200              	.LASF175:
 4201 03ff 74657374 		.ascii	"testheap1\000"
 4201      68656170 
 4201      3100
 4202              	.LASF185:
 4203 0409 63684865 		.ascii	"chHeapObjectInit\000"
 4203      61704F62 
 4203      6A656374 
 4203      496E6974 
 4203      00
 4204              	.LASF132:
 4205 041a 63685F7A 		.ascii	"ch_zero\000"
 4205      65726F00 
 4206              	.LASF146:
 4207 0422 63665F6F 		.ascii	"cf_off_refs\000"
 4207      66665F72 
 4207      65667300 
 4208              	.LASF59:
 4209 042e 725F7072 		.ascii	"r_prio\000"
 4209      696F00
 4210              	.LASF42:
 4211 0435 705F7761 		.ascii	"p_waiting\000"
 4211      6974696E 
 4211      6700
 4212              	.LASF16:
 4213 043f 7274636E 		.ascii	"rtcnt_t\000"
 4213      745F7400 
 4214              	.LASF73:
 4215 0447 63685F76 		.ascii	"ch_virtual_timers_list\000"
 4215      69727475 
 4215      616C5F74 
 4215      696D6572 
 4215      735F6C69 
 4216              	.LASF2:
 4217 045e 6C6F6E67 		.ascii	"long double\000"
 4217      20646F75 
 4217      626C6500 
 4218              	.LASF136:
 4219 046a 63685F74 		.ascii	"ch_timesize\000"
 4219      696D6573 
 4219      697A6500 
 4220              	.LASF100:
 4221 0476 74625F70 		.ascii	"tb_ptr\000"
 4221      747200
 4222              	.LASF98:
 4223 047d 63685F73 		.ascii	"ch_swc_event_t\000"
 4223      77635F65 
 4223      76656E74 
ARM GAS  /tmp/ccZrRhiO.s 			page 79


 4223      5F7400
 4224              	.LASF142:
 4225 048c 63665F6F 		.ascii	"cf_off_name\000"
 4225      66665F6E 
 4225      616D6500 
 4226              	.LASF34:
 4227 0498 705F6F6C 		.ascii	"p_older\000"
 4227      64657200 
 4228              	.LASF60:
 4229 04a0 725F6374 		.ascii	"r_ctx\000"
 4229      7800
 4230              	.LASF32:
 4231 04a6 705F6374 		.ascii	"p_ctx\000"
 4231      7800
 4232              	.LASF104:
 4233 04ac 746D5F63 		.ascii	"tm_calibration_t\000"
 4233      616C6962 
 4233      72617469 
 4233      6F6E5F74 
 4233      00
 4234              	.LASF164:
 4235 04bd 73657475 		.ascii	"setup\000"
 4235      7000
 4236              	.LASF186:
 4237 04c3 474E5520 		.ascii	"GNU C17 9.2.1 20191025 (release) [ARM/arm-9-branch "
 4237      43313720 
 4237      392E322E 
 4237      31203230 
 4237      31393130 
 4238 04f6 72657669 		.ascii	"revision 277599] -mcpu=cortex-m4 -mfloat-abi=hard -"
 4238      73696F6E 
 4238      20323737 
 4238      3539395D 
 4238      202D6D63 
 4239 0529 6D667075 		.ascii	"mfpu=fpv4-sp-d16 -mno-thumb-interwork -mthumb -marc"
 4239      3D667076 
 4239      342D7370 
 4239      2D643136 
 4239      202D6D6E 
 4240 055c 683D6172 		.ascii	"h=armv7e-m+fp -ggdb -O2 -fomit-frame-pointer -falig"
 4240      6D763765 
 4240      2D6D2B66 
 4240      70202D67 
 4240      67646220 
 4241 058f 6E2D6675 		.ascii	"n-functions=16 -fno-strict-aliasing -fstack-protect"
 4241      6E637469 
 4241      6F6E733D 
 4241      3136202D 
 4241      666E6F2D 
 4242 05c2 6F722D61 		.ascii	"or-all -ffunction-sections -fdata-sections -fno-com"
 4242      6C6C202D 
 4242      6666756E 
 4242      6374696F 
 4242      6E2D7365 
 4243 05f5 6D6F6E20 		.ascii	"mon -fsingle-precision-constant\000"
 4243      2D667369 
 4243      6E676C65 
ARM GAS  /tmp/ccZrRhiO.s 			page 80


 4243      2D707265 
 4243      63697369 
 4244              	.LASF63:
 4245 0615 725F6375 		.ascii	"r_current\000"
 4245      7272656E 
 4245      7400
 4246              	.LASF62:
 4247 061f 725F6F6C 		.ascii	"r_older\000"
 4247      64657200 
 4248              	.LASF108:
 4249 0627 63756D75 		.ascii	"cumulative\000"
 4249      6C617469 
 4249      766500
 4250              	.LASF20:
 4251 0632 74726566 		.ascii	"trefs_t\000"
 4251      735F7400 
 4252              	.LASF101:
 4253 063a 74625F62 		.ascii	"tb_buffer\000"
 4253      75666665 
 4253      7200
 4254              	.LASF135:
 4255 0644 63685F70 		.ascii	"ch_ptrsize\000"
 4255      74727369 
 4255      7A6500
 4256              	.LASF65:
 4257 064f 76697274 		.ascii	"virtual_timer_t\000"
 4257      75616C5F 
 4257      74696D65 
 4257      725F7400 
 4258              	.LASF30:
 4259 065f 705F7072 		.ascii	"p_prev\000"
 4259      657600
 4260              	.LASF166:
 4261 0666 65786563 		.ascii	"execute\000"
 4261      75746500 
 4262              	.LASF22:
 4263 066e 74707269 		.ascii	"tprio_t\000"
 4263      6F5F7400 
 4264              	.LASF179:
 4265 0676 68656170 		.ascii	"heap1_setup\000"
 4265      315F7365 
 4265      74757000 
 4266              	.LASF111:
 4267 0682 6E5F6374 		.ascii	"n_ctxswc\000"
 4267      78737763 
 4267      00
 4268              	.LASF171:
 4269 068b 5F426F6F 		.ascii	"_Bool\000"
 4269      6C00
 4270              	.LASF6:
 4271 0691 696E7433 		.ascii	"int32_t\000"
 4271      325F7400 
 4272              	.LASF9:
 4273 0699 756E7369 		.ascii	"unsigned char\000"
 4273      676E6564 
 4273      20636861 
 4273      7200
ARM GAS  /tmp/ccZrRhiO.s 			page 81


 4274              	.LASF167:
 4275 06a7 68656170 		.ascii	"heap_header\000"
 4275      5F686561 
 4275      64657200 
 4276              	.LASF46:
 4277 06b3 705F6D74 		.ascii	"p_mtxlist\000"
 4277      786C6973 
 4277      7400
 4278              	.LASF4:
 4279 06bd 73686F72 		.ascii	"short int\000"
 4279      7420696E 
 4279      7400
 4280              	.LASF37:
 4281 06c7 705F7374 		.ascii	"p_state\000"
 4281      61746500 
 4282              	.LASF40:
 4283 06cf 705F7072 		.ascii	"p_preempt\000"
 4283      65656D70 
 4283      7400
 4284              	.LASF172:
 4285 06d9 74687265 		.ascii	"threads\000"
 4285      61647300 
 4286              	.LASF174:
 4287 06e1 74657374 		.ascii	"test_timer_done\000"
 4287      5F74696D 
 4287      65725F64 
 4287      6F6E6500 
 4288              	.LASF121:
 4289 06f1 65776D61 		.ascii	"ewmask\000"
 4289      736B00
 4290              	.LASF29:
 4291 06f8 705F6E65 		.ascii	"p_next\000"
 4291      787400
 4292              	.LASF18:
 4293 06ff 746D6F64 		.ascii	"tmode_t\000"
 4293      655F7400 
 4294              	.LASF147:
 4295 0707 63665F6F 		.ascii	"cf_off_preempt\000"
 4295      66665F70 
 4295      7265656D 
 4295      707400
 4296              	.LASF38:
 4297 0716 705F666C 		.ascii	"p_flags\000"
 4297      61677300 
 4298              	.LASF49:
 4299 071e 705F7374 		.ascii	"p_stats\000"
 4299      61747300 
 4300              	.LASF54:
 4301 0726 74687265 		.ascii	"threads_queue_t\000"
 4301      6164735F 
 4301      71756575 
 4301      655F7400 
 4302              	.LASF182:
 4303 0736 63684865 		.ascii	"chHeapAlloc\000"
 4303      6170416C 
 4303      6C6F6300 
 4304              	.LASF140:
ARM GAS  /tmp/ccZrRhiO.s 			page 82


 4305 0742 63665F6F 		.ascii	"cf_off_newer\000"
 4305      66665F6E 
 4305      65776572 
 4305      00
 4306              	.LASF189:
 4307 074f 5F5F7374 		.ascii	"__stack_chk_fail\000"
 4307      61636B5F 
 4307      63686B5F 
 4307      6661696C 
 4307      00
 4308              	.LASF122:
 4309 0760 63685F73 		.ascii	"ch_semaphore\000"
 4309      656D6170 
 4309      686F7265 
 4309      00
 4310              	.LASF45:
 4311 076d 705F6570 		.ascii	"p_epending\000"
 4311      656E6469 
 4311      6E6700
 4312              	.LASF12:
 4313 0778 75696E74 		.ascii	"uint32_t\000"
 4313      33325F74 
 4313      00
 4314              	.LASF138:
 4315 0781 63665F6F 		.ascii	"cf_off_prio\000"
 4315      66665F70 
 4315      72696F00 
 4316              	.LASF58:
 4317 078d 725F7175 		.ascii	"r_queue\000"
 4317      65756500 
 4318              	.LASF53:
 4319 0795 63685F74 		.ascii	"ch_threads_list\000"
 4319      68726561 
 4319      64735F6C 
 4319      69737400 
 4320              	.LASF133:
 4321 07a5 63685F73 		.ascii	"ch_size\000"
 4321      697A6500 
 4322              	.LASF159:
 4323 07ad 68656170 		.ascii	"heap\000"
 4323      00
 4324              	.LASF13:
 4325 07b2 6C6F6E67 		.ascii	"long unsigned int\000"
 4325      20756E73 
 4325      69676E65 
 4325      6420696E 
 4325      7400
 4326              	.LASF130:
 4327 07c4 63686172 		.ascii	"char\000"
 4327      00
 4328              	.LASF120:
 4329 07c9 77746D74 		.ascii	"wtmtxp\000"
 4329      787000
 4330              	.LASF44:
 4331 07d0 705F6D73 		.ascii	"p_msg\000"
 4331      6700
 4332              	.LASF28:
ARM GAS  /tmp/ccZrRhiO.s 			page 83


 4333 07d6 74687265 		.ascii	"thread_t\000"
 4333      61645F74 
 4333      00
 4334              	.LASF181:
 4335 07df 63684865 		.ascii	"chHeapStatus\000"
 4335      61705374 
 4335      61747573 
 4335      00
 4336              	.LASF128:
 4337 07ec 6D5F6E65 		.ascii	"m_next\000"
 4337      787400
 4338              	.LASF27:
 4339 07f3 73797374 		.ascii	"systime_t\000"
 4339      696D655F 
 4339      7400
 4340              	.LASF47:
 4341 07fd 705F7265 		.ascii	"p_realprio\000"
 4341      616C7072 
 4341      696F00
 4342              	.LASF64:
 4343 0808 76746675 		.ascii	"vtfunc_t\000"
 4343      6E635F74 
 4343      00
 4344              	.LASF77:
 4345 0811 70616E69 		.ascii	"panic_msg\000"
 4345      635F6D73 
 4345      6700
 4346              	.LASF170:
 4347 081b 74657374 		.ascii	"test_global_fail\000"
 4347      5F676C6F 
 4347      62616C5F 
 4347      6661696C 
 4347      00
 4348              	.LASF103:
 4349 082c 6F666673 		.ascii	"offset\000"
 4349      657400
 4350              	.LASF92:
 4351 0833 636F6E74 		.ascii	"context\000"
 4351      65787400 
 4352              	.LASF66:
 4353 083b 63685F76 		.ascii	"ch_virtual_timer\000"
 4353      69727475 
 4353      616C5F74 
 4353      696D6572 
 4353      00
 4354              	.LASF152:
 4355 084c 6D656D67 		.ascii	"memgetfunc_t\000"
 4355      65746675 
 4355      6E635F74 
 4355      00
 4356              	.LASF71:
 4357 0859 76745F70 		.ascii	"vt_par\000"
 4357      617200
 4358              	.LASF162:
 4359 0860 74657374 		.ascii	"testcase\000"
 4359      63617365 
 4359      00
ARM GAS  /tmp/ccZrRhiO.s 			page 84


 4360              	.LASF168:
 4361 0869 74657374 		.ascii	"test_buffers\000"
 4361      5F627566 
 4361      66657273 
 4361      00
 4362              	.LASF125:
 4363 0876 63685F6D 		.ascii	"ch_mutex\000"
 4363      75746578 
 4363      00
 4364              	.LASF39:
 4365 087f 705F7265 		.ascii	"p_refs\000"
 4365      667300
 4366              	.LASF78:
 4367 0886 6973725F 		.ascii	"isr_cnt\000"
 4367      636E7400 
 4368              	.LASF97:
 4369 088e 73655F73 		.ascii	"se_state\000"
 4369      74617465 
 4369      00
 4370              	.LASF83:
 4371 0897 726C6973 		.ascii	"rlist\000"
 4371      7400
 4372              	.LASF8:
 4373 089d 75696E74 		.ascii	"uint8_t\000"
 4373      385F7400 
 4374              	.LASF177:
 4375 08a5 74657374 		.ascii	"test_heap\000"
 4375      5F686561 
 4375      7000
 4376              	.LASF155:
 4377 08af 685F7072 		.ascii	"h_provider\000"
 4377      6F766964 
 4377      657200
 4378              	.LASF50:
 4379 08ba 74687265 		.ascii	"thread_reference_t\000"
 4379      61645F72 
 4379      65666572 
 4379      656E6365 
 4379      5F7400
 4380              	.LASF117:
 4381 08cd 77746F62 		.ascii	"wtobjp\000"
 4381      6A7000
 4382              	.LASF35:
 4383 08d4 705F6E61 		.ascii	"p_name\000"
 4383      6D6500
 4384              	.LASF161:
 4385 08db 73697A65 		.ascii	"size\000"
 4385      00
 4386              	.LASF183:
 4387 08e0 5F746573 		.ascii	"_test_assert\000"
 4387      745F6173 
 4387      73657274 
 4387      00
 4388              	.LASF74:
 4389 08ed 76745F73 		.ascii	"vt_systime\000"
 4389      79737469 
 4389      6D6500
ARM GAS  /tmp/ccZrRhiO.s 			page 85


 4390              	.LASF80:
 4391 08f8 74726163 		.ascii	"trace_buffer\000"
 4391      655F6275 
 4391      66666572 
 4391      00
 4392              	.LASF134:
 4393 0905 63685F76 		.ascii	"ch_version\000"
 4393      65727369 
 4393      6F6E00
 4394              	.LASF112:
 4395 0910 6D5F6372 		.ascii	"m_crit_thd\000"
 4395      69745F74 
 4395      686400
 4396              	.LASF127:
 4397 091b 6D5F6F77 		.ascii	"m_owner\000"
 4397      6E657200 
 4398              	.LASF96:
 4399 0923 73655F77 		.ascii	"se_wtobjp\000"
 4399      746F626A 
 4399      7000
 4400              	.LASF131:
 4401 092d 63685F69 		.ascii	"ch_identifier\000"
 4401      64656E74 
 4401      69666965 
 4401      7200
 4402              	.LASF70:
 4403 093b 76745F66 		.ascii	"vt_func\000"
 4403      756E6300 
 4404              	.LASF154:
 4405 0943 6D656D6F 		.ascii	"memory_heap\000"
 4405      72795F68 
 4405      65617000 
 4406              		.ident	"GCC: (15:9-2019-q4-0ubuntu1) 9.2.1 20191025 (release) [ARM/arm-9-branch revision 277599]"
ARM GAS  /tmp/ccZrRhiO.s 			page 86


DEFINED SYMBOLS
                            *ABS*:0000000000000000 testheap.c
     /tmp/ccZrRhiO.s:18     .rodata.heap1_execute.cst4:0000000000000000 $d
     /tmp/ccZrRhiO.s:22     .text.heap1_execute:0000000000000000 $t
     /tmp/ccZrRhiO.s:30     .text.heap1_execute:0000000000000000 heap1_execute
     /tmp/ccZrRhiO.s:471    .text.heap1_execute:0000000000000268 $d
     /tmp/ccZrRhiO.s:477    .rodata.heap1_setup.cst4:0000000000000000 $d
     /tmp/ccZrRhiO.s:481    .text.heap1_setup:0000000000000000 $t
     /tmp/ccZrRhiO.s:488    .text.heap1_setup:0000000000000000 heap1_setup
     /tmp/ccZrRhiO.s:531    .text.heap1_setup:0000000000000030 $d
     /tmp/ccZrRhiO.s:554    .rodata.patternheap:0000000000000000 patternheap
     /tmp/ccZrRhiO.s:561    .rodata.testheap1:0000000000000000 testheap1
     /tmp/ccZrRhiO.s:540    .rodata.str1.4:0000000000000000 $d
     /tmp/ccZrRhiO.s:544    .bss.test_heap:0000000000000000 $d
     /tmp/ccZrRhiO.s:548    .bss.test_heap:0000000000000000 test_heap
     /tmp/ccZrRhiO.s:551    .rodata.patternheap:0000000000000000 $d
     /tmp/ccZrRhiO.s:558    .rodata.testheap1:0000000000000000 $d

UNDEFINED SYMBOLS
__stack_chk_guard
chCoreGetStatusX
chHeapStatus
chHeapAlloc
_test_assert
chHeapFree
__stack_chk_fail
chHeapObjectInit
test
