ARM GAS  /tmp/ccbULmAo.s 			page 1


   1              		.cpu cortex-m4
   2              		.eabi_attribute 27, 1
   3              		.eabi_attribute 28, 1
   4              		.eabi_attribute 20, 1
   5              		.eabi_attribute 21, 1
   6              		.eabi_attribute 23, 3
   7              		.eabi_attribute 24, 1
   8              		.eabi_attribute 25, 1
   9              		.eabi_attribute 26, 1
  10              		.eabi_attribute 30, 2
  11              		.eabi_attribute 34, 1
  12              		.eabi_attribute 18, 4
  13              		.file	"uc_usage.c"
  14              		.text
  15              	.Ltext0:
  16              		.cfi_sections	.debug_frame
  17              		.section	.rodata.chprintf.cst4,"aM",%progbits,4
  18              		.align	2
  19              	.LC0:
  20 0000 00000000 		.word	__stack_chk_guard
  21              		.section	.text.chprintf,"ax",%progbits
  22              		.align	1
  23              		.p2align 4,,15
  24              		.arch armv7e-m
  25              		.syntax unified
  26              		.thumb
  27              		.thumb_func
  28              		.fpu fpv4-sp-d16
  29              		.type	chprintf, %function
  30              	chprintf:
  31              	.LVL0:
  32              	.LFB219:
  33              		.file 1 ".//ChibiOS//os/hal/lib/streams/chprintf.h"
  34              		.loc 1 69 77 view -0
  35              		.cfi_startproc
  36              		@ args = 4, pretend = 12, frame = 8
  37              		@ frame_needed = 0, uses_anonymous_args = 1
  38              		.loc 1 69 77 is_stmt 0 view .LVU1
  39 0000 0EB4     		push	{r1, r2, r3}
  40              		.cfi_def_cfa_offset 12
  41              		.cfi_offset 1, -12
  42              		.cfi_offset 2, -8
  43              		.cfi_offset 3, -4
  44 0002 00B5     		push	{lr}
  45              		.cfi_def_cfa_offset 16
  46              		.cfi_offset 14, -16
  47 0004 82B0     		sub	sp, sp, #8
  48              		.cfi_def_cfa_offset 24
  49              		.loc 1 69 77 view .LVU2
  50 0006 03AA     		add	r2, sp, #12
  51 0008 0A4B     		ldr	r3, .L6
  52 000a 52F8041B 		ldr	r1, [r2], #4
  53 000e 1B68     		ldr	r3, [r3]
  54 0010 0193     		str	r3, [sp, #4]
  55 0012 4FF00003 		mov	r3,#0
  56              		.loc 1 70 3 is_stmt 1 view .LVU3
  57              		.loc 1 71 3 view .LVU4
ARM GAS  /tmp/ccbULmAo.s 			page 2


  58              		.loc 1 73 3 view .LVU5
  59 0016 0092     		str	r2, [sp]
  60              		.loc 1 74 3 view .LVU6
  61              		.loc 1 74 21 is_stmt 0 view .LVU7
  62 0018 FFF7FEFF 		bl	chvprintf
  63              	.LVL1:
  64              		.loc 1 75 3 is_stmt 1 view .LVU8
  65              		.loc 1 77 3 view .LVU9
  66              		.loc 1 78 1 is_stmt 0 view .LVU10
  67 001c 054B     		ldr	r3, .L6
  68 001e 1A68     		ldr	r2, [r3]
  69 0020 019B     		ldr	r3, [sp, #4]
  70 0022 5A40     		eors	r2, r3, r2
  71 0024 04D1     		bne	.L5
  72 0026 02B0     		add	sp, sp, #8
  73              		.cfi_remember_state
  74              		.cfi_def_cfa_offset 16
  75              		@ sp needed
  76 0028 5DF804EB 		ldr	lr, [sp], #4
  77              		.cfi_restore 14
  78              		.cfi_def_cfa_offset 12
  79 002c 03B0     		add	sp, sp, #12
  80              		.cfi_restore 3
  81              		.cfi_restore 2
  82              		.cfi_restore 1
  83              		.cfi_def_cfa_offset 0
  84 002e 7047     		bx	lr
  85              	.L5:
  86              		.cfi_restore_state
  87 0030 FFF7FEFF 		bl	__stack_chk_fail
  88              	.LVL2:
  89              	.L7:
  90              		.loc 1 78 1 view .LVU11
  91              		.align	2
  92              	.L6:
  93 0034 00000000 		.word	.LC0
  94              		.cfi_endproc
  95              	.LFE219:
  96              		.size	chprintf, .-chprintf
  97              		.global	__aeabi_uldivmod
  98              		.section	.rodata.printUcUsage.str1.4,"aMS",%progbits,1
  99              		.align	2
 100              	.LC1:
 101 0000 25313273 		.ascii	"%12s %u.%u%%\015\012\000"
 101      2025752E 
 101      25752525 
 101      0D0A00
 102 000f 00       		.align	2
 103              	.LC2:
 104 0010 63726974 		.ascii	"critical thd:%u.%u%%   critical isr:%u.%u%%\015\012"
 104      6963616C 
 104      20746864 
 104      3A25752E 
 104      25752525 
 105 003d 00       		.ascii	"\000"
 106 003e 0000     		.align	2
 107              	.LC3:
ARM GAS  /tmp/ccbULmAo.s 			page 3


 108 0040 0D0A00   		.ascii	"\015\012\000"
 109              		.section	.rodata.printUcUsage.cst4,"aM",%progbits,4
 110              		.align	2
 111              	.LC4:
 112 0000 00000000 		.word	__stack_chk_guard
 113              		.section	.text.printUcUsage,"ax",%progbits
 114              		.align	1
 115              		.p2align 4,,15
 116              		.global	printUcUsage
 117              		.syntax unified
 118              		.thumb
 119              		.thumb_func
 120              		.fpu fpv4-sp-d16
 121              		.type	printUcUsage, %function
 122              	printUcUsage:
 123              	.LVL3:
 124              	.LFB220:
 125              		.file 2 ".//src/uc_usage.c"
 126              		.loc 2 13 46 is_stmt 1 view -0
 127              		.cfi_startproc
 128              		@ args = 0, pretend = 0, frame = 8
 129              		@ frame_needed = 0, uses_anonymous_args = 0
 130              		.loc 2 13 46 is_stmt 0 view .LVU13
 131 0000 2DE9F04F 		push	{r4, r5, r6, r7, r8, r9, r10, fp, lr}
 132              		.cfi_def_cfa_offset 36
 133              		.cfi_offset 4, -36
 134              		.cfi_offset 5, -32
 135              		.cfi_offset 6, -28
 136              		.cfi_offset 7, -24
 137              		.cfi_offset 8, -20
 138              		.cfi_offset 9, -16
 139              		.cfi_offset 10, -12
 140              		.cfi_offset 11, -8
 141              		.cfi_offset 14, -4
 142 0004 684B     		ldr	r3, .L17
 143              		.loc 2 19 6 view .LVU14
 144 0006 694C     		ldr	r4, .L17+4
 145              		.loc 2 13 46 view .LVU15
 146 0008 85B0     		sub	sp, sp, #20
 147              		.cfi_def_cfa_offset 56
 148              		.loc 2 13 46 view .LVU16
 149 000a 1B68     		ldr	r3, [r3]
 150 000c 0393     		str	r3, [sp, #12]
 151 000e 4FF00003 		mov	r3,#0
 152              		.loc 2 15 2 is_stmt 1 view .LVU17
 153              		.loc 2 17 2 view .LVU18
 154              		.loc 2 18 2 view .LVU19
 155              		.loc 2 19 2 view .LVU20
 156              		.loc 2 19 6 is_stmt 0 view .LVU21
 157 0012 0022     		movs	r2, #0
 158 0014 0023     		movs	r3, #0
 159 0016 C4E90023 		strd	r2, [r4]
 160              		.loc 2 21 2 is_stmt 1 view .LVU22
 161              		.loc 2 13 46 is_stmt 0 view .LVU23
 162 001a 0546     		mov	r5, r0
 163              		.loc 2 21 7 view .LVU24
 164 001c FFF7FEFF 		bl	chRegFirstThread
ARM GAS  /tmp/ccbULmAo.s 			page 4


 165              	.LVL4:
 166              	.L9:
 167              		.loc 2 23 2 is_stmt 1 discriminator 1 view .LVU25
 168              		.loc 2 24 3 discriminator 1 view .LVU26
 169              		.loc 2 24 7 is_stmt 0 discriminator 1 view .LVU27
 170 0020 2668     		ldr	r6, [r4]
 171 0022 036E     		ldr	r3, [r0, #96]
 172 0024 6168     		ldr	r1, [r4, #4]
 173 0026 426E     		ldr	r2, [r0, #100]
 174 0028 9B19     		adds	r3, r3, r6
 175 002a 41EB0202 		adc	r2, r1, r2
 176 002e C4E90032 		strd	r3, r2, [r4]
 177              		.loc 2 25 3 is_stmt 1 discriminator 1 view .LVU28
 178              		.loc 2 25 8 is_stmt 0 discriminator 1 view .LVU29
 179 0032 FFF7FEFF 		bl	chRegNextThread
 180              	.LVL5:
 181              		.loc 2 26 10 is_stmt 1 discriminator 1 view .LVU30
 182              		.loc 2 26 2 is_stmt 0 discriminator 1 view .LVU31
 183 0036 0028     		cmp	r0, #0
 184 0038 F2D1     		bne	.L9
 185              		.loc 2 27 2 is_stmt 1 view .LVU32
 186              		.loc 2 28 2 view .LVU33
 187              		.loc 2 27 35 is_stmt 0 view .LVU34
 188 003a 5D4E     		ldr	r6, .L17+8
 189              		.loc 2 27 6 view .LVU35
 190 003c 2268     		ldr	r2, [r4]
 191 003e 3368     		ldr	r3, [r6]
 192              		.loc 2 35 3 view .LVU36
 193 0040 DFF878B1 		ldr	fp, .L17+20
 194              		.loc 2 28 35 view .LVU37
 195 0044 3746     		mov	r7, r6
 196              		.loc 2 28 6 view .LVU38
 197 0046 F7E90689 		ldrd	r8, [r7, #24]!
 198              		.loc 2 27 6 view .LVU39
 199 004a 13EB020C 		adds	ip, r3, r2
 200 004e 6268     		ldr	r2, [r4, #4]
 201 0050 7368     		ldr	r3, [r6, #4]
 202              		.loc 2 28 6 view .LVU40
 203 0052 4946     		mov	r1, r9
 204              		.loc 2 27 6 view .LVU41
 205 0054 43EB0202 		adc	r2, r3, r2
 206              		.loc 2 28 6 view .LVU42
 207 0058 1CEB0803 		adds	r3, ip, r8
 208 005c 41EB0202 		adc	r2, r1, r2
 209 0060 C4E90032 		strd	r3, r2, [r4]
 210              		.loc 2 31 7 view .LVU43
 211 0064 FFF7FEFF 		bl	chRegFirstThread
 212              	.LVL6:
 213              		.loc 2 35 3 view .LVU44
 214 0068 DFF85481 		ldr	r8, .L17+24
 215              		.loc 2 31 7 view .LVU45
 216 006c 8246     		mov	r10, r0
 217              	.LVL7:
 218              		.loc 2 35 3 view .LVU46
 219 006e 4FF06409 		mov	r9, #100
 220              	.L10:
 221              		.loc 2 33 2 is_stmt 1 discriminator 1 view .LVU47
ARM GAS  /tmp/ccbULmAo.s 			page 5


 222              		.loc 2 34 3 discriminator 1 view .LVU48
 223              		.loc 2 34 43 is_stmt 0 discriminator 1 view .LVU49
 224 0072 DAE91803 		ldrd	r0, r3, [r10, #96]
 225              	.LVL8:
 226              		.loc 2 34 43 discriminator 1 view .LVU50
 227 0076 8200     		lsls	r2, r0, #2
 228 0078 9900     		lsls	r1, r3, #2
 229 007a 1218     		adds	r2, r2, r0
 230 007c 41EA9071 		orr	r1, r1, r0, lsr #30
 231 0080 43EB0101 		adc	r1, r3, r1
 232 0084 4FEAC20C 		lsl	ip, r2, #3
 233 0088 C900     		lsls	r1, r1, #3
 234 008a 41EA5271 		orr	r1, r1, r2, lsr #29
 235 008e BCEB0002 		subs	r2, ip, r0
 236 0092 61EB0301 		sbc	r1, r1, r3
 237 0096 4FEA021C 		lsl	ip, r2, #4
 238 009a 0901     		lsls	r1, r1, #4
 239 009c 1CEB0000 		adds	r0, ip, r0
 240 00a0 41EA1271 		orr	r1, r1, r2, lsr #28
 241 00a4 43EB0101 		adc	r1, r3, r1
 242 00a8 0901     		lsls	r1, r1, #4
 243              		.loc 2 34 49 discriminator 1 view .LVU51
 244 00aa D4E90023 		ldrd	r2, [r4]
 245              		.loc 2 34 43 discriminator 1 view .LVU52
 246 00ae 41EA1071 		orr	r1, r1, r0, lsr #28
 247 00b2 0001     		lsls	r0, r0, #4
 248              		.loc 2 34 49 discriminator 1 view .LVU53
 249 00b4 FFF7FEFF 		bl	__aeabi_uldivmod
 250              	.LVL9:
 251              		.loc 2 34 10 discriminator 1 view .LVU54
 252 00b8 80B2     		uxth	r0, r0
 253              		.loc 2 35 3 is_stmt 1 discriminator 1 view .LVU55
 254 00ba A8FB0023 		umull	r2, r3, r8, r0
 255 00be 5A09     		lsrs	r2, r3, #5
 256 00c0 09FB1200 		mls	r0, r9, r2, r0
 257 00c4 80B2     		uxth	r0, r0
 258 00c6 DAF81820 		ldr	r2, [r10, #24]
 259 00ca 0090     		str	r0, [sp]
 260 00cc 5B09     		lsrs	r3, r3, #5
 261 00ce 5946     		mov	r1, fp
 262 00d0 2846     		mov	r0, r5
 263 00d2 FFF7FEFF 		bl	chprintf
 264              	.LVL10:
 265              		.loc 2 36 3 discriminator 1 view .LVU56
 266              		.loc 2 36 8 is_stmt 0 discriminator 1 view .LVU57
 267 00d6 5046     		mov	r0, r10
 268 00d8 FFF7FEFF 		bl	chRegNextThread
 269              	.LVL11:
 270              		.loc 2 37 10 is_stmt 1 discriminator 1 view .LVU58
 271              		.loc 2 37 2 is_stmt 0 discriminator 1 view .LVU59
 272 00dc 8246     		mov	r10, r0
 273 00de 0028     		cmp	r0, #0
 274 00e0 C7D1     		bne	.L10
 275              		.loc 2 39 2 is_stmt 1 view .LVU60
 276              		.loc 2 39 57 is_stmt 0 view .LVU61
 277 00e2 D6E90032 		ldrd	r3, r2, [r6]
 278 00e6 9800     		lsls	r0, r3, #2
ARM GAS  /tmp/ccbULmAo.s 			page 6


 279              	.LVL12:
 280              		.loc 2 39 57 view .LVU62
 281 00e8 9100     		lsls	r1, r2, #2
 282 00ea C018     		adds	r0, r0, r3
 283 00ec 41EA9371 		orr	r1, r1, r3, lsr #30
 284 00f0 42EB0101 		adc	r1, r2, r1
 285 00f4 C600     		lsls	r6, r0, #3
 286 00f6 C900     		lsls	r1, r1, #3
 287 00f8 41EA5071 		orr	r1, r1, r0, lsr #29
 288 00fc F01A     		subs	r0, r6, r3
 289 00fe 61EB0201 		sbc	r1, r1, r2
 290 0102 0601     		lsls	r6, r0, #4
 291 0104 0901     		lsls	r1, r1, #4
 292              		.loc 2 39 63 view .LVU63
 293 0106 D4E900AB 		ldrd	r10, [r4]
 294              	.LVL13:
 295              		.loc 2 39 57 view .LVU64
 296 010a 41EA1071 		orr	r1, r1, r0, lsr #28
 297 010e F018     		adds	r0, r6, r3
 298 0110 42EB0101 		adc	r1, r2, r1
 299 0114 0901     		lsls	r1, r1, #4
 300 0116 41EA1071 		orr	r1, r1, r0, lsr #28
 301              		.loc 2 39 63 view .LVU65
 302 011a 5246     		mov	r2, r10
 303 011c 5B46     		mov	r3, fp
 304              		.loc 2 39 57 view .LVU66
 305 011e 0001     		lsls	r0, r0, #4
 306              		.loc 2 39 63 view .LVU67
 307 0120 FFF7FEFF 		bl	__aeabi_uldivmod
 308              	.LVL14:
 309 0124 0446     		mov	r4, r0
 310              		.loc 2 40 57 view .LVU68
 311 0126 D7E90003 		ldrd	r0, r3, [r7]
 312 012a 8200     		lsls	r2, r0, #2
 313 012c 9900     		lsls	r1, r3, #2
 314 012e 1218     		adds	r2, r2, r0
 315 0130 41EA9071 		orr	r1, r1, r0, lsr #30
 316 0134 43EB0101 		adc	r1, r3, r1
 317 0138 D600     		lsls	r6, r2, #3
 318 013a C900     		lsls	r1, r1, #3
 319 013c 41EA5271 		orr	r1, r1, r2, lsr #29
 320 0140 321A     		subs	r2, r6, r0
 321 0142 61EB0301 		sbc	r1, r1, r3
 322 0146 1601     		lsls	r6, r2, #4
 323 0148 0901     		lsls	r1, r1, #4
 324 014a 3018     		adds	r0, r6, r0
 325 014c 41EA1271 		orr	r1, r1, r2, lsr #28
 326 0150 43EB0101 		adc	r1, r3, r1
 327 0154 0901     		lsls	r1, r1, #4
 328              		.loc 2 40 63 view .LVU69
 329 0156 5B46     		mov	r3, fp
 330              		.loc 2 40 57 view .LVU70
 331 0158 41EA1071 		orr	r1, r1, r0, lsr #28
 332              		.loc 2 40 63 view .LVU71
 333 015c 5246     		mov	r2, r10
 334              		.loc 2 40 57 view .LVU72
 335 015e 0001     		lsls	r0, r0, #4
ARM GAS  /tmp/ccbULmAo.s 			page 7


 336              		.loc 2 40 63 view .LVU73
 337 0160 FFF7FEFF 		bl	__aeabi_uldivmod
 338              	.LVL15:
 339              		.loc 2 40 9 view .LVU74
 340 0164 80B2     		uxth	r0, r0
 341              		.loc 2 42 2 view .LVU75
 342 0166 A8FB0031 		umull	r3, r1, r8, r0
 343              		.loc 2 39 9 view .LVU76
 344 016a A4B2     		uxth	r4, r4
 345              		.loc 2 40 2 is_stmt 1 view .LVU77
 346              		.loc 2 42 2 view .LVU78
 347 016c 4909     		lsrs	r1, r1, #5
 348 016e A8FB0432 		umull	r3, r2, r8, r4
 349 0172 5209     		lsrs	r2, r2, #5
 350 0174 09FB1100 		mls	r0, r9, r1, r0
 351 0178 09FB1243 		mls	r3, r9, r2, r4
 352 017c 80B2     		uxth	r0, r0
 353 017e 0190     		str	r0, [sp, #4]
 354 0180 9BB2     		uxth	r3, r3
 355 0182 0091     		str	r1, [sp]
 356 0184 2846     		mov	r0, r5
 357 0186 0B49     		ldr	r1, .L17+12
 358 0188 FFF7FEFF 		bl	chprintf
 359              	.LVL16:
 360              		.loc 2 44 2 view .LVU79
 361 018c 064B     		ldr	r3, .L17
 362 018e 1A68     		ldr	r2, [r3]
 363 0190 039B     		ldr	r3, [sp, #12]
 364 0192 5A40     		eors	r2, r3, r2
 365 0194 06D1     		bne	.L16
 366 0196 0849     		ldr	r1, .L17+16
 367 0198 2846     		mov	r0, r5
 368              		.loc 2 45 1 is_stmt 0 view .LVU80
 369 019a 05B0     		add	sp, sp, #20
 370              		.cfi_remember_state
 371              		.cfi_def_cfa_offset 36
 372              		@ sp needed
 373 019c BDE8F04F 		pop	{r4, r5, r6, r7, r8, r9, r10, fp, lr}
 374              		.cfi_restore 14
 375              		.cfi_restore 11
 376              		.cfi_restore 10
 377              		.cfi_restore 9
 378              		.cfi_restore 8
 379              		.cfi_restore 7
 380              		.cfi_restore 6
 381              		.cfi_restore 5
 382              		.cfi_restore 4
 383              		.cfi_def_cfa_offset 0
 384              	.LVL17:
 385              		.loc 2 44 2 view .LVU81
 386 01a0 FFF7FEBF 		b	chprintf
 387              	.LVL18:
 388              	.L16:
 389              		.cfi_restore_state
 390              		.loc 2 44 2 view .LVU82
 391 01a4 FFF7FEFF 		bl	__stack_chk_fail
 392              	.LVL19:
ARM GAS  /tmp/ccbULmAo.s 			page 8


 393              	.L18:
 394              		.align	2
 395              	.L17:
 396 01a8 00000000 		.word	.LC4
 397 01ac 00000000 		.word	.LANCHOR0
 398 01b0 C8040000 		.word	ch+1224
 399 01b4 10000000 		.word	.LC2
 400 01b8 40000000 		.word	.LC3
 401 01bc 00000000 		.word	.LC1
 402 01c0 1F85EB51 		.word	1374389535
 403              		.cfi_endproc
 404              	.LFE220:
 405              		.size	printUcUsage, .-printUcUsage
 406              		.section	.bss.sum.7976,"aw",%nobits
 407              		.align	3
 408              		.set	.LANCHOR0,. + 0
 409              		.type	sum.7976, %object
 410              		.size	sum.7976, 8
 411              	sum.7976:
 412 0000 00000000 		.space	8
 412      00000000 
 413              		.text
 414              	.Letext0:
 415              		.file 3 "/usr/lib/gcc/arm-none-eabi/9.2.1/include/stddef.h"
 416              		.file 4 "/usr/lib/gcc/arm-none-eabi/9.2.1/include/stdint.h"
 417              		.file 5 ".//ChibiOS//os/rt/ports/ARMCMx/compilers/GCC/chtypes.h"
 418              		.file 6 ".//ChibiOS//os/rt/include/chsystypes.h"
 419              		.file 7 ".//ChibiOS//os/rt/include/chschd.h"
 420              		.file 8 ".//ChibiOS//os/ext/CMSIS/include/core_cm4.h"
 421              		.file 9 ".//ChibiOS//os/ext/CMSIS/ST/system_stm32f4xx.h"
 422              		.file 10 ".//ChibiOS//os/rt/ports/ARMCMx/chcore.h"
 423              		.file 11 ".//ChibiOS//os/rt/ports/ARMCMx/chcore_v7m.h"
 424              		.file 12 ".//ChibiOS//os/rt/include/chdebug.h"
 425              		.file 13 ".//ChibiOS//os/rt/include/chtm.h"
 426              		.file 14 ".//ChibiOS//os/rt/include/chstats.h"
 427              		.file 15 ".//ChibiOS//os/rt/include/chsem.h"
 428              		.file 16 ".//ChibiOS//os/rt/include/chmtx.h"
 429              		.file 17 ".//ChibiOS//os/rt/include/chregistry.h"
 430              		.file 18 ".//ChibiOS//os/rt/include/chstreams.h"
 431              		.file 19 "/usr/lib/gcc/arm-none-eabi/9.2.1/include/stdarg.h"
 432              		.file 20 "<built-in>"
 433              		.section	.debug_info,"",%progbits
 434              	.Ldebug_info0:
 435 0000 890D0000 		.4byte	0xd89
 436 0004 0400     		.2byte	0x4
 437 0006 00000000 		.4byte	.Ldebug_abbrev0
 438 000a 04       		.byte	0x4
 439 000b 01       		.uleb128 0x1
 440 000c 28040000 		.4byte	.LASF164
 441 0010 0C       		.byte	0xc
 442 0011 BD050000 		.4byte	.LASF165
 443 0015 78020000 		.4byte	.LASF166
 444 0019 00000000 		.4byte	.Ldebug_ranges0+0
 445 001d 00000000 		.4byte	0
 446 0021 00000000 		.4byte	.Ldebug_line0
 447 0025 02       		.uleb128 0x2
 448 0026 08       		.byte	0x8
ARM GAS  /tmp/ccbULmAo.s 			page 9


 449 0027 07       		.byte	0x7
 450 0028 88000000 		.4byte	.LASF0
 451 002c 02       		.uleb128 0x2
 452 002d 04       		.byte	0x4
 453 002e 07       		.byte	0x7
 454 002f 19020000 		.4byte	.LASF1
 455 0033 03       		.uleb128 0x3
 456 0034 04       		.byte	0x4
 457 0035 05       		.byte	0x5
 458 0036 696E7400 		.ascii	"int\000"
 459 003a 04       		.uleb128 0x4
 460 003b 22000000 		.4byte	.LASF6
 461 003f 03       		.byte	0x3
 462 0040 D1       		.byte	0xd1
 463 0041 17       		.byte	0x17
 464 0042 2C000000 		.4byte	0x2c
 465 0046 02       		.uleb128 0x2
 466 0047 08       		.byte	0x8
 467 0048 05       		.byte	0x5
 468 0049 16010000 		.4byte	.LASF2
 469 004d 02       		.uleb128 0x2
 470 004e 08       		.byte	0x8
 471 004f 04       		.byte	0x4
 472 0050 A8030000 		.4byte	.LASF3
 473 0054 02       		.uleb128 0x2
 474 0055 01       		.byte	0x1
 475 0056 06       		.byte	0x6
 476 0057 24010000 		.4byte	.LASF4
 477 005b 02       		.uleb128 0x2
 478 005c 02       		.byte	0x2
 479 005d 05       		.byte	0x5
 480 005e 26060000 		.4byte	.LASF5
 481 0062 04       		.uleb128 0x4
 482 0063 FE050000 		.4byte	.LASF7
 483 0067 04       		.byte	0x4
 484 0068 28       		.byte	0x28
 485 0069 18       		.byte	0x18
 486 006a 73000000 		.4byte	0x73
 487 006e 05       		.uleb128 0x5
 488 006f 62000000 		.4byte	0x62
 489 0073 02       		.uleb128 0x2
 490 0074 04       		.byte	0x4
 491 0075 05       		.byte	0x5
 492 0076 69010000 		.4byte	.LASF8
 493 007a 04       		.uleb128 0x4
 494 007b F9070000 		.4byte	.LASF9
 495 007f 04       		.byte	0x4
 496 0080 2E       		.byte	0x2e
 497 0081 18       		.byte	0x18
 498 0082 8B000000 		.4byte	0x8b
 499 0086 06       		.uleb128 0x6
 500 0087 7A000000 		.4byte	0x7a
 501 008b 02       		.uleb128 0x2
 502 008c 01       		.byte	0x1
 503 008d 08       		.byte	0x8
 504 008e 06060000 		.4byte	.LASF10
 505 0092 04       		.uleb128 0x4
ARM GAS  /tmp/ccbULmAo.s 			page 10


 506 0093 2E020000 		.4byte	.LASF11
 507 0097 04       		.byte	0x4
 508 0098 31       		.byte	0x31
 509 0099 19       		.byte	0x19
 510 009a 9E000000 		.4byte	0x9e
 511 009e 02       		.uleb128 0x2
 512 009f 02       		.byte	0x2
 513 00a0 07       		.byte	0x7
 514 00a1 C6020000 		.4byte	.LASF12
 515 00a5 04       		.uleb128 0x4
 516 00a6 BE070000 		.4byte	.LASF13
 517 00aa 04       		.byte	0x4
 518 00ab 34       		.byte	0x34
 519 00ac 19       		.byte	0x19
 520 00ad B1000000 		.4byte	0xb1
 521 00b1 02       		.uleb128 0x2
 522 00b2 04       		.byte	0x4
 523 00b3 07       		.byte	0x7
 524 00b4 20070000 		.4byte	.LASF14
 525 00b8 04       		.uleb128 0x4
 526 00b9 36000000 		.4byte	.LASF15
 527 00bd 04       		.byte	0x4
 528 00be 37       		.byte	0x37
 529 00bf 19       		.byte	0x19
 530 00c0 25000000 		.4byte	0x25
 531 00c4 04       		.uleb128 0x4
 532 00c5 89030000 		.4byte	.LASF16
 533 00c9 05       		.byte	0x5
 534 00ca 45       		.byte	0x45
 535 00cb 1D       		.byte	0x1d
 536 00cc A5000000 		.4byte	0xa5
 537 00d0 04       		.uleb128 0x4
 538 00d1 EF000000 		.4byte	.LASF17
 539 00d5 05       		.byte	0x5
 540 00d6 46       		.byte	0x46
 541 00d7 1D       		.byte	0x1d
 542 00d8 B8000000 		.4byte	0xb8
 543 00dc 04       		.uleb128 0x4
 544 00dd 57060000 		.4byte	.LASF18
 545 00e1 05       		.byte	0x5
 546 00e2 48       		.byte	0x48
 547 00e3 1D       		.byte	0x1d
 548 00e4 7A000000 		.4byte	0x7a
 549 00e8 04       		.uleb128 0x4
 550 00e9 72010000 		.4byte	.LASF19
 551 00ed 05       		.byte	0x5
 552 00ee 49       		.byte	0x49
 553 00ef 1D       		.byte	0x1d
 554 00f0 7A000000 		.4byte	0x7a
 555 00f4 04       		.uleb128 0x4
 556 00f5 A0050000 		.4byte	.LASF20
 557 00f9 05       		.byte	0x5
 558 00fa 4A       		.byte	0x4a
 559 00fb 1D       		.byte	0x1d
 560 00fc 7A000000 		.4byte	0x7a
 561 0100 04       		.uleb128 0x4
 562 0101 4F010000 		.4byte	.LASF21
ARM GAS  /tmp/ccbULmAo.s 			page 11


 563 0105 05       		.byte	0x5
 564 0106 4B       		.byte	0x4b
 565 0107 1D       		.byte	0x1d
 566 0108 7A000000 		.4byte	0x7a
 567 010c 04       		.uleb128 0x4
 568 010d E6050000 		.4byte	.LASF22
 569 0111 05       		.byte	0x5
 570 0112 4C       		.byte	0x4c
 571 0113 1D       		.byte	0x1d
 572 0114 A5000000 		.4byte	0xa5
 573 0118 04       		.uleb128 0x4
 574 0119 F2020000 		.4byte	.LASF23
 575 011d 05       		.byte	0x5
 576 011e 4D       		.byte	0x4d
 577 011f 1D       		.byte	0x1d
 578 0120 62000000 		.4byte	0x62
 579 0124 04       		.uleb128 0x4
 580 0125 35030000 		.4byte	.LASF24
 581 0129 05       		.byte	0x5
 582 012a 4F       		.byte	0x4f
 583 012b 1D       		.byte	0x1d
 584 012c A5000000 		.4byte	0xa5
 585 0130 04       		.uleb128 0x4
 586 0131 08020000 		.4byte	.LASF25
 587 0135 05       		.byte	0x5
 588 0136 51       		.byte	0x51
 589 0137 1D       		.byte	0x1d
 590 0138 62000000 		.4byte	0x62
 591 013c 04       		.uleb128 0x4
 592 013d FD020000 		.4byte	.LASF26
 593 0141 05       		.byte	0x5
 594 0142 52       		.byte	0x52
 595 0143 1D       		.byte	0x1d
 596 0144 A5000000 		.4byte	0xa5
 597 0148 04       		.uleb128 0x4
 598 0149 68070000 		.4byte	.LASF27
 599 014d 06       		.byte	0x6
 600 014e 33       		.byte	0x33
 601 014f 12       		.byte	0x12
 602 0150 A5000000 		.4byte	0xa5
 603 0154 05       		.uleb128 0x5
 604 0155 48010000 		.4byte	0x148
 605 0159 04       		.uleb128 0x4
 606 015a 53070000 		.4byte	.LASF28
 607 015e 06       		.byte	0x6
 608 015f 3F       		.byte	0x3f
 609 0160 1A       		.byte	0x1a
 610 0161 65010000 		.4byte	0x165
 611 0165 07       		.uleb128 0x7
 612 0166 E8020000 		.4byte	.LASF52
 613 016a 68       		.byte	0x68
 614 016b 07       		.byte	0x7
 615 016c C2       		.byte	0xc2
 616 016d 08       		.byte	0x8
 617 016e 9A020000 		.4byte	0x29a
 618 0172 08       		.uleb128 0x8
 619 0173 50060000 		.4byte	.LASF29
ARM GAS  /tmp/ccbULmAo.s 			page 12


 620 0177 07       		.byte	0x7
 621 0178 C3       		.byte	0xc3
 622 0179 1A       		.byte	0x1a
 623 017a A6020000 		.4byte	0x2a6
 624 017e 00       		.byte	0
 625 017f 08       		.uleb128 0x8
 626 0180 DF050000 		.4byte	.LASF30
 627 0184 07       		.byte	0x7
 628 0185 C5       		.byte	0xc5
 629 0186 1A       		.byte	0x1a
 630 0187 A6020000 		.4byte	0x2a6
 631 018b 04       		.byte	0x4
 632 018c 08       		.uleb128 0x8
 633 018d F8000000 		.4byte	.LASF31
 634 0191 07       		.byte	0x7
 635 0192 C7       		.byte	0xc7
 636 0193 19       		.byte	0x19
 637 0194 0C010000 		.4byte	0x10c
 638 0198 08       		.byte	0x8
 639 0199 08       		.uleb128 0x8
 640 019a 11040000 		.4byte	.LASF32
 641 019e 07       		.byte	0x7
 642 019f C8       		.byte	0xc8
 643 01a0 19       		.byte	0x19
 644 01a1 4F050000 		.4byte	0x54f
 645 01a5 0C       		.byte	0xc
 646 01a6 08       		.uleb128 0x8
 647 01a7 95010000 		.4byte	.LASF33
 648 01ab 07       		.byte	0x7
 649 01ac CA       		.byte	0xca
 650 01ad 1A       		.byte	0x1a
 651 01ae A6020000 		.4byte	0x2a6
 652 01b2 10       		.byte	0x10
 653 01b3 08       		.uleb128 0x8
 654 01b4 03040000 		.4byte	.LASF34
 655 01b8 07       		.byte	0x7
 656 01b9 CB       		.byte	0xcb
 657 01ba 1A       		.byte	0x1a
 658 01bb A6020000 		.4byte	0x2a6
 659 01bf 14       		.byte	0x14
 660 01c0 08       		.uleb128 0x8
 661 01c1 EE050000 		.4byte	.LASF35
 662 01c5 07       		.byte	0x7
 663 01c6 D2       		.byte	0xd2
 664 01c7 1A       		.byte	0x1a
 665 01c8 0C090000 		.4byte	0x90c
 666 01cc 18       		.byte	0x18
 667 01cd 08       		.uleb128 0x8
 668 01ce 0E020000 		.4byte	.LASF36
 669 01d2 07       		.byte	0x7
 670 01d3 D8       		.byte	0xd8
 671 01d4 1A       		.byte	0x1a
 672 01d5 23090000 		.4byte	0x923
 673 01d9 1C       		.byte	0x1c
 674 01da 08       		.uleb128 0x8
 675 01db 30060000 		.4byte	.LASF37
 676 01df 07       		.byte	0x7
ARM GAS  /tmp/ccbULmAo.s 			page 13


 677 01e0 DD       		.byte	0xdd
 678 01e1 19       		.byte	0x19
 679 01e2 E8000000 		.4byte	0xe8
 680 01e6 20       		.byte	0x20
 681 01e7 08       		.uleb128 0x8
 682 01e8 6E060000 		.4byte	.LASF38
 683 01ec 07       		.byte	0x7
 684 01ed E1       		.byte	0xe1
 685 01ee 19       		.byte	0x19
 686 01ef DC000000 		.4byte	0xdc
 687 01f3 21       		.byte	0x21
 688 01f4 08       		.uleb128 0x8
 689 01f5 DB070000 		.4byte	.LASF39
 690 01f9 07       		.byte	0x7
 691 01fa E6       		.byte	0xe6
 692 01fb 19       		.byte	0x19
 693 01fc F4000000 		.4byte	0xf4
 694 0200 22       		.byte	0x22
 695 0201 08       		.uleb128 0x8
 696 0202 38060000 		.4byte	.LASF40
 697 0206 07       		.byte	0x7
 698 0207 EC       		.byte	0xec
 699 0208 19       		.byte	0x19
 700 0209 00010000 		.4byte	0x100
 701 020d 23       		.byte	0x23
 702 020e 08       		.uleb128 0x8
 703 020f 47020000 		.4byte	.LASF41
 704 0213 07       		.byte	0x7
 705 0214 F3       		.byte	0xf3
 706 0215 19       		.byte	0x19
 707 0216 54010000 		.4byte	0x154
 708 021a 24       		.byte	0x24
 709 021b 09       		.uleb128 0x9
 710 021c 705F7500 		.ascii	"p_u\000"
 711 0220 07       		.byte	0x7
 712 0221 3101     		.2byte	0x131
 713 0223 19       		.byte	0x19
 714 0224 2B080000 		.4byte	0x82b
 715 0228 28       		.byte	0x28
 716 0229 0A       		.uleb128 0xa
 717 022a 7F030000 		.4byte	.LASF42
 718 022e 07       		.byte	0x7
 719 022f 3601     		.2byte	0x136
 720 0231 19       		.byte	0x19
 721 0232 AC020000 		.4byte	0x2ac
 722 0236 2C       		.byte	0x2c
 723 0237 0A       		.uleb128 0xa
 724 0238 5E020000 		.4byte	.LASF43
 725 023c 07       		.byte	0x7
 726 023d 3C01     		.2byte	0x13c
 727 023f 19       		.byte	0x19
 728 0240 D3020000 		.4byte	0x2d3
 729 0244 30       		.byte	0x30
 730 0245 0A       		.uleb128 0xa
 731 0246 B1070000 		.4byte	.LASF44
 732 024a 07       		.byte	0x7
 733 024b 4001     		.2byte	0x140
ARM GAS  /tmp/ccbULmAo.s 			page 14


 734 024d 19       		.byte	0x19
 735 024e 18010000 		.4byte	0x118
 736 0252 38       		.byte	0x38
 737 0253 0A       		.uleb128 0xa
 738 0254 D1060000 		.4byte	.LASF45
 739 0258 07       		.byte	0x7
 740 0259 4601     		.2byte	0x146
 741 025b 19       		.byte	0x19
 742 025c 24010000 		.4byte	0x124
 743 0260 3C       		.byte	0x3c
 744 0261 0A       		.uleb128 0xa
 745 0262 1C060000 		.4byte	.LASF46
 746 0266 07       		.byte	0x7
 747 0267 4D01     		.2byte	0x14d
 748 0269 1A       		.byte	0x1a
 749 026a 06090000 		.4byte	0x906
 750 026e 40       		.byte	0x40
 751 026f 0A       		.uleb128 0xa
 752 0270 72070000 		.4byte	.LASF47
 753 0274 07       		.byte	0x7
 754 0275 5101     		.2byte	0x151
 755 0277 19       		.byte	0x19
 756 0278 0C010000 		.4byte	0x10c
 757 027c 44       		.byte	0x44
 758 027d 0A       		.uleb128 0xa
 759 027e 40010000 		.4byte	.LASF48
 760 0282 07       		.byte	0x7
 761 0283 5801     		.2byte	0x158
 762 0285 1A       		.byte	0x1a
 763 0286 93030000 		.4byte	0x393
 764 028a 48       		.byte	0x48
 765 028b 0A       		.uleb128 0xa
 766 028c 76060000 		.4byte	.LASF49
 767 0290 07       		.byte	0x7
 768 0291 5E01     		.2byte	0x15e
 769 0293 19       		.byte	0x19
 770 0294 D5070000 		.4byte	0x7d5
 771 0298 50       		.byte	0x50
 772 0299 00       		.byte	0
 773 029a 04       		.uleb128 0x4
 774 029b 0B080000 		.4byte	.LASF50
 775 029f 06       		.byte	0x6
 776 02a0 44       		.byte	0x44
 777 02a1 14       		.byte	0x14
 778 02a2 A6020000 		.4byte	0x2a6
 779 02a6 0B       		.uleb128 0xb
 780 02a7 04       		.byte	0x4
 781 02a8 59010000 		.4byte	0x159
 782 02ac 04       		.uleb128 0x4
 783 02ad 62030000 		.4byte	.LASF51
 784 02b1 06       		.byte	0x6
 785 02b2 49       		.byte	0x49
 786 02b3 20       		.byte	0x20
 787 02b4 B8020000 		.4byte	0x2b8
 788 02b8 07       		.uleb128 0x7
 789 02b9 08070000 		.4byte	.LASF53
 790 02bd 04       		.byte	0x4
ARM GAS  /tmp/ccbULmAo.s 			page 15


 791 02be 07       		.byte	0x7
 792 02bf B0       		.byte	0xb0
 793 02c0 08       		.byte	0x8
 794 02c1 D3020000 		.4byte	0x2d3
 795 02c5 08       		.uleb128 0x8
 796 02c6 50060000 		.4byte	.LASF29
 797 02ca 07       		.byte	0x7
 798 02cb B1       		.byte	0xb1
 799 02cc 1A       		.byte	0x1a
 800 02cd A6020000 		.4byte	0x2a6
 801 02d1 00       		.byte	0
 802 02d2 00       		.byte	0
 803 02d3 04       		.uleb128 0x4
 804 02d4 85060000 		.4byte	.LASF54
 805 02d8 06       		.byte	0x6
 806 02d9 50       		.byte	0x50
 807 02da 21       		.byte	0x21
 808 02db DF020000 		.4byte	0x2df
 809 02df 07       		.uleb128 0x7
 810 02e0 87080000 		.4byte	.LASF55
 811 02e4 08       		.byte	0x8
 812 02e5 07       		.byte	0x7
 813 02e6 B7       		.byte	0xb7
 814 02e7 08       		.byte	0x8
 815 02e8 07030000 		.4byte	0x307
 816 02ec 08       		.uleb128 0x8
 817 02ed 50060000 		.4byte	.LASF29
 818 02f1 07       		.byte	0x7
 819 02f2 B8       		.byte	0xb8
 820 02f3 1A       		.byte	0x1a
 821 02f4 A6020000 		.4byte	0x2a6
 822 02f8 00       		.byte	0
 823 02f9 08       		.uleb128 0x8
 824 02fa DF050000 		.4byte	.LASF30
 825 02fe 07       		.byte	0x7
 826 02ff B9       		.byte	0xb9
 827 0300 1A       		.byte	0x1a
 828 0301 A6020000 		.4byte	0x2a6
 829 0305 04       		.byte	0x4
 830 0306 00       		.byte	0
 831 0307 04       		.uleb128 0x4
 832 0308 0D000000 		.4byte	.LASF56
 833 030c 06       		.byte	0x6
 834 030d 57       		.byte	0x57
 835 030e 1E       		.byte	0x1e
 836 030f 13030000 		.4byte	0x313
 837 0313 0C       		.uleb128 0xc
 838 0314 27030000 		.4byte	.LASF57
 839 0318 1C       		.byte	0x1c
 840 0319 07       		.byte	0x7
 841 031a 9001     		.2byte	0x190
 842 031c 08       		.byte	0x8
 843 031d 76030000 		.4byte	0x376
 844 0321 0A       		.uleb128 0xa
 845 0322 00070000 		.4byte	.LASF58
 846 0326 07       		.byte	0x7
 847 0327 9101     		.2byte	0x191
ARM GAS  /tmp/ccbULmAo.s 			page 16


 848 0329 19       		.byte	0x19
 849 032a D3020000 		.4byte	0x2d3
 850 032e 00       		.byte	0
 851 032f 0A       		.uleb128 0xa
 852 0330 42060000 		.4byte	.LASF59
 853 0334 07       		.byte	0x7
 854 0335 9201     		.2byte	0x192
 855 0337 19       		.byte	0x19
 856 0338 0C010000 		.4byte	0x10c
 857 033c 08       		.byte	0x8
 858 033d 0A       		.uleb128 0xa
 859 033e 0B040000 		.4byte	.LASF60
 860 0342 07       		.byte	0x7
 861 0343 9401     		.2byte	0x194
 862 0345 19       		.byte	0x19
 863 0346 4F050000 		.4byte	0x54f
 864 034a 0C       		.byte	0xc
 865 034b 0A       		.uleb128 0xa
 866 034c AD010000 		.4byte	.LASF61
 867 0350 07       		.byte	0x7
 868 0351 9701     		.2byte	0x197
 869 0353 1A       		.byte	0x1a
 870 0354 A6020000 		.4byte	0x2a6
 871 0358 10       		.byte	0x10
 872 0359 0A       		.uleb128 0xa
 873 035a 8D050000 		.4byte	.LASF62
 874 035e 07       		.byte	0x7
 875 035f 9801     		.2byte	0x198
 876 0361 1A       		.byte	0x1a
 877 0362 A6020000 		.4byte	0x2a6
 878 0366 14       		.byte	0x14
 879 0367 0A       		.uleb128 0xa
 880 0368 83050000 		.4byte	.LASF63
 881 036c 07       		.byte	0x7
 882 036d 9B01     		.2byte	0x19b
 883 036f 1A       		.byte	0x1a
 884 0370 A6020000 		.4byte	0x2a6
 885 0374 18       		.byte	0x18
 886 0375 00       		.byte	0
 887 0376 04       		.uleb128 0x4
 888 0377 7D070000 		.4byte	.LASF64
 889 037b 06       		.byte	0x6
 890 037c 5C       		.byte	0x5c
 891 037d 10       		.byte	0x10
 892 037e 82030000 		.4byte	0x382
 893 0382 0B       		.uleb128 0xb
 894 0383 04       		.byte	0x4
 895 0384 88030000 		.4byte	0x388
 896 0388 0D       		.uleb128 0xd
 897 0389 93030000 		.4byte	0x393
 898 038d 0E       		.uleb128 0xe
 899 038e 93030000 		.4byte	0x393
 900 0392 00       		.byte	0
 901 0393 0F       		.uleb128 0xf
 902 0394 04       		.byte	0x4
 903 0395 04       		.uleb128 0x4
 904 0396 CF050000 		.4byte	.LASF65
ARM GAS  /tmp/ccbULmAo.s 			page 17


 905 039a 06       		.byte	0x6
 906 039b 61       		.byte	0x61
 907 039c 21       		.byte	0x21
 908 039d A1030000 		.4byte	0x3a1
 909 03a1 0C       		.uleb128 0xc
 910 03a2 95060000 		.4byte	.LASF66
 911 03a6 14       		.byte	0x14
 912 03a7 07       		.byte	0x7
 913 03a8 6B01     		.2byte	0x16b
 914 03aa 08       		.byte	0x8
 915 03ab F6030000 		.4byte	0x3f6
 916 03af 0A       		.uleb128 0xa
 917 03b0 26020000 		.4byte	.LASF67
 918 03b4 07       		.byte	0x7
 919 03b5 6C01     		.2byte	0x16c
 920 03b7 1A       		.byte	0x1a
 921 03b8 29090000 		.4byte	0x929
 922 03bc 00       		.byte	0
 923 03bd 0A       		.uleb128 0xa
 924 03be BE010000 		.4byte	.LASF68
 925 03c2 07       		.byte	0x7
 926 03c3 6D01     		.2byte	0x16d
 927 03c5 1A       		.byte	0x1a
 928 03c6 29090000 		.4byte	0x929
 929 03ca 04       		.byte	0x4
 930 03cb 0A       		.uleb128 0xa
 931 03cc 55020000 		.4byte	.LASF69
 932 03d0 07       		.byte	0x7
 933 03d1 6E01     		.2byte	0x16e
 934 03d3 19       		.byte	0x19
 935 03d4 48010000 		.4byte	0x148
 936 03d8 08       		.byte	0x8
 937 03d9 0A       		.uleb128 0xa
 938 03da 7F080000 		.4byte	.LASF70
 939 03de 07       		.byte	0x7
 940 03df 6F01     		.2byte	0x16f
 941 03e1 19       		.byte	0x19
 942 03e2 76030000 		.4byte	0x376
 943 03e6 0C       		.byte	0xc
 944 03e7 0A       		.uleb128 0xa
 945 03e8 B7070000 		.4byte	.LASF71
 946 03ec 07       		.byte	0x7
 947 03ed 7101     		.2byte	0x171
 948 03ef 1A       		.byte	0x1a
 949 03f0 93030000 		.4byte	0x393
 950 03f4 10       		.byte	0x10
 951 03f5 00       		.byte	0
 952 03f6 04       		.uleb128 0x4
 953 03f7 41030000 		.4byte	.LASF72
 954 03fb 06       		.byte	0x6
 955 03fc 66       		.byte	0x66
 956 03fd 28       		.byte	0x28
 957 03fe 02040000 		.4byte	0x402
 958 0402 0C       		.uleb128 0xc
 959 0403 91030000 		.4byte	.LASF73
 960 0407 10       		.byte	0x10
 961 0408 07       		.byte	0x7
ARM GAS  /tmp/ccbULmAo.s 			page 18


 962 0409 7B01     		.2byte	0x17b
 963 040b 08       		.byte	0x8
 964 040c 49040000 		.4byte	0x449
 965 0410 0A       		.uleb128 0xa
 966 0411 26020000 		.4byte	.LASF67
 967 0415 07       		.byte	0x7
 968 0416 7C01     		.2byte	0x17c
 969 0418 1A       		.byte	0x1a
 970 0419 29090000 		.4byte	0x929
 971 041d 00       		.byte	0
 972 041e 0A       		.uleb128 0xa
 973 041f BE010000 		.4byte	.LASF68
 974 0423 07       		.byte	0x7
 975 0424 7E01     		.2byte	0x17e
 976 0426 1A       		.byte	0x1a
 977 0427 29090000 		.4byte	0x929
 978 042b 04       		.byte	0x4
 979 042c 0A       		.uleb128 0xa
 980 042d 55020000 		.4byte	.LASF69
 981 0431 07       		.byte	0x7
 982 0432 8001     		.2byte	0x180
 983 0434 19       		.byte	0x19
 984 0435 48010000 		.4byte	0x148
 985 0439 08       		.byte	0x8
 986 043a 0A       		.uleb128 0xa
 987 043b 25080000 		.4byte	.LASF74
 988 043f 07       		.byte	0x7
 989 0440 8201     		.2byte	0x182
 990 0442 19       		.byte	0x19
 991 0443 54010000 		.4byte	0x154
 992 0447 0C       		.byte	0xc
 993 0448 00       		.byte	0
 994 0449 04       		.uleb128 0x4
 995 044a 60000000 		.4byte	.LASF75
 996 044e 06       		.byte	0x6
 997 044f 6B       		.byte	0x6b
 998 0450 20       		.byte	0x20
 999 0451 55040000 		.4byte	0x455
 1000 0455 10       		.uleb128 0x10
 1001 0456 C6010000 		.4byte	.LASF76
 1002 045a 1404     		.2byte	0x414
 1003 045c 07       		.byte	0x7
 1004 045d A201     		.2byte	0x1a2
 1005 045f 08       		.byte	0x8
 1006 0460 9D040000 		.4byte	0x49d
 1007 0464 0A       		.uleb128 0xa
 1008 0465 86070000 		.4byte	.LASF77
 1009 0469 07       		.byte	0x7
 1010 046a AA01     		.2byte	0x1aa
 1011 046c 24       		.byte	0x24
 1012 046d 12090000 		.4byte	0x912
 1013 0471 00       		.byte	0
 1014 0472 0A       		.uleb128 0xa
 1015 0473 E2070000 		.4byte	.LASF78
 1016 0477 07       		.byte	0x7
 1017 0478 AF01     		.2byte	0x1af
 1018 047a 19       		.byte	0x19
ARM GAS  /tmp/ccbULmAo.s 			page 19


 1019 047b 30010000 		.4byte	0x130
 1020 047f 04       		.byte	0x4
 1021 0480 0A       		.uleb128 0xa
 1022 0481 7A050000 		.4byte	.LASF79
 1023 0485 07       		.byte	0x7
 1024 0486 B301     		.2byte	0x1b3
 1025 0488 19       		.byte	0x19
 1026 0489 30010000 		.4byte	0x130
 1027 048d 08       		.byte	0x8
 1028 048e 0A       		.uleb128 0xa
 1029 048f 30080000 		.4byte	.LASF80
 1030 0493 07       		.byte	0x7
 1031 0494 B901     		.2byte	0x1b9
 1032 0496 19       		.byte	0x19
 1033 0497 5D070000 		.4byte	0x75d
 1034 049b 0C       		.byte	0xc
 1035 049c 00       		.byte	0
 1036 049d 04       		.uleb128 0x4
 1037 049e 04030000 		.4byte	.LASF81
 1038 04a2 06       		.byte	0x6
 1039 04a3 70       		.byte	0x70
 1040 04a4 1A       		.byte	0x1a
 1041 04a5 A9040000 		.4byte	0x4a9
 1042 04a9 10       		.uleb128 0x10
 1043 04aa 5F010000 		.4byte	.LASF82
 1044 04ae 7006     		.2byte	0x670
 1045 04b0 07       		.byte	0x7
 1046 04b1 C201     		.2byte	0x1c2
 1047 04b3 08       		.byte	0x8
 1048 04b4 1E050000 		.4byte	0x51e
 1049 04b8 0A       		.uleb128 0xa
 1050 04b9 F3070000 		.4byte	.LASF83
 1051 04bd 07       		.byte	0x7
 1052 04be C601     		.2byte	0x1c6
 1053 04c0 19       		.byte	0x19
 1054 04c1 07030000 		.4byte	0x307
 1055 04c5 00       		.byte	0
 1056 04c6 0A       		.uleb128 0xa
 1057 04c7 48010000 		.4byte	.LASF84
 1058 04cb 07       		.byte	0x7
 1059 04cc CA01     		.2byte	0x1ca
 1060 04ce 19       		.byte	0x19
 1061 04cf F6030000 		.4byte	0x3f6
 1062 04d3 1C       		.byte	0x1c
 1063 04d4 09       		.uleb128 0x9
 1064 04d5 64626700 		.ascii	"dbg\000"
 1065 04d9 07       		.byte	0x7
 1066 04da CE01     		.2byte	0x1ce
 1067 04dc 19       		.byte	0x19
 1068 04dd 49040000 		.4byte	0x449
 1069 04e1 2C       		.byte	0x2c
 1070 04e2 11       		.uleb128 0x11
 1071 04e3 C6000000 		.4byte	.LASF85
 1072 04e7 07       		.byte	0x7
 1073 04e8 D201     		.2byte	0x1d2
 1074 04ea 19       		.byte	0x19
 1075 04eb 59010000 		.4byte	0x159
ARM GAS  /tmp/ccbULmAo.s 			page 20


 1076 04ef 4004     		.2byte	0x440
 1077 04f1 12       		.uleb128 0x12
 1078 04f2 746D00   		.ascii	"tm\000"
 1079 04f5 07       		.byte	0x7
 1080 04f6 D701     		.2byte	0x1d7
 1081 04f8 19       		.byte	0x19
 1082 04f9 80070000 		.4byte	0x780
 1083 04fd A804     		.2byte	0x4a8
 1084 04ff 11       		.uleb128 0x11
 1085 0500 3F000000 		.4byte	.LASF86
 1086 0504 07       		.byte	0x7
 1087 0505 DD01     		.2byte	0x1dd
 1088 0507 19       		.byte	0x19
 1089 0508 1F080000 		.4byte	0x81f
 1090 050c B004     		.2byte	0x4b0
 1091 050e 11       		.uleb128 0x11
 1092 050f F9010000 		.4byte	.LASF87
 1093 0513 07       		.byte	0x7
 1094 0514 E301     		.2byte	0x1e3
 1095 0516 03       		.byte	0x3
 1096 0517 2F090000 		.4byte	0x92f
 1097 051b E804     		.2byte	0x4e8
 1098 051d 00       		.byte	0
 1099 051e 13       		.uleb128 0x13
 1100 051f E2000000 		.4byte	.LASF88
 1101 0523 08       		.byte	0x8
 1102 0524 A706     		.2byte	0x6a7
 1103 0526 19       		.byte	0x19
 1104 0527 6E000000 		.4byte	0x6e
 1105 052b 14       		.uleb128 0x14
 1106 052c 37020000 		.4byte	.LASF89
 1107 0530 09       		.byte	0x9
 1108 0531 4C       		.byte	0x4c
 1109 0532 11       		.byte	0x11
 1110 0533 A5000000 		.4byte	0xa5
 1111 0537 04       		.uleb128 0x4
 1112 0538 B5010000 		.4byte	.LASF90
 1113 053c 0A       		.byte	0xa
 1114 053d 65       		.byte	0x65
 1115 053e 0F       		.byte	0xf
 1116 053f 93030000 		.4byte	0x393
 1117 0543 04       		.uleb128 0x4
 1118 0544 57030000 		.4byte	.LASF91
 1119 0548 0A       		.byte	0xa
 1120 0549 6D       		.byte	0x6d
 1121 054a 12       		.byte	0x12
 1122 054b B8000000 		.4byte	0xb8
 1123 054f 07       		.uleb128 0x7
 1124 0550 A9070000 		.4byte	.LASF92
 1125 0554 04       		.byte	0x4
 1126 0555 0A       		.byte	0xa
 1127 0556 89       		.byte	0x89
 1128 0557 08       		.byte	0x8
 1129 0558 6A050000 		.4byte	0x56a
 1130 055c 15       		.uleb128 0x15
 1131 055d 72313300 		.ascii	"r13\000"
 1132 0561 0A       		.byte	0xa
ARM GAS  /tmp/ccbULmAo.s 			page 21


 1133 0562 8A       		.byte	0x8a
 1134 0563 17       		.byte	0x17
 1135 0564 C5060000 		.4byte	0x6c5
 1136 0568 00       		.byte	0
 1137 0569 00       		.byte	0
 1138 056a 07       		.uleb128 0x7
 1139 056b 4C000000 		.4byte	.LASF93
 1140 056f 64       		.byte	0x64
 1141 0570 0B       		.byte	0xb
 1142 0571 F4       		.byte	0xf4
 1143 0572 08       		.byte	0x8
 1144 0573 C5060000 		.4byte	0x6c5
 1145 0577 15       		.uleb128 0x15
 1146 0578 73313600 		.ascii	"s16\000"
 1147 057c 0B       		.byte	0xb
 1148 057d F6       		.byte	0xf6
 1149 057e 11       		.byte	0x11
 1150 057f 37050000 		.4byte	0x537
 1151 0583 00       		.byte	0
 1152 0584 15       		.uleb128 0x15
 1153 0585 73313700 		.ascii	"s17\000"
 1154 0589 0B       		.byte	0xb
 1155 058a F7       		.byte	0xf7
 1156 058b 11       		.byte	0x11
 1157 058c 37050000 		.4byte	0x537
 1158 0590 04       		.byte	0x4
 1159 0591 15       		.uleb128 0x15
 1160 0592 73313800 		.ascii	"s18\000"
 1161 0596 0B       		.byte	0xb
 1162 0597 F8       		.byte	0xf8
 1163 0598 11       		.byte	0x11
 1164 0599 37050000 		.4byte	0x537
 1165 059d 08       		.byte	0x8
 1166 059e 15       		.uleb128 0x15
 1167 059f 73313900 		.ascii	"s19\000"
 1168 05a3 0B       		.byte	0xb
 1169 05a4 F9       		.byte	0xf9
 1170 05a5 11       		.byte	0x11
 1171 05a6 37050000 		.4byte	0x537
 1172 05aa 0C       		.byte	0xc
 1173 05ab 15       		.uleb128 0x15
 1174 05ac 73323000 		.ascii	"s20\000"
 1175 05b0 0B       		.byte	0xb
 1176 05b1 FA       		.byte	0xfa
 1177 05b2 11       		.byte	0x11
 1178 05b3 37050000 		.4byte	0x537
 1179 05b7 10       		.byte	0x10
 1180 05b8 15       		.uleb128 0x15
 1181 05b9 73323100 		.ascii	"s21\000"
 1182 05bd 0B       		.byte	0xb
 1183 05be FB       		.byte	0xfb
 1184 05bf 11       		.byte	0x11
 1185 05c0 37050000 		.4byte	0x537
 1186 05c4 14       		.byte	0x14
 1187 05c5 15       		.uleb128 0x15
 1188 05c6 73323200 		.ascii	"s22\000"
 1189 05ca 0B       		.byte	0xb
ARM GAS  /tmp/ccbULmAo.s 			page 22


 1190 05cb FC       		.byte	0xfc
 1191 05cc 11       		.byte	0x11
 1192 05cd 37050000 		.4byte	0x537
 1193 05d1 18       		.byte	0x18
 1194 05d2 15       		.uleb128 0x15
 1195 05d3 73323300 		.ascii	"s23\000"
 1196 05d7 0B       		.byte	0xb
 1197 05d8 FD       		.byte	0xfd
 1198 05d9 11       		.byte	0x11
 1199 05da 37050000 		.4byte	0x537
 1200 05de 1C       		.byte	0x1c
 1201 05df 15       		.uleb128 0x15
 1202 05e0 73323400 		.ascii	"s24\000"
 1203 05e4 0B       		.byte	0xb
 1204 05e5 FE       		.byte	0xfe
 1205 05e6 11       		.byte	0x11
 1206 05e7 37050000 		.4byte	0x537
 1207 05eb 20       		.byte	0x20
 1208 05ec 15       		.uleb128 0x15
 1209 05ed 73323500 		.ascii	"s25\000"
 1210 05f1 0B       		.byte	0xb
 1211 05f2 FF       		.byte	0xff
 1212 05f3 11       		.byte	0x11
 1213 05f4 37050000 		.4byte	0x537
 1214 05f8 24       		.byte	0x24
 1215 05f9 09       		.uleb128 0x9
 1216 05fa 73323600 		.ascii	"s26\000"
 1217 05fe 0B       		.byte	0xb
 1218 05ff 0001     		.2byte	0x100
 1219 0601 11       		.byte	0x11
 1220 0602 37050000 		.4byte	0x537
 1221 0606 28       		.byte	0x28
 1222 0607 09       		.uleb128 0x9
 1223 0608 73323700 		.ascii	"s27\000"
 1224 060c 0B       		.byte	0xb
 1225 060d 0101     		.2byte	0x101
 1226 060f 11       		.byte	0x11
 1227 0610 37050000 		.4byte	0x537
 1228 0614 2C       		.byte	0x2c
 1229 0615 09       		.uleb128 0x9
 1230 0616 73323800 		.ascii	"s28\000"
 1231 061a 0B       		.byte	0xb
 1232 061b 0201     		.2byte	0x102
 1233 061d 11       		.byte	0x11
 1234 061e 37050000 		.4byte	0x537
 1235 0622 30       		.byte	0x30
 1236 0623 09       		.uleb128 0x9
 1237 0624 73323900 		.ascii	"s29\000"
 1238 0628 0B       		.byte	0xb
 1239 0629 0301     		.2byte	0x103
 1240 062b 11       		.byte	0x11
 1241 062c 37050000 		.4byte	0x537
 1242 0630 34       		.byte	0x34
 1243 0631 09       		.uleb128 0x9
 1244 0632 73333000 		.ascii	"s30\000"
 1245 0636 0B       		.byte	0xb
 1246 0637 0401     		.2byte	0x104
ARM GAS  /tmp/ccbULmAo.s 			page 23


 1247 0639 11       		.byte	0x11
 1248 063a 37050000 		.4byte	0x537
 1249 063e 38       		.byte	0x38
 1250 063f 09       		.uleb128 0x9
 1251 0640 73333100 		.ascii	"s31\000"
 1252 0644 0B       		.byte	0xb
 1253 0645 0501     		.2byte	0x105
 1254 0647 11       		.byte	0x11
 1255 0648 37050000 		.4byte	0x537
 1256 064c 3C       		.byte	0x3c
 1257 064d 09       		.uleb128 0x9
 1258 064e 723400   		.ascii	"r4\000"
 1259 0651 0B       		.byte	0xb
 1260 0652 0701     		.2byte	0x107
 1261 0654 11       		.byte	0x11
 1262 0655 37050000 		.4byte	0x537
 1263 0659 40       		.byte	0x40
 1264 065a 09       		.uleb128 0x9
 1265 065b 723500   		.ascii	"r5\000"
 1266 065e 0B       		.byte	0xb
 1267 065f 0801     		.2byte	0x108
 1268 0661 11       		.byte	0x11
 1269 0662 37050000 		.4byte	0x537
 1270 0666 44       		.byte	0x44
 1271 0667 09       		.uleb128 0x9
 1272 0668 723600   		.ascii	"r6\000"
 1273 066b 0B       		.byte	0xb
 1274 066c 0901     		.2byte	0x109
 1275 066e 11       		.byte	0x11
 1276 066f 37050000 		.4byte	0x537
 1277 0673 48       		.byte	0x48
 1278 0674 09       		.uleb128 0x9
 1279 0675 723700   		.ascii	"r7\000"
 1280 0678 0B       		.byte	0xb
 1281 0679 0A01     		.2byte	0x10a
 1282 067b 11       		.byte	0x11
 1283 067c 37050000 		.4byte	0x537
 1284 0680 4C       		.byte	0x4c
 1285 0681 09       		.uleb128 0x9
 1286 0682 723800   		.ascii	"r8\000"
 1287 0685 0B       		.byte	0xb
 1288 0686 0B01     		.2byte	0x10b
 1289 0688 11       		.byte	0x11
 1290 0689 37050000 		.4byte	0x537
 1291 068d 50       		.byte	0x50
 1292 068e 09       		.uleb128 0x9
 1293 068f 723900   		.ascii	"r9\000"
 1294 0692 0B       		.byte	0xb
 1295 0693 0C01     		.2byte	0x10c
 1296 0695 11       		.byte	0x11
 1297 0696 37050000 		.4byte	0x537
 1298 069a 54       		.byte	0x54
 1299 069b 09       		.uleb128 0x9
 1300 069c 72313000 		.ascii	"r10\000"
 1301 06a0 0B       		.byte	0xb
 1302 06a1 0D01     		.2byte	0x10d
 1303 06a3 11       		.byte	0x11
ARM GAS  /tmp/ccbULmAo.s 			page 24


 1304 06a4 37050000 		.4byte	0x537
 1305 06a8 58       		.byte	0x58
 1306 06a9 09       		.uleb128 0x9
 1307 06aa 72313100 		.ascii	"r11\000"
 1308 06ae 0B       		.byte	0xb
 1309 06af 0E01     		.2byte	0x10e
 1310 06b1 11       		.byte	0x11
 1311 06b2 37050000 		.4byte	0x537
 1312 06b6 5C       		.byte	0x5c
 1313 06b7 09       		.uleb128 0x9
 1314 06b8 6C7200   		.ascii	"lr\000"
 1315 06bb 0B       		.byte	0xb
 1316 06bc 0F01     		.2byte	0x10f
 1317 06be 11       		.byte	0x11
 1318 06bf 37050000 		.4byte	0x537
 1319 06c3 60       		.byte	0x60
 1320 06c4 00       		.byte	0
 1321 06c5 0B       		.uleb128 0xb
 1322 06c6 04       		.byte	0x4
 1323 06c7 6A050000 		.4byte	0x56a
 1324 06cb 16       		.uleb128 0x16
 1325 06cc 10       		.byte	0x10
 1326 06cd 0C       		.byte	0xc
 1327 06ce 51       		.byte	0x51
 1328 06cf 09       		.byte	0x9
 1329 06d0 09070000 		.4byte	0x709
 1330 06d4 08       		.uleb128 0x8
 1331 06d5 1A000000 		.4byte	.LASF94
 1332 06d9 0C       		.byte	0xc
 1333 06da 55       		.byte	0x55
 1334 06db 19       		.byte	0x19
 1335 06dc 48010000 		.4byte	0x148
 1336 06e0 00       		.byte	0
 1337 06e1 08       		.uleb128 0x8
 1338 06e2 85010000 		.4byte	.LASF95
 1339 06e6 0C       		.byte	0xc
 1340 06e7 59       		.byte	0x59
 1341 06e8 1A       		.byte	0x1a
 1342 06e9 A6020000 		.4byte	0x2a6
 1343 06ed 04       		.byte	0x4
 1344 06ee 08       		.uleb128 0x8
 1345 06ef 67080000 		.4byte	.LASF96
 1346 06f3 0C       		.byte	0xc
 1347 06f4 5D       		.byte	0x5d
 1348 06f5 1A       		.byte	0x1a
 1349 06f6 93030000 		.4byte	0x393
 1350 06fa 08       		.byte	0x8
 1351 06fb 08       		.uleb128 0x8
 1352 06fc EA070000 		.4byte	.LASF97
 1353 0700 0C       		.byte	0xc
 1354 0701 61       		.byte	0x61
 1355 0702 19       		.byte	0x19
 1356 0703 7A000000 		.4byte	0x7a
 1357 0707 0C       		.byte	0xc
 1358 0708 00       		.byte	0
 1359 0709 04       		.uleb128 0x4
 1360 070a D6030000 		.4byte	.LASF98
ARM GAS  /tmp/ccbULmAo.s 			page 25


 1361 070e 0C       		.byte	0xc
 1362 070f 62       		.byte	0x62
 1363 0710 03       		.byte	0x3
 1364 0711 CB060000 		.4byte	0x6cb
 1365 0715 17       		.uleb128 0x17
 1366 0716 0804     		.2byte	0x408
 1367 0718 0C       		.byte	0xc
 1368 0719 67       		.byte	0x67
 1369 071a 09       		.byte	0x9
 1370 071b 47070000 		.4byte	0x747
 1371 071f 08       		.uleb128 0x8
 1372 0720 A5010000 		.4byte	.LASF99
 1373 0724 0C       		.byte	0xc
 1374 0725 6B       		.byte	0x6b
 1375 0726 19       		.byte	0x19
 1376 0727 2C000000 		.4byte	0x2c
 1377 072b 00       		.byte	0
 1378 072c 08       		.uleb128 0x8
 1379 072d C0030000 		.4byte	.LASF100
 1380 0731 0C       		.byte	0xc
 1381 0732 6F       		.byte	0x6f
 1382 0733 1A       		.byte	0x1a
 1383 0734 47070000 		.4byte	0x747
 1384 0738 04       		.byte	0x4
 1385 0739 08       		.uleb128 0x8
 1386 073a A8050000 		.4byte	.LASF101
 1387 073e 0C       		.byte	0xc
 1388 073f 73       		.byte	0x73
 1389 0740 19       		.byte	0x19
 1390 0741 4D070000 		.4byte	0x74d
 1391 0745 08       		.byte	0x8
 1392 0746 00       		.byte	0
 1393 0747 0B       		.uleb128 0xb
 1394 0748 04       		.byte	0x4
 1395 0749 09070000 		.4byte	0x709
 1396 074d 18       		.uleb128 0x18
 1397 074e 09070000 		.4byte	0x709
 1398 0752 5D070000 		.4byte	0x75d
 1399 0756 19       		.uleb128 0x19
 1400 0757 2C000000 		.4byte	0x2c
 1401 075b 3F       		.byte	0x3f
 1402 075c 00       		.byte	0
 1403 075d 04       		.uleb128 0x4
 1404 075e F1030000 		.4byte	.LASF102
 1405 0762 0C       		.byte	0xc
 1406 0763 74       		.byte	0x74
 1407 0764 03       		.byte	0x3
 1408 0765 15070000 		.4byte	0x715
 1409 0769 16       		.uleb128 0x16
 1410 076a 04       		.byte	0x4
 1411 076b 0D       		.byte	0xd
 1412 076c 38       		.byte	0x38
 1413 076d 09       		.byte	0x9
 1414 076e 80070000 		.4byte	0x780
 1415 0772 08       		.uleb128 0x8
 1416 0773 90070000 		.4byte	.LASF103
 1417 0777 0D       		.byte	0xd
ARM GAS  /tmp/ccbULmAo.s 			page 26


 1418 0778 3C       		.byte	0x3c
 1419 0779 19       		.byte	0x19
 1420 077a C4000000 		.4byte	0xc4
 1421 077e 00       		.byte	0
 1422 077f 00       		.byte	0
 1423 0780 04       		.uleb128 0x4
 1424 0781 17040000 		.4byte	.LASF104
 1425 0785 0D       		.byte	0xd
 1426 0786 3D       		.byte	0x3d
 1427 0787 03       		.byte	0x3
 1428 0788 69070000 		.4byte	0x769
 1429 078c 16       		.uleb128 0x16
 1430 078d 18       		.byte	0x18
 1431 078e 0D       		.byte	0xd
 1432 078f 48       		.byte	0x48
 1433 0790 09       		.byte	0x9
 1434 0791 D5070000 		.4byte	0x7d5
 1435 0795 08       		.uleb128 0x8
 1436 0796 5C070000 		.4byte	.LASF105
 1437 079a 0D       		.byte	0xd
 1438 079b 49       		.byte	0x49
 1439 079c 19       		.byte	0x19
 1440 079d C4000000 		.4byte	0xc4
 1441 07a1 00       		.byte	0
 1442 07a2 08       		.uleb128 0x8
 1443 07a3 6F000000 		.4byte	.LASF106
 1444 07a7 0D       		.byte	0xd
 1445 07a8 4A       		.byte	0x4a
 1446 07a9 19       		.byte	0x19
 1447 07aa C4000000 		.4byte	0xc4
 1448 07ae 04       		.byte	0x4
 1449 07af 08       		.uleb128 0x8
 1450 07b0 F8020000 		.4byte	.LASF107
 1451 07b4 0D       		.byte	0xd
 1452 07b5 4B       		.byte	0x4b
 1453 07b6 19       		.byte	0x19
 1454 07b7 C4000000 		.4byte	0xc4
 1455 07bb 08       		.byte	0x8
 1456 07bc 15       		.uleb128 0x15
 1457 07bd 6E00     		.ascii	"n\000"
 1458 07bf 0D       		.byte	0xd
 1459 07c0 4C       		.byte	0x4c
 1460 07c1 19       		.byte	0x19
 1461 07c2 3C010000 		.4byte	0x13c
 1462 07c6 0C       		.byte	0xc
 1463 07c7 08       		.uleb128 0x8
 1464 07c8 95050000 		.4byte	.LASF108
 1465 07cc 0D       		.byte	0xd
 1466 07cd 4D       		.byte	0x4d
 1467 07ce 19       		.byte	0x19
 1468 07cf D0000000 		.4byte	0xd0
 1469 07d3 10       		.byte	0x10
 1470 07d4 00       		.byte	0
 1471 07d5 04       		.uleb128 0x4
 1472 07d6 75000000 		.4byte	.LASF109
 1473 07da 0D       		.byte	0xd
 1474 07db 4E       		.byte	0x4e
ARM GAS  /tmp/ccbULmAo.s 			page 27


 1475 07dc 03       		.byte	0x3
 1476 07dd 8C070000 		.4byte	0x78c
 1477 07e1 16       		.uleb128 0x16
 1478 07e2 38       		.byte	0x38
 1479 07e3 0E       		.byte	0xe
 1480 07e4 38       		.byte	0x38
 1481 07e5 09       		.byte	0x9
 1482 07e6 1F080000 		.4byte	0x81f
 1483 07ea 08       		.uleb128 0x8
 1484 07eb 72020000 		.4byte	.LASF110
 1485 07ef 0E       		.byte	0xe
 1486 07f0 39       		.byte	0x39
 1487 07f1 19       		.byte	0x19
 1488 07f2 3C010000 		.4byte	0x13c
 1489 07f6 00       		.byte	0
 1490 07f7 08       		.uleb128 0x8
 1491 07f8 F5050000 		.4byte	.LASF111
 1492 07fc 0E       		.byte	0xe
 1493 07fd 3A       		.byte	0x3a
 1494 07fe 19       		.byte	0x19
 1495 07ff 3C010000 		.4byte	0x13c
 1496 0803 04       		.byte	0x4
 1497 0804 08       		.uleb128 0x8
 1498 0805 54080000 		.4byte	.LASF112
 1499 0809 0E       		.byte	0xe
 1500 080a 3B       		.byte	0x3b
 1501 080b 19       		.byte	0x19
 1502 080c D5070000 		.4byte	0x7d5
 1503 0810 08       		.byte	0x8
 1504 0811 08       		.uleb128 0x8
 1505 0812 1C030000 		.4byte	.LASF113
 1506 0816 0E       		.byte	0xe
 1507 0817 3D       		.byte	0x3d
 1508 0818 19       		.byte	0x19
 1509 0819 D5070000 		.4byte	0x7d5
 1510 081d 20       		.byte	0x20
 1511 081e 00       		.byte	0
 1512 081f 04       		.uleb128 0x4
 1513 0820 D9020000 		.4byte	.LASF114
 1514 0824 0E       		.byte	0xe
 1515 0825 3F       		.byte	0x3f
 1516 0826 03       		.byte	0x3
 1517 0827 E1070000 		.4byte	0x7e1
 1518 082b 1A       		.uleb128 0x1a
 1519 082c 04       		.byte	0x4
 1520 082d 07       		.byte	0x7
 1521 082e FA       		.byte	0xfa
 1522 082f 03       		.byte	0x3
 1523 0830 90080000 		.4byte	0x890
 1524 0834 1B       		.uleb128 0x1b
 1525 0835 7E060000 		.4byte	.LASF115
 1526 0839 07       		.byte	0x7
 1527 083a 0101     		.2byte	0x101
 1528 083c 19       		.byte	0x19
 1529 083d 18010000 		.4byte	0x118
 1530 0841 1B       		.uleb128 0x1b
 1531 0842 BD000000 		.4byte	.LASF116
ARM GAS  /tmp/ccbULmAo.s 			page 28


 1532 0846 07       		.byte	0x7
 1533 0847 0801     		.2byte	0x108
 1534 0849 19       		.byte	0x19
 1535 084a 18010000 		.4byte	0x118
 1536 084e 1B       		.uleb128 0x1b
 1537 084f 1E080000 		.4byte	.LASF117
 1538 0853 07       		.byte	0x7
 1539 0854 0F01     		.2byte	0x10f
 1540 0856 1A       		.byte	0x1a
 1541 0857 93030000 		.4byte	0x393
 1542 085b 1B       		.uleb128 0x1b
 1543 085c 59010000 		.4byte	.LASF118
 1544 0860 07       		.byte	0x7
 1545 0861 1601     		.2byte	0x116
 1546 0863 1A       		.byte	0x1a
 1547 0864 90080000 		.4byte	0x890
 1548 0868 1B       		.uleb128 0x1b
 1549 0869 4E020000 		.4byte	.LASF119
 1550 086d 07       		.byte	0x7
 1551 086e 1E01     		.2byte	0x11e
 1552 0870 1A       		.byte	0x1a
 1553 0871 BE080000 		.4byte	0x8be
 1554 0875 1B       		.uleb128 0x1b
 1555 0876 4C070000 		.4byte	.LASF120
 1556 087a 07       		.byte	0x7
 1557 087b 2701     		.2byte	0x127
 1558 087d 1A       		.byte	0x1a
 1559 087e 06090000 		.4byte	0x906
 1560 0882 1B       		.uleb128 0x1b
 1561 0883 49060000 		.4byte	.LASF121
 1562 0887 07       		.byte	0x7
 1563 0888 2F01     		.2byte	0x12f
 1564 088a 19       		.byte	0x19
 1565 088b 24010000 		.4byte	0x124
 1566 088f 00       		.byte	0
 1567 0890 0B       		.uleb128 0xb
 1568 0891 04       		.byte	0x4
 1569 0892 9A020000 		.4byte	0x29a
 1570 0896 07       		.uleb128 0x7
 1571 0897 C4060000 		.4byte	.LASF122
 1572 089b 0C       		.byte	0xc
 1573 089c 0F       		.byte	0xf
 1574 089d 34       		.byte	0x34
 1575 089e 10       		.byte	0x10
 1576 089f BE080000 		.4byte	0x8be
 1577 08a3 08       		.uleb128 0x8
 1578 08a4 9D010000 		.4byte	.LASF123
 1579 08a8 0F       		.byte	0xf
 1580 08a9 35       		.byte	0x35
 1581 08aa 19       		.byte	0x19
 1582 08ab D3020000 		.4byte	0x2d3
 1583 08af 00       		.byte	0
 1584 08b0 08       		.uleb128 0x8
 1585 08b1 C0020000 		.4byte	.LASF124
 1586 08b5 0F       		.byte	0xf
 1587 08b6 37       		.byte	0x37
 1588 08b7 19       		.byte	0x19
ARM GAS  /tmp/ccbULmAo.s 			page 29


 1589 08b8 30010000 		.4byte	0x130
 1590 08bc 08       		.byte	0x8
 1591 08bd 00       		.byte	0
 1592 08be 0B       		.uleb128 0xb
 1593 08bf 04       		.byte	0x4
 1594 08c0 96080000 		.4byte	0x896
 1595 08c4 07       		.uleb128 0x7
 1596 08c5 D2070000 		.4byte	.LASF125
 1597 08c9 14       		.byte	0x14
 1598 08ca 10       		.byte	0x10
 1599 08cb 39       		.byte	0x39
 1600 08cc 08       		.byte	0x8
 1601 08cd 06090000 		.4byte	0x906
 1602 08d1 08       		.uleb128 0x8
 1603 08d2 14060000 		.4byte	.LASF126
 1604 08d6 10       		.byte	0x10
 1605 08d7 3A       		.byte	0x3a
 1606 08d8 19       		.byte	0x19
 1607 08d9 D3020000 		.4byte	0x2d3
 1608 08dd 00       		.byte	0
 1609 08de 08       		.uleb128 0x8
 1610 08df 5F080000 		.4byte	.LASF127
 1611 08e3 10       		.byte	0x10
 1612 08e4 3C       		.byte	0x3c
 1613 08e5 1A       		.byte	0x1a
 1614 08e6 A6020000 		.4byte	0x2a6
 1615 08ea 08       		.byte	0x8
 1616 08eb 08       		.uleb128 0x8
 1617 08ec 61070000 		.4byte	.LASF128
 1618 08f0 10       		.byte	0x10
 1619 08f1 3E       		.byte	0x3e
 1620 08f2 1A       		.byte	0x1a
 1621 08f3 780A0000 		.4byte	0xa78
 1622 08f7 0C       		.byte	0xc
 1623 08f8 08       		.uleb128 0x8
 1624 08f9 D6010000 		.4byte	.LASF129
 1625 08fd 10       		.byte	0x10
 1626 08fe 41       		.byte	0x41
 1627 08ff 19       		.byte	0x19
 1628 0900 30010000 		.4byte	0x130
 1629 0904 10       		.byte	0x10
 1630 0905 00       		.byte	0
 1631 0906 0B       		.uleb128 0xb
 1632 0907 04       		.byte	0x4
 1633 0908 C4080000 		.4byte	0x8c4
 1634 090c 0B       		.uleb128 0xb
 1635 090d 04       		.byte	0x4
 1636 090e 1E090000 		.4byte	0x91e
 1637 0912 05       		.uleb128 0x5
 1638 0913 0C090000 		.4byte	0x90c
 1639 0917 02       		.uleb128 0x2
 1640 0918 01       		.byte	0x1
 1641 0919 08       		.byte	0x8
 1642 091a 37070000 		.4byte	.LASF130
 1643 091e 06       		.uleb128 0x6
 1644 091f 17090000 		.4byte	0x917
 1645 0923 0B       		.uleb128 0xb
ARM GAS  /tmp/ccbULmAo.s 			page 30


 1646 0924 04       		.byte	0x4
 1647 0925 43050000 		.4byte	0x543
 1648 0929 0B       		.uleb128 0xb
 1649 092a 04       		.byte	0x4
 1650 092b 95030000 		.4byte	0x395
 1651 092f 18       		.uleb128 0x18
 1652 0930 43050000 		.4byte	0x543
 1653 0934 3F090000 		.4byte	0x93f
 1654 0938 19       		.uleb128 0x19
 1655 0939 2C000000 		.4byte	0x2c
 1656 093d 30       		.byte	0x30
 1657 093e 00       		.byte	0
 1658 093f 1C       		.uleb128 0x1c
 1659 0940 636800   		.ascii	"ch\000"
 1660 0943 07       		.byte	0x7
 1661 0944 0902     		.2byte	0x209
 1662 0946 14       		.byte	0x14
 1663 0947 9D040000 		.4byte	0x49d
 1664 094b 16       		.uleb128 0x16
 1665 094c 16       		.byte	0x16
 1666 094d 11       		.byte	0x11
 1667 094e 34       		.byte	0x34
 1668 094f 09       		.byte	0x9
 1669 0950 3F0A0000 		.4byte	0xa3f
 1670 0954 08       		.uleb128 0x8
 1671 0955 71080000 		.4byte	.LASF131
 1672 0959 11       		.byte	0x11
 1673 095a 35       		.byte	0x35
 1674 095b 0D       		.byte	0xd
 1675 095c 3F0A0000 		.4byte	0xa3f
 1676 0960 00       		.byte	0
 1677 0961 08       		.uleb128 0x8
 1678 0962 71030000 		.4byte	.LASF132
 1679 0966 11       		.byte	0x11
 1680 0967 36       		.byte	0x36
 1681 0968 0D       		.byte	0xd
 1682 0969 7A000000 		.4byte	0x7a
 1683 096d 04       		.byte	0x4
 1684 096e 08       		.uleb128 0x8
 1685 096f 18070000 		.4byte	.LASF133
 1686 0973 11       		.byte	0x11
 1687 0974 37       		.byte	0x37
 1688 0975 0D       		.byte	0xd
 1689 0976 7A000000 		.4byte	0x7a
 1690 097a 05       		.byte	0x5
 1691 097b 08       		.uleb128 0x8
 1692 097c 3D080000 		.4byte	.LASF134
 1693 0980 11       		.byte	0x11
 1694 0981 38       		.byte	0x38
 1695 0982 0D       		.byte	0xd
 1696 0983 92000000 		.4byte	0x92
 1697 0987 06       		.byte	0x6
 1698 0988 08       		.uleb128 0x8
 1699 0989 B2050000 		.4byte	.LASF135
 1700 098d 11       		.byte	0x11
 1701 098e 39       		.byte	0x39
 1702 098f 0D       		.byte	0xd
ARM GAS  /tmp/ccbULmAo.s 			page 31


 1703 0990 7A000000 		.4byte	0x7a
 1704 0994 08       		.byte	0x8
 1705 0995 08       		.uleb128 0x8
 1706 0996 B4030000 		.4byte	.LASF136
 1707 099a 11       		.byte	0x11
 1708 099b 3A       		.byte	0x3a
 1709 099c 0D       		.byte	0xd
 1710 099d 7A000000 		.4byte	0x7a
 1711 09a1 09       		.byte	0x9
 1712 09a2 08       		.uleb128 0x8
 1713 09a3 AF000000 		.4byte	.LASF137
 1714 09a7 11       		.byte	0x11
 1715 09a8 3B       		.byte	0x3b
 1716 09a9 0D       		.byte	0xd
 1717 09aa 7A000000 		.4byte	0x7a
 1718 09ae 0A       		.byte	0xa
 1719 09af 08       		.uleb128 0x8
 1720 09b0 F4060000 		.4byte	.LASF138
 1721 09b4 11       		.byte	0x11
 1722 09b5 3C       		.byte	0x3c
 1723 09b6 0D       		.byte	0xd
 1724 09b7 7A000000 		.4byte	0x7a
 1725 09bb 0B       		.byte	0xb
 1726 09bc 08       		.uleb128 0x8
 1727 09bd C7070000 		.4byte	.LASF139
 1728 09c1 11       		.byte	0x11
 1729 09c2 3D       		.byte	0x3d
 1730 09c3 0D       		.byte	0xd
 1731 09c4 7A000000 		.4byte	0x7a
 1732 09c8 0C       		.byte	0xc
 1733 09c9 08       		.uleb128 0x8
 1734 09ca A6060000 		.4byte	.LASF140
 1735 09ce 11       		.byte	0x11
 1736 09cf 3E       		.byte	0x3e
 1737 09d0 0D       		.byte	0xd
 1738 09d1 7A000000 		.4byte	0x7a
 1739 09d5 0D       		.byte	0xd
 1740 09d6 08       		.uleb128 0x8
 1741 09d7 00000000 		.4byte	.LASF141
 1742 09db 11       		.byte	0x11
 1743 09dc 3F       		.byte	0x3f
 1744 09dd 0D       		.byte	0xd
 1745 09de 7A000000 		.4byte	0x7a
 1746 09e2 0E       		.byte	0xe
 1747 09e3 08       		.uleb128 0x8
 1748 09e4 E5030000 		.4byte	.LASF142
 1749 09e8 11       		.byte	0x11
 1750 09e9 40       		.byte	0x40
 1751 09ea 0D       		.byte	0xd
 1752 09eb 7A000000 		.4byte	0x7a
 1753 09ef 0F       		.byte	0xf
 1754 09f0 08       		.uleb128 0x8
 1755 09f1 30010000 		.4byte	.LASF143
 1756 09f5 11       		.byte	0x11
 1757 09f6 41       		.byte	0x41
 1758 09f7 0D       		.byte	0xd
 1759 09f8 7A000000 		.4byte	0x7a
ARM GAS  /tmp/ccbULmAo.s 			page 32


 1760 09fc 10       		.byte	0x10
 1761 09fd 08       		.uleb128 0x8
 1762 09fe FF000000 		.4byte	.LASF144
 1763 0a02 11       		.byte	0x11
 1764 0a03 43       		.byte	0x43
 1765 0a04 0D       		.byte	0xd
 1766 0a05 7A000000 		.4byte	0x7a
 1767 0a09 11       		.byte	0x11
 1768 0a0a 08       		.uleb128 0x8
 1769 0a0b 97070000 		.4byte	.LASF145
 1770 0a0f 11       		.byte	0x11
 1771 0a10 44       		.byte	0x44
 1772 0a11 0D       		.byte	0xd
 1773 0a12 7A000000 		.4byte	0x7a
 1774 0a16 12       		.byte	0x12
 1775 0a17 08       		.uleb128 0x8
 1776 0a18 48080000 		.4byte	.LASF146
 1777 0a1c 11       		.byte	0x11
 1778 0a1d 45       		.byte	0x45
 1779 0a1e 0D       		.byte	0xd
 1780 0a1f 7A000000 		.4byte	0x7a
 1781 0a23 13       		.byte	0x13
 1782 0a24 08       		.uleb128 0x8
 1783 0a25 5F060000 		.4byte	.LASF147
 1784 0a29 11       		.byte	0x11
 1785 0a2a 46       		.byte	0x46
 1786 0a2b 0D       		.byte	0xd
 1787 0a2c 7A000000 		.4byte	0x7a
 1788 0a30 14       		.byte	0x14
 1789 0a31 08       		.uleb128 0x8
 1790 0a32 10030000 		.4byte	.LASF148
 1791 0a36 11       		.byte	0x11
 1792 0a37 48       		.byte	0x48
 1793 0a38 0D       		.byte	0xd
 1794 0a39 7A000000 		.4byte	0x7a
 1795 0a3d 15       		.byte	0x15
 1796 0a3e 00       		.byte	0
 1797 0a3f 18       		.uleb128 0x18
 1798 0a40 17090000 		.4byte	0x917
 1799 0a44 4F0A0000 		.4byte	0xa4f
 1800 0a48 19       		.uleb128 0x19
 1801 0a49 2C000000 		.4byte	0x2c
 1802 0a4d 03       		.byte	0x3
 1803 0a4e 00       		.byte	0
 1804 0a4f 04       		.uleb128 0x4
 1805 0a50 8B010000 		.4byte	.LASF149
 1806 0a54 11       		.byte	0x11
 1807 0a55 49       		.byte	0x49
 1808 0a56 03       		.byte	0x3
 1809 0a57 4B090000 		.4byte	0x94b
 1810 0a5b 06       		.uleb128 0x6
 1811 0a5c 4F0A0000 		.4byte	0xa4f
 1812 0a60 14       		.uleb128 0x14
 1813 0a61 69020000 		.4byte	.LASF150
 1814 0a65 11       		.byte	0x11
 1815 0a66 6E       		.byte	0x6e
 1816 0a67 1D       		.byte	0x1d
ARM GAS  /tmp/ccbULmAo.s 			page 33


 1817 0a68 5B0A0000 		.4byte	0xa5b
 1818 0a6c 04       		.uleb128 0x4
 1819 0a6d DC010000 		.4byte	.LASF151
 1820 0a71 10       		.byte	0x10
 1821 0a72 34       		.byte	0x34
 1822 0a73 19       		.byte	0x19
 1823 0a74 C4080000 		.4byte	0x8c4
 1824 0a78 0B       		.uleb128 0xb
 1825 0a79 04       		.byte	0x4
 1826 0a7a 6C0A0000 		.4byte	0xa6c
 1827 0a7e 0B       		.uleb128 0xb
 1828 0a7f 04       		.byte	0x4
 1829 0a80 7A000000 		.4byte	0x7a
 1830 0a84 07       		.uleb128 0x7
 1831 0a85 DC060000 		.4byte	.LASF152
 1832 0a89 10       		.byte	0x10
 1833 0a8a 12       		.byte	0x12
 1834 0a8b 40       		.byte	0x40
 1835 0a8c 08       		.byte	0x8
 1836 0a8d C60A0000 		.4byte	0xac6
 1837 0a91 08       		.uleb128 0x8
 1838 0a92 79030000 		.4byte	.LASF153
 1839 0a96 12       		.byte	0x12
 1840 0a97 41       		.byte	0x41
 1841 0a98 03       		.byte	0x3
 1842 0a99 EA0A0000 		.4byte	0xaea
 1843 0a9d 00       		.byte	0
 1844 0a9e 08       		.uleb128 0x8
 1845 0a9f 32070000 		.4byte	.LASF154
 1846 0aa3 12       		.byte	0x12
 1847 0aa4 41       		.byte	0x41
 1848 0aa5 03       		.byte	0x3
 1849 0aa6 090B0000 		.4byte	0xb09
 1850 0aaa 04       		.byte	0x4
 1851 0aab 15       		.uleb128 0x15
 1852 0aac 70757400 		.ascii	"put\000"
 1853 0ab0 12       		.byte	0x12
 1854 0ab1 41       		.byte	0x41
 1855 0ab2 03       		.byte	0x3
 1856 0ab3 230B0000 		.4byte	0xb23
 1857 0ab7 08       		.byte	0x8
 1858 0ab8 15       		.uleb128 0x15
 1859 0ab9 67657400 		.ascii	"get\000"
 1860 0abd 12       		.byte	0x12
 1861 0abe 41       		.byte	0x41
 1862 0abf 03       		.byte	0x3
 1863 0ac0 380B0000 		.4byte	0xb38
 1864 0ac4 0C       		.byte	0xc
 1865 0ac5 00       		.byte	0
 1866 0ac6 06       		.uleb128 0x6
 1867 0ac7 840A0000 		.4byte	0xa84
 1868 0acb 1D       		.uleb128 0x1d
 1869 0acc 3A000000 		.4byte	0x3a
 1870 0ad0 E40A0000 		.4byte	0xae4
 1871 0ad4 0E       		.uleb128 0xe
 1872 0ad5 93030000 		.4byte	0x393
 1873 0ad9 0E       		.uleb128 0xe
ARM GAS  /tmp/ccbULmAo.s 			page 34


 1874 0ada E40A0000 		.4byte	0xae4
 1875 0ade 0E       		.uleb128 0xe
 1876 0adf 3A000000 		.4byte	0x3a
 1877 0ae3 00       		.byte	0
 1878 0ae4 0B       		.uleb128 0xb
 1879 0ae5 04       		.byte	0x4
 1880 0ae6 86000000 		.4byte	0x86
 1881 0aea 0B       		.uleb128 0xb
 1882 0aeb 04       		.byte	0x4
 1883 0aec CB0A0000 		.4byte	0xacb
 1884 0af0 1D       		.uleb128 0x1d
 1885 0af1 3A000000 		.4byte	0x3a
 1886 0af5 090B0000 		.4byte	0xb09
 1887 0af9 0E       		.uleb128 0xe
 1888 0afa 93030000 		.4byte	0x393
 1889 0afe 0E       		.uleb128 0xe
 1890 0aff 7E0A0000 		.4byte	0xa7e
 1891 0b03 0E       		.uleb128 0xe
 1892 0b04 3A000000 		.4byte	0x3a
 1893 0b08 00       		.byte	0
 1894 0b09 0B       		.uleb128 0xb
 1895 0b0a 04       		.byte	0x4
 1896 0b0b F00A0000 		.4byte	0xaf0
 1897 0b0f 1D       		.uleb128 0x1d
 1898 0b10 18010000 		.4byte	0x118
 1899 0b14 230B0000 		.4byte	0xb23
 1900 0b18 0E       		.uleb128 0xe
 1901 0b19 93030000 		.4byte	0x393
 1902 0b1d 0E       		.uleb128 0xe
 1903 0b1e 7A000000 		.4byte	0x7a
 1904 0b22 00       		.byte	0
 1905 0b23 0B       		.uleb128 0xb
 1906 0b24 04       		.byte	0x4
 1907 0b25 0F0B0000 		.4byte	0xb0f
 1908 0b29 1D       		.uleb128 0x1d
 1909 0b2a 18010000 		.4byte	0x118
 1910 0b2e 380B0000 		.4byte	0xb38
 1911 0b32 0E       		.uleb128 0xe
 1912 0b33 93030000 		.4byte	0x393
 1913 0b37 00       		.byte	0
 1914 0b38 0B       		.uleb128 0xb
 1915 0b39 04       		.byte	0x4
 1916 0b3a 290B0000 		.4byte	0xb29
 1917 0b3e 16       		.uleb128 0x16
 1918 0b3f 04       		.byte	0x4
 1919 0b40 12       		.byte	0x12
 1920 0b41 49       		.byte	0x49
 1921 0b42 09       		.byte	0x9
 1922 0b43 550B0000 		.4byte	0xb55
 1923 0b47 15       		.uleb128 0x15
 1924 0b48 766D7400 		.ascii	"vmt\000"
 1925 0b4c 12       		.byte	0x12
 1926 0b4d 4B       		.byte	0x4b
 1927 0b4e 29       		.byte	0x29
 1928 0b4f 550B0000 		.4byte	0xb55
 1929 0b53 00       		.byte	0
 1930 0b54 00       		.byte	0
ARM GAS  /tmp/ccbULmAo.s 			page 35


 1931 0b55 0B       		.uleb128 0xb
 1932 0b56 04       		.byte	0x4
 1933 0b57 C60A0000 		.4byte	0xac6
 1934 0b5b 04       		.uleb128 0x4
 1935 0b5c E4010000 		.4byte	.LASF155
 1936 0b60 12       		.byte	0x12
 1937 0b61 4D       		.byte	0x4d
 1938 0b62 03       		.byte	0x3
 1939 0b63 3E0B0000 		.4byte	0xb3e
 1940 0b67 04       		.uleb128 0x4
 1941 0b68 C7030000 		.4byte	.LASF156
 1942 0b6c 13       		.byte	0x13
 1943 0b6d 28       		.byte	0x28
 1944 0b6e 1B       		.byte	0x1b
 1945 0b6f 730B0000 		.4byte	0xb73
 1946 0b73 1E       		.uleb128 0x1e
 1947 0b74 7B010000 		.4byte	.LASF167
 1948 0b78 04       		.byte	0x4
 1949 0b79 14       		.byte	0x14
 1950 0b7a 00       		.byte	0
 1951 0b7b 8A0B0000 		.4byte	0xb8a
 1952 0b7f 1F       		.uleb128 0x1f
 1953 0b80 A4070000 		.4byte	.LASF168
 1954 0b84 93030000 		.4byte	0x393
 1955 0b88 00       		.byte	0
 1956 0b89 00       		.byte	0
 1957 0b8a 04       		.uleb128 0x4
 1958 0b8b 58000000 		.4byte	.LASF157
 1959 0b8f 13       		.byte	0x13
 1960 0b90 63       		.byte	0x63
 1961 0b91 18       		.byte	0x18
 1962 0b92 670B0000 		.4byte	0xb67
 1963 0b96 20       		.uleb128 0x20
 1964 0b97 29000000 		.4byte	.LASF169
 1965 0b9b 02       		.byte	0x2
 1966 0b9c 0D       		.byte	0xd
 1967 0b9d 06       		.byte	0x6
 1968 0b9e 00000000 		.4byte	.LFB220
 1969 0ba2 C4010000 		.4byte	.LFE220-.LFB220
 1970 0ba6 01       		.uleb128 0x1
 1971 0ba7 9C       		.byte	0x9c
 1972 0ba8 CD0C0000 		.4byte	0xccd
 1973 0bac 21       		.uleb128 0x21
 1974 0bad 6F757400 		.ascii	"out\000"
 1975 0bb1 02       		.byte	0x2
 1976 0bb2 0D       		.byte	0xd
 1977 0bb3 29       		.byte	0x29
 1978 0bb4 CD0C0000 		.4byte	0xccd
 1979 0bb8 0A000000 		.4byte	.LLST2
 1980 0bbc 00000000 		.4byte	.LVUS2
 1981 0bc0 22       		.uleb128 0x22
 1982 0bc1 747000   		.ascii	"tp\000"
 1983 0bc4 02       		.byte	0x2
 1984 0bc5 0F       		.byte	0xf
 1985 0bc6 0C       		.byte	0xc
 1986 0bc7 A6020000 		.4byte	0x2a6
 1987 0bcb 58000000 		.4byte	.LLST3
ARM GAS  /tmp/ccbULmAo.s 			page 36


 1988 0bcf 4C000000 		.4byte	.LVUS3
 1989 0bd3 23       		.uleb128 0x23
 1990 0bd4 73756D00 		.ascii	"sum\000"
 1991 0bd8 02       		.byte	0x2
 1992 0bd9 11       		.byte	0x11
 1993 0bda 12       		.byte	0x12
 1994 0bdb B8000000 		.4byte	0xb8
 1995 0bdf 05       		.uleb128 0x5
 1996 0be0 03       		.byte	0x3
 1997 0be1 00000000 		.4byte	sum.7976
 1998 0be5 24       		.uleb128 0x24
 1999 0be6 0C010000 		.4byte	.LASF158
 2000 0bea 02       		.byte	0x2
 2001 0beb 12       		.byte	0x12
 2002 0bec 12       		.byte	0x12
 2003 0bed 92000000 		.4byte	0x92
 2004 0bf1 24       		.uleb128 0x24
 2005 0bf2 11010000 		.4byte	.LASF159
 2006 0bf6 02       		.byte	0x2
 2007 0bf7 12       		.byte	0x12
 2008 0bf8 18       		.byte	0x18
 2009 0bf9 92000000 		.4byte	0x92
 2010 0bfd 25       		.uleb128 0x25
 2011 0bfe 20000000 		.4byte	.LVL4
 2012 0c02 5F0D0000 		.4byte	0xd5f
 2013 0c06 25       		.uleb128 0x25
 2014 0c07 36000000 		.4byte	.LVL5
 2015 0c0b 6B0D0000 		.4byte	0xd6b
 2016 0c0f 25       		.uleb128 0x25
 2017 0c10 68000000 		.4byte	.LVL6
 2018 0c14 5F0D0000 		.4byte	0xd5f
 2019 0c18 26       		.uleb128 0x26
 2020 0c19 D6000000 		.4byte	.LVL10
 2021 0c1d D30C0000 		.4byte	0xcd3
 2022 0c21 320C0000 		.4byte	0xc32
 2023 0c25 27       		.uleb128 0x27
 2024 0c26 01       		.uleb128 0x1
 2025 0c27 50       		.byte	0x50
 2026 0c28 02       		.uleb128 0x2
 2027 0c29 75       		.byte	0x75
 2028 0c2a 00       		.sleb128 0
 2029 0c2b 27       		.uleb128 0x27
 2030 0c2c 01       		.uleb128 0x1
 2031 0c2d 51       		.byte	0x51
 2032 0c2e 02       		.uleb128 0x2
 2033 0c2f 7B       		.byte	0x7b
 2034 0c30 00       		.sleb128 0
 2035 0c31 00       		.byte	0
 2036 0c32 26       		.uleb128 0x26
 2037 0c33 DC000000 		.4byte	.LVL11
 2038 0c37 6B0D0000 		.4byte	0xd6b
 2039 0c3b 460C0000 		.4byte	0xc46
 2040 0c3f 27       		.uleb128 0x27
 2041 0c40 01       		.uleb128 0x1
 2042 0c41 50       		.byte	0x50
 2043 0c42 02       		.uleb128 0x2
 2044 0c43 7A       		.byte	0x7a
ARM GAS  /tmp/ccbULmAo.s 			page 37


 2045 0c44 00       		.sleb128 0
 2046 0c45 00       		.byte	0
 2047 0c46 26       		.uleb128 0x26
 2048 0c47 8C010000 		.4byte	.LVL16
 2049 0c4b D30C0000 		.4byte	0xcd3
 2050 0c4f A50C0000 		.4byte	0xca5
 2051 0c53 27       		.uleb128 0x27
 2052 0c54 01       		.uleb128 0x1
 2053 0c55 50       		.byte	0x50
 2054 0c56 02       		.uleb128 0x2
 2055 0c57 75       		.byte	0x75
 2056 0c58 00       		.sleb128 0
 2057 0c59 27       		.uleb128 0x27
 2058 0c5a 01       		.uleb128 0x1
 2059 0c5b 51       		.byte	0x51
 2060 0c5c 05       		.uleb128 0x5
 2061 0c5d 03       		.byte	0x3
 2062 0c5e 10000000 		.4byte	.LC2
 2063 0c62 27       		.uleb128 0x27
 2064 0c63 01       		.uleb128 0x1
 2065 0c64 52       		.byte	0x52
 2066 0c65 18       		.uleb128 0x18
 2067 0c66 74       		.byte	0x74
 2068 0c67 00       		.sleb128 0
 2069 0c68 F7       		.byte	0xf7
 2070 0c69 2C       		.uleb128 0x2c
 2071 0c6a F7       		.byte	0xf7
 2072 0c6b 25       		.uleb128 0x25
 2073 0c6c 78       		.byte	0x78
 2074 0c6d 00       		.sleb128 0
 2075 0c6e F7       		.byte	0xf7
 2076 0c6f 2C       		.uleb128 0x2c
 2077 0c70 F7       		.byte	0xf7
 2078 0c71 25       		.uleb128 0x25
 2079 0c72 1E       		.byte	0x1e
 2080 0c73 08       		.byte	0x8
 2081 0c74 20       		.byte	0x20
 2082 0c75 F7       		.byte	0xf7
 2083 0c76 25       		.uleb128 0x25
 2084 0c77 25       		.byte	0x25
 2085 0c78 F7       		.byte	0xf7
 2086 0c79 2C       		.uleb128 0x2c
 2087 0c7a F7       		.byte	0xf7
 2088 0c7b 00       		.uleb128 0
 2089 0c7c 35       		.byte	0x35
 2090 0c7d 25       		.byte	0x25
 2091 0c7e 27       		.uleb128 0x27
 2092 0c7f 01       		.uleb128 0x1
 2093 0c80 53       		.byte	0x53
 2094 0c81 22       		.uleb128 0x22
 2095 0c82 74       		.byte	0x74
 2096 0c83 00       		.sleb128 0
 2097 0c84 74       		.byte	0x74
 2098 0c85 00       		.sleb128 0
 2099 0c86 F7       		.byte	0xf7
 2100 0c87 2C       		.uleb128 0x2c
 2101 0c88 F7       		.byte	0xf7
ARM GAS  /tmp/ccbULmAo.s 			page 38


 2102 0c89 25       		.uleb128 0x25
 2103 0c8a 78       		.byte	0x78
 2104 0c8b 00       		.sleb128 0
 2105 0c8c F7       		.byte	0xf7
 2106 0c8d 2C       		.uleb128 0x2c
 2107 0c8e F7       		.byte	0xf7
 2108 0c8f 25       		.uleb128 0x25
 2109 0c90 1E       		.byte	0x1e
 2110 0c91 08       		.byte	0x8
 2111 0c92 20       		.byte	0x20
 2112 0c93 F7       		.byte	0xf7
 2113 0c94 25       		.uleb128 0x25
 2114 0c95 25       		.byte	0x25
 2115 0c96 F7       		.byte	0xf7
 2116 0c97 2C       		.uleb128 0x2c
 2117 0c98 F7       		.byte	0xf7
 2118 0c99 00       		.uleb128 0
 2119 0c9a 35       		.byte	0x35
 2120 0c9b 25       		.byte	0x25
 2121 0c9c 79       		.byte	0x79
 2122 0c9d 00       		.sleb128 0
 2123 0c9e 1E       		.byte	0x1e
 2124 0c9f 1C       		.byte	0x1c
 2125 0ca0 0A       		.byte	0xa
 2126 0ca1 FFFF     		.2byte	0xffff
 2127 0ca3 1A       		.byte	0x1a
 2128 0ca4 00       		.byte	0
 2129 0ca5 28       		.uleb128 0x28
 2130 0ca6 A4010000 		.4byte	.LVL18
 2131 0caa D30C0000 		.4byte	0xcd3
 2132 0cae C30C0000 		.4byte	0xcc3
 2133 0cb2 27       		.uleb128 0x27
 2134 0cb3 01       		.uleb128 0x1
 2135 0cb4 50       		.byte	0x50
 2136 0cb5 03       		.uleb128 0x3
 2137 0cb6 F3       		.byte	0xf3
 2138 0cb7 01       		.uleb128 0x1
 2139 0cb8 50       		.byte	0x50
 2140 0cb9 27       		.uleb128 0x27
 2141 0cba 01       		.uleb128 0x1
 2142 0cbb 51       		.byte	0x51
 2143 0cbc 05       		.uleb128 0x5
 2144 0cbd 03       		.byte	0x3
 2145 0cbe 40000000 		.4byte	.LC3
 2146 0cc2 00       		.byte	0
 2147 0cc3 25       		.uleb128 0x25
 2148 0cc4 A8010000 		.4byte	.LVL19
 2149 0cc8 770D0000 		.4byte	0xd77
 2150 0ccc 00       		.byte	0
 2151 0ccd 0B       		.uleb128 0xb
 2152 0cce 04       		.byte	0x4
 2153 0ccf 5B0B0000 		.4byte	0xb5b
 2154 0cd3 29       		.uleb128 0x29
 2155 0cd4 98080000 		.4byte	.LASF170
 2156 0cd8 01       		.byte	0x1
 2157 0cd9 45       		.byte	0x45
 2158 0cda 13       		.byte	0x13
ARM GAS  /tmp/ccbULmAo.s 			page 39


 2159 0cdb 33000000 		.4byte	0x33
 2160 0cdf 00000000 		.4byte	.LFB219
 2161 0ce3 38000000 		.4byte	.LFE219-.LFB219
 2162 0ce7 01       		.uleb128 0x1
 2163 0ce8 9C       		.byte	0x9c
 2164 0ce9 5F0D0000 		.4byte	0xd5f
 2165 0ced 21       		.uleb128 0x21
 2166 0cee 63687000 		.ascii	"chp\000"
 2167 0cf2 01       		.byte	0x1
 2168 0cf3 45       		.byte	0x45
 2169 0cf4 32       		.byte	0x32
 2170 0cf5 CD0C0000 		.4byte	0xccd
 2171 0cf9 A6000000 		.4byte	.LLST0
 2172 0cfd A2000000 		.4byte	.LVUS0
 2173 0d01 2A       		.uleb128 0x2a
 2174 0d02 666D7400 		.ascii	"fmt\000"
 2175 0d06 01       		.byte	0x1
 2176 0d07 45       		.byte	0x45
 2177 0d08 43       		.byte	0x43
 2178 0d09 0C090000 		.4byte	0x90c
 2179 0d0d 02       		.uleb128 0x2
 2180 0d0e 91       		.byte	0x91
 2181 0d0f 74       		.sleb128 -12
 2182 0d10 2B       		.uleb128 0x2b
 2183 0d11 23       		.uleb128 0x23
 2184 0d12 617000   		.ascii	"ap\000"
 2185 0d15 01       		.byte	0x1
 2186 0d16 46       		.byte	0x46
 2187 0d17 0B       		.byte	0xb
 2188 0d18 8A0B0000 		.4byte	0xb8a
 2189 0d1c 02       		.uleb128 0x2
 2190 0d1d 91       		.byte	0x91
 2191 0d1e 68       		.sleb128 -24
 2192 0d1f 2C       		.uleb128 0x2c
 2193 0d20 9F000000 		.4byte	.LASF160
 2194 0d24 01       		.byte	0x1
 2195 0d25 47       		.byte	0x47
 2196 0d26 07       		.byte	0x7
 2197 0d27 33000000 		.4byte	0x33
 2198 0d2b C9000000 		.4byte	.LLST1
 2199 0d2f C7000000 		.4byte	.LVUS1
 2200 0d33 26       		.uleb128 0x26
 2201 0d34 1C000000 		.4byte	.LVL1
 2202 0d38 800D0000 		.4byte	0xd80
 2203 0d3c 550D0000 		.4byte	0xd55
 2204 0d40 27       		.uleb128 0x27
 2205 0d41 01       		.uleb128 0x1
 2206 0d42 50       		.byte	0x50
 2207 0d43 03       		.uleb128 0x3
 2208 0d44 F3       		.byte	0xf3
 2209 0d45 01       		.uleb128 0x1
 2210 0d46 50       		.byte	0x50
 2211 0d47 27       		.uleb128 0x27
 2212 0d48 01       		.uleb128 0x1
 2213 0d49 51       		.byte	0x51
 2214 0d4a 03       		.uleb128 0x3
 2215 0d4b 91       		.byte	0x91
ARM GAS  /tmp/ccbULmAo.s 			page 40


 2216 0d4c 5C       		.sleb128 -36
 2217 0d4d 06       		.byte	0x6
 2218 0d4e 27       		.uleb128 0x27
 2219 0d4f 01       		.uleb128 0x1
 2220 0d50 52       		.byte	0x52
 2221 0d51 02       		.uleb128 0x2
 2222 0d52 91       		.byte	0x91
 2223 0d53 60       		.sleb128 -32
 2224 0d54 00       		.byte	0
 2225 0d55 25       		.uleb128 0x25
 2226 0d56 34000000 		.4byte	.LVL2
 2227 0d5a 770D0000 		.4byte	0xd77
 2228 0d5e 00       		.byte	0
 2229 0d5f 2D       		.uleb128 0x2d
 2230 0d60 D1000000 		.4byte	.LASF161
 2231 0d64 D1000000 		.4byte	.LASF161
 2232 0d68 11       		.byte	0x11
 2233 0d69 6F       		.byte	0x6f
 2234 0d6a 0D       		.byte	0xd
 2235 0d6b 2D       		.uleb128 0x2d
 2236 0d6c 3C070000 		.4byte	.LASF162
 2237 0d70 3C070000 		.4byte	.LASF162
 2238 0d74 11       		.byte	0x11
 2239 0d75 70       		.byte	0x70
 2240 0d76 0D       		.byte	0xd
 2241 0d77 2E       		.uleb128 0x2e
 2242 0d78 B3060000 		.4byte	.LASF171
 2243 0d7c B3060000 		.4byte	.LASF171
 2244 0d80 2D       		.uleb128 0x2d
 2245 0d81 01080000 		.4byte	.LASF163
 2246 0d85 01080000 		.4byte	.LASF163
 2247 0d89 01       		.byte	0x1
 2248 0d8a 28       		.byte	0x28
 2249 0d8b 07       		.byte	0x7
 2250 0d8c 00       		.byte	0
 2251              		.section	.debug_abbrev,"",%progbits
 2252              	.Ldebug_abbrev0:
 2253 0000 01       		.uleb128 0x1
 2254 0001 11       		.uleb128 0x11
 2255 0002 01       		.byte	0x1
 2256 0003 25       		.uleb128 0x25
 2257 0004 0E       		.uleb128 0xe
 2258 0005 13       		.uleb128 0x13
 2259 0006 0B       		.uleb128 0xb
 2260 0007 03       		.uleb128 0x3
 2261 0008 0E       		.uleb128 0xe
 2262 0009 1B       		.uleb128 0x1b
 2263 000a 0E       		.uleb128 0xe
 2264 000b 55       		.uleb128 0x55
 2265 000c 17       		.uleb128 0x17
 2266 000d 11       		.uleb128 0x11
 2267 000e 01       		.uleb128 0x1
 2268 000f 10       		.uleb128 0x10
 2269 0010 17       		.uleb128 0x17
 2270 0011 00       		.byte	0
 2271 0012 00       		.byte	0
 2272 0013 02       		.uleb128 0x2
ARM GAS  /tmp/ccbULmAo.s 			page 41


 2273 0014 24       		.uleb128 0x24
 2274 0015 00       		.byte	0
 2275 0016 0B       		.uleb128 0xb
 2276 0017 0B       		.uleb128 0xb
 2277 0018 3E       		.uleb128 0x3e
 2278 0019 0B       		.uleb128 0xb
 2279 001a 03       		.uleb128 0x3
 2280 001b 0E       		.uleb128 0xe
 2281 001c 00       		.byte	0
 2282 001d 00       		.byte	0
 2283 001e 03       		.uleb128 0x3
 2284 001f 24       		.uleb128 0x24
 2285 0020 00       		.byte	0
 2286 0021 0B       		.uleb128 0xb
 2287 0022 0B       		.uleb128 0xb
 2288 0023 3E       		.uleb128 0x3e
 2289 0024 0B       		.uleb128 0xb
 2290 0025 03       		.uleb128 0x3
 2291 0026 08       		.uleb128 0x8
 2292 0027 00       		.byte	0
 2293 0028 00       		.byte	0
 2294 0029 04       		.uleb128 0x4
 2295 002a 16       		.uleb128 0x16
 2296 002b 00       		.byte	0
 2297 002c 03       		.uleb128 0x3
 2298 002d 0E       		.uleb128 0xe
 2299 002e 3A       		.uleb128 0x3a
 2300 002f 0B       		.uleb128 0xb
 2301 0030 3B       		.uleb128 0x3b
 2302 0031 0B       		.uleb128 0xb
 2303 0032 39       		.uleb128 0x39
 2304 0033 0B       		.uleb128 0xb
 2305 0034 49       		.uleb128 0x49
 2306 0035 13       		.uleb128 0x13
 2307 0036 00       		.byte	0
 2308 0037 00       		.byte	0
 2309 0038 05       		.uleb128 0x5
 2310 0039 35       		.uleb128 0x35
 2311 003a 00       		.byte	0
 2312 003b 49       		.uleb128 0x49
 2313 003c 13       		.uleb128 0x13
 2314 003d 00       		.byte	0
 2315 003e 00       		.byte	0
 2316 003f 06       		.uleb128 0x6
 2317 0040 26       		.uleb128 0x26
 2318 0041 00       		.byte	0
 2319 0042 49       		.uleb128 0x49
 2320 0043 13       		.uleb128 0x13
 2321 0044 00       		.byte	0
 2322 0045 00       		.byte	0
 2323 0046 07       		.uleb128 0x7
 2324 0047 13       		.uleb128 0x13
 2325 0048 01       		.byte	0x1
 2326 0049 03       		.uleb128 0x3
 2327 004a 0E       		.uleb128 0xe
 2328 004b 0B       		.uleb128 0xb
 2329 004c 0B       		.uleb128 0xb
ARM GAS  /tmp/ccbULmAo.s 			page 42


 2330 004d 3A       		.uleb128 0x3a
 2331 004e 0B       		.uleb128 0xb
 2332 004f 3B       		.uleb128 0x3b
 2333 0050 0B       		.uleb128 0xb
 2334 0051 39       		.uleb128 0x39
 2335 0052 0B       		.uleb128 0xb
 2336 0053 01       		.uleb128 0x1
 2337 0054 13       		.uleb128 0x13
 2338 0055 00       		.byte	0
 2339 0056 00       		.byte	0
 2340 0057 08       		.uleb128 0x8
 2341 0058 0D       		.uleb128 0xd
 2342 0059 00       		.byte	0
 2343 005a 03       		.uleb128 0x3
 2344 005b 0E       		.uleb128 0xe
 2345 005c 3A       		.uleb128 0x3a
 2346 005d 0B       		.uleb128 0xb
 2347 005e 3B       		.uleb128 0x3b
 2348 005f 0B       		.uleb128 0xb
 2349 0060 39       		.uleb128 0x39
 2350 0061 0B       		.uleb128 0xb
 2351 0062 49       		.uleb128 0x49
 2352 0063 13       		.uleb128 0x13
 2353 0064 38       		.uleb128 0x38
 2354 0065 0B       		.uleb128 0xb
 2355 0066 00       		.byte	0
 2356 0067 00       		.byte	0
 2357 0068 09       		.uleb128 0x9
 2358 0069 0D       		.uleb128 0xd
 2359 006a 00       		.byte	0
 2360 006b 03       		.uleb128 0x3
 2361 006c 08       		.uleb128 0x8
 2362 006d 3A       		.uleb128 0x3a
 2363 006e 0B       		.uleb128 0xb
 2364 006f 3B       		.uleb128 0x3b
 2365 0070 05       		.uleb128 0x5
 2366 0071 39       		.uleb128 0x39
 2367 0072 0B       		.uleb128 0xb
 2368 0073 49       		.uleb128 0x49
 2369 0074 13       		.uleb128 0x13
 2370 0075 38       		.uleb128 0x38
 2371 0076 0B       		.uleb128 0xb
 2372 0077 00       		.byte	0
 2373 0078 00       		.byte	0
 2374 0079 0A       		.uleb128 0xa
 2375 007a 0D       		.uleb128 0xd
 2376 007b 00       		.byte	0
 2377 007c 03       		.uleb128 0x3
 2378 007d 0E       		.uleb128 0xe
 2379 007e 3A       		.uleb128 0x3a
 2380 007f 0B       		.uleb128 0xb
 2381 0080 3B       		.uleb128 0x3b
 2382 0081 05       		.uleb128 0x5
 2383 0082 39       		.uleb128 0x39
 2384 0083 0B       		.uleb128 0xb
 2385 0084 49       		.uleb128 0x49
 2386 0085 13       		.uleb128 0x13
ARM GAS  /tmp/ccbULmAo.s 			page 43


 2387 0086 38       		.uleb128 0x38
 2388 0087 0B       		.uleb128 0xb
 2389 0088 00       		.byte	0
 2390 0089 00       		.byte	0
 2391 008a 0B       		.uleb128 0xb
 2392 008b 0F       		.uleb128 0xf
 2393 008c 00       		.byte	0
 2394 008d 0B       		.uleb128 0xb
 2395 008e 0B       		.uleb128 0xb
 2396 008f 49       		.uleb128 0x49
 2397 0090 13       		.uleb128 0x13
 2398 0091 00       		.byte	0
 2399 0092 00       		.byte	0
 2400 0093 0C       		.uleb128 0xc
 2401 0094 13       		.uleb128 0x13
 2402 0095 01       		.byte	0x1
 2403 0096 03       		.uleb128 0x3
 2404 0097 0E       		.uleb128 0xe
 2405 0098 0B       		.uleb128 0xb
 2406 0099 0B       		.uleb128 0xb
 2407 009a 3A       		.uleb128 0x3a
 2408 009b 0B       		.uleb128 0xb
 2409 009c 3B       		.uleb128 0x3b
 2410 009d 05       		.uleb128 0x5
 2411 009e 39       		.uleb128 0x39
 2412 009f 0B       		.uleb128 0xb
 2413 00a0 01       		.uleb128 0x1
 2414 00a1 13       		.uleb128 0x13
 2415 00a2 00       		.byte	0
 2416 00a3 00       		.byte	0
 2417 00a4 0D       		.uleb128 0xd
 2418 00a5 15       		.uleb128 0x15
 2419 00a6 01       		.byte	0x1
 2420 00a7 27       		.uleb128 0x27
 2421 00a8 19       		.uleb128 0x19
 2422 00a9 01       		.uleb128 0x1
 2423 00aa 13       		.uleb128 0x13
 2424 00ab 00       		.byte	0
 2425 00ac 00       		.byte	0
 2426 00ad 0E       		.uleb128 0xe
 2427 00ae 05       		.uleb128 0x5
 2428 00af 00       		.byte	0
 2429 00b0 49       		.uleb128 0x49
 2430 00b1 13       		.uleb128 0x13
 2431 00b2 00       		.byte	0
 2432 00b3 00       		.byte	0
 2433 00b4 0F       		.uleb128 0xf
 2434 00b5 0F       		.uleb128 0xf
 2435 00b6 00       		.byte	0
 2436 00b7 0B       		.uleb128 0xb
 2437 00b8 0B       		.uleb128 0xb
 2438 00b9 00       		.byte	0
 2439 00ba 00       		.byte	0
 2440 00bb 10       		.uleb128 0x10
 2441 00bc 13       		.uleb128 0x13
 2442 00bd 01       		.byte	0x1
 2443 00be 03       		.uleb128 0x3
ARM GAS  /tmp/ccbULmAo.s 			page 44


 2444 00bf 0E       		.uleb128 0xe
 2445 00c0 0B       		.uleb128 0xb
 2446 00c1 05       		.uleb128 0x5
 2447 00c2 3A       		.uleb128 0x3a
 2448 00c3 0B       		.uleb128 0xb
 2449 00c4 3B       		.uleb128 0x3b
 2450 00c5 05       		.uleb128 0x5
 2451 00c6 39       		.uleb128 0x39
 2452 00c7 0B       		.uleb128 0xb
 2453 00c8 01       		.uleb128 0x1
 2454 00c9 13       		.uleb128 0x13
 2455 00ca 00       		.byte	0
 2456 00cb 00       		.byte	0
 2457 00cc 11       		.uleb128 0x11
 2458 00cd 0D       		.uleb128 0xd
 2459 00ce 00       		.byte	0
 2460 00cf 03       		.uleb128 0x3
 2461 00d0 0E       		.uleb128 0xe
 2462 00d1 3A       		.uleb128 0x3a
 2463 00d2 0B       		.uleb128 0xb
 2464 00d3 3B       		.uleb128 0x3b
 2465 00d4 05       		.uleb128 0x5
 2466 00d5 39       		.uleb128 0x39
 2467 00d6 0B       		.uleb128 0xb
 2468 00d7 49       		.uleb128 0x49
 2469 00d8 13       		.uleb128 0x13
 2470 00d9 38       		.uleb128 0x38
 2471 00da 05       		.uleb128 0x5
 2472 00db 00       		.byte	0
 2473 00dc 00       		.byte	0
 2474 00dd 12       		.uleb128 0x12
 2475 00de 0D       		.uleb128 0xd
 2476 00df 00       		.byte	0
 2477 00e0 03       		.uleb128 0x3
 2478 00e1 08       		.uleb128 0x8
 2479 00e2 3A       		.uleb128 0x3a
 2480 00e3 0B       		.uleb128 0xb
 2481 00e4 3B       		.uleb128 0x3b
 2482 00e5 05       		.uleb128 0x5
 2483 00e6 39       		.uleb128 0x39
 2484 00e7 0B       		.uleb128 0xb
 2485 00e8 49       		.uleb128 0x49
 2486 00e9 13       		.uleb128 0x13
 2487 00ea 38       		.uleb128 0x38
 2488 00eb 05       		.uleb128 0x5
 2489 00ec 00       		.byte	0
 2490 00ed 00       		.byte	0
 2491 00ee 13       		.uleb128 0x13
 2492 00ef 34       		.uleb128 0x34
 2493 00f0 00       		.byte	0
 2494 00f1 03       		.uleb128 0x3
 2495 00f2 0E       		.uleb128 0xe
 2496 00f3 3A       		.uleb128 0x3a
 2497 00f4 0B       		.uleb128 0xb
 2498 00f5 3B       		.uleb128 0x3b
 2499 00f6 05       		.uleb128 0x5
 2500 00f7 39       		.uleb128 0x39
ARM GAS  /tmp/ccbULmAo.s 			page 45


 2501 00f8 0B       		.uleb128 0xb
 2502 00f9 49       		.uleb128 0x49
 2503 00fa 13       		.uleb128 0x13
 2504 00fb 3F       		.uleb128 0x3f
 2505 00fc 19       		.uleb128 0x19
 2506 00fd 3C       		.uleb128 0x3c
 2507 00fe 19       		.uleb128 0x19
 2508 00ff 00       		.byte	0
 2509 0100 00       		.byte	0
 2510 0101 14       		.uleb128 0x14
 2511 0102 34       		.uleb128 0x34
 2512 0103 00       		.byte	0
 2513 0104 03       		.uleb128 0x3
 2514 0105 0E       		.uleb128 0xe
 2515 0106 3A       		.uleb128 0x3a
 2516 0107 0B       		.uleb128 0xb
 2517 0108 3B       		.uleb128 0x3b
 2518 0109 0B       		.uleb128 0xb
 2519 010a 39       		.uleb128 0x39
 2520 010b 0B       		.uleb128 0xb
 2521 010c 49       		.uleb128 0x49
 2522 010d 13       		.uleb128 0x13
 2523 010e 3F       		.uleb128 0x3f
 2524 010f 19       		.uleb128 0x19
 2525 0110 3C       		.uleb128 0x3c
 2526 0111 19       		.uleb128 0x19
 2527 0112 00       		.byte	0
 2528 0113 00       		.byte	0
 2529 0114 15       		.uleb128 0x15
 2530 0115 0D       		.uleb128 0xd
 2531 0116 00       		.byte	0
 2532 0117 03       		.uleb128 0x3
 2533 0118 08       		.uleb128 0x8
 2534 0119 3A       		.uleb128 0x3a
 2535 011a 0B       		.uleb128 0xb
 2536 011b 3B       		.uleb128 0x3b
 2537 011c 0B       		.uleb128 0xb
 2538 011d 39       		.uleb128 0x39
 2539 011e 0B       		.uleb128 0xb
 2540 011f 49       		.uleb128 0x49
 2541 0120 13       		.uleb128 0x13
 2542 0121 38       		.uleb128 0x38
 2543 0122 0B       		.uleb128 0xb
 2544 0123 00       		.byte	0
 2545 0124 00       		.byte	0
 2546 0125 16       		.uleb128 0x16
 2547 0126 13       		.uleb128 0x13
 2548 0127 01       		.byte	0x1
 2549 0128 0B       		.uleb128 0xb
 2550 0129 0B       		.uleb128 0xb
 2551 012a 3A       		.uleb128 0x3a
 2552 012b 0B       		.uleb128 0xb
 2553 012c 3B       		.uleb128 0x3b
 2554 012d 0B       		.uleb128 0xb
 2555 012e 39       		.uleb128 0x39
 2556 012f 0B       		.uleb128 0xb
 2557 0130 01       		.uleb128 0x1
ARM GAS  /tmp/ccbULmAo.s 			page 46


 2558 0131 13       		.uleb128 0x13
 2559 0132 00       		.byte	0
 2560 0133 00       		.byte	0
 2561 0134 17       		.uleb128 0x17
 2562 0135 13       		.uleb128 0x13
 2563 0136 01       		.byte	0x1
 2564 0137 0B       		.uleb128 0xb
 2565 0138 05       		.uleb128 0x5
 2566 0139 3A       		.uleb128 0x3a
 2567 013a 0B       		.uleb128 0xb
 2568 013b 3B       		.uleb128 0x3b
 2569 013c 0B       		.uleb128 0xb
 2570 013d 39       		.uleb128 0x39
 2571 013e 0B       		.uleb128 0xb
 2572 013f 01       		.uleb128 0x1
 2573 0140 13       		.uleb128 0x13
 2574 0141 00       		.byte	0
 2575 0142 00       		.byte	0
 2576 0143 18       		.uleb128 0x18
 2577 0144 01       		.uleb128 0x1
 2578 0145 01       		.byte	0x1
 2579 0146 49       		.uleb128 0x49
 2580 0147 13       		.uleb128 0x13
 2581 0148 01       		.uleb128 0x1
 2582 0149 13       		.uleb128 0x13
 2583 014a 00       		.byte	0
 2584 014b 00       		.byte	0
 2585 014c 19       		.uleb128 0x19
 2586 014d 21       		.uleb128 0x21
 2587 014e 00       		.byte	0
 2588 014f 49       		.uleb128 0x49
 2589 0150 13       		.uleb128 0x13
 2590 0151 2F       		.uleb128 0x2f
 2591 0152 0B       		.uleb128 0xb
 2592 0153 00       		.byte	0
 2593 0154 00       		.byte	0
 2594 0155 1A       		.uleb128 0x1a
 2595 0156 17       		.uleb128 0x17
 2596 0157 01       		.byte	0x1
 2597 0158 0B       		.uleb128 0xb
 2598 0159 0B       		.uleb128 0xb
 2599 015a 3A       		.uleb128 0x3a
 2600 015b 0B       		.uleb128 0xb
 2601 015c 3B       		.uleb128 0x3b
 2602 015d 0B       		.uleb128 0xb
 2603 015e 39       		.uleb128 0x39
 2604 015f 0B       		.uleb128 0xb
 2605 0160 01       		.uleb128 0x1
 2606 0161 13       		.uleb128 0x13
 2607 0162 00       		.byte	0
 2608 0163 00       		.byte	0
 2609 0164 1B       		.uleb128 0x1b
 2610 0165 0D       		.uleb128 0xd
 2611 0166 00       		.byte	0
 2612 0167 03       		.uleb128 0x3
 2613 0168 0E       		.uleb128 0xe
 2614 0169 3A       		.uleb128 0x3a
ARM GAS  /tmp/ccbULmAo.s 			page 47


 2615 016a 0B       		.uleb128 0xb
 2616 016b 3B       		.uleb128 0x3b
 2617 016c 05       		.uleb128 0x5
 2618 016d 39       		.uleb128 0x39
 2619 016e 0B       		.uleb128 0xb
 2620 016f 49       		.uleb128 0x49
 2621 0170 13       		.uleb128 0x13
 2622 0171 00       		.byte	0
 2623 0172 00       		.byte	0
 2624 0173 1C       		.uleb128 0x1c
 2625 0174 34       		.uleb128 0x34
 2626 0175 00       		.byte	0
 2627 0176 03       		.uleb128 0x3
 2628 0177 08       		.uleb128 0x8
 2629 0178 3A       		.uleb128 0x3a
 2630 0179 0B       		.uleb128 0xb
 2631 017a 3B       		.uleb128 0x3b
 2632 017b 05       		.uleb128 0x5
 2633 017c 39       		.uleb128 0x39
 2634 017d 0B       		.uleb128 0xb
 2635 017e 49       		.uleb128 0x49
 2636 017f 13       		.uleb128 0x13
 2637 0180 3F       		.uleb128 0x3f
 2638 0181 19       		.uleb128 0x19
 2639 0182 3C       		.uleb128 0x3c
 2640 0183 19       		.uleb128 0x19
 2641 0184 00       		.byte	0
 2642 0185 00       		.byte	0
 2643 0186 1D       		.uleb128 0x1d
 2644 0187 15       		.uleb128 0x15
 2645 0188 01       		.byte	0x1
 2646 0189 27       		.uleb128 0x27
 2647 018a 19       		.uleb128 0x19
 2648 018b 49       		.uleb128 0x49
 2649 018c 13       		.uleb128 0x13
 2650 018d 01       		.uleb128 0x1
 2651 018e 13       		.uleb128 0x13
 2652 018f 00       		.byte	0
 2653 0190 00       		.byte	0
 2654 0191 1E       		.uleb128 0x1e
 2655 0192 13       		.uleb128 0x13
 2656 0193 01       		.byte	0x1
 2657 0194 03       		.uleb128 0x3
 2658 0195 0E       		.uleb128 0xe
 2659 0196 0B       		.uleb128 0xb
 2660 0197 0B       		.uleb128 0xb
 2661 0198 3A       		.uleb128 0x3a
 2662 0199 0B       		.uleb128 0xb
 2663 019a 3B       		.uleb128 0x3b
 2664 019b 0B       		.uleb128 0xb
 2665 019c 01       		.uleb128 0x1
 2666 019d 13       		.uleb128 0x13
 2667 019e 00       		.byte	0
 2668 019f 00       		.byte	0
 2669 01a0 1F       		.uleb128 0x1f
 2670 01a1 0D       		.uleb128 0xd
 2671 01a2 00       		.byte	0
ARM GAS  /tmp/ccbULmAo.s 			page 48


 2672 01a3 03       		.uleb128 0x3
 2673 01a4 0E       		.uleb128 0xe
 2674 01a5 49       		.uleb128 0x49
 2675 01a6 13       		.uleb128 0x13
 2676 01a7 38       		.uleb128 0x38
 2677 01a8 0B       		.uleb128 0xb
 2678 01a9 34       		.uleb128 0x34
 2679 01aa 19       		.uleb128 0x19
 2680 01ab 00       		.byte	0
 2681 01ac 00       		.byte	0
 2682 01ad 20       		.uleb128 0x20
 2683 01ae 2E       		.uleb128 0x2e
 2684 01af 01       		.byte	0x1
 2685 01b0 3F       		.uleb128 0x3f
 2686 01b1 19       		.uleb128 0x19
 2687 01b2 03       		.uleb128 0x3
 2688 01b3 0E       		.uleb128 0xe
 2689 01b4 3A       		.uleb128 0x3a
 2690 01b5 0B       		.uleb128 0xb
 2691 01b6 3B       		.uleb128 0x3b
 2692 01b7 0B       		.uleb128 0xb
 2693 01b8 39       		.uleb128 0x39
 2694 01b9 0B       		.uleb128 0xb
 2695 01ba 27       		.uleb128 0x27
 2696 01bb 19       		.uleb128 0x19
 2697 01bc 11       		.uleb128 0x11
 2698 01bd 01       		.uleb128 0x1
 2699 01be 12       		.uleb128 0x12
 2700 01bf 06       		.uleb128 0x6
 2701 01c0 40       		.uleb128 0x40
 2702 01c1 18       		.uleb128 0x18
 2703 01c2 9642     		.uleb128 0x2116
 2704 01c4 19       		.uleb128 0x19
 2705 01c5 01       		.uleb128 0x1
 2706 01c6 13       		.uleb128 0x13
 2707 01c7 00       		.byte	0
 2708 01c8 00       		.byte	0
 2709 01c9 21       		.uleb128 0x21
 2710 01ca 05       		.uleb128 0x5
 2711 01cb 00       		.byte	0
 2712 01cc 03       		.uleb128 0x3
 2713 01cd 08       		.uleb128 0x8
 2714 01ce 3A       		.uleb128 0x3a
 2715 01cf 0B       		.uleb128 0xb
 2716 01d0 3B       		.uleb128 0x3b
 2717 01d1 0B       		.uleb128 0xb
 2718 01d2 39       		.uleb128 0x39
 2719 01d3 0B       		.uleb128 0xb
 2720 01d4 49       		.uleb128 0x49
 2721 01d5 13       		.uleb128 0x13
 2722 01d6 02       		.uleb128 0x2
 2723 01d7 17       		.uleb128 0x17
 2724 01d8 B742     		.uleb128 0x2137
 2725 01da 17       		.uleb128 0x17
 2726 01db 00       		.byte	0
 2727 01dc 00       		.byte	0
 2728 01dd 22       		.uleb128 0x22
ARM GAS  /tmp/ccbULmAo.s 			page 49


 2729 01de 34       		.uleb128 0x34
 2730 01df 00       		.byte	0
 2731 01e0 03       		.uleb128 0x3
 2732 01e1 08       		.uleb128 0x8
 2733 01e2 3A       		.uleb128 0x3a
 2734 01e3 0B       		.uleb128 0xb
 2735 01e4 3B       		.uleb128 0x3b
 2736 01e5 0B       		.uleb128 0xb
 2737 01e6 39       		.uleb128 0x39
 2738 01e7 0B       		.uleb128 0xb
 2739 01e8 49       		.uleb128 0x49
 2740 01e9 13       		.uleb128 0x13
 2741 01ea 02       		.uleb128 0x2
 2742 01eb 17       		.uleb128 0x17
 2743 01ec B742     		.uleb128 0x2137
 2744 01ee 17       		.uleb128 0x17
 2745 01ef 00       		.byte	0
 2746 01f0 00       		.byte	0
 2747 01f1 23       		.uleb128 0x23
 2748 01f2 34       		.uleb128 0x34
 2749 01f3 00       		.byte	0
 2750 01f4 03       		.uleb128 0x3
 2751 01f5 08       		.uleb128 0x8
 2752 01f6 3A       		.uleb128 0x3a
 2753 01f7 0B       		.uleb128 0xb
 2754 01f8 3B       		.uleb128 0x3b
 2755 01f9 0B       		.uleb128 0xb
 2756 01fa 39       		.uleb128 0x39
 2757 01fb 0B       		.uleb128 0xb
 2758 01fc 49       		.uleb128 0x49
 2759 01fd 13       		.uleb128 0x13
 2760 01fe 02       		.uleb128 0x2
 2761 01ff 18       		.uleb128 0x18
 2762 0200 00       		.byte	0
 2763 0201 00       		.byte	0
 2764 0202 24       		.uleb128 0x24
 2765 0203 34       		.uleb128 0x34
 2766 0204 00       		.byte	0
 2767 0205 03       		.uleb128 0x3
 2768 0206 0E       		.uleb128 0xe
 2769 0207 3A       		.uleb128 0x3a
 2770 0208 0B       		.uleb128 0xb
 2771 0209 3B       		.uleb128 0x3b
 2772 020a 0B       		.uleb128 0xb
 2773 020b 39       		.uleb128 0x39
 2774 020c 0B       		.uleb128 0xb
 2775 020d 49       		.uleb128 0x49
 2776 020e 13       		.uleb128 0x13
 2777 020f 00       		.byte	0
 2778 0210 00       		.byte	0
 2779 0211 25       		.uleb128 0x25
 2780 0212 898201   		.uleb128 0x4109
 2781 0215 00       		.byte	0
 2782 0216 11       		.uleb128 0x11
 2783 0217 01       		.uleb128 0x1
 2784 0218 31       		.uleb128 0x31
 2785 0219 13       		.uleb128 0x13
ARM GAS  /tmp/ccbULmAo.s 			page 50


 2786 021a 00       		.byte	0
 2787 021b 00       		.byte	0
 2788 021c 26       		.uleb128 0x26
 2789 021d 898201   		.uleb128 0x4109
 2790 0220 01       		.byte	0x1
 2791 0221 11       		.uleb128 0x11
 2792 0222 01       		.uleb128 0x1
 2793 0223 31       		.uleb128 0x31
 2794 0224 13       		.uleb128 0x13
 2795 0225 01       		.uleb128 0x1
 2796 0226 13       		.uleb128 0x13
 2797 0227 00       		.byte	0
 2798 0228 00       		.byte	0
 2799 0229 27       		.uleb128 0x27
 2800 022a 8A8201   		.uleb128 0x410a
 2801 022d 00       		.byte	0
 2802 022e 02       		.uleb128 0x2
 2803 022f 18       		.uleb128 0x18
 2804 0230 9142     		.uleb128 0x2111
 2805 0232 18       		.uleb128 0x18
 2806 0233 00       		.byte	0
 2807 0234 00       		.byte	0
 2808 0235 28       		.uleb128 0x28
 2809 0236 898201   		.uleb128 0x4109
 2810 0239 01       		.byte	0x1
 2811 023a 11       		.uleb128 0x11
 2812 023b 01       		.uleb128 0x1
 2813 023c 9542     		.uleb128 0x2115
 2814 023e 19       		.uleb128 0x19
 2815 023f 31       		.uleb128 0x31
 2816 0240 13       		.uleb128 0x13
 2817 0241 01       		.uleb128 0x1
 2818 0242 13       		.uleb128 0x13
 2819 0243 00       		.byte	0
 2820 0244 00       		.byte	0
 2821 0245 29       		.uleb128 0x29
 2822 0246 2E       		.uleb128 0x2e
 2823 0247 01       		.byte	0x1
 2824 0248 03       		.uleb128 0x3
 2825 0249 0E       		.uleb128 0xe
 2826 024a 3A       		.uleb128 0x3a
 2827 024b 0B       		.uleb128 0xb
 2828 024c 3B       		.uleb128 0x3b
 2829 024d 0B       		.uleb128 0xb
 2830 024e 39       		.uleb128 0x39
 2831 024f 0B       		.uleb128 0xb
 2832 0250 27       		.uleb128 0x27
 2833 0251 19       		.uleb128 0x19
 2834 0252 49       		.uleb128 0x49
 2835 0253 13       		.uleb128 0x13
 2836 0254 11       		.uleb128 0x11
 2837 0255 01       		.uleb128 0x1
 2838 0256 12       		.uleb128 0x12
 2839 0257 06       		.uleb128 0x6
 2840 0258 40       		.uleb128 0x40
 2841 0259 18       		.uleb128 0x18
 2842 025a 9742     		.uleb128 0x2117
ARM GAS  /tmp/ccbULmAo.s 			page 51


 2843 025c 19       		.uleb128 0x19
 2844 025d 01       		.uleb128 0x1
 2845 025e 13       		.uleb128 0x13
 2846 025f 00       		.byte	0
 2847 0260 00       		.byte	0
 2848 0261 2A       		.uleb128 0x2a
 2849 0262 05       		.uleb128 0x5
 2850 0263 00       		.byte	0
 2851 0264 03       		.uleb128 0x3
 2852 0265 08       		.uleb128 0x8
 2853 0266 3A       		.uleb128 0x3a
 2854 0267 0B       		.uleb128 0xb
 2855 0268 3B       		.uleb128 0x3b
 2856 0269 0B       		.uleb128 0xb
 2857 026a 39       		.uleb128 0x39
 2858 026b 0B       		.uleb128 0xb
 2859 026c 49       		.uleb128 0x49
 2860 026d 13       		.uleb128 0x13
 2861 026e 02       		.uleb128 0x2
 2862 026f 18       		.uleb128 0x18
 2863 0270 00       		.byte	0
 2864 0271 00       		.byte	0
 2865 0272 2B       		.uleb128 0x2b
 2866 0273 18       		.uleb128 0x18
 2867 0274 00       		.byte	0
 2868 0275 00       		.byte	0
 2869 0276 00       		.byte	0
 2870 0277 2C       		.uleb128 0x2c
 2871 0278 34       		.uleb128 0x34
 2872 0279 00       		.byte	0
 2873 027a 03       		.uleb128 0x3
 2874 027b 0E       		.uleb128 0xe
 2875 027c 3A       		.uleb128 0x3a
 2876 027d 0B       		.uleb128 0xb
 2877 027e 3B       		.uleb128 0x3b
 2878 027f 0B       		.uleb128 0xb
 2879 0280 39       		.uleb128 0x39
 2880 0281 0B       		.uleb128 0xb
 2881 0282 49       		.uleb128 0x49
 2882 0283 13       		.uleb128 0x13
 2883 0284 02       		.uleb128 0x2
 2884 0285 17       		.uleb128 0x17
 2885 0286 B742     		.uleb128 0x2137
 2886 0288 17       		.uleb128 0x17
 2887 0289 00       		.byte	0
 2888 028a 00       		.byte	0
 2889 028b 2D       		.uleb128 0x2d
 2890 028c 2E       		.uleb128 0x2e
 2891 028d 00       		.byte	0
 2892 028e 3F       		.uleb128 0x3f
 2893 028f 19       		.uleb128 0x19
 2894 0290 3C       		.uleb128 0x3c
 2895 0291 19       		.uleb128 0x19
 2896 0292 6E       		.uleb128 0x6e
 2897 0293 0E       		.uleb128 0xe
 2898 0294 03       		.uleb128 0x3
 2899 0295 0E       		.uleb128 0xe
ARM GAS  /tmp/ccbULmAo.s 			page 52


 2900 0296 3A       		.uleb128 0x3a
 2901 0297 0B       		.uleb128 0xb
 2902 0298 3B       		.uleb128 0x3b
 2903 0299 0B       		.uleb128 0xb
 2904 029a 39       		.uleb128 0x39
 2905 029b 0B       		.uleb128 0xb
 2906 029c 00       		.byte	0
 2907 029d 00       		.byte	0
 2908 029e 2E       		.uleb128 0x2e
 2909 029f 2E       		.uleb128 0x2e
 2910 02a0 00       		.byte	0
 2911 02a1 3F       		.uleb128 0x3f
 2912 02a2 19       		.uleb128 0x19
 2913 02a3 3C       		.uleb128 0x3c
 2914 02a4 19       		.uleb128 0x19
 2915 02a5 6E       		.uleb128 0x6e
 2916 02a6 0E       		.uleb128 0xe
 2917 02a7 03       		.uleb128 0x3
 2918 02a8 0E       		.uleb128 0xe
 2919 02a9 00       		.byte	0
 2920 02aa 00       		.byte	0
 2921 02ab 00       		.byte	0
 2922              		.section	.debug_loc,"",%progbits
 2923              	.Ldebug_loc0:
 2924              	.LVUS2:
 2925 0000 00       		.uleb128 0
 2926 0001 00       		.uleb128 .LVU25
 2927 0002 00       		.uleb128 .LVU25
 2928 0003 00       		.uleb128 .LVU81
 2929 0004 00       		.uleb128 .LVU81
 2930 0005 00       		.uleb128 .LVU82
 2931 0006 00       		.uleb128 .LVU82
 2932 0007 00       		.uleb128 .LVU82
 2933 0008 00       		.uleb128 .LVU82
 2934 0009 00       		.uleb128 0
 2935              	.LLST2:
 2936 000a 00000000 		.4byte	.LVL3
 2937 000e 1F000000 		.4byte	.LVL4-1
 2938 0012 0100     		.2byte	0x1
 2939 0014 50       		.byte	0x50
 2940 0015 1F000000 		.4byte	.LVL4-1
 2941 0019 A0010000 		.4byte	.LVL17
 2942 001d 0100     		.2byte	0x1
 2943 001f 55       		.byte	0x55
 2944 0020 A0010000 		.4byte	.LVL17
 2945 0024 A3010000 		.4byte	.LVL18-1
 2946 0028 0100     		.2byte	0x1
 2947 002a 50       		.byte	0x50
 2948 002b A3010000 		.4byte	.LVL18-1
 2949 002f A4010000 		.4byte	.LVL18
 2950 0033 0400     		.2byte	0x4
 2951 0035 F3       		.byte	0xf3
 2952 0036 01       		.uleb128 0x1
 2953 0037 50       		.byte	0x50
 2954 0038 9F       		.byte	0x9f
 2955 0039 A4010000 		.4byte	.LVL18
 2956 003d C4010000 		.4byte	.LFE220
ARM GAS  /tmp/ccbULmAo.s 			page 53


 2957 0041 0100     		.2byte	0x1
 2958 0043 55       		.byte	0x55
 2959 0044 00000000 		.4byte	0
 2960 0048 00000000 		.4byte	0
 2961              	.LVUS3:
 2962 004c 00       		.uleb128 .LVU25
 2963 004d 00       		.uleb128 .LVU30
 2964 004e 00       		.uleb128 .LVU30
 2965 004f 00       		.uleb128 .LVU44
 2966 0050 00       		.uleb128 .LVU46
 2967 0051 00       		.uleb128 .LVU50
 2968 0052 00       		.uleb128 .LVU50
 2969 0053 00       		.uleb128 .LVU58
 2970 0054 00       		.uleb128 .LVU58
 2971 0055 00       		.uleb128 .LVU62
 2972 0056 00       		.uleb128 .LVU62
 2973 0057 00       		.uleb128 .LVU64
 2974              	.LLST3:
 2975 0058 20000000 		.4byte	.LVL4
 2976 005c 35000000 		.4byte	.LVL5-1
 2977 0060 0100     		.2byte	0x1
 2978 0062 50       		.byte	0x50
 2979 0063 36000000 		.4byte	.LVL5
 2980 0067 67000000 		.4byte	.LVL6-1
 2981 006b 0100     		.2byte	0x1
 2982 006d 50       		.byte	0x50
 2983 006e 6E000000 		.4byte	.LVL7
 2984 0072 76000000 		.4byte	.LVL8
 2985 0076 0100     		.2byte	0x1
 2986 0078 50       		.byte	0x50
 2987 0079 76000000 		.4byte	.LVL8
 2988 007d DC000000 		.4byte	.LVL11
 2989 0081 0100     		.2byte	0x1
 2990 0083 5A       		.byte	0x5a
 2991 0084 DC000000 		.4byte	.LVL11
 2992 0088 E8000000 		.4byte	.LVL12
 2993 008c 0100     		.2byte	0x1
 2994 008e 50       		.byte	0x50
 2995 008f E8000000 		.4byte	.LVL12
 2996 0093 0A010000 		.4byte	.LVL13
 2997 0097 0100     		.2byte	0x1
 2998 0099 5A       		.byte	0x5a
 2999 009a 00000000 		.4byte	0
 3000 009e 00000000 		.4byte	0
 3001              	.LVUS0:
 3002 00a2 00       		.uleb128 0
 3003 00a3 00       		.uleb128 .LVU8
 3004 00a4 00       		.uleb128 .LVU8
 3005 00a5 00       		.uleb128 0
 3006              	.LLST0:
 3007 00a6 00000000 		.4byte	.LVL0
 3008 00aa 1B000000 		.4byte	.LVL1-1
 3009 00ae 0100     		.2byte	0x1
 3010 00b0 50       		.byte	0x50
 3011 00b1 1B000000 		.4byte	.LVL1-1
 3012 00b5 38000000 		.4byte	.LFE219
 3013 00b9 0400     		.2byte	0x4
ARM GAS  /tmp/ccbULmAo.s 			page 54


 3014 00bb F3       		.byte	0xf3
 3015 00bc 01       		.uleb128 0x1
 3016 00bd 50       		.byte	0x50
 3017 00be 9F       		.byte	0x9f
 3018 00bf 00000000 		.4byte	0
 3019 00c3 00000000 		.4byte	0
 3020              	.LVUS1:
 3021 00c7 00       		.uleb128 .LVU8
 3022 00c8 00       		.uleb128 .LVU11
 3023              	.LLST1:
 3024 00c9 1C000000 		.4byte	.LVL1
 3025 00cd 33000000 		.4byte	.LVL2-1
 3026 00d1 0100     		.2byte	0x1
 3027 00d3 50       		.byte	0x50
 3028 00d4 00000000 		.4byte	0
 3029 00d8 00000000 		.4byte	0
 3030              		.section	.debug_aranges,"",%progbits
 3031 0000 24000000 		.4byte	0x24
 3032 0004 0200     		.2byte	0x2
 3033 0006 00000000 		.4byte	.Ldebug_info0
 3034 000a 04       		.byte	0x4
 3035 000b 00       		.byte	0
 3036 000c 0000     		.2byte	0
 3037 000e 0000     		.2byte	0
 3038 0010 00000000 		.4byte	.LFB219
 3039 0014 38000000 		.4byte	.LFE219-.LFB219
 3040 0018 00000000 		.4byte	.LFB220
 3041 001c C4010000 		.4byte	.LFE220-.LFB220
 3042 0020 00000000 		.4byte	0
 3043 0024 00000000 		.4byte	0
 3044              		.section	.debug_ranges,"",%progbits
 3045              	.Ldebug_ranges0:
 3046 0000 00000000 		.4byte	.LFB219
 3047 0004 38000000 		.4byte	.LFE219
 3048 0008 00000000 		.4byte	.LFB220
 3049 000c C4010000 		.4byte	.LFE220
 3050 0010 00000000 		.4byte	0
 3051 0014 00000000 		.4byte	0
 3052              		.section	.debug_line,"",%progbits
 3053              	.Ldebug_line0:
 3054 0000 75030000 		.section	.debug_str,"MS",%progbits,1
 3054      03001502 
 3054      00000201 
 3054      FB0E0D00 
 3054      01010101 
 3055              	.LASF141:
 3056 0000 63665F6F 		.ascii	"cf_off_older\000"
 3056      66665F6F 
 3056      6C646572 
 3056      00
 3057              	.LASF56:
 3058 000d 72656164 		.ascii	"ready_list_t\000"
 3058      795F6C69 
 3058      73745F74 
 3058      00
 3059              	.LASF94:
 3060 001a 73655F74 		.ascii	"se_time\000"
ARM GAS  /tmp/ccbULmAo.s 			page 55


 3060      696D6500 
 3061              	.LASF6:
 3062 0022 73697A65 		.ascii	"size_t\000"
 3062      5F7400
 3063              	.LASF169:
 3064 0029 7072696E 		.ascii	"printUcUsage\000"
 3064      74556355 
 3064      73616765 
 3064      00
 3065              	.LASF15:
 3066 0036 75696E74 		.ascii	"uint64_t\000"
 3066      36345F74 
 3066      00
 3067              	.LASF86:
 3068 003f 6B65726E 		.ascii	"kernel_stats\000"
 3068      656C5F73 
 3068      74617473 
 3068      00
 3069              	.LASF93:
 3070 004c 706F7274 		.ascii	"port_intctx\000"
 3070      5F696E74 
 3070      63747800 
 3071              	.LASF157:
 3072 0058 76615F6C 		.ascii	"va_list\000"
 3072      69737400 
 3073              	.LASF75:
 3074 0060 73797374 		.ascii	"system_debug_t\000"
 3074      656D5F64 
 3074      65627567 
 3074      5F7400
 3075              	.LASF106:
 3076 006f 776F7273 		.ascii	"worst\000"
 3076      7400
 3077              	.LASF109:
 3078 0075 74696D65 		.ascii	"time_measurement_t\000"
 3078      5F6D6561 
 3078      73757265 
 3078      6D656E74 
 3078      5F7400
 3079              	.LASF0:
 3080 0088 6C6F6E67 		.ascii	"long long unsigned int\000"
 3080      206C6F6E 
 3080      6720756E 
 3080      7369676E 
 3080      65642069 
 3081              	.LASF160:
 3082 009f 666F726D 		.ascii	"formatted_bytes\000"
 3082      61747465 
 3082      645F6279 
 3082      74657300 
 3083              	.LASF137:
 3084 00af 63685F74 		.ascii	"ch_threadsize\000"
 3084      68726561 
 3084      6473697A 
 3084      6500
 3085              	.LASF116:
 3086 00bd 65786974 		.ascii	"exitcode\000"
ARM GAS  /tmp/ccbULmAo.s 			page 56


 3086      636F6465 
 3086      00
 3087              	.LASF85:
 3088 00c6 6D61696E 		.ascii	"mainthread\000"
 3088      74687265 
 3088      616400
 3089              	.LASF161:
 3090 00d1 63685265 		.ascii	"chRegFirstThread\000"
 3090      67466972 
 3090      73745468 
 3090      72656164 
 3090      00
 3091              	.LASF88:
 3092 00e2 49544D5F 		.ascii	"ITM_RxBuffer\000"
 3092      52784275 
 3092      66666572 
 3092      00
 3093              	.LASF17:
 3094 00ef 72747469 		.ascii	"rttime_t\000"
 3094      6D655F74 
 3094      00
 3095              	.LASF31:
 3096 00f8 705F7072 		.ascii	"p_prio\000"
 3096      696F00
 3097              	.LASF144:
 3098 00ff 63665F6F 		.ascii	"cf_off_state\000"
 3098      66665F73 
 3098      74617465 
 3098      00
 3099              	.LASF158:
 3100 010c 746D7031 		.ascii	"tmp1\000"
 3100      00
 3101              	.LASF159:
 3102 0111 746D7032 		.ascii	"tmp2\000"
 3102      00
 3103              	.LASF2:
 3104 0116 6C6F6E67 		.ascii	"long long int\000"
 3104      206C6F6E 
 3104      6720696E 
 3104      7400
 3105              	.LASF4:
 3106 0124 7369676E 		.ascii	"signed char\000"
 3106      65642063 
 3106      68617200 
 3107              	.LASF143:
 3108 0130 63665F6F 		.ascii	"cf_off_stklimit\000"
 3108      66665F73 
 3108      746B6C69 
 3108      6D697400 
 3109              	.LASF48:
 3110 0140 705F6D70 		.ascii	"p_mpool\000"
 3110      6F6F6C00 
 3111              	.LASF84:
 3112 0148 76746C69 		.ascii	"vtlist\000"
 3112      737400
 3113              	.LASF21:
 3114 014f 74736C69 		.ascii	"tslices_t\000"
ARM GAS  /tmp/ccbULmAo.s 			page 57


 3114      6365735F 
 3114      7400
 3115              	.LASF118:
 3116 0159 77747472 		.ascii	"wttrp\000"
 3116      7000
 3117              	.LASF82:
 3118 015f 63685F73 		.ascii	"ch_system\000"
 3118      79737465 
 3118      6D00
 3119              	.LASF8:
 3120 0169 6C6F6E67 		.ascii	"long int\000"
 3120      20696E74 
 3120      00
 3121              	.LASF19:
 3122 0172 74737461 		.ascii	"tstate_t\000"
 3122      74655F74 
 3122      00
 3123              	.LASF167:
 3124 017b 5F5F7661 		.ascii	"__va_list\000"
 3124      5F6C6973 
 3124      7400
 3125              	.LASF95:
 3126 0185 73655F74 		.ascii	"se_tp\000"
 3126      7000
 3127              	.LASF149:
 3128 018b 63686465 		.ascii	"chdebug_t\000"
 3128      6275675F 
 3128      7400
 3129              	.LASF33:
 3130 0195 705F6E65 		.ascii	"p_newer\000"
 3130      77657200 
 3131              	.LASF123:
 3132 019d 735F7175 		.ascii	"s_queue\000"
 3132      65756500 
 3133              	.LASF99:
 3134 01a5 74625F73 		.ascii	"tb_size\000"
 3134      697A6500 
 3135              	.LASF61:
 3136 01ad 725F6E65 		.ascii	"r_newer\000"
 3136      77657200 
 3137              	.LASF90:
 3138 01b5 72656761 		.ascii	"regarm_t\000"
 3138      726D5F74 
 3138      00
 3139              	.LASF68:
 3140 01be 76745F70 		.ascii	"vt_prev\000"
 3140      72657600 
 3141              	.LASF76:
 3142 01c6 63685F73 		.ascii	"ch_system_debug\000"
 3142      79737465 
 3142      6D5F6465 
 3142      62756700 
 3143              	.LASF129:
 3144 01d6 6D5F636E 		.ascii	"m_cnt\000"
 3144      7400
 3145              	.LASF151:
 3146 01dc 6D757465 		.ascii	"mutex_t\000"
ARM GAS  /tmp/ccbULmAo.s 			page 58


 3146      785F7400 
 3147              	.LASF155:
 3148 01e4 42617365 		.ascii	"BaseSequentialStream\000"
 3148      53657175 
 3148      656E7469 
 3148      616C5374 
 3148      7265616D 
 3149              	.LASF87:
 3150 01f9 69646C65 		.ascii	"idle_thread_wa\000"
 3150      5F746872 
 3150      6561645F 
 3150      776100
 3151              	.LASF25:
 3152 0208 636E745F 		.ascii	"cnt_t\000"
 3152      7400
 3153              	.LASF36:
 3154 020e 705F7374 		.ascii	"p_stklimit\000"
 3154      6B6C696D 
 3154      697400
 3155              	.LASF1:
 3156 0219 756E7369 		.ascii	"unsigned int\000"
 3156      676E6564 
 3156      20696E74 
 3156      00
 3157              	.LASF67:
 3158 0226 76745F6E 		.ascii	"vt_next\000"
 3158      65787400 
 3159              	.LASF11:
 3160 022e 75696E74 		.ascii	"uint16_t\000"
 3160      31365F74 
 3160      00
 3161              	.LASF89:
 3162 0237 53797374 		.ascii	"SystemCoreClock\000"
 3162      656D436F 
 3162      7265436C 
 3162      6F636B00 
 3163              	.LASF41:
 3164 0247 705F7469 		.ascii	"p_time\000"
 3164      6D6500
 3165              	.LASF119:
 3166 024e 77747365 		.ascii	"wtsemp\000"
 3166      6D7000
 3167              	.LASF69:
 3168 0255 76745F64 		.ascii	"vt_delta\000"
 3168      656C7461 
 3168      00
 3169              	.LASF43:
 3170 025e 705F6D73 		.ascii	"p_msgqueue\000"
 3170      67717565 
 3170      756500
 3171              	.LASF150:
 3172 0269 63685F64 		.ascii	"ch_debug\000"
 3172      65627567 
 3172      00
 3173              	.LASF110:
 3174 0272 6E5F6972 		.ascii	"n_irq\000"
 3174      7100
ARM GAS  /tmp/ccbULmAo.s 			page 59


 3175              	.LASF166:
 3176 0278 2F686F6D 		.ascii	"/home/olof/Documents/MICRO-315/micro-315/tp4/lib/e-"
 3176      652F6F6C 
 3176      6F662F44 
 3176      6F63756D 
 3176      656E7473 
 3177 02ab 7075636B 		.ascii	"puck2_main-processor\000"
 3177      325F6D61 
 3177      696E2D70 
 3177      726F6365 
 3177      73736F72 
 3178              	.LASF124:
 3179 02c0 735F636E 		.ascii	"s_cnt\000"
 3179      7400
 3180              	.LASF12:
 3181 02c6 73686F72 		.ascii	"short unsigned int\000"
 3181      7420756E 
 3181      7369676E 
 3181      65642069 
 3181      6E7400
 3182              	.LASF114:
 3183 02d9 6B65726E 		.ascii	"kernel_stats_t\000"
 3183      656C5F73 
 3183      74617473 
 3183      5F7400
 3184              	.LASF52:
 3185 02e8 63685F74 		.ascii	"ch_thread\000"
 3185      68726561 
 3185      6400
 3186              	.LASF23:
 3187 02f2 6D73675F 		.ascii	"msg_t\000"
 3187      7400
 3188              	.LASF107:
 3189 02f8 6C617374 		.ascii	"last\000"
 3189      00
 3190              	.LASF26:
 3191 02fd 75636E74 		.ascii	"ucnt_t\000"
 3191      5F7400
 3192              	.LASF81:
 3193 0304 63685F73 		.ascii	"ch_system_t\000"
 3193      79737465 
 3193      6D5F7400 
 3194              	.LASF148:
 3195 0310 63665F6F 		.ascii	"cf_off_time\000"
 3195      66665F74 
 3195      696D6500 
 3196              	.LASF113:
 3197 031c 6D5F6372 		.ascii	"m_crit_isr\000"
 3197      69745F69 
 3197      737200
 3198              	.LASF57:
 3199 0327 63685F72 		.ascii	"ch_ready_list\000"
 3199      65616479 
 3199      5F6C6973 
 3199      7400
 3200              	.LASF24:
 3201 0335 6576656E 		.ascii	"eventmask_t\000"
ARM GAS  /tmp/ccbULmAo.s 			page 60


 3201      746D6173 
 3201      6B5F7400 
 3202              	.LASF72:
 3203 0341 76697274 		.ascii	"virtual_timers_list_t\000"
 3203      75616C5F 
 3203      74696D65 
 3203      72735F6C 
 3203      6973745F 
 3204              	.LASF91:
 3205 0357 73746B61 		.ascii	"stkalign_t\000"
 3205      6C69676E 
 3205      5F7400
 3206              	.LASF51:
 3207 0362 74687265 		.ascii	"threads_list_t\000"
 3207      6164735F 
 3207      6C697374 
 3207      5F7400
 3208              	.LASF132:
 3209 0371 63685F7A 		.ascii	"ch_zero\000"
 3209      65726F00 
 3210              	.LASF153:
 3211 0379 77726974 		.ascii	"write\000"
 3211      6500
 3212              	.LASF42:
 3213 037f 705F7761 		.ascii	"p_waiting\000"
 3213      6974696E 
 3213      6700
 3214              	.LASF16:
 3215 0389 7274636E 		.ascii	"rtcnt_t\000"
 3215      745F7400 
 3216              	.LASF73:
 3217 0391 63685F76 		.ascii	"ch_virtual_timers_list\000"
 3217      69727475 
 3217      616C5F74 
 3217      696D6572 
 3217      735F6C69 
 3218              	.LASF3:
 3219 03a8 6C6F6E67 		.ascii	"long double\000"
 3219      20646F75 
 3219      626C6500 
 3220              	.LASF136:
 3221 03b4 63685F74 		.ascii	"ch_timesize\000"
 3221      696D6573 
 3221      697A6500 
 3222              	.LASF100:
 3223 03c0 74625F70 		.ascii	"tb_ptr\000"
 3223      747200
 3224              	.LASF156:
 3225 03c7 5F5F676E 		.ascii	"__gnuc_va_list\000"
 3225      75635F76 
 3225      615F6C69 
 3225      737400
 3226              	.LASF98:
 3227 03d6 63685F73 		.ascii	"ch_swc_event_t\000"
 3227      77635F65 
 3227      76656E74 
 3227      5F7400
ARM GAS  /tmp/ccbULmAo.s 			page 61


 3228              	.LASF142:
 3229 03e5 63665F6F 		.ascii	"cf_off_name\000"
 3229      66665F6E 
 3229      616D6500 
 3230              	.LASF102:
 3231 03f1 63685F74 		.ascii	"ch_trace_buffer_t\000"
 3231      72616365 
 3231      5F627566 
 3231      6665725F 
 3231      7400
 3232              	.LASF34:
 3233 0403 705F6F6C 		.ascii	"p_older\000"
 3233      64657200 
 3234              	.LASF60:
 3235 040b 725F6374 		.ascii	"r_ctx\000"
 3235      7800
 3236              	.LASF32:
 3237 0411 705F6374 		.ascii	"p_ctx\000"
 3237      7800
 3238              	.LASF104:
 3239 0417 746D5F63 		.ascii	"tm_calibration_t\000"
 3239      616C6962 
 3239      72617469 
 3239      6F6E5F74 
 3239      00
 3240              	.LASF164:
 3241 0428 474E5520 		.ascii	"GNU C17 9.2.1 20191025 (release) [ARM/arm-9-branch "
 3241      43313720 
 3241      392E322E 
 3241      31203230 
 3241      31393130 
 3242 045b 72657669 		.ascii	"revision 277599] -mcpu=cortex-m4 -mfloat-abi=hard -"
 3242      73696F6E 
 3242      20323737 
 3242      3539395D 
 3242      202D6D63 
 3243 048e 6D667075 		.ascii	"mfpu=fpv4-sp-d16 -mno-thumb-interwork -mthumb -marc"
 3243      3D667076 
 3243      342D7370 
 3243      2D643136 
 3243      202D6D6E 
 3244 04c1 683D6172 		.ascii	"h=armv7e-m+fp -ggdb -O2 -fomit-frame-pointer -falig"
 3244      6D763765 
 3244      2D6D2B66 
 3244      70202D67 
 3244      67646220 
 3245 04f4 6E2D6675 		.ascii	"n-functions=16 -fno-strict-aliasing -fstack-protect"
 3245      6E637469 
 3245      6F6E733D 
 3245      3136202D 
 3245      666E6F2D 
 3246 0527 6F722D61 		.ascii	"or-all -ffunction-sections -fdata-sections -fno-com"
 3246      6C6C202D 
 3246      6666756E 
 3246      6374696F 
 3246      6E2D7365 
 3247 055a 6D6F6E20 		.ascii	"mon -fsingle-precision-constant\000"
ARM GAS  /tmp/ccbULmAo.s 			page 62


 3247      2D667369 
 3247      6E676C65 
 3247      2D707265 
 3247      63697369 
 3248              	.LASF79:
 3249 057a 6C6F636B 		.ascii	"lock_cnt\000"
 3249      5F636E74 
 3249      00
 3250              	.LASF63:
 3251 0583 725F6375 		.ascii	"r_current\000"
 3251      7272656E 
 3251      7400
 3252              	.LASF62:
 3253 058d 725F6F6C 		.ascii	"r_older\000"
 3253      64657200 
 3254              	.LASF108:
 3255 0595 63756D75 		.ascii	"cumulative\000"
 3255      6C617469 
 3255      766500
 3256              	.LASF20:
 3257 05a0 74726566 		.ascii	"trefs_t\000"
 3257      735F7400 
 3258              	.LASF101:
 3259 05a8 74625F62 		.ascii	"tb_buffer\000"
 3259      75666665 
 3259      7200
 3260              	.LASF135:
 3261 05b2 63685F70 		.ascii	"ch_ptrsize\000"
 3261      74727369 
 3261      7A6500
 3262              	.LASF165:
 3263 05bd 2E2F2F73 		.ascii	".//src/uc_usage.c\000"
 3263      72632F75 
 3263      635F7573 
 3263      6167652E 
 3263      6300
 3264              	.LASF65:
 3265 05cf 76697274 		.ascii	"virtual_timer_t\000"
 3265      75616C5F 
 3265      74696D65 
 3265      725F7400 
 3266              	.LASF30:
 3267 05df 705F7072 		.ascii	"p_prev\000"
 3267      657600
 3268              	.LASF22:
 3269 05e6 74707269 		.ascii	"tprio_t\000"
 3269      6F5F7400 
 3270              	.LASF35:
 3271 05ee 705F6E61 		.ascii	"p_name\000"
 3271      6D6500
 3272              	.LASF111:
 3273 05f5 6E5F6374 		.ascii	"n_ctxswc\000"
 3273      78737763 
 3273      00
 3274              	.LASF7:
 3275 05fe 696E7433 		.ascii	"int32_t\000"
 3275      325F7400 
ARM GAS  /tmp/ccbULmAo.s 			page 63


 3276              	.LASF10:
 3277 0606 756E7369 		.ascii	"unsigned char\000"
 3277      676E6564 
 3277      20636861 
 3277      7200
 3278              	.LASF126:
 3279 0614 6D5F7175 		.ascii	"m_queue\000"
 3279      65756500 
 3280              	.LASF46:
 3281 061c 705F6D74 		.ascii	"p_mtxlist\000"
 3281      786C6973 
 3281      7400
 3282              	.LASF5:
 3283 0626 73686F72 		.ascii	"short int\000"
 3283      7420696E 
 3283      7400
 3284              	.LASF37:
 3285 0630 705F7374 		.ascii	"p_state\000"
 3285      61746500 
 3286              	.LASF40:
 3287 0638 705F7072 		.ascii	"p_preempt\000"
 3287      65656D70 
 3287      7400
 3288              	.LASF59:
 3289 0642 725F7072 		.ascii	"r_prio\000"
 3289      696F00
 3290              	.LASF121:
 3291 0649 65776D61 		.ascii	"ewmask\000"
 3291      736B00
 3292              	.LASF29:
 3293 0650 705F6E65 		.ascii	"p_next\000"
 3293      787400
 3294              	.LASF18:
 3295 0657 746D6F64 		.ascii	"tmode_t\000"
 3295      655F7400 
 3296              	.LASF147:
 3297 065f 63665F6F 		.ascii	"cf_off_preempt\000"
 3297      66665F70 
 3297      7265656D 
 3297      707400
 3298              	.LASF38:
 3299 066e 705F666C 		.ascii	"p_flags\000"
 3299      61677300 
 3300              	.LASF49:
 3301 0676 705F7374 		.ascii	"p_stats\000"
 3301      61747300 
 3302              	.LASF115:
 3303 067e 7264796D 		.ascii	"rdymsg\000"
 3303      736700
 3304              	.LASF54:
 3305 0685 74687265 		.ascii	"threads_queue_t\000"
 3305      6164735F 
 3305      71756575 
 3305      655F7400 
 3306              	.LASF66:
 3307 0695 63685F76 		.ascii	"ch_virtual_timer\000"
 3307      69727475 
ARM GAS  /tmp/ccbULmAo.s 			page 64


 3307      616C5F74 
 3307      696D6572 
 3307      00
 3308              	.LASF140:
 3309 06a6 63665F6F 		.ascii	"cf_off_newer\000"
 3309      66665F6E 
 3309      65776572 
 3309      00
 3310              	.LASF171:
 3311 06b3 5F5F7374 		.ascii	"__stack_chk_fail\000"
 3311      61636B5F 
 3311      63686B5F 
 3311      6661696C 
 3311      00
 3312              	.LASF122:
 3313 06c4 63685F73 		.ascii	"ch_semaphore\000"
 3313      656D6170 
 3313      686F7265 
 3313      00
 3314              	.LASF45:
 3315 06d1 705F6570 		.ascii	"p_epending\000"
 3315      656E6469 
 3315      6E6700
 3316              	.LASF152:
 3317 06dc 42617365 		.ascii	"BaseSequentialStreamVMT\000"
 3317      53657175 
 3317      656E7469 
 3317      616C5374 
 3317      7265616D 
 3318              	.LASF138:
 3319 06f4 63665F6F 		.ascii	"cf_off_prio\000"
 3319      66665F70 
 3319      72696F00 
 3320              	.LASF58:
 3321 0700 725F7175 		.ascii	"r_queue\000"
 3321      65756500 
 3322              	.LASF53:
 3323 0708 63685F74 		.ascii	"ch_threads_list\000"
 3323      68726561 
 3323      64735F6C 
 3323      69737400 
 3324              	.LASF133:
 3325 0718 63685F73 		.ascii	"ch_size\000"
 3325      697A6500 
 3326              	.LASF14:
 3327 0720 6C6F6E67 		.ascii	"long unsigned int\000"
 3327      20756E73 
 3327      69676E65 
 3327      6420696E 
 3327      7400
 3328              	.LASF154:
 3329 0732 72656164 		.ascii	"read\000"
 3329      00
 3330              	.LASF130:
 3331 0737 63686172 		.ascii	"char\000"
 3331      00
 3332              	.LASF162:
ARM GAS  /tmp/ccbULmAo.s 			page 65


 3333 073c 63685265 		.ascii	"chRegNextThread\000"
 3333      674E6578 
 3333      74546872 
 3333      65616400 
 3334              	.LASF120:
 3335 074c 77746D74 		.ascii	"wtmtxp\000"
 3335      787000
 3336              	.LASF28:
 3337 0753 74687265 		.ascii	"thread_t\000"
 3337      61645F74 
 3337      00
 3338              	.LASF105:
 3339 075c 62657374 		.ascii	"best\000"
 3339      00
 3340              	.LASF128:
 3341 0761 6D5F6E65 		.ascii	"m_next\000"
 3341      787400
 3342              	.LASF27:
 3343 0768 73797374 		.ascii	"systime_t\000"
 3343      696D655F 
 3343      7400
 3344              	.LASF47:
 3345 0772 705F7265 		.ascii	"p_realprio\000"
 3345      616C7072 
 3345      696F00
 3346              	.LASF64:
 3347 077d 76746675 		.ascii	"vtfunc_t\000"
 3347      6E635F74 
 3347      00
 3348              	.LASF77:
 3349 0786 70616E69 		.ascii	"panic_msg\000"
 3349      635F6D73 
 3349      6700
 3350              	.LASF103:
 3351 0790 6F666673 		.ascii	"offset\000"
 3351      657400
 3352              	.LASF145:
 3353 0797 63665F6F 		.ascii	"cf_off_flags\000"
 3353      66665F66 
 3353      6C616773 
 3353      00
 3354              	.LASF168:
 3355 07a4 5F5F6170 		.ascii	"__ap\000"
 3355      00
 3356              	.LASF92:
 3357 07a9 636F6E74 		.ascii	"context\000"
 3357      65787400 
 3358              	.LASF44:
 3359 07b1 705F6D73 		.ascii	"p_msg\000"
 3359      6700
 3360              	.LASF71:
 3361 07b7 76745F70 		.ascii	"vt_par\000"
 3361      617200
 3362              	.LASF13:
 3363 07be 75696E74 		.ascii	"uint32_t\000"
 3363      33325F74 
 3363      00
ARM GAS  /tmp/ccbULmAo.s 			page 66


 3364              	.LASF139:
 3365 07c7 63665F6F 		.ascii	"cf_off_ctx\000"
 3365      66665F63 
 3365      747800
 3366              	.LASF125:
 3367 07d2 63685F6D 		.ascii	"ch_mutex\000"
 3367      75746578 
 3367      00
 3368              	.LASF39:
 3369 07db 705F7265 		.ascii	"p_refs\000"
 3369      667300
 3370              	.LASF78:
 3371 07e2 6973725F 		.ascii	"isr_cnt\000"
 3371      636E7400 
 3372              	.LASF97:
 3373 07ea 73655F73 		.ascii	"se_state\000"
 3373      74617465 
 3373      00
 3374              	.LASF83:
 3375 07f3 726C6973 		.ascii	"rlist\000"
 3375      7400
 3376              	.LASF9:
 3377 07f9 75696E74 		.ascii	"uint8_t\000"
 3377      385F7400 
 3378              	.LASF163:
 3379 0801 63687670 		.ascii	"chvprintf\000"
 3379      72696E74 
 3379      6600
 3380              	.LASF50:
 3381 080b 74687265 		.ascii	"thread_reference_t\000"
 3381      61645F72 
 3381      65666572 
 3381      656E6365 
 3381      5F7400
 3382              	.LASF117:
 3383 081e 77746F62 		.ascii	"wtobjp\000"
 3383      6A7000
 3384              	.LASF74:
 3385 0825 76745F73 		.ascii	"vt_systime\000"
 3385      79737469 
 3385      6D6500
 3386              	.LASF80:
 3387 0830 74726163 		.ascii	"trace_buffer\000"
 3387      655F6275 
 3387      66666572 
 3387      00
 3388              	.LASF134:
 3389 083d 63685F76 		.ascii	"ch_version\000"
 3389      65727369 
 3389      6F6E00
 3390              	.LASF146:
 3391 0848 63665F6F 		.ascii	"cf_off_refs\000"
 3391      66665F72 
 3391      65667300 
 3392              	.LASF112:
 3393 0854 6D5F6372 		.ascii	"m_crit_thd\000"
 3393      69745F74 
ARM GAS  /tmp/ccbULmAo.s 			page 67


 3393      686400
 3394              	.LASF127:
 3395 085f 6D5F6F77 		.ascii	"m_owner\000"
 3395      6E657200 
 3396              	.LASF96:
 3397 0867 73655F77 		.ascii	"se_wtobjp\000"
 3397      746F626A 
 3397      7000
 3398              	.LASF131:
 3399 0871 63685F69 		.ascii	"ch_identifier\000"
 3399      64656E74 
 3399      69666965 
 3399      7200
 3400              	.LASF70:
 3401 087f 76745F66 		.ascii	"vt_func\000"
 3401      756E6300 
 3402              	.LASF55:
 3403 0887 63685F74 		.ascii	"ch_threads_queue\000"
 3403      68726561 
 3403      64735F71 
 3403      75657565 
 3403      00
 3404              	.LASF170:
 3405 0898 63687072 		.ascii	"chprintf\000"
 3405      696E7466 
 3405      00
 3406              		.ident	"GCC: (15:9-2019-q4-0ubuntu1) 9.2.1 20191025 (release) [ARM/arm-9-branch revision 277599]"
ARM GAS  /tmp/ccbULmAo.s 			page 68


DEFINED SYMBOLS
                            *ABS*:0000000000000000 uc_usage.c
     /tmp/ccbULmAo.s:18     .rodata.chprintf.cst4:0000000000000000 $d
     /tmp/ccbULmAo.s:22     .text.chprintf:0000000000000000 $t
     /tmp/ccbULmAo.s:30     .text.chprintf:0000000000000000 chprintf
     /tmp/ccbULmAo.s:93     .text.chprintf:0000000000000034 $d
     /tmp/ccbULmAo.s:99     .rodata.printUcUsage.str1.4:0000000000000000 $d
     /tmp/ccbULmAo.s:110    .rodata.printUcUsage.cst4:0000000000000000 $d
     /tmp/ccbULmAo.s:114    .text.printUcUsage:0000000000000000 $t
     /tmp/ccbULmAo.s:122    .text.printUcUsage:0000000000000000 printUcUsage
     /tmp/ccbULmAo.s:396    .text.printUcUsage:00000000000001a8 $d
     /tmp/ccbULmAo.s:407    .bss.sum.7976:0000000000000000 $d
     /tmp/ccbULmAo.s:411    .bss.sum.7976:0000000000000000 sum.7976

UNDEFINED SYMBOLS
__stack_chk_guard
chvprintf
__stack_chk_fail
__aeabi_uldivmod
chRegFirstThread
chRegNextThread
ch
