ARM GAS  /tmp/ccbULmAo.s 			page 1


   1              		.cpu cortex-m4
   2              		.eabi_attribute 27, 1
   3              		.eabi_attribute 28, 1
   4              		.eabi_attribute 20, 1
   5              		.eabi_attribute 21, 1
   6              		.eabi_attribute 23, 3
   7              		.eabi_attribute 24, 1
   8              		.eabi_attribute 25, 1
   9              		.eabi_attribute 26, 1
  10              		.eabi_attribute 30, 2
  11              		.eabi_attribute 34, 1
  12              		.eabi_attribute 18, 4
  13              		.file	"uc_usage.c"
  14              		.text
  15              	.Ltext0:
  16              		.cfi_sections	.debug_frame
  17              		.section	.rodata.chprintf.cst4,"aM",%progbits,4
  18              		.align	2
  19              	.LC0:
  20 0000 00000000 		.word	__stack_chk_guard
  21              		.section	.text.chprintf,"ax",%progbits
  22              		.align	1
  23              		.p2align 4,,15
  24              		.arch armv7e-m
  25              		.syntax unified
  26              		.thumb
  27              		.thumb_func
  28              		.fpu fpv4-sp-d16
  29              		.type	chprintf, %function
  30              	chprintf:
  31              	.LVL0:
  32              	.LFB219:
  33              		.file 1 ".//ChibiOS//os/hal/lib/streams/chprintf.h"
  34              		.loc 1 69 77 view -0
  35              		.cfi_startproc
  36              		@ args = 4, pretend = 12, frame = 8
  37              		@ frame_needed = 0, uses_anonymous_args = 1
  38              		.loc 1 69 77 is_stmt 0 view .LVU1
  39 0000 0EB4     		push	{r1, r2, r3}
  40              		.cfi_def_cfa_offset 12
  41              		.cfi_offset 1, -12
  42              		.cfi_offset 2, -8
  43              		.cfi_offset 3, -4
  44 0002 00B5     		push	{lr}
  45              		.cfi_def_cfa_offset 16
  46              		.cfi_offset 14, -16
  47 0004 82B0     		sub	sp, sp, #8
  48              		.cfi_def_cfa_offset 24
  49              		.loc 1 69 77 view .LVU2
  50 0006 03AA     		add	r2, sp, #12
  51 0008 0A4B     		ldr	r3, .L6
  52 000a 52F8041B 		ldr	r1, [r2], #4
  53 000e 1B68     		ldr	r3, [r3]
  54 0010 0193     		str	r3, [sp, #4]
  55 0012 4FF00003 		mov	r3,#0
  56              		.loc 1 70 3 is_stmt 1 view .LVU3
  57              		.loc 1 71 3 view .LVU4
ARM GAS  /tmp/ccbULmAo.s 			page 2


  58              		.loc 1 73 3 view .LVU5
  59 0016 0092     		str	r2, [sp]
  60              		.loc 1 74 3 view .LVU6
  61              		.loc 1 74 21 is_stmt 0 view .LVU7
  62 0018 FFF7FEFF 		bl	chvprintf
  63              	.LVL1:
  64              		.loc 1 75 3 is_stmt 1 view .LVU8
  65              		.loc 1 77 3 view .LVU9
  66              		.loc 1 78 1 is_stmt 0 view .LVU10
  67 001c 054B     		ldr	r3, .L6
  68 001e 1A68     		ldr	r2, [r3]
  69 0020 019B     		ldr	r3, [sp, #4]
  70 0022 5A40     		eors	r2, r3, r2
  71 0024 04D1     		bne	.L5
  72 0026 02B0     		add	sp, sp, #8
  73              		.cfi_remember_state
  74              		.cfi_def_cfa_offset 16
  75              		@ sp needed
  76 0028 5DF804EB 		ldr	lr, [sp], #4
  77              		.cfi_restore 14
  78              		.cfi_def_cfa_offset 12
  79 002c 03B0     		add	sp, sp, #12
  80              		.cfi_restore 3
  81              		.cfi_restore 2
  82              		.cfi_restore 1
  83              		.cfi_def_cfa_offset 0
  84 002e 7047     		bx	lr
  85              	.L5:
  86              		.cfi_restore_state
  87 0030 FFF7FEFF 		bl	__stack_chk_fail
  88              	.LVL2:
  89              	.L7:
  90              		.loc 1 78 1 view .LVU11
  91              		.align	2
  92              	.L6:
  93 0034 00000000 		.word	.LC0
  94              		.cfi_endproc
  95              	.LFE219:
  96              		.size	chprintf, .-chprintf
  97              		.global	__aeabi_uldivmod
  98              		.section	.rodata.printUcUsage.str1.4,"aMS",%progbits,1
  99              		.align	2
 100              	.LC1:
 101 0000 25313273 		.ascii	"%12s %u.%u%%\015\012\000"
 101      2025752E 
 101      25752525 
 101      0D0A00
 102 000f 00       		.align	2
 103              	.LC2:
 104 0010 63726974 		.ascii	"critical thd:%u.%u%%   critical isr:%u.%u%%\015\012"
 104      6963616C 
 104      20746864 
 104      3A25752E 
 104      25752525 
 105 003d 00       		.ascii	"\000"
 106 003e 0000     		.align	2
 107              	.LC3:
ARM GAS  /tmp/ccbULmAo.s 			page 3


 108 0040 0D0A00   		.ascii	"\015\012\000"
 109              		.section	.rodata.printUcUsage.cst4,"aM",%progbits,4
 110              		.align	2
 111              	.LC4:
 112 0000 00000000 		.word	__stack_chk_guard
 113              		.section	.text.printUcUsage,"ax",%progbits
 114              		.align	1
 115              		.p2align 4,,15
 116              		.global	printUcUsage
 117              		.syntax unified
 118              		.thumb
 119              		.thumb_func
 120              		.fpu fpv4-sp-d16
 121              		.type	printUcUsage, %function
 122              	printUcUsage:
 123              	.LVL3:
 124              	.LFB220:
 125              		.file 2 ".//src/uc_usage.c"
 126              		.loc 2 13 46 is_stmt 1 view -0
 127              		.cfi_startproc
 128              		@ args = 0, pretend = 0, frame = 8
 129              		@ frame_needed = 0, uses_anonymous_args = 0
 130              		.loc 2 13 46 is_stmt 0 view .LVU13
 131 0000 2DE9F04F 		push	{r4, r5, r6, r7, r8, r9, r10, fp, lr}
 132              		.cfi_def_cfa_offset 36
 133              		.cfi_offset 4, -36
 134              		.cfi_offset 5, -32
 135              		.cfi_offset 6, -28
 136              		.cfi_offset 7, -24
 137              		.cfi_offset 8, -20
 138              		.cfi_offset 9, -16
 139              		.cfi_offset 10, -12
 140              		.cfi_offset 11, -8
 141              		.cfi_offset 14, -4
 142 0004 684B     		ldr	r3, .L17
 143              		.loc 2 19 6 view .LVU14
 144 0006 694C     		ldr	r4, .L17+4
 145              		.loc 2 13 46 view .LVU15
 146 0008 85B0     		sub	sp, sp, #20
 147              		.cfi_def_cfa_offset 56
 148              		.loc 2 13 46 view .LVU16
 149 000a 1B68     		ldr	r3, [r3]
 150 000c 0393     		str	r3, [sp, #12]
 151 000e 4FF00003 		mov	r3,#0
 152              		.loc 2 15 2 is_stmt 1 view .LVU17
 153              		.loc 2 17 2 view .LVU18
 154              		.loc 2 18 2 view .LVU19
 155              		.loc 2 19 2 view .LVU20
 156              		.loc 2 19 6 is_stmt 0 view .LVU21
 157 0012 0022     		movs	r2, #0
 158 0014 0023     		movs	r3, #0
 159 0016 C4E90023 		strd	r2, [r4]
 160              		.loc 2 21 2 is_stmt 1 view .LVU22
 161              		.loc 2 13 46 is_stmt 0 view .LVU23
 162 001a 0546     		mov	r5, r0
 163              		.loc 2 21 7 view .LVU24
 164 001c FFF7FEFF 		bl	chRegFirstThread
ARM GAS  /tmp/ccbULmAo.s 			page 4


 165              	.LVL4:
 166              	.L9:
 167              		.loc 2 23 2 is_stmt 1 discriminator 1 view .LVU25
 168              		.loc 2 24 3 discriminator 1 view .LVU26
 169              		.loc 2 24 7 is_stmt 0 discriminator 1 view .LVU27
 170 0020 2668     		ldr	r6, [r4]
 171 0022 036E     		ldr	r3, [r0, #96]
 172 0024 6168     		ldr	r1, [r4, #4]
 173 0026 426E     		ldr	r2, [r0, #100]
 174 0028 9B19     		adds	r3, r3, r6
 175 002a 41EB0202 		adc	r2, r1, r2
 176 002e C4E90032 		strd	r3, r2, [r4]
 177              		.loc 2 25 3 is_stmt 1 discriminator 1 view .LVU28
 178              		.loc 2 25 8 is_stmt 0 discriminator 1 view .LVU29
 179 0032 FFF7FEFF 		bl	chRegNextThread
 180              	.LVL5:
 181              		.loc 2 26 10 is_stmt 1 discriminator 1 view .LVU30
 182              		.loc 2 26 2 is_stmt 0 discriminator 1 view .LVU31
 183 0036 0028     		cmp	r0, #0
 184 0038 F2D1     		bne	.L9
 185              		.loc 2 27 2 is_stmt 1 view .LVU32
 186              		.loc 2 28 2 view .LVU33
 187              		.loc 2 27 35 is_stmt 0 view .LVU34
 188 003a 5D4E     		ldr	r6, .L17+8
 189              		.loc 2 27 6 view .LVU35
 190 003c 2268     		ldr	r2, [r4]
 191 003e 3368     		ldr	r3, [r6]
 192              		.loc 2 35 3 view .LVU36
 193 0040 DFF878B1 		ldr	fp, .L17+20
 194              		.loc 2 28 35 view .LVU37
 195 0044 3746     		mov	r7, r6
 196              		.loc 2 28 6 view .LVU38
 197 0046 F7E90689 		ldrd	r8, [r7, #24]!
 198              		.loc 2 27 6 view .LVU39
 199 004a 13EB020C 		adds	ip, r3, r2
 200 004e 6268     		ldr	r2, [r4, #4]
 201 0050 7368     		ldr	r3, [r6, #4]
 202              		.loc 2 28 6 view .LVU40
 203 0052 4946     		mov	r1, r9
 204              		.loc 2 27 6 view .LVU41
 205 0054 43EB0202 		adc	r2, r3, r2
 206              		.loc 2 28 6 view .LVU42
 207 0058 1CEB0803 		adds	r3, ip, r8
 208 005c 41EB0202 		adc	r2, r1, r2
 209 0060 C4E90032 		strd	r3, r2, [r4]
 210              		.loc 2 31 7 view .LVU43
 211 0064 FFF7FEFF 		bl	chRegFirstThread
 212              	.LVL6:
 213              		.loc 2 35 3 view .LVU44
 214 0068 DFF85481 		ldr	r8, .L17+24
 215              		.loc 2 31 7 view .LVU45
 216 006c 8246     		mov	r10, r0
 217              	.LVL7:
 218              		.loc 2 35 3 view .LVU46
 219 006e 4FF06409 		mov	r9, #100
 220              	.L10:
 221              		.loc 2 33 2 is_stmt 1 discriminator 1 view .LVU47
ARM GAS  /tmp/ccbULmAo.s 			page 5


 222              		.loc 2 34 3 discriminator 1 view .LVU48
 223              		.loc 2 34 43 is_stmt 0 discriminator 1 view .LVU49
 224 0072 DAE91803 		ldrd	r0, r3, [r10, #96]
 225              	.LVL8:
 226              		.loc 2 34 43 discriminator 1 view .LVU50
 227 0076 8200     		lsls	r2, r0, #2
 228 0078 9900     		lsls	r1, r3, #2
 229 007a 1218     		adds	r2, r2, r0
 230 007c 41EA9071 		orr	r1, r1, r0, lsr #30
 231 0080 43EB0101 		adc	r1, r3, r1
 232 0084 4FEAC20C 		lsl	ip, r2, #3
 233 0088 C900     		lsls	r1, r1, #3
 234 008a 41EA5271 		orr	r1, r1, r2, lsr #29
 235 008e BCEB0002 		subs	r2, ip, r0
 236 0092 61EB0301 		sbc	r1, r1, r3
 237 0096 4FEA021C 		lsl	ip, r2, #4
 238 009a 0901     		lsls	r1, r1, #4
 239 009c 1CEB0000 		adds	r0, ip, r0
 240 00a0 41EA1271 		orr	r1, r1, r2, lsr #28
 241 00a4 43EB0101 		adc	r1, r3, r1
 242 00a8 0901     		lsls	r1, r1, #4
 243              		.loc 2 34 49 discriminator 1 view .LVU51
 244 00aa D4E90023 		ldrd	r2, [r4]
 245              		.loc 2 34 43 discriminator 1 view .LVU52
 246 00ae 41EA1071 		orr	r1, r1, r0, lsr #28
 247 00b2 0001     		lsls	r0, r0, #4
 248              		.loc 2 34 49 discriminator 1 view .LVU53
 249 00b4 FFF7FEFF 		bl	__aeabi_uldivmod
 250              	.LVL9:
 251              		.loc 2 34 10 discriminator 1 view .LVU54
 252 00b8 80B2     		uxth	r0, r0
 253              		.loc 2 35 3 is_stmt 1 discriminator 1 view .LVU55
 254 00ba A8FB0023 		umull	r2, r3, r8, r0
 255 00be 5A09     		lsrs	r2, r3, #5
 256 00c0 09FB1200 		mls	r0, r9, r2, r0
 257 00c4 80B2     		uxth	r0, r0
 258 00c6 DAF81820 		ldr	r2, [r10, #24]
 259 00ca 0090     		str	r0, [sp]
 260 00cc 5B09     		lsrs	r3, r3, #5
 261 00ce 5946     		mov	r1, fp
 262 00d0 2846     		mov	r0, r5
 263 00d2 FFF7FEFF 		bl	chprintf
 264              	.LVL10:
 265              		.loc 2 36 3 discriminator 1 view .LVU56
 266              		.loc 2 36 8 is_stmt 0 discriminator 1 view .LVU57
 267 00d6 5046     		mov	r0, r10
 268 00d8 FFF7FEFF 		bl	chRegNextThread
 269              	.LVL11:
 270              		.loc 2 37 10 is_stmt 1 discriminator 1 view .LVU58
 271              		.loc 2 37 2 is_stmt 0 discriminator 1 view .LVU59
 272 00dc 8246     		mov	r10, r0
 273 00de 0028     		cmp	r0, #0
 274 00e0 C7D1     		bne	.L10
 275              		.loc 2 39 2 is_stmt 1 view .LVU60
 276              		.loc 2 39 57 is_stmt 0 view .LVU61
 277 00e2 D6E90032 		ldrd	r3, r2, [r6]
 278 00e6 9800     		lsls	r0, r3, #2
ARM GAS  /tmp/ccbULmAo.s 			page 6


 279              	.LVL12:
 280              		.loc 2 39 57 view .LVU62
 281 00e8 9100     		lsls	r1, r2, #2
 282 00ea C018     		adds	r0, r0, r3
 283 00ec 41EA9371 		orr	r1, r1, r3, lsr #30
 284 00f0 42EB0101 		adc	r1, r2, r1
 285 00f4 C600     		lsls	r6, r0, #3
 286 00f6 C900     		lsls	r1, r1, #3
 287 00f8 41EA5071 		orr	r1, r1, r0, lsr #29
 288 00fc F01A     		subs	r0, r6, r3
 289 00fe 61EB0201 		sbc	r1, r1, r2
 290 0102 0601     		lsls	r6, r0, #4
 291 0104 0901     		lsls	r1, r1, #4
 292              		.loc 2 39 63 view .LVU63
 293 0106 D4E900AB 		ldrd	r10, [r4]
 294              	.LVL13:
 295              		.loc 2 39 57 view .LVU64
 296 010a 41EA1071 		orr	r1, r1, r0, lsr #28
 297 010e F018     		adds	r0, r6, r3
 298 0110 42EB0101 		adc	r1, r2, r1
 299 0114 0901     		lsls	r1, r1, #4
 300 0116 41EA1071 		orr	r1, r1, r0, lsr #28
 301              		.loc 2 39 63 view .LVU65
 302 011a 5246     		mov	r2, r10
 303 011c 5B46     		mov	r3, fp
 304              		.loc 2 39 57 view .LVU66
 305 011e 0001     		lsls	r0, r0, #4
 306              		.loc 2 39 63 view .LVU67
 307 0120 FFF7FEFF 		bl	__aeabi_uldivmod
 308              	.LVL14:
 309 0124 0446     		mov	r4, r0
 310              		.loc 2 40 57 view .LVU68
 311 0126 D7E90003 		ldrd	r0, r3, [r7]
 312 012a 8200     		lsls	r2, r0, #2
 313 012c 9900     		lsls	r1, r3, #2
 314 012e 1218     		adds	r2, r2, r0
 315 0130 41EA9071 		orr	r1, r1, r0, lsr #30
 316 0134 43EB0101 		adc	r1, r3, r1
 317 0138 D600     		lsls	r6, r2, #3
 318 013a C900     		lsls	r1, r1, #3
 319 013c 41EA5271 		orr	r1, r1, r2, lsr #29
 320 0140 321A     		subs	r2, r6, r0
 321 0142 61EB0301 		sbc	r1, r1, r3
 322 0146 1601     		lsls	r6, r2, #4
 323 0148 0901     		lsls	r1, r1, #4
 324 014a 3018     		adds	r0, r6, r0
 325 014c 41EA1271 		orr	r1, r1, r2, lsr #28
 326 0150 43EB0101 		adc	r1, r3, r1
 327 0154 0901     		lsls	r1, r1, #4
 328              		.loc 2 40 63 view .LVU69
 329 0156 5B46     		mov	r3, fp
 330              		.loc 2 40 57 view .LVU70
 331 0158 41EA1071 		orr	r1, r1, r0, lsr #28
 332              		.loc 2 40 63 view .LVU71
 333 015c 5246     		mov	r2, r10
 334              		.loc 2 40 57 view .LVU72
 335 015e 0001     		lsls	r0, r0, #4
ARM GAS  /tmp/ccbULmAo.s 			page 7


 336              		.loc 2 40 63 view .LVU73
 337 0160 FFF7FEFF 		bl	__aeabi_uldivmod
 338              	.LVL15:
 339              		.loc 2 40 9 view .LVU74
 340 0164 80B2     		uxth	r0, r0
 341              		.loc 2 42 2 view .LVU75
 342 0166 A8FB0031 		umull	r3, r1, r8, r0
 343              		.loc 2 39 9 view .LVU76
 344 016a A4B2     		uxth	r4, r4
 345              		.loc 2 40 2 is_stmt 1 view .LVU77
 346              		.loc 2 42 2 view .LVU78
 347 016c 4909     		lsrs	r1, r1, #5
 348 016e A8FB0432 		umull	r3, r2, r8, r4
 349 0172 5209     		lsrs	r2, r2, #5
 350 0174 09FB1100 		mls	r0, r9, r1, r0
 351 0178 09FB1243 		mls	r3, r9, r2, r4
 352 017c 80B2     		uxth	r0, r0
 353 017e 0190     		str	r0, [sp, #4]
 354 0180 9BB2     		uxth	r3, r3
 355 0182 0091     		str	r1, [sp]
 356 0184 2846     		mov	r0, r5
 357 0186 0B49     		ldr	r1, .L17+12
 358 0188 FFF7FEFF 		bl	chprintf
 359              	.LVL16:
 360              		.loc 2 44 2 view .LVU79
 361 018c 064B     		ldr	r3, .L17
 362 018e 1A68     		ldr	r2, [r3]
 363 0190 039B     		ldr	r3, [sp, #12]
 364 0192 5A40     		eors	r2, r3, r2
 365 0194 06D1     		bne	.L16
 366 0196 0849     		ldr	r1, .L17+16
 367 0198 2846     		mov	r0, r5
 368              		.loc 2 45 1 is_stmt 0 view .LVU80
 369 019a 05B0     		add	sp, sp, #20
 370              		.cfi_remember_state
 371              		.cfi_def_cfa_offset 36
 372              		@ sp needed
 373 019c BDE8F04F 		pop	{r4, r5, r6, r7, r8, r9, r10, fp, lr}
 374              		.cfi_restore 14
 375              		.cfi_restore 11
 376              		.cfi_restore 10
 377              		.cfi_restore 9
 378              		.cfi_restore 8
 379              		.cfi_restore 7
 380              		.cfi_restore 6
 381              		.cfi_restore 5
 382              		.cfi_restore 4
 383              		.cfi_def_cfa_offset 0
 384              	.LVL17:
 385              		.loc 2 44 2 view .LVU81
 386 01a0 FFF7FEBF 		b	chprintf
 387              	.LVL18:
 388              	.L16:
 389              		.cfi_restore_state
 390              		.loc 2 44 2 view .LVU82
 391 01a4 FFF7FEFF 		bl	__stack_chk_fail
 392              	.LVL19:
ARM GAS  /tmp/ccbULmAo.s 			page 8


 393              	.L18:
 394              		.align	2
 395              	.L17:
 396 01a8 00000000 		.word	.LC4
 397 01ac 00000000 		.word	.LANCHOR0
 398 01b0 C8040000 		.word	ch+1224
 399 01b4 10000000 		.word	.LC2
 400 01b8 40000000 		.word	.LC3
 401 01bc 00000000 		.word	.LC1
 402 01c0 1F85EB51 		.word	1374389535
 403              		.cfi_endproc
 404              	.LFE220:
 405              		.size	printUcUsage, .-printUcUsage
 406              		.section	.bss.sum.7976,"aw",%nobits
 407              		.align	3
 408              		.set	.LANCHOR0,. + 0
 409              		.type	sum.7976, %object
 410              		.size	sum.7976, 8
 411              	sum.7976:
 412 0000 00000000 		.space	8
 412      00000000 
 413              		.text
 414              	.Letext0:
 415              		.file 3 "/usr/lib/gcc/arm-none-eabi/9.2.1/include/stddef.h"
 416              		.file 4 "/usr/lib/gcc/arm-none-eabi/9.2.1/include/stdint.h"
 417              		.file 5 ".//ChibiOS//os/rt/ports/ARMCMx/compilers/GCC/chtypes.h"
 418              		.file 6 ".//ChibiOS//os/rt/include/chsystypes.h"
 419              		.file 7 ".//ChibiOS//os/rt/include/chschd.h"
 420              		.file 8 ".//ChibiOS//os/ext/CMSIS/include/core_cm4.h"
 421              		.file 9 ".//ChibiOS//os/ext/CMSIS/ST/system_stm32f4xx.h"
 422              		.file 10 ".//ChibiOS//os/rt/ports/ARMCMx/chcore.h"
 423              		.file 11 ".//ChibiOS//os/rt/ports/ARMCMx/chcore_v7m.h"
 424              		.file 12 ".//ChibiOS//os/rt/include/chdebug.h"
 425              		.file 13 ".//ChibiOS//os/rt/include/chtm.h"
 426              		.file 14 ".//ChibiOS//os/rt/include/chstats.h"
 427              		.file 15 ".//ChibiOS//os/rt/include/chsem.h"
 428              		.file 16 ".//ChibiOS//os/rt/include/chmtx.h"
 429              		.file 17 ".//ChibiOS//os/rt/include/chregistry.h"
 430              		.file 18 ".//ChibiOS//os/rt/include/chstreams.h"
 431              		.file 19 "/usr/lib/gcc/arm-none-eabi/9.2.1/include/stdarg.h"
 432              		.file 20 "<built-in>"