ARM GAS  /tmp/cc0PCBxq.s 			page 1


   1              		.cpu cortex-m4
   2              		.eabi_attribute 27, 1
   3              		.eabi_attribute 28, 1
   4              		.eabi_attribute 20, 1
   5              		.eabi_attribute 21, 1
   6              		.eabi_attribute 23, 3
   7              		.eabi_attribute 24, 1
   8              		.eabi_attribute 25, 1
   9              		.eabi_attribute 26, 1
  10              		.eabi_attribute 30, 2
  11              		.eabi_attribute 34, 1
  12              		.eabi_attribute 18, 4
  13              		.file	"unicode.c"
  14              		.text
  15              	.Ltext0:
  16              		.cfi_sections	.debug_frame
  17              		.section	.rodata.ff_convert.cst4,"aM",%progbits,4
  18              		.align	2
  19              	.LC0:
  20 0000 00000000 		.word	__stack_chk_guard
  21              		.section	.text.ff_convert,"ax",%progbits
  22              		.align	1
  23              		.p2align 4,,15
  24              		.global	ff_convert
  25              		.arch armv7e-m
  26              		.syntax unified
  27              		.thumb
  28              		.thumb_func
  29              		.fpu fpv4-sp-d16
  30              		.type	ff_convert, %function
  31              	ff_convert:
  32              	.LVL0:
  33              	.LFB219:
  34              		.file 1 ".//ChibiOS_ext//ext/fatfs/src/option/ccsbcs.c"
  35              		.loc 1 505 1 view -0
  36              		.cfi_startproc
  37              		@ args = 0, pretend = 0, frame = 8
  38              		@ frame_needed = 0, uses_anonymous_args = 0
  39              		.loc 1 505 1 is_stmt 0 view .LVU1
  40 0000 10B5     		push	{r4, lr}
  41              		.cfi_def_cfa_offset 8
  42              		.cfi_offset 4, -8
  43              		.cfi_offset 14, -4
  44 0002 154B     		ldr	r3, .L15
  45 0004 82B0     		sub	sp, sp, #8
  46              		.cfi_def_cfa_offset 16
  47              		.loc 1 509 5 view .LVU2
  48 0006 7F28     		cmp	r0, #127
  49              		.loc 1 505 1 view .LVU3
  50 0008 1B68     		ldr	r3, [r3]
  51 000a 0193     		str	r3, [sp, #4]
  52 000c 4FF00003 		mov	r3,#0
  53              		.loc 1 506 2 is_stmt 1 view .LVU4
  54              		.loc 1 509 2 view .LVU5
  55              		.loc 1 509 5 is_stmt 0 view .LVU6
  56 0010 0FD9     		bls	.L2
  57              		.loc 1 513 3 is_stmt 1 view .LVU7
ARM GAS  /tmp/cc0PCBxq.s 			page 2


  58              		.loc 1 513 6 is_stmt 0 view .LVU8
  59 0012 A9B9     		cbnz	r1, .L3
  60 0014 114A     		ldr	r2, .L15+4
  61 0016 42F2AC03 		movw	r3, #8364
  62 001a 04E0     		b	.L4
  63              	.LVL1:
  64              	.L13:
  65              		.loc 1 517 26 is_stmt 1 discriminator 2 view .LVU9
  66              		.loc 1 517 16 discriminator 2 view .LVU10
  67 001c 0131     		adds	r1, r1, #1
  68              	.LVL2:
  69              		.loc 1 517 4 is_stmt 0 discriminator 2 view .LVU11
  70 001e 8029     		cmp	r1, #128
  71 0020 15D0     		beq	.L8
  72              	.LVL3:
  73              		.loc 1 517 4 discriminator 2 view .LVU12
  74 0022 32F8023F 		ldrh	r3, [r2, #2]!
  75              	.LVL4:
  76              	.L4:
  77              		.loc 1 518 8 view .LVU13
  78 0026 9842     		cmp	r0, r3
  79 0028 8CB2     		uxth	r4, r1
  80              	.LVL5:
  81              		.loc 1 518 5 is_stmt 1 view .LVU14
  82              		.loc 1 518 8 is_stmt 0 view .LVU15
  83 002a F7D1     		bne	.L13
  84 002c 04F18000 		add	r0, r4, #128
  85              	.LVL6:
  86              		.loc 1 518 8 view .LVU16
  87 0030 80B2     		uxth	r0, r0
  88              	.LVL7:
  89              	.L2:
  90              		.loc 1 524 2 is_stmt 1 view .LVU17
  91              		.loc 1 525 1 is_stmt 0 view .LVU18
  92 0032 094B     		ldr	r3, .L15
  93 0034 1A68     		ldr	r2, [r3]
  94 0036 019B     		ldr	r3, [sp, #4]
  95 0038 5A40     		eors	r2, r3, r2
  96 003a 0AD1     		bne	.L14
  97 003c 02B0     		add	sp, sp, #8
  98              		.cfi_remember_state
  99              		.cfi_def_cfa_offset 8
 100              		@ sp needed
 101 003e 10BD     		pop	{r4, pc}
 102              	.LVL8:
 103              	.L3:
 104              		.cfi_restore_state
 105              		.loc 1 514 4 is_stmt 1 view .LVU19
 106              		.loc 1 514 6 is_stmt 0 view .LVU20
 107 0040 FF28     		cmp	r0, #255
 108 0042 04D8     		bhi	.L8
 109              		.loc 1 514 6 discriminator 1 view .LVU21
 110 0044 054B     		ldr	r3, .L15+4
 111 0046 8038     		subs	r0, r0, #128
 112              	.LVL9:
 113              		.loc 1 514 6 discriminator 1 view .LVU22
 114 0048 33F81000 		ldrh	r0, [r3, r0, lsl #1]
ARM GAS  /tmp/cc0PCBxq.s 			page 3


 115 004c F1E7     		b	.L2
 116              	.LVL10:
 117              	.L8:
 118              		.loc 1 514 6 view .LVU23
 119 004e 0020     		movs	r0, #0
 120              	.LVL11:
 121              		.loc 1 514 6 view .LVU24
 122 0050 EFE7     		b	.L2
 123              	.LVL12:
 124              	.L14:
 125              		.loc 1 525 1 view .LVU25
 126 0052 FFF7FEFF 		bl	__stack_chk_fail
 127              	.LVL13:
 128              	.L16:
 129              		.loc 1 525 1 view .LVU26
 130 0056 00BF     		.align	2
 131              	.L15:
 132 0058 00000000 		.word	.LC0
 133 005c 00000000 		.word	.LANCHOR0
 134              		.cfi_endproc
 135              	.LFE219:
 136              		.size	ff_convert, .-ff_convert
 137              		.section	.rodata.ff_wtoupper.cst4,"aM",%progbits,4
 138              		.align	2
 139              	.LC1:
 140 0000 00000000 		.word	__stack_chk_guard
 141              		.section	.text.ff_wtoupper,"ax",%progbits
 142              		.align	1
 143              		.p2align 4,,15
 144              		.global	ff_wtoupper
 145              		.syntax unified
 146              		.thumb
 147              		.thumb_func
 148              		.fpu fpv4-sp-d16
 149              		.type	ff_wtoupper, %function
 150              	ff_wtoupper:
 151              	.LVL14:
 152              	.LFB220:
 153              		.loc 1 531 1 is_stmt 1 view -0
 154              		.cfi_startproc
 155              		@ args = 0, pretend = 0, frame = 8
 156              		@ frame_needed = 0, uses_anonymous_args = 0
 157              		.loc 1 531 1 is_stmt 0 view .LVU28
 158 0000 00B5     		push	{lr}
 159              		.cfi_def_cfa_offset 4
 160              		.cfi_offset 14, -4
 161 0002 0E4B     		ldr	r3, .L28
 162 0004 0E49     		ldr	r1, .L28+4
 163 0006 83B0     		sub	sp, sp, #12
 164              		.cfi_def_cfa_offset 16
 165              		.loc 1 531 1 view .LVU29
 166 0008 1B68     		ldr	r3, [r3]
 167 000a 0193     		str	r3, [sp, #4]
 168 000c 4FF00003 		mov	r3,#0
 169              		.loc 1 532 2 is_stmt 1 view .LVU30
 170              		.loc 1 533 2 view .LVU31
 171              		.loc 1 534 2 view .LVU32
ARM GAS  /tmp/cc0PCBxq.s 			page 4


 172              		.loc 1 537 2 view .LVU33
 173              	.LVL15:
 174              		.loc 1 537 14 view .LVU34
 175              		.loc 1 537 9 is_stmt 0 view .LVU35
 176 0010 0022     		movs	r2, #0
 177              		.loc 1 537 23 view .LVU36
 178 0012 6123     		movs	r3, #97
 179 0014 03E0     		b	.L18
 180              	.LVL16:
 181              	.L20:
 182              		.loc 1 537 56 is_stmt 1 discriminator 4 view .LVU37
 183              		.loc 1 537 51 discriminator 4 view .LVU38
 184              		.loc 1 537 23 is_stmt 0 discriminator 4 view .LVU39
 185 0016 31F8023F 		ldrh	r3, [r1, #2]!
 186              		.loc 1 537 52 discriminator 4 view .LVU40
 187 001a 0132     		adds	r2, r2, #1
 188              	.LVL17:
 189              		.loc 1 537 14 is_stmt 1 discriminator 4 view .LVU41
 190              		.loc 1 537 2 is_stmt 0 discriminator 4 view .LVU42
 191 001c 23B1     		cbz	r3, .L19
 192              	.LVL18:
 193              	.L18:
 194              		.loc 1 537 27 discriminator 3 view .LVU43
 195 001e 9842     		cmp	r0, r3
 196 0020 F9D1     		bne	.L20
 197              		.loc 1 539 2 is_stmt 1 view .LVU44
 198              		.loc 1 539 37 is_stmt 0 view .LVU45
 199 0022 084B     		ldr	r3, .L28+8
 200 0024 33F81200 		ldrh	r0, [r3, r2, lsl #1]
 201              	.LVL19:
 202              	.L19:
 203              		.loc 1 540 1 discriminator 4 view .LVU46
 204 0028 044B     		ldr	r3, .L28
 205 002a 1A68     		ldr	r2, [r3]
 206 002c 019B     		ldr	r3, [sp, #4]
 207 002e 5A40     		eors	r2, r3, r2
 208              	.LVL20:
 209              		.loc 1 540 1 discriminator 4 view .LVU47
 210 0030 02D1     		bne	.L27
 211              		.loc 1 540 1 view .LVU48
 212 0032 03B0     		add	sp, sp, #12
 213              		.cfi_remember_state
 214              		.cfi_def_cfa_offset 4
 215              		@ sp needed
 216 0034 5DF804FB 		ldr	pc, [sp], #4
 217              	.L27:
 218              		.cfi_restore_state
 219 0038 FFF7FEFF 		bl	__stack_chk_fail
 220              	.LVL21:
 221              	.L29:
 222              		.align	2
 223              	.L28:
 224 003c 00000000 		.word	.LC1
 225 0040 00000000 		.word	.LANCHOR1
 226 0044 00000000 		.word	.LANCHOR2
 227              		.cfi_endproc
 228              	.LFE220:
ARM GAS  /tmp/cc0PCBxq.s 			page 5


 229              		.size	ff_wtoupper, .-ff_wtoupper
 230              		.section	.rodata.Tbl,"a"
 231              		.align	2
 232              		.set	.LANCHOR0,. + 0
 233              		.type	Tbl, %object
 234              		.size	Tbl, 256
 235              	Tbl:
 236 0000 AC20     		.short	8364
 237 0002 0000     		.short	0
 238 0004 1A20     		.short	8218
 239 0006 9201     		.short	402
 240 0008 1E20     		.short	8222
 241 000a 2620     		.short	8230
 242 000c 2020     		.short	8224
 243 000e 2120     		.short	8225
 244 0010 C602     		.short	710
 245 0012 3020     		.short	8240
 246 0014 6001     		.short	352
 247 0016 3920     		.short	8249
 248 0018 5201     		.short	338
 249 001a 0000     		.short	0
 250 001c 7D01     		.short	381
 251 001e 0000     		.short	0
 252 0020 0000     		.short	0
 253 0022 1820     		.short	8216
 254 0024 1920     		.short	8217
 255 0026 1C20     		.short	8220
 256 0028 1D20     		.short	8221
 257 002a 2220     		.short	8226
 258 002c 1320     		.short	8211
 259 002e 1420     		.short	8212
 260 0030 DC02     		.short	732
 261 0032 2221     		.short	8482
 262 0034 6101     		.short	353
 263 0036 3A20     		.short	8250
 264 0038 5301     		.short	339
 265 003a 0000     		.short	0
 266 003c 7E01     		.short	382
 267 003e 7801     		.short	376
 268 0040 A000     		.short	160
 269 0042 A100     		.short	161
 270 0044 A200     		.short	162
 271 0046 A300     		.short	163
 272 0048 A400     		.short	164
 273 004a A500     		.short	165
 274 004c A600     		.short	166
 275 004e A700     		.short	167
 276 0050 A800     		.short	168
 277 0052 A900     		.short	169
 278 0054 AA00     		.short	170
 279 0056 AB00     		.short	171
 280 0058 AC00     		.short	172
 281 005a AD00     		.short	173
 282 005c AE00     		.short	174
 283 005e AF00     		.short	175
 284 0060 B000     		.short	176
 285 0062 B100     		.short	177
ARM GAS  /tmp/cc0PCBxq.s 			page 6


 286 0064 B200     		.short	178
 287 0066 B300     		.short	179
 288 0068 B400     		.short	180
 289 006a B500     		.short	181
 290 006c B600     		.short	182
 291 006e B700     		.short	183
 292 0070 B800     		.short	184
 293 0072 B900     		.short	185
 294 0074 BA00     		.short	186
 295 0076 BB00     		.short	187
 296 0078 BC00     		.short	188
 297 007a BD00     		.short	189
 298 007c BE00     		.short	190
 299 007e BF00     		.short	191
 300 0080 C000     		.short	192
 301 0082 C100     		.short	193
 302 0084 C200     		.short	194
 303 0086 C300     		.short	195
 304 0088 C400     		.short	196
 305 008a C500     		.short	197
 306 008c C600     		.short	198
 307 008e C700     		.short	199
 308 0090 C800     		.short	200
 309 0092 C900     		.short	201
 310 0094 CA00     		.short	202
 311 0096 CB00     		.short	203
 312 0098 CC00     		.short	204
 313 009a CD00     		.short	205
 314 009c CE00     		.short	206
 315 009e CF00     		.short	207
 316 00a0 D000     		.short	208
 317 00a2 D100     		.short	209
 318 00a4 D200     		.short	210
 319 00a6 D300     		.short	211
 320 00a8 D400     		.short	212
 321 00aa D500     		.short	213
 322 00ac D600     		.short	214
 323 00ae D700     		.short	215
 324 00b0 D800     		.short	216
 325 00b2 D900     		.short	217
 326 00b4 DA00     		.short	218
 327 00b6 DB00     		.short	219
 328 00b8 DC00     		.short	220
 329 00ba DD00     		.short	221
 330 00bc DE00     		.short	222
 331 00be DF00     		.short	223
 332 00c0 E000     		.short	224
 333 00c2 E100     		.short	225
 334 00c4 E200     		.short	226
 335 00c6 E300     		.short	227
 336 00c8 E400     		.short	228
 337 00ca E500     		.short	229
 338 00cc E600     		.short	230
 339 00ce E700     		.short	231
 340 00d0 E800     		.short	232
 341 00d2 E900     		.short	233
 342 00d4 EA00     		.short	234
ARM GAS  /tmp/cc0PCBxq.s 			page 7


 343 00d6 EB00     		.short	235
 344 00d8 EC00     		.short	236
 345 00da ED00     		.short	237
 346 00dc EE00     		.short	238
 347 00de EF00     		.short	239
 348 00e0 F000     		.short	240
 349 00e2 F100     		.short	241
 350 00e4 F200     		.short	242
 351 00e6 F300     		.short	243
 352 00e8 F400     		.short	244
 353 00ea F500     		.short	245
 354 00ec F600     		.short	246
 355 00ee F700     		.short	247
 356 00f0 F800     		.short	248
 357 00f2 F900     		.short	249
 358 00f4 FA00     		.short	250
 359 00f6 FB00     		.short	251
 360 00f8 FC00     		.short	252
 361 00fa FD00     		.short	253
 362 00fc FE00     		.short	254
 363 00fe FF00     		.short	255
 364              		.section	.rodata.tbl_lower.8157,"a"
 365              		.align	2
 366              		.set	.LANCHOR1,. + 0
 367              		.type	tbl_lower.8157, %object
 368              		.size	tbl_lower.8157, 480
 369              	tbl_lower.8157:
 370 0000 6100     		.short	97
 371 0002 6200     		.short	98
 372 0004 6300     		.short	99
 373 0006 6400     		.short	100
 374 0008 6500     		.short	101
 375 000a 6600     		.short	102
 376 000c 6700     		.short	103
 377 000e 6800     		.short	104
 378 0010 6900     		.short	105
 379 0012 6A00     		.short	106
 380 0014 6B00     		.short	107
 381 0016 6C00     		.short	108
 382 0018 6D00     		.short	109
 383 001a 6E00     		.short	110
 384 001c 6F00     		.short	111
 385 001e 7000     		.short	112
 386 0020 7100     		.short	113
 387 0022 7200     		.short	114
 388 0024 7300     		.short	115
 389 0026 7400     		.short	116
 390 0028 7500     		.short	117
 391 002a 7600     		.short	118
 392 002c 7700     		.short	119
 393 002e 7800     		.short	120
 394 0030 7900     		.short	121
 395 0032 7A00     		.short	122
 396 0034 A100     		.short	161
 397 0036 A200     		.short	162
 398 0038 A300     		.short	163
 399 003a A500     		.short	165
ARM GAS  /tmp/cc0PCBxq.s 			page 8


 400 003c AC00     		.short	172
 401 003e AF00     		.short	175
 402 0040 E000     		.short	224
 403 0042 E100     		.short	225
 404 0044 E200     		.short	226
 405 0046 E300     		.short	227
 406 0048 E400     		.short	228
 407 004a E500     		.short	229
 408 004c E600     		.short	230
 409 004e E700     		.short	231
 410 0050 E800     		.short	232
 411 0052 E900     		.short	233
 412 0054 EA00     		.short	234
 413 0056 EB00     		.short	235
 414 0058 EC00     		.short	236
 415 005a ED00     		.short	237
 416 005c EE00     		.short	238
 417 005e EF00     		.short	239
 418 0060 F000     		.short	240
 419 0062 F100     		.short	241
 420 0064 F200     		.short	242
 421 0066 F300     		.short	243
 422 0068 F400     		.short	244
 423 006a F500     		.short	245
 424 006c F600     		.short	246
 425 006e F800     		.short	248
 426 0070 F900     		.short	249
 427 0072 FA00     		.short	250
 428 0074 FB00     		.short	251
 429 0076 FC00     		.short	252
 430 0078 FD00     		.short	253
 431 007a FE00     		.short	254
 432 007c FF00     		.short	255
 433 007e 0101     		.short	257
 434 0080 0301     		.short	259
 435 0082 0501     		.short	261
 436 0084 0701     		.short	263
 437 0086 0901     		.short	265
 438 0088 0B01     		.short	267
 439 008a 0D01     		.short	269
 440 008c 0F01     		.short	271
 441 008e 1101     		.short	273
 442 0090 1301     		.short	275
 443 0092 1501     		.short	277
 444 0094 1701     		.short	279
 445 0096 1901     		.short	281
 446 0098 1B01     		.short	283
 447 009a 1D01     		.short	285
 448 009c 1F01     		.short	287
 449 009e 2101     		.short	289
 450 00a0 2301     		.short	291
 451 00a2 2501     		.short	293
 452 00a4 2701     		.short	295
 453 00a6 2901     		.short	297
 454 00a8 2B01     		.short	299
 455 00aa 2D01     		.short	301
 456 00ac 2F01     		.short	303
ARM GAS  /tmp/cc0PCBxq.s 			page 9


 457 00ae 3101     		.short	305
 458 00b0 3301     		.short	307
 459 00b2 3501     		.short	309
 460 00b4 3701     		.short	311
 461 00b6 3A01     		.short	314
 462 00b8 3C01     		.short	316
 463 00ba 3E01     		.short	318
 464 00bc 4001     		.short	320
 465 00be 4201     		.short	322
 466 00c0 4401     		.short	324
 467 00c2 4601     		.short	326
 468 00c4 4801     		.short	328
 469 00c6 4B01     		.short	331
 470 00c8 4D01     		.short	333
 471 00ca 4F01     		.short	335
 472 00cc 5101     		.short	337
 473 00ce 5301     		.short	339
 474 00d0 5501     		.short	341
 475 00d2 5701     		.short	343
 476 00d4 5901     		.short	345
 477 00d6 5B01     		.short	347
 478 00d8 5D01     		.short	349
 479 00da 5F01     		.short	351
 480 00dc 6101     		.short	353
 481 00de 6301     		.short	355
 482 00e0 6501     		.short	357
 483 00e2 6701     		.short	359
 484 00e4 6901     		.short	361
 485 00e6 6B01     		.short	363
 486 00e8 6D01     		.short	365
 487 00ea 6F01     		.short	367
 488 00ec 7101     		.short	369
 489 00ee 7301     		.short	371
 490 00f0 7501     		.short	373
 491 00f2 7701     		.short	375
 492 00f4 7A01     		.short	378
 493 00f6 7C01     		.short	380
 494 00f8 7E01     		.short	382
 495 00fa 9201     		.short	402
 496 00fc B103     		.short	945
 497 00fe B203     		.short	946
 498 0100 B303     		.short	947
 499 0102 B403     		.short	948
 500 0104 B503     		.short	949
 501 0106 B603     		.short	950
 502 0108 B703     		.short	951
 503 010a B803     		.short	952
 504 010c B903     		.short	953
 505 010e BA03     		.short	954
 506 0110 BB03     		.short	955
 507 0112 BC03     		.short	956
 508 0114 BD03     		.short	957
 509 0116 BE03     		.short	958
 510 0118 BF03     		.short	959
 511 011a C003     		.short	960
 512 011c C103     		.short	961
 513 011e C303     		.short	963
ARM GAS  /tmp/cc0PCBxq.s 			page 10


 514 0120 C403     		.short	964
 515 0122 C503     		.short	965
 516 0124 C603     		.short	966
 517 0126 C703     		.short	967
 518 0128 C803     		.short	968
 519 012a C903     		.short	969
 520 012c CA03     		.short	970
 521 012e 3004     		.short	1072
 522 0130 3104     		.short	1073
 523 0132 3204     		.short	1074
 524 0134 3304     		.short	1075
 525 0136 3404     		.short	1076
 526 0138 3504     		.short	1077
 527 013a 3604     		.short	1078
 528 013c 3704     		.short	1079
 529 013e 3804     		.short	1080
 530 0140 3904     		.short	1081
 531 0142 3A04     		.short	1082
 532 0144 3B04     		.short	1083
 533 0146 3C04     		.short	1084
 534 0148 3D04     		.short	1085
 535 014a 3E04     		.short	1086
 536 014c 3F04     		.short	1087
 537 014e 4004     		.short	1088
 538 0150 4104     		.short	1089
 539 0152 4204     		.short	1090
 540 0154 4304     		.short	1091
 541 0156 4404     		.short	1092
 542 0158 4504     		.short	1093
 543 015a 4604     		.short	1094
 544 015c 4704     		.short	1095
 545 015e 4804     		.short	1096
 546 0160 4904     		.short	1097
 547 0162 4A04     		.short	1098
 548 0164 4B04     		.short	1099
 549 0166 4C04     		.short	1100
 550 0168 4D04     		.short	1101
 551 016a 4E04     		.short	1102
 552 016c 4F04     		.short	1103
 553 016e 5104     		.short	1105
 554 0170 5204     		.short	1106
 555 0172 5304     		.short	1107
 556 0174 5404     		.short	1108
 557 0176 5504     		.short	1109
 558 0178 5604     		.short	1110
 559 017a 5704     		.short	1111
 560 017c 5804     		.short	1112
 561 017e 5904     		.short	1113
 562 0180 5A04     		.short	1114
 563 0182 5B04     		.short	1115
 564 0184 5C04     		.short	1116
 565 0186 5E04     		.short	1118
 566 0188 5F04     		.short	1119
 567 018a 7021     		.short	8560
 568 018c 7121     		.short	8561
 569 018e 7221     		.short	8562
 570 0190 7321     		.short	8563
ARM GAS  /tmp/cc0PCBxq.s 			page 11


 571 0192 7421     		.short	8564
 572 0194 7521     		.short	8565
 573 0196 7621     		.short	8566
 574 0198 7721     		.short	8567
 575 019a 7821     		.short	8568
 576 019c 7921     		.short	8569
 577 019e 7A21     		.short	8570
 578 01a0 7B21     		.short	8571
 579 01a2 7C21     		.short	8572
 580 01a4 7D21     		.short	8573
 581 01a6 7E21     		.short	8574
 582 01a8 7F21     		.short	8575
 583 01aa 41FF     		.short	-191
 584 01ac 42FF     		.short	-190
 585 01ae 43FF     		.short	-189
 586 01b0 44FF     		.short	-188
 587 01b2 45FF     		.short	-187
 588 01b4 46FF     		.short	-186
 589 01b6 47FF     		.short	-185
 590 01b8 48FF     		.short	-184
 591 01ba 49FF     		.short	-183
 592 01bc 4AFF     		.short	-182
 593 01be 4BFF     		.short	-181
 594 01c0 4CFF     		.short	-180
 595 01c2 4DFF     		.short	-179
 596 01c4 4EFF     		.short	-178
 597 01c6 4FFF     		.short	-177
 598 01c8 50FF     		.short	-176
 599 01ca 51FF     		.short	-175
 600 01cc 52FF     		.short	-174
 601 01ce 53FF     		.short	-173
 602 01d0 54FF     		.short	-172
 603 01d2 55FF     		.short	-171
 604 01d4 56FF     		.short	-170
 605 01d6 57FF     		.short	-169
 606 01d8 58FF     		.short	-168
 607 01da 59FF     		.short	-167
 608 01dc 5AFF     		.short	-166
 609 01de 0000     		.short	0
 610              		.section	.rodata.tbl_upper.8158,"a"
 611              		.align	2
 612              		.set	.LANCHOR2,. + 0
 613              		.type	tbl_upper.8158, %object
 614              		.size	tbl_upper.8158, 480
 615              	tbl_upper.8158:
 616 0000 4100     		.short	65
 617 0002 4200     		.short	66
 618 0004 4300     		.short	67
 619 0006 4400     		.short	68
 620 0008 4500     		.short	69
 621 000a 4600     		.short	70
 622 000c 4700     		.short	71
 623 000e 4800     		.short	72
 624 0010 4900     		.short	73
 625 0012 4A00     		.short	74
 626 0014 4B00     		.short	75
 627 0016 4C00     		.short	76
ARM GAS  /tmp/cc0PCBxq.s 			page 12


 628 0018 4D00     		.short	77
 629 001a 4E00     		.short	78
 630 001c 4F00     		.short	79
 631 001e 5000     		.short	80
 632 0020 5100     		.short	81
 633 0022 5200     		.short	82
 634 0024 5300     		.short	83
 635 0026 5400     		.short	84
 636 0028 5500     		.short	85
 637 002a 5600     		.short	86
 638 002c 5700     		.short	87
 639 002e 5800     		.short	88
 640 0030 5900     		.short	89
 641 0032 5A00     		.short	90
 642 0034 2100     		.short	33
 643 0036 E0FF     		.short	-32
 644 0038 E1FF     		.short	-31
 645 003a E5FF     		.short	-27
 646 003c E2FF     		.short	-30
 647 003e E3FF     		.short	-29
 648 0040 C000     		.short	192
 649 0042 C100     		.short	193
 650 0044 C200     		.short	194
 651 0046 C300     		.short	195
 652 0048 C400     		.short	196
 653 004a C500     		.short	197
 654 004c C600     		.short	198
 655 004e C700     		.short	199
 656 0050 C800     		.short	200
 657 0052 C900     		.short	201
 658 0054 CA00     		.short	202
 659 0056 CB00     		.short	203
 660 0058 CC00     		.short	204
 661 005a CD00     		.short	205
 662 005c CE00     		.short	206
 663 005e CF00     		.short	207
 664 0060 D000     		.short	208
 665 0062 D100     		.short	209
 666 0064 D200     		.short	210
 667 0066 D300     		.short	211
 668 0068 D400     		.short	212
 669 006a D500     		.short	213
 670 006c D600     		.short	214
 671 006e D800     		.short	216
 672 0070 D900     		.short	217
 673 0072 DA00     		.short	218
 674 0074 DB00     		.short	219
 675 0076 DC00     		.short	220
 676 0078 DD00     		.short	221
 677 007a DE00     		.short	222
 678 007c 7801     		.short	376
 679 007e 0001     		.short	256
 680 0080 0201     		.short	258
 681 0082 0401     		.short	260
 682 0084 0601     		.short	262
 683 0086 0801     		.short	264
 684 0088 0A01     		.short	266
ARM GAS  /tmp/cc0PCBxq.s 			page 13


 685 008a 0C01     		.short	268
 686 008c 0E01     		.short	270
 687 008e 1001     		.short	272
 688 0090 1201     		.short	274
 689 0092 1401     		.short	276
 690 0094 1601     		.short	278
 691 0096 1801     		.short	280
 692 0098 1A01     		.short	282
 693 009a 1C01     		.short	284
 694 009c 1E01     		.short	286
 695 009e 2001     		.short	288
 696 00a0 2201     		.short	290
 697 00a2 2401     		.short	292
 698 00a4 2601     		.short	294
 699 00a6 2801     		.short	296
 700 00a8 2A01     		.short	298
 701 00aa 2C01     		.short	300
 702 00ac 2E01     		.short	302
 703 00ae 3001     		.short	304
 704 00b0 3201     		.short	306
 705 00b2 3401     		.short	308
 706 00b4 3601     		.short	310
 707 00b6 3901     		.short	313
 708 00b8 3B01     		.short	315
 709 00ba 3D01     		.short	317
 710 00bc 3F01     		.short	319
 711 00be 4101     		.short	321
 712 00c0 4301     		.short	323
 713 00c2 4501     		.short	325
 714 00c4 4701     		.short	327
 715 00c6 4A01     		.short	330
 716 00c8 4C01     		.short	332
 717 00ca 4E01     		.short	334
 718 00cc 5001     		.short	336
 719 00ce 5201     		.short	338
 720 00d0 5401     		.short	340
 721 00d2 5601     		.short	342
 722 00d4 5801     		.short	344
 723 00d6 5A01     		.short	346
 724 00d8 5C01     		.short	348
 725 00da 5E01     		.short	350
 726 00dc 6001     		.short	352
 727 00de 6201     		.short	354
 728 00e0 6401     		.short	356
 729 00e2 6601     		.short	358
 730 00e4 6801     		.short	360
 731 00e6 6A01     		.short	362
 732 00e8 6C01     		.short	364
 733 00ea 6E01     		.short	366
 734 00ec 7001     		.short	368
 735 00ee 7201     		.short	370
 736 00f0 7401     		.short	372
 737 00f2 7601     		.short	374
 738 00f4 7901     		.short	377
 739 00f6 7B01     		.short	379
 740 00f8 7D01     		.short	381
 741 00fa 9101     		.short	401
ARM GAS  /tmp/cc0PCBxq.s 			page 14


 742 00fc 9103     		.short	913
 743 00fe 9203     		.short	914
 744 0100 9303     		.short	915
 745 0102 9403     		.short	916
 746 0104 9503     		.short	917
 747 0106 9603     		.short	918
 748 0108 9703     		.short	919
 749 010a 9803     		.short	920
 750 010c 9903     		.short	921
 751 010e 9A03     		.short	922
 752 0110 9B03     		.short	923
 753 0112 9C03     		.short	924
 754 0114 9D03     		.short	925
 755 0116 9E03     		.short	926
 756 0118 9F03     		.short	927
 757 011a A003     		.short	928
 758 011c A103     		.short	929
 759 011e A303     		.short	931
 760 0120 A403     		.short	932
 761 0122 A503     		.short	933
 762 0124 A603     		.short	934
 763 0126 A703     		.short	935
 764 0128 A803     		.short	936
 765 012a A903     		.short	937
 766 012c AA03     		.short	938
 767 012e 1004     		.short	1040
 768 0130 1104     		.short	1041
 769 0132 1204     		.short	1042
 770 0134 1304     		.short	1043
 771 0136 1404     		.short	1044
 772 0138 1504     		.short	1045
 773 013a 1604     		.short	1046
 774 013c 1704     		.short	1047
 775 013e 1804     		.short	1048
 776 0140 1904     		.short	1049
 777 0142 1A04     		.short	1050
 778 0144 1B04     		.short	1051
 779 0146 1C04     		.short	1052
 780 0148 1D04     		.short	1053
 781 014a 1E04     		.short	1054
 782 014c 1F04     		.short	1055
 783 014e 2004     		.short	1056
 784 0150 2104     		.short	1057
 785 0152 2204     		.short	1058
 786 0154 2304     		.short	1059
 787 0156 2404     		.short	1060
 788 0158 2504     		.short	1061
 789 015a 2604     		.short	1062
 790 015c 2704     		.short	1063
 791 015e 2804     		.short	1064
 792 0160 2904     		.short	1065
 793 0162 2A04     		.short	1066
 794 0164 2B04     		.short	1067
 795 0166 2C04     		.short	1068
 796 0168 2D04     		.short	1069
 797 016a 2E04     		.short	1070
 798 016c 2F04     		.short	1071
ARM GAS  /tmp/cc0PCBxq.s 			page 15


 799 016e 0104     		.short	1025
 800 0170 0204     		.short	1026
 801 0172 0304     		.short	1027
 802 0174 0404     		.short	1028
 803 0176 0504     		.short	1029
 804 0178 0604     		.short	1030
 805 017a 0704     		.short	1031
 806 017c 0804     		.short	1032
 807 017e 0904     		.short	1033
 808 0180 0A04     		.short	1034
 809 0182 0B04     		.short	1035
 810 0184 0C04     		.short	1036
 811 0186 0E04     		.short	1038
 812 0188 0F04     		.short	1039
 813 018a 6021     		.short	8544
 814 018c 6121     		.short	8545
 815 018e 6221     		.short	8546
 816 0190 6321     		.short	8547
 817 0192 6421     		.short	8548
 818 0194 6521     		.short	8549
 819 0196 6621     		.short	8550
 820 0198 6721     		.short	8551
 821 019a 6821     		.short	8552
 822 019c 6921     		.short	8553
 823 019e 6A21     		.short	8554
 824 01a0 6B21     		.short	8555
 825 01a2 6C21     		.short	8556
 826 01a4 6D21     		.short	8557
 827 01a6 6E21     		.short	8558
 828 01a8 6F21     		.short	8559
 829 01aa 21FF     		.short	-223
 830 01ac 22FF     		.short	-222
 831 01ae 23FF     		.short	-221
 832 01b0 24FF     		.short	-220
 833 01b2 25FF     		.short	-219
 834 01b4 26FF     		.short	-218
 835 01b6 27FF     		.short	-217
 836 01b8 28FF     		.short	-216
 837 01ba 29FF     		.short	-215
 838 01bc 2AFF     		.short	-214
 839 01be 2BFF     		.short	-213
 840 01c0 2CFF     		.short	-212
 841 01c2 2DFF     		.short	-211
 842 01c4 2EFF     		.short	-210
 843 01c6 2FFF     		.short	-209
 844 01c8 30FF     		.short	-208
 845 01ca 31FF     		.short	-207
 846 01cc 32FF     		.short	-206
 847 01ce 33FF     		.short	-205
 848 01d0 34FF     		.short	-204
 849 01d2 35FF     		.short	-203
 850 01d4 36FF     		.short	-202
 851 01d6 37FF     		.short	-201
 852 01d8 38FF     		.short	-200
 853 01da 39FF     		.short	-199
 854 01dc 3AFF     		.short	-198
 855 01de 0000     		.short	0
ARM GAS  /tmp/cc0PCBxq.s 			page 16


 856              		.text
 857              	.Letext0:
 858              		.file 2 ".//ChibiOS_ext//ext/fatfs/src/option/../integer.h"
 859              		.file 3 "/usr/lib/gcc/arm-none-eabi/9.2.1/include/stddef.h"
 860              		.file 4 "/usr/lib/gcc/arm-none-eabi/9.2.1/include/stdint.h"
 861              		.file 5 ".//ChibiOS//os/rt/ports/ARMCMx/compilers/GCC/chtypes.h"
 862              		.file 6 ".//ChibiOS//os/rt/include/chsystypes.h"
 863              		.file 7 ".//ChibiOS//os/rt/include/chschd.h"
 864              		.file 8 ".//ChibiOS//os/ext/CMSIS/include/core_cm4.h"
 865              		.file 9 ".//ChibiOS//os/ext/CMSIS/ST/system_stm32f4xx.h"
 866              		.file 10 ".//ChibiOS//os/rt/ports/ARMCMx/chcore.h"
 867              		.file 11 ".//ChibiOS//os/rt/ports/ARMCMx/chcore_v7m.h"
 868              		.file 12 ".//ChibiOS//os/rt/include/chdebug.h"
 869              		.file 13 ".//ChibiOS//os/rt/include/chtm.h"
 870              		.file 14 ".//ChibiOS//os/rt/include/chstats.h"
 871              		.file 15 ".//ChibiOS//os/rt/include/chsem.h"
 872              		.file 16 ".//ChibiOS//os/rt/include/chmtx.h"
 873              		.file 17 ".//ChibiOS//os/rt/include/chregistry.h"
 874              		.section	.debug_info,"",%progbits
 875              	.Ldebug_info0:
 876 0000 AE0B0000 		.4byte	0xbae
 877 0004 0400     		.2byte	0x4
 878 0006 00000000 		.4byte	.Ldebug_abbrev0
 879 000a 04       		.byte	0x4
 880 000b 01       		.uleb128 0x1
 881 000c 20040000 		.4byte	.LASF158
 882 0010 0C       		.byte	0xc
 883 0011 07070000 		.4byte	.LASF159
 884 0015 9A020000 		.4byte	.LASF160
 885 0019 00000000 		.4byte	.Ldebug_ranges0+0
 886 001d 00000000 		.4byte	0
 887 0021 00000000 		.4byte	.Ldebug_line0
 888 0025 02       		.uleb128 0x2
 889 0026 01       		.byte	0x1
 890 0027 08       		.byte	0x8
 891 0028 F0050000 		.4byte	.LASF0
 892 002c 02       		.uleb128 0x2
 893 002d 02       		.byte	0x2
 894 002e 05       		.byte	0x5
 895 002f 08060000 		.4byte	.LASF1
 896 0033 02       		.uleb128 0x2
 897 0034 02       		.byte	0x2
 898 0035 07       		.byte	0x7
 899 0036 E8020000 		.4byte	.LASF2
 900 003a 03       		.uleb128 0x3
 901 003b EA070000 		.4byte	.LASF3
 902 003f 02       		.byte	0x2
 903 0040 15       		.byte	0x15
 904 0041 18       		.byte	0x18
 905 0042 33000000 		.4byte	0x33
 906 0046 04       		.uleb128 0x4
 907 0047 3A000000 		.4byte	0x3a
 908 004b 05       		.uleb128 0x5
 909 004c 04       		.byte	0x4
 910 004d 05       		.byte	0x5
 911 004e 696E7400 		.ascii	"int\000"
 912 0052 03       		.uleb128 0x3
ARM GAS  /tmp/cc0PCBxq.s 			page 17


 913 0053 72020000 		.4byte	.LASF4
 914 0057 02       		.byte	0x2
 915 0058 19       		.byte	0x19
 916 0059 16       		.byte	0x16
 917 005a 5E000000 		.4byte	0x5e
 918 005e 02       		.uleb128 0x2
 919 005f 04       		.byte	0x4
 920 0060 07       		.byte	0x7
 921 0061 36020000 		.4byte	.LASF5
 922 0065 02       		.uleb128 0x2
 923 0066 04       		.byte	0x4
 924 0067 05       		.byte	0x5
 925 0068 92010000 		.4byte	.LASF6
 926 006c 02       		.uleb128 0x2
 927 006d 04       		.byte	0x4
 928 006e 07       		.byte	0x7
 929 006f F0060000 		.4byte	.LASF7
 930 0073 03       		.uleb128 0x3
 931 0074 2C000000 		.4byte	.LASF8
 932 0078 03       		.byte	0x3
 933 0079 D1       		.byte	0xd1
 934 007a 17       		.byte	0x17
 935 007b 5E000000 		.4byte	0x5e
 936 007f 02       		.uleb128 0x2
 937 0080 08       		.byte	0x8
 938 0081 05       		.byte	0x5
 939 0082 13010000 		.4byte	.LASF9
 940 0086 02       		.uleb128 0x2
 941 0087 08       		.byte	0x8
 942 0088 04       		.byte	0x4
 943 0089 C1030000 		.4byte	.LASF10
 944 008d 02       		.uleb128 0x2
 945 008e 01       		.byte	0x1
 946 008f 06       		.byte	0x6
 947 0090 21010000 		.4byte	.LASF11
 948 0094 03       		.uleb128 0x3
 949 0095 E8050000 		.4byte	.LASF12
 950 0099 04       		.byte	0x4
 951 009a 28       		.byte	0x28
 952 009b 18       		.byte	0x18
 953 009c 65000000 		.4byte	0x65
 954 00a0 06       		.uleb128 0x6
 955 00a1 94000000 		.4byte	0x94
 956 00a5 03       		.uleb128 0x3
 957 00a6 C8070000 		.4byte	.LASF13
 958 00aa 04       		.byte	0x4
 959 00ab 2E       		.byte	0x2e
 960 00ac 18       		.byte	0x18
 961 00ad 25000000 		.4byte	0x25
 962 00b1 03       		.uleb128 0x3
 963 00b2 4B020000 		.4byte	.LASF14
 964 00b6 04       		.byte	0x4
 965 00b7 31       		.byte	0x31
 966 00b8 19       		.byte	0x19
 967 00b9 33000000 		.4byte	0x33
 968 00bd 03       		.uleb128 0x3
 969 00be BB060000 		.4byte	.LASF15
ARM GAS  /tmp/cc0PCBxq.s 			page 18


 970 00c2 04       		.byte	0x4
 971 00c3 34       		.byte	0x34
 972 00c4 19       		.byte	0x19
 973 00c5 6C000000 		.4byte	0x6c
 974 00c9 03       		.uleb128 0x3
 975 00ca 3A000000 		.4byte	.LASF16
 976 00ce 04       		.byte	0x4
 977 00cf 37       		.byte	0x37
 978 00d0 19       		.byte	0x19
 979 00d1 D5000000 		.4byte	0xd5
 980 00d5 02       		.uleb128 0x2
 981 00d6 08       		.byte	0x8
 982 00d7 07       		.byte	0x7
 983 00d8 88000000 		.4byte	.LASF17
 984 00dc 03       		.uleb128 0x3
 985 00dd A2030000 		.4byte	.LASF18
 986 00e1 05       		.byte	0x5
 987 00e2 45       		.byte	0x45
 988 00e3 1D       		.byte	0x1d
 989 00e4 BD000000 		.4byte	0xbd
 990 00e8 03       		.uleb128 0x3
 991 00e9 F6000000 		.4byte	.LASF19
 992 00ed 05       		.byte	0x5
 993 00ee 46       		.byte	0x46
 994 00ef 1D       		.byte	0x1d
 995 00f0 C9000000 		.4byte	0xc9
 996 00f4 03       		.uleb128 0x3
 997 00f5 3D060000 		.4byte	.LASF20
 998 00f9 05       		.byte	0x5
 999 00fa 48       		.byte	0x48
 1000 00fb 1D       		.byte	0x1d
 1001 00fc A5000000 		.4byte	0xa5
 1002 0100 03       		.uleb128 0x3
 1003 0101 9B010000 		.4byte	.LASF21
 1004 0105 05       		.byte	0x5
 1005 0106 49       		.byte	0x49
 1006 0107 1D       		.byte	0x1d
 1007 0108 A5000000 		.4byte	0xa5
 1008 010c 03       		.uleb128 0x3
 1009 010d 9C050000 		.4byte	.LASF22
 1010 0111 05       		.byte	0x5
 1011 0112 4A       		.byte	0x4a
 1012 0113 1D       		.byte	0x1d
 1013 0114 A5000000 		.4byte	0xa5
 1014 0118 03       		.uleb128 0x3
 1015 0119 6D010000 		.4byte	.LASF23
 1016 011d 05       		.byte	0x5
 1017 011e 4B       		.byte	0x4b
 1018 011f 1D       		.byte	0x1d
 1019 0120 A5000000 		.4byte	0xa5
 1020 0124 03       		.uleb128 0x3
 1021 0125 D0050000 		.4byte	.LASF24
 1022 0129 05       		.byte	0x5
 1023 012a 4C       		.byte	0x4c
 1024 012b 1D       		.byte	0x1d
 1025 012c BD000000 		.4byte	0xbd
 1026 0130 03       		.uleb128 0x3
ARM GAS  /tmp/cc0PCBxq.s 			page 19


 1027 0131 14030000 		.4byte	.LASF25
 1028 0135 05       		.byte	0x5
 1029 0136 4D       		.byte	0x4d
 1030 0137 1D       		.byte	0x1d
 1031 0138 94000000 		.4byte	0x94
 1032 013c 03       		.uleb128 0x3
 1033 013d 57030000 		.4byte	.LASF26
 1034 0141 05       		.byte	0x5
 1035 0142 4F       		.byte	0x4f
 1036 0143 1D       		.byte	0x1d
 1037 0144 BD000000 		.4byte	0xbd
 1038 0148 03       		.uleb128 0x3
 1039 0149 25020000 		.4byte	.LASF27
 1040 014d 05       		.byte	0x5
 1041 014e 51       		.byte	0x51
 1042 014f 1D       		.byte	0x1d
 1043 0150 94000000 		.4byte	0x94
 1044 0154 03       		.uleb128 0x3
 1045 0155 1F030000 		.4byte	.LASF28
 1046 0159 05       		.byte	0x5
 1047 015a 52       		.byte	0x52
 1048 015b 1D       		.byte	0x1d
 1049 015c BD000000 		.4byte	0xbd
 1050 0160 03       		.uleb128 0x3
 1051 0161 52070000 		.4byte	.LASF29
 1052 0165 06       		.byte	0x6
 1053 0166 33       		.byte	0x33
 1054 0167 12       		.byte	0x12
 1055 0168 BD000000 		.4byte	0xbd
 1056 016c 06       		.uleb128 0x6
 1057 016d 60010000 		.4byte	0x160
 1058 0171 03       		.uleb128 0x3
 1059 0172 3D070000 		.4byte	.LASF30
 1060 0176 06       		.byte	0x6
 1061 0177 3F       		.byte	0x3f
 1062 0178 1A       		.byte	0x1a
 1063 0179 7D010000 		.4byte	0x17d
 1064 017d 07       		.uleb128 0x7
 1065 017e 0A030000 		.4byte	.LASF54
 1066 0182 68       		.byte	0x68
 1067 0183 07       		.byte	0x7
 1068 0184 C2       		.byte	0xc2
 1069 0185 08       		.byte	0x8
 1070 0186 B2020000 		.4byte	0x2b2
 1071 018a 08       		.uleb128 0x8
 1072 018b 36060000 		.4byte	.LASF31
 1073 018f 07       		.byte	0x7
 1074 0190 C3       		.byte	0xc3
 1075 0191 1A       		.byte	0x1a
 1076 0192 BE020000 		.4byte	0x2be
 1077 0196 00       		.byte	0
 1078 0197 08       		.uleb128 0x8
 1079 0198 C9050000 		.4byte	.LASF32
 1080 019c 07       		.byte	0x7
 1081 019d C5       		.byte	0xc5
 1082 019e 1A       		.byte	0x1a
 1083 019f BE020000 		.4byte	0x2be
ARM GAS  /tmp/cc0PCBxq.s 			page 20


 1084 01a3 04       		.byte	0x4
 1085 01a4 08       		.uleb128 0x8
 1086 01a5 FF000000 		.4byte	.LASF33
 1087 01a9 07       		.byte	0x7
 1088 01aa C7       		.byte	0xc7
 1089 01ab 19       		.byte	0x19
 1090 01ac 24010000 		.4byte	0x124
 1091 01b0 08       		.byte	0x8
 1092 01b1 08       		.uleb128 0x8
 1093 01b2 09040000 		.4byte	.LASF34
 1094 01b6 07       		.byte	0x7
 1095 01b7 C8       		.byte	0xc8
 1096 01b8 19       		.byte	0x19
 1097 01b9 67050000 		.4byte	0x567
 1098 01bd 0C       		.byte	0xc
 1099 01be 08       		.uleb128 0x8
 1100 01bf BE010000 		.4byte	.LASF35
 1101 01c3 07       		.byte	0x7
 1102 01c4 CA       		.byte	0xca
 1103 01c5 1A       		.byte	0x1a
 1104 01c6 BE020000 		.4byte	0x2be
 1105 01ca 10       		.byte	0x10
 1106 01cb 08       		.uleb128 0x8
 1107 01cc FB030000 		.4byte	.LASF36
 1108 01d0 07       		.byte	0x7
 1109 01d1 CB       		.byte	0xcb
 1110 01d2 1A       		.byte	0x1a
 1111 01d3 BE020000 		.4byte	0x2be
 1112 01d7 14       		.byte	0x14
 1113 01d8 08       		.uleb128 0x8
 1114 01d9 D8050000 		.4byte	.LASF37
 1115 01dd 07       		.byte	0x7
 1116 01de D2       		.byte	0xd2
 1117 01df 1A       		.byte	0x1a
 1118 01e0 24090000 		.4byte	0x924
 1119 01e4 18       		.byte	0x18
 1120 01e5 08       		.uleb128 0x8
 1121 01e6 2B020000 		.4byte	.LASF38
 1122 01ea 07       		.byte	0x7
 1123 01eb D8       		.byte	0xd8
 1124 01ec 1A       		.byte	0x1a
 1125 01ed 3B090000 		.4byte	0x93b
 1126 01f1 1C       		.byte	0x1c
 1127 01f2 08       		.uleb128 0x8
 1128 01f3 12060000 		.4byte	.LASF39
 1129 01f7 07       		.byte	0x7
 1130 01f8 DD       		.byte	0xdd
 1131 01f9 19       		.byte	0x19
 1132 01fa 00010000 		.4byte	0x100
 1133 01fe 20       		.byte	0x20
 1134 01ff 08       		.uleb128 0x8
 1135 0200 54060000 		.4byte	.LASF40
 1136 0204 07       		.byte	0x7
 1137 0205 E1       		.byte	0xe1
 1138 0206 19       		.byte	0x19
 1139 0207 F4000000 		.4byte	0xf4
 1140 020b 21       		.byte	0x21
ARM GAS  /tmp/cc0PCBxq.s 			page 21


 1141 020c 08       		.uleb128 0x8
 1142 020d AA070000 		.4byte	.LASF41
 1143 0211 07       		.byte	0x7
 1144 0212 E6       		.byte	0xe6
 1145 0213 19       		.byte	0x19
 1146 0214 0C010000 		.4byte	0x10c
 1147 0218 22       		.byte	0x22
 1148 0219 08       		.uleb128 0x8
 1149 021a 1A060000 		.4byte	.LASF42
 1150 021e 07       		.byte	0x7
 1151 021f EC       		.byte	0xec
 1152 0220 19       		.byte	0x19
 1153 0221 18010000 		.4byte	0x118
 1154 0225 23       		.byte	0x23
 1155 0226 08       		.uleb128 0x8
 1156 0227 64020000 		.4byte	.LASF43
 1157 022b 07       		.byte	0x7
 1158 022c F3       		.byte	0xf3
 1159 022d 19       		.byte	0x19
 1160 022e 6C010000 		.4byte	0x16c
 1161 0232 24       		.byte	0x24
 1162 0233 09       		.uleb128 0x9
 1163 0234 705F7500 		.ascii	"p_u\000"
 1164 0238 07       		.byte	0x7
 1165 0239 3101     		.2byte	0x131
 1166 023b 19       		.byte	0x19
 1167 023c 43080000 		.4byte	0x843
 1168 0240 28       		.byte	0x28
 1169 0241 0A       		.uleb128 0xa
 1170 0242 98030000 		.4byte	.LASF44
 1171 0246 07       		.byte	0x7
 1172 0247 3601     		.2byte	0x136
 1173 0249 19       		.byte	0x19
 1174 024a C4020000 		.4byte	0x2c4
 1175 024e 2C       		.byte	0x2c
 1176 024f 0A       		.uleb128 0xa
 1177 0250 80020000 		.4byte	.LASF45
 1178 0254 07       		.byte	0x7
 1179 0255 3C01     		.2byte	0x13c
 1180 0257 19       		.byte	0x19
 1181 0258 EB020000 		.4byte	0x2eb
 1182 025c 30       		.byte	0x30
 1183 025d 0A       		.uleb128 0xa
 1184 025e 89070000 		.4byte	.LASF46
 1185 0262 07       		.byte	0x7
 1186 0263 4001     		.2byte	0x140
 1187 0265 19       		.byte	0x19
 1188 0266 30010000 		.4byte	0x130
 1189 026a 38       		.byte	0x38
 1190 026b 0A       		.uleb128 0xa
 1191 026c B0060000 		.4byte	.LASF47
 1192 0270 07       		.byte	0x7
 1193 0271 4601     		.2byte	0x146
 1194 0273 19       		.byte	0x19
 1195 0274 3C010000 		.4byte	0x13c
 1196 0278 3C       		.byte	0x3c
 1197 0279 0A       		.uleb128 0xa
ARM GAS  /tmp/cc0PCBxq.s 			page 22


 1198 027a FE050000 		.4byte	.LASF48
 1199 027e 07       		.byte	0x7
 1200 027f 4D01     		.2byte	0x14d
 1201 0281 1A       		.byte	0x1a
 1202 0282 1E090000 		.4byte	0x91e
 1203 0286 40       		.byte	0x40
 1204 0287 0A       		.uleb128 0xa
 1205 0288 5C070000 		.4byte	.LASF49
 1206 028c 07       		.byte	0x7
 1207 028d 5101     		.2byte	0x151
 1208 028f 19       		.byte	0x19
 1209 0290 24010000 		.4byte	0x124
 1210 0294 44       		.byte	0x44
 1211 0295 0A       		.uleb128 0xa
 1212 0296 56010000 		.4byte	.LASF50
 1213 029a 07       		.byte	0x7
 1214 029b 5801     		.2byte	0x158
 1215 029d 1A       		.byte	0x1a
 1216 029e AB030000 		.4byte	0x3ab
 1217 02a2 48       		.byte	0x48
 1218 02a3 0A       		.uleb128 0xa
 1219 02a4 5C060000 		.4byte	.LASF51
 1220 02a8 07       		.byte	0x7
 1221 02a9 5E01     		.2byte	0x15e
 1222 02ab 19       		.byte	0x19
 1223 02ac ED070000 		.4byte	0x7ed
 1224 02b0 50       		.byte	0x50
 1225 02b1 00       		.byte	0
 1226 02b2 03       		.uleb128 0x3
 1227 02b3 D0070000 		.4byte	.LASF52
 1228 02b7 06       		.byte	0x6
 1229 02b8 44       		.byte	0x44
 1230 02b9 14       		.byte	0x14
 1231 02ba BE020000 		.4byte	0x2be
 1232 02be 0B       		.uleb128 0xb
 1233 02bf 04       		.byte	0x4
 1234 02c0 71010000 		.4byte	0x171
 1235 02c4 03       		.uleb128 0x3
 1236 02c5 6E030000 		.4byte	.LASF53
 1237 02c9 06       		.byte	0x6
 1238 02ca 49       		.byte	0x49
 1239 02cb 20       		.byte	0x20
 1240 02cc D0020000 		.4byte	0x2d0
 1241 02d0 07       		.uleb128 0x7
 1242 02d1 D8060000 		.4byte	.LASF55
 1243 02d5 04       		.byte	0x4
 1244 02d6 07       		.byte	0x7
 1245 02d7 B0       		.byte	0xb0
 1246 02d8 08       		.byte	0x8
 1247 02d9 EB020000 		.4byte	0x2eb
 1248 02dd 08       		.uleb128 0x8
 1249 02de 36060000 		.4byte	.LASF31
 1250 02e2 07       		.byte	0x7
 1251 02e3 B1       		.byte	0xb1
 1252 02e4 1A       		.byte	0x1a
 1253 02e5 BE020000 		.4byte	0x2be
 1254 02e9 00       		.byte	0
ARM GAS  /tmp/cc0PCBxq.s 			page 23


 1255 02ea 00       		.byte	0
 1256 02eb 03       		.uleb128 0x3
 1257 02ec 64060000 		.4byte	.LASF56
 1258 02f0 06       		.byte	0x6
 1259 02f1 50       		.byte	0x50
 1260 02f2 21       		.byte	0x21
 1261 02f3 F7020000 		.4byte	0x2f7
 1262 02f7 07       		.uleb128 0x7
 1263 02f8 4F000000 		.4byte	.LASF57
 1264 02fc 08       		.byte	0x8
 1265 02fd 07       		.byte	0x7
 1266 02fe B7       		.byte	0xb7
 1267 02ff 08       		.byte	0x8
 1268 0300 1F030000 		.4byte	0x31f
 1269 0304 08       		.uleb128 0x8
 1270 0305 36060000 		.4byte	.LASF31
 1271 0309 07       		.byte	0x7
 1272 030a B8       		.byte	0xb8
 1273 030b 1A       		.byte	0x1a
 1274 030c BE020000 		.4byte	0x2be
 1275 0310 00       		.byte	0
 1276 0311 08       		.uleb128 0x8
 1277 0312 C9050000 		.4byte	.LASF32
 1278 0316 07       		.byte	0x7
 1279 0317 B9       		.byte	0xb9
 1280 0318 1A       		.byte	0x1a
 1281 0319 BE020000 		.4byte	0x2be
 1282 031d 04       		.byte	0x4
 1283 031e 00       		.byte	0
 1284 031f 03       		.uleb128 0x3
 1285 0320 0D000000 		.4byte	.LASF58
 1286 0324 06       		.byte	0x6
 1287 0325 57       		.byte	0x57
 1288 0326 1E       		.byte	0x1e
 1289 0327 2B030000 		.4byte	0x32b
 1290 032b 0C       		.uleb128 0xc
 1291 032c 49030000 		.4byte	.LASF59
 1292 0330 1C       		.byte	0x1c
 1293 0331 07       		.byte	0x7
 1294 0332 9001     		.2byte	0x190
 1295 0334 08       		.byte	0x8
 1296 0335 8E030000 		.4byte	0x38e
 1297 0339 0A       		.uleb128 0xa
 1298 033a D0060000 		.4byte	.LASF60
 1299 033e 07       		.byte	0x7
 1300 033f 9101     		.2byte	0x191
 1301 0341 19       		.byte	0x19
 1302 0342 EB020000 		.4byte	0x2eb
 1303 0346 00       		.byte	0
 1304 0347 0A       		.uleb128 0xa
 1305 0348 91030000 		.4byte	.LASF61
 1306 034c 07       		.byte	0x7
 1307 034d 9201     		.2byte	0x192
 1308 034f 19       		.byte	0x19
 1309 0350 24010000 		.4byte	0x124
 1310 0354 08       		.byte	0x8
 1311 0355 0A       		.uleb128 0xa
ARM GAS  /tmp/cc0PCBxq.s 			page 24


 1312 0356 03040000 		.4byte	.LASF62
 1313 035a 07       		.byte	0x7
 1314 035b 9401     		.2byte	0x194
 1315 035d 19       		.byte	0x19
 1316 035e 67050000 		.4byte	0x567
 1317 0362 0C       		.byte	0xc
 1318 0363 0A       		.uleb128 0xa
 1319 0364 D6010000 		.4byte	.LASF63
 1320 0368 07       		.byte	0x7
 1321 0369 9701     		.2byte	0x197
 1322 036b 1A       		.byte	0x1a
 1323 036c BE020000 		.4byte	0x2be
 1324 0370 10       		.byte	0x10
 1325 0371 0A       		.uleb128 0xa
 1326 0372 7C050000 		.4byte	.LASF64
 1327 0376 07       		.byte	0x7
 1328 0377 9801     		.2byte	0x198
 1329 0379 1A       		.byte	0x1a
 1330 037a BE020000 		.4byte	0x2be
 1331 037e 14       		.byte	0x14
 1332 037f 0A       		.uleb128 0xa
 1333 0380 72050000 		.4byte	.LASF65
 1334 0384 07       		.byte	0x7
 1335 0385 9B01     		.2byte	0x19b
 1336 0387 1A       		.byte	0x1a
 1337 0388 BE020000 		.4byte	0x2be
 1338 038c 18       		.byte	0x18
 1339 038d 00       		.byte	0
 1340 038e 03       		.uleb128 0x3
 1341 038f 67070000 		.4byte	.LASF66
 1342 0393 06       		.byte	0x6
 1343 0394 5C       		.byte	0x5c
 1344 0395 10       		.byte	0x10
 1345 0396 9A030000 		.4byte	0x39a
 1346 039a 0B       		.uleb128 0xb
 1347 039b 04       		.byte	0x4
 1348 039c A0030000 		.4byte	0x3a0
 1349 03a0 0D       		.uleb128 0xd
 1350 03a1 AB030000 		.4byte	0x3ab
 1351 03a5 0E       		.uleb128 0xe
 1352 03a6 AB030000 		.4byte	0x3ab
 1353 03aa 00       		.byte	0
 1354 03ab 0F       		.uleb128 0xf
 1355 03ac 04       		.byte	0x4
 1356 03ad 03       		.uleb128 0x3
 1357 03ae B9050000 		.4byte	.LASF67
 1358 03b2 06       		.byte	0x6
 1359 03b3 61       		.byte	0x61
 1360 03b4 21       		.byte	0x21
 1361 03b5 B9030000 		.4byte	0x3b9
 1362 03b9 0C       		.uleb128 0xc
 1363 03ba 74060000 		.4byte	.LASF68
 1364 03be 14       		.byte	0x14
 1365 03bf 07       		.byte	0x7
 1366 03c0 6B01     		.2byte	0x16b
 1367 03c2 08       		.byte	0x8
 1368 03c3 0E040000 		.4byte	0x40e
ARM GAS  /tmp/cc0PCBxq.s 			page 25


 1369 03c7 0A       		.uleb128 0xa
 1370 03c8 43020000 		.4byte	.LASF69
 1371 03cc 07       		.byte	0x7
 1372 03cd 6C01     		.2byte	0x16c
 1373 03cf 1A       		.byte	0x1a
 1374 03d0 41090000 		.4byte	0x941
 1375 03d4 00       		.byte	0
 1376 03d5 0A       		.uleb128 0xa
 1377 03d6 E7010000 		.4byte	.LASF70
 1378 03da 07       		.byte	0x7
 1379 03db 6D01     		.2byte	0x16d
 1380 03dd 1A       		.byte	0x1a
 1381 03de 41090000 		.4byte	0x941
 1382 03e2 04       		.byte	0x4
 1383 03e3 0A       		.uleb128 0xa
 1384 03e4 77020000 		.4byte	.LASF71
 1385 03e8 07       		.byte	0x7
 1386 03e9 6E01     		.2byte	0x16e
 1387 03eb 19       		.byte	0x19
 1388 03ec 60010000 		.4byte	0x160
 1389 03f0 08       		.byte	0x8
 1390 03f1 0A       		.uleb128 0xa
 1391 03f2 33080000 		.4byte	.LASF72
 1392 03f6 07       		.byte	0x7
 1393 03f7 6F01     		.2byte	0x16f
 1394 03f9 19       		.byte	0x19
 1395 03fa 8E030000 		.4byte	0x38e
 1396 03fe 0C       		.byte	0xc
 1397 03ff 0A       		.uleb128 0xa
 1398 0400 8F070000 		.4byte	.LASF73
 1399 0404 07       		.byte	0x7
 1400 0405 7101     		.2byte	0x171
 1401 0407 1A       		.byte	0x1a
 1402 0408 AB030000 		.4byte	0x3ab
 1403 040c 10       		.byte	0x10
 1404 040d 00       		.byte	0
 1405 040e 03       		.uleb128 0x3
 1406 040f D3000000 		.4byte	.LASF74
 1407 0413 06       		.byte	0x6
 1408 0414 66       		.byte	0x66
 1409 0415 28       		.byte	0x28
 1410 0416 1A040000 		.4byte	0x41a
 1411 041a 0C       		.uleb128 0xc
 1412 041b AA030000 		.4byte	.LASF75
 1413 041f 10       		.byte	0x10
 1414 0420 07       		.byte	0x7
 1415 0421 7B01     		.2byte	0x17b
 1416 0423 08       		.byte	0x8
 1417 0424 61040000 		.4byte	0x461
 1418 0428 0A       		.uleb128 0xa
 1419 0429 43020000 		.4byte	.LASF69
 1420 042d 07       		.byte	0x7
 1421 042e 7C01     		.2byte	0x17c
 1422 0430 1A       		.byte	0x1a
 1423 0431 41090000 		.4byte	0x941
 1424 0435 00       		.byte	0
 1425 0436 0A       		.uleb128 0xa
ARM GAS  /tmp/cc0PCBxq.s 			page 26


 1426 0437 E7010000 		.4byte	.LASF70
 1427 043b 07       		.byte	0x7
 1428 043c 7E01     		.2byte	0x17e
 1429 043e 1A       		.byte	0x1a
 1430 043f 41090000 		.4byte	0x941
 1431 0443 04       		.byte	0x4
 1432 0444 0A       		.uleb128 0xa
 1433 0445 77020000 		.4byte	.LASF71
 1434 0449 07       		.byte	0x7
 1435 044a 8001     		.2byte	0x180
 1436 044c 19       		.byte	0x19
 1437 044d 60010000 		.4byte	0x160
 1438 0451 08       		.byte	0x8
 1439 0452 0A       		.uleb128 0xa
 1440 0453 F0070000 		.4byte	.LASF76
 1441 0457 07       		.byte	0x7
 1442 0458 8201     		.2byte	0x182
 1443 045a 19       		.byte	0x19
 1444 045b 6C010000 		.4byte	0x16c
 1445 045f 0C       		.byte	0xc
 1446 0460 00       		.byte	0
 1447 0461 03       		.uleb128 0x3
 1448 0462 60000000 		.4byte	.LASF77
 1449 0466 06       		.byte	0x6
 1450 0467 6B       		.byte	0x6b
 1451 0468 20       		.byte	0x20
 1452 0469 6D040000 		.4byte	0x46d
 1453 046d 10       		.uleb128 0x10
 1454 046e EF010000 		.4byte	.LASF78
 1455 0472 1404     		.2byte	0x414
 1456 0474 07       		.byte	0x7
 1457 0475 A201     		.2byte	0x1a2
 1458 0477 08       		.byte	0x8
 1459 0478 B5040000 		.4byte	0x4b5
 1460 047c 0A       		.uleb128 0xa
 1461 047d 70070000 		.4byte	.LASF79
 1462 0481 07       		.byte	0x7
 1463 0482 AA01     		.2byte	0x1aa
 1464 0484 24       		.byte	0x24
 1465 0485 2A090000 		.4byte	0x92a
 1466 0489 00       		.byte	0
 1467 048a 0A       		.uleb128 0xa
 1468 048b B1070000 		.4byte	.LASF80
 1469 048f 07       		.byte	0x7
 1470 0490 AF01     		.2byte	0x1af
 1471 0492 19       		.byte	0x19
 1472 0493 48010000 		.4byte	0x148
 1473 0497 04       		.byte	0x4
 1474 0498 0A       		.uleb128 0xa
 1475 0499 0D020000 		.4byte	.LASF81
 1476 049d 07       		.byte	0x7
 1477 049e B301     		.2byte	0x1b3
 1478 04a0 19       		.byte	0x19
 1479 04a1 48010000 		.4byte	0x148
 1480 04a5 08       		.byte	0x8
 1481 04a6 0A       		.uleb128 0xa
 1482 04a7 FB070000 		.4byte	.LASF82
ARM GAS  /tmp/cc0PCBxq.s 			page 27


 1483 04ab 07       		.byte	0x7
 1484 04ac B901     		.2byte	0x1b9
 1485 04ae 19       		.byte	0x19
 1486 04af 75070000 		.4byte	0x775
 1487 04b3 0C       		.byte	0xc
 1488 04b4 00       		.byte	0
 1489 04b5 03       		.uleb128 0x3
 1490 04b6 26030000 		.4byte	.LASF83
 1491 04ba 06       		.byte	0x6
 1492 04bb 70       		.byte	0x70
 1493 04bc 1A       		.byte	0x1a
 1494 04bd C1040000 		.4byte	0x4c1
 1495 04c1 10       		.uleb128 0x10
 1496 04c2 88010000 		.4byte	.LASF84
 1497 04c6 7006     		.2byte	0x670
 1498 04c8 07       		.byte	0x7
 1499 04c9 C201     		.2byte	0x1c2
 1500 04cb 08       		.byte	0x8
 1501 04cc 36050000 		.4byte	0x536
 1502 04d0 0A       		.uleb128 0xa
 1503 04d1 C2070000 		.4byte	.LASF85
 1504 04d5 07       		.byte	0x7
 1505 04d6 C601     		.2byte	0x1c6
 1506 04d8 19       		.byte	0x19
 1507 04d9 1F030000 		.4byte	0x31f
 1508 04dd 00       		.byte	0
 1509 04de 0A       		.uleb128 0xa
 1510 04df 66010000 		.4byte	.LASF86
 1511 04e3 07       		.byte	0x7
 1512 04e4 CA01     		.2byte	0x1ca
 1513 04e6 19       		.byte	0x19
 1514 04e7 0E040000 		.4byte	0x40e
 1515 04eb 1C       		.byte	0x1c
 1516 04ec 09       		.uleb128 0x9
 1517 04ed 64626700 		.ascii	"dbg\000"
 1518 04f1 07       		.byte	0x7
 1519 04f2 CE01     		.2byte	0x1ce
 1520 04f4 19       		.byte	0x19
 1521 04f5 61040000 		.4byte	0x461
 1522 04f9 2C       		.byte	0x2c
 1523 04fa 11       		.uleb128 0x11
 1524 04fb C8000000 		.4byte	.LASF87
 1525 04ff 07       		.byte	0x7
 1526 0500 D201     		.2byte	0x1d2
 1527 0502 19       		.byte	0x19
 1528 0503 71010000 		.4byte	0x171
 1529 0507 4004     		.2byte	0x440
 1530 0509 12       		.uleb128 0x12
 1531 050a 746D00   		.ascii	"tm\000"
 1532 050d 07       		.byte	0x7
 1533 050e D701     		.2byte	0x1d7
 1534 0510 19       		.byte	0x19
 1535 0511 98070000 		.4byte	0x798
 1536 0515 A804     		.2byte	0x4a8
 1537 0517 11       		.uleb128 0x11
 1538 0518 8F050000 		.4byte	.LASF88
 1539 051c 07       		.byte	0x7
ARM GAS  /tmp/cc0PCBxq.s 			page 28


 1540 051d DD01     		.2byte	0x1dd
 1541 051f 19       		.byte	0x19
 1542 0520 37080000 		.4byte	0x837
 1543 0524 B004     		.2byte	0x4b0
 1544 0526 11       		.uleb128 0x11
 1545 0527 16020000 		.4byte	.LASF89
 1546 052b 07       		.byte	0x7
 1547 052c E301     		.2byte	0x1e3
 1548 052e 03       		.byte	0x3
 1549 052f 47090000 		.4byte	0x947
 1550 0533 E804     		.2byte	0x4e8
 1551 0535 00       		.byte	0
 1552 0536 13       		.uleb128 0x13
 1553 0537 E9000000 		.4byte	.LASF90
 1554 053b 08       		.byte	0x8
 1555 053c A706     		.2byte	0x6a7
 1556 053e 19       		.byte	0x19
 1557 053f A0000000 		.4byte	0xa0
 1558 0543 14       		.uleb128 0x14
 1559 0544 54020000 		.4byte	.LASF91
 1560 0548 09       		.byte	0x9
 1561 0549 4C       		.byte	0x4c
 1562 054a 11       		.byte	0x11
 1563 054b BD000000 		.4byte	0xbd
 1564 054f 03       		.uleb128 0x3
 1565 0550 DE010000 		.4byte	.LASF92
 1566 0554 0A       		.byte	0xa
 1567 0555 65       		.byte	0x65
 1568 0556 0F       		.byte	0xf
 1569 0557 AB030000 		.4byte	0x3ab
 1570 055b 03       		.uleb128 0x3
 1571 055c 63030000 		.4byte	.LASF93
 1572 0560 0A       		.byte	0xa
 1573 0561 6D       		.byte	0x6d
 1574 0562 12       		.byte	0x12
 1575 0563 C9000000 		.4byte	0xc9
 1576 0567 07       		.uleb128 0x7
 1577 0568 81070000 		.4byte	.LASF94
 1578 056c 04       		.byte	0x4
 1579 056d 0A       		.byte	0xa
 1580 056e 89       		.byte	0x89
 1581 056f 08       		.byte	0x8
 1582 0570 82050000 		.4byte	0x582
 1583 0574 15       		.uleb128 0x15
 1584 0575 72313300 		.ascii	"r13\000"
 1585 0579 0A       		.byte	0xa
 1586 057a 8A       		.byte	0x8a
 1587 057b 17       		.byte	0x17
 1588 057c DD060000 		.4byte	0x6dd
 1589 0580 00       		.byte	0
 1590 0581 00       		.byte	0
 1591 0582 07       		.uleb128 0x7
 1592 0583 43000000 		.4byte	.LASF95
 1593 0587 64       		.byte	0x64
 1594 0588 0B       		.byte	0xb
 1595 0589 F4       		.byte	0xf4
 1596 058a 08       		.byte	0x8
ARM GAS  /tmp/cc0PCBxq.s 			page 29


 1597 058b DD060000 		.4byte	0x6dd
 1598 058f 15       		.uleb128 0x15
 1599 0590 73313600 		.ascii	"s16\000"
 1600 0594 0B       		.byte	0xb
 1601 0595 F6       		.byte	0xf6
 1602 0596 11       		.byte	0x11
 1603 0597 4F050000 		.4byte	0x54f
 1604 059b 00       		.byte	0
 1605 059c 15       		.uleb128 0x15
 1606 059d 73313700 		.ascii	"s17\000"
 1607 05a1 0B       		.byte	0xb
 1608 05a2 F7       		.byte	0xf7
 1609 05a3 11       		.byte	0x11
 1610 05a4 4F050000 		.4byte	0x54f
 1611 05a8 04       		.byte	0x4
 1612 05a9 15       		.uleb128 0x15
 1613 05aa 73313800 		.ascii	"s18\000"
 1614 05ae 0B       		.byte	0xb
 1615 05af F8       		.byte	0xf8
 1616 05b0 11       		.byte	0x11
 1617 05b1 4F050000 		.4byte	0x54f
 1618 05b5 08       		.byte	0x8
 1619 05b6 15       		.uleb128 0x15
 1620 05b7 73313900 		.ascii	"s19\000"
 1621 05bb 0B       		.byte	0xb
 1622 05bc F9       		.byte	0xf9
 1623 05bd 11       		.byte	0x11
 1624 05be 4F050000 		.4byte	0x54f
 1625 05c2 0C       		.byte	0xc
 1626 05c3 15       		.uleb128 0x15
 1627 05c4 73323000 		.ascii	"s20\000"
 1628 05c8 0B       		.byte	0xb
 1629 05c9 FA       		.byte	0xfa
 1630 05ca 11       		.byte	0x11
 1631 05cb 4F050000 		.4byte	0x54f
 1632 05cf 10       		.byte	0x10
 1633 05d0 15       		.uleb128 0x15
 1634 05d1 73323100 		.ascii	"s21\000"
 1635 05d5 0B       		.byte	0xb
 1636 05d6 FB       		.byte	0xfb
 1637 05d7 11       		.byte	0x11
 1638 05d8 4F050000 		.4byte	0x54f
 1639 05dc 14       		.byte	0x14
 1640 05dd 15       		.uleb128 0x15
 1641 05de 73323200 		.ascii	"s22\000"
 1642 05e2 0B       		.byte	0xb
 1643 05e3 FC       		.byte	0xfc
 1644 05e4 11       		.byte	0x11
 1645 05e5 4F050000 		.4byte	0x54f
 1646 05e9 18       		.byte	0x18
 1647 05ea 15       		.uleb128 0x15
 1648 05eb 73323300 		.ascii	"s23\000"
 1649 05ef 0B       		.byte	0xb
 1650 05f0 FD       		.byte	0xfd
 1651 05f1 11       		.byte	0x11
 1652 05f2 4F050000 		.4byte	0x54f
 1653 05f6 1C       		.byte	0x1c
ARM GAS  /tmp/cc0PCBxq.s 			page 30


 1654 05f7 15       		.uleb128 0x15
 1655 05f8 73323400 		.ascii	"s24\000"
 1656 05fc 0B       		.byte	0xb
 1657 05fd FE       		.byte	0xfe
 1658 05fe 11       		.byte	0x11
 1659 05ff 4F050000 		.4byte	0x54f
 1660 0603 20       		.byte	0x20
 1661 0604 15       		.uleb128 0x15
 1662 0605 73323500 		.ascii	"s25\000"
 1663 0609 0B       		.byte	0xb
 1664 060a FF       		.byte	0xff
 1665 060b 11       		.byte	0x11
 1666 060c 4F050000 		.4byte	0x54f
 1667 0610 24       		.byte	0x24
 1668 0611 09       		.uleb128 0x9
 1669 0612 73323600 		.ascii	"s26\000"
 1670 0616 0B       		.byte	0xb
 1671 0617 0001     		.2byte	0x100
 1672 0619 11       		.byte	0x11
 1673 061a 4F050000 		.4byte	0x54f
 1674 061e 28       		.byte	0x28
 1675 061f 09       		.uleb128 0x9
 1676 0620 73323700 		.ascii	"s27\000"
 1677 0624 0B       		.byte	0xb
 1678 0625 0101     		.2byte	0x101
 1679 0627 11       		.byte	0x11
 1680 0628 4F050000 		.4byte	0x54f
 1681 062c 2C       		.byte	0x2c
 1682 062d 09       		.uleb128 0x9
 1683 062e 73323800 		.ascii	"s28\000"
 1684 0632 0B       		.byte	0xb
 1685 0633 0201     		.2byte	0x102
 1686 0635 11       		.byte	0x11
 1687 0636 4F050000 		.4byte	0x54f
 1688 063a 30       		.byte	0x30
 1689 063b 09       		.uleb128 0x9
 1690 063c 73323900 		.ascii	"s29\000"
 1691 0640 0B       		.byte	0xb
 1692 0641 0301     		.2byte	0x103
 1693 0643 11       		.byte	0x11
 1694 0644 4F050000 		.4byte	0x54f
 1695 0648 34       		.byte	0x34
 1696 0649 09       		.uleb128 0x9
 1697 064a 73333000 		.ascii	"s30\000"
 1698 064e 0B       		.byte	0xb
 1699 064f 0401     		.2byte	0x104
 1700 0651 11       		.byte	0x11
 1701 0652 4F050000 		.4byte	0x54f
 1702 0656 38       		.byte	0x38
 1703 0657 09       		.uleb128 0x9
 1704 0658 73333100 		.ascii	"s31\000"
 1705 065c 0B       		.byte	0xb
 1706 065d 0501     		.2byte	0x105
 1707 065f 11       		.byte	0x11
 1708 0660 4F050000 		.4byte	0x54f
 1709 0664 3C       		.byte	0x3c
 1710 0665 09       		.uleb128 0x9
ARM GAS  /tmp/cc0PCBxq.s 			page 31


 1711 0666 723400   		.ascii	"r4\000"
 1712 0669 0B       		.byte	0xb
 1713 066a 0701     		.2byte	0x107
 1714 066c 11       		.byte	0x11
 1715 066d 4F050000 		.4byte	0x54f
 1716 0671 40       		.byte	0x40
 1717 0672 09       		.uleb128 0x9
 1718 0673 723500   		.ascii	"r5\000"
 1719 0676 0B       		.byte	0xb
 1720 0677 0801     		.2byte	0x108
 1721 0679 11       		.byte	0x11
 1722 067a 4F050000 		.4byte	0x54f
 1723 067e 44       		.byte	0x44
 1724 067f 09       		.uleb128 0x9
 1725 0680 723600   		.ascii	"r6\000"
 1726 0683 0B       		.byte	0xb
 1727 0684 0901     		.2byte	0x109
 1728 0686 11       		.byte	0x11
 1729 0687 4F050000 		.4byte	0x54f
 1730 068b 48       		.byte	0x48
 1731 068c 09       		.uleb128 0x9
 1732 068d 723700   		.ascii	"r7\000"
 1733 0690 0B       		.byte	0xb
 1734 0691 0A01     		.2byte	0x10a
 1735 0693 11       		.byte	0x11
 1736 0694 4F050000 		.4byte	0x54f
 1737 0698 4C       		.byte	0x4c
 1738 0699 09       		.uleb128 0x9
 1739 069a 723800   		.ascii	"r8\000"
 1740 069d 0B       		.byte	0xb
 1741 069e 0B01     		.2byte	0x10b
 1742 06a0 11       		.byte	0x11
 1743 06a1 4F050000 		.4byte	0x54f
 1744 06a5 50       		.byte	0x50
 1745 06a6 09       		.uleb128 0x9
 1746 06a7 723900   		.ascii	"r9\000"
 1747 06aa 0B       		.byte	0xb
 1748 06ab 0C01     		.2byte	0x10c
 1749 06ad 11       		.byte	0x11
 1750 06ae 4F050000 		.4byte	0x54f
 1751 06b2 54       		.byte	0x54
 1752 06b3 09       		.uleb128 0x9
 1753 06b4 72313000 		.ascii	"r10\000"
 1754 06b8 0B       		.byte	0xb
 1755 06b9 0D01     		.2byte	0x10d
 1756 06bb 11       		.byte	0x11
 1757 06bc 4F050000 		.4byte	0x54f
 1758 06c0 58       		.byte	0x58
 1759 06c1 09       		.uleb128 0x9
 1760 06c2 72313100 		.ascii	"r11\000"
 1761 06c6 0B       		.byte	0xb
 1762 06c7 0E01     		.2byte	0x10e
 1763 06c9 11       		.byte	0x11
 1764 06ca 4F050000 		.4byte	0x54f
 1765 06ce 5C       		.byte	0x5c
 1766 06cf 09       		.uleb128 0x9
 1767 06d0 6C7200   		.ascii	"lr\000"
ARM GAS  /tmp/cc0PCBxq.s 			page 32


 1768 06d3 0B       		.byte	0xb
 1769 06d4 0F01     		.2byte	0x10f
 1770 06d6 11       		.byte	0x11
 1771 06d7 4F050000 		.4byte	0x54f
 1772 06db 60       		.byte	0x60
 1773 06dc 00       		.byte	0
 1774 06dd 0B       		.uleb128 0xb
 1775 06de 04       		.byte	0x4
 1776 06df 82050000 		.4byte	0x582
 1777 06e3 16       		.uleb128 0x16
 1778 06e4 10       		.byte	0x10
 1779 06e5 0C       		.byte	0xc
 1780 06e6 51       		.byte	0x51
 1781 06e7 09       		.byte	0x9
 1782 06e8 21070000 		.4byte	0x721
 1783 06ec 08       		.uleb128 0x8
 1784 06ed 1A000000 		.4byte	.LASF96
 1785 06f1 0C       		.byte	0xc
 1786 06f2 55       		.byte	0x55
 1787 06f3 19       		.byte	0x19
 1788 06f4 60010000 		.4byte	0x160
 1789 06f8 00       		.byte	0
 1790 06f9 08       		.uleb128 0x8
 1791 06fa AE010000 		.4byte	.LASF97
 1792 06fe 0C       		.byte	0xc
 1793 06ff 59       		.byte	0x59
 1794 0700 1A       		.byte	0x1a
 1795 0701 BE020000 		.4byte	0x2be
 1796 0705 04       		.byte	0x4
 1797 0706 08       		.uleb128 0x8
 1798 0707 1B080000 		.4byte	.LASF98
 1799 070b 0C       		.byte	0xc
 1800 070c 5D       		.byte	0x5d
 1801 070d 1A       		.byte	0x1a
 1802 070e AB030000 		.4byte	0x3ab
 1803 0712 08       		.byte	0x8
 1804 0713 08       		.uleb128 0x8
 1805 0714 B9070000 		.4byte	.LASF99
 1806 0718 0C       		.byte	0xc
 1807 0719 61       		.byte	0x61
 1808 071a 19       		.byte	0x19
 1809 071b A5000000 		.4byte	0xa5
 1810 071f 0C       		.byte	0xc
 1811 0720 00       		.byte	0
 1812 0721 03       		.uleb128 0x3
 1813 0722 E0030000 		.4byte	.LASF100
 1814 0726 0C       		.byte	0xc
 1815 0727 62       		.byte	0x62
 1816 0728 03       		.byte	0x3
 1817 0729 E3060000 		.4byte	0x6e3
 1818 072d 17       		.uleb128 0x17
 1819 072e 0804     		.2byte	0x408
 1820 0730 0C       		.byte	0xc
 1821 0731 67       		.byte	0x67
 1822 0732 09       		.byte	0x9
 1823 0733 5F070000 		.4byte	0x75f
 1824 0737 08       		.uleb128 0x8
ARM GAS  /tmp/cc0PCBxq.s 			page 33


 1825 0738 CE010000 		.4byte	.LASF101
 1826 073c 0C       		.byte	0xc
 1827 073d 6B       		.byte	0x6b
 1828 073e 19       		.byte	0x19
 1829 073f 5E000000 		.4byte	0x5e
 1830 0743 00       		.byte	0
 1831 0744 08       		.uleb128 0x8
 1832 0745 D9030000 		.4byte	.LASF102
 1833 0749 0C       		.byte	0xc
 1834 074a 6F       		.byte	0x6f
 1835 074b 1A       		.byte	0x1a
 1836 074c 5F070000 		.4byte	0x75f
 1837 0750 04       		.byte	0x4
 1838 0751 08       		.uleb128 0x8
 1839 0752 A4050000 		.4byte	.LASF103
 1840 0756 0C       		.byte	0xc
 1841 0757 73       		.byte	0x73
 1842 0758 19       		.byte	0x19
 1843 0759 65070000 		.4byte	0x765
 1844 075d 08       		.byte	0x8
 1845 075e 00       		.byte	0
 1846 075f 0B       		.uleb128 0xb
 1847 0760 04       		.byte	0x4
 1848 0761 21070000 		.4byte	0x721
 1849 0765 18       		.uleb128 0x18
 1850 0766 21070000 		.4byte	0x721
 1851 076a 75070000 		.4byte	0x775
 1852 076e 19       		.uleb128 0x19
 1853 076f 5E000000 		.4byte	0x5e
 1854 0773 3F       		.byte	0x3f
 1855 0774 00       		.byte	0
 1856 0775 03       		.uleb128 0x3
 1857 0776 9F000000 		.4byte	.LASF104
 1858 077a 0C       		.byte	0xc
 1859 077b 74       		.byte	0x74
 1860 077c 03       		.byte	0x3
 1861 077d 2D070000 		.4byte	0x72d
 1862 0781 16       		.uleb128 0x16
 1863 0782 04       		.byte	0x4
 1864 0783 0D       		.byte	0xd
 1865 0784 38       		.byte	0x38
 1866 0785 09       		.byte	0x9
 1867 0786 98070000 		.4byte	0x798
 1868 078a 08       		.uleb128 0x8
 1869 078b 7A070000 		.4byte	.LASF105
 1870 078f 0D       		.byte	0xd
 1871 0790 3C       		.byte	0x3c
 1872 0791 19       		.byte	0x19
 1873 0792 DC000000 		.4byte	0xdc
 1874 0796 00       		.byte	0
 1875 0797 00       		.byte	0
 1876 0798 03       		.uleb128 0x3
 1877 0799 0F040000 		.4byte	.LASF106
 1878 079d 0D       		.byte	0xd
 1879 079e 3D       		.byte	0x3d
 1880 079f 03       		.byte	0x3
 1881 07a0 81070000 		.4byte	0x781
ARM GAS  /tmp/cc0PCBxq.s 			page 34


 1882 07a4 16       		.uleb128 0x16
 1883 07a5 18       		.byte	0x18
 1884 07a6 0D       		.byte	0xd
 1885 07a7 48       		.byte	0x48
 1886 07a8 09       		.byte	0x9
 1887 07a9 ED070000 		.4byte	0x7ed
 1888 07ad 08       		.uleb128 0x8
 1889 07ae 46070000 		.4byte	.LASF107
 1890 07b2 0D       		.byte	0xd
 1891 07b3 49       		.byte	0x49
 1892 07b4 19       		.byte	0x19
 1893 07b5 DC000000 		.4byte	0xdc
 1894 07b9 00       		.byte	0
 1895 07ba 08       		.uleb128 0x8
 1896 07bb 6F000000 		.4byte	.LASF108
 1897 07bf 0D       		.byte	0xd
 1898 07c0 4A       		.byte	0x4a
 1899 07c1 19       		.byte	0x19
 1900 07c2 DC000000 		.4byte	0xdc
 1901 07c6 04       		.byte	0x4
 1902 07c7 08       		.uleb128 0x8
 1903 07c8 1A030000 		.4byte	.LASF109
 1904 07cc 0D       		.byte	0xd
 1905 07cd 4B       		.byte	0x4b
 1906 07ce 19       		.byte	0x19
 1907 07cf DC000000 		.4byte	0xdc
 1908 07d3 08       		.byte	0x8
 1909 07d4 15       		.uleb128 0x15
 1910 07d5 6E00     		.ascii	"n\000"
 1911 07d7 0D       		.byte	0xd
 1912 07d8 4C       		.byte	0x4c
 1913 07d9 19       		.byte	0x19
 1914 07da 54010000 		.4byte	0x154
 1915 07de 0C       		.byte	0xc
 1916 07df 08       		.uleb128 0x8
 1917 07e0 84050000 		.4byte	.LASF110
 1918 07e4 0D       		.byte	0xd
 1919 07e5 4D       		.byte	0x4d
 1920 07e6 19       		.byte	0x19
 1921 07e7 E8000000 		.4byte	0xe8
 1922 07eb 10       		.byte	0x10
 1923 07ec 00       		.byte	0
 1924 07ed 03       		.uleb128 0x3
 1925 07ee 75000000 		.4byte	.LASF111
 1926 07f2 0D       		.byte	0xd
 1927 07f3 4E       		.byte	0x4e
 1928 07f4 03       		.byte	0x3
 1929 07f5 A4070000 		.4byte	0x7a4
 1930 07f9 16       		.uleb128 0x16
 1931 07fa 38       		.byte	0x38
 1932 07fb 0E       		.byte	0xe
 1933 07fc 38       		.byte	0x38
 1934 07fd 09       		.byte	0x9
 1935 07fe 37080000 		.4byte	0x837
 1936 0802 08       		.uleb128 0x8
 1937 0803 94020000 		.4byte	.LASF112
 1938 0807 0E       		.byte	0xe
ARM GAS  /tmp/cc0PCBxq.s 			page 35


 1939 0808 39       		.byte	0x39
 1940 0809 19       		.byte	0x19
 1941 080a 54010000 		.4byte	0x154
 1942 080e 00       		.byte	0
 1943 080f 08       		.uleb128 0x8
 1944 0810 DF050000 		.4byte	.LASF113
 1945 0814 0E       		.byte	0xe
 1946 0815 3A       		.byte	0x3a
 1947 0816 19       		.byte	0x19
 1948 0817 54010000 		.4byte	0x154
 1949 081b 04       		.byte	0x4
 1950 081c 08       		.uleb128 0x8
 1951 081d 08080000 		.4byte	.LASF114
 1952 0821 0E       		.byte	0xe
 1953 0822 3B       		.byte	0x3b
 1954 0823 19       		.byte	0x19
 1955 0824 ED070000 		.4byte	0x7ed
 1956 0828 08       		.byte	0x8
 1957 0829 08       		.uleb128 0x8
 1958 082a 3E030000 		.4byte	.LASF115
 1959 082e 0E       		.byte	0xe
 1960 082f 3D       		.byte	0x3d
 1961 0830 19       		.byte	0x19
 1962 0831 ED070000 		.4byte	0x7ed
 1963 0835 20       		.byte	0x20
 1964 0836 00       		.byte	0
 1965 0837 03       		.uleb128 0x3
 1966 0838 FB020000 		.4byte	.LASF116
 1967 083c 0E       		.byte	0xe
 1968 083d 3F       		.byte	0x3f
 1969 083e 03       		.byte	0x3
 1970 083f F9070000 		.4byte	0x7f9
 1971 0843 1A       		.uleb128 0x1a
 1972 0844 04       		.byte	0x4
 1973 0845 07       		.byte	0x7
 1974 0846 FA       		.byte	0xfa
 1975 0847 03       		.byte	0x3
 1976 0848 A8080000 		.4byte	0x8a8
 1977 084c 1B       		.uleb128 0x1b
 1978 084d 33000000 		.4byte	.LASF117
 1979 0851 07       		.byte	0x7
 1980 0852 0101     		.2byte	0x101
 1981 0854 19       		.byte	0x19
 1982 0855 30010000 		.4byte	0x130
 1983 0859 1B       		.uleb128 0x1b
 1984 085a BF000000 		.4byte	.LASF118
 1985 085e 07       		.byte	0x7
 1986 085f 0801     		.2byte	0x108
 1987 0861 19       		.byte	0x19
 1988 0862 30010000 		.4byte	0x130
 1989 0866 1B       		.uleb128 0x1b
 1990 0867 E3070000 		.4byte	.LASF119
 1991 086b 07       		.byte	0x7
 1992 086c 0F01     		.2byte	0x10f
 1993 086e 1A       		.byte	0x1a
 1994 086f AB030000 		.4byte	0x3ab
 1995 0873 1B       		.uleb128 0x1b
ARM GAS  /tmp/cc0PCBxq.s 			page 36


 1996 0874 82010000 		.4byte	.LASF120
 1997 0878 07       		.byte	0x7
 1998 0879 1601     		.2byte	0x116
 1999 087b 1A       		.byte	0x1a
 2000 087c A8080000 		.4byte	0x8a8
 2001 0880 1B       		.uleb128 0x1b
 2002 0881 6B020000 		.4byte	.LASF121
 2003 0885 07       		.byte	0x7
 2004 0886 1E01     		.2byte	0x11e
 2005 0888 1A       		.byte	0x1a
 2006 0889 D6080000 		.4byte	0x8d6
 2007 088d 1B       		.uleb128 0x1b
 2008 088e 36070000 		.4byte	.LASF122
 2009 0892 07       		.byte	0x7
 2010 0893 2701     		.2byte	0x127
 2011 0895 1A       		.byte	0x1a
 2012 0896 1E090000 		.4byte	0x91e
 2013 089a 1B       		.uleb128 0x1b
 2014 089b 2F060000 		.4byte	.LASF123
 2015 089f 07       		.byte	0x7
 2016 08a0 2F01     		.2byte	0x12f
 2017 08a2 19       		.byte	0x19
 2018 08a3 3C010000 		.4byte	0x13c
 2019 08a7 00       		.byte	0
 2020 08a8 0B       		.uleb128 0xb
 2021 08a9 04       		.byte	0x4
 2022 08aa B2020000 		.4byte	0x2b2
 2023 08ae 07       		.uleb128 0x7
 2024 08af A3060000 		.4byte	.LASF124
 2025 08b3 0C       		.byte	0xc
 2026 08b4 0F       		.byte	0xf
 2027 08b5 34       		.byte	0x34
 2028 08b6 10       		.byte	0x10
 2029 08b7 D6080000 		.4byte	0x8d6
 2030 08bb 08       		.uleb128 0x8
 2031 08bc C6010000 		.4byte	.LASF125
 2032 08c0 0F       		.byte	0xf
 2033 08c1 35       		.byte	0x35
 2034 08c2 19       		.byte	0x19
 2035 08c3 EB020000 		.4byte	0x2eb
 2036 08c7 00       		.byte	0
 2037 08c8 08       		.uleb128 0x8
 2038 08c9 E2020000 		.4byte	.LASF126
 2039 08cd 0F       		.byte	0xf
 2040 08ce 37       		.byte	0x37
 2041 08cf 19       		.byte	0x19
 2042 08d0 48010000 		.4byte	0x148
 2043 08d4 08       		.byte	0x8
 2044 08d5 00       		.byte	0
 2045 08d6 0B       		.uleb128 0xb
 2046 08d7 04       		.byte	0x4
 2047 08d8 AE080000 		.4byte	0x8ae
 2048 08dc 07       		.uleb128 0x7
 2049 08dd A1070000 		.4byte	.LASF127
 2050 08e1 14       		.byte	0x14
 2051 08e2 10       		.byte	0x10
 2052 08e3 39       		.byte	0x39
ARM GAS  /tmp/cc0PCBxq.s 			page 37


 2053 08e4 08       		.byte	0x8
 2054 08e5 1E090000 		.4byte	0x91e
 2055 08e9 08       		.uleb128 0x8
 2056 08ea 5E010000 		.4byte	.LASF128
 2057 08ee 10       		.byte	0x10
 2058 08ef 3A       		.byte	0x3a
 2059 08f0 19       		.byte	0x19
 2060 08f1 EB020000 		.4byte	0x2eb
 2061 08f5 00       		.byte	0
 2062 08f6 08       		.uleb128 0x8
 2063 08f7 13080000 		.4byte	.LASF129
 2064 08fb 10       		.byte	0x10
 2065 08fc 3C       		.byte	0x3c
 2066 08fd 1A       		.byte	0x1a
 2067 08fe BE020000 		.4byte	0x2be
 2068 0902 08       		.byte	0x8
 2069 0903 08       		.uleb128 0x8
 2070 0904 4B070000 		.4byte	.LASF130
 2071 0908 10       		.byte	0x10
 2072 0909 3E       		.byte	0x3e
 2073 090a 1A       		.byte	0x1a
 2074 090b 900A0000 		.4byte	0xa90
 2075 090f 0C       		.byte	0xc
 2076 0910 08       		.uleb128 0x8
 2077 0911 FF010000 		.4byte	.LASF131
 2078 0915 10       		.byte	0x10
 2079 0916 41       		.byte	0x41
 2080 0917 19       		.byte	0x19
 2081 0918 48010000 		.4byte	0x148
 2082 091c 10       		.byte	0x10
 2083 091d 00       		.byte	0
 2084 091e 0B       		.uleb128 0xb
 2085 091f 04       		.byte	0x4
 2086 0920 DC080000 		.4byte	0x8dc
 2087 0924 0B       		.uleb128 0xb
 2088 0925 04       		.byte	0x4
 2089 0926 36090000 		.4byte	0x936
 2090 092a 06       		.uleb128 0x6
 2091 092b 24090000 		.4byte	0x924
 2092 092f 02       		.uleb128 0x2
 2093 0930 01       		.byte	0x1
 2094 0931 08       		.byte	0x8
 2095 0932 02070000 		.4byte	.LASF132
 2096 0936 04       		.uleb128 0x4
 2097 0937 2F090000 		.4byte	0x92f
 2098 093b 0B       		.uleb128 0xb
 2099 093c 04       		.byte	0x4
 2100 093d 5B050000 		.4byte	0x55b
 2101 0941 0B       		.uleb128 0xb
 2102 0942 04       		.byte	0x4
 2103 0943 AD030000 		.4byte	0x3ad
 2104 0947 18       		.uleb128 0x18
 2105 0948 5B050000 		.4byte	0x55b
 2106 094c 57090000 		.4byte	0x957
 2107 0950 19       		.uleb128 0x19
 2108 0951 5E000000 		.4byte	0x5e
 2109 0955 30       		.byte	0x30
ARM GAS  /tmp/cc0PCBxq.s 			page 38


 2110 0956 00       		.byte	0
 2111 0957 1C       		.uleb128 0x1c
 2112 0958 636800   		.ascii	"ch\000"
 2113 095b 07       		.byte	0x7
 2114 095c 0902     		.2byte	0x209
 2115 095e 14       		.byte	0x14
 2116 095f B5040000 		.4byte	0x4b5
 2117 0963 16       		.uleb128 0x16
 2118 0964 16       		.byte	0x16
 2119 0965 11       		.byte	0x11
 2120 0966 34       		.byte	0x34
 2121 0967 09       		.byte	0x9
 2122 0968 570A0000 		.4byte	0xa57
 2123 096c 08       		.uleb128 0x8
 2124 096d 25080000 		.4byte	.LASF133
 2125 0971 11       		.byte	0x11
 2126 0972 35       		.byte	0x35
 2127 0973 0D       		.byte	0xd
 2128 0974 570A0000 		.4byte	0xa57
 2129 0978 00       		.byte	0
 2130 0979 08       		.uleb128 0x8
 2131 097a 7D030000 		.4byte	.LASF134
 2132 097e 11       		.byte	0x11
 2133 097f 36       		.byte	0x36
 2134 0980 0D       		.byte	0xd
 2135 0981 A5000000 		.4byte	0xa5
 2136 0985 04       		.byte	0x4
 2137 0986 08       		.uleb128 0x8
 2138 0987 E8060000 		.4byte	.LASF135
 2139 098b 11       		.byte	0x11
 2140 098c 37       		.byte	0x37
 2141 098d 0D       		.byte	0xd
 2142 098e A5000000 		.4byte	0xa5
 2143 0992 05       		.byte	0x5
 2144 0993 08       		.uleb128 0x8
 2145 0994 24060000 		.4byte	.LASF136
 2146 0998 11       		.byte	0x11
 2147 0999 38       		.byte	0x38
 2148 099a 0D       		.byte	0xd
 2149 099b B1000000 		.4byte	0xb1
 2150 099f 06       		.byte	0x6
 2151 09a0 08       		.uleb128 0x8
 2152 09a1 AE050000 		.4byte	.LASF137
 2153 09a5 11       		.byte	0x11
 2154 09a6 39       		.byte	0x39
 2155 09a7 0D       		.byte	0xd
 2156 09a8 A5000000 		.4byte	0xa5
 2157 09ac 08       		.byte	0x8
 2158 09ad 08       		.uleb128 0x8
 2159 09ae CD030000 		.4byte	.LASF138
 2160 09b2 11       		.byte	0x11
 2161 09b3 3A       		.byte	0x3a
 2162 09b4 0D       		.byte	0xd
 2163 09b5 A5000000 		.4byte	0xa5
 2164 09b9 09       		.byte	0x9
 2165 09ba 08       		.uleb128 0x8
 2166 09bb B1000000 		.4byte	.LASF139
ARM GAS  /tmp/cc0PCBxq.s 			page 39


 2167 09bf 11       		.byte	0x11
 2168 09c0 3B       		.byte	0x3b
 2169 09c1 0D       		.byte	0xd
 2170 09c2 A5000000 		.4byte	0xa5
 2171 09c6 0A       		.byte	0xa
 2172 09c7 08       		.uleb128 0x8
 2173 09c8 C4060000 		.4byte	.LASF140
 2174 09cc 11       		.byte	0x11
 2175 09cd 3C       		.byte	0x3c
 2176 09ce 0D       		.byte	0xd
 2177 09cf A5000000 		.4byte	0xa5
 2178 09d3 0B       		.byte	0xb
 2179 09d4 08       		.uleb128 0x8
 2180 09d5 96070000 		.4byte	.LASF141
 2181 09d9 11       		.byte	0x11
 2182 09da 3D       		.byte	0x3d
 2183 09db 0D       		.byte	0xd
 2184 09dc A5000000 		.4byte	0xa5
 2185 09e0 0C       		.byte	0xc
 2186 09e1 08       		.uleb128 0x8
 2187 09e2 85060000 		.4byte	.LASF142
 2188 09e6 11       		.byte	0x11
 2189 09e7 3E       		.byte	0x3e
 2190 09e8 0D       		.byte	0xd
 2191 09e9 A5000000 		.4byte	0xa5
 2192 09ed 0D       		.byte	0xd
 2193 09ee 08       		.uleb128 0x8
 2194 09ef 00000000 		.4byte	.LASF143
 2195 09f3 11       		.byte	0x11
 2196 09f4 3F       		.byte	0x3f
 2197 09f5 0D       		.byte	0xd
 2198 09f6 A5000000 		.4byte	0xa5
 2199 09fa 0E       		.byte	0xe
 2200 09fb 08       		.uleb128 0x8
 2201 09fc EF030000 		.4byte	.LASF144
 2202 0a00 11       		.byte	0x11
 2203 0a01 40       		.byte	0x40
 2204 0a02 0D       		.byte	0xd
 2205 0a03 A5000000 		.4byte	0xa5
 2206 0a07 0F       		.byte	0xf
 2207 0a08 08       		.uleb128 0x8
 2208 0a09 39010000 		.4byte	.LASF145
 2209 0a0d 11       		.byte	0x11
 2210 0a0e 41       		.byte	0x41
 2211 0a0f 0D       		.byte	0xd
 2212 0a10 A5000000 		.4byte	0xa5
 2213 0a14 10       		.byte	0x10
 2214 0a15 08       		.uleb128 0x8
 2215 0a16 06010000 		.4byte	.LASF146
 2216 0a1a 11       		.byte	0x11
 2217 0a1b 43       		.byte	0x43
 2218 0a1c 0D       		.byte	0xd
 2219 0a1d A5000000 		.4byte	0xa5
 2220 0a21 11       		.byte	0x11
 2221 0a22 08       		.uleb128 0x8
 2222 0a23 49010000 		.4byte	.LASF147
 2223 0a27 11       		.byte	0x11
ARM GAS  /tmp/cc0PCBxq.s 			page 40


 2224 0a28 44       		.byte	0x44
 2225 0a29 0D       		.byte	0xd
 2226 0a2a A5000000 		.4byte	0xa5
 2227 0a2e 12       		.byte	0x12
 2228 0a2f 08       		.uleb128 0x8
 2229 0a30 85030000 		.4byte	.LASF148
 2230 0a34 11       		.byte	0x11
 2231 0a35 45       		.byte	0x45
 2232 0a36 0D       		.byte	0xd
 2233 0a37 A5000000 		.4byte	0xa5
 2234 0a3b 13       		.byte	0x13
 2235 0a3c 08       		.uleb128 0x8
 2236 0a3d 45060000 		.4byte	.LASF149
 2237 0a41 11       		.byte	0x11
 2238 0a42 46       		.byte	0x46
 2239 0a43 0D       		.byte	0xd
 2240 0a44 A5000000 		.4byte	0xa5
 2241 0a48 14       		.byte	0x14
 2242 0a49 08       		.uleb128 0x8
 2243 0a4a 32030000 		.4byte	.LASF150
 2244 0a4e 11       		.byte	0x11
 2245 0a4f 48       		.byte	0x48
 2246 0a50 0D       		.byte	0xd
 2247 0a51 A5000000 		.4byte	0xa5
 2248 0a55 15       		.byte	0x15
 2249 0a56 00       		.byte	0
 2250 0a57 18       		.uleb128 0x18
 2251 0a58 2F090000 		.4byte	0x92f
 2252 0a5c 670A0000 		.4byte	0xa67
 2253 0a60 19       		.uleb128 0x19
 2254 0a61 5E000000 		.4byte	0x5e
 2255 0a65 03       		.byte	0x3
 2256 0a66 00       		.byte	0
 2257 0a67 03       		.uleb128 0x3
 2258 0a68 B4010000 		.4byte	.LASF151
 2259 0a6c 11       		.byte	0x11
 2260 0a6d 49       		.byte	0x49
 2261 0a6e 03       		.byte	0x3
 2262 0a6f 63090000 		.4byte	0x963
 2263 0a73 04       		.uleb128 0x4
 2264 0a74 670A0000 		.4byte	0xa67
 2265 0a78 14       		.uleb128 0x14
 2266 0a79 8B020000 		.4byte	.LASF152
 2267 0a7d 11       		.byte	0x11
 2268 0a7e 6E       		.byte	0x6e
 2269 0a7f 1D       		.byte	0x1d
 2270 0a80 730A0000 		.4byte	0xa73
 2271 0a84 03       		.uleb128 0x3
 2272 0a85 05020000 		.4byte	.LASF153
 2273 0a89 10       		.byte	0x10
 2274 0a8a 34       		.byte	0x34
 2275 0a8b 19       		.byte	0x19
 2276 0a8c DC080000 		.4byte	0x8dc
 2277 0a90 0B       		.uleb128 0xb
 2278 0a91 04       		.byte	0x4
 2279 0a92 840A0000 		.4byte	0xa84
 2280 0a96 18       		.uleb128 0x18
ARM GAS  /tmp/cc0PCBxq.s 			page 41


 2281 0a97 46000000 		.4byte	0x46
 2282 0a9b A60A0000 		.4byte	0xaa6
 2283 0a9f 19       		.uleb128 0x19
 2284 0aa0 5E000000 		.4byte	0x5e
 2285 0aa4 7F       		.byte	0x7f
 2286 0aa5 00       		.byte	0
 2287 0aa6 04       		.uleb128 0x4
 2288 0aa7 960A0000 		.4byte	0xa96
 2289 0aab 1D       		.uleb128 0x1d
 2290 0aac 54626C00 		.ascii	"Tbl\000"
 2291 0ab0 01       		.byte	0x1
 2292 0ab1 5601     		.2byte	0x156
 2293 0ab3 0D       		.byte	0xd
 2294 0ab4 A60A0000 		.4byte	0xaa6
 2295 0ab8 05       		.uleb128 0x5
 2296 0ab9 03       		.byte	0x3
 2297 0aba 00000000 		.4byte	Tbl
 2298 0abe 1E       		.uleb128 0x1e
 2299 0abf 2D010000 		.4byte	.LASF156
 2300 0ac3 01       		.byte	0x1
 2301 0ac4 1002     		.2byte	0x210
 2302 0ac6 07       		.byte	0x7
 2303 0ac7 3A000000 		.4byte	0x3a
 2304 0acb 00000000 		.4byte	.LFB220
 2305 0acf 48000000 		.4byte	.LFE220-.LFB220
 2306 0ad3 01       		.uleb128 0x1
 2307 0ad4 9C       		.byte	0x9c
 2308 0ad5 310B0000 		.4byte	0xb31
 2309 0ad9 1F       		.uleb128 0x1f
 2310 0ada 63687200 		.ascii	"chr\000"
 2311 0ade 01       		.byte	0x1
 2312 0adf 1102     		.2byte	0x211
 2313 0ae1 08       		.byte	0x8
 2314 0ae2 3A000000 		.4byte	0x3a
 2315 0ae6 04000000 		.4byte	.LLST3
 2316 0aea 00000000 		.4byte	.LVUS3
 2317 0aee 20       		.uleb128 0x20
 2318 0aef A4010000 		.4byte	.LASF154
 2319 0af3 01       		.byte	0x1
 2320 0af4 1402     		.2byte	0x214
 2321 0af6 15       		.byte	0x15
 2322 0af7 410B0000 		.4byte	0xb41
 2323 0afb 05       		.uleb128 0x5
 2324 0afc 03       		.byte	0x3
 2325 0afd 00000000 		.4byte	tbl_lower.8157
 2326 0b01 20       		.uleb128 0x20
 2327 0b02 22000000 		.4byte	.LASF155
 2328 0b06 01       		.byte	0x1
 2329 0b07 1502     		.2byte	0x215
 2330 0b09 15       		.byte	0x15
 2331 0b0a 410B0000 		.4byte	0xb41
 2332 0b0e 05       		.uleb128 0x5
 2333 0b0f 03       		.byte	0x3
 2334 0b10 00000000 		.4byte	tbl_upper.8158
 2335 0b14 21       		.uleb128 0x21
 2336 0b15 6900     		.ascii	"i\000"
 2337 0b17 01       		.byte	0x1
ARM GAS  /tmp/cc0PCBxq.s 			page 42


 2338 0b18 1602     		.2byte	0x216
 2339 0b1a 06       		.byte	0x6
 2340 0b1b 4B000000 		.4byte	0x4b
 2341 0b1f 29000000 		.4byte	.LLST4
 2342 0b23 25000000 		.4byte	.LVUS4
 2343 0b27 22       		.uleb128 0x22
 2344 0b28 3C000000 		.4byte	.LVL21
 2345 0b2c A80B0000 		.4byte	0xba8
 2346 0b30 00       		.byte	0
 2347 0b31 18       		.uleb128 0x18
 2348 0b32 46000000 		.4byte	0x46
 2349 0b36 410B0000 		.4byte	0xb41
 2350 0b3a 19       		.uleb128 0x19
 2351 0b3b 5E000000 		.4byte	0x5e
 2352 0b3f EF       		.byte	0xef
 2353 0b40 00       		.byte	0
 2354 0b41 04       		.uleb128 0x4
 2355 0b42 310B0000 		.4byte	0xb31
 2356 0b46 1E       		.uleb128 0x1e
 2357 0b47 77010000 		.4byte	.LASF157
 2358 0b4b 01       		.byte	0x1
 2359 0b4c F501     		.2byte	0x1f5
 2360 0b4e 07       		.byte	0x7
 2361 0b4f 3A000000 		.4byte	0x3a
 2362 0b53 00000000 		.4byte	.LFB219
 2363 0b57 60000000 		.4byte	.LFE219-.LFB219
 2364 0b5b 01       		.uleb128 0x1
 2365 0b5c 9C       		.byte	0x9c
 2366 0b5d A80B0000 		.4byte	0xba8
 2367 0b61 1F       		.uleb128 0x1f
 2368 0b62 63687200 		.ascii	"chr\000"
 2369 0b66 01       		.byte	0x1
 2370 0b67 F601     		.2byte	0x1f6
 2371 0b69 08       		.byte	0x8
 2372 0b6a 3A000000 		.4byte	0x3a
 2373 0b6e 54000000 		.4byte	.LLST0
 2374 0b72 48000000 		.4byte	.LVUS0
 2375 0b76 1F       		.uleb128 0x1f
 2376 0b77 64697200 		.ascii	"dir\000"
 2377 0b7b 01       		.byte	0x1
 2378 0b7c F701     		.2byte	0x1f7
 2379 0b7e 07       		.byte	0x7
 2380 0b7f 52000000 		.4byte	0x52
 2381 0b83 AF000000 		.4byte	.LLST1
 2382 0b87 A7000000 		.4byte	.LVUS1
 2383 0b8b 21       		.uleb128 0x21
 2384 0b8c 6300     		.ascii	"c\000"
 2385 0b8e 01       		.byte	0x1
 2386 0b8f FA01     		.2byte	0x1fa
 2387 0b91 08       		.byte	0x8
 2388 0b92 3A000000 		.4byte	0x3a
 2389 0b96 F7000000 		.4byte	.LLST2
 2390 0b9a E9000000 		.4byte	.LVUS2
 2391 0b9e 22       		.uleb128 0x22
 2392 0b9f 56000000 		.4byte	.LVL13
 2393 0ba3 A80B0000 		.4byte	0xba8
 2394 0ba7 00       		.byte	0
ARM GAS  /tmp/cc0PCBxq.s 			page 43


 2395 0ba8 23       		.uleb128 0x23
 2396 0ba9 92060000 		.4byte	.LASF161
 2397 0bad 92060000 		.4byte	.LASF161
 2398 0bb1 00       		.byte	0
 2399              		.section	.debug_abbrev,"",%progbits
 2400              	.Ldebug_abbrev0:
 2401 0000 01       		.uleb128 0x1
 2402 0001 11       		.uleb128 0x11
 2403 0002 01       		.byte	0x1
 2404 0003 25       		.uleb128 0x25
 2405 0004 0E       		.uleb128 0xe
 2406 0005 13       		.uleb128 0x13
 2407 0006 0B       		.uleb128 0xb
 2408 0007 03       		.uleb128 0x3
 2409 0008 0E       		.uleb128 0xe
 2410 0009 1B       		.uleb128 0x1b
 2411 000a 0E       		.uleb128 0xe
 2412 000b 55       		.uleb128 0x55
 2413 000c 17       		.uleb128 0x17
 2414 000d 11       		.uleb128 0x11
 2415 000e 01       		.uleb128 0x1
 2416 000f 10       		.uleb128 0x10
 2417 0010 17       		.uleb128 0x17
 2418 0011 00       		.byte	0
 2419 0012 00       		.byte	0
 2420 0013 02       		.uleb128 0x2
 2421 0014 24       		.uleb128 0x24
 2422 0015 00       		.byte	0
 2423 0016 0B       		.uleb128 0xb
 2424 0017 0B       		.uleb128 0xb
 2425 0018 3E       		.uleb128 0x3e
 2426 0019 0B       		.uleb128 0xb
 2427 001a 03       		.uleb128 0x3
 2428 001b 0E       		.uleb128 0xe
 2429 001c 00       		.byte	0
 2430 001d 00       		.byte	0
 2431 001e 03       		.uleb128 0x3
 2432 001f 16       		.uleb128 0x16
 2433 0020 00       		.byte	0
 2434 0021 03       		.uleb128 0x3
 2435 0022 0E       		.uleb128 0xe
 2436 0023 3A       		.uleb128 0x3a
 2437 0024 0B       		.uleb128 0xb
 2438 0025 3B       		.uleb128 0x3b
 2439 0026 0B       		.uleb128 0xb
 2440 0027 39       		.uleb128 0x39
 2441 0028 0B       		.uleb128 0xb
 2442 0029 49       		.uleb128 0x49
 2443 002a 13       		.uleb128 0x13
 2444 002b 00       		.byte	0
 2445 002c 00       		.byte	0
 2446 002d 04       		.uleb128 0x4
 2447 002e 26       		.uleb128 0x26
 2448 002f 00       		.byte	0
 2449 0030 49       		.uleb128 0x49
 2450 0031 13       		.uleb128 0x13
 2451 0032 00       		.byte	0
ARM GAS  /tmp/cc0PCBxq.s 			page 44


 2452 0033 00       		.byte	0
 2453 0034 05       		.uleb128 0x5
 2454 0035 24       		.uleb128 0x24
 2455 0036 00       		.byte	0
 2456 0037 0B       		.uleb128 0xb
 2457 0038 0B       		.uleb128 0xb
 2458 0039 3E       		.uleb128 0x3e
 2459 003a 0B       		.uleb128 0xb
 2460 003b 03       		.uleb128 0x3
 2461 003c 08       		.uleb128 0x8
 2462 003d 00       		.byte	0
 2463 003e 00       		.byte	0
 2464 003f 06       		.uleb128 0x6
 2465 0040 35       		.uleb128 0x35
 2466 0041 00       		.byte	0
 2467 0042 49       		.uleb128 0x49
 2468 0043 13       		.uleb128 0x13
 2469 0044 00       		.byte	0
 2470 0045 00       		.byte	0
 2471 0046 07       		.uleb128 0x7
 2472 0047 13       		.uleb128 0x13
 2473 0048 01       		.byte	0x1
 2474 0049 03       		.uleb128 0x3
 2475 004a 0E       		.uleb128 0xe
 2476 004b 0B       		.uleb128 0xb
 2477 004c 0B       		.uleb128 0xb
 2478 004d 3A       		.uleb128 0x3a
 2479 004e 0B       		.uleb128 0xb
 2480 004f 3B       		.uleb128 0x3b
 2481 0050 0B       		.uleb128 0xb
 2482 0051 39       		.uleb128 0x39
 2483 0052 0B       		.uleb128 0xb
 2484 0053 01       		.uleb128 0x1
 2485 0054 13       		.uleb128 0x13
 2486 0055 00       		.byte	0
 2487 0056 00       		.byte	0
 2488 0057 08       		.uleb128 0x8
 2489 0058 0D       		.uleb128 0xd
 2490 0059 00       		.byte	0
 2491 005a 03       		.uleb128 0x3
 2492 005b 0E       		.uleb128 0xe
 2493 005c 3A       		.uleb128 0x3a
 2494 005d 0B       		.uleb128 0xb
 2495 005e 3B       		.uleb128 0x3b
 2496 005f 0B       		.uleb128 0xb
 2497 0060 39       		.uleb128 0x39
 2498 0061 0B       		.uleb128 0xb
 2499 0062 49       		.uleb128 0x49
 2500 0063 13       		.uleb128 0x13
 2501 0064 38       		.uleb128 0x38
 2502 0065 0B       		.uleb128 0xb
 2503 0066 00       		.byte	0
 2504 0067 00       		.byte	0
 2505 0068 09       		.uleb128 0x9
 2506 0069 0D       		.uleb128 0xd
 2507 006a 00       		.byte	0
 2508 006b 03       		.uleb128 0x3
ARM GAS  /tmp/cc0PCBxq.s 			page 45


 2509 006c 08       		.uleb128 0x8
 2510 006d 3A       		.uleb128 0x3a
 2511 006e 0B       		.uleb128 0xb
 2512 006f 3B       		.uleb128 0x3b
 2513 0070 05       		.uleb128 0x5
 2514 0071 39       		.uleb128 0x39
 2515 0072 0B       		.uleb128 0xb
 2516 0073 49       		.uleb128 0x49
 2517 0074 13       		.uleb128 0x13
 2518 0075 38       		.uleb128 0x38
 2519 0076 0B       		.uleb128 0xb
 2520 0077 00       		.byte	0
 2521 0078 00       		.byte	0
 2522 0079 0A       		.uleb128 0xa
 2523 007a 0D       		.uleb128 0xd
 2524 007b 00       		.byte	0
 2525 007c 03       		.uleb128 0x3
 2526 007d 0E       		.uleb128 0xe
 2527 007e 3A       		.uleb128 0x3a
 2528 007f 0B       		.uleb128 0xb
 2529 0080 3B       		.uleb128 0x3b
 2530 0081 05       		.uleb128 0x5
 2531 0082 39       		.uleb128 0x39
 2532 0083 0B       		.uleb128 0xb
 2533 0084 49       		.uleb128 0x49
 2534 0085 13       		.uleb128 0x13
 2535 0086 38       		.uleb128 0x38
 2536 0087 0B       		.uleb128 0xb
 2537 0088 00       		.byte	0
 2538 0089 00       		.byte	0
 2539 008a 0B       		.uleb128 0xb
 2540 008b 0F       		.uleb128 0xf
 2541 008c 00       		.byte	0
 2542 008d 0B       		.uleb128 0xb
 2543 008e 0B       		.uleb128 0xb
 2544 008f 49       		.uleb128 0x49
 2545 0090 13       		.uleb128 0x13
 2546 0091 00       		.byte	0
 2547 0092 00       		.byte	0
 2548 0093 0C       		.uleb128 0xc
 2549 0094 13       		.uleb128 0x13
 2550 0095 01       		.byte	0x1
 2551 0096 03       		.uleb128 0x3
 2552 0097 0E       		.uleb128 0xe
 2553 0098 0B       		.uleb128 0xb
 2554 0099 0B       		.uleb128 0xb
 2555 009a 3A       		.uleb128 0x3a
 2556 009b 0B       		.uleb128 0xb
 2557 009c 3B       		.uleb128 0x3b
 2558 009d 05       		.uleb128 0x5
 2559 009e 39       		.uleb128 0x39
 2560 009f 0B       		.uleb128 0xb
 2561 00a0 01       		.uleb128 0x1
 2562 00a1 13       		.uleb128 0x13
 2563 00a2 00       		.byte	0
 2564 00a3 00       		.byte	0
 2565 00a4 0D       		.uleb128 0xd
ARM GAS  /tmp/cc0PCBxq.s 			page 46


 2566 00a5 15       		.uleb128 0x15
 2567 00a6 01       		.byte	0x1
 2568 00a7 27       		.uleb128 0x27
 2569 00a8 19       		.uleb128 0x19
 2570 00a9 01       		.uleb128 0x1
 2571 00aa 13       		.uleb128 0x13
 2572 00ab 00       		.byte	0
 2573 00ac 00       		.byte	0
 2574 00ad 0E       		.uleb128 0xe
 2575 00ae 05       		.uleb128 0x5
 2576 00af 00       		.byte	0
 2577 00b0 49       		.uleb128 0x49
 2578 00b1 13       		.uleb128 0x13
 2579 00b2 00       		.byte	0
 2580 00b3 00       		.byte	0
 2581 00b4 0F       		.uleb128 0xf
 2582 00b5 0F       		.uleb128 0xf
 2583 00b6 00       		.byte	0
 2584 00b7 0B       		.uleb128 0xb
 2585 00b8 0B       		.uleb128 0xb
 2586 00b9 00       		.byte	0
 2587 00ba 00       		.byte	0
 2588 00bb 10       		.uleb128 0x10
 2589 00bc 13       		.uleb128 0x13
 2590 00bd 01       		.byte	0x1
 2591 00be 03       		.uleb128 0x3
 2592 00bf 0E       		.uleb128 0xe
 2593 00c0 0B       		.uleb128 0xb
 2594 00c1 05       		.uleb128 0x5
 2595 00c2 3A       		.uleb128 0x3a
 2596 00c3 0B       		.uleb128 0xb
 2597 00c4 3B       		.uleb128 0x3b
 2598 00c5 05       		.uleb128 0x5
 2599 00c6 39       		.uleb128 0x39
 2600 00c7 0B       		.uleb128 0xb
 2601 00c8 01       		.uleb128 0x1
 2602 00c9 13       		.uleb128 0x13
 2603 00ca 00       		.byte	0
 2604 00cb 00       		.byte	0
 2605 00cc 11       		.uleb128 0x11
 2606 00cd 0D       		.uleb128 0xd
 2607 00ce 00       		.byte	0
 2608 00cf 03       		.uleb128 0x3
 2609 00d0 0E       		.uleb128 0xe
 2610 00d1 3A       		.uleb128 0x3a
 2611 00d2 0B       		.uleb128 0xb
 2612 00d3 3B       		.uleb128 0x3b
 2613 00d4 05       		.uleb128 0x5
 2614 00d5 39       		.uleb128 0x39
 2615 00d6 0B       		.uleb128 0xb
 2616 00d7 49       		.uleb128 0x49
 2617 00d8 13       		.uleb128 0x13
 2618 00d9 38       		.uleb128 0x38
 2619 00da 05       		.uleb128 0x5
 2620 00db 00       		.byte	0
 2621 00dc 00       		.byte	0
 2622 00dd 12       		.uleb128 0x12
ARM GAS  /tmp/cc0PCBxq.s 			page 47


 2623 00de 0D       		.uleb128 0xd
 2624 00df 00       		.byte	0
 2625 00e0 03       		.uleb128 0x3
 2626 00e1 08       		.uleb128 0x8
 2627 00e2 3A       		.uleb128 0x3a
 2628 00e3 0B       		.uleb128 0xb
 2629 00e4 3B       		.uleb128 0x3b
 2630 00e5 05       		.uleb128 0x5
 2631 00e6 39       		.uleb128 0x39
 2632 00e7 0B       		.uleb128 0xb
 2633 00e8 49       		.uleb128 0x49
 2634 00e9 13       		.uleb128 0x13
 2635 00ea 38       		.uleb128 0x38
 2636 00eb 05       		.uleb128 0x5
 2637 00ec 00       		.byte	0
 2638 00ed 00       		.byte	0
 2639 00ee 13       		.uleb128 0x13
 2640 00ef 34       		.uleb128 0x34
 2641 00f0 00       		.byte	0
 2642 00f1 03       		.uleb128 0x3
 2643 00f2 0E       		.uleb128 0xe
 2644 00f3 3A       		.uleb128 0x3a
 2645 00f4 0B       		.uleb128 0xb
 2646 00f5 3B       		.uleb128 0x3b
 2647 00f6 05       		.uleb128 0x5
 2648 00f7 39       		.uleb128 0x39
 2649 00f8 0B       		.uleb128 0xb
 2650 00f9 49       		.uleb128 0x49
 2651 00fa 13       		.uleb128 0x13
 2652 00fb 3F       		.uleb128 0x3f
 2653 00fc 19       		.uleb128 0x19
 2654 00fd 3C       		.uleb128 0x3c
 2655 00fe 19       		.uleb128 0x19
 2656 00ff 00       		.byte	0
 2657 0100 00       		.byte	0
 2658 0101 14       		.uleb128 0x14
 2659 0102 34       		.uleb128 0x34
 2660 0103 00       		.byte	0
 2661 0104 03       		.uleb128 0x3
 2662 0105 0E       		.uleb128 0xe
 2663 0106 3A       		.uleb128 0x3a
 2664 0107 0B       		.uleb128 0xb
 2665 0108 3B       		.uleb128 0x3b
 2666 0109 0B       		.uleb128 0xb
 2667 010a 39       		.uleb128 0x39
 2668 010b 0B       		.uleb128 0xb
 2669 010c 49       		.uleb128 0x49
 2670 010d 13       		.uleb128 0x13
 2671 010e 3F       		.uleb128 0x3f
 2672 010f 19       		.uleb128 0x19
 2673 0110 3C       		.uleb128 0x3c
 2674 0111 19       		.uleb128 0x19
 2675 0112 00       		.byte	0
 2676 0113 00       		.byte	0
 2677 0114 15       		.uleb128 0x15
 2678 0115 0D       		.uleb128 0xd
 2679 0116 00       		.byte	0
ARM GAS  /tmp/cc0PCBxq.s 			page 48


 2680 0117 03       		.uleb128 0x3
 2681 0118 08       		.uleb128 0x8
 2682 0119 3A       		.uleb128 0x3a
 2683 011a 0B       		.uleb128 0xb
 2684 011b 3B       		.uleb128 0x3b
 2685 011c 0B       		.uleb128 0xb
 2686 011d 39       		.uleb128 0x39
 2687 011e 0B       		.uleb128 0xb
 2688 011f 49       		.uleb128 0x49
 2689 0120 13       		.uleb128 0x13
 2690 0121 38       		.uleb128 0x38
 2691 0122 0B       		.uleb128 0xb
 2692 0123 00       		.byte	0
 2693 0124 00       		.byte	0
 2694 0125 16       		.uleb128 0x16
 2695 0126 13       		.uleb128 0x13
 2696 0127 01       		.byte	0x1
 2697 0128 0B       		.uleb128 0xb
 2698 0129 0B       		.uleb128 0xb
 2699 012a 3A       		.uleb128 0x3a
 2700 012b 0B       		.uleb128 0xb
 2701 012c 3B       		.uleb128 0x3b
 2702 012d 0B       		.uleb128 0xb
 2703 012e 39       		.uleb128 0x39
 2704 012f 0B       		.uleb128 0xb
 2705 0130 01       		.uleb128 0x1
 2706 0131 13       		.uleb128 0x13
 2707 0132 00       		.byte	0
 2708 0133 00       		.byte	0
 2709 0134 17       		.uleb128 0x17
 2710 0135 13       		.uleb128 0x13
 2711 0136 01       		.byte	0x1
 2712 0137 0B       		.uleb128 0xb
 2713 0138 05       		.uleb128 0x5
 2714 0139 3A       		.uleb128 0x3a
 2715 013a 0B       		.uleb128 0xb
 2716 013b 3B       		.uleb128 0x3b
 2717 013c 0B       		.uleb128 0xb
 2718 013d 39       		.uleb128 0x39
 2719 013e 0B       		.uleb128 0xb
 2720 013f 01       		.uleb128 0x1
 2721 0140 13       		.uleb128 0x13
 2722 0141 00       		.byte	0
 2723 0142 00       		.byte	0
 2724 0143 18       		.uleb128 0x18
 2725 0144 01       		.uleb128 0x1
 2726 0145 01       		.byte	0x1
 2727 0146 49       		.uleb128 0x49
 2728 0147 13       		.uleb128 0x13
 2729 0148 01       		.uleb128 0x1
 2730 0149 13       		.uleb128 0x13
 2731 014a 00       		.byte	0
 2732 014b 00       		.byte	0
 2733 014c 19       		.uleb128 0x19
 2734 014d 21       		.uleb128 0x21
 2735 014e 00       		.byte	0
 2736 014f 49       		.uleb128 0x49
ARM GAS  /tmp/cc0PCBxq.s 			page 49


 2737 0150 13       		.uleb128 0x13
 2738 0151 2F       		.uleb128 0x2f
 2739 0152 0B       		.uleb128 0xb
 2740 0153 00       		.byte	0
 2741 0154 00       		.byte	0
 2742 0155 1A       		.uleb128 0x1a
 2743 0156 17       		.uleb128 0x17
 2744 0157 01       		.byte	0x1
 2745 0158 0B       		.uleb128 0xb
 2746 0159 0B       		.uleb128 0xb
 2747 015a 3A       		.uleb128 0x3a
 2748 015b 0B       		.uleb128 0xb
 2749 015c 3B       		.uleb128 0x3b
 2750 015d 0B       		.uleb128 0xb
 2751 015e 39       		.uleb128 0x39
 2752 015f 0B       		.uleb128 0xb
 2753 0160 01       		.uleb128 0x1
 2754 0161 13       		.uleb128 0x13
 2755 0162 00       		.byte	0
 2756 0163 00       		.byte	0
 2757 0164 1B       		.uleb128 0x1b
 2758 0165 0D       		.uleb128 0xd
 2759 0166 00       		.byte	0
 2760 0167 03       		.uleb128 0x3
 2761 0168 0E       		.uleb128 0xe
 2762 0169 3A       		.uleb128 0x3a
 2763 016a 0B       		.uleb128 0xb
 2764 016b 3B       		.uleb128 0x3b
 2765 016c 05       		.uleb128 0x5
 2766 016d 39       		.uleb128 0x39
 2767 016e 0B       		.uleb128 0xb
 2768 016f 49       		.uleb128 0x49
 2769 0170 13       		.uleb128 0x13
 2770 0171 00       		.byte	0
 2771 0172 00       		.byte	0
 2772 0173 1C       		.uleb128 0x1c
 2773 0174 34       		.uleb128 0x34
 2774 0175 00       		.byte	0
 2775 0176 03       		.uleb128 0x3
 2776 0177 08       		.uleb128 0x8
 2777 0178 3A       		.uleb128 0x3a
 2778 0179 0B       		.uleb128 0xb
 2779 017a 3B       		.uleb128 0x3b
 2780 017b 05       		.uleb128 0x5
 2781 017c 39       		.uleb128 0x39
 2782 017d 0B       		.uleb128 0xb
 2783 017e 49       		.uleb128 0x49
 2784 017f 13       		.uleb128 0x13
 2785 0180 3F       		.uleb128 0x3f
 2786 0181 19       		.uleb128 0x19
 2787 0182 3C       		.uleb128 0x3c
 2788 0183 19       		.uleb128 0x19
 2789 0184 00       		.byte	0
 2790 0185 00       		.byte	0
 2791 0186 1D       		.uleb128 0x1d
 2792 0187 34       		.uleb128 0x34
 2793 0188 00       		.byte	0
ARM GAS  /tmp/cc0PCBxq.s 			page 50


 2794 0189 03       		.uleb128 0x3
 2795 018a 08       		.uleb128 0x8
 2796 018b 3A       		.uleb128 0x3a
 2797 018c 0B       		.uleb128 0xb
 2798 018d 3B       		.uleb128 0x3b
 2799 018e 05       		.uleb128 0x5
 2800 018f 39       		.uleb128 0x39
 2801 0190 0B       		.uleb128 0xb
 2802 0191 49       		.uleb128 0x49
 2803 0192 13       		.uleb128 0x13
 2804 0193 02       		.uleb128 0x2
 2805 0194 18       		.uleb128 0x18
 2806 0195 00       		.byte	0
 2807 0196 00       		.byte	0
 2808 0197 1E       		.uleb128 0x1e
 2809 0198 2E       		.uleb128 0x2e
 2810 0199 01       		.byte	0x1
 2811 019a 3F       		.uleb128 0x3f
 2812 019b 19       		.uleb128 0x19
 2813 019c 03       		.uleb128 0x3
 2814 019d 0E       		.uleb128 0xe
 2815 019e 3A       		.uleb128 0x3a
 2816 019f 0B       		.uleb128 0xb
 2817 01a0 3B       		.uleb128 0x3b
 2818 01a1 05       		.uleb128 0x5
 2819 01a2 39       		.uleb128 0x39
 2820 01a3 0B       		.uleb128 0xb
 2821 01a4 27       		.uleb128 0x27
 2822 01a5 19       		.uleb128 0x19
 2823 01a6 49       		.uleb128 0x49
 2824 01a7 13       		.uleb128 0x13
 2825 01a8 11       		.uleb128 0x11
 2826 01a9 01       		.uleb128 0x1
 2827 01aa 12       		.uleb128 0x12
 2828 01ab 06       		.uleb128 0x6
 2829 01ac 40       		.uleb128 0x40
 2830 01ad 18       		.uleb128 0x18
 2831 01ae 9742     		.uleb128 0x2117
 2832 01b0 19       		.uleb128 0x19
 2833 01b1 01       		.uleb128 0x1
 2834 01b2 13       		.uleb128 0x13
 2835 01b3 00       		.byte	0
 2836 01b4 00       		.byte	0
 2837 01b5 1F       		.uleb128 0x1f
 2838 01b6 05       		.uleb128 0x5
 2839 01b7 00       		.byte	0
 2840 01b8 03       		.uleb128 0x3
 2841 01b9 08       		.uleb128 0x8
 2842 01ba 3A       		.uleb128 0x3a
 2843 01bb 0B       		.uleb128 0xb
 2844 01bc 3B       		.uleb128 0x3b
 2845 01bd 05       		.uleb128 0x5
 2846 01be 39       		.uleb128 0x39
 2847 01bf 0B       		.uleb128 0xb
 2848 01c0 49       		.uleb128 0x49
 2849 01c1 13       		.uleb128 0x13
 2850 01c2 02       		.uleb128 0x2
ARM GAS  /tmp/cc0PCBxq.s 			page 51


 2851 01c3 17       		.uleb128 0x17
 2852 01c4 B742     		.uleb128 0x2137
 2853 01c6 17       		.uleb128 0x17
 2854 01c7 00       		.byte	0
 2855 01c8 00       		.byte	0
 2856 01c9 20       		.uleb128 0x20
 2857 01ca 34       		.uleb128 0x34
 2858 01cb 00       		.byte	0
 2859 01cc 03       		.uleb128 0x3
 2860 01cd 0E       		.uleb128 0xe
 2861 01ce 3A       		.uleb128 0x3a
 2862 01cf 0B       		.uleb128 0xb
 2863 01d0 3B       		.uleb128 0x3b
 2864 01d1 05       		.uleb128 0x5
 2865 01d2 39       		.uleb128 0x39
 2866 01d3 0B       		.uleb128 0xb
 2867 01d4 49       		.uleb128 0x49
 2868 01d5 13       		.uleb128 0x13
 2869 01d6 02       		.uleb128 0x2
 2870 01d7 18       		.uleb128 0x18
 2871 01d8 00       		.byte	0
 2872 01d9 00       		.byte	0
 2873 01da 21       		.uleb128 0x21
 2874 01db 34       		.uleb128 0x34
 2875 01dc 00       		.byte	0
 2876 01dd 03       		.uleb128 0x3
 2877 01de 08       		.uleb128 0x8
 2878 01df 3A       		.uleb128 0x3a
 2879 01e0 0B       		.uleb128 0xb
 2880 01e1 3B       		.uleb128 0x3b
 2881 01e2 05       		.uleb128 0x5
 2882 01e3 39       		.uleb128 0x39
 2883 01e4 0B       		.uleb128 0xb
 2884 01e5 49       		.uleb128 0x49
 2885 01e6 13       		.uleb128 0x13
 2886 01e7 02       		.uleb128 0x2
 2887 01e8 17       		.uleb128 0x17
 2888 01e9 B742     		.uleb128 0x2137
 2889 01eb 17       		.uleb128 0x17
 2890 01ec 00       		.byte	0
 2891 01ed 00       		.byte	0
 2892 01ee 22       		.uleb128 0x22
 2893 01ef 898201   		.uleb128 0x4109
 2894 01f2 00       		.byte	0
 2895 01f3 11       		.uleb128 0x11
 2896 01f4 01       		.uleb128 0x1
 2897 01f5 31       		.uleb128 0x31
 2898 01f6 13       		.uleb128 0x13
 2899 01f7 00       		.byte	0
 2900 01f8 00       		.byte	0
 2901 01f9 23       		.uleb128 0x23
 2902 01fa 2E       		.uleb128 0x2e
 2903 01fb 00       		.byte	0
 2904 01fc 3F       		.uleb128 0x3f
 2905 01fd 19       		.uleb128 0x19
 2906 01fe 3C       		.uleb128 0x3c
 2907 01ff 19       		.uleb128 0x19
ARM GAS  /tmp/cc0PCBxq.s 			page 52


 2908 0200 6E       		.uleb128 0x6e
 2909 0201 0E       		.uleb128 0xe
 2910 0202 03       		.uleb128 0x3
 2911 0203 0E       		.uleb128 0xe
 2912 0204 00       		.byte	0
 2913 0205 00       		.byte	0
 2914 0206 00       		.byte	0
 2915              		.section	.debug_loc,"",%progbits
 2916              	.Ldebug_loc0:
 2917              	.LVUS3:
 2918 0000 00       		.uleb128 0
 2919 0001 00       		.uleb128 .LVU46
 2920 0002 00       		.uleb128 .LVU46
 2921 0003 00       		.uleb128 0
 2922              	.LLST3:
 2923 0004 00000000 		.4byte	.LVL14
 2924 0008 28000000 		.4byte	.LVL19
 2925 000c 0100     		.2byte	0x1
 2926 000e 50       		.byte	0x50
 2927 000f 28000000 		.4byte	.LVL19
 2928 0013 48000000 		.4byte	.LFE220
 2929 0017 0400     		.2byte	0x4
 2930 0019 F3       		.byte	0xf3
 2931 001a 01       		.uleb128 0x1
 2932 001b 50       		.byte	0x50
 2933 001c 9F       		.byte	0x9f
 2934 001d 00000000 		.4byte	0
 2935 0021 00000000 		.4byte	0
 2936              	.LVUS4:
 2937 0025 04       		.uleb128 .LVU34
 2938 0026 00       		.uleb128 .LVU37
 2939 0027 00       		.uleb128 .LVU37
 2940 0028 00       		.uleb128 .LVU47
 2941              	.LLST4:
 2942 0029 10000000 		.4byte	.LVL15
 2943 002d 16000000 		.4byte	.LVL16
 2944 0031 0200     		.2byte	0x2
 2945 0033 30       		.byte	0x30
 2946 0034 9F       		.byte	0x9f
 2947 0035 16000000 		.4byte	.LVL16
 2948 0039 30000000 		.4byte	.LVL20
 2949 003d 0100     		.2byte	0x1
 2950 003f 52       		.byte	0x52
 2951 0040 00000000 		.4byte	0
 2952 0044 00000000 		.4byte	0
 2953              	.LVUS0:
 2954 0048 00       		.uleb128 0
 2955 0049 00       		.uleb128 .LVU16
 2956 004a 00       		.uleb128 .LVU16
 2957 004b 00       		.uleb128 .LVU19
 2958 004c 00       		.uleb128 .LVU19
 2959 004d 00       		.uleb128 .LVU22
 2960 004e 00       		.uleb128 .LVU22
 2961 004f 00       		.uleb128 .LVU23
 2962 0050 00       		.uleb128 .LVU23
 2963 0051 00       		.uleb128 .LVU24
 2964 0052 00       		.uleb128 .LVU24
ARM GAS  /tmp/cc0PCBxq.s 			page 53


 2965 0053 00       		.uleb128 0
 2966              	.LLST0:
 2967 0054 00000000 		.4byte	.LVL0
 2968 0058 30000000 		.4byte	.LVL6
 2969 005c 0100     		.2byte	0x1
 2970 005e 50       		.byte	0x50
 2971 005f 30000000 		.4byte	.LVL6
 2972 0063 40000000 		.4byte	.LVL8
 2973 0067 0400     		.2byte	0x4
 2974 0069 F3       		.byte	0xf3
 2975 006a 01       		.uleb128 0x1
 2976 006b 50       		.byte	0x50
 2977 006c 9F       		.byte	0x9f
 2978 006d 40000000 		.4byte	.LVL8
 2979 0071 48000000 		.4byte	.LVL9
 2980 0075 0100     		.2byte	0x1
 2981 0077 50       		.byte	0x50
 2982 0078 48000000 		.4byte	.LVL9
 2983 007c 4E000000 		.4byte	.LVL10
 2984 0080 0400     		.2byte	0x4
 2985 0082 F3       		.byte	0xf3
 2986 0083 01       		.uleb128 0x1
 2987 0084 50       		.byte	0x50
 2988 0085 9F       		.byte	0x9f
 2989 0086 4E000000 		.4byte	.LVL10
 2990 008a 50000000 		.4byte	.LVL11
 2991 008e 0100     		.2byte	0x1
 2992 0090 50       		.byte	0x50
 2993 0091 50000000 		.4byte	.LVL11
 2994 0095 60000000 		.4byte	.LFE219
 2995 0099 0400     		.2byte	0x4
 2996 009b F3       		.byte	0xf3
 2997 009c 01       		.uleb128 0x1
 2998 009d 50       		.byte	0x50
 2999 009e 9F       		.byte	0x9f
 3000 009f 00000000 		.4byte	0
 3001 00a3 00000000 		.4byte	0
 3002              	.LVUS1:
 3003 00a7 00       		.uleb128 0
 3004 00a8 00       		.uleb128 .LVU9
 3005 00a9 00       		.uleb128 .LVU9
 3006 00aa 00       		.uleb128 .LVU19
 3007 00ab 00       		.uleb128 .LVU19
 3008 00ac 00       		.uleb128 .LVU23
 3009 00ad 00       		.uleb128 .LVU23
 3010 00ae 00       		.uleb128 0
 3011              	.LLST1:
 3012 00af 00000000 		.4byte	.LVL0
 3013 00b3 1C000000 		.4byte	.LVL1
 3014 00b7 0100     		.2byte	0x1
 3015 00b9 51       		.byte	0x51
 3016 00ba 1C000000 		.4byte	.LVL1
 3017 00be 40000000 		.4byte	.LVL8
 3018 00c2 0400     		.2byte	0x4
 3019 00c4 F3       		.byte	0xf3
 3020 00c5 01       		.uleb128 0x1
 3021 00c6 51       		.byte	0x51
ARM GAS  /tmp/cc0PCBxq.s 			page 54


 3022 00c7 9F       		.byte	0x9f
 3023 00c8 40000000 		.4byte	.LVL8
 3024 00cc 4E000000 		.4byte	.LVL10
 3025 00d0 0100     		.2byte	0x1
 3026 00d2 51       		.byte	0x51
 3027 00d3 4E000000 		.4byte	.LVL10
 3028 00d7 60000000 		.4byte	.LFE219
 3029 00db 0400     		.2byte	0x4
 3030 00dd F3       		.byte	0xf3
 3031 00de 01       		.uleb128 0x1
 3032 00df 51       		.byte	0x51
 3033 00e0 9F       		.byte	0x9f
 3034 00e1 00000000 		.4byte	0
 3035 00e5 00000000 		.4byte	0
 3036              	.LVUS2:
 3037 00e9 00       		.uleb128 .LVU9
 3038 00ea 01       		.uleb128 .LVU10
 3039 00eb 01       		.uleb128 .LVU10
 3040 00ec 00       		.uleb128 .LVU11
 3041 00ed 00       		.uleb128 .LVU11
 3042 00ee 00       		.uleb128 .LVU12
 3043 00ef 00       		.uleb128 .LVU12
 3044 00f0 00       		.uleb128 .LVU13
 3045 00f1 00       		.uleb128 .LVU14
 3046 00f2 00       		.uleb128 .LVU17
 3047 00f3 00       		.uleb128 .LVU17
 3048 00f4 00       		.uleb128 .LVU19
 3049 00f5 00       		.uleb128 .LVU25
 3050 00f6 00       		.uleb128 .LVU26
 3051              	.LLST2:
 3052 00f7 1C000000 		.4byte	.LVL1
 3053 00fb 1C000000 		.4byte	.LVL1
 3054 00ff 0100     		.2byte	0x1
 3055 0101 54       		.byte	0x54
 3056 0102 1C000000 		.4byte	.LVL1
 3057 0106 1E000000 		.4byte	.LVL2
 3058 010a 0300     		.2byte	0x3
 3059 010c 71       		.byte	0x71
 3060 010d 01       		.sleb128 1
 3061 010e 9F       		.byte	0x9f
 3062 010f 1E000000 		.4byte	.LVL2
 3063 0113 22000000 		.4byte	.LVL3
 3064 0117 0300     		.2byte	0x3
 3065 0119 74       		.byte	0x74
 3066 011a 01       		.sleb128 1
 3067 011b 9F       		.byte	0x9f
 3068 011c 22000000 		.4byte	.LVL3
 3069 0120 26000000 		.4byte	.LVL4
 3070 0124 0300     		.2byte	0x3
 3071 0126 71       		.byte	0x71
 3072 0127 01       		.sleb128 1
 3073 0128 9F       		.byte	0x9f
 3074 0129 2A000000 		.4byte	.LVL5
 3075 012d 32000000 		.4byte	.LVL7
 3076 0131 0100     		.2byte	0x1
 3077 0133 54       		.byte	0x54
 3078 0134 32000000 		.4byte	.LVL7
ARM GAS  /tmp/cc0PCBxq.s 			page 55


 3079 0138 40000000 		.4byte	.LVL8
 3080 013c 0100     		.2byte	0x1
 3081 013e 50       		.byte	0x50
 3082 013f 52000000 		.4byte	.LVL12
 3083 0143 55000000 		.4byte	.LVL13-1
 3084 0147 0100     		.2byte	0x1
 3085 0149 50       		.byte	0x50
 3086 014a 00000000 		.4byte	0
 3087 014e 00000000 		.4byte	0
 3088              		.section	.debug_aranges,"",%progbits
 3089 0000 24000000 		.4byte	0x24
 3090 0004 0200     		.2byte	0x2
 3091 0006 00000000 		.4byte	.Ldebug_info0
 3092 000a 04       		.byte	0x4
 3093 000b 00       		.byte	0
 3094 000c 0000     		.2byte	0
 3095 000e 0000     		.2byte	0
 3096 0010 00000000 		.4byte	.LFB219
 3097 0014 60000000 		.4byte	.LFE219-.LFB219
 3098 0018 00000000 		.4byte	.LFB220
 3099 001c 48000000 		.4byte	.LFE220-.LFB220
 3100 0020 00000000 		.4byte	0
 3101 0024 00000000 		.4byte	0
 3102              		.section	.debug_ranges,"",%progbits
 3103              	.Ldebug_ranges0:
 3104 0000 00000000 		.4byte	.LFB219
 3105 0004 60000000 		.4byte	.LFE219
 3106 0008 00000000 		.4byte	.LFB220
 3107 000c 48000000 		.4byte	.LFE220
 3108 0010 00000000 		.4byte	0
 3109 0014 00000000 		.4byte	0
 3110              		.section	.debug_line,"",%progbits
 3111              	.Ldebug_line0:
 3112 0000 FD020000 		.section	.debug_str,"MS",%progbits,1
 3112      03001002 
 3112      00000201 
 3112      FB0E0D00 
 3112      01010101 
 3113              	.LASF143:
 3114 0000 63665F6F 		.ascii	"cf_off_older\000"
 3114      66665F6F 
 3114      6C646572 
 3114      00
 3115              	.LASF58:
 3116 000d 72656164 		.ascii	"ready_list_t\000"
 3116      795F6C69 
 3116      73745F74 
 3116      00
 3117              	.LASF96:
 3118 001a 73655F74 		.ascii	"se_time\000"
 3118      696D6500 
 3119              	.LASF155:
 3120 0022 74626C5F 		.ascii	"tbl_upper\000"
 3120      75707065 
 3120      7200
 3121              	.LASF8:
 3122 002c 73697A65 		.ascii	"size_t\000"
ARM GAS  /tmp/cc0PCBxq.s 			page 56


 3122      5F7400
 3123              	.LASF117:
 3124 0033 7264796D 		.ascii	"rdymsg\000"
 3124      736700
 3125              	.LASF16:
 3126 003a 75696E74 		.ascii	"uint64_t\000"
 3126      36345F74 
 3126      00
 3127              	.LASF95:
 3128 0043 706F7274 		.ascii	"port_intctx\000"
 3128      5F696E74 
 3128      63747800 
 3129              	.LASF57:
 3130 004f 63685F74 		.ascii	"ch_threads_queue\000"
 3130      68726561 
 3130      64735F71 
 3130      75657565 
 3130      00
 3131              	.LASF77:
 3132 0060 73797374 		.ascii	"system_debug_t\000"
 3132      656D5F64 
 3132      65627567 
 3132      5F7400
 3133              	.LASF108:
 3134 006f 776F7273 		.ascii	"worst\000"
 3134      7400
 3135              	.LASF111:
 3136 0075 74696D65 		.ascii	"time_measurement_t\000"
 3136      5F6D6561 
 3136      73757265 
 3136      6D656E74 
 3136      5F7400
 3137              	.LASF17:
 3138 0088 6C6F6E67 		.ascii	"long long unsigned int\000"
 3138      206C6F6E 
 3138      6720756E 
 3138      7369676E 
 3138      65642069 
 3139              	.LASF104:
 3140 009f 63685F74 		.ascii	"ch_trace_buffer_t\000"
 3140      72616365 
 3140      5F627566 
 3140      6665725F 
 3140      7400
 3141              	.LASF139:
 3142 00b1 63685F74 		.ascii	"ch_threadsize\000"
 3142      68726561 
 3142      6473697A 
 3142      6500
 3143              	.LASF118:
 3144 00bf 65786974 		.ascii	"exitcode\000"
 3144      636F6465 
 3144      00
 3145              	.LASF87:
 3146 00c8 6D61696E 		.ascii	"mainthread\000"
 3146      74687265 
 3146      616400
ARM GAS  /tmp/cc0PCBxq.s 			page 57


 3147              	.LASF74:
 3148 00d3 76697274 		.ascii	"virtual_timers_list_t\000"
 3148      75616C5F 
 3148      74696D65 
 3148      72735F6C 
 3148      6973745F 
 3149              	.LASF90:
 3150 00e9 49544D5F 		.ascii	"ITM_RxBuffer\000"
 3150      52784275 
 3150      66666572 
 3150      00
 3151              	.LASF19:
 3152 00f6 72747469 		.ascii	"rttime_t\000"
 3152      6D655F74 
 3152      00
 3153              	.LASF33:
 3154 00ff 705F7072 		.ascii	"p_prio\000"
 3154      696F00
 3155              	.LASF146:
 3156 0106 63665F6F 		.ascii	"cf_off_state\000"
 3156      66665F73 
 3156      74617465 
 3156      00
 3157              	.LASF9:
 3158 0113 6C6F6E67 		.ascii	"long long int\000"
 3158      206C6F6E 
 3158      6720696E 
 3158      7400
 3159              	.LASF11:
 3160 0121 7369676E 		.ascii	"signed char\000"
 3160      65642063 
 3160      68617200 
 3161              	.LASF156:
 3162 012d 66665F77 		.ascii	"ff_wtoupper\000"
 3162      746F7570 
 3162      70657200 
 3163              	.LASF145:
 3164 0139 63665F6F 		.ascii	"cf_off_stklimit\000"
 3164      66665F73 
 3164      746B6C69 
 3164      6D697400 
 3165              	.LASF147:
 3166 0149 63665F6F 		.ascii	"cf_off_flags\000"
 3166      66665F66 
 3166      6C616773 
 3166      00
 3167              	.LASF50:
 3168 0156 705F6D70 		.ascii	"p_mpool\000"
 3168      6F6F6C00 
 3169              	.LASF128:
 3170 015e 6D5F7175 		.ascii	"m_queue\000"
 3170      65756500 
 3171              	.LASF86:
 3172 0166 76746C69 		.ascii	"vtlist\000"
 3172      737400
 3173              	.LASF23:
 3174 016d 74736C69 		.ascii	"tslices_t\000"
ARM GAS  /tmp/cc0PCBxq.s 			page 58


 3174      6365735F 
 3174      7400
 3175              	.LASF157:
 3176 0177 66665F63 		.ascii	"ff_convert\000"
 3176      6F6E7665 
 3176      727400
 3177              	.LASF120:
 3178 0182 77747472 		.ascii	"wttrp\000"
 3178      7000
 3179              	.LASF84:
 3180 0188 63685F73 		.ascii	"ch_system\000"
 3180      79737465 
 3180      6D00
 3181              	.LASF6:
 3182 0192 6C6F6E67 		.ascii	"long int\000"
 3182      20696E74 
 3182      00
 3183              	.LASF21:
 3184 019b 74737461 		.ascii	"tstate_t\000"
 3184      74655F74 
 3184      00
 3185              	.LASF154:
 3186 01a4 74626C5F 		.ascii	"tbl_lower\000"
 3186      6C6F7765 
 3186      7200
 3187              	.LASF97:
 3188 01ae 73655F74 		.ascii	"se_tp\000"
 3188      7000
 3189              	.LASF151:
 3190 01b4 63686465 		.ascii	"chdebug_t\000"
 3190      6275675F 
 3190      7400
 3191              	.LASF35:
 3192 01be 705F6E65 		.ascii	"p_newer\000"
 3192      77657200 
 3193              	.LASF125:
 3194 01c6 735F7175 		.ascii	"s_queue\000"
 3194      65756500 
 3195              	.LASF101:
 3196 01ce 74625F73 		.ascii	"tb_size\000"
 3196      697A6500 
 3197              	.LASF63:
 3198 01d6 725F6E65 		.ascii	"r_newer\000"
 3198      77657200 
 3199              	.LASF92:
 3200 01de 72656761 		.ascii	"regarm_t\000"
 3200      726D5F74 
 3200      00
 3201              	.LASF70:
 3202 01e7 76745F70 		.ascii	"vt_prev\000"
 3202      72657600 
 3203              	.LASF78:
 3204 01ef 63685F73 		.ascii	"ch_system_debug\000"
 3204      79737465 
 3204      6D5F6465 
 3204      62756700 
 3205              	.LASF131:
ARM GAS  /tmp/cc0PCBxq.s 			page 59


 3206 01ff 6D5F636E 		.ascii	"m_cnt\000"
 3206      7400
 3207              	.LASF153:
 3208 0205 6D757465 		.ascii	"mutex_t\000"
 3208      785F7400 
 3209              	.LASF81:
 3210 020d 6C6F636B 		.ascii	"lock_cnt\000"
 3210      5F636E74 
 3210      00
 3211              	.LASF89:
 3212 0216 69646C65 		.ascii	"idle_thread_wa\000"
 3212      5F746872 
 3212      6561645F 
 3212      776100
 3213              	.LASF27:
 3214 0225 636E745F 		.ascii	"cnt_t\000"
 3214      7400
 3215              	.LASF38:
 3216 022b 705F7374 		.ascii	"p_stklimit\000"
 3216      6B6C696D 
 3216      697400
 3217              	.LASF5:
 3218 0236 756E7369 		.ascii	"unsigned int\000"
 3218      676E6564 
 3218      20696E74 
 3218      00
 3219              	.LASF69:
 3220 0243 76745F6E 		.ascii	"vt_next\000"
 3220      65787400 
 3221              	.LASF14:
 3222 024b 75696E74 		.ascii	"uint16_t\000"
 3222      31365F74 
 3222      00
 3223              	.LASF91:
 3224 0254 53797374 		.ascii	"SystemCoreClock\000"
 3224      656D436F 
 3224      7265436C 
 3224      6F636B00 
 3225              	.LASF43:
 3226 0264 705F7469 		.ascii	"p_time\000"
 3226      6D6500
 3227              	.LASF121:
 3228 026b 77747365 		.ascii	"wtsemp\000"
 3228      6D7000
 3229              	.LASF4:
 3230 0272 55494E54 		.ascii	"UINT\000"
 3230      00
 3231              	.LASF71:
 3232 0277 76745F64 		.ascii	"vt_delta\000"
 3232      656C7461 
 3232      00
 3233              	.LASF45:
 3234 0280 705F6D73 		.ascii	"p_msgqueue\000"
 3234      67717565 
 3234      756500
 3235              	.LASF152:
 3236 028b 63685F64 		.ascii	"ch_debug\000"
ARM GAS  /tmp/cc0PCBxq.s 			page 60


 3236      65627567 
 3236      00
 3237              	.LASF112:
 3238 0294 6E5F6972 		.ascii	"n_irq\000"
 3238      7100
 3239              	.LASF160:
 3240 029a 2F686F6D 		.ascii	"/home/olof/Documents/MICRO-315/micro-315/tp4/lib/e-"
 3240      652F6F6C 
 3240      6F662F44 
 3240      6F63756D 
 3240      656E7473 
 3241 02cd 7075636B 		.ascii	"puck2_main-processor\000"
 3241      325F6D61 
 3241      696E2D70 
 3241      726F6365 
 3241      73736F72 
 3242              	.LASF126:
 3243 02e2 735F636E 		.ascii	"s_cnt\000"
 3243      7400
 3244              	.LASF2:
 3245 02e8 73686F72 		.ascii	"short unsigned int\000"
 3245      7420756E 
 3245      7369676E 
 3245      65642069 
 3245      6E7400
 3246              	.LASF116:
 3247 02fb 6B65726E 		.ascii	"kernel_stats_t\000"
 3247      656C5F73 
 3247      74617473 
 3247      5F7400
 3248              	.LASF54:
 3249 030a 63685F74 		.ascii	"ch_thread\000"
 3249      68726561 
 3249      6400
 3250              	.LASF25:
 3251 0314 6D73675F 		.ascii	"msg_t\000"
 3251      7400
 3252              	.LASF109:
 3253 031a 6C617374 		.ascii	"last\000"
 3253      00
 3254              	.LASF28:
 3255 031f 75636E74 		.ascii	"ucnt_t\000"
 3255      5F7400
 3256              	.LASF83:
 3257 0326 63685F73 		.ascii	"ch_system_t\000"
 3257      79737465 
 3257      6D5F7400 
 3258              	.LASF150:
 3259 0332 63665F6F 		.ascii	"cf_off_time\000"
 3259      66665F74 
 3259      696D6500 
 3260              	.LASF115:
 3261 033e 6D5F6372 		.ascii	"m_crit_isr\000"
 3261      69745F69 
 3261      737200
 3262              	.LASF59:
 3263 0349 63685F72 		.ascii	"ch_ready_list\000"
ARM GAS  /tmp/cc0PCBxq.s 			page 61


 3263      65616479 
 3263      5F6C6973 
 3263      7400
 3264              	.LASF26:
 3265 0357 6576656E 		.ascii	"eventmask_t\000"
 3265      746D6173 
 3265      6B5F7400 
 3266              	.LASF93:
 3267 0363 73746B61 		.ascii	"stkalign_t\000"
 3267      6C69676E 
 3267      5F7400
 3268              	.LASF53:
 3269 036e 74687265 		.ascii	"threads_list_t\000"
 3269      6164735F 
 3269      6C697374 
 3269      5F7400
 3270              	.LASF134:
 3271 037d 63685F7A 		.ascii	"ch_zero\000"
 3271      65726F00 
 3272              	.LASF148:
 3273 0385 63665F6F 		.ascii	"cf_off_refs\000"
 3273      66665F72 
 3273      65667300 
 3274              	.LASF61:
 3275 0391 725F7072 		.ascii	"r_prio\000"
 3275      696F00
 3276              	.LASF44:
 3277 0398 705F7761 		.ascii	"p_waiting\000"
 3277      6974696E 
 3277      6700
 3278              	.LASF18:
 3279 03a2 7274636E 		.ascii	"rtcnt_t\000"
 3279      745F7400 
 3280              	.LASF75:
 3281 03aa 63685F76 		.ascii	"ch_virtual_timers_list\000"
 3281      69727475 
 3281      616C5F74 
 3281      696D6572 
 3281      735F6C69 
 3282              	.LASF10:
 3283 03c1 6C6F6E67 		.ascii	"long double\000"
 3283      20646F75 
 3283      626C6500 
 3284              	.LASF138:
 3285 03cd 63685F74 		.ascii	"ch_timesize\000"
 3285      696D6573 
 3285      697A6500 
 3286              	.LASF102:
 3287 03d9 74625F70 		.ascii	"tb_ptr\000"
 3287      747200
 3288              	.LASF100:
 3289 03e0 63685F73 		.ascii	"ch_swc_event_t\000"
 3289      77635F65 
 3289      76656E74 
 3289      5F7400
 3290              	.LASF144:
 3291 03ef 63665F6F 		.ascii	"cf_off_name\000"
ARM GAS  /tmp/cc0PCBxq.s 			page 62


 3291      66665F6E 
 3291      616D6500 
 3292              	.LASF36:
 3293 03fb 705F6F6C 		.ascii	"p_older\000"
 3293      64657200 
 3294              	.LASF62:
 3295 0403 725F6374 		.ascii	"r_ctx\000"
 3295      7800
 3296              	.LASF34:
 3297 0409 705F6374 		.ascii	"p_ctx\000"
 3297      7800
 3298              	.LASF106:
 3299 040f 746D5F63 		.ascii	"tm_calibration_t\000"
 3299      616C6962 
 3299      72617469 
 3299      6F6E5F74 
 3299      00
 3300              	.LASF158:
 3301 0420 474E5520 		.ascii	"GNU C17 9.2.1 20191025 (release) [ARM/arm-9-branch "
 3301      43313720 
 3301      392E322E 
 3301      31203230 
 3301      31393130 
 3302 0453 72657669 		.ascii	"revision 277599] -mcpu=cortex-m4 -mfloat-abi=hard -"
 3302      73696F6E 
 3302      20323737 
 3302      3539395D 
 3302      202D6D63 
 3303 0486 6D667075 		.ascii	"mfpu=fpv4-sp-d16 -mno-thumb-interwork -mthumb -marc"
 3303      3D667076 
 3303      342D7370 
 3303      2D643136 
 3303      202D6D6E 
 3304 04b9 683D6172 		.ascii	"h=armv7e-m+fp -ggdb -O2 -fomit-frame-pointer -falig"
 3304      6D763765 
 3304      2D6D2B66 
 3304      70202D67 
 3304      67646220 
 3305 04ec 6E2D6675 		.ascii	"n-functions=16 -fno-strict-aliasing -fstack-protect"
 3305      6E637469 
 3305      6F6E733D 
 3305      3136202D 
 3305      666E6F2D 
 3306 051f 6F722D61 		.ascii	"or-all -ffunction-sections -fdata-sections -fno-com"
 3306      6C6C202D 
 3306      6666756E 
 3306      6374696F 
 3306      6E2D7365 
 3307 0552 6D6F6E20 		.ascii	"mon -fsingle-precision-constant\000"
 3307      2D667369 
 3307      6E676C65 
 3307      2D707265 
 3307      63697369 
 3308              	.LASF65:
 3309 0572 725F6375 		.ascii	"r_current\000"
 3309      7272656E 
 3309      7400
ARM GAS  /tmp/cc0PCBxq.s 			page 63


 3310              	.LASF64:
 3311 057c 725F6F6C 		.ascii	"r_older\000"
 3311      64657200 
 3312              	.LASF110:
 3313 0584 63756D75 		.ascii	"cumulative\000"
 3313      6C617469 
 3313      766500
 3314              	.LASF88:
 3315 058f 6B65726E 		.ascii	"kernel_stats\000"
 3315      656C5F73 
 3315      74617473 
 3315      00
 3316              	.LASF22:
 3317 059c 74726566 		.ascii	"trefs_t\000"
 3317      735F7400 
 3318              	.LASF103:
 3319 05a4 74625F62 		.ascii	"tb_buffer\000"
 3319      75666665 
 3319      7200
 3320              	.LASF137:
 3321 05ae 63685F70 		.ascii	"ch_ptrsize\000"
 3321      74727369 
 3321      7A6500
 3322              	.LASF67:
 3323 05b9 76697274 		.ascii	"virtual_timer_t\000"
 3323      75616C5F 
 3323      74696D65 
 3323      725F7400 
 3324              	.LASF32:
 3325 05c9 705F7072 		.ascii	"p_prev\000"
 3325      657600
 3326              	.LASF24:
 3327 05d0 74707269 		.ascii	"tprio_t\000"
 3327      6F5F7400 
 3328              	.LASF37:
 3329 05d8 705F6E61 		.ascii	"p_name\000"
 3329      6D6500
 3330              	.LASF113:
 3331 05df 6E5F6374 		.ascii	"n_ctxswc\000"
 3331      78737763 
 3331      00
 3332              	.LASF12:
 3333 05e8 696E7433 		.ascii	"int32_t\000"
 3333      325F7400 
 3334              	.LASF0:
 3335 05f0 756E7369 		.ascii	"unsigned char\000"
 3335      676E6564 
 3335      20636861 
 3335      7200
 3336              	.LASF48:
 3337 05fe 705F6D74 		.ascii	"p_mtxlist\000"
 3337      786C6973 
 3337      7400
 3338              	.LASF1:
 3339 0608 73686F72 		.ascii	"short int\000"
 3339      7420696E 
 3339      7400
ARM GAS  /tmp/cc0PCBxq.s 			page 64


 3340              	.LASF39:
 3341 0612 705F7374 		.ascii	"p_state\000"
 3341      61746500 
 3342              	.LASF42:
 3343 061a 705F7072 		.ascii	"p_preempt\000"
 3343      65656D70 
 3343      7400
 3344              	.LASF136:
 3345 0624 63685F76 		.ascii	"ch_version\000"
 3345      65727369 
 3345      6F6E00
 3346              	.LASF123:
 3347 062f 65776D61 		.ascii	"ewmask\000"
 3347      736B00
 3348              	.LASF31:
 3349 0636 705F6E65 		.ascii	"p_next\000"
 3349      787400
 3350              	.LASF20:
 3351 063d 746D6F64 		.ascii	"tmode_t\000"
 3351      655F7400 
 3352              	.LASF149:
 3353 0645 63665F6F 		.ascii	"cf_off_preempt\000"
 3353      66665F70 
 3353      7265656D 
 3353      707400
 3354              	.LASF40:
 3355 0654 705F666C 		.ascii	"p_flags\000"
 3355      61677300 
 3356              	.LASF51:
 3357 065c 705F7374 		.ascii	"p_stats\000"
 3357      61747300 
 3358              	.LASF56:
 3359 0664 74687265 		.ascii	"threads_queue_t\000"
 3359      6164735F 
 3359      71756575 
 3359      655F7400 
 3360              	.LASF68:
 3361 0674 63685F76 		.ascii	"ch_virtual_timer\000"
 3361      69727475 
 3361      616C5F74 
 3361      696D6572 
 3361      00
 3362              	.LASF142:
 3363 0685 63665F6F 		.ascii	"cf_off_newer\000"
 3363      66665F6E 
 3363      65776572 
 3363      00
 3364              	.LASF161:
 3365 0692 5F5F7374 		.ascii	"__stack_chk_fail\000"
 3365      61636B5F 
 3365      63686B5F 
 3365      6661696C 
 3365      00
 3366              	.LASF124:
 3367 06a3 63685F73 		.ascii	"ch_semaphore\000"
 3367      656D6170 
 3367      686F7265 
ARM GAS  /tmp/cc0PCBxq.s 			page 65


 3367      00
 3368              	.LASF47:
 3369 06b0 705F6570 		.ascii	"p_epending\000"
 3369      656E6469 
 3369      6E6700
 3370              	.LASF15:
 3371 06bb 75696E74 		.ascii	"uint32_t\000"
 3371      33325F74 
 3371      00
 3372              	.LASF140:
 3373 06c4 63665F6F 		.ascii	"cf_off_prio\000"
 3373      66665F70 
 3373      72696F00 
 3374              	.LASF60:
 3375 06d0 725F7175 		.ascii	"r_queue\000"
 3375      65756500 
 3376              	.LASF55:
 3377 06d8 63685F74 		.ascii	"ch_threads_list\000"
 3377      68726561 
 3377      64735F6C 
 3377      69737400 
 3378              	.LASF135:
 3379 06e8 63685F73 		.ascii	"ch_size\000"
 3379      697A6500 
 3380              	.LASF7:
 3381 06f0 6C6F6E67 		.ascii	"long unsigned int\000"
 3381      20756E73 
 3381      69676E65 
 3381      6420696E 
 3381      7400
 3382              	.LASF132:
 3383 0702 63686172 		.ascii	"char\000"
 3383      00
 3384              	.LASF159:
 3385 0707 2E2F2F43 		.ascii	".//ChibiOS_ext//ext/fatfs/src/option/unicode.c\000"
 3385      68696269 
 3385      4F535F65 
 3385      78742F2F 
 3385      6578742F 
 3386              	.LASF122:
 3387 0736 77746D74 		.ascii	"wtmtxp\000"
 3387      787000
 3388              	.LASF30:
 3389 073d 74687265 		.ascii	"thread_t\000"
 3389      61645F74 
 3389      00
 3390              	.LASF107:
 3391 0746 62657374 		.ascii	"best\000"
 3391      00
 3392              	.LASF130:
 3393 074b 6D5F6E65 		.ascii	"m_next\000"
 3393      787400
 3394              	.LASF29:
 3395 0752 73797374 		.ascii	"systime_t\000"
 3395      696D655F 
 3395      7400
 3396              	.LASF49:
ARM GAS  /tmp/cc0PCBxq.s 			page 66


 3397 075c 705F7265 		.ascii	"p_realprio\000"
 3397      616C7072 
 3397      696F00
 3398              	.LASF66:
 3399 0767 76746675 		.ascii	"vtfunc_t\000"
 3399      6E635F74 
 3399      00
 3400              	.LASF79:
 3401 0770 70616E69 		.ascii	"panic_msg\000"
 3401      635F6D73 
 3401      6700
 3402              	.LASF105:
 3403 077a 6F666673 		.ascii	"offset\000"
 3403      657400
 3404              	.LASF94:
 3405 0781 636F6E74 		.ascii	"context\000"
 3405      65787400 
 3406              	.LASF46:
 3407 0789 705F6D73 		.ascii	"p_msg\000"
 3407      6700
 3408              	.LASF73:
 3409 078f 76745F70 		.ascii	"vt_par\000"
 3409      617200
 3410              	.LASF141:
 3411 0796 63665F6F 		.ascii	"cf_off_ctx\000"
 3411      66665F63 
 3411      747800
 3412              	.LASF127:
 3413 07a1 63685F6D 		.ascii	"ch_mutex\000"
 3413      75746578 
 3413      00
 3414              	.LASF41:
 3415 07aa 705F7265 		.ascii	"p_refs\000"
 3415      667300
 3416              	.LASF80:
 3417 07b1 6973725F 		.ascii	"isr_cnt\000"
 3417      636E7400 
 3418              	.LASF99:
 3419 07b9 73655F73 		.ascii	"se_state\000"
 3419      74617465 
 3419      00
 3420              	.LASF85:
 3421 07c2 726C6973 		.ascii	"rlist\000"
 3421      7400
 3422              	.LASF13:
 3423 07c8 75696E74 		.ascii	"uint8_t\000"
 3423      385F7400 
 3424              	.LASF52:
 3425 07d0 74687265 		.ascii	"thread_reference_t\000"
 3425      61645F72 
 3425      65666572 
 3425      656E6365 
 3425      5F7400
 3426              	.LASF119:
 3427 07e3 77746F62 		.ascii	"wtobjp\000"
 3427      6A7000
 3428              	.LASF3:
ARM GAS  /tmp/cc0PCBxq.s 			page 67


 3429 07ea 57434841 		.ascii	"WCHAR\000"
 3429      5200
 3430              	.LASF76:
 3431 07f0 76745F73 		.ascii	"vt_systime\000"
 3431      79737469 
 3431      6D6500
 3432              	.LASF82:
 3433 07fb 74726163 		.ascii	"trace_buffer\000"
 3433      655F6275 
 3433      66666572 
 3433      00
 3434              	.LASF114:
 3435 0808 6D5F6372 		.ascii	"m_crit_thd\000"
 3435      69745F74 
 3435      686400
 3436              	.LASF129:
 3437 0813 6D5F6F77 		.ascii	"m_owner\000"
 3437      6E657200 
 3438              	.LASF98:
 3439 081b 73655F77 		.ascii	"se_wtobjp\000"
 3439      746F626A 
 3439      7000
 3440              	.LASF133:
 3441 0825 63685F69 		.ascii	"ch_identifier\000"
 3441      64656E74 
 3441      69666965 
 3441      7200
 3442              	.LASF72:
 3443 0833 76745F66 		.ascii	"vt_func\000"
 3443      756E6300 
 3444              		.ident	"GCC: (15:9-2019-q4-0ubuntu1) 9.2.1 20191025 (release) [ARM/arm-9-branch revision 277599]"
ARM GAS  /tmp/cc0PCBxq.s 			page 68


DEFINED SYMBOLS
                            *ABS*:0000000000000000 unicode.c
     /tmp/cc0PCBxq.s:18     .rodata.ff_convert.cst4:0000000000000000 $d
     /tmp/cc0PCBxq.s:22     .text.ff_convert:0000000000000000 $t
     /tmp/cc0PCBxq.s:31     .text.ff_convert:0000000000000000 ff_convert
     /tmp/cc0PCBxq.s:132    .text.ff_convert:0000000000000058 $d
     /tmp/cc0PCBxq.s:138    .rodata.ff_wtoupper.cst4:0000000000000000 $d
     /tmp/cc0PCBxq.s:142    .text.ff_wtoupper:0000000000000000 $t
     /tmp/cc0PCBxq.s:150    .text.ff_wtoupper:0000000000000000 ff_wtoupper
     /tmp/cc0PCBxq.s:224    .text.ff_wtoupper:000000000000003c $d
     /tmp/cc0PCBxq.s:231    .rodata.Tbl:0000000000000000 $d
     /tmp/cc0PCBxq.s:235    .rodata.Tbl:0000000000000000 Tbl
     /tmp/cc0PCBxq.s:365    .rodata.tbl_lower.8157:0000000000000000 $d
     /tmp/cc0PCBxq.s:369    .rodata.tbl_lower.8157:0000000000000000 tbl_lower.8157
     /tmp/cc0PCBxq.s:611    .rodata.tbl_upper.8158:0000000000000000 $d
     /tmp/cc0PCBxq.s:615    .rodata.tbl_upper.8158:0000000000000000 tbl_upper.8158

UNDEFINED SYMBOLS
__stack_chk_guard
__stack_chk_fail
