ARM GAS  /tmp/ccqWEI8l.s 			page 1


   1              		.cpu cortex-m4
   2              		.eabi_attribute 27, 1
   3              		.eabi_attribute 28, 1
   4              		.eabi_attribute 20, 1
   5              		.eabi_attribute 21, 1
   6              		.eabi_attribute 23, 3
   7              		.eabi_attribute 24, 1
   8              		.eabi_attribute 25, 1
   9              		.eabi_attribute 26, 1
  10              		.eabi_attribute 30, 2
  11              		.eabi_attribute 34, 1
  12              		.eabi_attribute 18, 4
  13              		.file	"usb_lld.c"
  14              		.text
  15              	.Ltext0:
  16              		.cfi_sections	.debug_frame
  17              		.section	.rodata.otg_disable_ep.isra.0.cst4,"aM",%progbits,4
  18              		.align	2
  19              	.LC0:
  20 0000 00000000 		.word	__stack_chk_guard
  21              		.section	.text.otg_disable_ep.isra.0,"ax",%progbits
  22              		.align	1
  23              		.p2align 4,,15
  24              		.arch armv7e-m
  25              		.syntax unified
  26              		.thumb
  27              		.thumb_func
  28              		.fpu fpv4-sp-d16
  29              		.type	otg_disable_ep.isra.0, %function
  30              	otg_disable_ep.isra.0:
  31              	.LFB293:
  32              		.file 1 ".//ChibiOS//os/hal/ports/STM32/LLD/OTGv1/usb_lld.c"
  33              		.loc 1 132 13 view -0
  34              		.cfi_startproc
  35              		@ args = 0, pretend = 0, frame = 8
  36              		@ frame_needed = 0, uses_anonymous_args = 0
  37 0000 F0B5     		push	{r4, r5, r6, r7, lr}
  38              		.cfi_def_cfa_offset 20
  39              		.cfi_offset 4, -20
  40              		.cfi_offset 5, -16
  41              		.cfi_offset 6, -12
  42              		.cfi_offset 7, -8
  43              		.cfi_offset 14, -4
  44 0002 244B     		ldr	r3, .L20
  45 0004 83B0     		sub	sp, sp, #12
  46              		.cfi_def_cfa_offset 32
  47              		.loc 1 136 10 is_stmt 0 view .LVU1
  48 0006 0024     		movs	r4, #0
  49              		.loc 1 147 27 view .LVU2
  50 0008 2646     		mov	r6, r4
  51              		.loc 1 141 27 view .LVU3
  52 000a 4FF0804E 		mov	lr, #1073741824
  53              		.loc 1 149 25 view .LVU4
  54 000e 4FF0FF37 		mov	r7, #-1
  55              		.loc 1 132 13 view .LVU5
  56 0012 1B68     		ldr	r3, [r3]
  57 0014 0193     		str	r3, [sp, #4]
ARM GAS  /tmp/ccqWEI8l.s 			page 2


  58 0016 4FF00003 		mov	r3,#0
  59              	.LVL0:
  60              		.loc 1 136 15 is_stmt 1 view .LVU6
  61 001a 0BE0     		b	.L8
  62              	.LVL1:
  63              	.L5:
  64              		.loc 1 162 7 view .LVU7
  65              		.loc 1 162 27 is_stmt 0 view .LVU8
  66 001c C5F8006B 		str	r6, [r5, #2816]
  67              	.L7:
  68              		.loc 1 163 5 is_stmt 1 view .LVU9
  69              		.loc 1 163 26 is_stmt 0 view .LVU10
  70 0020 0344     		add	r3, r3, r0
  71              		.loc 1 136 53 view .LVU11
  72 0022 0134     		adds	r4, r4, #1
  73              	.LVL2:
  74              		.loc 1 163 26 view .LVU12
  75 0024 C3F8106B 		str	r6, [r3, #2832]
  76              		.loc 1 164 5 is_stmt 1 view .LVU13
  77              		.loc 1 164 25 is_stmt 0 view .LVU14
  78 0028 C3F8087B 		str	r7, [r3, #2824]
  79              		.loc 1 136 52 is_stmt 1 view .LVU15
  80              	.LVL3:
  81              		.loc 1 136 15 view .LVU16
  82              		.loc 1 136 35 is_stmt 0 view .LVU17
  83 002c 0B68     		ldr	r3, [r1]
  84              		.loc 1 136 3 view .LVU18
  85 002e 9B68     		ldr	r3, [r3, #8]
  86 0030 9C42     		cmp	r4, r3
  87 0032 21D8     		bhi	.L17
  88              	.LVL4:
  89              	.L8:
  90              		.loc 1 140 5 is_stmt 1 view .LVU19
  91 0034 00EB4415 		add	r5, r0, r4, lsl #5
  92 0038 6301     		lsls	r3, r4, #5
  93              		.loc 1 140 21 is_stmt 0 view .LVU20
  94 003a D5F80029 		ldr	r2, [r5, #2304]
  95              		.loc 1 140 8 view .LVU21
  96 003e 002A     		cmp	r2, #0
  97 0040 12DB     		blt	.L18
  98              		.loc 1 147 7 is_stmt 1 view .LVU22
  99              		.loc 1 147 27 is_stmt 0 view .LVU23
 100 0042 C5F80069 		str	r6, [r5, #2304]
 101              	.L4:
 102              		.loc 1 148 5 is_stmt 1 view .LVU24
 103              		.loc 1 148 26 is_stmt 0 view .LVU25
 104 0046 C218     		adds	r2, r0, r3
 105 0048 C2F81069 		str	r6, [r2, #2320]
 106              		.loc 1 149 5 is_stmt 1 view .LVU26
 107              		.loc 1 149 25 is_stmt 0 view .LVU27
 108 004c C2F80879 		str	r7, [r2, #2312]
 109              		.loc 1 155 5 is_stmt 1 view .LVU28
 110              		.loc 1 155 21 is_stmt 0 view .LVU29
 111 0050 D5F800CB 		ldr	ip, [r5, #2816]
 112              		.loc 1 155 8 view .LVU30
 113 0054 BCF1000F 		cmp	ip, #0
 114 0058 E0DA     		bge	.L5
ARM GAS  /tmp/ccqWEI8l.s 			page 3


 115              		.loc 1 156 7 is_stmt 1 view .LVU31
 116              		.loc 1 156 27 is_stmt 0 view .LVU32
 117 005a C5F800EB 		str	lr, [r5, #2816]
 118              		.loc 1 158 7 is_stmt 1 view .LVU33
 119              	.L6:
 120              		.loc 1 159 9 view .LVU34
 121              		.loc 1 158 13 view .LVU35
 122              		.loc 1 158 27 is_stmt 0 view .LVU36
 123 005e D2F8085B 		ldr	r5, [r2, #2824]
 124              		.loc 1 158 13 view .LVU37
 125 0062 ED06     		lsls	r5, r5, #27
 126 0064 FBD5     		bpl	.L6
 127 0066 DBE7     		b	.L7
 128              	.L18:
 129              		.loc 1 141 7 is_stmt 1 view .LVU38
 130              		.loc 1 141 27 is_stmt 0 view .LVU39
 131 0068 C5F800E9 		str	lr, [r5, #2304]
 132              		.loc 1 143 7 is_stmt 1 view .LVU40
 133              		.loc 1 143 27 is_stmt 0 view .LVU41
 134 006c AC46     		mov	ip, r5
 135              	.L3:
 136              		.loc 1 144 9 is_stmt 1 view .LVU42
 137              		.loc 1 143 13 view .LVU43
 138              		.loc 1 143 27 is_stmt 0 view .LVU44
 139 006e DCF80829 		ldr	r2, [ip, #2312]
 140              		.loc 1 143 13 view .LVU45
 141 0072 9207     		lsls	r2, r2, #30
 142 0074 FBD5     		bpl	.L3
 143 0076 E6E7     		b	.L4
 144              	.L17:
 145              		.loc 1 166 3 is_stmt 1 view .LVU46
 146              		.loc 1 166 18 is_stmt 0 view .LVU47
 147 0078 4FF00113 		mov	r3, #65537
 148 007c C0F81C38 		str	r3, [r0, #2076]
 149              		.loc 1 167 1 view .LVU48
 150 0080 044B     		ldr	r3, .L20
 151 0082 1A68     		ldr	r2, [r3]
 152 0084 019B     		ldr	r3, [sp, #4]
 153 0086 5A40     		eors	r2, r3, r2
 154 0088 01D1     		bne	.L19
 155 008a 03B0     		add	sp, sp, #12
 156              		.cfi_remember_state
 157              		.cfi_def_cfa_offset 20
 158              		@ sp needed
 159 008c F0BD     		pop	{r4, r5, r6, r7, pc}
 160              	.LVL5:
 161              	.L19:
 162              		.cfi_restore_state
 163              		.loc 1 167 1 view .LVU49
 164 008e FFF7FEFF 		bl	__stack_chk_fail
 165              	.LVL6:
 166              	.L21:
 167 0092 00BF     		.align	2
 168              	.L20:
 169 0094 00000000 		.word	.LC0
 170              		.cfi_endproc
 171              	.LFE293:
ARM GAS  /tmp/ccqWEI8l.s 			page 4


 172              		.size	otg_disable_ep.isra.0, .-otg_disable_ep.isra.0
 173              		.section	.rodata.usb_lld_pump.str1.4,"aMS",%progbits,1
 174              		.align	2
 175              	.LC1:
 176 0000 7573625F 		.ascii	"usb_lld_pump\000"
 176      6C6C645F 
 176      70756D70 
 176      00
 177              		.section	.rodata.usb_lld_pump.cst4,"aM",%progbits,4
 178              		.align	2
 179              	.LC2:
 180 0000 00000000 		.word	__stack_chk_guard
 181              		.section	.text.usb_lld_pump,"ax",%progbits
 182              		.align	1
 183              		.p2align 4,,15
 184              		.global	usb_lld_pump
 185              		.syntax unified
 186              		.thumb
 187              		.thumb_func
 188              		.fpu fpv4-sp-d16
 189              		.type	usb_lld_pump, %function
 190              	usb_lld_pump:
 191              	.LVL7:
 192              	.LFB292:
 193              		.loc 1 1294 28 is_stmt 1 view -0
 194              		.cfi_startproc
 195              		@ args = 0, pretend = 0, frame = 24
 196              		@ frame_needed = 0, uses_anonymous_args = 0
 197              		.loc 1 1294 28 is_stmt 0 view .LVU51
 198 0000 2DE9F04F 		push	{r4, r5, r6, r7, r8, r9, r10, fp, lr}
 199              		.cfi_def_cfa_offset 36
 200              		.cfi_offset 4, -36
 201              		.cfi_offset 5, -32
 202              		.cfi_offset 6, -28
 203              		.cfi_offset 7, -24
 204              		.cfi_offset 8, -20
 205              		.cfi_offset 9, -16
 206              		.cfi_offset 10, -12
 207              		.cfi_offset 11, -8
 208              		.cfi_offset 14, -4
 209              	.LBB426:
 210              	.LBB427:
 211              		.file 2 ".//ChibiOS//os/rt/include/chregistry.h"
 212              		.loc 2 135 11 view .LVU52
 213 0004 DFF80CA2 		ldr	r10, .L129+8
 214              	.LBE427:
 215              	.LBE426:
 216              		.loc 1 1294 28 view .LVU53
 217 0008 804B     		ldr	r3, .L129
 218              	.LBB431:
 219              	.LBB428:
 220              		.loc 2 135 11 view .LVU54
 221 000a DAF81820 		ldr	r2, [r10, #24]
 222              		.loc 2 135 30 view .LVU55
 223 000e 8049     		ldr	r1, .L129+4
 224              	.LBE428:
 225              	.LBE431:
ARM GAS  /tmp/ccqWEI8l.s 			page 5


 226              		.loc 1 1294 28 view .LVU56
 227 0010 2DED028B 		vpush.64	{d8}
 228              		.cfi_def_cfa_offset 44
 229              		.cfi_offset 80, -44
 230              		.cfi_offset 81, -40
 231 0014 87B0     		sub	sp, sp, #28
 232              		.cfi_def_cfa_offset 72
 233              		.loc 1 1294 28 view .LVU57
 234 0016 1B68     		ldr	r3, [r3]
 235 0018 0593     		str	r3, [sp, #20]
 236 001a 4FF00003 		mov	r3,#0
 237              		.loc 1 1295 3 is_stmt 1 view .LVU58
 238              		.loc 1 1296 16 is_stmt 0 view .LVU59
 239 001e 056D     		ldr	r5, [r0, #80]
 240              	.LBB432:
 241              	.LBB429:
 242              		.loc 2 135 30 view .LVU60
 243 0020 9161     		str	r1, [r2, #24]
 244              	.LBE429:
 245              	.LBE432:
 246              		.loc 1 1294 28 view .LVU61
 247 0022 0746     		mov	r7, r0
 248              	.LVL8:
 249              		.loc 1 1296 3 is_stmt 1 view .LVU62
 250              		.loc 1 1299 3 view .LVU63
 251              	.LBB433:
 252              	.LBI426:
 253              		.loc 2 132 20 view .LVU64
 254              	.LBB430:
 255              		.loc 2 135 3 view .LVU65
 256              		.loc 2 135 3 is_stmt 0 view .LVU66
 257              	.LBE430:
 258              	.LBE433:
 259              		.loc 1 1301 3 is_stmt 1 view .LVU67
 260              	.LBB434:
 261              	.LBI434:
 262              		.file 3 ".//ChibiOS//os/hal/osal/rt/osal.h"
 263              		.loc 3 445 20 view .LVU68
 264              	.LBB435:
 265              		.loc 3 447 3 view .LVU69
 266              	.LBB436:
 267              	.LBI436:
 268              		.file 4 ".//ChibiOS//os/rt/include/chsys.h"
 269              		.loc 4 346 20 view .LVU70
 270              	.LBB437:
 271              		.loc 4 348 3 view .LVU71
 272              	.LBB438:
 273              	.LBI438:
 274              		.file 5 ".//ChibiOS//os/rt/ports/ARMCMx/chcore_v7m.h"
 275              		.loc 5 444 20 view .LVU72
 276              	.LBE438:
 277              	.LBE437:
 278              	.LBE436:
 279              	.LBE435:
 280              	.LBE434:
 281              		.loc 5 447 3 view .LVU73
 282              	.LBB445:
ARM GAS  /tmp/ccqWEI8l.s 			page 6


 283              	.LBB444:
 284              	.LBB443:
 285              	.LBB442:
 286              	.LBB441:
 287              	.LBB439:
 288              	.LBI439:
 289              		.file 6 ".//ChibiOS//os/ext/CMSIS/include/core_cmFunc.h"
 290              		.loc 6 544 57 view .LVU74
 291              	.LBB440:
 292              		.loc 6 546 3 view .LVU75
 293 0024 2023     		movs	r3, #32
 294              		.syntax unified
 295              	@ 546 ".//ChibiOS//os/ext/CMSIS/include/core_cmFunc.h" 1
 296 0026 83F31188 		MSR basepri, r3
 297              	@ 0 "" 2
 298              	.LVL9:
 299              		.loc 6 546 3 is_stmt 0 view .LVU76
 300              		.thumb
 301              		.syntax unified
 302              	.LBE440:
 303              	.LBE439:
 304              	.LBE441:
 305              		.loc 4 349 3 is_stmt 1 view .LVU77
 306 002a FFF7FEFF 		bl	_stats_start_measure_crit_thd
 307              	.LVL10:
 308              		.loc 4 350 3 view .LVU78
 309 002e FFF7FEFF 		bl	_dbg_check_lock
 310              	.LVL11:
 311 0032 07F16003 		add	r3, r7, #96
 312 0036 08EE103A 		vmov	s16, r3	@ int
 313              	.LBE442:
 314              	.LBE443:
 315              	.LBE444:
 316              	.LBE445:
 317              	.LBB446:
 318              	.LBB447:
 319              	.LBB448:
 320              	.LBB449:
 321              	.LBB450:
 322              	.LBB451:
 323              	.LBB452:
 324              		.loc 6 546 3 is_stmt 0 view .LVU79
 325 003a B946     		mov	r9, r7
 326              	.LVL12:
 327              	.L80:
 328              		.loc 6 546 3 view .LVU80
 329              	.LBE452:
 330              	.LBE451:
 331              	.LBE450:
 332              	.LBE449:
 333              	.LBE448:
 334              	.LBE447:
 335              	.LBE446:
 336              		.loc 1 1302 3 is_stmt 1 view .LVU81
 337              	.LBB726:
 338              		.loc 1 1303 5 view .LVU82
 339              		.loc 1 1304 5 view .LVU83
ARM GAS  /tmp/ccqWEI8l.s 			page 7


 340              		.loc 1 1307 5 view .LVU84
 341              		.loc 1 1307 8 is_stmt 0 view .LVU85
 342 003c 99F80030 		ldrb	r3, [r9]	@ zero_extendqisi2
 343 0040 012B     		cmp	r3, #1
 344 0042 05D0     		beq	.L23
 345              		.loc 1 1307 35 discriminator 1 view .LVU86
 346 0044 D9F85C30 		ldr	r3, [r9, #92]
 347 0048 53B9     		cbnz	r3, .L24
 348              		.loc 1 1308 42 view .LVU87
 349 004a 6B69     		ldr	r3, [r5, #20]
 350              		.loc 1 1308 33 view .LVU88
 351 004c DA06     		lsls	r2, r3, #27
 352 004e 07D4     		bmi	.L24
 353              	.L23:
 354              		.loc 1 1309 7 is_stmt 1 view .LVU89
 355              		.loc 1 1309 21 is_stmt 0 view .LVU90
 356 0050 AB69     		ldr	r3, [r5, #24]
 357 0052 43F01003 		orr	r3, r3, #16
 358              	.LBB463:
 359              	.LBB464:
 360              		.loc 3 642 10 view .LVU91
 361 0056 18EE100A 		vmov	r0, s16	@ int
 362              	.LBE464:
 363              	.LBE463:
 364              		.loc 1 1309 21 view .LVU92
 365 005a AB61     		str	r3, [r5, #24]
 366              		.loc 1 1310 7 is_stmt 1 view .LVU93
 367              	.LBB466:
 368              	.LBI463:
 369              		.loc 3 640 21 view .LVU94
 370              	.LBB465:
 371              		.loc 3 642 3 view .LVU95
 372              		.loc 3 642 10 is_stmt 0 view .LVU96
 373 005c FFF7FEFF 		bl	chThdSuspendS
 374              	.LVL13:
 375              	.L24:
 376              	.LBE465:
 377              	.LBE466:
 378              		.loc 1 1312 5 is_stmt 1 view .LVU97
 379              	.LBB467:
 380              	.LBI447:
 381              		.loc 3 456 20 view .LVU98
 382              	.LBE467:
 383              	.LBE726:
 384              		.loc 3 458 3 view .LVU99
 385              	.LBB727:
 386              	.LBB468:
 387              	.LBB460:
 388              	.LBI448:
 389              		.loc 4 358 20 view .LVU100
 390              	.LBB457:
 391              		.loc 4 360 3 view .LVU101
 392 0060 FFF7FEFF 		bl	_dbg_check_unlock
 393              	.LVL14:
 394              		.loc 4 361 3 view .LVU102
 395 0064 FFF7FEFF 		bl	_stats_stop_measure_crit_thd
 396              	.LVL15:
ARM GAS  /tmp/ccqWEI8l.s 			page 8


 397              		.loc 4 367 3 view .LVU103
 398              		.loc 4 367 3 view .LVU104
 399              		.loc 4 367 3 view .LVU105
 400 0068 DAF80030 		ldr	r3, [r10]
 401 006c 5345     		cmp	r3, r10
 402 006e 06D0     		beq	.L25
 403 0070 DAF81820 		ldr	r2, [r10, #24]
 404 0074 9B68     		ldr	r3, [r3, #8]
 405 0076 9268     		ldr	r2, [r2, #8]
 406 0078 9A42     		cmp	r2, r3
 407 007a C0F0D081 		bcc	.L121
 408              	.L25:
 409              		.loc 4 367 3 view .LVU106
 410              		.loc 4 371 3 view .LVU107
 411              	.LBB455:
 412              	.LBI450:
 413              		.loc 5 458 20 view .LVU108
 414              	.LBE455:
 415              	.LBE457:
 416              	.LBE460:
 417              	.LBE468:
 418              	.LBE727:
 419              		.loc 5 461 3 view .LVU109
 420              	.LVL16:
 421              	.LBB728:
 422              	.LBB469:
 423              	.LBB461:
 424              	.LBB458:
 425              	.LBB456:
 426              	.LBB454:
 427              	.LBI451:
 428              		.loc 6 544 57 view .LVU110
 429              	.LBB453:
 430              		.loc 6 546 3 view .LVU111
 431 007e 0023     		movs	r3, #0
 432              		.syntax unified
 433              	@ 546 ".//ChibiOS//os/ext/CMSIS/include/core_cmFunc.h" 1
 434 0080 83F31188 		MSR basepri, r3
 435              	@ 0 "" 2
 436              	.LVL17:
 437              		.loc 6 546 3 is_stmt 0 view .LVU112
 438              		.thumb
 439              		.syntax unified
 440              	.LBE453:
 441              	.LBE454:
 442              	.LBE456:
 443              	.LBE458:
 444              	.LBE461:
 445              	.LBE469:
 446              		.loc 1 1315 18 is_stmt 1 view .LVU113
 447              		.loc 1 1315 13 is_stmt 0 view .LVU114
 448 0084 9B46     		mov	fp, r3
 449              	.LVL18:
 450              	.L28:
 451              		.loc 1 1318 13 is_stmt 1 view .LVU115
 452              		.loc 1 1318 18 is_stmt 0 view .LVU116
 453 0086 6B69     		ldr	r3, [r5, #20]
ARM GAS  /tmp/ccqWEI8l.s 			page 9


 454              		.loc 1 1318 13 view .LVU117
 455 0088 DB06     		lsls	r3, r3, #27
 456 008a 58D5     		bpl	.L122
 457              	.L49:
 458              		.loc 1 1319 9 is_stmt 1 view .LVU118
 459              	.LVL19:
 460              	.LBB470:
 461              	.LBI470:
 462              		.loc 1 434 13 view .LVU119
 463              	.LBB471:
 464              		.loc 1 435 3 view .LVU120
 465              		.loc 1 437 3 view .LVU121
 466              		.loc 1 437 13 is_stmt 0 view .LVU122
 467 008c D9F85020 		ldr	r2, [r9, #80]
 468              		.loc 1 437 7 view .LVU123
 469 0090 136A     		ldr	r3, [r2, #32]
 470              	.LVL20:
 471              		.loc 1 438 3 is_stmt 1 view .LVU124
 472              		.loc 1 438 15 is_stmt 0 view .LVU125
 473 0092 03F4F011 		and	r1, r3, #1966080
 474              		.loc 1 438 3 view .LVU126
 475 0096 B1F5802F 		cmp	r1, #262144
 476 009a 1DD0     		beq	.L27
 477 009c B1F5402F 		cmp	r1, #786432
 478 00a0 F1D1     		bne	.L28
 479              		.loc 1 442 5 is_stmt 1 view .LVU127
 480              	.LVL21:
 481              		.loc 1 443 5 view .LVU128
 482              		.loc 1 444 5 view .LVU129
 483              		.loc 1 443 9 is_stmt 0 view .LVU130
 484 00a2 03F00F01 		and	r1, r3, #15
 485              	.LVL22:
 486              		.loc 1 444 58 view .LVU131
 487 00a6 09EB8101 		add	r1, r9, r1, lsl #2
 488              	.LVL23:
 489              		.loc 1 442 9 view .LVU132
 490 00aa C3F30A13 		ubfx	r3, r3, #4, #11
 491              	.LVL24:
 492              		.loc 1 444 5 view .LVU133
 493 00ae C968     		ldr	r1, [r1, #12]
 494              	.LBB472:
 495              	.LBB473:
 496              		.loc 1 356 10 view .LVU134
 497 00b0 0333     		adds	r3, r3, #3
 498              		.loc 1 358 9 view .LVU135
 499 00b2 9B08     		lsrs	r3, r3, #2
 500              	.LBE473:
 501              	.LBE472:
 502              		.loc 1 444 5 view .LVU136
 503 00b4 086A     		ldr	r0, [r1, #32]
 504              	.LVL25:
 505              	.LBB479:
 506              	.LBI472:
 507              		.loc 1 351 13 is_stmt 1 view .LVU137
 508              	.LBB478:
 509              		.loc 1 356 3 view .LVU138
 510              		.loc 1 357 3 view .LVU139
ARM GAS  /tmp/ccqWEI8l.s 			page 10


 511              		.loc 1 358 3 view .LVU140
 512              		.loc 1 358 9 view .LVU141
 513 00b6 E6D0     		beq	.L28
 514 00b8 02F58052 		add	r2, r2, #4096
 515              	.LVL26:
 516              		.loc 1 357 7 is_stmt 0 view .LVU142
 517 00bc 0221     		movs	r1, #2
 518 00be 04E0     		b	.L29
 519              	.LVL27:
 520              	.L31:
 521              	.LBB474:
 522              		.loc 1 363 37 view .LVU143
 523 00c0 40F8044B 		str	r4, [r0], #4
 524              	.LVL28:
 525              		.loc 1 364 7 is_stmt 1 view .LVU144
 526              		.loc 1 365 7 view .LVU145
 527              		.loc 1 365 10 is_stmt 0 view .LVU146
 528 00c4 0139     		subs	r1, r1, #1
 529              	.LVL29:
 530              	.L33:
 531              		.loc 1 367 5 is_stmt 1 view .LVU147
 532              		.loc 1 367 5 is_stmt 0 view .LVU148
 533              	.LBE474:
 534              		.loc 1 358 9 is_stmt 1 view .LVU149
 535 00c6 013B     		subs	r3, r3, #1
 536              	.LVL30:
 537              		.loc 1 358 9 is_stmt 0 view .LVU150
 538 00c8 DDD0     		beq	.L28
 539              	.LVL31:
 540              	.L29:
 541              	.LBB475:
 542              		.loc 1 359 5 is_stmt 1 view .LVU151
 543              		.loc 1 359 14 is_stmt 0 view .LVU152
 544 00ca 1468     		ldr	r4, [r2]
 545              	.LVL32:
 546              		.loc 1 360 5 is_stmt 1 view .LVU153
 547              		.loc 1 363 7 view .LVU154
 548              		.loc 1 360 8 is_stmt 0 view .LVU155
 549 00cc 0029     		cmp	r1, #0
 550 00ce F7D1     		bne	.L31
 551              	.LVL33:
 552              		.loc 1 367 5 is_stmt 1 view .LVU156
 553              		.loc 1 367 5 is_stmt 0 view .LVU157
 554              	.LBE475:
 555              		.loc 1 358 9 is_stmt 1 view .LVU158
 556              		.loc 1 358 9 is_stmt 0 view .LVU159
 557 00d0 013B     		subs	r3, r3, #1
 558              	.LVL34:
 559              	.LBB476:
 560              		.loc 1 359 5 is_stmt 1 view .LVU160
 561              	.LBE476:
 562              		.loc 1 358 9 is_stmt 0 view .LVU161
 563 00d2 D8D0     		beq	.L28
 564              	.LBB477:
 565              		.loc 1 359 14 view .LVU162
 566 00d4 1468     		ldr	r4, [r2]
 567              	.LVL35:
ARM GAS  /tmp/ccqWEI8l.s 			page 11


 568              		.loc 1 360 5 is_stmt 1 view .LVU163
 569 00d6 F6E7     		b	.L33
 570              	.LVL36:
 571              	.L27:
 572              		.loc 1 360 5 is_stmt 0 view .LVU164
 573              	.LBE477:
 574              	.LBE478:
 575              	.LBE479:
 576              		.loc 1 448 5 is_stmt 1 view .LVU165
 577              		.loc 1 449 9 is_stmt 0 view .LVU166
 578 00d8 03F00F07 		and	r7, r3, #15
 579 00dc 09EB8707 		add	r7, r9, r7, lsl #2
 580              		.loc 1 448 9 view .LVU167
 581 00e0 C3F30A14 		ubfx	r4, r3, #4, #11
 582              	.LVL37:
 583              		.loc 1 449 5 is_stmt 1 view .LVU168
 584              		.loc 1 450 5 view .LVU169
 585              		.loc 1 450 22 is_stmt 0 view .LVU170
 586 00e4 FB68     		ldr	r3, [r7, #12]
 587              	.LVL38:
 588              		.loc 1 450 22 view .LVU171
 589 00e6 9E69     		ldr	r6, [r3, #24]
 590              		.loc 1 450 8 view .LVU172
 591 00e8 3378     		ldrb	r3, [r6]	@ zero_extendqisi2
 592 00ea 002B     		cmp	r3, #0
 593 00ec 41D1     		bne	.L123
 594              		.loc 1 457 7 is_stmt 1 view .LVU173
 595              	.LBB480:
 596              	.LBB481:
 597              		.loc 1 357 14 is_stmt 0 view .LVU174
 598 00ee D6E90131 		ldrd	r3, r1, [r6, #4]
 599 00f2 0333     		adds	r3, r3, #3
 600 00f4 591A     		subs	r1, r3, r1
 601              		.loc 1 356 10 view .LVU175
 602 00f6 E31C     		adds	r3, r4, #3
 603              		.loc 1 358 9 view .LVU176
 604 00f8 9B08     		lsrs	r3, r3, #2
 605              	.LBE481:
 606              	.LBE480:
 607              		.loc 1 457 7 view .LVU177
 608 00fa F068     		ldr	r0, [r6, #12]
 609              	.LVL39:
 610              	.LBB487:
 611              	.LBI480:
 612              		.loc 1 351 13 is_stmt 1 view .LVU178
 613              	.LBB486:
 614              		.loc 1 356 3 view .LVU179
 615              		.loc 1 357 3 view .LVU180
 616              		.loc 1 357 7 is_stmt 0 view .LVU181
 617 00fc 4FEA9101 		lsr	r1, r1, #2
 618              	.LVL40:
 619              		.loc 1 358 3 is_stmt 1 view .LVU182
 620              		.loc 1 358 9 view .LVU183
 621 0100 13D0     		beq	.L44
 622 0102 02F58052 		add	r2, r2, #4096
 623              	.LVL41:
 624              		.loc 1 358 9 is_stmt 0 view .LVU184
ARM GAS  /tmp/ccqWEI8l.s 			page 12


 625 0106 05E0     		b	.L48
 626              	.LVL42:
 627              	.L45:
 628              		.loc 1 358 9 view .LVU185
 629 0108 013B     		subs	r3, r3, #1
 630              	.LVL43:
 631              	.LBB482:
 632              		.loc 1 363 37 view .LVU186
 633 010a 40F8046B 		str	r6, [r0], #4
 634              	.LVL44:
 635              		.loc 1 364 7 is_stmt 1 view .LVU187
 636              		.loc 1 365 7 view .LVU188
 637              		.loc 1 365 10 is_stmt 0 view .LVU189
 638 010e 01F1FF31 		add	r1, r1, #-1
 639              	.LVL45:
 640              		.loc 1 367 5 is_stmt 1 view .LVU190
 641              		.loc 1 367 5 is_stmt 0 view .LVU191
 642              	.LBE482:
 643              		.loc 1 358 9 is_stmt 1 view .LVU192
 644 0112 07D0     		beq	.L119
 645              	.LVL46:
 646              	.L48:
 647              	.LBB483:
 648              		.loc 1 359 5 view .LVU193
 649              		.loc 1 363 7 view .LVU194
 650              		.loc 1 359 14 is_stmt 0 view .LVU195
 651 0114 1668     		ldr	r6, [r2]
 652              	.LVL47:
 653              		.loc 1 360 5 is_stmt 1 view .LVU196
 654              		.loc 1 360 8 is_stmt 0 view .LVU197
 655 0116 0029     		cmp	r1, #0
 656 0118 F6D1     		bne	.L45
 657              	.LVL48:
 658              		.loc 1 367 5 is_stmt 1 view .LVU198
 659              		.loc 1 367 5 is_stmt 0 view .LVU199
 660              	.LBE483:
 661              		.loc 1 358 9 is_stmt 1 view .LVU200
 662              		.loc 1 358 9 is_stmt 0 view .LVU201
 663 011a 013B     		subs	r3, r3, #1
 664              	.LVL49:
 665              	.LBB484:
 666              		.loc 1 359 5 is_stmt 1 view .LVU202
 667              	.LBE484:
 668              		.loc 1 358 9 is_stmt 0 view .LVU203
 669 011c 02D0     		beq	.L119
 670 011e 013B     		subs	r3, r3, #1
 671              	.LVL50:
 672              	.LBB485:
 673              		.loc 1 359 14 view .LVU204
 674 0120 1668     		ldr	r6, [r2]
 675              	.LVL51:
 676              		.loc 1 360 5 is_stmt 1 view .LVU205
 677              		.loc 1 367 5 view .LVU206
 678              		.loc 1 367 5 is_stmt 0 view .LVU207
 679              	.LBE485:
 680              		.loc 1 358 9 is_stmt 1 view .LVU208
 681 0122 F7D1     		bne	.L48
ARM GAS  /tmp/ccqWEI8l.s 			page 13


 682              	.LVL52:
 683              	.L119:
 684              		.loc 1 358 9 is_stmt 0 view .LVU209
 685 0124 FB68     		ldr	r3, [r7, #12]
 686 0126 9E69     		ldr	r6, [r3, #24]
 687 0128 F068     		ldr	r0, [r6, #12]
 688              	.LVL53:
 689              	.L44:
 690              		.loc 1 358 9 view .LVU210
 691              	.LBE486:
 692              	.LBE487:
 693              		.loc 1 462 7 is_stmt 1 view .LVU211
 694              		.loc 1 462 51 is_stmt 0 view .LVU212
 695 012a 2044     		add	r0, r0, r4
 696 012c F060     		str	r0, [r6, #12]
 697              	.L43:
 698              		.loc 1 464 5 is_stmt 1 view .LVU213
 699              		.loc 1 464 18 is_stmt 0 view .LVU214
 700 012e FB68     		ldr	r3, [r7, #12]
 701 0130 9A69     		ldr	r2, [r3, #24]
 702              		.loc 1 464 37 view .LVU215
 703 0132 9368     		ldr	r3, [r2, #8]
 704 0134 2344     		add	r3, r3, r4
 705 0136 9360     		str	r3, [r2, #8]
 706              		.loc 1 465 5 is_stmt 1 view .LVU216
 707              	.LVL54:
 708              		.loc 1 465 5 is_stmt 0 view .LVU217
 709              	.LBE471:
 710              	.LBE470:
 711              		.loc 1 1318 13 is_stmt 1 view .LVU218
 712              		.loc 1 1318 18 is_stmt 0 view .LVU219
 713 0138 6B69     		ldr	r3, [r5, #20]
 714              		.loc 1 1318 13 view .LVU220
 715 013a DB06     		lsls	r3, r3, #27
 716 013c A6D4     		bmi	.L49
 717              	.L122:
 718              		.loc 1 1322 7 is_stmt 1 view .LVU221
 719              		.loc 1 1323 27 is_stmt 0 view .LVU222
 720 013e D9F85C30 		ldr	r3, [r9, #92]
 721              		.loc 1 1322 19 view .LVU223
 722 0142 0122     		movs	r2, #1
 723 0144 02FA0BF2 		lsl	r2, r2, fp
 724              		.loc 1 1323 10 view .LVU224
 725 0148 1A42     		tst	r2, r3
 726              		.loc 1 1322 19 view .LVU225
 727 014a 0292     		str	r2, [sp, #8]
 728              	.LVL55:
 729              		.loc 1 1323 7 is_stmt 1 view .LVU226
 730              		.loc 1 1323 10 is_stmt 0 view .LVU227
 731 014c 64D1     		bne	.L114
 732 014e 0BF10103 		add	r3, fp, #1
 733 0152 0193     		str	r3, [sp, #4]
 734              	.LVL56:
 735              	.L50:
 736              		.loc 1 1315 56 is_stmt 1 discriminator 2 view .LVU228
 737              		.loc 1 1315 39 is_stmt 0 discriminator 2 view .LVU229
 738 0154 D9F85430 		ldr	r3, [r9, #84]
ARM GAS  /tmp/ccqWEI8l.s 			page 14


 739              		.loc 1 1315 58 discriminator 2 view .LVU230
 740 0158 9DF804B0 		ldrb	fp, [sp, #4]	@ zero_extendqisi2
 741              	.LVL57:
 742              		.loc 1 1315 18 is_stmt 1 discriminator 2 view .LVU231
 743              		.loc 1 1315 5 is_stmt 0 discriminator 2 view .LVU232
 744 015c 9B68     		ldr	r3, [r3, #8]
 745 015e 9B45     		cmp	fp, r3
 746 0160 91D9     		bls	.L28
 747              		.loc 1 1347 5 is_stmt 1 view .LVU233
 748              	.LBB543:
 749              	.LBI543:
 750              		.loc 3 445 20 view .LVU234
 751              	.LBB544:
 752              		.loc 3 447 3 view .LVU235
 753              	.LBB545:
 754              	.LBI545:
 755              		.loc 4 346 20 view .LVU236
 756              	.LBB546:
 757              		.loc 4 348 3 view .LVU237
 758              	.LBB547:
 759              	.LBI547:
 760              		.loc 5 444 20 view .LVU238
 761              	.LBE547:
 762              	.LBE546:
 763              	.LBE545:
 764              	.LBE544:
 765              	.LBE543:
 766              	.LBE728:
 767              		.loc 5 447 3 view .LVU239
 768              	.LVL58:
 769              	.LBB729:
 770              	.LBB554:
 771              	.LBB553:
 772              	.LBB552:
 773              	.LBB551:
 774              	.LBB550:
 775              	.LBB548:
 776              	.LBI548:
 777              		.loc 6 544 57 view .LVU240
 778              	.LBB549:
 779              		.loc 6 546 3 view .LVU241
 780 0162 2023     		movs	r3, #32
 781              		.syntax unified
 782              	@ 546 ".//ChibiOS//os/ext/CMSIS/include/core_cmFunc.h" 1
 783 0164 83F31188 		MSR basepri, r3
 784              	@ 0 "" 2
 785              	.LVL59:
 786              		.loc 6 546 3 is_stmt 0 view .LVU242
 787              		.thumb
 788              		.syntax unified
 789              	.LBE549:
 790              	.LBE548:
 791              	.LBE550:
 792              		.loc 4 349 3 is_stmt 1 view .LVU243
 793 0168 FFF7FEFF 		bl	_stats_start_measure_crit_thd
 794              	.LVL60:
 795              		.loc 4 350 3 view .LVU244
ARM GAS  /tmp/ccqWEI8l.s 			page 15


 796 016c FFF7FEFF 		bl	_dbg_check_lock
 797              	.LVL61:
 798              	.LBE551:
 799              	.LBE552:
 800              		.loc 3 448 1 is_stmt 0 view .LVU245
 801 0170 64E7     		b	.L80
 802              	.LVL62:
 803              	.L123:
 804              		.loc 3 448 1 view .LVU246
 805              	.LBE553:
 806              	.LBE554:
 807              	.LBB555:
 808              	.LBB536:
 809              		.loc 1 452 7 is_stmt 1 view .LVU247
 810 0172 F668     		ldr	r6, [r6, #12]
 811              	.LVL63:
 812              	.LBB488:
 813              	.LBI488:
 814              		.loc 1 380 13 view .LVU248
 815              	.LBB489:
 816              		.loc 1 383 3 view .LVU249
 817              		.loc 1 385 3 view .LVU250
 818              		.loc 1 386 3 view .LVU251
 819              		.loc 1 386 9 view .LVU252
 820 0174 3CB3     		cbz	r4, .L35
 821 0176 7169     		ldr	r1, [r6, #20]
 822 0178 02F58052 		add	r2, r2, #4096
 823              	.LVL64:
 824              		.loc 1 386 9 is_stmt 0 view .LVU253
 825 017c A446     		mov	ip, r4
 826              	.LVL65:
 827              	.L41:
 828              	.LBB490:
 829              		.loc 1 387 5 is_stmt 1 view .LVU254
 830              		.loc 1 388 5 view .LVU255
 831              		.loc 1 390 5 view .LVU256
 832              		.loc 1 390 8 is_stmt 0 view .LVU257
 833 017e BCF1030F 		cmp	ip, #3
 834 0182 07D9     		bls	.L36
 835              	.LVL66:
 836              	.L124:
 837              	.LBB491:
 838              		.loc 1 391 7 is_stmt 1 view .LVU258
 839              		.loc 1 392 7 view .LVU259
 840              		.loc 1 394 7 view .LVU260
 841              		.loc 1 395 7 view .LVU261
 842              		.loc 1 395 7 is_stmt 0 view .LVU262
 843              	.LBE491:
 844              	.LBE490:
 845              	.LBE489:
 846              	.LBE488:
 847              	.LBE536:
 848              	.LBE555:
 849              	.LBE729:
 850              		.loc 1 330 3 is_stmt 1 view .LVU263
 851              		.loc 1 330 9 view .LVU264
 852              		.loc 1 338 3 view .LVU265
ARM GAS  /tmp/ccqWEI8l.s 			page 16


 853              	.LBB730:
 854              	.LBB556:
 855              	.LBB537:
 856              	.LBB530:
 857              	.LBB524:
 858              	.LBB493:
 859              	.LBB492:
 860              		.loc 1 396 7 view .LVU266
 861              		.loc 1 396 10 is_stmt 0 view .LVU267
 862 0184 3369     		ldr	r3, [r6, #16]
 863 0186 8B42     		cmp	r3, r1
 864 0188 04D8     		bhi	.L36
 865              		.loc 1 397 9 is_stmt 1 view .LVU268
 866              		.loc 1 397 27 is_stmt 0 view .LVU269
 867 018a F168     		ldr	r1, [r6, #12]
 868              		.loc 1 397 22 view .LVU270
 869 018c 7161     		str	r1, [r6, #20]
 870              		.loc 1 398 9 is_stmt 1 view .LVU271
 871              		.loc 1 398 9 is_stmt 0 view .LVU272
 872              	.LBE492:
 873              	.LBE493:
 874              		.loc 1 386 9 is_stmt 1 view .LVU273
 875              	.LBB494:
 876              		.loc 1 387 5 view .LVU274
 877              		.loc 1 388 5 view .LVU275
 878              	.LVL67:
 879              		.loc 1 390 5 view .LVU276
 880              		.loc 1 390 8 is_stmt 0 view .LVU277
 881 018e BCF1030F 		cmp	ip, #3
 882 0192 F7D8     		bhi	.L124
 883              	.LVL68:
 884              	.L36:
 885              		.loc 1 404 5 is_stmt 1 view .LVU278
 886              		.loc 1 408 5 view .LVU279
 887              		.loc 1 408 7 is_stmt 0 view .LVU280
 888 0194 D2F800E0 		ldr	lr, [r2]
 889              	.LVL69:
 890              		.loc 1 409 5 is_stmt 1 view .LVU281
 891              		.loc 1 410 5 view .LVU282
 892              		.loc 1 410 11 view .LVU283
 893              		.loc 1 408 7 is_stmt 0 view .LVU284
 894 0198 0023     		movs	r3, #0
 895              	.LVL70:
 896              	.L40:
 897              		.loc 1 411 7 is_stmt 1 view .LVU285
 898              		.loc 1 413 9 view .LVU286
 899              		.loc 1 414 7 view .LVU287
 900              		.loc 1 415 7 view .LVU288
 901              		.loc 1 410 11 view .LVU289
 902              		.loc 1 411 37 is_stmt 0 view .LVU290
 903 019a 2EFA03F0 		lsr	r0, lr, r3
 904              		.loc 1 411 20 view .LVU291
 905 019e 01F10108 		add	r8, r1, #1
 906 01a2 C6F81480 		str	r8, [r6, #20]
 907              		.loc 1 411 25 view .LVU292
 908 01a6 0870     		strb	r0, [r1]
 909              		.loc 1 412 7 is_stmt 1 view .LVU293
ARM GAS  /tmp/ccqWEI8l.s 			page 17


 910              		.loc 1 412 10 is_stmt 0 view .LVU294
 911 01a8 D6E90410 		ldrd	r1, r0, [r6, #16]
 912 01ac 8842     		cmp	r0, r1
 913              		.loc 1 413 22 view .LVU295
 914 01ae 24BF     		itt	cs
 915 01b0 F168     		ldrcs	r1, [r6, #12]
 916 01b2 7161     		strcs	r1, [r6, #20]
 917              		.loc 1 410 11 view .LVU296
 918 01b4 BCF1010C 		subs	ip, ip, #1
 919              	.LVL71:
 920              		.loc 1 410 11 view .LVU297
 921 01b8 03F10803 		add	r3, r3, #8
 922 01bc 03D0     		beq	.L35
 923              		.loc 1 410 24 view .LVU298
 924 01be 202B     		cmp	r3, #32
 925 01c0 7169     		ldr	r1, [r6, #20]
 926 01c2 EAD1     		bne	.L40
 927 01c4 DBE7     		b	.L41
 928              	.LVL72:
 929              	.L35:
 930              		.loc 1 410 24 view .LVU299
 931              	.LBE494:
 932              		.loc 1 420 3 is_stmt 1 view .LVU300
 933              	.LBB495:
 934              	.LBI495:
 935              		.loc 3 445 20 view .LVU301
 936              	.LBE495:
 937              	.LBE524:
 938              	.LBE530:
 939              	.LBE537:
 940              	.LBE556:
 941              	.LBE730:
 942              		.loc 3 447 3 view .LVU302
 943              	.LBB731:
 944              	.LBB557:
 945              	.LBB538:
 946              	.LBB531:
 947              	.LBB525:
 948              	.LBB504:
 949              	.LBB496:
 950              	.LBI496:
 951              		.loc 4 346 20 view .LVU303
 952              	.LBB497:
 953              		.loc 4 348 3 view .LVU304
 954              	.LBB498:
 955              	.LBI498:
 956              		.loc 5 444 20 view .LVU305
 957              	.LBE498:
 958              	.LBE497:
 959              	.LBE496:
 960              	.LBE504:
 961              	.LBE525:
 962              	.LBE531:
 963              	.LBE538:
 964              	.LBE557:
 965              	.LBE731:
 966              		.loc 5 447 3 view .LVU306
ARM GAS  /tmp/ccqWEI8l.s 			page 18


 967              	.LBB732:
 968              	.LBB558:
 969              	.LBB539:
 970              	.LBB532:
 971              	.LBB526:
 972              	.LBB505:
 973              	.LBB503:
 974              	.LBB502:
 975              	.LBB501:
 976              	.LBB499:
 977              	.LBI499:
 978              		.loc 6 544 57 view .LVU307
 979              	.LBB500:
 980              		.loc 6 546 3 view .LVU308
 981 01c6 2023     		movs	r3, #32
 982              		.syntax unified
 983              	@ 546 ".//ChibiOS//os/ext/CMSIS/include/core_cmFunc.h" 1
 984 01c8 83F31188 		MSR basepri, r3
 985              	@ 0 "" 2
 986              	.LVL73:
 987              		.loc 6 546 3 is_stmt 0 view .LVU309
 988              		.thumb
 989              		.syntax unified
 990              	.LBE500:
 991              	.LBE499:
 992              	.LBE501:
 993              		.loc 4 349 3 is_stmt 1 view .LVU310
 994 01cc FFF7FEFF 		bl	_stats_start_measure_crit_thd
 995              	.LVL74:
 996              		.loc 4 350 3 view .LVU311
 997 01d0 FFF7FEFF 		bl	_dbg_check_lock
 998              	.LVL75:
 999              	.LBE502:
 1000              	.LBE503:
 1001              	.LBE505:
 1002              		.loc 1 421 3 view .LVU312
 1003              		.loc 1 421 18 is_stmt 0 view .LVU313
 1004 01d4 B368     		ldr	r3, [r6, #8]
 1005 01d6 2344     		add	r3, r3, r4
 1006 01d8 B360     		str	r3, [r6, #8]
 1007              		.loc 1 422 3 is_stmt 1 view .LVU314
 1008              	.LVL76:
 1009              	.LBB506:
 1010              	.LBI506:
 1011              		.loc 3 762 20 view .LVU315
 1012              	.LBB507:
 1013              		.loc 3 764 3 view .LVU316
 1014 01da 3046     		mov	r0, r6
 1015 01dc 0021     		movs	r1, #0
 1016 01de FFF7FEFF 		bl	chThdDequeueAllI
 1017              	.LVL77:
 1018              		.loc 3 764 3 is_stmt 0 view .LVU317
 1019              	.LBE507:
 1020              	.LBE506:
 1021              		.loc 1 423 3 is_stmt 1 view .LVU318
 1022              	.LBB508:
 1023              	.LBI508:
ARM GAS  /tmp/ccqWEI8l.s 			page 19


 1024              		.loc 3 552 20 view .LVU319
 1025              	.LBB509:
 1026              		.loc 3 554 3 view .LVU320
 1027 01e2 FFF7FEFF 		bl	chSchRescheduleS
 1028              	.LVL78:
 1029              	.LBE509:
 1030              	.LBE508:
 1031              		.loc 1 424 3 view .LVU321
 1032              	.LBB510:
 1033              	.LBI510:
 1034              		.loc 3 456 20 view .LVU322
 1035              	.LBE510:
 1036              	.LBE526:
 1037              	.LBE532:
 1038              	.LBE539:
 1039              	.LBE558:
 1040              	.LBE732:
 1041              		.loc 3 458 3 view .LVU323
 1042              	.LBB733:
 1043              	.LBB559:
 1044              	.LBB540:
 1045              	.LBB533:
 1046              	.LBB527:
 1047              	.LBB521:
 1048              	.LBB511:
 1049              	.LBI511:
 1050              		.loc 4 358 20 view .LVU324
 1051              	.LBB512:
 1052              		.loc 4 360 3 view .LVU325
 1053 01e6 FFF7FEFF 		bl	_dbg_check_unlock
 1054              	.LVL79:
 1055              		.loc 4 361 3 view .LVU326
 1056 01ea FFF7FEFF 		bl	_stats_stop_measure_crit_thd
 1057              	.LVL80:
 1058              		.loc 4 367 3 view .LVU327
 1059              		.loc 4 367 3 view .LVU328
 1060              		.loc 4 367 3 view .LVU329
 1061 01ee DAF80030 		ldr	r3, [r10]
 1062 01f2 5345     		cmp	r3, r10
 1063 01f4 06D0     		beq	.L42
 1064 01f6 DAF81820 		ldr	r2, [r10, #24]
 1065 01fa 9B68     		ldr	r3, [r3, #8]
 1066 01fc 9268     		ldr	r2, [r2, #8]
 1067 01fe 9A42     		cmp	r2, r3
 1068 0200 C0F00681 		bcc	.L125
 1069              	.L42:
 1070              		.loc 4 367 3 view .LVU330
 1071              		.loc 4 371 3 view .LVU331
 1072              	.LBB513:
 1073              	.LBI513:
 1074              		.loc 5 458 20 view .LVU332
 1075              	.LBE513:
 1076              	.LBE512:
 1077              	.LBE511:
 1078              	.LBE521:
 1079              	.LBE527:
 1080              	.LBE533:
ARM GAS  /tmp/ccqWEI8l.s 			page 20


 1081              	.LBE540:
 1082              	.LBE559:
 1083              	.LBE733:
 1084              		.loc 5 461 3 view .LVU333
 1085              	.LVL81:
 1086              	.LBB734:
 1087              	.LBB560:
 1088              	.LBB541:
 1089              	.LBB534:
 1090              	.LBB528:
 1091              	.LBB522:
 1092              	.LBB519:
 1093              	.LBB517:
 1094              	.LBB516:
 1095              	.LBB514:
 1096              	.LBI514:
 1097              		.loc 6 544 57 view .LVU334
 1098              	.LBB515:
 1099              		.loc 6 546 3 view .LVU335
 1100 0204 0023     		movs	r3, #0
 1101              		.syntax unified
 1102              	@ 546 ".//ChibiOS//os/ext/CMSIS/include/core_cmFunc.h" 1
 1103 0206 83F31188 		MSR basepri, r3
 1104              	@ 0 "" 2
 1105              	.LVL82:
 1106              		.loc 6 546 3 is_stmt 0 view .LVU336
 1107              		.thumb
 1108              		.syntax unified
 1109              	.LBE515:
 1110              	.LBE514:
 1111              	.LBE516:
 1112              		.loc 4 372 1 view .LVU337
 1113 020a 90E7     		b	.L43
 1114              	.L130:
 1115              		.align	2
 1116              	.L129:
 1117 020c 00000000 		.word	.LC2
 1118 0210 00000000 		.word	.LC1
 1119 0214 00000000 		.word	ch
 1120              	.LVL83:
 1121              	.L114:
 1122              		.loc 4 372 1 view .LVU338
 1123              	.LBE517:
 1124              	.LBE519:
 1125              	.LBE522:
 1126              	.LBE528:
 1127              	.LBE534:
 1128              	.LBE541:
 1129              	.LBE560:
 1130              	.LBB561:
 1131              		.loc 1 1324 9 is_stmt 1 view .LVU339
 1132              		.loc 1 1326 9 view .LVU340
 1133              	.LBB562:
 1134              	.LBI562:
 1135              		.loc 3 445 20 view .LVU341
 1136              	.LBE562:
 1137              	.LBE561:
ARM GAS  /tmp/ccqWEI8l.s 			page 21


 1138              	.LBE734:
 1139              		.loc 3 447 3 view .LVU342
 1140              	.LBB735:
 1141              	.LBB706:
 1142              	.LBB571:
 1143              	.LBB563:
 1144              	.LBI563:
 1145              		.loc 4 346 20 view .LVU343
 1146              	.LBB564:
 1147              		.loc 4 348 3 view .LVU344
 1148              	.LBB565:
 1149              	.LBI565:
 1150              		.loc 5 444 20 view .LVU345
 1151              	.LBE565:
 1152              	.LBE564:
 1153              	.LBE563:
 1154              	.LBE571:
 1155              	.LBE706:
 1156              	.LBE735:
 1157              		.loc 5 447 3 view .LVU346
 1158              	.LBB736:
 1159              	.LBB707:
 1160              	.LBB572:
 1161              	.LBB570:
 1162              	.LBB569:
 1163              	.LBB568:
 1164              	.LBB566:
 1165              	.LBI566:
 1166              		.loc 6 544 57 view .LVU347
 1167              	.LBB567:
 1168              		.loc 6 546 3 view .LVU348
 1169 0218 2023     		movs	r3, #32
 1170              		.syntax unified
 1171              	@ 546 ".//ChibiOS//os/ext/CMSIS/include/core_cmFunc.h" 1
 1172 021a 83F31188 		MSR basepri, r3
 1173              	@ 0 "" 2
 1174              	.LVL84:
 1175              		.loc 6 546 3 is_stmt 0 view .LVU349
 1176              		.thumb
 1177              		.syntax unified
 1178              	.LBE567:
 1179              	.LBE566:
 1180              	.LBE568:
 1181              		.loc 4 349 3 is_stmt 1 view .LVU350
 1182 021e FFF7FEFF 		bl	_stats_start_measure_crit_thd
 1183              	.LVL85:
 1184              		.loc 4 350 3 view .LVU351
 1185 0222 FFF7FEFF 		bl	_dbg_check_lock
 1186              	.LVL86:
 1187              	.LBE569:
 1188              	.LBE570:
 1189              	.LBE572:
 1190              		.loc 1 1334 9 view .LVU352
 1191              		.loc 1 1334 23 is_stmt 0 view .LVU353
 1192 0226 AB68     		ldr	r3, [r5, #8]
 1193              		.loc 1 1335 25 view .LVU354
 1194 0228 029A     		ldr	r2, [sp, #8]
ARM GAS  /tmp/ccqWEI8l.s 			page 22


 1195              		.loc 1 1334 23 view .LVU355
 1196 022a 23F00103 		bic	r3, r3, #1
 1197 022e AB60     		str	r3, [r5, #8]
 1198              		.loc 1 1335 9 is_stmt 1 view .LVU356
 1199              		.loc 1 1335 25 is_stmt 0 view .LVU357
 1200 0230 D9F85C30 		ldr	r3, [r9, #92]
 1201 0234 23EA0203 		bic	r3, r3, r2
 1202 0238 C9F85C30 		str	r3, [r9, #92]
 1203              		.loc 1 1336 9 is_stmt 1 view .LVU358
 1204              	.LBB573:
 1205              	.LBI573:
 1206              		.loc 3 456 20 view .LVU359
 1207              	.LBE573:
 1208              	.LBE707:
 1209              	.LBE736:
 1210              		.loc 3 458 3 view .LVU360
 1211              	.LBB737:
 1212              	.LBB708:
 1213              	.LBB584:
 1214              	.LBB574:
 1215              	.LBI574:
 1216              		.loc 4 358 20 view .LVU361
 1217              	.LBB575:
 1218              		.loc 4 360 3 view .LVU362
 1219 023c FFF7FEFF 		bl	_dbg_check_unlock
 1220              	.LVL87:
 1221              		.loc 4 361 3 view .LVU363
 1222 0240 FFF7FEFF 		bl	_stats_stop_measure_crit_thd
 1223              	.LVL88:
 1224              		.loc 4 367 3 view .LVU364
 1225              		.loc 4 367 3 view .LVU365
 1226              		.loc 4 367 3 view .LVU366
 1227 0244 DAF80030 		ldr	r3, [r10]
 1228 0248 5345     		cmp	r3, r10
 1229 024a 06D0     		beq	.L51
 1230 024c DAF81820 		ldr	r2, [r10, #24]
 1231 0250 9B68     		ldr	r3, [r3, #8]
 1232 0252 9268     		ldr	r2, [r2, #8]
 1233 0254 9A42     		cmp	r2, r3
 1234 0256 C0F0EA80 		bcc	.L126
 1235              	.L51:
 1236              		.loc 4 367 3 view .LVU367
 1237              		.loc 4 371 3 view .LVU368
 1238              	.LBB576:
 1239              	.LBI576:
 1240              		.loc 5 458 20 view .LVU369
 1241              	.LBE576:
 1242              	.LBE575:
 1243              	.LBE574:
 1244              	.LBE584:
 1245              	.LBE708:
 1246              	.LBE737:
 1247              		.loc 5 461 3 view .LVU370
 1248              	.LVL89:
 1249              	.LBB738:
 1250              	.LBB709:
 1251              	.LBB585:
ARM GAS  /tmp/ccqWEI8l.s 			page 23


 1252              	.LBB582:
 1253              	.LBB580:
 1254              	.LBB579:
 1255              	.LBB577:
 1256              	.LBI577:
 1257              		.loc 6 544 57 view .LVU371
 1258              	.LBB578:
 1259              		.loc 6 546 3 view .LVU372
 1260 025a 0023     		movs	r3, #0
 1261              		.syntax unified
 1262              	@ 546 ".//ChibiOS//os/ext/CMSIS/include/core_cmFunc.h" 1
 1263 025c 83F31188 		MSR basepri, r3
 1264              	@ 0 "" 2
 1265              	.LVL90:
 1266              		.loc 6 546 3 is_stmt 0 view .LVU373
 1267              		.thumb
 1268              		.syntax unified
 1269              	.LBE578:
 1270              	.LBE577:
 1271              	.LBE579:
 1272              	.LBE580:
 1273              	.LBE582:
 1274              	.LBE585:
 1275              	.LBE709:
 1276              	.LBE738:
 1277              		.loc 1 484 3 is_stmt 1 view .LVU374
 1278              	.LBB739:
 1279              	.LBB710:
 1280              	.LBB586:
 1281              	.LBB587:
 1282              		.loc 1 485 5 view .LVU375
 1283              		.loc 1 488 5 view .LVU376
 1284 0260 09EB8B07 		add	r7, r9, fp, lsl #2
 1285              		.loc 1 488 18 is_stmt 0 view .LVU377
 1286 0264 FC68     		ldr	r4, [r7, #12]
 1287              		.loc 1 488 22 view .LVU378
 1288 0266 6169     		ldr	r1, [r4, #20]
 1289              		.loc 1 488 66 view .LVU379
 1290 0268 D1E90102 		ldrd	r0, r2, [r1, #4]
 1291              		.loc 1 488 8 view .LVU380
 1292 026c 9042     		cmp	r0, r2
 1293 026e 40F2E280 		bls	.L52
 1294 0272 0BF10103 		add	r3, fp, #1
 1295 0276 0193     		str	r3, [sp, #4]
 1296 0278 1B03     		lsls	r3, r3, #12
 1297 027a 4FEA4B1B 		lsl	fp, fp, #5
 1298 027e 0395     		str	r5, [sp, #12]
 1299 0280 9846     		mov	r8, r3
 1300              	.L75:
 1301              		.loc 1 492 5 is_stmt 1 view .LVU381
 1302              		.loc 1 498 15 is_stmt 0 view .LVU382
 1303 0282 D9F850E0 		ldr	lr, [r9, #80]
 1304              		.loc 1 493 26 view .LVU383
 1305 0286 268A     		ldrh	r6, [r4, #16]
 1306              		.loc 1 498 28 view .LVU384
 1307 0288 0EEB0B03 		add	r3, lr, fp
 1308              		.loc 1 492 7 view .LVU385
ARM GAS  /tmp/ccqWEI8l.s 			page 24


 1309 028c 801A     		subs	r0, r0, r2
 1310              	.LVL91:
 1311              		.loc 1 493 5 is_stmt 1 view .LVU386
 1312              		.loc 1 498 28 is_stmt 0 view .LVU387
 1313 028e D3F81839 		ldr	r3, [r3, #2328]
 1314 0292 8642     		cmp	r6, r0
 1315 0294 28BF     		it	cs
 1316 0296 0646     		movcs	r6, r0
 1317              	.LVL92:
 1318              		.loc 1 498 5 is_stmt 1 view .LVU388
 1319              		.loc 1 498 37 is_stmt 0 view .LVU389
 1320 0298 9BB2     		uxth	r3, r3
 1321              		.loc 1 498 8 view .LVU390
 1322 029a B6EB830F 		cmp	r6, r3, lsl #2
 1323 029e 00F2BB80 		bhi	.L83
 1324              		.loc 1 505 5 is_stmt 1 view .LVU391
 1325              		.loc 1 505 8 is_stmt 0 view .LVU392
 1326 02a2 0B78     		ldrb	r3, [r1]	@ zero_extendqisi2
 1327 02a4 002B     		cmp	r3, #0
 1328 02a6 00F09980 		beq	.L54
 1329              		.loc 1 507 7 is_stmt 1 view .LVU393
 1330 02aa CC68     		ldr	r4, [r1, #12]
 1331              		.loc 1 507 48 is_stmt 0 view .LVU394
 1332 02ac C644     		add	lr, lr, r8
 1333              	.LVL93:
 1334              	.LBB588:
 1335              	.LBI588:
 1336              		.loc 1 268 13 is_stmt 1 view .LVU395
 1337              	.LBB589:
 1338              		.loc 1 271 3 view .LVU396
 1339              		.loc 1 273 3 view .LVU397
 1340              		.loc 1 274 3 view .LVU398
 1341              		.loc 1 274 9 view .LVU399
 1342 02ae 1EB3     		cbz	r6, .L64
 1343 02b0 3246     		mov	r2, r6
 1344 02b2 B446     		mov	ip, r6
 1345              	.LVL94:
 1346              	.L55:
 1347              	.LBB590:
 1348              		.loc 1 275 5 view .LVU400
 1349              		.loc 1 276 5 view .LVU401
 1350              		.loc 1 278 5 view .LVU402
 1351              		.loc 1 278 8 is_stmt 0 view .LVU403
 1352 02b4 032A     		cmp	r2, #3
 1353 02b6 71D9     		bls	.L58
 1354              	.LBB591:
 1355              		.loc 1 279 7 is_stmt 1 view .LVU404
 1356              		.loc 1 280 7 view .LVU405
 1357              		.loc 1 280 42 is_stmt 0 view .LVU406
 1358 02b8 A369     		ldr	r3, [r4, #24]
 1359              	.LVL95:
 1360              		.loc 1 282 7 is_stmt 1 view .LVU407
 1361              		.loc 1 280 37 is_stmt 0 view .LVU408
 1362 02ba 2069     		ldr	r0, [r4, #16]
 1363              		.loc 1 280 53 view .LVU409
 1364 02bc C51A     		subs	r5, r0, r3
 1365 02be 48BF     		it	mi
ARM GAS  /tmp/ccqWEI8l.s 			page 25


 1366 02c0 0335     		addmi	r5, r5, #3
 1367 02c2 AD10     		asrs	r5, r5, #2
 1368              	.LBE591:
 1369              		.loc 1 276 12 view .LVU410
 1370 02c4 9108     		lsrs	r1, r2, #2
 1371              	.LVL96:
 1372              	.LBB600:
 1373              		.loc 1 282 24 view .LVU411
 1374 02c6 8D42     		cmp	r5, r1
 1375 02c8 28BF     		it	cs
 1376 02ca 0D46     		movcs	r5, r1
 1377              	.LVL97:
 1378              		.loc 1 282 13 view .LVU412
 1379 02cc A2EB8502 		sub	r2, r2, r5, lsl #2
 1380              	.LVL98:
 1381              		.loc 1 283 7 is_stmt 1 view .LVU413
 1382              	.LBB592:
 1383              	.LBI592:
 1384              		.loc 1 231 17 view .LVU414
 1385              	.LBB593:
 1386              		.loc 1 233 3 view .LVU415
 1387              		.loc 1 233 9 view .LVU416
 1388              	.LBE593:
 1389              	.LBE592:
 1390              		.loc 1 282 54 is_stmt 0 view .LVU417
 1391 02d0 A900     		lsls	r1, r5, #2
 1392              	.LVL99:
 1393              	.LBB597:
 1394              	.LBB594:
 1395              		.loc 1 233 9 view .LVU418
 1396 02d2 002D     		cmp	r5, #0
 1397 02d4 00F09680 		beq	.L85
 1398 02d8 1944     		add	r1, r1, r3
 1399              	.LVL100:
 1400              	.L61:
 1401              		.loc 1 236 5 is_stmt 1 view .LVU419
 1402              		.loc 1 236 14 is_stmt 0 view .LVU420
 1403 02da 53F8040B 		ldr	r0, [r3], #4
 1404              	.LVL101:
 1405              		.loc 1 236 12 view .LVU421
 1406 02de CEF80000 		str	r0, [lr]
 1407              		.loc 1 237 5 is_stmt 1 view .LVU422
 1408              	.LVL102:
 1409              		.loc 1 238 5 view .LVU423
 1410              		.loc 1 233 9 view .LVU424
 1411 02e2 8B42     		cmp	r3, r1
 1412 02e4 F9D1     		bne	.L61
 1413 02e6 2069     		ldr	r0, [r4, #16]
 1414              	.L60:
 1415              		.loc 1 240 3 view .LVU425
 1416              	.LVL103:
 1417              		.loc 1 240 3 is_stmt 0 view .LVU426
 1418              	.LBE594:
 1419              	.LBE597:
 1420              		.loc 1 283 20 view .LVU427
 1421 02e8 A161     		str	r1, [r4, #24]
 1422              		.loc 1 284 7 is_stmt 1 view .LVU428
ARM GAS  /tmp/ccqWEI8l.s 			page 26


 1423              		.loc 1 284 10 is_stmt 0 view .LVU429
 1424 02ea 8842     		cmp	r0, r1
 1425 02ec 73D8     		bhi	.L62
 1426              		.loc 1 285 9 is_stmt 1 view .LVU430
 1427              		.loc 1 285 22 is_stmt 0 view .LVU431
 1428 02ee E368     		ldr	r3, [r4, #12]
 1429 02f0 A361     		str	r3, [r4, #24]
 1430              		.loc 1 286 9 is_stmt 1 view .LVU432
 1431              		.loc 1 286 9 is_stmt 0 view .LVU433
 1432              	.LBE600:
 1433              	.LBE590:
 1434              		.loc 1 274 9 is_stmt 1 view .LVU434
 1435 02f2 002A     		cmp	r2, #0
 1436 02f4 DED1     		bne	.L55
 1437              	.LVL104:
 1438              	.L120:
 1439              		.loc 1 274 9 is_stmt 0 view .LVU435
 1440 02f6 6646     		mov	r6, ip
 1441              	.LVL105:
 1442              	.L64:
 1443              		.loc 1 309 3 is_stmt 1 view .LVU436
 1444              	.LBB603:
 1445              	.LBI603:
 1446              		.loc 3 445 20 view .LVU437
 1447              	.LBE603:
 1448              	.LBE589:
 1449              	.LBE588:
 1450              	.LBE587:
 1451              	.LBE586:
 1452              	.LBE710:
 1453              	.LBE739:
 1454              		.loc 3 447 3 view .LVU438
 1455              	.LBB740:
 1456              	.LBB711:
 1457              	.LBB662:
 1458              	.LBB655:
 1459              	.LBB641:
 1460              	.LBB635:
 1461              	.LBB612:
 1462              	.LBB604:
 1463              	.LBI604:
 1464              		.loc 4 346 20 view .LVU439
 1465              	.LBB605:
 1466              		.loc 4 348 3 view .LVU440
 1467              	.LBB606:
 1468              	.LBI606:
 1469              		.loc 5 444 20 view .LVU441
 1470              	.LBE606:
 1471              	.LBE605:
 1472              	.LBE604:
 1473              	.LBE612:
 1474              	.LBE635:
 1475              	.LBE641:
 1476              	.LBE655:
 1477              	.LBE662:
 1478              	.LBE711:
 1479              	.LBE740:
ARM GAS  /tmp/ccqWEI8l.s 			page 27


 1480              		.loc 5 447 3 view .LVU442
 1481              	.LBB741:
 1482              	.LBB712:
 1483              	.LBB663:
 1484              	.LBB656:
 1485              	.LBB642:
 1486              	.LBB636:
 1487              	.LBB613:
 1488              	.LBB611:
 1489              	.LBB610:
 1490              	.LBB609:
 1491              	.LBB607:
 1492              	.LBI607:
 1493              		.loc 6 544 57 view .LVU443
 1494              	.LBB608:
 1495              		.loc 6 546 3 view .LVU444
 1496 02f8 2023     		movs	r3, #32
 1497              		.syntax unified
 1498              	@ 546 ".//ChibiOS//os/ext/CMSIS/include/core_cmFunc.h" 1
 1499 02fa 83F31188 		MSR basepri, r3
 1500              	@ 0 "" 2
 1501              	.LVL106:
 1502              		.loc 6 546 3 is_stmt 0 view .LVU445
 1503              		.thumb
 1504              		.syntax unified
 1505              	.LBE608:
 1506              	.LBE607:
 1507              	.LBE609:
 1508              		.loc 4 349 3 is_stmt 1 view .LVU446
 1509 02fe FFF7FEFF 		bl	_stats_start_measure_crit_thd
 1510              	.LVL107:
 1511              		.loc 4 350 3 view .LVU447
 1512 0302 FFF7FEFF 		bl	_dbg_check_lock
 1513              	.LVL108:
 1514              	.LBE610:
 1515              	.LBE611:
 1516              	.LBE613:
 1517              		.loc 1 310 3 view .LVU448
 1518              		.loc 1 310 18 is_stmt 0 view .LVU449
 1519 0306 A368     		ldr	r3, [r4, #8]
 1520 0308 3344     		add	r3, r3, r6
 1521 030a A360     		str	r3, [r4, #8]
 1522              		.loc 1 311 3 is_stmt 1 view .LVU450
 1523              	.LVL109:
 1524              	.LBB614:
 1525              	.LBI614:
 1526              		.loc 3 762 20 view .LVU451
 1527              	.LBB615:
 1528              		.loc 3 764 3 view .LVU452
 1529 030c 2046     		mov	r0, r4
 1530 030e 0021     		movs	r1, #0
 1531 0310 FFF7FEFF 		bl	chThdDequeueAllI
 1532              	.LVL110:
 1533              		.loc 3 764 3 is_stmt 0 view .LVU453
 1534              	.LBE615:
 1535              	.LBE614:
 1536              		.loc 1 312 3 is_stmt 1 view .LVU454
ARM GAS  /tmp/ccqWEI8l.s 			page 28


 1537              	.LBB616:
 1538              	.LBI616:
 1539              		.loc 3 552 20 view .LVU455
 1540              	.LBB617:
 1541              		.loc 3 554 3 view .LVU456
 1542 0314 FFF7FEFF 		bl	chSchRescheduleS
 1543              	.LVL111:
 1544              	.LBE617:
 1545              	.LBE616:
 1546              		.loc 1 313 3 view .LVU457
 1547              	.LBB618:
 1548              	.LBI618:
 1549              		.loc 3 456 20 view .LVU458
 1550              	.LBE618:
 1551              	.LBE636:
 1552              	.LBE642:
 1553              	.LBE656:
 1554              	.LBE663:
 1555              	.LBE712:
 1556              	.LBE741:
 1557              		.loc 3 458 3 view .LVU459
 1558              	.LBB742:
 1559              	.LBB713:
 1560              	.LBB664:
 1561              	.LBB657:
 1562              	.LBB643:
 1563              	.LBB637:
 1564              	.LBB629:
 1565              	.LBB619:
 1566              	.LBI619:
 1567              		.loc 4 358 20 view .LVU460
 1568              	.LBB620:
 1569              		.loc 4 360 3 view .LVU461
 1570 0318 FFF7FEFF 		bl	_dbg_check_unlock
 1571              	.LVL112:
 1572              		.loc 4 361 3 view .LVU462
 1573 031c FFF7FEFF 		bl	_stats_stop_measure_crit_thd
 1574              	.LVL113:
 1575              		.loc 4 367 3 view .LVU463
 1576              		.loc 4 367 3 view .LVU464
 1577              		.loc 4 367 3 view .LVU465
 1578 0320 DAF80030 		ldr	r3, [r10]
 1579 0324 5345     		cmp	r3, r10
 1580 0326 05D0     		beq	.L57
 1581 0328 DAF81820 		ldr	r2, [r10, #24]
 1582 032c 9B68     		ldr	r3, [r3, #8]
 1583 032e 9268     		ldr	r2, [r2, #8]
 1584 0330 9A42     		cmp	r2, r3
 1585 0332 69D3     		bcc	.L127
 1586              	.L57:
 1587              		.loc 4 367 3 view .LVU466
 1588              		.loc 4 371 3 view .LVU467
 1589              	.LBB621:
 1590              	.LBI621:
 1591              		.loc 5 458 20 view .LVU468
 1592              	.LBE621:
 1593              	.LBE620:
ARM GAS  /tmp/ccqWEI8l.s 			page 29


 1594              	.LBE619:
 1595              	.LBE629:
 1596              	.LBE637:
 1597              	.LBE643:
 1598              	.LBE657:
 1599              	.LBE664:
 1600              	.LBE713:
 1601              	.LBE742:
 1602              		.loc 5 461 3 view .LVU469
 1603              	.LVL114:
 1604              	.LBB743:
 1605              	.LBB714:
 1606              	.LBB665:
 1607              	.LBB658:
 1608              	.LBB644:
 1609              	.LBB638:
 1610              	.LBB630:
 1611              	.LBB627:
 1612              	.LBB625:
 1613              	.LBB624:
 1614              	.LBB622:
 1615              	.LBI622:
 1616              		.loc 6 544 57 view .LVU470
 1617              	.LBB623:
 1618              		.loc 6 546 3 view .LVU471
 1619 0334 0023     		movs	r3, #0
 1620              		.syntax unified
 1621              	@ 546 ".//ChibiOS//os/ext/CMSIS/include/core_cmFunc.h" 1
 1622 0336 83F31188 		MSR basepri, r3
 1623              	@ 0 "" 2
 1624              	.LVL115:
 1625              		.thumb
 1626              		.syntax unified
 1627              	.L71:
 1628              		.loc 6 546 3 is_stmt 0 view .LVU472
 1629              	.LBE623:
 1630              	.LBE622:
 1631              	.LBE624:
 1632              	.LBE625:
 1633              	.LBE627:
 1634              	.LBE630:
 1635              	.LBE638:
 1636              	.LBE644:
 1637              		.loc 1 521 5 is_stmt 1 view .LVU473
 1638              		.loc 1 521 18 is_stmt 0 view .LVU474
 1639 033a FB68     		ldr	r3, [r7, #12]
 1640 033c 5A69     		ldr	r2, [r3, #20]
 1641              		.loc 1 521 36 view .LVU475
 1642 033e 9368     		ldr	r3, [r2, #8]
 1643 0340 1E44     		add	r6, r6, r3
 1644              	.LVL116:
 1645              		.loc 1 521 36 view .LVU476
 1646 0342 9660     		str	r6, [r2, #8]
 1647              	.LBE658:
 1648              	.LBE665:
 1649              	.LBE714:
 1650              	.LBE743:
ARM GAS  /tmp/ccqWEI8l.s 			page 30


 1651              		.loc 1 484 9 is_stmt 1 view .LVU477
 1652              		.loc 1 484 3 view .LVU478
 1653              	.LBB744:
 1654              	.LBB715:
 1655              	.LBB666:
 1656              	.LBB659:
 1657              		.loc 1 485 5 view .LVU479
 1658              		.loc 1 488 5 view .LVU480
 1659              		.loc 1 488 18 is_stmt 0 view .LVU481
 1660 0344 FC68     		ldr	r4, [r7, #12]
 1661              		.loc 1 488 22 view .LVU482
 1662 0346 6169     		ldr	r1, [r4, #20]
 1663              		.loc 1 488 66 view .LVU483
 1664 0348 D1E90102 		ldrd	r0, r2, [r1, #4]
 1665              		.loc 1 488 8 view .LVU484
 1666 034c 8242     		cmp	r2, r0
 1667 034e 98D3     		bcc	.L75
 1668 0350 039D     		ldr	r5, [sp, #12]
 1669              		.loc 1 489 14 view .LVU485
 1670 0352 0124     		movs	r4, #1
 1671              	.L53:
 1672              	.LVL117:
 1673              		.loc 1 489 14 view .LVU486
 1674              	.LBE659:
 1675              	.LBE666:
 1676              		.loc 1 1340 9 is_stmt 1 view .LVU487
 1677              	.LBB667:
 1678              	.LBI667:
 1679              		.loc 3 445 20 view .LVU488
 1680              	.LBE667:
 1681              	.LBE715:
 1682              	.LBE744:
 1683              		.loc 3 447 3 view .LVU489
 1684              	.LBB745:
 1685              	.LBB716:
 1686              	.LBB684:
 1687              	.LBB668:
 1688              	.LBI668:
 1689              		.loc 4 346 20 view .LVU490
 1690              	.LBB669:
 1691              		.loc 4 348 3 view .LVU491
 1692              	.LBB670:
 1693              	.LBI670:
 1694              		.loc 5 444 20 view .LVU492
 1695              	.LBE670:
 1696              	.LBE669:
 1697              	.LBE668:
 1698              	.LBE684:
 1699              	.LBE716:
 1700              	.LBE745:
 1701              		.loc 5 447 3 view .LVU493
 1702              	.LBB746:
 1703              	.LBB717:
 1704              	.LBB685:
 1705              	.LBB681:
 1706              	.LBB678:
 1707              	.LBB675:
ARM GAS  /tmp/ccqWEI8l.s 			page 31


 1708              	.LBB671:
 1709              	.LBI671:
 1710              		.loc 6 544 57 view .LVU494
 1711              	.LBB672:
 1712              		.loc 6 546 3 view .LVU495
 1713 0354 2023     		movs	r3, #32
 1714              		.syntax unified
 1715              	@ 546 ".//ChibiOS//os/ext/CMSIS/include/core_cmFunc.h" 1
 1716 0356 83F31188 		MSR basepri, r3
 1717              	@ 0 "" 2
 1718              	.LVL118:
 1719              		.loc 6 546 3 is_stmt 0 view .LVU496
 1720              		.thumb
 1721              		.syntax unified
 1722              	.LBE672:
 1723              	.LBE671:
 1724              	.LBE675:
 1725              		.loc 4 349 3 is_stmt 1 view .LVU497
 1726 035a FFF7FEFF 		bl	_stats_start_measure_crit_thd
 1727              	.LVL119:
 1728              		.loc 4 350 3 view .LVU498
 1729 035e FFF7FEFF 		bl	_dbg_check_lock
 1730              	.LVL120:
 1731              	.LBE678:
 1732              	.LBE681:
 1733              	.LBE685:
 1734              		.loc 1 1341 9 view .LVU499
 1735              		.loc 1 1341 23 is_stmt 0 view .LVU500
 1736 0362 AB68     		ldr	r3, [r5, #8]
 1737 0364 43F00103 		orr	r3, r3, #1
 1738 0368 AB60     		str	r3, [r5, #8]
 1739              		.loc 1 1342 9 is_stmt 1 view .LVU501
 1740              		.loc 1 1342 12 is_stmt 0 view .LVU502
 1741 036a 2CB9     		cbnz	r4, .L76
 1742              		.loc 1 1343 11 is_stmt 1 view .LVU503
 1743              		.loc 1 1343 28 is_stmt 0 view .LVU504
 1744 036c D5F83438 		ldr	r3, [r5, #2100]
 1745 0370 029A     		ldr	r2, [sp, #8]
 1746 0372 1343     		orrs	r3, r3, r2
 1747 0374 C5F83438 		str	r3, [r5, #2100]
 1748              	.LVL121:
 1749              	.L76:
 1750              		.loc 1 1344 9 is_stmt 1 view .LVU505
 1751              	.LBB686:
 1752              	.LBI686:
 1753              		.loc 3 456 20 view .LVU506
 1754              	.LBE686:
 1755              	.LBE717:
 1756              	.LBE746:
 1757              		.loc 3 458 3 view .LVU507
 1758              	.LBB747:
 1759              	.LBB718:
 1760              	.LBB697:
 1761              	.LBB687:
 1762              	.LBI687:
 1763              		.loc 4 358 20 view .LVU508
 1764              	.LBB688:
ARM GAS  /tmp/ccqWEI8l.s 			page 32


 1765              		.loc 4 360 3 view .LVU509
 1766 0378 FFF7FEFF 		bl	_dbg_check_unlock
 1767              	.LVL122:
 1768              		.loc 4 361 3 view .LVU510
 1769 037c FFF7FEFF 		bl	_stats_stop_measure_crit_thd
 1770              	.LVL123:
 1771              		.loc 4 367 3 view .LVU511
 1772              		.loc 4 367 3 view .LVU512
 1773              		.loc 4 367 3 view .LVU513
 1774 0380 DAF80030 		ldr	r3, [r10]
 1775 0384 5345     		cmp	r3, r10
 1776 0386 05D0     		beq	.L77
 1777 0388 DAF81820 		ldr	r2, [r10, #24]
 1778 038c 9B68     		ldr	r3, [r3, #8]
 1779 038e 9268     		ldr	r2, [r2, #8]
 1780 0390 9A42     		cmp	r2, r3
 1781 0392 48D3     		bcc	.L128
 1782              	.L77:
 1783              		.loc 4 367 3 view .LVU514
 1784              		.loc 4 371 3 view .LVU515
 1785              	.LBB689:
 1786              	.LBI689:
 1787              		.loc 5 458 20 view .LVU516
 1788              	.LBE689:
 1789              	.LBE688:
 1790              	.LBE687:
 1791              	.LBE697:
 1792              	.LBE718:
 1793              	.LBE747:
 1794              		.loc 5 461 3 view .LVU517
 1795              	.LVL124:
 1796              	.LBB748:
 1797              	.LBB719:
 1798              	.LBB698:
 1799              	.LBB695:
 1800              	.LBB693:
 1801              	.LBB692:
 1802              	.LBB690:
 1803              	.LBI690:
 1804              		.loc 6 544 57 view .LVU518
 1805              	.LBB691:
 1806              		.loc 6 546 3 view .LVU519
 1807 0394 0023     		movs	r3, #0
 1808              		.syntax unified
 1809              	@ 546 ".//ChibiOS//os/ext/CMSIS/include/core_cmFunc.h" 1
 1810 0396 83F31188 		MSR basepri, r3
 1811              	@ 0 "" 2
 1812              	.LVL125:
 1813              		.loc 6 546 3 is_stmt 0 view .LVU520
 1814              		.thumb
 1815              		.syntax unified
 1816              	.LBE691:
 1817              	.LBE690:
 1818              	.LBE692:
 1819              		.loc 4 372 1 view .LVU521
 1820 039a DBE6     		b	.L50
 1821              	.LVL126:
ARM GAS  /tmp/ccqWEI8l.s 			page 33


 1822              	.L58:
 1823              		.loc 4 372 1 view .LVU522
 1824 039c 2069     		ldr	r0, [r4, #16]
 1825 039e A169     		ldr	r1, [r4, #24]
 1826              	.LVL127:
 1827              	.L65:
 1828              		.loc 4 372 1 view .LVU523
 1829              	.LBE693:
 1830              	.LBE695:
 1831              	.LBE698:
 1832              	.LBB699:
 1833              	.LBB660:
 1834              	.LBB645:
 1835              	.LBB639:
 1836              	.LBB631:
 1837              	.LBB601:
 1838              	.LBB598:
 1839              	.LBB595:
 1840              		.loc 1 233 9 view .LVU524
 1841 03a0 0023     		movs	r3, #0
 1842 03a2 1D46     		mov	r5, r3
 1843              	.LVL128:
 1844              	.L69:
 1845              		.loc 1 233 9 view .LVU525
 1846              	.LBE595:
 1847              	.LBE598:
 1848              	.LBE601:
 1849              		.loc 1 299 7 is_stmt 1 view .LVU526
 1850              		.loc 1 301 9 view .LVU527
 1851              		.loc 1 302 7 view .LVU528
 1852              		.loc 1 303 7 view .LVU529
 1853              		.loc 1 299 35 is_stmt 0 view .LVU530
 1854 03a4 4E1C     		adds	r6, r1, #1
 1855 03a6 A661     		str	r6, [r4, #24]
 1856              		.loc 1 299 12 view .LVU531
 1857 03a8 0978     		ldrb	r1, [r1]	@ zero_extendqisi2
 1858              		.loc 1 300 10 view .LVU532
 1859 03aa 8642     		cmp	r6, r0
 1860              		.loc 1 299 38 view .LVU533
 1861 03ac 01FA03F1 		lsl	r1, r1, r3
 1862              		.loc 1 299 9 view .LVU534
 1863 03b0 45EA0105 		orr	r5, r5, r1
 1864              	.LVL129:
 1865              		.loc 1 301 22 view .LVU535
 1866 03b4 24BF     		itt	cs
 1867 03b6 E168     		ldrcs	r1, [r4, #12]
 1868 03b8 A161     		strcs	r1, [r4, #24]
 1869              		.loc 1 298 11 view .LVU536
 1870 03ba 013A     		subs	r2, r2, #1
 1871              	.LVL130:
 1872              		.loc 1 299 9 view .LVU537
 1873 03bc 03F10803 		add	r3, r3, #8
 1874              	.LVL131:
 1875              		.loc 1 300 7 is_stmt 1 view .LVU538
 1876              		.loc 1 298 11 view .LVU539
 1877              		.loc 1 298 11 is_stmt 0 view .LVU540
 1878 03c0 03D0     		beq	.L68
ARM GAS  /tmp/ccqWEI8l.s 			page 34


 1879              		.loc 1 298 24 view .LVU541
 1880 03c2 202B     		cmp	r3, #32
 1881 03c4 01D0     		beq	.L68
 1882 03c6 A169     		ldr	r1, [r4, #24]
 1883 03c8 ECE7     		b	.L69
 1884              	.L68:
 1885              		.loc 1 305 5 is_stmt 1 view .LVU542
 1886              		.loc 1 305 12 is_stmt 0 view .LVU543
 1887 03ca CEF80050 		str	r5, [lr]
 1888              		.loc 1 305 12 view .LVU544
 1889              	.LBE631:
 1890              		.loc 1 274 9 is_stmt 1 view .LVU545
 1891 03ce 002A     		cmp	r2, #0
 1892 03d0 7FF470AF 		bne	.L55
 1893              		.loc 1 274 9 is_stmt 0 view .LVU546
 1894 03d4 8FE7     		b	.L120
 1895              	.LVL132:
 1896              	.L62:
 1897              	.LBB632:
 1898              		.loc 1 292 5 is_stmt 1 view .LVU547
 1899              		.loc 1 292 8 is_stmt 0 view .LVU548
 1900 03d6 002A     		cmp	r2, #0
 1901 03d8 E2D1     		bne	.L65
 1902 03da 8CE7     		b	.L120
 1903              	.LVL133:
 1904              	.L54:
 1905              		.loc 1 292 8 view .LVU549
 1906              	.LBE632:
 1907              	.LBE639:
 1908              	.LBE645:
 1909              		.loc 1 513 7 is_stmt 1 view .LVU550
 1910 03dc CB68     		ldr	r3, [r1, #12]
 1911              	.LBB646:
 1912              	.LBB647:
 1913              		.loc 1 256 41 is_stmt 0 view .LVU551
 1914 03de F21C     		adds	r2, r6, #3
 1915              	.LBB648:
 1916              	.LBB649:
 1917              		.loc 1 233 9 view .LVU552
 1918 03e0 9208     		lsrs	r2, r2, #2
 1919              	.LBE649:
 1920              	.LBE648:
 1921              	.LBE647:
 1922              	.LBE646:
 1923              		.loc 1 513 49 view .LVU553
 1924 03e2 0EEB0800 		add	r0, lr, r8
 1925              	.LVL134:
 1926              	.LBB653:
 1927              	.LBI646:
 1928              		.loc 1 252 13 is_stmt 1 view .LVU554
 1929              	.LBB652:
 1930              		.loc 1 256 3 view .LVU555
 1931              	.LBB651:
 1932              	.LBI648:
 1933              		.loc 1 231 17 view .LVU556
 1934              	.LBB650:
 1935              		.loc 1 233 3 view .LVU557
ARM GAS  /tmp/ccqWEI8l.s 			page 35


 1936              		.loc 1 233 9 view .LVU558
 1937 03e6 18BF     		it	ne
 1938 03e8 03EB8201 		addne	r1, r3, r2, lsl #2
 1939 03ec 05D0     		beq	.L74
 1940              	.LVL135:
 1941              	.L73:
 1942              		.loc 1 236 5 view .LVU559
 1943              		.loc 1 236 14 is_stmt 0 view .LVU560
 1944 03ee 53F8042B 		ldr	r2, [r3], #4
 1945              	.LVL136:
 1946              		.loc 1 236 12 view .LVU561
 1947 03f2 0260     		str	r2, [r0]
 1948              		.loc 1 237 5 is_stmt 1 view .LVU562
 1949              	.LVL137:
 1950              		.loc 1 238 5 view .LVU563
 1951              		.loc 1 233 9 view .LVU564
 1952 03f4 8B42     		cmp	r3, r1
 1953 03f6 FAD1     		bne	.L73
 1954 03f8 FC68     		ldr	r4, [r7, #12]
 1955              	.L74:
 1956              		.loc 1 240 3 view .LVU565
 1957              	.LVL138:
 1958              		.loc 1 240 3 is_stmt 0 view .LVU566
 1959              	.LBE650:
 1960              	.LBE651:
 1961              	.LBE652:
 1962              	.LBE653:
 1963              		.loc 1 516 7 is_stmt 1 view .LVU567
 1964              		.loc 1 516 20 is_stmt 0 view .LVU568
 1965 03fa 6269     		ldr	r2, [r4, #20]
 1966              		.loc 1 516 50 view .LVU569
 1967 03fc D368     		ldr	r3, [r2, #12]
 1968 03fe 3344     		add	r3, r3, r6
 1969 0400 D360     		str	r3, [r2, #12]
 1970 0402 9AE7     		b	.L71
 1971              	.LVL139:
 1972              	.L85:
 1973              	.LBB654:
 1974              	.LBB640:
 1975              	.LBB633:
 1976              	.LBB602:
 1977              	.LBB599:
 1978              	.LBB596:
 1979              		.loc 1 233 9 view .LVU570
 1980 0404 1946     		mov	r1, r3
 1981 0406 6FE7     		b	.L60
 1982              	.LVL140:
 1983              	.L127:
 1984              		.loc 1 233 9 view .LVU571
 1985              	.LBE596:
 1986              	.LBE599:
 1987              	.LBE602:
 1988              	.LBE633:
 1989              	.LBB634:
 1990              	.LBB628:
 1991              	.LBB626:
 1992              		.loc 4 367 3 is_stmt 1 view .LVU572
ARM GAS  /tmp/ccqWEI8l.s 			page 36


 1993 0408 1248     		ldr	r0, .L131
 1994 040a FFF7FEFF 		bl	chSysHalt
 1995              	.LVL141:
 1996 040e 91E7     		b	.L57
 1997              	.LVL142:
 1998              	.L125:
 1999              		.loc 4 367 3 is_stmt 0 view .LVU573
 2000              	.LBE626:
 2001              	.LBE628:
 2002              	.LBE634:
 2003              	.LBE640:
 2004              	.LBE654:
 2005              	.LBE660:
 2006              	.LBE699:
 2007              	.LBE719:
 2008              	.LBB720:
 2009              	.LBB542:
 2010              	.LBB535:
 2011              	.LBB529:
 2012              	.LBB523:
 2013              	.LBB520:
 2014              	.LBB518:
 2015              		.loc 4 367 3 is_stmt 1 view .LVU574
 2016 0410 1048     		ldr	r0, .L131
 2017 0412 FFF7FEFF 		bl	chSysHalt
 2018              	.LVL143:
 2019 0416 F5E6     		b	.L42
 2020              	.LVL144:
 2021              	.L83:
 2022              		.loc 4 367 3 is_stmt 0 view .LVU575
 2023 0418 039D     		ldr	r5, [sp, #12]
 2024              	.LBE518:
 2025              	.LBE520:
 2026              	.LBE523:
 2027              	.LBE529:
 2028              	.LBE535:
 2029              	.LBE542:
 2030              	.LBE720:
 2031              	.LBB721:
 2032              	.LBB700:
 2033              	.LBB661:
 2034              		.loc 1 499 14 view .LVU576
 2035 041a 0024     		movs	r4, #0
 2036 041c 9AE7     		b	.L53
 2037              	.LVL145:
 2038              	.L121:
 2039              		.loc 1 499 14 view .LVU577
 2040              	.LBE661:
 2041              	.LBE700:
 2042              	.LBE721:
 2043              	.LBB722:
 2044              	.LBB462:
 2045              	.LBB459:
 2046              		.loc 4 367 3 is_stmt 1 view .LVU578
 2047 041e 0D48     		ldr	r0, .L131
 2048 0420 FFF7FEFF 		bl	chSysHalt
 2049              	.LVL146:
ARM GAS  /tmp/ccqWEI8l.s 			page 37


 2050 0424 2BE6     		b	.L25
 2051              	.LVL147:
 2052              	.L128:
 2053              		.loc 4 367 3 is_stmt 0 view .LVU579
 2054              	.LBE459:
 2055              	.LBE462:
 2056              	.LBE722:
 2057              	.LBB723:
 2058              	.LBB701:
 2059              	.LBB696:
 2060              	.LBB694:
 2061              		.loc 4 367 3 is_stmt 1 view .LVU580
 2062 0426 0B48     		ldr	r0, .L131
 2063 0428 FFF7FEFF 		bl	chSysHalt
 2064              	.LVL148:
 2065 042c B2E7     		b	.L77
 2066              	.L126:
 2067              		.loc 4 367 3 is_stmt 0 view .LVU581
 2068              	.LBE694:
 2069              	.LBE696:
 2070              	.LBE701:
 2071              	.LBB702:
 2072              	.LBB583:
 2073              	.LBB581:
 2074              		.loc 4 367 3 is_stmt 1 view .LVU582
 2075 042e 0948     		ldr	r0, .L131
 2076 0430 FFF7FEFF 		bl	chSysHalt
 2077              	.LVL149:
 2078 0434 11E7     		b	.L51
 2079              	.L52:
 2080              	.LVL150:
 2081              		.loc 4 367 3 is_stmt 0 view .LVU583
 2082              	.LBE581:
 2083              	.LBE583:
 2084              	.LBE702:
 2085              		.loc 1 1340 9 is_stmt 1 view .LVU584
 2086              	.LBB703:
 2087              		.loc 3 445 20 view .LVU585
 2088              	.LBE703:
 2089              	.LBE723:
 2090              	.LBE748:
 2091              		.loc 3 447 3 view .LVU586
 2092              	.LBB749:
 2093              	.LBB724:
 2094              	.LBB704:
 2095              	.LBB682:
 2096              		.loc 4 346 20 view .LVU587
 2097              	.LBB679:
 2098              		.loc 4 348 3 view .LVU588
 2099              	.LBB676:
 2100              		.loc 5 444 20 view .LVU589
 2101              	.LBE676:
 2102              	.LBE679:
 2103              	.LBE682:
 2104              	.LBE704:
 2105              	.LBE724:
 2106              	.LBE749:
ARM GAS  /tmp/ccqWEI8l.s 			page 38


 2107              		.loc 5 447 3 view .LVU590
 2108              	.LBB750:
 2109              	.LBB725:
 2110              	.LBB705:
 2111              	.LBB683:
 2112              	.LBB680:
 2113              	.LBB677:
 2114              	.LBB674:
 2115              		.loc 6 544 57 view .LVU591
 2116              	.LBB673:
 2117              		.loc 6 546 3 view .LVU592
 2118 0436 2023     		movs	r3, #32
 2119              		.syntax unified
 2120              	@ 546 ".//ChibiOS//os/ext/CMSIS/include/core_cmFunc.h" 1
 2121 0438 83F31188 		MSR basepri, r3
 2122              	@ 0 "" 2
 2123              	.LVL151:
 2124              		.loc 6 546 3 is_stmt 0 view .LVU593
 2125              		.thumb
 2126              		.syntax unified
 2127              	.LBE673:
 2128              	.LBE674:
 2129              	.LBE677:
 2130              		.loc 4 349 3 is_stmt 1 view .LVU594
 2131 043c FFF7FEFF 		bl	_stats_start_measure_crit_thd
 2132              	.LVL152:
 2133              		.loc 4 350 3 view .LVU595
 2134 0440 FFF7FEFF 		bl	_dbg_check_lock
 2135              	.LVL153:
 2136              	.LBE680:
 2137              	.LBE683:
 2138              	.LBE705:
 2139              		.loc 1 1341 9 view .LVU596
 2140              		.loc 1 1341 23 is_stmt 0 view .LVU597
 2141 0444 AB68     		ldr	r3, [r5, #8]
 2142 0446 0BF10102 		add	r2, fp, #1
 2143 044a 43F00103 		orr	r3, r3, #1
 2144 044e 0192     		str	r2, [sp, #4]
 2145 0450 AB60     		str	r3, [r5, #8]
 2146              		.loc 1 1342 9 is_stmt 1 view .LVU598
 2147 0452 91E7     		b	.L76
 2148              	.L132:
 2149              		.align	2
 2150              	.L131:
 2151 0454 00000000 		.word	.LANCHOR0
 2152              	.LBE725:
 2153              	.LBE750:
 2154              		.cfi_endproc
 2155              	.LFE292:
 2156              		.size	usb_lld_pump, .-usb_lld_pump
 2157              		.section	.rodata.usb_lld_init.cst4,"aM",%progbits,4
 2158              		.align	2
 2159              	.LC3:
 2160 0000 00000000 		.word	__stack_chk_guard
 2161              		.section	.text.usb_lld_init,"ax",%progbits
 2162              		.align	1
 2163              		.p2align 4,,15
ARM GAS  /tmp/ccqWEI8l.s 			page 39


 2164              		.global	usb_lld_init
 2165              		.syntax unified
 2166              		.thumb
 2167              		.thumb_func
 2168              		.fpu fpv4-sp-d16
 2169              		.type	usb_lld_init, %function
 2170              	usb_lld_init:
 2171              	.LFB274:
 2172              		.loc 1 744 25 view -0
 2173              		.cfi_startproc
 2174              		@ args = 0, pretend = 0, frame = 8
 2175              		@ frame_needed = 0, uses_anonymous_args = 0
 2176 0000 30B5     		push	{r4, r5, lr}
 2177              		.cfi_def_cfa_offset 12
 2178              		.cfi_offset 4, -12
 2179              		.cfi_offset 5, -8
 2180              		.cfi_offset 14, -4
 2181              		.loc 1 748 3 is_stmt 0 view .LVU600
 2182 0002 154C     		ldr	r4, .L138
 2183              		.loc 1 744 25 view .LVU601
 2184 0004 154B     		ldr	r3, .L138+4
 2185              		.loc 1 751 19 view .LVU602
 2186 0006 164D     		ldr	r5, .L138+8
 2187              		.loc 1 744 25 view .LVU603
 2188 0008 83B0     		sub	sp, sp, #12
 2189              		.cfi_def_cfa_offset 24
 2190              		.loc 1 748 3 view .LVU604
 2191 000a 2046     		mov	r0, r4
 2192              		.loc 1 744 25 view .LVU605
 2193 000c 1B68     		ldr	r3, [r3]
 2194 000e 0193     		str	r3, [sp, #4]
 2195 0010 4FF00003 		mov	r3,#0
 2196              		.loc 1 748 3 is_stmt 1 view .LVU606
 2197 0014 FFF7FEFF 		bl	usbObjectInit
 2198              	.LVL154:
 2199              		.loc 1 749 3 view .LVU607
 2200              		.loc 1 750 19 is_stmt 0 view .LVU608
 2201 0018 4FF0A043 		mov	r3, #1342177280
 2202 001c 2365     		str	r3, [r4, #80]
 2203              	.LBB751:
 2204              		.loc 1 760 5 view .LVU609
 2205 001e FF22     		movs	r2, #255
 2206              	.LBE751:
 2207              		.loc 1 749 19 view .LVU610
 2208 0020 0023     		movs	r3, #0
 2209              	.LBB752:
 2210              		.loc 1 760 5 view .LVU611
 2211 0022 04F1D001 		add	r1, r4, #208
 2212 0026 04F16800 		add	r0, r4, #104
 2213              	.LBE752:
 2214              		.loc 1 754 12 view .LVU612
 2215 002a C4E91833 		strd	r3, r3, [r4, #96]
 2216              	.LBB753:
 2217              		.loc 1 759 5 is_stmt 1 view .LVU613
 2218              	.LVL155:
 2219              		.loc 1 760 5 view .LVU614
 2220              	.LBE753:
ARM GAS  /tmp/ccqWEI8l.s 			page 40


 2221              		.loc 1 751 19 is_stmt 0 view .LVU615
 2222 002e 6565     		str	r5, [r4, #84]
 2223              	.LBB754:
 2224              		.loc 1 760 5 view .LVU616
 2225 0030 FFF7FEFF 		bl	_thread_memfill
 2226              	.LVL156:
 2227              		.loc 1 763 5 is_stmt 1 view .LVU617
 2228 0034 094B     		ldr	r3, .L138+4
 2229 0036 1A68     		ldr	r2, [r3]
 2230 0038 019B     		ldr	r3, [sp, #4]
 2231 003a 5A40     		eors	r2, r3, r2
 2232 003c 09D1     		bne	.L137
 2233 003e 5522     		movs	r2, #85
 2234 0040 04F51871 		add	r1, r4, #608
 2235 0044 04F1D000 		add	r0, r4, #208
 2236              	.LBE754:
 2237              		.loc 1 794 1 is_stmt 0 view .LVU618
 2238 0048 03B0     		add	sp, sp, #12
 2239              		.cfi_remember_state
 2240              		.cfi_def_cfa_offset 12
 2241              		@ sp needed
 2242 004a BDE83040 		pop	{r4, r5, lr}
 2243              		.cfi_restore 14
 2244              		.cfi_restore 5
 2245              		.cfi_restore 4
 2246              		.cfi_def_cfa_offset 0
 2247              	.LBB755:
 2248              		.loc 1 763 5 view .LVU619
 2249 004e FFF7FEBF 		b	_thread_memfill
 2250              	.LVL157:
 2251              	.L137:
 2252              		.cfi_restore_state
 2253 0052 FFF7FEFF 		bl	__stack_chk_fail
 2254              	.LVL158:
 2255              	.L139:
 2256 0056 00BF     		.align	2
 2257              	.L138:
 2258 0058 00000000 		.word	.LANCHOR1
 2259 005c 00000000 		.word	.LC3
 2260 0060 00000000 		.word	.LANCHOR2
 2261              	.LBE755:
 2262              		.cfi_endproc
 2263              	.LFE274:
 2264              		.size	usb_lld_init, .-usb_lld_init
 2265              		.section	.rodata.usb_lld_start.cst4,"aM",%progbits,4
 2266              		.align	2
 2267              	.LC4:
 2268 0000 00000000 		.word	__stack_chk_guard
 2269              		.section	.text.usb_lld_start,"ax",%progbits
 2270              		.align	1
 2271              		.p2align 4,,15
 2272              		.global	usb_lld_start
 2273              		.syntax unified
 2274              		.thumb
 2275              		.thumb_func
 2276              		.fpu fpv4-sp-d16
 2277              		.type	usb_lld_start, %function
ARM GAS  /tmp/ccqWEI8l.s 			page 41


 2278              	usb_lld_start:
 2279              	.LVL159:
 2280              	.LFB275:
 2281              		.loc 1 806 37 is_stmt 1 view -0
 2282              		.cfi_startproc
 2283              		@ args = 0, pretend = 0, frame = 8
 2284              		@ frame_needed = 0, uses_anonymous_args = 0
 2285              		.loc 1 806 37 is_stmt 0 view .LVU621
 2286 0000 70B5     		push	{r4, r5, r6, lr}
 2287              		.cfi_def_cfa_offset 16
 2288              		.cfi_offset 4, -16
 2289              		.cfi_offset 5, -12
 2290              		.cfi_offset 6, -8
 2291              		.cfi_offset 14, -4
 2292 0002 3E4B     		ldr	r3, .L162
 2293 0004 84B0     		sub	sp, sp, #16
 2294              		.cfi_def_cfa_offset 32
 2295              		.loc 1 806 37 view .LVU622
 2296 0006 1B68     		ldr	r3, [r3]
 2297 0008 0393     		str	r3, [sp, #12]
 2298 000a 4FF00003 		mov	r3,#0
 2299              		.loc 1 807 3 is_stmt 1 view .LVU623
 2300              	.LVL160:
 2301              		.loc 1 809 3 view .LVU624
 2302              		.loc 1 809 6 is_stmt 0 view .LVU625
 2303 000e 0378     		ldrb	r3, [r0]	@ zero_extendqisi2
 2304 0010 012B     		cmp	r3, #1
 2305 0012 06D0     		beq	.L156
 2306              	.LVL161:
 2307              	.L140:
 2308              		.loc 1 893 1 view .LVU626
 2309 0014 394B     		ldr	r3, .L162
 2310 0016 1A68     		ldr	r2, [r3]
 2311 0018 039B     		ldr	r3, [sp, #12]
 2312 001a 5A40     		eors	r2, r3, r2
 2313 001c 6BD1     		bne	.L157
 2314 001e 04B0     		add	sp, sp, #16
 2315              		.cfi_remember_state
 2316              		.cfi_def_cfa_offset 16
 2317              		@ sp needed
 2318 0020 70BD     		pop	{r4, r5, r6, pc}
 2319              	.LVL162:
 2320              	.L156:
 2321              		.cfi_restore_state
 2322              		.loc 1 812 8 view .LVU627
 2323 0022 374B     		ldr	r3, .L162+4
 2324              		.loc 1 807 16 view .LVU628
 2325 0024 066D     		ldr	r6, [r0, #80]
 2326              		.loc 1 812 5 is_stmt 1 view .LVU629
 2327              		.loc 1 812 8 is_stmt 0 view .LVU630
 2328 0026 9842     		cmp	r0, r3
 2329 0028 0446     		mov	r4, r0
 2330 002a 3BD0     		beq	.L158
 2331              	.LVL163:
 2332              	.L142:
 2333              		.loc 1 836 5 is_stmt 1 view .LVU631
 2334              		.loc 1 836 21 is_stmt 0 view .LVU632
ARM GAS  /tmp/ccqWEI8l.s 			page 42


 2335 002c 0023     		movs	r3, #0
 2336              		.loc 1 841 19 view .LVU633
 2337 002e 3548     		ldr	r0, .L162+8
 2338              		.loc 1 844 16 view .LVU634
 2339 0030 3549     		ldr	r1, .L162+12
 2340              		.loc 1 836 21 view .LVU635
 2341 0032 E365     		str	r3, [r4, #92]
 2342              		.loc 1 841 5 is_stmt 1 view .LVU636
 2343              		.loc 1 854 17 is_stmt 0 view .LVU637
 2344 0034 4FF45022 		mov	r2, #851968
 2345              		.loc 1 841 19 view .LVU638
 2346 0038 F060     		str	r0, [r6, #12]
 2347              		.loc 1 844 5 is_stmt 1 view .LVU639
 2348              		.loc 1 844 16 is_stmt 0 view .LVU640
 2349 003a C6F80018 		str	r1, [r6, #2048]
 2350              		.loc 1 847 5 is_stmt 1 view .LVU641
 2351              		.loc 1 847 19 is_stmt 0 view .LVU642
 2352 003e C6F8003E 		str	r3, [r6, #3584]
 2353              		.loc 1 854 5 is_stmt 1 view .LVU643
 2354              		.loc 1 854 17 is_stmt 0 view .LVU644
 2355 0042 B263     		str	r2, [r6, #56]
 2356              		.loc 1 858 5 is_stmt 1 view .LVU645
 2357 0044 256D     		ldr	r5, [r4, #80]
 2358              	.LBB764:
 2359              	.LBI764:
 2360              		.loc 1 115 13 view .LVU646
 2361              	.LVL164:
 2362              	.LBB765:
 2363              		.loc 1 116 3 view .LVU647
 2364              		.loc 1 118 3 view .LVU648
 2365              	.LBB766:
 2366              	.LBI766:
 2367              		.loc 3 525 20 view .LVU649
 2368              	.LBB767:
 2369              		.loc 3 527 3 view .LVU650
 2370 0046 2020     		movs	r0, #32
 2371 0048 FFF7FEFF 		bl	chSysPolledDelayX
 2372              	.LVL165:
 2373              		.loc 3 527 3 is_stmt 0 view .LVU651
 2374              	.LBE767:
 2375              	.LBE766:
 2376              		.loc 1 121 3 is_stmt 1 view .LVU652
 2377              		.loc 1 121 17 is_stmt 0 view .LVU653
 2378 004c 0123     		movs	r3, #1
 2379 004e 2B61     		str	r3, [r5, #16]
 2380              		.loc 1 122 3 is_stmt 1 view .LVU654
 2381              	.L143:
 2382              		.loc 1 123 5 view .LVU655
 2383              		.loc 1 122 9 view .LVU656
 2384              		.loc 1 122 15 is_stmt 0 view .LVU657
 2385 0050 2B69     		ldr	r3, [r5, #16]
 2386              		.loc 1 122 9 view .LVU658
 2387 0052 DB07     		lsls	r3, r3, #31
 2388 0054 FCD4     		bmi	.L143
 2389              		.loc 1 125 3 is_stmt 1 view .LVU659
 2390              	.LVL166:
 2391              	.LBB768:
ARM GAS  /tmp/ccqWEI8l.s 			page 43


 2392              	.LBI768:
 2393              		.loc 3 525 20 view .LVU660
 2394              	.LBB769:
 2395              		.loc 3 527 3 view .LVU661
 2396 0056 0C20     		movs	r0, #12
 2397 0058 FFF7FEFF 		bl	chSysPolledDelayX
 2398              	.LVL167:
 2399              	.L144:
 2400              		.loc 3 527 3 is_stmt 0 view .LVU662
 2401              	.LBE769:
 2402              	.LBE768:
 2403              		.loc 1 129 5 is_stmt 1 view .LVU663
 2404              		.loc 1 128 9 view .LVU664
 2405              		.loc 1 128 15 is_stmt 0 view .LVU665
 2406 005c 2B69     		ldr	r3, [r5, #16]
 2407              		.loc 1 128 9 view .LVU666
 2408 005e 002B     		cmp	r3, #0
 2409 0060 FCDA     		bge	.L144
 2410              	.LVL168:
 2411              		.loc 1 128 9 view .LVU667
 2412              	.LBE765:
 2413              	.LBE764:
 2414              		.loc 1 861 5 is_stmt 1 view .LVU668
 2415              		.loc 1 861 19 is_stmt 0 view .LVU669
 2416 0062 0025     		movs	r5, #0
 2417 0064 B560     		str	r5, [r6, #8]
 2418              		.loc 1 864 5 is_stmt 1 view .LVU670
 2419 0066 206D     		ldr	r0, [r4, #80]
 2420 0068 04F15401 		add	r1, r4, #84
 2421 006c FFF7FEFF 		bl	otg_disable_ep.isra.0
 2422              	.LVL169:
 2423              		.loc 1 868 5 view .LVU671
 2424              		.loc 1 868 20 is_stmt 0 view .LVU672
 2425 0070 C6F81058 		str	r5, [r6, #2064]
 2426              		.loc 1 869 5 is_stmt 1 view .LVU673
 2427              		.loc 1 869 20 is_stmt 0 view .LVU674
 2428 0074 C6F81458 		str	r5, [r6, #2068]
 2429              		.loc 1 870 5 is_stmt 1 view .LVU675
 2430              		.loc 1 870 20 is_stmt 0 view .LVU676
 2431 0078 C6F81C58 		str	r5, [r6, #2076]
 2432              		.loc 1 871 5 is_stmt 1 view .LVU677
 2433              		.loc 1 871 21 is_stmt 0 view .LVU678
 2434 007c 6368     		ldr	r3, [r4, #4]
 2435              		.loc 1 871 8 view .LVU679
 2436 007e DB68     		ldr	r3, [r3, #12]
 2437 0080 63B1     		cbz	r3, .L159
 2438              		.loc 1 875 7 is_stmt 1 view .LVU680
 2439              		.loc 1 875 22 is_stmt 0 view .LVU681
 2440 0082 43F20803 		movw	r3, #12296
 2441 0086 B361     		str	r3, [r6, #24]
 2442              	.L146:
 2443              		.loc 1 877 5 is_stmt 1 view .LVU682
 2444              		.loc 1 877 20 is_stmt 0 view .LVU683
 2445 0088 4FF0FF33 		mov	r3, #-1
 2446 008c 7361     		str	r3, [r6, #20]
 2447              		.loc 1 881 5 is_stmt 1 view .LVU684
 2448              		.loc 1 881 8 is_stmt 0 view .LVU685
ARM GAS  /tmp/ccqWEI8l.s 			page 44


 2449 008e 636E     		ldr	r3, [r4, #100]
 2450 0090 C3B1     		cbz	r3, .L160
 2451              	.L147:
 2452              		.loc 1 891 5 is_stmt 1 view .LVU686
 2453              		.loc 1 891 19 is_stmt 0 view .LVU687
 2454 0092 B368     		ldr	r3, [r6, #8]
 2455 0094 43F00103 		orr	r3, r3, #1
 2456 0098 B360     		str	r3, [r6, #8]
 2457              		.loc 1 893 1 view .LVU688
 2458 009a BBE7     		b	.L140
 2459              	.L159:
 2460              		.loc 1 872 7 is_stmt 1 view .LVU689
 2461              		.loc 1 872 22 is_stmt 0 view .LVU690
 2462 009c 4FF44053 		mov	r3, #12288
 2463 00a0 B361     		str	r3, [r6, #24]
 2464 00a2 F1E7     		b	.L146
 2465              	.LVL170:
 2466              	.L158:
 2467              		.loc 1 814 7 is_stmt 1 view .LVU691
 2468 00a4 194B     		ldr	r3, .L162+16
 2469 00a6 5A6B     		ldr	r2, [r3, #52]
 2470 00a8 42F08002 		orr	r2, r2, #128
 2471 00ac 5A63     		str	r2, [r3, #52]
 2472              	.LVL171:
 2473              		.loc 1 814 7 view .LVU692
 2474              		.loc 1 814 29 view .LVU693
 2475              		.loc 1 815 7 view .LVU694
 2476 00ae 5A69     		ldr	r2, [r3, #20]
 2477 00b0 0020     		movs	r0, #0
 2478              	.LVL172:
 2479              		.loc 1 815 7 is_stmt 0 view .LVU695
 2480 00b2 42F08002 		orr	r2, r2, #128
 2481 00b6 5A61     		str	r2, [r3, #20]
 2482              		.loc 1 815 7 is_stmt 1 view .LVU696
 2483              		.loc 1 818 7 is_stmt 0 view .LVU697
 2484 00b8 0E21     		movs	r1, #14
 2485              		.loc 1 815 7 view .LVU698
 2486 00ba 5861     		str	r0, [r3, #20]
 2487              		.loc 1 815 23 is_stmt 1 view .LVU699
 2488              		.loc 1 818 7 view .LVU700
 2489 00bc 4320     		movs	r0, #67
 2490 00be FFF7FEFF 		bl	nvicEnableVector
 2491              	.LVL173:
 2492 00c2 B3E7     		b	.L142
 2493              	.LVL174:
 2494              	.L160:
 2495              		.loc 1 882 7 view .LVU701
 2496              		.loc 1 882 18 is_stmt 0 view .LVU702
 2497 00c4 124B     		ldr	r3, .L162+20
 2498 00c6 0094     		str	r4, [sp]
 2499 00c8 4A22     		movs	r2, #74
 2500 00ca 4FF4FC71 		mov	r1, #504
 2501 00ce 04F16800 		add	r0, r4, #104
 2502 00d2 FFF7FEFF 		bl	chThdCreateI
 2503              	.LVL175:
 2504              		.loc 1 882 16 view .LVU703
 2505 00d6 6066     		str	r0, [r4, #100]
ARM GAS  /tmp/ccqWEI8l.s 			page 45


 2506              		.loc 1 885 7 is_stmt 1 view .LVU704
 2507              	.LVL176:
 2508              	.LBB770:
 2509              	.LBI770:
 2510              		.file 7 ".//ChibiOS//os/rt/include/chthreads.h"
 2511              		.loc 7 245 25 view .LVU705
 2512              	.LBB771:
 2513              		.loc 7 247 3 view .LVU706
 2514              		.loc 7 247 3 view .LVU707
 2515              		.loc 7 247 3 view .LVU708
 2516 00d8 90F82030 		ldrb	r3, [r0, #32]	@ zero_extendqisi2
 2517 00dc 022B     		cmp	r3, #2
 2518              	.LBE771:
 2519              	.LBE770:
 2520              		.loc 1 882 18 is_stmt 0 view .LVU709
 2521 00de 0546     		mov	r5, r0
 2522              	.LBB774:
 2523              	.LBB772:
 2524              		.loc 7 247 3 view .LVU710
 2525 00e0 05D1     		bne	.L161
 2526              	.LVL177:
 2527              	.L148:
 2528              		.loc 7 247 3 is_stmt 1 view .LVU711
 2529              		.loc 7 249 3 view .LVU712
 2530              		.loc 7 249 10 is_stmt 0 view .LVU713
 2531 00e2 2846     		mov	r0, r5
 2532 00e4 FFF7FEFF 		bl	chSchReadyI
 2533              	.LVL178:
 2534              		.loc 7 249 10 view .LVU714
 2535              	.LBE772:
 2536              	.LBE774:
 2537              		.loc 1 886 7 is_stmt 1 view .LVU715
 2538 00e8 FFF7FEFF 		bl	chSchRescheduleS
 2539              	.LVL179:
 2540 00ec D1E7     		b	.L147
 2541              	.LVL180:
 2542              	.L161:
 2543              	.LBB775:
 2544              	.LBB773:
 2545              		.loc 7 247 3 view .LVU716
 2546 00ee 0948     		ldr	r0, .L162+24
 2547              	.LVL181:
 2548              		.loc 7 247 3 is_stmt 0 view .LVU717
 2549 00f0 FFF7FEFF 		bl	chSysHalt
 2550              	.LVL182:
 2551 00f4 F5E7     		b	.L148
 2552              	.LVL183:
 2553              	.L157:
 2554              		.loc 7 247 3 view .LVU718
 2555              	.LBE773:
 2556              	.LBE775:
 2557              		.loc 1 893 1 view .LVU719
 2558 00f6 FFF7FEFF 		bl	__stack_chk_fail
 2559              	.LVL184:
 2560              	.L163:
 2561 00fa 00BF     		.align	2
 2562              	.L162:
ARM GAS  /tmp/ccqWEI8l.s 			page 46


 2563 00fc 00000000 		.word	.LC4
 2564 0100 00000000 		.word	.LANCHOR1
 2565 0104 40140040 		.word	1073747008
 2566 0108 03002002 		.word	35651587
 2567 010c 00380240 		.word	1073887232
 2568 0110 00000000 		.word	usb_lld_pump
 2569 0114 00000000 		.word	.LANCHOR3
 2570              		.cfi_endproc
 2571              	.LFE275:
 2572              		.size	usb_lld_start, .-usb_lld_start
 2573              		.section	.rodata.usb_lld_stop.cst4,"aM",%progbits,4
 2574              		.align	2
 2575              	.LC5:
 2576 0000 00000000 		.word	__stack_chk_guard
 2577              		.section	.text.usb_lld_stop,"ax",%progbits
 2578              		.align	1
 2579              		.p2align 4,,15
 2580              		.global	usb_lld_stop
 2581              		.syntax unified
 2582              		.thumb
 2583              		.thumb_func
 2584              		.fpu fpv4-sp-d16
 2585              		.type	usb_lld_stop, %function
 2586              	usb_lld_stop:
 2587              	.LVL185:
 2588              	.LFB276:
 2589              		.loc 1 902 36 is_stmt 1 view -0
 2590              		.cfi_startproc
 2591              		@ args = 0, pretend = 0, frame = 8
 2592              		@ frame_needed = 0, uses_anonymous_args = 0
 2593              		.loc 1 902 36 is_stmt 0 view .LVU721
 2594 0000 30B5     		push	{r4, r5, lr}
 2595              		.cfi_def_cfa_offset 12
 2596              		.cfi_offset 4, -12
 2597              		.cfi_offset 5, -8
 2598              		.cfi_offset 14, -4
 2599 0002 154B     		ldr	r3, .L172
 2600 0004 83B0     		sub	sp, sp, #12
 2601              		.cfi_def_cfa_offset 24
 2602              		.loc 1 902 36 view .LVU722
 2603 0006 1B68     		ldr	r3, [r3]
 2604 0008 0193     		str	r3, [sp, #4]
 2605 000a 4FF00003 		mov	r3,#0
 2606              		.loc 1 903 3 is_stmt 1 view .LVU723
 2607              	.LVL186:
 2608              		.loc 1 906 3 view .LVU724
 2609              		.loc 1 906 6 is_stmt 0 view .LVU725
 2610 000e 0378     		ldrb	r3, [r0]	@ zero_extendqisi2
 2611 0010 012B     		cmp	r3, #1
 2612 0012 06D1     		bne	.L170
 2613              	.LVL187:
 2614              	.L164:
 2615              		.loc 1 932 1 view .LVU726
 2616 0014 104B     		ldr	r3, .L172
 2617 0016 1A68     		ldr	r2, [r3]
 2618 0018 019B     		ldr	r3, [sp, #4]
 2619 001a 5A40     		eors	r2, r3, r2
ARM GAS  /tmp/ccqWEI8l.s 			page 47


 2620 001c 1AD1     		bne	.L171
 2621 001e 03B0     		add	sp, sp, #12
 2622              		.cfi_remember_state
 2623              		.cfi_def_cfa_offset 12
 2624              		@ sp needed
 2625 0020 30BD     		pop	{r4, r5, pc}
 2626              	.LVL188:
 2627              	.L170:
 2628              		.cfi_restore_state
 2629              		.loc 1 903 16 view .LVU727
 2630 0022 056D     		ldr	r5, [r0, #80]
 2631              		.loc 1 910 5 is_stmt 1 view .LVU728
 2632 0024 0446     		mov	r4, r0
 2633 0026 00F15401 		add	r1, r0, #84
 2634 002a 2846     		mov	r0, r5
 2635              	.LVL189:
 2636              		.loc 1 910 5 is_stmt 0 view .LVU729
 2637 002c FFF7FEFF 		bl	otg_disable_ep.isra.0
 2638              	.LVL190:
 2639              		.loc 1 912 5 is_stmt 1 view .LVU730
 2640              		.loc 1 919 8 is_stmt 0 view .LVU731
 2641 0030 0A4A     		ldr	r2, .L172+4
 2642              		.loc 1 912 21 view .LVU732
 2643 0032 0023     		movs	r3, #0
 2644              		.loc 1 919 8 view .LVU733
 2645 0034 9442     		cmp	r4, r2
 2646              		.loc 1 912 21 view .LVU734
 2647 0036 E365     		str	r3, [r4, #92]
 2648              		.loc 1 914 5 is_stmt 1 view .LVU735
 2649              		.loc 1 914 22 is_stmt 0 view .LVU736
 2650 0038 C5F81C38 		str	r3, [r5, #2076]
 2651              		.loc 1 915 5 is_stmt 1 view .LVU737
 2652              		.loc 1 915 22 is_stmt 0 view .LVU738
 2653 003c AB60     		str	r3, [r5, #8]
 2654              		.loc 1 916 5 is_stmt 1 view .LVU739
 2655              		.loc 1 916 22 is_stmt 0 view .LVU740
 2656 003e AB63     		str	r3, [r5, #56]
 2657              		.loc 1 919 5 is_stmt 1 view .LVU741
 2658              		.loc 1 919 8 is_stmt 0 view .LVU742
 2659 0040 E8D1     		bne	.L164
 2660              		.loc 1 920 7 is_stmt 1 view .LVU743
 2661 0042 4320     		movs	r0, #67
 2662 0044 FFF7FEFF 		bl	nvicDisableVector
 2663              	.LVL191:
 2664              		.loc 1 921 7 view .LVU744
 2665 0048 054A     		ldr	r2, .L172+8
 2666 004a 536B     		ldr	r3, [r2, #52]
 2667 004c 23F08003 		bic	r3, r3, #128
 2668 0050 5363     		str	r3, [r2, #52]
 2669              		.loc 1 921 7 view .LVU745
 2670              		.loc 1 921 30 view .LVU746
 2671              		.loc 1 932 1 is_stmt 0 view .LVU747
 2672 0052 DFE7     		b	.L164
 2673              	.LVL192:
 2674              	.L171:
 2675              		.loc 1 932 1 view .LVU748
 2676 0054 FFF7FEFF 		bl	__stack_chk_fail
ARM GAS  /tmp/ccqWEI8l.s 			page 48


 2677              	.LVL193:
 2678              	.L173:
 2679              		.align	2
 2680              	.L172:
 2681 0058 00000000 		.word	.LC5
 2682 005c 00000000 		.word	.LANCHOR1
 2683 0060 00380240 		.word	1073887232
 2684              		.cfi_endproc
 2685              	.LFE276:
 2686              		.size	usb_lld_stop, .-usb_lld_stop
 2687              		.section	.rodata.usb_lld_reset.cst4,"aM",%progbits,4
 2688              		.align	2
 2689              	.LC6:
 2690 0000 00000000 		.word	__stack_chk_guard
 2691              		.section	.text.usb_lld_reset,"ax",%progbits
 2692              		.align	1
 2693              		.p2align 4,,15
 2694              		.global	usb_lld_reset
 2695              		.syntax unified
 2696              		.thumb
 2697              		.thumb_func
 2698              		.fpu fpv4-sp-d16
 2699              		.type	usb_lld_reset, %function
 2700              	usb_lld_reset:
 2701              	.LVL194:
 2702              	.LFB277:
 2703              		.loc 1 941 37 is_stmt 1 view -0
 2704              		.cfi_startproc
 2705              		@ args = 0, pretend = 0, frame = 8
 2706              		@ frame_needed = 0, uses_anonymous_args = 0
 2707              		.loc 1 941 37 is_stmt 0 view .LVU750
 2708 0000 70B5     		push	{r4, r5, r6, lr}
 2709              		.cfi_def_cfa_offset 16
 2710              		.cfi_offset 4, -16
 2711              		.cfi_offset 5, -12
 2712              		.cfi_offset 6, -8
 2713              		.cfi_offset 14, -4
 2714 0002 364A     		ldr	r2, .L186
 2715              		.loc 1 943 16 view .LVU751
 2716 0004 056D     		ldr	r5, [r0, #80]
 2717              		.loc 1 941 37 view .LVU752
 2718 0006 82B0     		sub	sp, sp, #8
 2719              		.cfi_def_cfa_offset 24
 2720              	.LBB776:
 2721              	.LBB777:
 2722              		.loc 1 182 17 view .LVU753
 2723 0008 2023     		movs	r3, #32
 2724              	.LBE777:
 2725              	.LBE776:
 2726              		.loc 1 941 37 view .LVU754
 2727 000a 1268     		ldr	r2, [r2]
 2728 000c 0192     		str	r2, [sp, #4]
 2729 000e 4FF00002 		mov	r2,#0
 2730              		.loc 1 942 3 is_stmt 1 view .LVU755
 2731              		.loc 1 943 3 view .LVU756
 2732              	.LVL195:
 2733              		.loc 1 946 3 view .LVU757
ARM GAS  /tmp/ccqWEI8l.s 			page 49


 2734              		.loc 1 941 37 is_stmt 0 view .LVU758
 2735 0012 0646     		mov	r6, r0
 2736              	.LVL196:
 2737              	.LBB781:
 2738              	.LBI776:
 2739              		.loc 1 179 13 is_stmt 1 view .LVU759
 2740              	.LBB780:
 2741              		.loc 1 180 3 view .LVU760
 2742              		.loc 1 182 3 view .LVU761
 2743              		.loc 1 182 17 is_stmt 0 view .LVU762
 2744 0014 2B61     		str	r3, [r5, #16]
 2745              		.loc 1 183 3 is_stmt 1 view .LVU763
 2746              	.L175:
 2747              		.loc 1 184 5 view .LVU764
 2748              		.loc 1 183 9 view .LVU765
 2749              		.loc 1 183 15 is_stmt 0 view .LVU766
 2750 0016 2C69     		ldr	r4, [r5, #16]
 2751              		.loc 1 183 9 view .LVU767
 2752 0018 14F02004 		ands	r4, r4, #32
 2753 001c FBD1     		bne	.L175
 2754              		.loc 1 186 3 is_stmt 1 view .LVU768
 2755              	.LVL197:
 2756              	.LBB778:
 2757              	.LBI778:
 2758              		.loc 3 525 20 view .LVU769
 2759              	.LBB779:
 2760              		.loc 3 527 3 view .LVU770
 2761 001e 0C20     		movs	r0, #12
 2762              	.LVL198:
 2763              		.loc 3 527 3 is_stmt 0 view .LVU771
 2764 0020 FFF7FEFF 		bl	chSysPolledDelayX
 2765              	.LVL199:
 2766              		.loc 3 527 3 view .LVU772
 2767              	.LBE779:
 2768              	.LBE778:
 2769              	.LBE780:
 2770              	.LBE781:
 2771              		.loc 1 949 3 is_stmt 1 view .LVU773
 2772              		.loc 1 949 15 view .LVU774
 2773              		.loc 1 950 25 is_stmt 0 view .LVU775
 2774 0024 4FF00061 		mov	r1, #134217728
 2775              		.loc 1 952 25 view .LVU776
 2776 0028 FF22     		movs	r2, #255
 2777              	.LVL200:
 2778              	.L176:
 2779              		.loc 1 950 5 is_stmt 1 discriminator 3 view .LVU777
 2780 002a 05EB4413 		add	r3, r5, r4, lsl #5
 2781              		.loc 1 949 53 is_stmt 0 discriminator 3 view .LVU778
 2782 002e 0134     		adds	r4, r4, #1
 2783              	.LVL201:
 2784              		.loc 1 950 25 discriminator 3 view .LVU779
 2785 0030 C3F80019 		str	r1, [r3, #2304]
 2786              		.loc 1 951 5 is_stmt 1 discriminator 3 view .LVU780
 2787              		.loc 1 951 25 is_stmt 0 discriminator 3 view .LVU781
 2788 0034 C3F8001B 		str	r1, [r3, #2816]
 2789              		.loc 1 952 5 is_stmt 1 discriminator 3 view .LVU782
 2790              		.loc 1 952 25 is_stmt 0 discriminator 3 view .LVU783
ARM GAS  /tmp/ccqWEI8l.s 			page 50


 2791 0038 C3F80829 		str	r2, [r3, #2312]
 2792              		.loc 1 953 5 is_stmt 1 discriminator 3 view .LVU784
 2793              		.loc 1 953 25 is_stmt 0 discriminator 3 view .LVU785
 2794 003c C3F8082B 		str	r2, [r3, #2824]
 2795              		.loc 1 949 52 is_stmt 1 discriminator 3 view .LVU786
 2796              	.LVL202:
 2797              		.loc 1 949 15 discriminator 3 view .LVU787
 2798              		.loc 1 949 35 is_stmt 0 discriminator 3 view .LVU788
 2799 0040 736D     		ldr	r3, [r6, #84]
 2800              		.loc 1 949 3 discriminator 3 view .LVU789
 2801 0042 9B68     		ldr	r3, [r3, #8]
 2802 0044 A342     		cmp	r3, r4
 2803 0046 F0D2     		bcs	.L176
 2804              		.loc 1 957 3 is_stmt 1 view .LVU790
 2805              		.loc 1 957 15 is_stmt 0 view .LVU791
 2806 0048 4FF0FF32 		mov	r2, #-1
 2807              		.loc 1 958 18 view .LVU792
 2808 004c 4FF00113 		mov	r3, #65537
 2809              		.loc 1 957 15 view .LVU793
 2810 0050 C5F81828 		str	r2, [r5, #2072]
 2811              		.loc 1 958 3 is_stmt 1 view .LVU794
 2812              		.loc 1 958 18 is_stmt 0 view .LVU795
 2813 0054 C5F81C38 		str	r3, [r5, #2076]
 2814              		.loc 1 961 3 is_stmt 1 view .LVU796
 2815              	.LBB782:
 2816              	.LBI782:
 2817              		.loc 1 196 13 view .LVU797
 2818              	.LVL203:
 2819              	.LBB783:
 2820              		.loc 1 198 3 view .LVU798
 2821              		.loc 1 198 33 is_stmt 0 view .LVU799
 2822 0058 736D     		ldr	r3, [r6, #84]
 2823 005a 1B68     		ldr	r3, [r3]
 2824              		.loc 1 198 16 view .LVU800
 2825 005c B365     		str	r3, [r6, #88]
 2826              	.LBE783:
 2827              	.LBE782:
 2828              		.loc 1 964 3 is_stmt 1 view .LVU801
 2829              		.loc 1 964 17 is_stmt 0 view .LVU802
 2830 005e 6B62     		str	r3, [r5, #36]
 2831              		.loc 1 965 3 is_stmt 1 view .LVU803
 2832 0060 326D     		ldr	r2, [r6, #80]
 2833              	.LBB784:
 2834              	.LBI784:
 2835              		.loc 1 169 13 view .LVU804
 2836              	.LVL204:
 2837              	.LBB785:
 2838              		.loc 1 170 3 view .LVU805
 2839              		.loc 1 172 3 view .LVU806
 2840              		.loc 1 172 17 is_stmt 0 view .LVU807
 2841 0062 1023     		movs	r3, #16
 2842 0064 1361     		str	r3, [r2, #16]
 2843              		.loc 1 173 3 is_stmt 1 view .LVU808
 2844              	.LVL205:
 2845              	.L177:
 2846              		.loc 1 174 5 view .LVU809
 2847              		.loc 1 173 9 view .LVU810
ARM GAS  /tmp/ccqWEI8l.s 			page 51


 2848              		.loc 1 173 15 is_stmt 0 view .LVU811
 2849 0066 1469     		ldr	r4, [r2, #16]
 2850              		.loc 1 173 9 view .LVU812
 2851 0068 14F01004 		ands	r4, r4, #16
 2852 006c FBD1     		bne	.L177
 2853              		.loc 1 176 3 is_stmt 1 view .LVU813
 2854              	.LVL206:
 2855              	.LBB786:
 2856              	.LBI786:
 2857              		.loc 3 525 20 view .LVU814
 2858              	.LBB787:
 2859              		.loc 3 527 3 view .LVU815
 2860 006e 0C20     		movs	r0, #12
 2861 0070 FFF7FEFF 		bl	chSysPolledDelayX
 2862              	.LVL207:
 2863              		.loc 3 527 3 is_stmt 0 view .LVU816
 2864              	.LBE787:
 2865              	.LBE786:
 2866              	.LBE785:
 2867              	.LBE784:
 2868              		.loc 1 968 3 is_stmt 1 view .LVU817
 2869              		.loc 1 968 21 is_stmt 0 view .LVU818
 2870 0074 D5F80038 		ldr	r3, [r5, #2048]
 2871              		.loc 1 978 23 view .LVU819
 2872 0078 194A     		ldr	r2, .L186+4
 2873              		.loc 1 976 16 view .LVU820
 2874 007a 1A49     		ldr	r1, .L186+8
 2875              		.loc 1 968 46 view .LVU821
 2876 007c 23F4FE63 		bic	r3, r3, #2032
 2877              		.loc 1 968 14 view .LVU822
 2878 0080 C5F80038 		str	r3, [r5, #2048]
 2879              		.loc 1 971 3 is_stmt 1 view .LVU823
 2880              		.loc 1 971 18 is_stmt 0 view .LVU824
 2881 0084 AB69     		ldr	r3, [r5, #24]
 2882 0086 43F44023 		orr	r3, r3, #786432
 2883 008a 43F01003 		orr	r3, r3, #16
 2884 008e AB61     		str	r3, [r5, #24]
 2885              		.loc 1 972 3 is_stmt 1 view .LVU825
 2886              		.loc 1 972 19 is_stmt 0 view .LVU826
 2887 0090 0923     		movs	r3, #9
 2888 0092 C5F81038 		str	r3, [r5, #2064]
 2889              		.loc 1 973 3 is_stmt 1 view .LVU827
 2890              		.loc 1 973 19 is_stmt 0 view .LVU828
 2891 0096 C5F81438 		str	r3, [r5, #2068]
 2892              		.loc 1 976 3 is_stmt 1 view .LVU829
 2893              		.loc 1 976 16 is_stmt 0 view .LVU830
 2894 009a F160     		str	r1, [r6, #12]
 2895              		.loc 1 977 3 is_stmt 1 view .LVU831
 2896              		.loc 1 977 24 is_stmt 0 view .LVU832
 2897 009c C5F8104B 		str	r4, [r5, #2832]
 2898              		.loc 1 978 3 is_stmt 1 view .LVU833
 2899              		.loc 1 978 23 is_stmt 0 view .LVU834
 2900 00a0 C5F8002B 		str	r2, [r5, #2816]
 2901              		.loc 1 980 3 is_stmt 1 view .LVU835
 2902              		.loc 1 980 24 is_stmt 0 view .LVU836
 2903 00a4 C5F81049 		str	r4, [r5, #2320]
 2904              		.loc 1 981 3 is_stmt 1 view .LVU837
ARM GAS  /tmp/ccqWEI8l.s 			page 52


 2905              		.loc 1 981 23 is_stmt 0 view .LVU838
 2906 00a8 C5F80029 		str	r2, [r5, #2304]
 2907              		.loc 1 983 3 is_stmt 1 view .LVU839
 2908              		.loc 1 984 20 is_stmt 0 view .LVU840
 2909 00ac D6E91524 		ldrd	r2, r4, [r6, #84]
 2910              	.LVL208:
 2911              	.LBB788:
 2912              	.LBI788:
 2913              		.loc 1 209 17 is_stmt 1 view .LVU841
 2914              	.LBB789:
 2915              		.loc 1 210 3 view .LVU842
 2916              		.loc 1 212 3 view .LVU843
 2917              		.loc 1 213 3 view .LVU844
 2918              		.loc 1 213 16 is_stmt 0 view .LVU845
 2919 00b0 04F11003 		add	r3, r4, #16
 2920 00b4 B365     		str	r3, [r6, #88]
 2921              		.loc 1 214 3 is_stmt 1 view .LVU846
 2922              		.loc 1 214 3 view .LVU847
 2923              		.loc 1 214 3 view .LVU848
 2924 00b6 5268     		ldr	r2, [r2, #4]
 2925 00b8 9342     		cmp	r3, r2
 2926 00ba 09D8     		bhi	.L184
 2927              	.L178:
 2928              		.loc 1 214 3 view .LVU849
 2929              		.loc 1 216 3 view .LVU850
 2930              	.LVL209:
 2931              		.loc 1 216 3 is_stmt 0 view .LVU851
 2932              	.LBE789:
 2933              	.LBE788:
 2934              		.loc 1 986 1 view .LVU852
 2935 00bc 074B     		ldr	r3, .L186
 2936              		.loc 1 983 63 view .LVU853
 2937 00be 44F48014 		orr	r4, r4, #1048576
 2938              		.loc 1 983 18 view .LVU854
 2939 00c2 AC62     		str	r4, [r5, #40]
 2940              		.loc 1 986 1 view .LVU855
 2941 00c4 1A68     		ldr	r2, [r3]
 2942 00c6 019B     		ldr	r3, [sp, #4]
 2943 00c8 5A40     		eors	r2, r3, r2
 2944 00ca 05D1     		bne	.L185
 2945 00cc 02B0     		add	sp, sp, #8
 2946              		.cfi_remember_state
 2947              		.cfi_def_cfa_offset 16
 2948              		@ sp needed
 2949 00ce 70BD     		pop	{r4, r5, r6, pc}
 2950              	.LVL210:
 2951              	.L184:
 2952              		.cfi_restore_state
 2953              	.LBB791:
 2954              	.LBB790:
 2955              		.loc 1 214 3 is_stmt 1 view .LVU856
 2956 00d0 0548     		ldr	r0, .L186+12
 2957 00d2 FFF7FEFF 		bl	chSysHalt
 2958              	.LVL211:
 2959 00d6 F1E7     		b	.L178
 2960              	.LVL212:
 2961              	.L185:
ARM GAS  /tmp/ccqWEI8l.s 			page 53


 2962              		.loc 1 214 3 is_stmt 0 view .LVU857
 2963              	.LBE790:
 2964              	.LBE791:
 2965              		.loc 1 986 1 view .LVU858
 2966 00d8 FFF7FEFF 		bl	__stack_chk_fail
 2967              	.LVL213:
 2968              	.L187:
 2969              		.align	2
 2970              	.L186:
 2971 00dc 00000000 		.word	.LC6
 2972 00e0 40800010 		.word	268468288
 2973 00e4 00000000 		.word	.LANCHOR4
 2974 00e8 00000000 		.word	.LANCHOR5
 2975              		.cfi_endproc
 2976              	.LFE277:
 2977              		.size	usb_lld_reset, .-usb_lld_reset
 2978              		.section	.rodata.usb_lld_set_address.cst4,"aM",%progbits,4
 2979              		.align	2
 2980              	.LC7:
 2981 0000 00000000 		.word	__stack_chk_guard
 2982              		.section	.text.usb_lld_set_address,"ax",%progbits
 2983              		.align	1
 2984              		.p2align 4,,15
 2985              		.global	usb_lld_set_address
 2986              		.syntax unified
 2987              		.thumb
 2988              		.thumb_func
 2989              		.fpu fpv4-sp-d16
 2990              		.type	usb_lld_set_address, %function
 2991              	usb_lld_set_address:
 2992              	.LVL214:
 2993              	.LFB278:
 2994              		.loc 1 995 43 is_stmt 1 view -0
 2995              		.cfi_startproc
 2996              		@ args = 0, pretend = 0, frame = 8
 2997              		@ frame_needed = 0, uses_anonymous_args = 0
 2998              		.loc 1 995 43 is_stmt 0 view .LVU860
 2999 0000 00B5     		push	{lr}
 3000              		.cfi_def_cfa_offset 4
 3001              		.cfi_offset 14, -4
 3002 0002 0D4B     		ldr	r3, .L192
 3003              		.loc 1 996 16 view .LVU861
 3004 0004 026D     		ldr	r2, [r0, #80]
 3005              		.loc 1 998 48 view .LVU862
 3006 0006 90F84E10 		ldrb	r1, [r0, #78]	@ zero_extendqisi2
 3007              		.loc 1 995 43 view .LVU863
 3008 000a 83B0     		sub	sp, sp, #12
 3009              		.cfi_def_cfa_offset 16
 3010              		.loc 1 995 43 view .LVU864
 3011 000c 1B68     		ldr	r3, [r3]
 3012 000e 0193     		str	r3, [sp, #4]
 3013 0010 4FF00003 		mov	r3,#0
 3014              		.loc 1 996 3 is_stmt 1 view .LVU865
 3015              	.LVL215:
 3016              		.loc 1 998 3 view .LVU866
 3017              		.loc 1 998 21 is_stmt 0 view .LVU867
 3018 0014 D2F80038 		ldr	r3, [r2, #2048]
ARM GAS  /tmp/ccqWEI8l.s 			page 54


 3019              		.loc 1 998 28 view .LVU868
 3020 0018 23F4FE63 		bic	r3, r3, #2032
 3021              		.loc 1 998 46 view .LVU869
 3022 001c 43EA0113 		orr	r3, r3, r1, lsl #4
 3023              		.loc 1 998 14 view .LVU870
 3024 0020 C2F80038 		str	r3, [r2, #2048]
 3025              		.loc 1 999 1 view .LVU871
 3026 0024 044B     		ldr	r3, .L192
 3027 0026 1A68     		ldr	r2, [r3]
 3028 0028 019B     		ldr	r3, [sp, #4]
 3029 002a 5A40     		eors	r2, r3, r2
 3030              	.LVL216:
 3031              		.loc 1 999 1 view .LVU872
 3032 002c 02D1     		bne	.L191
 3033 002e 03B0     		add	sp, sp, #12
 3034              		.cfi_remember_state
 3035              		.cfi_def_cfa_offset 4
 3036              		@ sp needed
 3037 0030 5DF804FB 		ldr	pc, [sp], #4
 3038              	.L191:
 3039              		.cfi_restore_state
 3040 0034 FFF7FEFF 		bl	__stack_chk_fail
 3041              	.LVL217:
 3042              	.L193:
 3043              		.loc 1 999 1 view .LVU873
 3044              		.align	2
 3045              	.L192:
 3046 0038 00000000 		.word	.LC7
 3047              		.cfi_endproc
 3048              	.LFE278:
 3049              		.size	usb_lld_set_address, .-usb_lld_set_address
 3050              		.section	.rodata.usb_lld_init_endpoint.cst4,"aM",%progbits,4
 3051              		.align	2
 3052              	.LC8:
 3053 0000 00000000 		.word	__stack_chk_guard
 3054              		.section	.text.usb_lld_init_endpoint,"ax",%progbits
 3055              		.align	1
 3056              		.p2align 4,,15
 3057              		.global	usb_lld_init_endpoint
 3058              		.syntax unified
 3059              		.thumb
 3060              		.thumb_func
 3061              		.fpu fpv4-sp-d16
 3062              		.type	usb_lld_init_endpoint, %function
 3063              	usb_lld_init_endpoint:
 3064              	.LVL218:
 3065              	.LFB279:
 3066              		.loc 1 1009 57 is_stmt 1 view -0
 3067              		.cfi_startproc
 3068              		@ args = 0, pretend = 0, frame = 8
 3069              		@ frame_needed = 0, uses_anonymous_args = 0
 3070              		.loc 1 1009 57 is_stmt 0 view .LVU875
 3071 0000 2DE9F047 		push	{r4, r5, r6, r7, r8, r9, r10, lr}
 3072              		.cfi_def_cfa_offset 32
 3073              		.cfi_offset 4, -32
 3074              		.cfi_offset 5, -28
 3075              		.cfi_offset 6, -24
ARM GAS  /tmp/ccqWEI8l.s 			page 55


 3076              		.cfi_offset 7, -20
 3077              		.cfi_offset 8, -16
 3078              		.cfi_offset 9, -12
 3079              		.cfi_offset 10, -8
 3080              		.cfi_offset 14, -4
 3081 0004 5D4B     		ldr	r3, .L211
 3082              		.loc 1 1011 16 view .LVU876
 3083 0006 056D     		ldr	r5, [r0, #80]
 3084 0008 00EB8108 		add	r8, r0, r1, lsl #2
 3085              		.loc 1 1009 57 view .LVU877
 3086 000c 82B0     		sub	sp, sp, #8
 3087              		.cfi_def_cfa_offset 40
 3088              		.loc 1 1009 57 view .LVU878
 3089 000e 1B68     		ldr	r3, [r3]
 3090 0010 0193     		str	r3, [sp, #4]
 3091 0012 4FF00003 		mov	r3,#0
 3092              		.loc 1 1010 3 is_stmt 1 view .LVU879
 3093              		.loc 1 1011 3 view .LVU880
 3094              	.LVL219:
 3095              		.loc 1 1014 3 view .LVU881
 3096              		.loc 1 1014 24 is_stmt 0 view .LVU882
 3097 0016 D8F80C30 		ldr	r3, [r8, #12]
 3098              		.loc 1 1014 34 view .LVU883
 3099 001a 1E68     		ldr	r6, [r3]
 3100 001c 06F00306 		and	r6, r6, #3
 3101 0020 731E     		subs	r3, r6, #1
 3102 0022 022B     		cmp	r3, #2
 3103              		.loc 1 1032 25 view .LVU884
 3104 0024 05EB4113 		add	r3, r5, r1, lsl #5
 3105 0028 4FF00002 		mov	r2, #0
 3106 002c C3F8102B 		str	r2, [r3, #2832]
 3107              		.loc 1 1009 57 view .LVU885
 3108 0030 0C46     		mov	r4, r1
 3109 0032 0FB2     		sxth	r7, r1
 3110              		.loc 1 1033 16 view .LVU886
 3111 0034 D8F80C10 		ldr	r1, [r8, #12]
 3112              	.LVL220:
 3113              		.loc 1 1014 34 view .LVU887
 3114 0038 88BF     		it	hi
 3115 003a 514E     		ldrhi	r6, .L211+4
 3116              		.loc 1 1033 6 view .LVU888
 3117 003c CB68     		ldr	r3, [r1, #12]
 3118 003e 9CBF     		itt	ls
 3119 0040 B604     		lslls	r6, r6, #18
 3120 0042 06F18056 		addls	r6, r6, #268435456
 3121              		.loc 1 1009 57 view .LVU889
 3122 0046 8146     		mov	r9, r0
 3123 0048 98BF     		it	ls
 3124 004a 06F50046 		addls	r6, r6, #32768
 3125              	.LVL221:
 3126              		.loc 1 1032 3 is_stmt 1 view .LVU890
 3127              		.loc 1 1033 3 view .LVU891
 3128              		.loc 1 1032 25 is_stmt 0 view .LVU892
 3129 004e 6201     		lsls	r2, r4, #5
 3130              		.loc 1 1033 6 view .LVU893
 3131 0050 002B     		cmp	r3, #0
 3132 0052 7DD0     		beq	.L196
ARM GAS  /tmp/ccqWEI8l.s 			page 56


 3133              		.loc 1 1034 5 is_stmt 1 view .LVU894
 3134              		.loc 1 1034 34 is_stmt 0 view .LVU895
 3135 0054 498A     		ldrh	r1, [r1, #18]
 3136              		.loc 1 1034 26 view .LVU896
 3137 0056 04F15803 		add	r3, r4, #88
 3138 005a 5B01     		lsls	r3, r3, #5
 3139              		.loc 1 1034 32 view .LVU897
 3140 005c 3143     		orrs	r1, r1, r6
 3141              		.loc 1 1034 26 view .LVU898
 3142 005e E950     		str	r1, [r5, r3]
 3143              		.loc 1 1035 5 is_stmt 1 view .LVU899
 3144              		.loc 1 1035 23 is_stmt 0 view .LVU900
 3145 0060 04F11000 		add	r0, r4, #16
 3146              	.LVL222:
 3147              		.loc 1 1035 20 view .LVU901
 3148 0064 D5F81C18 		ldr	r1, [r5, #2076]
 3149              		.loc 1 1035 23 view .LVU902
 3150 0068 0123     		movs	r3, #1
 3151 006a 8340     		lsls	r3, r3, r0
 3152              		.loc 1 1035 20 view .LVU903
 3153 006c 0B43     		orrs	r3, r3, r1
 3154 006e C5F81C38 		str	r3, [r5, #2076]
 3155              	.L197:
 3156              		.loc 1 1043 3 is_stmt 1 view .LVU904
 3157              		.loc 1 1043 25 is_stmt 0 view .LVU905
 3158 0072 AB18     		adds	r3, r5, r2
 3159 0074 0022     		movs	r2, #0
 3160 0076 C3F81029 		str	r2, [r3, #2320]
 3161              		.loc 1 1044 3 is_stmt 1 view .LVU906
 3162              		.loc 1 1044 16 is_stmt 0 view .LVU907
 3163 007a D8F80C20 		ldr	r2, [r8, #12]
 3164              		.loc 1 1044 6 view .LVU908
 3165 007e 9368     		ldr	r3, [r2, #8]
 3166 0080 002B     		cmp	r3, #0
 3167 0082 41D0     		beq	.L198
 3168              		.loc 1 1046 5 is_stmt 1 view .LVU909
 3169              		.loc 1 1046 39 is_stmt 0 view .LVU910
 3170 0084 138A     		ldrh	r3, [r2, #16]
 3171              		.loc 1 1047 22 view .LVU911
 3172 0086 928B     		ldrh	r2, [r2, #28]
 3173              		.loc 1 1046 11 view .LVU912
 3174 0088 9B08     		lsrs	r3, r3, #2
 3175              	.LVL223:
 3176              		.loc 1 1047 5 is_stmt 1 view .LVU913
 3177              		.loc 1 1047 8 is_stmt 0 view .LVU914
 3178 008a 012A     		cmp	r2, #1
 3179              		.loc 1 1048 7 is_stmt 1 view .LVU915
 3180              		.loc 1 1048 13 is_stmt 0 view .LVU916
 3181 008c 88BF     		it	hi
 3182 008e 5343     		mulhi	r3, r2, r3
 3183              	.LVL224:
 3184              		.loc 1 1049 5 is_stmt 1 view .LVU917
 3185              		.loc 1 1050 29 is_stmt 0 view .LVU918
 3186 0090 D9E9152A 		ldrd	r2, r10, [r9, #84]
 3187              	.LVL225:
 3188              	.LBB792:
 3189              	.LBI792:
ARM GAS  /tmp/ccqWEI8l.s 			page 57


 3190              		.loc 1 209 17 is_stmt 1 view .LVU919
 3191              	.LBB793:
 3192              		.loc 1 210 3 view .LVU920
 3193              		.loc 1 212 3 view .LVU921
 3194              		.loc 1 213 3 view .LVU922
 3195              		.loc 1 213 16 is_stmt 0 view .LVU923
 3196 0094 03EB0A01 		add	r1, r3, r10
 3197 0098 C9F85810 		str	r1, [r9, #88]
 3198              		.loc 1 214 3 is_stmt 1 view .LVU924
 3199              		.loc 1 214 3 view .LVU925
 3200              		.loc 1 214 3 view .LVU926
 3201 009c 5268     		ldr	r2, [r2, #4]
 3202 009e 9142     		cmp	r1, r2
 3203              	.LBE793:
 3204              	.LBE792:
 3205              		.loc 1 1049 29 is_stmt 0 view .LVU927
 3206 00a0 4FEA0347 		lsl	r7, r3, #16
 3207              	.LBB796:
 3208              	.LBB794:
 3209              		.loc 1 214 3 view .LVU928
 3210 00a4 2CD8     		bhi	.L209
 3211              	.LVL226:
 3212              	.L200:
 3213              		.loc 1 214 3 is_stmt 1 view .LVU929
 3214              		.loc 1 216 3 view .LVU930
 3215              		.loc 1 216 3 is_stmt 0 view .LVU931
 3216              	.LBE794:
 3217              	.LBE796:
 3218              		.loc 1 1049 27 view .LVU932
 3219 00a6 04F13F02 		add	r2, r4, #63
 3220 00aa 05EB8202 		add	r2, r5, r2, lsl #2
 3221              		.loc 1 1049 53 view .LVU933
 3222 00ae 47EA0A07 		orr	r7, r7, r10
 3223              		.loc 1 1049 27 view .LVU934
 3224 00b2 5760     		str	r7, [r2, #4]
 3225              		.loc 1 1051 5 is_stmt 1 view .LVU935
 3226 00b4 D9F85020 		ldr	r2, [r9, #80]
 3227              	.LVL227:
 3228              	.LBB797:
 3229              	.LBI797:
 3230              		.loc 1 179 13 view .LVU936
 3231              	.LBB798:
 3232              		.loc 1 180 3 view .LVU937
 3233              		.loc 1 182 3 view .LVU938
 3234              		.loc 1 182 19 is_stmt 0 view .LVU939
 3235 00b8 A301     		lsls	r3, r4, #6
 3236              		.loc 1 182 40 view .LVU940
 3237 00ba 43F02003 		orr	r3, r3, #32
 3238              		.loc 1 182 17 view .LVU941
 3239 00be 1361     		str	r3, [r2, #16]
 3240              		.loc 1 183 3 is_stmt 1 view .LVU942
 3241              	.L201:
 3242              		.loc 1 184 5 view .LVU943
 3243              		.loc 1 183 9 view .LVU944
 3244              		.loc 1 183 15 is_stmt 0 view .LVU945
 3245 00c0 1369     		ldr	r3, [r2, #16]
 3246              		.loc 1 183 9 view .LVU946
ARM GAS  /tmp/ccqWEI8l.s 			page 58


 3247 00c2 9906     		lsls	r1, r3, #26
 3248 00c4 FCD4     		bmi	.L201
 3249              		.loc 1 186 3 is_stmt 1 view .LVU947
 3250              	.LVL228:
 3251              	.LBB799:
 3252              	.LBI799:
 3253              		.loc 3 525 20 view .LVU948
 3254              	.LBB800:
 3255              		.loc 3 527 3 view .LVU949
 3256 00c6 0C20     		movs	r0, #12
 3257 00c8 FFF7FEFF 		bl	chSysPolledDelayX
 3258              	.LVL229:
 3259              		.loc 3 527 3 is_stmt 0 view .LVU950
 3260              	.LBE800:
 3261              	.LBE799:
 3262              	.LBE798:
 3263              	.LBE797:
 3264              		.loc 1 1053 5 is_stmt 1 view .LVU951
 3265              		.loc 1 1055 28 is_stmt 0 view .LVU952
 3266 00cc D8F80C30 		ldr	r3, [r8, #12]
 3267 00d0 1B8A     		ldrh	r3, [r3, #16]
 3268              		.loc 1 1053 26 view .LVU953
 3269 00d2 04F14802 		add	r2, r4, #72
 3270              		.loc 1 1054 47 view .LVU954
 3271 00d6 43EA8453 		orr	r3, r3, r4, lsl #22
 3272              		.loc 1 1053 26 view .LVU955
 3273 00da 5201     		lsls	r2, r2, #5
 3274              		.loc 1 1054 47 view .LVU956
 3275 00dc 1E43     		orrs	r6, r6, r3
 3276              	.LVL230:
 3277              		.loc 1 1053 26 view .LVU957
 3278 00de AE50     		str	r6, [r5, r2]
 3279              		.loc 1 1056 5 is_stmt 1 view .LVU958
 3280              		.loc 1 1056 23 is_stmt 0 view .LVU959
 3281 00e0 0121     		movs	r1, #1
 3282              		.loc 1 1056 20 view .LVU960
 3283 00e2 D5F81C38 		ldr	r3, [r5, #2076]
 3284              		.loc 1 1056 23 view .LVU961
 3285 00e6 01FA04F4 		lsl	r4, r1, r4
 3286              		.loc 1 1056 20 view .LVU962
 3287 00ea 1C43     		orrs	r4, r4, r3
 3288 00ec C5F81C48 		str	r4, [r5, #2076]
 3289              	.LVL231:
 3290              	.L194:
 3291              		.loc 1 1064 1 view .LVU963
 3292 00f0 224B     		ldr	r3, .L211
 3293 00f2 1A68     		ldr	r2, [r3]
 3294 00f4 019B     		ldr	r3, [sp, #4]
 3295 00f6 5A40     		eors	r2, r3, r2
 3296 00f8 3ED1     		bne	.L210
 3297 00fa 02B0     		add	sp, sp, #8
 3298              		.cfi_remember_state
 3299              		.cfi_def_cfa_offset 32
 3300              		@ sp needed
 3301 00fc BDE8F087 		pop	{r4, r5, r6, r7, r8, r9, r10, pc}
 3302              	.LVL232:
 3303              	.L209:
ARM GAS  /tmp/ccqWEI8l.s 			page 59


 3304              		.cfi_restore_state
 3305              	.LBB801:
 3306              	.LBB795:
 3307              		.loc 1 214 3 is_stmt 1 view .LVU964
 3308 0100 2048     		ldr	r0, .L211+8
 3309 0102 FFF7FEFF 		bl	chSysHalt
 3310              	.LVL233:
 3311              		.loc 1 214 3 is_stmt 0 view .LVU965
 3312 0106 CEE7     		b	.L200
 3313              	.LVL234:
 3314              	.L198:
 3315              		.loc 1 214 3 view .LVU966
 3316              	.LBE795:
 3317              	.LBE801:
 3318              		.loc 1 1059 5 is_stmt 1 view .LVU967
 3319              		.loc 1 1059 27 is_stmt 0 view .LVU968
 3320 0108 04F13F03 		add	r3, r4, #63
 3321 010c 05EB8303 		add	r3, r5, r3, lsl #2
 3322 0110 1D4A     		ldr	r2, .L211+12
 3323 0112 5A60     		str	r2, [r3, #4]
 3324              		.loc 1 1060 5 is_stmt 1 view .LVU969
 3325 0114 D9F85020 		ldr	r2, [r9, #80]
 3326              	.LVL235:
 3327              	.LBB802:
 3328              	.LBI802:
 3329              		.loc 1 179 13 view .LVU970
 3330              	.LBB803:
 3331              		.loc 1 180 3 view .LVU971
 3332              		.loc 1 182 3 view .LVU972
 3333              		.loc 1 182 19 is_stmt 0 view .LVU973
 3334 0118 A301     		lsls	r3, r4, #6
 3335              		.loc 1 182 40 view .LVU974
 3336 011a 43F02003 		orr	r3, r3, #32
 3337              		.loc 1 182 17 view .LVU975
 3338 011e 1361     		str	r3, [r2, #16]
 3339              		.loc 1 183 3 is_stmt 1 view .LVU976
 3340              	.L203:
 3341              		.loc 1 184 5 view .LVU977
 3342              		.loc 1 183 9 view .LVU978
 3343              		.loc 1 183 15 is_stmt 0 view .LVU979
 3344 0120 1369     		ldr	r3, [r2, #16]
 3345              		.loc 1 183 9 view .LVU980
 3346 0122 9B06     		lsls	r3, r3, #26
 3347 0124 FCD4     		bmi	.L203
 3348              		.loc 1 186 3 is_stmt 1 view .LVU981
 3349              	.LVL236:
 3350              	.LBB804:
 3351              	.LBI804:
 3352              		.loc 3 525 20 view .LVU982
 3353              	.LBB805:
 3354              		.loc 3 527 3 view .LVU983
 3355 0126 05EB4717 		add	r7, r5, r7, lsl #5
 3356 012a 0C20     		movs	r0, #12
 3357 012c FFF7FEFF 		bl	chSysPolledDelayX
 3358              	.LVL237:
 3359              		.loc 3 527 3 is_stmt 0 view .LVU984
 3360              	.LBE805:
ARM GAS  /tmp/ccqWEI8l.s 			page 60


 3361              	.LBE804:
 3362              	.LBE803:
 3363              	.LBE802:
 3364              		.loc 1 1061 5 is_stmt 1 view .LVU985
 3365              		.loc 1 1061 26 is_stmt 0 view .LVU986
 3366 0130 D7F80039 		ldr	r3, [r7, #2304]
 3367 0134 23F40043 		bic	r3, r3, #32768
 3368 0138 C7F80039 		str	r3, [r7, #2304]
 3369              		.loc 1 1062 5 is_stmt 1 view .LVU987
 3370              		.loc 1 1062 20 is_stmt 0 view .LVU988
 3371 013c D5F81C38 		ldr	r3, [r5, #2076]
 3372              		.loc 1 1062 24 view .LVU989
 3373 0140 0122     		movs	r2, #1
 3374 0142 02FA04F4 		lsl	r4, r2, r4
 3375              		.loc 1 1062 20 view .LVU990
 3376 0146 23EA0404 		bic	r4, r3, r4
 3377 014a C5F81C48 		str	r4, [r5, #2076]
 3378 014e CFE7     		b	.L194
 3379              	.LVL238:
 3380              	.L196:
 3381              		.loc 1 1038 5 is_stmt 1 view .LVU991
 3382 0150 05EB4713 		add	r3, r5, r7, lsl #5
 3383              		.loc 1 1039 24 is_stmt 0 view .LVU992
 3384 0154 04F1100C 		add	ip, r4, #16
 3385              		.loc 1 1038 26 view .LVU993
 3386 0158 D3F8000B 		ldr	r0, [r3, #2816]
 3387              	.LVL239:
 3388              		.loc 1 1038 26 view .LVU994
 3389 015c 20F40040 		bic	r0, r0, #32768
 3390 0160 C3F8000B 		str	r0, [r3, #2816]
 3391              		.loc 1 1039 5 is_stmt 1 view .LVU995
 3392              		.loc 1 1039 20 is_stmt 0 view .LVU996
 3393 0164 D5F81C38 		ldr	r3, [r5, #2076]
 3394              		.loc 1 1039 24 view .LVU997
 3395 0168 0121     		movs	r1, #1
 3396 016a 01FA0CF1 		lsl	r1, r1, ip
 3397              		.loc 1 1039 20 view .LVU998
 3398 016e 23EA0103 		bic	r3, r3, r1
 3399 0172 C5F81C38 		str	r3, [r5, #2076]
 3400 0176 7CE7     		b	.L197
 3401              	.LVL240:
 3402              	.L210:
 3403              		.loc 1 1064 1 view .LVU999
 3404 0178 FFF7FEFF 		bl	__stack_chk_fail
 3405              	.LVL241:
 3406              	.L212:
 3407              		.align	2
 3408              	.L211:
 3409 017c 00000000 		.word	.LC8
 3410 0180 00800010 		.word	268468224
 3411 0184 00000000 		.word	.LANCHOR5
 3412 0188 00040002 		.word	33555456
 3413              		.cfi_endproc
 3414              	.LFE279:
 3415              		.size	usb_lld_init_endpoint, .-usb_lld_init_endpoint
 3416              		.section	.rodata.usb_lld_disable_endpoints.cst4,"aM",%progbits,4
 3417              		.align	2
ARM GAS  /tmp/ccqWEI8l.s 			page 61


 3418              	.LC9:
 3419 0000 00000000 		.word	__stack_chk_guard
 3420              		.section	.text.usb_lld_disable_endpoints,"ax",%progbits
 3421              		.align	1
 3422              		.p2align 4,,15
 3423              		.global	usb_lld_disable_endpoints
 3424              		.syntax unified
 3425              		.thumb
 3426              		.thumb_func
 3427              		.fpu fpv4-sp-d16
 3428              		.type	usb_lld_disable_endpoints, %function
 3429              	usb_lld_disable_endpoints:
 3430              	.LVL242:
 3431              	.LFB280:
 3432              		.loc 1 1073 49 is_stmt 1 view -0
 3433              		.cfi_startproc
 3434              		@ args = 0, pretend = 0, frame = 8
 3435              		@ frame_needed = 0, uses_anonymous_args = 0
 3436              		.loc 1 1073 49 is_stmt 0 view .LVU1001
 3437 0000 00B5     		push	{lr}
 3438              		.cfi_def_cfa_offset 4
 3439              		.cfi_offset 14, -4
 3440 0002 0C4B     		ldr	r3, .L218
 3441 0004 83B0     		sub	sp, sp, #12
 3442              		.cfi_def_cfa_offset 16
 3443              		.loc 1 1073 49 view .LVU1002
 3444 0006 1B68     		ldr	r3, [r3]
 3445 0008 0193     		str	r3, [sp, #4]
 3446 000a 4FF00003 		mov	r3,#0
 3447              		.loc 1 1076 3 is_stmt 1 view .LVU1003
 3448              	.LBB806:
 3449              	.LBI806:
 3450              		.loc 1 196 13 view .LVU1004
 3451              	.LVL243:
 3452              	.LBB807:
 3453              		.loc 1 198 3 view .LVU1005
 3454              		.loc 1 198 33 is_stmt 0 view .LVU1006
 3455 000e 436D     		ldr	r3, [r0, #84]
 3456 0010 1B68     		ldr	r3, [r3]
 3457              		.loc 1 198 16 view .LVU1007
 3458 0012 8365     		str	r3, [r0, #88]
 3459              	.LBE807:
 3460              	.LBE806:
 3461              		.loc 1 1079 3 is_stmt 1 view .LVU1008
 3462 0014 074B     		ldr	r3, .L218
 3463 0016 1A68     		ldr	r2, [r3]
 3464 0018 019B     		ldr	r3, [sp, #4]
 3465 001a 5A40     		eors	r2, r3, r2
 3466 001c 07D1     		bne	.L217
 3467 001e 00F15401 		add	r1, r0, #84
 3468 0022 006D     		ldr	r0, [r0, #80]
 3469              	.LVL244:
 3470              		.loc 1 1080 1 is_stmt 0 view .LVU1009
 3471 0024 03B0     		add	sp, sp, #12
 3472              		.cfi_remember_state
 3473              		.cfi_def_cfa_offset 4
 3474              		@ sp needed
ARM GAS  /tmp/ccqWEI8l.s 			page 62


 3475 0026 5DF804EB 		ldr	lr, [sp], #4
 3476              		.cfi_restore 14
 3477              		.cfi_def_cfa_offset 0
 3478              		.loc 1 1079 3 view .LVU1010
 3479 002a FFF7FEBF 		b	otg_disable_ep.isra.0
 3480              	.LVL245:
 3481              	.L217:
 3482              		.cfi_restore_state
 3483              		.loc 1 1079 3 view .LVU1011
 3484 002e FFF7FEFF 		bl	__stack_chk_fail
 3485              	.LVL246:
 3486              	.L219:
 3487              		.loc 1 1079 3 view .LVU1012
 3488 0032 00BF     		.align	2
 3489              	.L218:
 3490 0034 00000000 		.word	.LC9
 3491              		.cfi_endproc
 3492              	.LFE280:
 3493              		.size	usb_lld_disable_endpoints, .-usb_lld_disable_endpoints
 3494              		.section	.rodata.usb_lld_get_status_out.cst4,"aM",%progbits,4
 3495              		.align	2
 3496              	.LC10:
 3497 0000 00000000 		.word	__stack_chk_guard
 3498              		.section	.text.usb_lld_get_status_out,"ax",%progbits
 3499              		.align	1
 3500              		.p2align 4,,15
 3501              		.global	usb_lld_get_status_out
 3502              		.syntax unified
 3503              		.thumb
 3504              		.thumb_func
 3505              		.fpu fpv4-sp-d16
 3506              		.type	usb_lld_get_status_out, %function
 3507              	usb_lld_get_status_out:
 3508              	.LVL247:
 3509              	.LFB281:
 3510              		.loc 1 1094 67 is_stmt 1 view -0
 3511              		.cfi_startproc
 3512              		@ args = 0, pretend = 0, frame = 8
 3513              		@ frame_needed = 0, uses_anonymous_args = 0
 3514              		.loc 1 1094 67 is_stmt 0 view .LVU1014
 3515 0000 00B5     		push	{lr}
 3516              		.cfi_def_cfa_offset 4
 3517              		.cfi_offset 14, -4
 3518 0002 0E4A     		ldr	r2, .L227
 3519              		.loc 1 1099 13 view .LVU1015
 3520 0004 036D     		ldr	r3, [r0, #80]
 3521              		.loc 1 1094 67 view .LVU1016
 3522 0006 83B0     		sub	sp, sp, #12
 3523              		.cfi_def_cfa_offset 16
 3524              		.loc 1 1099 7 view .LVU1017
 3525 0008 5831     		adds	r1, r1, #88
 3526              	.LVL248:
 3527              		.loc 1 1099 7 view .LVU1018
 3528 000a 4901     		lsls	r1, r1, #5
 3529              		.loc 1 1094 67 view .LVU1019
 3530 000c 1268     		ldr	r2, [r2]
 3531 000e 0192     		str	r2, [sp, #4]
ARM GAS  /tmp/ccqWEI8l.s 			page 63


 3532 0010 4FF00002 		mov	r2,#0
 3533              		.loc 1 1095 3 is_stmt 1 view .LVU1020
 3534              		.loc 1 1097 3 view .LVU1021
 3535              		.loc 1 1099 3 view .LVU1022
 3536              		.loc 1 1099 7 is_stmt 0 view .LVU1023
 3537 0014 5B58     		ldr	r3, [r3, r1]
 3538              	.LVL249:
 3539              		.loc 1 1100 3 is_stmt 1 view .LVU1024
 3540              		.loc 1 1100 6 is_stmt 0 view .LVU1025
 3541 0016 13F40040 		ands	r0, r3, #32768
 3542              	.LVL250:
 3543              		.loc 1 1100 6 view .LVU1026
 3544 001a 04D0     		beq	.L221
 3545              		.loc 1 1102 3 is_stmt 1 view .LVU1027
 3546              		.loc 1 1102 6 is_stmt 0 view .LVU1028
 3547 001c 13F4001F 		tst	r3, #2097152
 3548              		.loc 1 1103 12 view .LVU1029
 3549 0020 0CBF     		ite	eq
 3550 0022 0220     		moveq	r0, #2
 3551 0024 0120     		movne	r0, #1
 3552              	.L221:
 3553              		.loc 1 1105 1 view .LVU1030
 3554 0026 054B     		ldr	r3, .L227
 3555              	.LVL251:
 3556              		.loc 1 1105 1 view .LVU1031
 3557 0028 1A68     		ldr	r2, [r3]
 3558 002a 019B     		ldr	r3, [sp, #4]
 3559 002c 5A40     		eors	r2, r3, r2
 3560 002e 02D1     		bne	.L226
 3561 0030 03B0     		add	sp, sp, #12
 3562              		.cfi_remember_state
 3563              		.cfi_def_cfa_offset 4
 3564              		@ sp needed
 3565 0032 5DF804FB 		ldr	pc, [sp], #4
 3566              	.L226:
 3567              		.cfi_restore_state
 3568 0036 FFF7FEFF 		bl	__stack_chk_fail
 3569              	.LVL252:
 3570              	.L228:
 3571 003a 00BF     		.align	2
 3572              	.L227:
 3573 003c 00000000 		.word	.LC10
 3574              		.cfi_endproc
 3575              	.LFE281:
 3576              		.size	usb_lld_get_status_out, .-usb_lld_get_status_out
 3577              		.section	.rodata.usb_lld_get_status_in.cst4,"aM",%progbits,4
 3578              		.align	2
 3579              	.LC11:
 3580 0000 00000000 		.word	__stack_chk_guard
 3581              		.section	.text.usb_lld_get_status_in,"ax",%progbits
 3582              		.align	1
 3583              		.p2align 4,,15
 3584              		.global	usb_lld_get_status_in
 3585              		.syntax unified
 3586              		.thumb
 3587              		.thumb_func
 3588              		.fpu fpv4-sp-d16
ARM GAS  /tmp/ccqWEI8l.s 			page 64


 3589              		.type	usb_lld_get_status_in, %function
 3590              	usb_lld_get_status_in:
 3591              	.LVL253:
 3592              	.LFB282:
 3593              		.loc 1 1119 66 is_stmt 1 view -0
 3594              		.cfi_startproc
 3595              		@ args = 0, pretend = 0, frame = 8
 3596              		@ frame_needed = 0, uses_anonymous_args = 0
 3597              		.loc 1 1119 66 is_stmt 0 view .LVU1033
 3598 0000 00B5     		push	{lr}
 3599              		.cfi_def_cfa_offset 4
 3600              		.cfi_offset 14, -4
 3601 0002 0E4A     		ldr	r2, .L236
 3602              		.loc 1 1124 13 view .LVU1034
 3603 0004 036D     		ldr	r3, [r0, #80]
 3604              		.loc 1 1119 66 view .LVU1035
 3605 0006 83B0     		sub	sp, sp, #12
 3606              		.cfi_def_cfa_offset 16
 3607              		.loc 1 1124 7 view .LVU1036
 3608 0008 4831     		adds	r1, r1, #72
 3609              	.LVL254:
 3610              		.loc 1 1124 7 view .LVU1037
 3611 000a 4901     		lsls	r1, r1, #5
 3612              		.loc 1 1119 66 view .LVU1038
 3613 000c 1268     		ldr	r2, [r2]
 3614 000e 0192     		str	r2, [sp, #4]
 3615 0010 4FF00002 		mov	r2,#0
 3616              		.loc 1 1120 3 is_stmt 1 view .LVU1039
 3617              		.loc 1 1122 3 view .LVU1040
 3618              		.loc 1 1124 3 view .LVU1041
 3619              		.loc 1 1124 7 is_stmt 0 view .LVU1042
 3620 0014 5B58     		ldr	r3, [r3, r1]
 3621              	.LVL255:
 3622              		.loc 1 1125 3 is_stmt 1 view .LVU1043
 3623              		.loc 1 1125 6 is_stmt 0 view .LVU1044
 3624 0016 13F40040 		ands	r0, r3, #32768
 3625              	.LVL256:
 3626              		.loc 1 1125 6 view .LVU1045
 3627 001a 04D0     		beq	.L230
 3628              		.loc 1 1127 3 is_stmt 1 view .LVU1046
 3629              		.loc 1 1127 6 is_stmt 0 view .LVU1047
 3630 001c 13F4001F 		tst	r3, #2097152
 3631              		.loc 1 1128 12 view .LVU1048
 3632 0020 0CBF     		ite	eq
 3633 0022 0220     		moveq	r0, #2
 3634 0024 0120     		movne	r0, #1
 3635              	.L230:
 3636              		.loc 1 1130 1 view .LVU1049
 3637 0026 054B     		ldr	r3, .L236
 3638              	.LVL257:
 3639              		.loc 1 1130 1 view .LVU1050
 3640 0028 1A68     		ldr	r2, [r3]
 3641 002a 019B     		ldr	r3, [sp, #4]
 3642 002c 5A40     		eors	r2, r3, r2
 3643 002e 02D1     		bne	.L235
 3644 0030 03B0     		add	sp, sp, #12
 3645              		.cfi_remember_state
ARM GAS  /tmp/ccqWEI8l.s 			page 65


 3646              		.cfi_def_cfa_offset 4
 3647              		@ sp needed
 3648 0032 5DF804FB 		ldr	pc, [sp], #4
 3649              	.L235:
 3650              		.cfi_restore_state
 3651 0036 FFF7FEFF 		bl	__stack_chk_fail
 3652              	.LVL258:
 3653              	.L237:
 3654 003a 00BF     		.align	2
 3655              	.L236:
 3656 003c 00000000 		.word	.LC11
 3657              		.cfi_endproc
 3658              	.LFE282:
 3659              		.size	usb_lld_get_status_in, .-usb_lld_get_status_in
 3660              		.section	.rodata.usb_lld_read_setup.cst4,"aM",%progbits,4
 3661              		.align	2
 3662              	.LC12:
 3663 0000 00000000 		.word	__stack_chk_guard
 3664              		.section	.text.usb_lld_read_setup,"ax",%progbits
 3665              		.align	1
 3666              		.p2align 4,,15
 3667              		.global	usb_lld_read_setup
 3668              		.syntax unified
 3669              		.thumb
 3670              		.thumb_func
 3671              		.fpu fpv4-sp-d16
 3672              		.type	usb_lld_read_setup, %function
 3673              	usb_lld_read_setup:
 3674              	.LVL259:
 3675              	.LFB283:
 3676              		.loc 1 1146 68 is_stmt 1 view -0
 3677              		.cfi_startproc
 3678              		@ args = 0, pretend = 0, frame = 8
 3679              		@ frame_needed = 0, uses_anonymous_args = 0
 3680              		.loc 1 1146 68 is_stmt 0 view .LVU1052
 3681 0000 00B5     		push	{lr}
 3682              		.cfi_def_cfa_offset 4
 3683              		.cfi_offset 14, -4
 3684              		.loc 1 1148 24 view .LVU1053
 3685 0002 00EB8101 		add	r1, r0, r1, lsl #2
 3686              	.LVL260:
 3687              		.loc 1 1146 68 view .LVU1054
 3688 0006 83B0     		sub	sp, sp, #12
 3689              		.cfi_def_cfa_offset 16
 3690              		.loc 1 1148 28 view .LVU1055
 3691 0008 CB68     		ldr	r3, [r1, #12]
 3692              		.loc 1 1146 68 view .LVU1056
 3693 000a 0A49     		ldr	r1, .L242
 3694              		.loc 1 1148 3 view .LVU1057
 3695 000c 1B6A     		ldr	r3, [r3, #32]
 3696              		.loc 1 1146 68 view .LVU1058
 3697 000e 0968     		ldr	r1, [r1]
 3698 0010 0191     		str	r1, [sp, #4]
 3699 0012 4FF00001 		mov	r1,#0
 3700              		.loc 1 1148 3 is_stmt 1 view .LVU1059
 3701 0016 1968     		ldr	r1, [r3]	@ unaligned
 3702 0018 5B68     		ldr	r3, [r3, #4]	@ unaligned
ARM GAS  /tmp/ccqWEI8l.s 			page 66


 3703 001a 5360     		str	r3, [r2, #4]	@ unaligned
 3704              		.loc 1 1149 1 is_stmt 0 view .LVU1060
 3705 001c 054B     		ldr	r3, .L242
 3706              		.loc 1 1148 3 view .LVU1061
 3707 001e 1160     		str	r1, [r2]	@ unaligned
 3708              		.loc 1 1149 1 view .LVU1062
 3709 0020 1A68     		ldr	r2, [r3]
 3710 0022 019B     		ldr	r3, [sp, #4]
 3711 0024 5A40     		eors	r2, r3, r2
 3712              	.LVL261:
 3713              		.loc 1 1149 1 view .LVU1063
 3714 0026 02D1     		bne	.L241
 3715 0028 03B0     		add	sp, sp, #12
 3716              		.cfi_remember_state
 3717              		.cfi_def_cfa_offset 4
 3718              		@ sp needed
 3719 002a 5DF804FB 		ldr	pc, [sp], #4
 3720              	.L241:
 3721              		.cfi_restore_state
 3722 002e FFF7FEFF 		bl	__stack_chk_fail
 3723              	.LVL262:
 3724              	.L243:
 3725              		.loc 1 1149 1 view .LVU1064
 3726 0032 00BF     		.align	2
 3727              	.L242:
 3728 0034 00000000 		.word	.LC12
 3729              		.cfi_endproc
 3730              	.LFE283:
 3731              		.size	usb_lld_read_setup, .-usb_lld_read_setup
 3732              		.section	.rodata.usb_lld_prepare_receive.cst4,"aM",%progbits,4
 3733              		.align	2
 3734              	.LC13:
 3735 0000 00000000 		.word	__stack_chk_guard
 3736              		.section	.text.usb_lld_prepare_receive,"ax",%progbits
 3737              		.align	1
 3738              		.p2align 4,,15
 3739              		.global	usb_lld_prepare_receive
 3740              		.syntax unified
 3741              		.thumb
 3742              		.thumb_func
 3743              		.fpu fpv4-sp-d16
 3744              		.type	usb_lld_prepare_receive, %function
 3745              	usb_lld_prepare_receive:
 3746              	.LVL263:
 3747              	.LFB284:
 3748              		.loc 1 1159 59 is_stmt 1 view -0
 3749              		.cfi_startproc
 3750              		@ args = 0, pretend = 0, frame = 8
 3751              		@ frame_needed = 0, uses_anonymous_args = 0
 3752              		.loc 1 1159 59 is_stmt 0 view .LVU1066
 3753 0000 10B5     		push	{r4, lr}
 3754              		.cfi_def_cfa_offset 8
 3755              		.cfi_offset 4, -8
 3756              		.cfi_offset 14, -4
 3757 0002 144B     		ldr	r3, .L249
 3758 0004 00EB8104 		add	r4, r0, r1, lsl #2
 3759 0008 82B0     		sub	sp, sp, #8
ARM GAS  /tmp/ccqWEI8l.s 			page 67


 3760              		.cfi_def_cfa_offset 16
 3761              		.loc 1 1159 59 view .LVU1067
 3762 000a 1B68     		ldr	r3, [r3]
 3763 000c 0193     		str	r3, [sp, #4]
 3764 000e 4FF00003 		mov	r3,#0
 3765              		.loc 1 1160 3 is_stmt 1 view .LVU1068
 3766              		.loc 1 1161 3 view .LVU1069
 3767              		.loc 1 1161 24 is_stmt 0 view .LVU1070
 3768 0012 E368     		ldr	r3, [r4, #12]
 3769 0014 9A69     		ldr	r2, [r3, #24]
 3770              	.LVL264:
 3771              		.loc 1 1164 3 is_stmt 1 view .LVU1071
 3772              		.loc 1 1164 21 is_stmt 0 view .LVU1072
 3773 0016 5368     		ldr	r3, [r2, #4]
 3774              		.loc 1 1164 16 view .LVU1073
 3775 0018 1361     		str	r3, [r2, #16]
 3776              		.loc 1 1165 3 is_stmt 1 view .LVU1074
 3777              		.loc 1 1165 6 is_stmt 0 view .LVU1075
 3778 001a 19B9     		cbnz	r1, .L245
 3779              		.loc 1 1165 17 discriminator 1 view .LVU1076
 3780 001c 402B     		cmp	r3, #64
 3781              		.loc 1 1166 7 is_stmt 1 discriminator 1 view .LVU1077
 3782              		.loc 1 1166 19 is_stmt 0 discriminator 1 view .LVU1078
 3783 001e 84BF     		itt	hi
 3784 0020 4023     		movhi	r3, #64
 3785 0022 5360     		strhi	r3, [r2, #4]
 3786              	.L245:
 3787              		.loc 1 1168 3 is_stmt 1 view .LVU1079
 3788              		.loc 1 1168 38 is_stmt 0 view .LVU1080
 3789 0024 E268     		ldr	r2, [r4, #12]
 3790              	.LVL265:
 3791              		.loc 1 1170 7 view .LVU1081
 3792 0026 006D     		ldr	r0, [r0, #80]
 3793              	.LVL266:
 3794              		.loc 1 1168 38 view .LVU1082
 3795 0028 548A     		ldrh	r4, [r2, #18]
 3796              	.LVL267:
 3797              		.loc 1 1170 3 is_stmt 1 view .LVU1083
 3798              		.loc 1 1168 52 is_stmt 0 view .LVU1084
 3799 002a 621E     		subs	r2, r4, #1
 3800 002c 1A44     		add	r2, r2, r3
 3801              		.loc 1 1170 30 view .LVU1085
 3802 002e 00EB4111 		add	r1, r0, r1, lsl #5
 3803              	.LVL268:
 3804              		.loc 1 1168 8 view .LVU1086
 3805 0032 B2FBF4F2 		udiv	r2, r2, r4
 3806              		.loc 1 1170 76 view .LVU1087
 3807 0036 43EAC243 		orr	r3, r3, r2, lsl #19
 3808              	.LVL269:
 3809              		.loc 1 1170 76 view .LVU1088
 3810 003a 43F0C043 		orr	r3, r3, #1610612736
 3811              		.loc 1 1170 30 view .LVU1089
 3812 003e C1F8103B 		str	r3, [r1, #2832]
 3813              		.loc 1 1173 1 view .LVU1090
 3814 0042 044B     		ldr	r3, .L249
 3815 0044 1A68     		ldr	r2, [r3]
 3816 0046 019B     		ldr	r3, [sp, #4]
ARM GAS  /tmp/ccqWEI8l.s 			page 68


 3817 0048 5A40     		eors	r2, r3, r2
 3818 004a 01D1     		bne	.L248
 3819 004c 02B0     		add	sp, sp, #8
 3820              		.cfi_remember_state
 3821              		.cfi_def_cfa_offset 8
 3822              		@ sp needed
 3823 004e 10BD     		pop	{r4, pc}
 3824              	.L248:
 3825              		.cfi_restore_state
 3826 0050 FFF7FEFF 		bl	__stack_chk_fail
 3827              	.LVL270:
 3828              	.L250:
 3829              		.align	2
 3830              	.L249:
 3831 0054 00000000 		.word	.LC13
 3832              		.cfi_endproc
 3833              	.LFE284:
 3834              		.size	usb_lld_prepare_receive, .-usb_lld_prepare_receive
 3835              		.section	.rodata.otg_epout_handler.constprop.0.cst4,"aM",%progbits,4
 3836              		.align	2
 3837              	.LC14:
 3838 0000 00000000 		.word	__stack_chk_guard
 3839              		.section	.text.otg_epout_handler.constprop.0,"ax",%progbits
 3840              		.align	1
 3841              		.p2align 4,,15
 3842              		.syntax unified
 3843              		.thumb
 3844              		.thumb_func
 3845              		.fpu fpv4-sp-d16
 3846              		.type	otg_epout_handler.constprop.0, %function
 3847              	otg_epout_handler.constprop.0:
 3848              	.LVL271:
 3849              	.LFB300:
 3850              		.loc 1 581 13 is_stmt 1 view -0
 3851              		.cfi_startproc
 3852              		@ args = 0, pretend = 0, frame = 8
 3853              		@ frame_needed = 0, uses_anonymous_args = 0
 3854              		.loc 1 581 13 is_stmt 0 view .LVU1092
 3855 0000 F0B5     		push	{r4, r5, r6, r7, lr}
 3856              		.cfi_def_cfa_offset 20
 3857              		.cfi_offset 4, -20
 3858              		.cfi_offset 5, -16
 3859              		.cfi_offset 6, -12
 3860              		.cfi_offset 7, -8
 3861              		.cfi_offset 14, -4
 3862              		.loc 1 582 16 view .LVU1093
 3863 0002 324F     		ldr	r7, .L274
 3864              		.loc 1 581 13 view .LVU1094
 3865 0004 324B     		ldr	r3, .L274+4
 3866              		.loc 1 582 16 view .LVU1095
 3867 0006 3E6D     		ldr	r6, [r7, #80]
 3868              		.loc 1 581 13 view .LVU1096
 3869 0008 83B0     		sub	sp, sp, #12
 3870              		.cfi_def_cfa_offset 32
 3871              		.loc 1 581 13 view .LVU1097
 3872 000a 1B68     		ldr	r3, [r3]
 3873 000c 0193     		str	r3, [sp, #4]
ARM GAS  /tmp/ccqWEI8l.s 			page 69


 3874 000e 4FF00003 		mov	r3,#0
 3875              	.LVL272:
 3876              		.loc 1 582 3 is_stmt 1 view .LVU1098
 3877              		.loc 1 583 3 view .LVU1099
 3878              		.loc 1 583 12 is_stmt 0 view .LVU1100
 3879 0012 06EB4013 		add	r3, r6, r0, lsl #5
 3880              		.loc 1 581 13 view .LVU1101
 3881 0016 0446     		mov	r4, r0
 3882              		.loc 1 583 12 view .LVU1102
 3883 0018 D3F8085B 		ldr	r5, [r3, #2824]
 3884              	.LVL273:
 3885              		.loc 1 586 3 is_stmt 1 view .LVU1103
 3886              		.loc 1 586 24 is_stmt 0 view .LVU1104
 3887 001c C3F8085B 		str	r5, [r3, #2824]
 3888              		.loc 1 588 3 is_stmt 1 view .LVU1105
 3889              		.loc 1 588 6 is_stmt 0 view .LVU1106
 3890 0020 2807     		lsls	r0, r5, #28
 3891              	.LVL274:
 3892              		.loc 1 588 6 view .LVU1107
 3893 0022 03D5     		bpl	.L252
 3894              		.loc 1 588 38 view .LVU1108
 3895 0024 D6F81438 		ldr	r3, [r6, #2068]
 3896              		.loc 1 588 30 view .LVU1109
 3897 0028 1907     		lsls	r1, r3, #28
 3898 002a 26D4     		bmi	.L271
 3899              	.L252:
 3900              		.loc 1 591 39 is_stmt 1 view .LVU1110
 3901              		.loc 1 594 3 view .LVU1111
 3902              		.loc 1 594 6 is_stmt 0 view .LVU1112
 3903 002c EA07     		lsls	r2, r5, #31
 3904 002e 03D5     		bpl	.L251
 3905              		.loc 1 594 38 view .LVU1113
 3906 0030 D6F81438 		ldr	r3, [r6, #2068]
 3907              		.loc 1 594 30 view .LVU1114
 3908 0034 DB07     		lsls	r3, r3, #31
 3909 0036 06D4     		bmi	.L272
 3910              	.LVL275:
 3911              	.L251:
 3912              		.loc 1 614 1 view .LVU1115
 3913 0038 254B     		ldr	r3, .L274+4
 3914 003a 1A68     		ldr	r2, [r3]
 3915 003c 019B     		ldr	r3, [sp, #4]
 3916 003e 5A40     		eors	r2, r3, r2
 3917 0040 42D1     		bne	.L270
 3918 0042 03B0     		add	sp, sp, #12
 3919              		.cfi_remember_state
 3920              		.cfi_def_cfa_offset 20
 3921              		@ sp needed
 3922 0044 F0BD     		pop	{r4, r5, r6, r7, pc}
 3923              	.LVL276:
 3924              	.L272:
 3925              		.cfi_restore_state
 3926              	.LBB808:
 3927              		.loc 1 596 5 is_stmt 1 view .LVU1116
 3928              		.loc 1 596 41 is_stmt 0 view .LVU1117
 3929 0046 07EB8403 		add	r3, r7, r4, lsl #2
 3930 004a D968     		ldr	r1, [r3, #12]
ARM GAS  /tmp/ccqWEI8l.s 			page 70


 3931              		.loc 1 596 26 view .LVU1118
 3932 004c 8B69     		ldr	r3, [r1, #24]
 3933              	.LVL277:
 3934              		.loc 1 598 5 is_stmt 1 view .LVU1119
 3935              		.loc 1 598 12 is_stmt 0 view .LVU1120
 3936 004e 5868     		ldr	r0, [r3, #4]
 3937              		.loc 1 598 26 view .LVU1121
 3938 0050 1A69     		ldr	r2, [r3, #16]
 3939              		.loc 1 598 8 view .LVU1122
 3940 0052 9042     		cmp	r0, r2
 3941 0054 19D3     		bcc	.L273
 3942              		.loc 1 611 7 is_stmt 1 view .LVU1123
 3943 0056 7B89     		ldrh	r3, [r7, #10]
 3944              	.LVL278:
 3945              		.loc 1 611 7 is_stmt 0 view .LVU1124
 3946 0058 0122     		movs	r2, #1
 3947 005a A240     		lsls	r2, r2, r4
 3948 005c 23EA0203 		bic	r3, r3, r2
 3949 0060 7B81     		strh	r3, [r7, #10]	@ movhi
 3950              		.loc 1 611 7 is_stmt 1 view .LVU1125
 3951 0062 1B4B     		ldr	r3, .L274+4
 3952 0064 1A68     		ldr	r2, [r3]
 3953 0066 019B     		ldr	r3, [sp, #4]
 3954 0068 5A40     		eors	r2, r3, r2
 3955 006a 2DD1     		bne	.L270
 3956 006c CB68     		ldr	r3, [r1, #12]
 3957 006e 1748     		ldr	r0, .L274
 3958 0070 2146     		mov	r1, r4
 3959              	.LVL279:
 3960              		.loc 1 611 7 is_stmt 0 view .LVU1126
 3961              	.LBE808:
 3962              		.loc 1 614 1 view .LVU1127
 3963 0072 03B0     		add	sp, sp, #12
 3964              		.cfi_remember_state
 3965              		.cfi_def_cfa_offset 20
 3966              		@ sp needed
 3967 0074 BDE8F040 		pop	{r4, r5, r6, r7, lr}
 3968              		.cfi_restore 14
 3969              		.cfi_restore 7
 3970              		.cfi_restore 6
 3971              		.cfi_restore 5
 3972              		.cfi_restore 4
 3973              		.cfi_def_cfa_offset 0
 3974              	.LVL280:
 3975              	.LBB837:
 3976              		.loc 1 611 7 view .LVU1128
 3977 0078 1847     		bx	r3	@ indirect register sibling call
 3978              	.LVL281:
 3979              	.L271:
 3980              		.cfi_restore_state
 3981              		.loc 1 611 7 view .LVU1129
 3982              	.LBE837:
 3983              		.loc 1 591 5 is_stmt 1 view .LVU1130
 3984 007a 07EB8403 		add	r3, r7, r4, lsl #2
 3985 007e 2146     		mov	r1, r4
 3986 0080 DB68     		ldr	r3, [r3, #12]
 3987 0082 3846     		mov	r0, r7
ARM GAS  /tmp/ccqWEI8l.s 			page 71


 3988 0084 5B68     		ldr	r3, [r3, #4]
 3989 0086 9847     		blx	r3
 3990              	.LVL282:
 3991 0088 D0E7     		b	.L252
 3992              	.LVL283:
 3993              	.L273:
 3994              	.LBB838:
 3995              		.loc 1 602 7 view .LVU1131
 3996              		.loc 1 602 34 is_stmt 0 view .LVU1132
 3997 008a 121A     		subs	r2, r2, r0
 3998              		.loc 1 603 19 view .LVU1133
 3999 008c 0025     		movs	r5, #0
 4000              	.LVL284:
 4001              		.loc 1 603 19 view .LVU1134
 4002 008e C3E90125 		strd	r2, r5, [r3, #4]
 4003              		.loc 1 604 7 is_stmt 1 view .LVU1135
 4004 0092 0E48     		ldr	r0, .L274
 4005 0094 2146     		mov	r1, r4
 4006 0096 FFF7FEFF 		bl	usb_lld_prepare_receive
 4007              	.LVL285:
 4008              		.loc 1 605 7 view .LVU1136
 4009              	.LBB809:
 4010              	.LBI809:
 4011              		.loc 4 386 20 view .LVU1137
 4012              	.LBB810:
 4013              		.loc 4 388 3 view .LVU1138
 4014              	.LBB811:
 4015              	.LBI811:
 4016              		.loc 5 473 20 view .LVU1139
 4017              	.LBE811:
 4018              	.LBE810:
 4019              	.LBE809:
 4020              	.LBE838:
 4021              		.loc 5 475 3 view .LVU1140
 4022              	.LBB839:
 4023              	.LBB820:
 4024              	.LBB818:
 4025              	.LBB816:
 4026              	.LBB812:
 4027              	.LBI812:
 4028              		.loc 5 444 20 view .LVU1141
 4029              	.LBE812:
 4030              	.LBE816:
 4031              	.LBE818:
 4032              	.LBE820:
 4033              	.LBE839:
 4034              		.loc 5 447 3 view .LVU1142
 4035              	.LBB840:
 4036              	.LBB821:
 4037              	.LBB819:
 4038              	.LBB817:
 4039              	.LBB815:
 4040              	.LBB813:
 4041              	.LBI813:
 4042              		.loc 6 544 57 view .LVU1143
 4043              	.LBB814:
 4044              		.loc 6 546 3 view .LVU1144
ARM GAS  /tmp/ccqWEI8l.s 			page 72


 4045 009a 2023     		movs	r3, #32
 4046              		.syntax unified
 4047              	@ 546 ".//ChibiOS//os/ext/CMSIS/include/core_cmFunc.h" 1
 4048 009c 83F31188 		MSR basepri, r3
 4049              	@ 0 "" 2
 4050              	.LVL286:
 4051              		.loc 6 546 3 is_stmt 0 view .LVU1145
 4052              		.thumb
 4053              		.syntax unified
 4054              	.LBE814:
 4055              	.LBE813:
 4056              	.LBE815:
 4057              	.LBE817:
 4058              		.loc 4 389 3 is_stmt 1 view .LVU1146
 4059 00a0 FFF7FEFF 		bl	_stats_start_measure_crit_isr
 4060              	.LVL287:
 4061              		.loc 4 390 3 view .LVU1147
 4062 00a4 FFF7FEFF 		bl	_dbg_check_lock_from_isr
 4063              	.LVL288:
 4064              	.LBE819:
 4065              	.LBE821:
 4066              		.loc 1 606 7 view .LVU1148
 4067              	.LBB822:
 4068              	.LBI822:
 4069              		.loc 1 1212 6 view .LVU1149
 4070              	.LBB823:
 4071              		.loc 1 1214 3 view .LVU1150
 4072 00a8 396D     		ldr	r1, [r7, #80]
 4073 00aa 01EB4414 		add	r4, r1, r4, lsl #5
 4074              	.LVL289:
 4075              		.loc 1 1214 29 is_stmt 0 view .LVU1151
 4076 00ae D4F8003B 		ldr	r3, [r4, #2816]
 4077 00b2 43F08063 		orr	r3, r3, #67108864
 4078 00b6 C4F8003B 		str	r3, [r4, #2816]
 4079              	.LVL290:
 4080              		.loc 1 1214 29 view .LVU1152
 4081              	.LBE823:
 4082              	.LBE822:
 4083              		.loc 1 607 7 is_stmt 1 view .LVU1153
 4084              	.LBB824:
 4085              	.LBI824:
 4086              		.loc 4 406 20 view .LVU1154
 4087              	.LBB825:
 4088              		.loc 4 408 3 view .LVU1155
 4089 00ba FFF7FEFF 		bl	_dbg_check_unlock_from_isr
 4090              	.LVL291:
 4091              		.loc 4 409 3 view .LVU1156
 4092 00be FFF7FEFF 		bl	_stats_stop_measure_crit_isr
 4093              	.LVL292:
 4094              		.loc 4 410 3 view .LVU1157
 4095              	.LBB826:
 4096              	.LBI826:
 4097              		.loc 5 484 20 view .LVU1158
 4098              	.LBE826:
 4099              	.LBE825:
 4100              	.LBE824:
 4101              	.LBE840:
ARM GAS  /tmp/ccqWEI8l.s 			page 73


 4102              		.loc 5 486 3 view .LVU1159
 4103              	.LBB841:
 4104              	.LBB835:
 4105              	.LBB833:
 4106              	.LBB831:
 4107              	.LBB827:
 4108              	.LBI827:
 4109              		.loc 5 458 20 view .LVU1160
 4110              	.LBE827:
 4111              	.LBE831:
 4112              	.LBE833:
 4113              	.LBE835:
 4114              	.LBE841:
 4115              		.loc 5 461 3 view .LVU1161
 4116              	.LBB842:
 4117              	.LBB836:
 4118              	.LBB834:
 4119              	.LBB832:
 4120              	.LBB830:
 4121              	.LBB828:
 4122              	.LBI828:
 4123              		.loc 6 544 57 view .LVU1162
 4124              	.LBB829:
 4125              		.loc 6 546 3 view .LVU1163
 4126              		.syntax unified
 4127              	@ 546 ".//ChibiOS//os/ext/CMSIS/include/core_cmFunc.h" 1
 4128 00c2 85F31188 		MSR basepri, r5
 4129              	@ 0 "" 2
 4130              	.LVL293:
 4131              		.loc 6 546 3 is_stmt 0 view .LVU1164
 4132              		.thumb
 4133              		.syntax unified
 4134              	.LBE829:
 4135              	.LBE828:
 4136              	.LBE830:
 4137              	.LBE832:
 4138              		.loc 4 411 1 view .LVU1165
 4139 00c6 B7E7     		b	.L251
 4140              	.L270:
 4141              		.loc 4 411 1 view .LVU1166
 4142              	.LBE834:
 4143              	.LBE836:
 4144              	.LBE842:
 4145              		.loc 1 614 1 view .LVU1167
 4146 00c8 FFF7FEFF 		bl	__stack_chk_fail
 4147              	.LVL294:
 4148              	.L275:
 4149              		.align	2
 4150              	.L274:
 4151 00cc 00000000 		.word	.LANCHOR1
 4152 00d0 00000000 		.word	.LC14
 4153              		.cfi_endproc
 4154              	.LFE300:
 4155              		.size	otg_epout_handler.constprop.0, .-otg_epout_handler.constprop.0
 4156              		.section	.rodata.usb_lld_prepare_transmit.cst4,"aM",%progbits,4
 4157              		.align	2
 4158              	.LC15:
ARM GAS  /tmp/ccqWEI8l.s 			page 74


 4159 0000 00000000 		.word	__stack_chk_guard
 4160              		.section	.text.usb_lld_prepare_transmit,"ax",%progbits
 4161              		.align	1
 4162              		.p2align 4,,15
 4163              		.global	usb_lld_prepare_transmit
 4164              		.syntax unified
 4165              		.thumb
 4166              		.thumb_func
 4167              		.fpu fpv4-sp-d16
 4168              		.type	usb_lld_prepare_transmit, %function
 4169              	usb_lld_prepare_transmit:
 4170              	.LVL295:
 4171              	.LFB285:
 4172              		.loc 1 1183 60 is_stmt 1 view -0
 4173              		.cfi_startproc
 4174              		@ args = 0, pretend = 0, frame = 8
 4175              		@ frame_needed = 0, uses_anonymous_args = 0
 4176              		.loc 1 1183 60 is_stmt 0 view .LVU1169
 4177 0000 10B5     		push	{r4, lr}
 4178              		.cfi_def_cfa_offset 8
 4179              		.cfi_offset 4, -8
 4180              		.cfi_offset 14, -4
 4181 0002 184B     		ldr	r3, .L283
 4182 0004 00EB8104 		add	r4, r0, r1, lsl #2
 4183 0008 82B0     		sub	sp, sp, #8
 4184              		.cfi_def_cfa_offset 16
 4185              		.loc 1 1183 60 view .LVU1170
 4186 000a 1B68     		ldr	r3, [r3]
 4187 000c 0193     		str	r3, [sp, #4]
 4188 000e 4FF00003 		mov	r3,#0
 4189              		.loc 1 1184 3 is_stmt 1 view .LVU1171
 4190              		.loc 1 1184 23 is_stmt 0 view .LVU1172
 4191 0012 E368     		ldr	r3, [r4, #12]
 4192 0014 5A69     		ldr	r2, [r3, #20]
 4193              	.LVL296:
 4194              		.loc 1 1187 3 is_stmt 1 view .LVU1173
 4195              		.loc 1 1187 21 is_stmt 0 view .LVU1174
 4196 0016 5368     		ldr	r3, [r2, #4]
 4197              		.loc 1 1187 16 view .LVU1175
 4198 0018 1361     		str	r3, [r2, #16]
 4199              		.loc 1 1188 3 is_stmt 1 view .LVU1176
 4200              		.loc 1 1188 6 is_stmt 0 view .LVU1177
 4201 001a 6BB9     		cbnz	r3, .L277
 4202              		.loc 1 1190 5 is_stmt 1 view .LVU1178
 4203              		.loc 1 1190 9 is_stmt 0 view .LVU1179
 4204 001c 036D     		ldr	r3, [r0, #80]
 4205              		.loc 1 1190 32 view .LVU1180
 4206 001e 03EB4111 		add	r1, r3, r1, lsl #5
 4207              	.LVL297:
 4208              		.loc 1 1190 32 view .LVU1181
 4209 0022 4FF40023 		mov	r3, #524288
 4210 0026 C1F81039 		str	r3, [r1, #2320]
 4211              	.LVL298:
 4212              	.L276:
 4213              		.loc 1 1202 1 view .LVU1182
 4214 002a 0E4B     		ldr	r3, .L283
 4215 002c 1A68     		ldr	r2, [r3]
ARM GAS  /tmp/ccqWEI8l.s 			page 75


 4216 002e 019B     		ldr	r3, [sp, #4]
 4217 0030 5A40     		eors	r2, r3, r2
 4218 0032 14D1     		bne	.L282
 4219 0034 02B0     		add	sp, sp, #8
 4220              		.cfi_remember_state
 4221              		.cfi_def_cfa_offset 8
 4222              		@ sp needed
 4223 0036 10BD     		pop	{r4, pc}
 4224              	.LVL299:
 4225              	.L277:
 4226              		.cfi_restore_state
 4227              	.LBB843:
 4228              		.loc 1 1193 5 is_stmt 1 view .LVU1183
 4229              		.loc 1 1193 8 is_stmt 0 view .LVU1184
 4230 0038 19B9     		cbnz	r1, .L279
 4231              		.loc 1 1193 19 discriminator 1 view .LVU1185
 4232 003a 402B     		cmp	r3, #64
 4233              		.loc 1 1194 7 is_stmt 1 discriminator 1 view .LVU1186
 4234              		.loc 1 1194 19 is_stmt 0 discriminator 1 view .LVU1187
 4235 003c 84BF     		itt	hi
 4236 003e 4023     		movhi	r3, #64
 4237 0040 5360     		strhi	r3, [r2, #4]
 4238              	.L279:
 4239              		.loc 1 1197 5 is_stmt 1 view .LVU1188
 4240              		.loc 1 1197 49 is_stmt 0 view .LVU1189
 4241 0042 E268     		ldr	r2, [r4, #12]
 4242              	.LVL300:
 4243              		.loc 1 1199 9 view .LVU1190
 4244 0044 006D     		ldr	r0, [r0, #80]
 4245              	.LVL301:
 4246              		.loc 1 1197 49 view .LVU1191
 4247 0046 148A     		ldrh	r4, [r2, #16]
 4248              	.LVL302:
 4249              		.loc 1 1199 5 is_stmt 1 view .LVU1192
 4250              		.loc 1 1199 32 is_stmt 0 view .LVU1193
 4251 0048 00EB4111 		add	r1, r0, r1, lsl #5
 4252              	.LVL303:
 4253              		.loc 1 1197 62 view .LVU1194
 4254 004c 621E     		subs	r2, r4, #1
 4255 004e 1A44     		add	r2, r2, r3
 4256              		.loc 1 1197 14 view .LVU1195
 4257 0050 B2FBF4F2 		udiv	r2, r2, r4
 4258              		.loc 1 1199 56 view .LVU1196
 4259 0054 43EAC243 		orr	r3, r3, r2, lsl #19
 4260              	.LVL304:
 4261              		.loc 1 1199 32 view .LVU1197
 4262 0058 C1F81039 		str	r3, [r1, #2320]
 4263              	.LBE843:
 4264              		.loc 1 1202 1 view .LVU1198
 4265 005c E5E7     		b	.L276
 4266              	.L282:
 4267              		.loc 1 1202 1 view .LVU1199
 4268 005e FFF7FEFF 		bl	__stack_chk_fail
 4269              	.LVL305:
 4270              	.L284:
 4271 0062 00BF     		.align	2
 4272              	.L283:
ARM GAS  /tmp/ccqWEI8l.s 			page 76


 4273 0064 00000000 		.word	.LC15
 4274              		.cfi_endproc
 4275              	.LFE285:
 4276              		.size	usb_lld_prepare_transmit, .-usb_lld_prepare_transmit
 4277              		.section	.rodata.otg_epin_handler.constprop.0.cst4,"aM",%progbits,4
 4278              		.align	2
 4279              	.LC16:
 4280 0000 00000000 		.word	__stack_chk_guard
 4281              		.section	.text.otg_epin_handler.constprop.0,"ax",%progbits
 4282              		.align	1
 4283              		.p2align 4,,15
 4284              		.syntax unified
 4285              		.thumb
 4286              		.thumb_func
 4287              		.fpu fpv4-sp-d16
 4288              		.type	otg_epin_handler.constprop.0, %function
 4289              	otg_epin_handler.constprop.0:
 4290              	.LVL306:
 4291              	.LFB299:
 4292              		.loc 1 533 13 is_stmt 1 view -0
 4293              		.cfi_startproc
 4294              		@ args = 0, pretend = 0, frame = 8
 4295              		@ frame_needed = 0, uses_anonymous_args = 0
 4296              		.loc 1 533 13 is_stmt 0 view .LVU1201
 4297 0000 2DE9F041 		push	{r4, r5, r6, r7, r8, lr}
 4298              		.cfi_def_cfa_offset 24
 4299              		.cfi_offset 4, -24
 4300              		.cfi_offset 5, -20
 4301              		.cfi_offset 6, -16
 4302              		.cfi_offset 7, -12
 4303              		.cfi_offset 8, -8
 4304              		.cfi_offset 14, -4
 4305              		.loc 1 534 16 view .LVU1202
 4306 0004 3E4F     		ldr	r7, .L307
 4307              		.loc 1 533 13 view .LVU1203
 4308 0006 3F4B     		ldr	r3, .L307+4
 4309              		.loc 1 534 16 view .LVU1204
 4310 0008 3E6D     		ldr	r6, [r7, #80]
 4311              		.loc 1 533 13 view .LVU1205
 4312 000a 82B0     		sub	sp, sp, #8
 4313              		.cfi_def_cfa_offset 32
 4314              		.loc 1 533 13 view .LVU1206
 4315 000c 1B68     		ldr	r3, [r3]
 4316 000e 0193     		str	r3, [sp, #4]
 4317 0010 4FF00003 		mov	r3,#0
 4318              	.LVL307:
 4319              		.loc 1 534 3 is_stmt 1 view .LVU1207
 4320              		.loc 1 535 3 view .LVU1208
 4321              		.loc 1 535 12 is_stmt 0 view .LVU1209
 4322 0014 06EB4013 		add	r3, r6, r0, lsl #5
 4323              		.loc 1 533 13 view .LVU1210
 4324 0018 0446     		mov	r4, r0
 4325              		.loc 1 535 12 view .LVU1211
 4326 001a D3F80859 		ldr	r5, [r3, #2312]
 4327              	.LVL308:
 4328              		.loc 1 537 3 is_stmt 1 view .LVU1212
 4329              		.loc 1 537 24 is_stmt 0 view .LVU1213
ARM GAS  /tmp/ccqWEI8l.s 			page 77


 4330 001e C3F80859 		str	r5, [r3, #2312]
 4331              		.loc 1 539 3 is_stmt 1 view .LVU1214
 4332              		.loc 1 541 3 view .LVU1215
 4333              		.loc 1 542 3 view .LVU1216
 4334              		.loc 1 542 6 is_stmt 0 view .LVU1217
 4335 0022 E907     		lsls	r1, r5, #31
 4336 0024 03D5     		bpl	.L286
 4337              		.loc 1 542 38 view .LVU1218
 4338 0026 D6F81038 		ldr	r3, [r6, #2064]
 4339              		.loc 1 542 30 view .LVU1219
 4340 002a DA07     		lsls	r2, r3, #31
 4341 002c 10D4     		bmi	.L303
 4342              	.LVL309:
 4343              	.L286:
 4344              	.LBB844:
 4345              		.loc 1 559 38 is_stmt 1 view .LVU1220
 4346              	.LBE844:
 4347              		.loc 1 562 3 view .LVU1221
 4348              		.loc 1 562 6 is_stmt 0 view .LVU1222
 4349 002e 2B06     		lsls	r3, r5, #24
 4350 0030 06D5     		bpl	.L285
 4351              		.loc 1 563 12 view .LVU1223
 4352 0032 D6F83438 		ldr	r3, [r6, #2100]
 4353              		.loc 1 563 27 view .LVU1224
 4354 0036 0121     		movs	r1, #1
 4355 0038 01FA04F4 		lsl	r4, r1, r4
 4356              		.loc 1 562 30 view .LVU1225
 4357 003c 1C42     		tst	r4, r3
 4358 003e 1AD1     		bne	.L304
 4359              	.L285:
 4360              		.loc 1 571 1 view .LVU1226
 4361 0040 304B     		ldr	r3, .L307+4
 4362 0042 1A68     		ldr	r2, [r3]
 4363 0044 019B     		ldr	r3, [sp, #4]
 4364 0046 5A40     		eors	r2, r3, r2
 4365 0048 58D1     		bne	.L305
 4366 004a 02B0     		add	sp, sp, #8
 4367              		.cfi_remember_state
 4368              		.cfi_def_cfa_offset 24
 4369              		@ sp needed
 4370 004c BDE8F081 		pop	{r4, r5, r6, r7, r8, pc}
 4371              	.LVL310:
 4372              	.L303:
 4373              		.cfi_restore_state
 4374              	.LBB883:
 4375              		.loc 1 544 5 is_stmt 1 view .LVU1227
 4376              		.loc 1 544 40 is_stmt 0 view .LVU1228
 4377 0050 07EB8003 		add	r3, r7, r0, lsl #2
 4378 0054 D968     		ldr	r1, [r3, #12]
 4379              		.loc 1 544 25 view .LVU1229
 4380 0056 4B69     		ldr	r3, [r1, #20]
 4381              	.LVL311:
 4382              		.loc 1 546 5 is_stmt 1 view .LVU1230
 4383              		.loc 1 546 12 is_stmt 0 view .LVU1231
 4384 0058 5868     		ldr	r0, [r3, #4]
 4385              	.LVL312:
 4386              		.loc 1 546 26 view .LVU1232
ARM GAS  /tmp/ccqWEI8l.s 			page 78


 4387 005a 1A69     		ldr	r2, [r3, #16]
 4388              		.loc 1 546 8 view .LVU1233
 4389 005c 9042     		cmp	r0, r2
 4390 005e 26D3     		bcc	.L306
 4391              		.loc 1 559 7 is_stmt 1 view .LVU1234
 4392 0060 3B89     		ldrh	r3, [r7, #8]
 4393              	.LVL313:
 4394              		.loc 1 559 7 is_stmt 0 view .LVU1235
 4395 0062 0122     		movs	r2, #1
 4396 0064 A240     		lsls	r2, r2, r4
 4397 0066 23EA0203 		bic	r3, r3, r2
 4398 006a 3B81     		strh	r3, [r7, #8]	@ movhi
 4399              		.loc 1 559 7 is_stmt 1 view .LVU1236
 4400 006c 8B68     		ldr	r3, [r1, #8]
 4401 006e 3846     		mov	r0, r7
 4402 0070 2146     		mov	r1, r4
 4403              	.LVL314:
 4404              		.loc 1 559 7 is_stmt 0 view .LVU1237
 4405 0072 9847     		blx	r3
 4406              	.LVL315:
 4407              		.loc 1 559 7 view .LVU1238
 4408 0074 DBE7     		b	.L286
 4409              	.L304:
 4410              		.loc 1 559 7 view .LVU1239
 4411              	.LBE883:
 4412              		.loc 1 565 5 is_stmt 1 view .LVU1240
 4413              	.LBB884:
 4414              	.LBI884:
 4415              		.loc 3 467 20 view .LVU1241
 4416              	.LBE884:
 4417              		.loc 3 469 3 view .LVU1242
 4418              	.LBB898:
 4419              	.LBB885:
 4420              	.LBI885:
 4421              		.loc 4 386 20 view .LVU1243
 4422              	.LBB886:
 4423              		.loc 4 388 3 view .LVU1244
 4424              	.LBB887:
 4425              	.LBI887:
 4426              		.loc 5 473 20 view .LVU1245
 4427              	.LBE887:
 4428              	.LBE886:
 4429              	.LBE885:
 4430              	.LBE898:
 4431              		.loc 5 475 3 view .LVU1246
 4432              	.LBB899:
 4433              	.LBB896:
 4434              	.LBB894:
 4435              	.LBB892:
 4436              	.LBB888:
 4437              	.LBI888:
 4438              		.loc 5 444 20 view .LVU1247
 4439              	.LBE888:
 4440              	.LBE892:
 4441              	.LBE894:
 4442              	.LBE896:
 4443              	.LBE899:
ARM GAS  /tmp/ccqWEI8l.s 			page 79


 4444              		.loc 5 447 3 view .LVU1248
 4445              	.LVL316:
 4446              	.LBB900:
 4447              	.LBB897:
 4448              	.LBB895:
 4449              	.LBB893:
 4450              	.LBB891:
 4451              	.LBB889:
 4452              	.LBI889:
 4453              		.loc 6 544 57 view .LVU1249
 4454              	.LBB890:
 4455              		.loc 6 546 3 view .LVU1250
 4456 0076 2023     		movs	r3, #32
 4457              		.syntax unified
 4458              	@ 546 ".//ChibiOS//os/ext/CMSIS/include/core_cmFunc.h" 1
 4459 0078 83F31188 		MSR basepri, r3
 4460              	@ 0 "" 2
 4461              	.LVL317:
 4462              		.loc 6 546 3 is_stmt 0 view .LVU1251
 4463              		.thumb
 4464              		.syntax unified
 4465              	.LBE890:
 4466              	.LBE889:
 4467              	.LBE891:
 4468              	.LBE893:
 4469              		.loc 4 389 3 is_stmt 1 view .LVU1252
 4470 007c FFF7FEFF 		bl	_stats_start_measure_crit_isr
 4471              	.LVL318:
 4472              		.loc 4 390 3 view .LVU1253
 4473 0080 FFF7FEFF 		bl	_dbg_check_lock_from_isr
 4474              	.LVL319:
 4475              	.LBE895:
 4476              	.LBE897:
 4477              	.LBE900:
 4478              		.loc 1 566 5 view .LVU1254
 4479              		.loc 1 567 22 is_stmt 0 view .LVU1255
 4480 0084 D6F83428 		ldr	r2, [r6, #2100]
 4481              		.loc 1 566 21 view .LVU1256
 4482 0088 FB6D     		ldr	r3, [r7, #92]
 4483              	.LBB901:
 4484              	.LBB902:
 4485              		.loc 3 682 3 view .LVU1257
 4486 008a 1F48     		ldr	r0, .L307+8
 4487              	.LBE902:
 4488              	.LBE901:
 4489              		.loc 1 567 22 view .LVU1258
 4490 008c 22EA0402 		bic	r2, r2, r4
 4491 0090 C6F83428 		str	r2, [r6, #2100]
 4492              		.loc 1 566 21 view .LVU1259
 4493 0094 1C43     		orrs	r4, r4, r3
 4494              	.LBB905:
 4495              	.LBB903:
 4496              		.loc 3 682 3 view .LVU1260
 4497 0096 0021     		movs	r1, #0
 4498              	.LBE903:
 4499              	.LBE905:
 4500              		.loc 1 566 21 view .LVU1261
ARM GAS  /tmp/ccqWEI8l.s 			page 80


 4501 0098 FC65     		str	r4, [r7, #92]
 4502              		.loc 1 567 5 is_stmt 1 view .LVU1262
 4503              		.loc 1 568 5 view .LVU1263
 4504              	.LVL320:
 4505              	.LBB906:
 4506              	.LBI901:
 4507              		.loc 3 680 20 view .LVU1264
 4508              	.LBB904:
 4509              		.loc 3 682 3 view .LVU1265
 4510 009a FFF7FEFF 		bl	chThdResumeI
 4511              	.LVL321:
 4512              		.loc 3 682 3 is_stmt 0 view .LVU1266
 4513              	.LBE904:
 4514              	.LBE906:
 4515              		.loc 1 569 5 is_stmt 1 view .LVU1267
 4516              	.LBB907:
 4517              	.LBI907:
 4518              		.loc 3 478 20 view .LVU1268
 4519              	.LBB908:
 4520              		.loc 3 480 3 view .LVU1269
 4521              	.LBB909:
 4522              	.LBI909:
 4523              		.loc 4 406 20 view .LVU1270
 4524              	.LBB910:
 4525              		.loc 4 408 3 view .LVU1271
 4526 009e FFF7FEFF 		bl	_dbg_check_unlock_from_isr
 4527              	.LVL322:
 4528              		.loc 4 409 3 view .LVU1272
 4529 00a2 FFF7FEFF 		bl	_stats_stop_measure_crit_isr
 4530              	.LVL323:
 4531              		.loc 4 410 3 view .LVU1273
 4532              	.LBB911:
 4533              	.LBI911:
 4534              		.loc 5 484 20 view .LVU1274
 4535              	.LBE911:
 4536              	.LBE910:
 4537              	.LBE909:
 4538              	.LBE908:
 4539              	.LBE907:
 4540              		.loc 5 486 3 view .LVU1275
 4541              	.LBB924:
 4542              	.LBB922:
 4543              	.LBB920:
 4544              	.LBB918:
 4545              	.LBB916:
 4546              	.LBB912:
 4547              	.LBI912:
 4548              		.loc 5 458 20 view .LVU1276
 4549              	.LBE912:
 4550              	.LBE916:
 4551              	.LBE918:
 4552              	.LBE920:
 4553              	.LBE922:
 4554              	.LBE924:
 4555              		.loc 5 461 3 view .LVU1277
 4556              	.LBB925:
 4557              	.LBB923:
ARM GAS  /tmp/ccqWEI8l.s 			page 81


 4558              	.LBB921:
 4559              	.LBB919:
 4560              	.LBB917:
 4561              	.LBB915:
 4562              	.LBB913:
 4563              	.LBI913:
 4564              		.loc 6 544 57 view .LVU1278
 4565              	.LBB914:
 4566              		.loc 6 546 3 view .LVU1279
 4567 00a6 0023     		movs	r3, #0
 4568              		.syntax unified
 4569              	@ 546 ".//ChibiOS//os/ext/CMSIS/include/core_cmFunc.h" 1
 4570 00a8 83F31188 		MSR basepri, r3
 4571              	@ 0 "" 2
 4572              	.LVL324:
 4573              		.loc 6 546 3 is_stmt 0 view .LVU1280
 4574              		.thumb
 4575              		.syntax unified
 4576              	.LBE914:
 4577              	.LBE913:
 4578              	.LBE915:
 4579              	.LBE917:
 4580              	.LBE919:
 4581              	.LBE921:
 4582              	.LBE923:
 4583              	.LBE925:
 4584              		.loc 1 571 1 view .LVU1281
 4585 00ac C8E7     		b	.L285
 4586              	.LVL325:
 4587              	.L306:
 4588              	.LBB926:
 4589              		.loc 1 550 7 is_stmt 1 view .LVU1282
 4590              		.loc 1 550 34 is_stmt 0 view .LVU1283
 4591 00ae 121A     		subs	r2, r2, r0
 4592              		.loc 1 551 19 view .LVU1284
 4593 00b0 4FF00008 		mov	r8, #0
 4594 00b4 C3E90128 		strd	r2, r8, [r3, #4]
 4595              		.loc 1 552 7 is_stmt 1 view .LVU1285
 4596 00b8 2146     		mov	r1, r4
 4597 00ba 3846     		mov	r0, r7
 4598 00bc FFF7FEFF 		bl	usb_lld_prepare_transmit
 4599              	.LVL326:
 4600              		.loc 1 553 7 view .LVU1286
 4601              	.LBB845:
 4602              	.LBI845:
 4603              		.loc 3 467 20 view .LVU1287
 4604              	.LBE845:
 4605              	.LBE926:
 4606              		.loc 3 469 3 view .LVU1288
 4607              	.LBB927:
 4608              	.LBB859:
 4609              	.LBB846:
 4610              	.LBI846:
 4611              		.loc 4 386 20 view .LVU1289
 4612              	.LBB847:
 4613              		.loc 4 388 3 view .LVU1290
 4614              	.LBB848:
ARM GAS  /tmp/ccqWEI8l.s 			page 82


 4615              	.LBI848:
 4616              		.loc 5 473 20 view .LVU1291
 4617              	.LBE848:
 4618              	.LBE847:
 4619              	.LBE846:
 4620              	.LBE859:
 4621              	.LBE927:
 4622              		.loc 5 475 3 view .LVU1292
 4623              	.LBB928:
 4624              	.LBB860:
 4625              	.LBB857:
 4626              	.LBB855:
 4627              	.LBB853:
 4628              	.LBB849:
 4629              	.LBI849:
 4630              		.loc 5 444 20 view .LVU1293
 4631              	.LBE849:
 4632              	.LBE853:
 4633              	.LBE855:
 4634              	.LBE857:
 4635              	.LBE860:
 4636              	.LBE928:
 4637              		.loc 5 447 3 view .LVU1294
 4638              	.LBB929:
 4639              	.LBB861:
 4640              	.LBB858:
 4641              	.LBB856:
 4642              	.LBB854:
 4643              	.LBB852:
 4644              	.LBB850:
 4645              	.LBI850:
 4646              		.loc 6 544 57 view .LVU1295
 4647              	.LBB851:
 4648              		.loc 6 546 3 view .LVU1296
 4649 00c0 2023     		movs	r3, #32
 4650              		.syntax unified
 4651              	@ 546 ".//ChibiOS//os/ext/CMSIS/include/core_cmFunc.h" 1
 4652 00c2 83F31188 		MSR basepri, r3
 4653              	@ 0 "" 2
 4654              	.LVL327:
 4655              		.loc 6 546 3 is_stmt 0 view .LVU1297
 4656              		.thumb
 4657              		.syntax unified
 4658              	.LBE851:
 4659              	.LBE850:
 4660              	.LBE852:
 4661              	.LBE854:
 4662              		.loc 4 389 3 is_stmt 1 view .LVU1298
 4663 00c6 FFF7FEFF 		bl	_stats_start_measure_crit_isr
 4664              	.LVL328:
 4665              		.loc 4 390 3 view .LVU1299
 4666 00ca FFF7FEFF 		bl	_dbg_check_lock_from_isr
 4667              	.LVL329:
 4668              	.LBE856:
 4669              	.LBE858:
 4670              	.LBE861:
 4671              		.loc 1 554 7 view .LVU1300
ARM GAS  /tmp/ccqWEI8l.s 			page 83


 4672              	.LBB862:
 4673              	.LBI862:
 4674              		.loc 1 1225 6 view .LVU1301
 4675              	.LBB863:
 4676              		.loc 1 1227 3 view .LVU1302
 4677              		.loc 1 1227 7 is_stmt 0 view .LVU1303
 4678 00ce 3A6D     		ldr	r2, [r7, #80]
 4679 00d0 02EB4410 		add	r0, r2, r4, lsl #5
 4680              		.loc 1 1228 28 view .LVU1304
 4681 00d4 0123     		movs	r3, #1
 4682              		.loc 1 1227 29 view .LVU1305
 4683 00d6 D0F80019 		ldr	r1, [r0, #2304]
 4684 00da 41F00441 		orr	r1, r1, #-2080374784
 4685 00de C0F80019 		str	r1, [r0, #2304]
 4686              		.loc 1 1228 3 is_stmt 1 view .LVU1306
 4687              		.loc 1 1228 25 is_stmt 0 view .LVU1307
 4688 00e2 D2F83418 		ldr	r1, [r2, #2100]
 4689              		.loc 1 1228 28 view .LVU1308
 4690 00e6 A340     		lsls	r3, r3, r4
 4691              		.loc 1 1228 25 view .LVU1309
 4692 00e8 0B43     		orrs	r3, r3, r1
 4693 00ea C2F83438 		str	r3, [r2, #2100]
 4694              	.LVL330:
 4695              		.loc 1 1228 25 view .LVU1310
 4696              	.LBE863:
 4697              	.LBE862:
 4698              		.loc 1 555 7 is_stmt 1 view .LVU1311
 4699              	.LBB864:
 4700              	.LBI864:
 4701              		.loc 3 478 20 view .LVU1312
 4702              	.LBB865:
 4703              		.loc 3 480 3 view .LVU1313
 4704              	.LBB866:
 4705              	.LBI866:
 4706              		.loc 4 406 20 view .LVU1314
 4707              	.LBB867:
 4708              		.loc 4 408 3 view .LVU1315
 4709 00ee FFF7FEFF 		bl	_dbg_check_unlock_from_isr
 4710              	.LVL331:
 4711              		.loc 4 409 3 view .LVU1316
 4712 00f2 FFF7FEFF 		bl	_stats_stop_measure_crit_isr
 4713              	.LVL332:
 4714              		.loc 4 410 3 view .LVU1317
 4715              	.LBB868:
 4716              	.LBI868:
 4717              		.loc 5 484 20 view .LVU1318
 4718              	.LBE868:
 4719              	.LBE867:
 4720              	.LBE866:
 4721              	.LBE865:
 4722              	.LBE864:
 4723              	.LBE929:
 4724              		.loc 5 486 3 view .LVU1319
 4725              	.LBB930:
 4726              	.LBB881:
 4727              	.LBB879:
 4728              	.LBB877:
ARM GAS  /tmp/ccqWEI8l.s 			page 84


 4729              	.LBB875:
 4730              	.LBB873:
 4731              	.LBB869:
 4732              	.LBI869:
 4733              		.loc 5 458 20 view .LVU1320
 4734              	.LBE869:
 4735              	.LBE873:
 4736              	.LBE875:
 4737              	.LBE877:
 4738              	.LBE879:
 4739              	.LBE881:
 4740              	.LBE930:
 4741              		.loc 5 461 3 view .LVU1321
 4742              	.LBB931:
 4743              	.LBB882:
 4744              	.LBB880:
 4745              	.LBB878:
 4746              	.LBB876:
 4747              	.LBB874:
 4748              	.LBB872:
 4749              	.LBB870:
 4750              	.LBI870:
 4751              		.loc 6 544 57 view .LVU1322
 4752              	.LBB871:
 4753              		.loc 6 546 3 view .LVU1323
 4754              		.syntax unified
 4755              	@ 546 ".//ChibiOS//os/ext/CMSIS/include/core_cmFunc.h" 1
 4756 00f6 88F31188 		MSR basepri, r8
 4757              	@ 0 "" 2
 4758              	.LVL333:
 4759              		.loc 6 546 3 is_stmt 0 view .LVU1324
 4760              		.thumb
 4761              		.syntax unified
 4762              	.LBE871:
 4763              	.LBE870:
 4764              	.LBE872:
 4765              	.LBE874:
 4766              	.LBE876:
 4767              	.LBE878:
 4768              		.loc 3 481 1 view .LVU1325
 4769 00fa 98E7     		b	.L286
 4770              	.L305:
 4771              		.loc 3 481 1 view .LVU1326
 4772              	.LBE880:
 4773              	.LBE882:
 4774              	.LBE931:
 4775              		.loc 1 571 1 view .LVU1327
 4776 00fc FFF7FEFF 		bl	__stack_chk_fail
 4777              	.LVL334:
 4778              	.L308:
 4779              		.align	2
 4780              	.L307:
 4781 0100 00000000 		.word	.LANCHOR1
 4782 0104 00000000 		.word	.LC16
 4783 0108 60000000 		.word	.LANCHOR1+96
 4784              		.cfi_endproc
 4785              	.LFE299:
ARM GAS  /tmp/ccqWEI8l.s 			page 85


 4786              		.size	otg_epin_handler.constprop.0, .-otg_epin_handler.constprop.0
 4787              		.section	.rodata.Vector14C.cst4,"aM",%progbits,4
 4788              		.align	2
 4789              	.LC17:
 4790 0000 00000000 		.word	__stack_chk_guard
 4791              		.section	.text.Vector14C,"ax",%progbits
 4792              		.align	1
 4793              		.p2align 4,,15
 4794              		.global	Vector14C
 4795              		.syntax unified
 4796              		.thumb
 4797              		.thumb_func
 4798              		.fpu fpv4-sp-d16
 4799              		.type	Vector14C, %function
 4800              	Vector14C:
 4801              	.LFB273:
 4802              		.loc 1 706 38 is_stmt 1 view -0
 4803              		.cfi_startproc
 4804              		@ args = 0, pretend = 0, frame = 8
 4805              		@ frame_needed = 0, uses_anonymous_args = 0
 4806 0000 70B5     		push	{r4, r5, r6, lr}
 4807              		.cfi_def_cfa_offset 16
 4808              		.cfi_offset 4, -16
 4809              		.cfi_offset 5, -12
 4810              		.cfi_offset 6, -8
 4811              		.cfi_offset 14, -4
 4812 0002 464B     		ldr	r3, .L381
 4813              	.LBB951:
 4814              	.LBB952:
 4815              		.loc 1 624 16 is_stmt 0 view .LVU1329
 4816 0004 464D     		ldr	r5, .L381+4
 4817              	.LBE952:
 4818              	.LBE951:
 4819              		.loc 1 706 38 view .LVU1330
 4820 0006 82B0     		sub	sp, sp, #8
 4821              		.cfi_def_cfa_offset 24
 4822              		.loc 1 706 38 view .LVU1331
 4823 0008 1B68     		ldr	r3, [r3]
 4824 000a 0193     		str	r3, [sp, #4]
 4825 000c 4FF00003 		mov	r3,#0
 4826              		.loc 1 708 3 is_stmt 1 view .LVU1332
 4827              		.loc 1 708 3 view .LVU1333
 4828 0010 FFF7FEFF 		bl	_stats_increase_irq
 4829              	.LVL335:
 4830              		.loc 1 708 3 view .LVU1334
 4831 0014 FFF7FEFF 		bl	_dbg_check_enter_isr
 4832              	.LVL336:
 4833              		.loc 1 710 3 view .LVU1335
 4834              	.LBB1000:
 4835              	.LBI951:
 4836              		.loc 1 623 13 view .LVU1336
 4837              	.LBB993:
 4838              		.loc 1 624 3 view .LVU1337
 4839              		.loc 1 624 16 is_stmt 0 view .LVU1338
 4840 0018 2E6D     		ldr	r6, [r5, #80]
 4841              	.LVL337:
 4842              		.loc 1 625 3 is_stmt 1 view .LVU1339
ARM GAS  /tmp/ccqWEI8l.s 			page 86


 4843              		.loc 1 627 3 view .LVU1340
 4844              		.loc 1 627 8 is_stmt 0 view .LVU1341
 4845 001a 7469     		ldr	r4, [r6, #20]
 4846              	.LVL338:
 4847              		.loc 1 628 3 is_stmt 1 view .LVU1342
 4848              		.loc 1 628 14 is_stmt 0 view .LVU1343
 4849 001c B369     		ldr	r3, [r6, #24]
 4850              		.loc 1 628 7 view .LVU1344
 4851 001e 1C40     		ands	r4, r4, r3
 4852              	.LVL339:
 4853              		.loc 1 629 3 is_stmt 1 view .LVU1345
 4854              		.loc 1 632 6 is_stmt 0 view .LVU1346
 4855 0020 E104     		lsls	r1, r4, #19
 4856              		.loc 1 629 17 view .LVU1347
 4857 0022 7461     		str	r4, [r6, #20]
 4858              		.loc 1 632 3 is_stmt 1 view .LVU1348
 4859              		.loc 1 632 6 is_stmt 0 view .LVU1349
 4860 0024 45D4     		bmi	.L370
 4861              	.L311:
 4862              		.loc 1 634 52 is_stmt 1 view .LVU1350
 4863              		.loc 1 638 3 view .LVU1351
 4864              		.loc 1 638 6 is_stmt 0 view .LVU1352
 4865 0026 A204     		lsls	r2, r4, #18
 4866              		.loc 1 639 5 is_stmt 1 view .LVU1353
 4867              		.loc 1 643 3 view .LVU1354
 4868              		.loc 1 639 5 is_stmt 0 view .LVU1355
 4869 0028 48BF     		it	mi
 4870 002a D6F80838 		ldrmi	r3, [r6, #2056]
 4871              		.loc 1 643 6 view .LVU1356
 4872 002e 2307     		lsls	r3, r4, #28
 4873 0030 04D5     		bpl	.L314
 4874              		.loc 1 644 5 is_stmt 1 view .LVU1357
 4875 0032 6B68     		ldr	r3, [r5, #4]
 4876 0034 DB68     		ldr	r3, [r3, #12]
 4877 0036 0BB1     		cbz	r3, .L314
 4878              		.loc 1 644 5 view .LVU1358
 4879 0038 3948     		ldr	r0, .L381+4
 4880 003a 9847     		blx	r3
 4881              	.LVL340:
 4882              	.L314:
 4883              		.loc 1 644 33 view .LVU1359
 4884              		.loc 1 648 3 view .LVU1360
 4885              		.loc 1 648 6 is_stmt 0 view .LVU1361
 4886 003c E506     		lsls	r5, r4, #27
 4887 003e 21D4     		bmi	.L371
 4888              	.L315:
 4889              		.loc 1 658 3 is_stmt 1 view .LVU1362
 4890              		.loc 1 659 6 is_stmt 0 view .LVU1363
 4891 0040 6003     		lsls	r0, r4, #13
 4892              		.loc 1 658 7 view .LVU1364
 4893 0042 D6F81858 		ldr	r5, [r6, #2072]
 4894              	.LVL341:
 4895              		.loc 1 659 3 is_stmt 1 view .LVU1365
 4896              		.loc 1 659 6 is_stmt 0 view .LVU1366
 4897 0046 07D5     		bpl	.L317
 4898              		.loc 1 660 5 is_stmt 1 view .LVU1367
 4899              		.loc 1 660 8 is_stmt 0 view .LVU1368
ARM GAS  /tmp/ccqWEI8l.s 			page 87


 4900 0048 E907     		lsls	r1, r5, #31
 4901 004a 41D4     		bmi	.L372
 4902              		.loc 1 662 5 is_stmt 1 view .LVU1369
 4903              		.loc 1 662 8 is_stmt 0 view .LVU1370
 4904 004c AA07     		lsls	r2, r5, #30
 4905 004e 44D4     		bmi	.L373
 4906              	.L319:
 4907              		.loc 1 664 5 is_stmt 1 view .LVU1371
 4908              		.loc 1 664 8 is_stmt 0 view .LVU1372
 4909 0050 6B07     		lsls	r3, r5, #29
 4910 0052 47D4     		bmi	.L374
 4911              	.L320:
 4912              		.loc 1 666 5 is_stmt 1 view .LVU1373
 4913              		.loc 1 666 8 is_stmt 0 view .LVU1374
 4914 0054 2E07     		lsls	r6, r5, #28
 4915              	.LVL342:
 4916              		.loc 1 666 8 view .LVU1375
 4917 0056 4AD4     		bmi	.L375
 4918              	.L317:
 4919              		.loc 1 675 3 is_stmt 1 view .LVU1376
 4920              		.loc 1 675 6 is_stmt 0 view .LVU1377
 4921 0058 2403     		lsls	r4, r4, #12
 4922              	.LVL343:
 4923              		.loc 1 675 6 view .LVU1378
 4924 005a 07D5     		bpl	.L323
 4925              		.loc 1 676 5 is_stmt 1 view .LVU1379
 4926              		.loc 1 676 8 is_stmt 0 view .LVU1380
 4927 005c E803     		lsls	r0, r5, #15
 4928 005e 4AD4     		bmi	.L376
 4929              		.loc 1 678 5 is_stmt 1 view .LVU1381
 4930              		.loc 1 678 8 is_stmt 0 view .LVU1382
 4931 0060 A903     		lsls	r1, r5, #14
 4932 0062 4DD4     		bmi	.L377
 4933              	.L325:
 4934              		.loc 1 680 5 is_stmt 1 view .LVU1383
 4935              		.loc 1 680 8 is_stmt 0 view .LVU1384
 4936 0064 6A03     		lsls	r2, r5, #13
 4937 0066 50D4     		bmi	.L378
 4938              	.L326:
 4939              		.loc 1 682 5 is_stmt 1 view .LVU1385
 4940              		.loc 1 682 8 is_stmt 0 view .LVU1386
 4941 0068 2B03     		lsls	r3, r5, #12
 4942 006a 2DD4     		bmi	.L379
 4943              	.L323:
 4944              	.LVL344:
 4945              		.loc 1 682 8 view .LVU1387
 4946              	.LBE993:
 4947              	.LBE1000:
 4948              		.loc 1 712 3 is_stmt 1 view .LVU1388
 4949 006c FFF7FEFF 		bl	_dbg_check_leave_isr
 4950              	.LVL345:
 4951              		.loc 1 712 3 view .LVU1389
 4952 0070 2A4B     		ldr	r3, .L381
 4953 0072 1A68     		ldr	r2, [r3]
 4954 0074 019B     		ldr	r3, [sp, #4]
 4955 0076 5A40     		eors	r2, r3, r2
 4956 0078 4DD1     		bne	.L380
ARM GAS  /tmp/ccqWEI8l.s 			page 88


 4957              		.loc 1 713 1 is_stmt 0 view .LVU1390
 4958 007a 02B0     		add	sp, sp, #8
 4959              		.cfi_remember_state
 4960              		.cfi_def_cfa_offset 16
 4961              		@ sp needed
 4962 007c BDE87040 		pop	{r4, r5, r6, lr}
 4963              		.cfi_restore 14
 4964              		.cfi_restore 6
 4965              		.cfi_restore 5
 4966              		.cfi_restore 4
 4967              		.cfi_def_cfa_offset 0
 4968              		.loc 1 712 3 view .LVU1391
 4969 0080 FFF7FEBF 		b	_port_irq_epilogue
 4970              	.LVL346:
 4971              	.L371:
 4972              		.cfi_restore_state
 4973              	.LBB1001:
 4974              	.LBB994:
 4975              		.loc 1 651 5 is_stmt 1 view .LVU1392
 4976              	.LBB953:
 4977              	.LBI953:
 4978              		.loc 3 467 20 view .LVU1393
 4979              	.LBE953:
 4980              	.LBE994:
 4981              	.LBE1001:
 4982              		.loc 3 469 3 view .LVU1394
 4983              	.LBB1002:
 4984              	.LBB995:
 4985              	.LBB967:
 4986              	.LBB954:
 4987              	.LBI954:
 4988              		.loc 4 386 20 view .LVU1395
 4989              	.LBB955:
 4990              		.loc 4 388 3 view .LVU1396
 4991              	.LBB956:
 4992              	.LBI956:
 4993              		.loc 5 473 20 view .LVU1397
 4994              	.LBE956:
 4995              	.LBE955:
 4996              	.LBE954:
 4997              	.LBE967:
 4998              	.LBE995:
 4999              	.LBE1002:
 5000              		.loc 5 475 3 view .LVU1398
 5001              	.LBB1003:
 5002              	.LBB996:
 5003              	.LBB968:
 5004              	.LBB965:
 5005              	.LBB963:
 5006              	.LBB961:
 5007              	.LBB957:
 5008              	.LBI957:
 5009              		.loc 5 444 20 view .LVU1399
 5010              	.LBE957:
 5011              	.LBE961:
 5012              	.LBE963:
 5013              	.LBE965:
ARM GAS  /tmp/ccqWEI8l.s 			page 89


 5014              	.LBE968:
 5015              	.LBE996:
 5016              	.LBE1003:
 5017              		.loc 5 447 3 view .LVU1400
 5018              	.LBB1004:
 5019              	.LBB997:
 5020              	.LBB969:
 5021              	.LBB966:
 5022              	.LBB964:
 5023              	.LBB962:
 5024              	.LBB960:
 5025              	.LBB958:
 5026              	.LBI958:
 5027              		.loc 6 544 57 view .LVU1401
 5028              	.LBB959:
 5029              		.loc 6 546 3 view .LVU1402
 5030 0084 2023     		movs	r3, #32
 5031              		.syntax unified
 5032              	@ 546 ".//ChibiOS//os/ext/CMSIS/include/core_cmFunc.h" 1
 5033 0086 83F31188 		MSR basepri, r3
 5034              	@ 0 "" 2
 5035              	.LVL347:
 5036              		.loc 6 546 3 is_stmt 0 view .LVU1403
 5037              		.thumb
 5038              		.syntax unified
 5039              	.LBE959:
 5040              	.LBE958:
 5041              	.LBE960:
 5042              	.LBE962:
 5043              		.loc 4 389 3 is_stmt 1 view .LVU1404
 5044 008a FFF7FEFF 		bl	_stats_start_measure_crit_isr
 5045              	.LVL348:
 5046              		.loc 4 390 3 view .LVU1405
 5047 008e FFF7FEFF 		bl	_dbg_check_lock_from_isr
 5048              	.LVL349:
 5049              	.LBE964:
 5050              	.LBE966:
 5051              	.LBE969:
 5052              		.loc 1 652 5 view .LVU1406
 5053              		.loc 1 652 19 is_stmt 0 view .LVU1407
 5054 0092 B369     		ldr	r3, [r6, #24]
 5055              	.LBB970:
 5056              	.LBB971:
 5057              		.loc 3 682 3 view .LVU1408
 5058 0094 2348     		ldr	r0, .L381+8
 5059              	.LBE971:
 5060              	.LBE970:
 5061              		.loc 1 652 19 view .LVU1409
 5062 0096 23F01003 		bic	r3, r3, #16
 5063 009a B361     		str	r3, [r6, #24]
 5064              		.loc 1 653 5 is_stmt 1 view .LVU1410
 5065              	.LVL350:
 5066              	.LBB973:
 5067              	.LBI970:
 5068              		.loc 3 680 20 view .LVU1411
 5069              	.LBB972:
 5070              		.loc 3 682 3 view .LVU1412
ARM GAS  /tmp/ccqWEI8l.s 			page 90


 5071 009c 0021     		movs	r1, #0
 5072 009e FFF7FEFF 		bl	chThdResumeI
 5073              	.LVL351:
 5074              		.loc 3 682 3 is_stmt 0 view .LVU1413
 5075              	.LBE972:
 5076              	.LBE973:
 5077              		.loc 1 654 5 is_stmt 1 view .LVU1414
 5078              	.LBB974:
 5079              	.LBI974:
 5080              		.loc 3 478 20 view .LVU1415
 5081              	.LBB975:
 5082              		.loc 3 480 3 view .LVU1416
 5083              	.LBB976:
 5084              	.LBI976:
 5085              		.loc 4 406 20 view .LVU1417
 5086              	.LBB977:
 5087              		.loc 4 408 3 view .LVU1418
 5088 00a2 FFF7FEFF 		bl	_dbg_check_unlock_from_isr
 5089              	.LVL352:
 5090              		.loc 4 409 3 view .LVU1419
 5091 00a6 FFF7FEFF 		bl	_stats_stop_measure_crit_isr
 5092              	.LVL353:
 5093              		.loc 4 410 3 view .LVU1420
 5094              	.LBB978:
 5095              	.LBI978:
 5096              		.loc 5 484 20 view .LVU1421
 5097              	.LBE978:
 5098              	.LBE977:
 5099              	.LBE976:
 5100              	.LBE975:
 5101              	.LBE974:
 5102              	.LBE997:
 5103              	.LBE1004:
 5104              		.loc 5 486 3 view .LVU1422
 5105              	.LBB1005:
 5106              	.LBB998:
 5107              	.LBB991:
 5108              	.LBB989:
 5109              	.LBB987:
 5110              	.LBB985:
 5111              	.LBB983:
 5112              	.LBB979:
 5113              	.LBI979:
 5114              		.loc 5 458 20 view .LVU1423
 5115              	.LBE979:
 5116              	.LBE983:
 5117              	.LBE985:
 5118              	.LBE987:
 5119              	.LBE989:
 5120              	.LBE991:
 5121              	.LBE998:
 5122              	.LBE1005:
 5123              		.loc 5 461 3 view .LVU1424
 5124              	.LBB1006:
 5125              	.LBB999:
 5126              	.LBB992:
 5127              	.LBB990:
ARM GAS  /tmp/ccqWEI8l.s 			page 91


 5128              	.LBB988:
 5129              	.LBB986:
 5130              	.LBB984:
 5131              	.LBB982:
 5132              	.LBB980:
 5133              	.LBI980:
 5134              		.loc 6 544 57 view .LVU1425
 5135              	.LBB981:
 5136              		.loc 6 546 3 view .LVU1426
 5137 00aa 0023     		movs	r3, #0
 5138              		.syntax unified
 5139              	@ 546 ".//ChibiOS//os/ext/CMSIS/include/core_cmFunc.h" 1
 5140 00ac 83F31188 		MSR basepri, r3
 5141              	@ 0 "" 2
 5142              	.LVL354:
 5143              		.loc 6 546 3 is_stmt 0 view .LVU1427
 5144              		.thumb
 5145              		.syntax unified
 5146              	.LBE981:
 5147              	.LBE980:
 5148              	.LBE982:
 5149              	.LBE984:
 5150              	.LBE986:
 5151              	.LBE988:
 5152              		.loc 3 481 1 view .LVU1428
 5153 00b0 C6E7     		b	.L315
 5154              	.L370:
 5155              		.loc 3 481 1 view .LVU1429
 5156              	.LBE990:
 5157              	.LBE992:
 5158              		.loc 1 633 5 is_stmt 1 view .LVU1430
 5159 00b2 2846     		mov	r0, r5
 5160 00b4 FFF7FEFF 		bl	_usb_reset
 5161              	.LVL355:
 5162              		.loc 1 634 5 view .LVU1431
 5163 00b8 6B68     		ldr	r3, [r5, #4]
 5164 00ba 1B68     		ldr	r3, [r3]
 5165 00bc 002B     		cmp	r3, #0
 5166 00be B2D0     		beq	.L311
 5167              		.loc 1 634 5 view .LVU1432
 5168 00c0 0021     		movs	r1, #0
 5169 00c2 2846     		mov	r0, r5
 5170 00c4 9847     		blx	r3
 5171              	.LVL356:
 5172 00c6 AEE7     		b	.L311
 5173              	.LVL357:
 5174              	.L379:
 5175              		.loc 1 683 7 view .LVU1433
 5176 00c8 0320     		movs	r0, #3
 5177 00ca FFF7FEFF 		bl	otg_epout_handler.constprop.0
 5178              	.LVL358:
 5179 00ce CDE7     		b	.L323
 5180              	.LVL359:
 5181              	.L372:
 5182              		.loc 1 661 7 view .LVU1434
 5183 00d0 0020     		movs	r0, #0
 5184 00d2 FFF7FEFF 		bl	otg_epin_handler.constprop.0
ARM GAS  /tmp/ccqWEI8l.s 			page 92


 5185              	.LVL360:
 5186              		.loc 1 662 5 view .LVU1435
 5187              		.loc 1 662 8 is_stmt 0 view .LVU1436
 5188 00d6 AA07     		lsls	r2, r5, #30
 5189 00d8 BAD5     		bpl	.L319
 5190              	.L373:
 5191              		.loc 1 663 7 is_stmt 1 view .LVU1437
 5192 00da 0120     		movs	r0, #1
 5193 00dc FFF7FEFF 		bl	otg_epin_handler.constprop.0
 5194              	.LVL361:
 5195              		.loc 1 664 5 view .LVU1438
 5196              		.loc 1 664 8 is_stmt 0 view .LVU1439
 5197 00e0 6B07     		lsls	r3, r5, #29
 5198 00e2 B7D5     		bpl	.L320
 5199              	.L374:
 5200              		.loc 1 665 7 is_stmt 1 view .LVU1440
 5201 00e4 0220     		movs	r0, #2
 5202 00e6 FFF7FEFF 		bl	otg_epin_handler.constprop.0
 5203              	.LVL362:
 5204              		.loc 1 666 5 view .LVU1441
 5205              		.loc 1 666 8 is_stmt 0 view .LVU1442
 5206 00ea 2E07     		lsls	r6, r5, #28
 5207              	.LVL363:
 5208              		.loc 1 666 8 view .LVU1443
 5209 00ec B4D5     		bpl	.L317
 5210              	.L375:
 5211              		.loc 1 667 7 is_stmt 1 view .LVU1444
 5212 00ee 0320     		movs	r0, #3
 5213 00f0 FFF7FEFF 		bl	otg_epin_handler.constprop.0
 5214              	.LVL364:
 5215 00f4 B0E7     		b	.L317
 5216              	.LVL365:
 5217              	.L376:
 5218              		.loc 1 677 7 view .LVU1445
 5219 00f6 0020     		movs	r0, #0
 5220 00f8 FFF7FEFF 		bl	otg_epout_handler.constprop.0
 5221              	.LVL366:
 5222              		.loc 1 678 5 view .LVU1446
 5223              		.loc 1 678 8 is_stmt 0 view .LVU1447
 5224 00fc A903     		lsls	r1, r5, #14
 5225 00fe B1D5     		bpl	.L325
 5226              	.L377:
 5227              		.loc 1 679 7 is_stmt 1 view .LVU1448
 5228 0100 0120     		movs	r0, #1
 5229 0102 FFF7FEFF 		bl	otg_epout_handler.constprop.0
 5230              	.LVL367:
 5231              		.loc 1 680 5 view .LVU1449
 5232              		.loc 1 680 8 is_stmt 0 view .LVU1450
 5233 0106 6A03     		lsls	r2, r5, #13
 5234 0108 AED5     		bpl	.L326
 5235              	.L378:
 5236              		.loc 1 681 7 is_stmt 1 view .LVU1451
 5237 010a 0220     		movs	r0, #2
 5238 010c FFF7FEFF 		bl	otg_epout_handler.constprop.0
 5239              	.LVL368:
 5240              		.loc 1 682 5 view .LVU1452
 5241              		.loc 1 682 8 is_stmt 0 view .LVU1453
ARM GAS  /tmp/ccqWEI8l.s 			page 93


 5242 0110 2B03     		lsls	r3, r5, #12
 5243 0112 ABD5     		bpl	.L323
 5244 0114 D8E7     		b	.L379
 5245              	.LVL369:
 5246              	.L380:
 5247              		.loc 1 682 8 view .LVU1454
 5248              	.LBE999:
 5249              	.LBE1006:
 5250              		.loc 1 712 3 view .LVU1455
 5251 0116 FFF7FEFF 		bl	__stack_chk_fail
 5252              	.LVL370:
 5253              	.L382:
 5254 011a 00BF     		.align	2
 5255              	.L381:
 5256 011c 00000000 		.word	.LC17
 5257 0120 00000000 		.word	.LANCHOR1
 5258 0124 60000000 		.word	.LANCHOR1+96
 5259              		.cfi_endproc
 5260              	.LFE273:
 5261              		.size	Vector14C, .-Vector14C
 5262              		.section	.rodata.usb_lld_start_out.cst4,"aM",%progbits,4
 5263              		.align	2
 5264              	.LC18:
 5265 0000 00000000 		.word	__stack_chk_guard
 5266              		.section	.text.usb_lld_start_out,"ax",%progbits
 5267              		.align	1
 5268              		.p2align 4,,15
 5269              		.global	usb_lld_start_out
 5270              		.syntax unified
 5271              		.thumb
 5272              		.thumb_func
 5273              		.fpu fpv4-sp-d16
 5274              		.type	usb_lld_start_out, %function
 5275              	usb_lld_start_out:
 5276              	.LVL371:
 5277              	.LFB286:
 5278              		.loc 1 1212 53 is_stmt 1 view -0
 5279              		.cfi_startproc
 5280              		@ args = 0, pretend = 0, frame = 8
 5281              		@ frame_needed = 0, uses_anonymous_args = 0
 5282              		.loc 1 1212 53 is_stmt 0 view .LVU1457
 5283 0000 00B5     		push	{lr}
 5284              		.cfi_def_cfa_offset 4
 5285              		.cfi_offset 14, -4
 5286 0002 0C4A     		ldr	r2, .L387
 5287 0004 036D     		ldr	r3, [r0, #80]
 5288 0006 83B0     		sub	sp, sp, #12
 5289              		.cfi_def_cfa_offset 16
 5290              		.loc 1 1212 53 view .LVU1458
 5291 0008 1268     		ldr	r2, [r2]
 5292 000a 0192     		str	r2, [sp, #4]
 5293 000c 4FF00002 		mov	r2,#0
 5294              		.loc 1 1214 3 is_stmt 1 view .LVU1459
 5295 0010 03EB4111 		add	r1, r3, r1, lsl #5
 5296              	.LVL372:
 5297              		.loc 1 1214 29 is_stmt 0 view .LVU1460
 5298 0014 D1F8003B 		ldr	r3, [r1, #2816]
ARM GAS  /tmp/ccqWEI8l.s 			page 94


 5299 0018 43F08063 		orr	r3, r3, #67108864
 5300 001c C1F8003B 		str	r3, [r1, #2816]
 5301              		.loc 1 1215 1 view .LVU1461
 5302 0020 044B     		ldr	r3, .L387
 5303 0022 1A68     		ldr	r2, [r3]
 5304 0024 019B     		ldr	r3, [sp, #4]
 5305 0026 5A40     		eors	r2, r3, r2
 5306 0028 02D1     		bne	.L386
 5307 002a 03B0     		add	sp, sp, #12
 5308              		.cfi_remember_state
 5309              		.cfi_def_cfa_offset 4
 5310              		@ sp needed
 5311 002c 5DF804FB 		ldr	pc, [sp], #4
 5312              	.L386:
 5313              		.cfi_restore_state
 5314 0030 FFF7FEFF 		bl	__stack_chk_fail
 5315              	.LVL373:
 5316              	.L388:
 5317              		.loc 1 1215 1 view .LVU1462
 5318              		.align	2
 5319              	.L387:
 5320 0034 00000000 		.word	.LC18
 5321              		.cfi_endproc
 5322              	.LFE286:
 5323              		.size	usb_lld_start_out, .-usb_lld_start_out
 5324              		.section	.rodata.usb_lld_start_in.cst4,"aM",%progbits,4
 5325              		.align	2
 5326              	.LC19:
 5327 0000 00000000 		.word	__stack_chk_guard
 5328              		.section	.text.usb_lld_start_in,"ax",%progbits
 5329              		.align	1
 5330              		.p2align 4,,15
 5331              		.global	usb_lld_start_in
 5332              		.syntax unified
 5333              		.thumb
 5334              		.thumb_func
 5335              		.fpu fpv4-sp-d16
 5336              		.type	usb_lld_start_in, %function
 5337              	usb_lld_start_in:
 5338              	.LVL374:
 5339              	.LFB287:
 5340              		.loc 1 1225 52 is_stmt 1 view -0
 5341              		.cfi_startproc
 5342              		@ args = 0, pretend = 0, frame = 8
 5343              		@ frame_needed = 0, uses_anonymous_args = 0
 5344              		.loc 1 1225 52 is_stmt 0 view .LVU1464
 5345 0000 10B5     		push	{r4, lr}
 5346              		.cfi_def_cfa_offset 8
 5347              		.cfi_offset 4, -8
 5348              		.cfi_offset 14, -4
 5349 0002 104B     		ldr	r3, .L393
 5350 0004 026D     		ldr	r2, [r0, #80]
 5351 0006 82B0     		sub	sp, sp, #8
 5352              		.cfi_def_cfa_offset 16
 5353              		.loc 1 1225 52 view .LVU1465
 5354 0008 1B68     		ldr	r3, [r3]
 5355 000a 0193     		str	r3, [sp, #4]
ARM GAS  /tmp/ccqWEI8l.s 			page 95


 5356 000c 4FF00003 		mov	r3,#0
 5357              		.loc 1 1227 3 is_stmt 1 view .LVU1466
 5358 0010 02EB4112 		add	r2, r2, r1, lsl #5
 5359              		.loc 1 1228 28 is_stmt 0 view .LVU1467
 5360 0014 0123     		movs	r3, #1
 5361              		.loc 1 1227 29 view .LVU1468
 5362 0016 D2F80049 		ldr	r4, [r2, #2304]
 5363 001a 44F00444 		orr	r4, r4, #-2080374784
 5364 001e C2F80049 		str	r4, [r2, #2304]
 5365              		.loc 1 1228 3 is_stmt 1 view .LVU1469
 5366              		.loc 1 1228 7 is_stmt 0 view .LVU1470
 5367 0022 026D     		ldr	r2, [r0, #80]
 5368              		.loc 1 1228 25 view .LVU1471
 5369 0024 D2F83408 		ldr	r0, [r2, #2100]
 5370              	.LVL375:
 5371              		.loc 1 1228 28 view .LVU1472
 5372 0028 03FA01F1 		lsl	r1, r3, r1
 5373              	.LVL376:
 5374              		.loc 1 1228 25 view .LVU1473
 5375 002c 0143     		orrs	r1, r1, r0
 5376              		.loc 1 1229 1 view .LVU1474
 5377 002e 054B     		ldr	r3, .L393
 5378              		.loc 1 1228 25 view .LVU1475
 5379 0030 C2F83418 		str	r1, [r2, #2100]
 5380              		.loc 1 1229 1 view .LVU1476
 5381 0034 1A68     		ldr	r2, [r3]
 5382 0036 019B     		ldr	r3, [sp, #4]
 5383 0038 5A40     		eors	r2, r3, r2
 5384 003a 01D1     		bne	.L392
 5385 003c 02B0     		add	sp, sp, #8
 5386              		.cfi_remember_state
 5387              		.cfi_def_cfa_offset 8
 5388              		@ sp needed
 5389 003e 10BD     		pop	{r4, pc}
 5390              	.L392:
 5391              		.cfi_restore_state
 5392 0040 FFF7FEFF 		bl	__stack_chk_fail
 5393              	.LVL377:
 5394              	.L394:
 5395              		.align	2
 5396              	.L393:
 5397 0044 00000000 		.word	.LC19
 5398              		.cfi_endproc
 5399              	.LFE287:
 5400              		.size	usb_lld_start_in, .-usb_lld_start_in
 5401              		.section	.rodata.usb_lld_stall_out.cst4,"aM",%progbits,4
 5402              		.align	2
 5403              	.LC20:
 5404 0000 00000000 		.word	__stack_chk_guard
 5405              		.section	.text.usb_lld_stall_out,"ax",%progbits
 5406              		.align	1
 5407              		.p2align 4,,15
 5408              		.global	usb_lld_stall_out
 5409              		.syntax unified
 5410              		.thumb
 5411              		.thumb_func
 5412              		.fpu fpv4-sp-d16
ARM GAS  /tmp/ccqWEI8l.s 			page 96


 5413              		.type	usb_lld_stall_out, %function
 5414              	usb_lld_stall_out:
 5415              	.LVL378:
 5416              	.LFB288:
 5417              		.loc 1 1239 53 is_stmt 1 view -0
 5418              		.cfi_startproc
 5419              		@ args = 0, pretend = 0, frame = 8
 5420              		@ frame_needed = 0, uses_anonymous_args = 0
 5421              		.loc 1 1239 53 is_stmt 0 view .LVU1478
 5422 0000 00B5     		push	{lr}
 5423              		.cfi_def_cfa_offset 4
 5424              		.cfi_offset 14, -4
 5425 0002 0C4A     		ldr	r2, .L399
 5426 0004 036D     		ldr	r3, [r0, #80]
 5427 0006 83B0     		sub	sp, sp, #12
 5428              		.cfi_def_cfa_offset 16
 5429              		.loc 1 1239 53 view .LVU1479
 5430 0008 1268     		ldr	r2, [r2]
 5431 000a 0192     		str	r2, [sp, #4]
 5432 000c 4FF00002 		mov	r2,#0
 5433              		.loc 1 1241 3 is_stmt 1 view .LVU1480
 5434 0010 03EB4111 		add	r1, r3, r1, lsl #5
 5435              	.LVL379:
 5436              		.loc 1 1241 29 is_stmt 0 view .LVU1481
 5437 0014 D1F8003B 		ldr	r3, [r1, #2816]
 5438 0018 43F40013 		orr	r3, r3, #2097152
 5439 001c C1F8003B 		str	r3, [r1, #2816]
 5440              		.loc 1 1242 1 view .LVU1482
 5441 0020 044B     		ldr	r3, .L399
 5442 0022 1A68     		ldr	r2, [r3]
 5443 0024 019B     		ldr	r3, [sp, #4]
 5444 0026 5A40     		eors	r2, r3, r2
 5445 0028 02D1     		bne	.L398
 5446 002a 03B0     		add	sp, sp, #12
 5447              		.cfi_remember_state
 5448              		.cfi_def_cfa_offset 4
 5449              		@ sp needed
 5450 002c 5DF804FB 		ldr	pc, [sp], #4
 5451              	.L398:
 5452              		.cfi_restore_state
 5453 0030 FFF7FEFF 		bl	__stack_chk_fail
 5454              	.LVL380:
 5455              	.L400:
 5456              		.loc 1 1242 1 view .LVU1483
 5457              		.align	2
 5458              	.L399:
 5459 0034 00000000 		.word	.LC20
 5460              		.cfi_endproc
 5461              	.LFE288:
 5462              		.size	usb_lld_stall_out, .-usb_lld_stall_out
 5463              		.section	.rodata.usb_lld_stall_in.cst4,"aM",%progbits,4
 5464              		.align	2
 5465              	.LC21:
 5466 0000 00000000 		.word	__stack_chk_guard
 5467              		.section	.text.usb_lld_stall_in,"ax",%progbits
 5468              		.align	1
 5469              		.p2align 4,,15
ARM GAS  /tmp/ccqWEI8l.s 			page 97


 5470              		.global	usb_lld_stall_in
 5471              		.syntax unified
 5472              		.thumb
 5473              		.thumb_func
 5474              		.fpu fpv4-sp-d16
 5475              		.type	usb_lld_stall_in, %function
 5476              	usb_lld_stall_in:
 5477              	.LVL381:
 5478              	.LFB289:
 5479              		.loc 1 1252 52 is_stmt 1 view -0
 5480              		.cfi_startproc
 5481              		@ args = 0, pretend = 0, frame = 8
 5482              		@ frame_needed = 0, uses_anonymous_args = 0
 5483              		.loc 1 1252 52 is_stmt 0 view .LVU1485
 5484 0000 00B5     		push	{lr}
 5485              		.cfi_def_cfa_offset 4
 5486              		.cfi_offset 14, -4
 5487 0002 0C4A     		ldr	r2, .L405
 5488 0004 036D     		ldr	r3, [r0, #80]
 5489 0006 83B0     		sub	sp, sp, #12
 5490              		.cfi_def_cfa_offset 16
 5491              		.loc 1 1252 52 view .LVU1486
 5492 0008 1268     		ldr	r2, [r2]
 5493 000a 0192     		str	r2, [sp, #4]
 5494 000c 4FF00002 		mov	r2,#0
 5495              		.loc 1 1254 3 is_stmt 1 view .LVU1487
 5496 0010 03EB4111 		add	r1, r3, r1, lsl #5
 5497              	.LVL382:
 5498              		.loc 1 1254 29 is_stmt 0 view .LVU1488
 5499 0014 D1F80039 		ldr	r3, [r1, #2304]
 5500 0018 43F40013 		orr	r3, r3, #2097152
 5501 001c C1F80039 		str	r3, [r1, #2304]
 5502              		.loc 1 1255 1 view .LVU1489
 5503 0020 044B     		ldr	r3, .L405
 5504 0022 1A68     		ldr	r2, [r3]
 5505 0024 019B     		ldr	r3, [sp, #4]
 5506 0026 5A40     		eors	r2, r3, r2
 5507 0028 02D1     		bne	.L404
 5508 002a 03B0     		add	sp, sp, #12
 5509              		.cfi_remember_state
 5510              		.cfi_def_cfa_offset 4
 5511              		@ sp needed
 5512 002c 5DF804FB 		ldr	pc, [sp], #4
 5513              	.L404:
 5514              		.cfi_restore_state
 5515 0030 FFF7FEFF 		bl	__stack_chk_fail
 5516              	.LVL383:
 5517              	.L406:
 5518              		.loc 1 1255 1 view .LVU1490
 5519              		.align	2
 5520              	.L405:
 5521 0034 00000000 		.word	.LC21
 5522              		.cfi_endproc
 5523              	.LFE289:
 5524              		.size	usb_lld_stall_in, .-usb_lld_stall_in
 5525              		.section	.rodata.usb_lld_clear_out.cst4,"aM",%progbits,4
 5526              		.align	2
ARM GAS  /tmp/ccqWEI8l.s 			page 98


 5527              	.LC22:
 5528 0000 00000000 		.word	__stack_chk_guard
 5529              		.section	.text.usb_lld_clear_out,"ax",%progbits
 5530              		.align	1
 5531              		.p2align 4,,15
 5532              		.global	usb_lld_clear_out
 5533              		.syntax unified
 5534              		.thumb
 5535              		.thumb_func
 5536              		.fpu fpv4-sp-d16
 5537              		.type	usb_lld_clear_out, %function
 5538              	usb_lld_clear_out:
 5539              	.LVL384:
 5540              	.LFB290:
 5541              		.loc 1 1265 53 is_stmt 1 view -0
 5542              		.cfi_startproc
 5543              		@ args = 0, pretend = 0, frame = 8
 5544              		@ frame_needed = 0, uses_anonymous_args = 0
 5545              		.loc 1 1265 53 is_stmt 0 view .LVU1492
 5546 0000 00B5     		push	{lr}
 5547              		.cfi_def_cfa_offset 4
 5548              		.cfi_offset 14, -4
 5549 0002 0C4A     		ldr	r2, .L411
 5550 0004 036D     		ldr	r3, [r0, #80]
 5551 0006 83B0     		sub	sp, sp, #12
 5552              		.cfi_def_cfa_offset 16
 5553              		.loc 1 1265 53 view .LVU1493
 5554 0008 1268     		ldr	r2, [r2]
 5555 000a 0192     		str	r2, [sp, #4]
 5556 000c 4FF00002 		mov	r2,#0
 5557              		.loc 1 1267 3 is_stmt 1 view .LVU1494
 5558 0010 03EB4111 		add	r1, r3, r1, lsl #5
 5559              	.LVL385:
 5560              		.loc 1 1267 29 is_stmt 0 view .LVU1495
 5561 0014 D1F8003B 		ldr	r3, [r1, #2816]
 5562 0018 23F40013 		bic	r3, r3, #2097152
 5563 001c C1F8003B 		str	r3, [r1, #2816]
 5564              		.loc 1 1268 1 view .LVU1496
 5565 0020 044B     		ldr	r3, .L411
 5566 0022 1A68     		ldr	r2, [r3]
 5567 0024 019B     		ldr	r3, [sp, #4]
 5568 0026 5A40     		eors	r2, r3, r2
 5569 0028 02D1     		bne	.L410
 5570 002a 03B0     		add	sp, sp, #12
 5571              		.cfi_remember_state
 5572              		.cfi_def_cfa_offset 4
 5573              		@ sp needed
 5574 002c 5DF804FB 		ldr	pc, [sp], #4
 5575              	.L410:
 5576              		.cfi_restore_state
 5577 0030 FFF7FEFF 		bl	__stack_chk_fail
 5578              	.LVL386:
 5579              	.L412:
 5580              		.loc 1 1268 1 view .LVU1497
 5581              		.align	2
 5582              	.L411:
 5583 0034 00000000 		.word	.LC22
ARM GAS  /tmp/ccqWEI8l.s 			page 99


 5584              		.cfi_endproc
 5585              	.LFE290:
 5586              		.size	usb_lld_clear_out, .-usb_lld_clear_out
 5587              		.section	.rodata.usb_lld_clear_in.cst4,"aM",%progbits,4
 5588              		.align	2
 5589              	.LC23:
 5590 0000 00000000 		.word	__stack_chk_guard
 5591              		.section	.text.usb_lld_clear_in,"ax",%progbits
 5592              		.align	1
 5593              		.p2align 4,,15
 5594              		.global	usb_lld_clear_in
 5595              		.syntax unified
 5596              		.thumb
 5597              		.thumb_func
 5598              		.fpu fpv4-sp-d16
 5599              		.type	usb_lld_clear_in, %function
 5600              	usb_lld_clear_in:
 5601              	.LVL387:
 5602              	.LFB291:
 5603              		.loc 1 1278 52 is_stmt 1 view -0
 5604              		.cfi_startproc
 5605              		@ args = 0, pretend = 0, frame = 8
 5606              		@ frame_needed = 0, uses_anonymous_args = 0
 5607              		.loc 1 1278 52 is_stmt 0 view .LVU1499
 5608 0000 00B5     		push	{lr}
 5609              		.cfi_def_cfa_offset 4
 5610              		.cfi_offset 14, -4
 5611 0002 0C4A     		ldr	r2, .L417
 5612 0004 036D     		ldr	r3, [r0, #80]
 5613 0006 83B0     		sub	sp, sp, #12
 5614              		.cfi_def_cfa_offset 16
 5615              		.loc 1 1278 52 view .LVU1500
 5616 0008 1268     		ldr	r2, [r2]
 5617 000a 0192     		str	r2, [sp, #4]
 5618 000c 4FF00002 		mov	r2,#0
 5619              		.loc 1 1280 3 is_stmt 1 view .LVU1501
 5620 0010 03EB4111 		add	r1, r3, r1, lsl #5
 5621              	.LVL388:
 5622              		.loc 1 1280 29 is_stmt 0 view .LVU1502
 5623 0014 D1F80039 		ldr	r3, [r1, #2304]
 5624 0018 23F40013 		bic	r3, r3, #2097152
 5625 001c C1F80039 		str	r3, [r1, #2304]
 5626              		.loc 1 1281 1 view .LVU1503
 5627 0020 044B     		ldr	r3, .L417
 5628 0022 1A68     		ldr	r2, [r3]
 5629 0024 019B     		ldr	r3, [sp, #4]
 5630 0026 5A40     		eors	r2, r3, r2
 5631 0028 02D1     		bne	.L416
 5632 002a 03B0     		add	sp, sp, #12
 5633              		.cfi_remember_state
 5634              		.cfi_def_cfa_offset 4
 5635              		@ sp needed
 5636 002c 5DF804FB 		ldr	pc, [sp], #4
 5637              	.L416:
 5638              		.cfi_restore_state
 5639 0030 FFF7FEFF 		bl	__stack_chk_fail
 5640              	.LVL389:
ARM GAS  /tmp/ccqWEI8l.s 			page 100


 5641              	.L418:
 5642              		.loc 1 1281 1 view .LVU1504
 5643              		.align	2
 5644              	.L417:
 5645 0034 00000000 		.word	.LC23
 5646              		.cfi_endproc
 5647              	.LFE291:
 5648              		.size	usb_lld_clear_in, .-usb_lld_clear_in
 5649              		.global	USBD1
 5650              		.section	.bss.USBD1,"aw",%nobits
 5651              		.align	3
 5652              		.set	.LANCHOR1,. + 0
 5653              		.type	USBD1, %object
 5654              		.size	USBD1, 608
 5655              	USBD1:
 5656 0000 00000000 		.space	608
 5656      00000000 
 5656      00000000 
 5656      00000000 
 5656      00000000 
 5657              		.section	.bss.ep0_state,"aw",%nobits
 5658              		.align	2
 5659              		.type	ep0_state, %object
 5660              		.size	ep0_state, 20
 5661              	ep0_state:
 5662 0000 00000000 		.space	20
 5662      00000000 
 5662      00000000 
 5662      00000000 
 5662      00000000 
 5663              		.section	.bss.ep0setup_buffer,"aw",%nobits
 5664              		.align	2
 5665              		.type	ep0setup_buffer, %object
 5666              		.size	ep0setup_buffer, 8
 5667              	ep0setup_buffer:
 5668 0000 00000000 		.space	8
 5668      00000000 
 5669              		.section	.rodata.__func__.10403,"a"
 5670              		.align	2
 5671              		.set	.LANCHOR5,. + 0
 5672              		.type	__func__.10403, %object
 5673              		.size	__func__.10403, 14
 5674              	__func__.10403:
 5675 0000 6F74675F 		.ascii	"otg_ram_alloc\000"
 5675      72616D5F 
 5675      616C6C6F 
 5675      6300
 5676              		.section	.rodata.__func__.7663,"a"
 5677              		.align	2
 5678              		.set	.LANCHOR0,. + 0
 5679              		.type	__func__.7663, %object
 5680              		.size	__func__.7663, 12
 5681              	__func__.7663:
 5682 0000 63685379 		.ascii	"chSysUnlock\000"
 5682      73556E6C 
 5682      6F636B00 
 5683              		.section	.rodata.__func__.7830,"a"
ARM GAS  /tmp/ccqWEI8l.s 			page 101


 5684              		.align	2
 5685              		.set	.LANCHOR3,. + 0
 5686              		.type	__func__.7830, %object
 5687              		.size	__func__.7830, 12
 5688              	__func__.7830:
 5689 0000 63685468 		.ascii	"chThdStartI\000"
 5689      64537461 
 5689      72744900 
 5690              		.section	.rodata.ep0config,"a"
 5691              		.align	2
 5692              		.set	.LANCHOR4,. + 0
 5693              		.type	ep0config, %object
 5694              		.size	ep0config, 36
 5695              	ep0config:
 5696 0000 00000000 		.word	0
 5697 0004 00000000 		.word	_usb_ep0setup
 5698 0008 00000000 		.word	_usb_ep0in
 5699 000c 00000000 		.word	_usb_ep0out
 5700 0010 4000     		.short	64
 5701 0012 4000     		.short	64
 5702 0014 00000000 		.word	ep0_state
 5703 0018 00000000 		.word	ep0_state
 5704 001c 0100     		.short	1
 5705 001e 0000     		.space	2
 5706 0020 00000000 		.word	ep0setup_buffer
 5707              		.section	.rodata.fsparams,"a"
 5708              		.align	2
 5709              		.set	.LANCHOR2,. + 0
 5710              		.type	fsparams, %object
 5711              		.size	fsparams, 12
 5712              	fsparams:
 5713 0000 80000000 		.word	128
 5714 0004 40010000 		.word	320
 5715 0008 03000000 		.word	3
 5716              		.text
 5717              	.Letext0:
 5718              		.file 8 "/usr/lib/gcc/arm-none-eabi/9.2.1/include/stddef.h"
 5719              		.file 9 "/usr/include/newlib/sys/_types.h"
 5720              		.file 10 "/usr/include/newlib/sys/reent.h"
 5721              		.file 11 "/usr/include/newlib/sys/lock.h"
 5722              		.file 12 "/usr/lib/gcc/arm-none-eabi/9.2.1/include/stdint.h"
 5723              		.file 13 ".//ChibiOS//os/rt/ports/ARMCMx/compilers/GCC/chtypes.h"
 5724              		.file 14 ".//ChibiOS//os/rt/include/chsystypes.h"
 5725              		.file 15 ".//ChibiOS//os/rt/include/chschd.h"
 5726              		.file 16 ".//ChibiOS//os/ext/CMSIS/include/core_cm4.h"
 5727              		.file 17 ".//ChibiOS//os/ext/CMSIS/ST/system_stm32f4xx.h"
 5728              		.file 18 ".//ChibiOS//os/ext/CMSIS/ST/stm32f407xx.h"
 5729              		.file 19 ".//ChibiOS//os/rt/ports/ARMCMx/chcore.h"
 5730              		.file 20 ".//ChibiOS//os/rt/include/chdebug.h"
 5731              		.file 21 ".//ChibiOS//os/rt/include/chtm.h"
 5732              		.file 22 ".//ChibiOS//os/rt/include/chstats.h"
 5733              		.file 23 ".//ChibiOS//os/rt/include/chsem.h"
 5734              		.file 24 ".//ChibiOS//os/rt/include/chmtx.h"
 5735              		.file 25 ".//ChibiOS//os/rt/include/chevents.h"
 5736              		.file 26 ".//ChibiOS//os/rt/include/chqueues.h"
 5737              		.file 27 ".//ChibiOS//os/hal/ports/STM32/STM32F4xx/stm32_dma.h"
 5738              		.file 28 ".//ChibiOS//os/hal/include/hal_ioblock.h"
ARM GAS  /tmp/ccqWEI8l.s 			page 102


 5739              		.file 29 ".//ChibiOS//os/hal/ports/STM32/LLD/GPIOv2/pal_lld.h"
 5740              		.file 30 ".//ChibiOS//os/hal/include/adc.h"
 5741              		.file 31 ".//ChibiOS//os/hal/ports/STM32/STM32F4xx/adc_lld.h"
 5742              		.file 32 ".//ChibiOS//os/hal/include/can.h"
 5743              		.file 33 ".//ChibiOS//os/hal/ports/STM32/LLD/can_lld.h"
 5744              		.file 34 ".//ChibiOS//os/hal/include/dac.h"
 5745              		.file 35 ".//ChibiOS//os/hal/ports/STM32/LLD/DACv1/dac_lld.h"
 5746              		.file 36 ".//ChibiOS//os/hal/include/ext.h"
 5747              		.file 37 ".//ChibiOS//os/hal/ports/STM32/LLD/ext_lld.h"
 5748              		.file 38 ".//ChibiOS//os/hal/include/gpt.h"
 5749              		.file 39 ".//ChibiOS//os/hal/ports/STM32/LLD/TIMv1/gpt_lld.h"
 5750              		.file 40 ".//ChibiOS//os/hal/ports/STM32/LLD/TIMv1/stm32_tim.h"
 5751              		.file 41 ".//ChibiOS//os/hal/include/i2c.h"
 5752              		.file 42 ".//ChibiOS//os/hal/ports/STM32/LLD/I2Cv1/i2c_lld.h"
 5753              		.file 43 ".//ChibiOS//os/hal/include/i2s.h"
 5754              		.file 44 ".//ChibiOS//os/hal/ports/STM32/LLD/SPIv1/i2s_lld.h"
 5755              		.file 45 ".//ChibiOS//os/hal/include/pwm.h"
 5756              		.file 46 ".//ChibiOS//os/hal/ports/STM32/LLD/TIMv1/pwm_lld.h"
 5757              		.file 47 ".//ChibiOS//os/hal/include/serial.h"
 5758              		.file 48 ".//ChibiOS//os/hal/ports/STM32/LLD/USARTv1/serial_lld.h"
 5759              		.file 49 ".//ChibiOS//os/hal/include/sdc.h"
 5760              		.file 50 ".//ChibiOS//os/hal/ports/STM32/LLD/sdc_lld.h"
 5761              		.file 51 ".//ChibiOS//os/hal/include/spi.h"
 5762              		.file 52 ".//ChibiOS//os/hal/ports/STM32/LLD/SPIv1/spi_lld.h"
 5763              		.file 53 ".//ChibiOS//os/hal/include/usb.h"
 5764              		.file 54 ".//ChibiOS//os/hal/ports/STM32/LLD/OTGv1/usb_lld.h"
 5765              		.file 55 ".//ChibiOS//os/hal/ports/STM32/LLD/OTGv1/stm32_otg.h"
 5766              		.file 56 ".//ChibiOS//os/hal/ports/common/ARMCMx/nvic.h"