ARM GAS  /tmp/ccqyZH0w.s 			page 1


   1              		.cpu cortex-m4
   2              		.eabi_attribute 27, 1
   3              		.eabi_attribute 28, 1
   4              		.eabi_attribute 20, 1
   5              		.eabi_attribute 21, 1
   6              		.eabi_attribute 23, 3
   7              		.eabi_attribute 24, 1
   8              		.eabi_attribute 25, 1
   9              		.eabi_attribute 26, 1
  10              		.eabi_attribute 30, 2
  11              		.eabi_attribute 34, 1
  12              		.eabi_attribute 18, 4
  13              		.file	"vl53l0x_api_calibration.c"
  14              		.text
  15              	.Ltext0:
  16              		.cfi_sections	.debug_frame
  17              		.section	.rodata.VL53L0X_perform_xtalk_calibration.cst4,"aM",%progbits,4
  18              		.align	2
  19              	.LC0:
  20 0000 00000000 		.word	__stack_chk_guard
  21              		.section	.text.VL53L0X_perform_xtalk_calibration,"ax",%progbits
  22              		.align	1
  23              		.p2align 4,,15
  24              		.global	VL53L0X_perform_xtalk_calibration
  25              		.arch armv7e-m
  26              		.syntax unified
  27              		.thumb
  28              		.thumb_func
  29              		.fpu fpv4-sp-d16
  30              		.type	VL53L0X_perform_xtalk_calibration, %function
  31              	VL53L0X_perform_xtalk_calibration:
  32              	.LVL0:
  33              	.LFB3:
  34              		.file 1 ".//src/sensors/VL53L0X/Api/core/src/vl53l0x_api_calibration.c"
  35              		.loc 1 54 1 view -0
  36              		.cfi_startproc
  37              		@ args = 0, pretend = 0, frame = 32
  38              		@ frame_needed = 0, uses_anonymous_args = 0
  39              		.loc 1 54 1 is_stmt 0 view .LVU1
  40 0000 2DE9F04F 		push	{r4, r5, r6, r7, r8, r9, r10, fp, lr}
  41              		.cfi_def_cfa_offset 36
  42              		.cfi_offset 4, -36
  43              		.cfi_offset 5, -32
  44              		.cfi_offset 6, -28
  45              		.cfi_offset 7, -24
  46              		.cfi_offset 8, -20
  47              		.cfi_offset 9, -16
  48              		.cfi_offset 10, -12
  49              		.cfi_offset 11, -8
  50              		.cfi_offset 14, -4
  51 0004 3B4B     		ldr	r3, .L27
  52 0006 89B0     		sub	sp, sp, #36
  53              		.cfi_def_cfa_offset 72
  54              		.loc 1 54 1 view .LVU2
  55 0008 1B68     		ldr	r3, [r3]
  56 000a 0793     		str	r3, [sp, #28]
  57 000c 4FF00003 		mov	r3,#0
ARM GAS  /tmp/ccqyZH0w.s 			page 2


  58              		.loc 1 55 2 is_stmt 1 view .LVU3
  59              	.LVL1:
  60              		.loc 1 56 2 view .LVU4
  61              		.loc 1 57 2 view .LVU5
  62              		.loc 1 58 2 view .LVU6
  63              		.loc 1 59 2 view .LVU7
  64              		.loc 1 60 2 view .LVU8
  65              		.loc 1 61 2 view .LVU9
  66              		.loc 1 62 2 view .LVU10
  67              		.loc 1 63 2 view .LVU11
  68              		.loc 1 64 2 view .LVU12
  69              		.loc 1 65 2 view .LVU13
  70              		.loc 1 66 2 view .LVU14
  71              		.loc 1 67 2 view .LVU15
  72              		.loc 1 68 2 view .LVU16
  73              		.loc 1 70 2 view .LVU17
  74              		.loc 1 70 5 is_stmt 0 view .LVU18
  75 0010 49B9     		cbnz	r1, .L23
  76              		.loc 1 71 10 view .LVU19
  77 0012 6FF00300 		mvn	r0, #3
  78              	.LVL2:
  79              	.L2:
  80              		.loc 1 187 2 is_stmt 1 view .LVU20
  81              		.loc 1 188 1 is_stmt 0 view .LVU21
  82 0016 374B     		ldr	r3, .L27
  83 0018 1A68     		ldr	r2, [r3]
  84 001a 079B     		ldr	r3, [sp, #28]
  85 001c 5A40     		eors	r2, r3, r2
  86 001e 67D1     		bne	.L24
  87 0020 09B0     		add	sp, sp, #36
  88              		.cfi_remember_state
  89              		.cfi_def_cfa_offset 36
  90              		@ sp needed
  91 0022 BDE8F08F 		pop	{r4, r5, r6, r7, r8, r9, r10, fp, pc}
  92              	.LVL3:
  93              	.L23:
  94              		.cfi_restore_state
  95              		.loc 1 74 2 is_stmt 1 view .LVU22
  96              		.loc 1 75 3 view .LVU23
  97 0026 8A46     		mov	r10, r1
  98              		.loc 1 75 12 is_stmt 0 view .LVU24
  99 0028 0021     		movs	r1, #0
 100              	.LVL4:
 101              		.loc 1 75 12 view .LVU25
 102 002a 9346     		mov	fp, r2
 103 002c 0646     		mov	r6, r0
 104 002e FFF7FEFF 		bl	VL53L0X_SetXTalkCompensationEnable
 105              	.LVL5:
 106              		.loc 1 78 2 is_stmt 1 view .LVU26
 107              		.loc 1 78 5 is_stmt 0 view .LVU27
 108 0032 0028     		cmp	r0, #0
 109 0034 EFD1     		bne	.L2
 110              		.loc 1 79 3 is_stmt 1 view .LVU28
 111              		.loc 1 79 12 is_stmt 0 view .LVU29
 112 0036 0246     		mov	r2, r0
 113 0038 0321     		movs	r1, #3
 114 003a 3046     		mov	r0, r6
ARM GAS  /tmp/ccqyZH0w.s 			page 3


 115              	.LVL6:
 116              		.loc 1 79 12 view .LVU30
 117 003c FFF7FEFF 		bl	VL53L0X_SetLimitCheckEnable
 118              	.LVL7:
 119              		.loc 1 84 2 is_stmt 1 view .LVU31
 120              		.loc 1 84 5 is_stmt 0 view .LVU32
 121 0040 0028     		cmp	r0, #0
 122 0042 E8D1     		bne	.L2
 123              		.loc 1 88 15 view .LVU33
 124 0044 0746     		mov	r7, r0
 125              		.loc 1 87 18 view .LVU34
 126 0046 8146     		mov	r9, r0
 127              		.loc 1 86 13 view .LVU35
 128 0048 0546     		mov	r5, r0
 129              		.loc 1 85 15 view .LVU36
 130 004a 8046     		mov	r8, r0
 131 004c 3224     		movs	r4, #50
 132 004e 13E0     		b	.L5
 133              	.LVL8:
 134              	.L26:
 135              		.loc 1 97 4 is_stmt 1 view .LVU37
 136              		.loc 1 97 7 is_stmt 0 view .LVU38
 137 0050 9DF81830 		ldrb	r3, [sp, #24]	@ zero_extendqisi2
 138 0054 63B9     		cbnz	r3, .L4
 139              		.loc 1 98 5 is_stmt 1 view .LVU39
 140              		.loc 1 98 17 is_stmt 0 view .LVU40
 141 0056 BDF80810 		ldrh	r1, [sp, #8]
 142              		.loc 1 102 27 view .LVU41
 143 005a BDF81430 		ldrh	r3, [sp, #20]
 144              		.loc 1 100 20 view .LVU42
 145 005e 039A     		ldr	r2, [sp, #12]
 146              		.loc 1 98 17 view .LVU43
 147 0060 8844     		add	r8, r8, r1
 148              	.LVL9:
 149              		.loc 1 102 15 view .LVU44
 150 0062 05EB1325 		add	r5, r5, r3, lsr #8
 151              	.LVL10:
 152              		.loc 1 105 17 view .LVU45
 153 0066 0137     		adds	r7, r7, #1
 154              	.LVL11:
 155              		.loc 1 98 17 view .LVU46
 156 0068 1FFA88F8 		uxth	r8, r8
 157              	.LVL12:
 158              		.loc 1 100 5 is_stmt 1 view .LVU47
 159              		.loc 1 102 15 is_stmt 0 view .LVU48
 160 006c ADB2     		uxth	r5, r5
 161              		.loc 1 100 20 view .LVU49
 162 006e 9144     		add	r9, r9, r2
 163              	.LVL13:
 164              		.loc 1 102 5 is_stmt 1 view .LVU50
 165              		.loc 1 105 5 view .LVU51
 166              	.L4:
 167              		.loc 1 89 41 discriminator 2 view .LVU52
 168              		.loc 1 89 24 discriminator 2 view .LVU53
 169 0070 013C     		subs	r4, r4, #1
 170              	.LVL14:
 171              		.loc 1 89 3 is_stmt 0 discriminator 2 view .LVU54
ARM GAS  /tmp/ccqyZH0w.s 			page 4


 172 0072 14F0FF04 		ands	r4, r4, #255
 173 0076 0AD0     		beq	.L25
 174              	.LVL15:
 175              	.L5:
 176              		.loc 1 90 4 is_stmt 1 view .LVU55
 177              		.loc 1 90 13 is_stmt 0 view .LVU56
 178 0078 6946     		mov	r1, sp
 179 007a 3046     		mov	r0, r6
 180 007c FFF7FEFF 		bl	VL53L0X_PerformSingleRangingMeasurement
 181              	.LVL16:
 182              		.loc 1 93 4 is_stmt 1 view .LVU57
 183              		.loc 1 93 7 is_stmt 0 view .LVU58
 184 0080 0028     		cmp	r0, #0
 185 0082 E5D0     		beq	.L26
 186              		.loc 1 110 3 is_stmt 1 view .LVU59
 187              		.loc 1 111 11 is_stmt 0 view .LVU60
 188 0084 002F     		cmp	r7, #0
 189 0086 08BF     		it	eq
 190 0088 6FF00500 		mvneq	r0, #5
 191              	.LVL17:
 192              		.loc 1 111 11 view .LVU61
 193 008c C3E7     		b	.L2
 194              	.LVL18:
 195              	.L25:
 196              		.loc 1 110 3 is_stmt 1 view .LVU62
 197              		.loc 1 110 6 is_stmt 0 view .LVU63
 198 008e 17B9     		cbnz	r7, .L20
 199              		.loc 1 111 11 view .LVU64
 200 0090 6FF00500 		mvn	r0, #5
 201 0094 BFE7     		b	.L2
 202              	.L20:
 203              		.loc 1 118 3 is_stmt 1 view .LVU65
 204              	.LVL19:
 205              		.loc 1 119 3 view .LVU66
 206              		.loc 1 121 3 view .LVU67
 207              		.loc 1 135 3 view .LVU68
 208              		.loc 1 122 14 is_stmt 0 view .LVU69
 209 0096 2904     		lsls	r1, r5, #16
 210              		.loc 1 121 27 view .LVU70
 211 0098 B1FBF7F1 		udiv	r1, r1, r7
 212              		.loc 1 135 59 view .LVU71
 213 009c 01F50041 		add	r1, r1, #32768
 214              	.LVL20:
 215              		.loc 1 141 4 is_stmt 1 view .LVU72
 216              		.loc 1 143 3 view .LVU73
 217              		.loc 1 143 6 is_stmt 0 view .LVU74
 218 00a0 0D0C     		lsrs	r5, r1, #16
 219              	.LVL21:
 220              		.loc 1 143 6 view .LVU75
 221 00a2 16D0     		beq	.L7
 222              		.loc 1 141 46 discriminator 1 view .LVU76
 223 00a4 0AF50043 		add	r3, r10, #32768
 224              	.LVL22:
 225              		.loc 1 143 41 discriminator 1 view .LVU77
 226 00a8 1B0C     		lsrs	r3, r3, #16
 227              	.LVL23:
 228              		.loc 1 143 41 discriminator 1 view .LVU78
ARM GAS  /tmp/ccqyZH0w.s 			page 5


 229 00aa 1FD0     		beq	.L12
 230              		.loc 1 120 16 view .LVU79
 231 00ac 4FEA0848 		lsl	r8, r8, #16
 232              	.LVL24:
 233              		.loc 1 119 24 view .LVU80
 234 00b0 B8FBF7F8 		udiv	r8, r8, r7
 235              		.loc 1 144 33 view .LVU81
 236 00b4 C245     		cmp	r10, r8
 237 00b6 19D9     		bls	.L12
 238              		.loc 1 151 4 is_stmt 1 view .LVU82
 239              		.loc 1 158 4 view .LVU83
 240              		.loc 1 167 27 is_stmt 0 view .LVU84
 241 00b8 B8FBF3F3 		udiv	r3, r8, r3
 242              		.loc 1 118 29 view .LVU85
 243 00bc B9FBF7F1 		udiv	r1, r9, r7
 244              	.LVL25:
 245              		.loc 1 166 42 view .LVU86
 246 00c0 C3F58033 		rsb	r3, r3, #65536
 247              		.loc 1 158 28 view .LVU87
 248 00c4 B1FBF5F1 		udiv	r1, r1, r5
 249              	.LVL26:
 250              		.loc 1 166 4 is_stmt 1 view .LVU88
 251              		.loc 1 170 4 view .LVU89
 252              		.loc 1 166 28 is_stmt 0 view .LVU90
 253 00c8 01FB03F3 		mul	r3, r1, r3
 254              		.loc 1 171 5 view .LVU91
 255 00cc 03F50041 		add	r1, r3, #32768
 256              	.LVL27:
 257              		.loc 1 170 33 view .LVU92
 258 00d0 0D0C     		lsrs	r5, r1, #16
 259              	.LVL28:
 260              	.L7:
 261              		.loc 1 174 3 is_stmt 1 view .LVU93
 262              		.loc 1 174 34 is_stmt 0 view .LVU94
 263 00d2 CBF80050 		str	r5, [fp]
 264              		.loc 1 177 3 is_stmt 1 view .LVU95
 265              		.loc 1 178 4 view .LVU96
 266              		.loc 1 178 13 is_stmt 0 view .LVU97
 267 00d6 0121     		movs	r1, #1
 268 00d8 3046     		mov	r0, r6
 269 00da FFF7FEFF 		bl	VL53L0X_SetXTalkCompensationEnable
 270              	.LVL29:
 271              		.loc 1 181 3 is_stmt 1 view .LVU98
 272              		.loc 1 181 6 is_stmt 0 view .LVU99
 273 00de 0028     		cmp	r0, #0
 274 00e0 99D1     		bne	.L2
 275              		.loc 1 182 4 is_stmt 1 view .LVU100
 276              		.loc 1 182 13 is_stmt 0 view .LVU101
 277 00e2 2946     		mov	r1, r5
 278 00e4 3046     		mov	r0, r6
 279              	.LVL30:
 280              		.loc 1 182 13 view .LVU102
 281 00e6 FFF7FEFF 		bl	VL53L0X_SetXTalkCompensationRateMegaCps
 282              	.LVL31:
 283              		.loc 1 182 13 view .LVU103
 284 00ea 94E7     		b	.L2
 285              	.LVL32:
ARM GAS  /tmp/ccqyZH0w.s 			page 6


 286              	.L12:
 287              		.loc 1 146 33 view .LVU104
 288 00ec 2546     		mov	r5, r4
 289              	.LVL33:
 290              		.loc 1 146 33 view .LVU105
 291 00ee F0E7     		b	.L7
 292              	.LVL34:
 293              	.L24:
 294              		.loc 1 188 1 view .LVU106
 295 00f0 FFF7FEFF 		bl	__stack_chk_fail
 296              	.LVL35:
 297              	.L28:
 298              		.loc 1 188 1 view .LVU107
 299              		.align	2
 300              	.L27:
 301 00f4 00000000 		.word	.LC0
 302              		.cfi_endproc
 303              	.LFE3:
 304              		.size	VL53L0X_perform_xtalk_calibration, .-VL53L0X_perform_xtalk_calibration
 305              		.section	.rodata.VL53L0X_perform_offset_calibration.cst4,"aM",%progbits,4
 306              		.align	2
 307              	.LC1:
 308 0000 00000000 		.word	__stack_chk_guard
 309              		.section	.text.VL53L0X_perform_offset_calibration,"ax",%progbits
 310              		.align	1
 311              		.p2align 4,,15
 312              		.global	VL53L0X_perform_offset_calibration
 313              		.syntax unified
 314              		.thumb
 315              		.thumb_func
 316              		.fpu fpv4-sp-d16
 317              		.type	VL53L0X_perform_offset_calibration, %function
 318              	VL53L0X_perform_offset_calibration:
 319              	.LVL36:
 320              	.LFB4:
 321              		.loc 1 193 1 is_stmt 1 view -0
 322              		.cfi_startproc
 323              		@ args = 0, pretend = 0, frame = 40
 324              		@ frame_needed = 0, uses_anonymous_args = 0
 325              		.loc 1 193 1 is_stmt 0 view .LVU109
 326 0000 2DE9F043 		push	{r4, r5, r6, r7, r8, r9, lr}
 327              		.cfi_def_cfa_offset 28
 328              		.cfi_offset 4, -28
 329              		.cfi_offset 5, -24
 330              		.cfi_offset 6, -20
 331              		.cfi_offset 7, -16
 332              		.cfi_offset 8, -12
 333              		.cfi_offset 9, -8
 334              		.cfi_offset 14, -4
 335 0004 394B     		ldr	r3, .L51
 336 0006 8BB0     		sub	sp, sp, #44
 337              		.cfi_def_cfa_offset 72
 338              		.loc 1 193 1 view .LVU110
 339 0008 1B68     		ldr	r3, [r3]
 340 000a 0993     		str	r3, [sp, #36]
 341 000c 4FF00003 		mov	r3,#0
 342              		.loc 1 194 2 is_stmt 1 view .LVU111
ARM GAS  /tmp/ccqyZH0w.s 			page 7


 343              	.LVL37:
 344              		.loc 1 195 2 view .LVU112
 345              		.loc 1 196 2 view .LVU113
 346              		.loc 1 197 2 view .LVU114
 347              		.loc 1 198 2 view .LVU115
 348              		.loc 1 199 2 view .LVU116
 349              		.loc 1 200 2 view .LVU117
 350              		.loc 1 201 2 view .LVU118
 351              		.loc 1 202 2 view .LVU119
 352              		.loc 1 204 2 view .LVU120
 353              		.loc 1 204 5 is_stmt 0 view .LVU121
 354 0010 49B9     		cbnz	r1, .L47
 355              		.loc 1 205 10 view .LVU122
 356 0012 6FF00300 		mvn	r0, #3
 357              	.LVL38:
 358              	.L30:
 359              		.loc 1 285 2 is_stmt 1 view .LVU123
 360              		.loc 1 286 1 is_stmt 0 view .LVU124
 361 0016 354B     		ldr	r3, .L51
 362 0018 1A68     		ldr	r2, [r3]
 363 001a 099B     		ldr	r3, [sp, #36]
 364 001c 5A40     		eors	r2, r3, r2
 365 001e 62D1     		bne	.L48
 366 0020 0BB0     		add	sp, sp, #44
 367              		.cfi_remember_state
 368              		.cfi_def_cfa_offset 28
 369              		@ sp needed
 370 0022 BDE8F083 		pop	{r4, r5, r6, r7, r8, r9, pc}
 371              	.LVL39:
 372              	.L47:
 373              		.cfi_restore_state
 374              		.loc 1 207 2 is_stmt 1 view .LVU125
 375              		.loc 1 208 3 view .LVU126
 376 0026 0D46     		mov	r5, r1
 377              		.loc 1 208 12 is_stmt 0 view .LVU127
 378 0028 0021     		movs	r1, #0
 379              	.LVL40:
 380              		.loc 1 208 12 view .LVU128
 381 002a 1646     		mov	r6, r2
 382 002c 0446     		mov	r4, r0
 383 002e FFF7FEFF 		bl	VL53L0X_SetOffsetCalibrationDataMicroMeter
 384              	.LVL41:
 385              		.loc 1 212 2 is_stmt 1 view .LVU129
 386              		.loc 1 212 5 is_stmt 0 view .LVU130
 387 0032 0028     		cmp	r0, #0
 388 0034 EFD1     		bne	.L30
 389              		.loc 1 213 3 is_stmt 1 view .LVU131
 390              		.loc 1 213 12 is_stmt 0 view .LVU132
 391 0036 0146     		mov	r1, r0
 392 0038 0DF10702 		add	r2, sp, #7
 393 003c 2046     		mov	r0, r4
 394              	.LVL42:
 395              		.loc 1 213 12 view .LVU133
 396 003e FFF7FEFF 		bl	VL53L0X_GetSequenceStepEnable
 397              	.LVL43:
 398              		.loc 1 218 2 is_stmt 1 view .LVU134
 399              		.loc 1 218 5 is_stmt 0 view .LVU135
ARM GAS  /tmp/ccqyZH0w.s 			page 8


 400 0042 0028     		cmp	r0, #0
 401 0044 E7D1     		bne	.L30
 402              		.loc 1 219 3 is_stmt 1 view .LVU136
 403              		.loc 1 219 12 is_stmt 0 view .LVU137
 404 0046 0246     		mov	r2, r0
 405 0048 0146     		mov	r1, r0
 406 004a 2046     		mov	r0, r4
 407              	.LVL44:
 408              		.loc 1 219 12 view .LVU138
 409 004c FFF7FEFF 		bl	VL53L0X_SetSequenceStepEnable
 410              	.LVL45:
 411              		.loc 1 224 2 is_stmt 1 view .LVU139
 412              		.loc 1 224 5 is_stmt 0 view .LVU140
 413 0050 0028     		cmp	r0, #0
 414 0052 E0D1     		bne	.L30
 415              		.loc 1 225 3 is_stmt 1 view .LVU141
 416              		.loc 1 225 12 is_stmt 0 view .LVU142
 417 0054 0246     		mov	r2, r0
 418 0056 0321     		movs	r1, #3
 419 0058 2046     		mov	r0, r4
 420              	.LVL46:
 421              		.loc 1 225 12 view .LVU143
 422 005a FFF7FEFF 		bl	VL53L0X_SetLimitCheckEnable
 423              	.LVL47:
 424              		.loc 1 229 2 is_stmt 1 view .LVU144
 425              		.loc 1 229 5 is_stmt 0 view .LVU145
 426 005e 0028     		cmp	r0, #0
 427 0060 D9D1     		bne	.L30
 428              		.loc 1 231 15 view .LVU146
 429 0062 8046     		mov	r8, r0
 430              		.loc 1 230 15 view .LVU147
 431 0064 8146     		mov	r9, r0
 432 0066 3227     		movs	r7, #50
 433 0068 0BE0     		b	.L33
 434              	.LVL48:
 435              	.L50:
 436              		.loc 1 240 4 is_stmt 1 view .LVU148
 437              		.loc 1 240 7 is_stmt 0 view .LVU149
 438 006a 9DF82030 		ldrb	r3, [sp, #32]	@ zero_extendqisi2
 439 006e 33B9     		cbnz	r3, .L32
 440              		.loc 1 241 5 is_stmt 1 view .LVU150
 441              		.loc 1 241 17 is_stmt 0 view .LVU151
 442 0070 BDF81030 		ldrh	r3, [sp, #16]
 443 0074 4B44     		add	r3, r3, r9
 444              		.loc 1 243 17 view .LVU152
 445 0076 08F10108 		add	r8, r8, #1
 446              	.LVL49:
 447              		.loc 1 241 17 view .LVU153
 448 007a 1FFA83F9 		uxth	r9, r3
 449              	.LVL50:
 450              		.loc 1 243 5 is_stmt 1 view .LVU154
 451              	.L32:
 452              		.loc 1 232 29 discriminator 2 view .LVU155
 453              		.loc 1 232 18 discriminator 2 view .LVU156
 454              		.loc 1 232 3 is_stmt 0 discriminator 2 view .LVU157
 455 007e 013F     		subs	r7, r7, #1
 456              	.LVL51:
ARM GAS  /tmp/ccqyZH0w.s 			page 9


 457              		.loc 1 232 3 discriminator 2 view .LVU158
 458 0080 0BD0     		beq	.L49
 459              	.LVL52:
 460              	.L33:
 461              		.loc 1 233 4 is_stmt 1 view .LVU159
 462              		.loc 1 233 13 is_stmt 0 view .LVU160
 463 0082 02A9     		add	r1, sp, #8
 464 0084 2046     		mov	r0, r4
 465 0086 FFF7FEFF 		bl	VL53L0X_PerformSingleRangingMeasurement
 466              	.LVL53:
 467              		.loc 1 236 4 is_stmt 1 view .LVU161
 468              		.loc 1 236 7 is_stmt 0 view .LVU162
 469 008a 0028     		cmp	r0, #0
 470 008c EDD0     		beq	.L50
 471              		.loc 1 248 3 is_stmt 1 view .LVU163
 472              		.loc 1 249 11 is_stmt 0 view .LVU164
 473 008e B8F1000F 		cmp	r8, #0
 474 0092 08BF     		it	eq
 475 0094 6FF00500 		mvneq	r0, #5
 476              	.LVL54:
 477              		.loc 1 249 11 view .LVU165
 478 0098 BDE7     		b	.L30
 479              	.LVL55:
 480              	.L49:
 481              		.loc 1 248 3 is_stmt 1 view .LVU166
 482              		.loc 1 248 6 is_stmt 0 view .LVU167
 483 009a B8F1000F 		cmp	r8, #0
 484 009e 02D1     		bne	.L45
 485              		.loc 1 249 11 view .LVU168
 486 00a0 6FF00500 		mvn	r0, #5
 487 00a4 B7E7     		b	.L30
 488              	.L45:
 489              		.loc 1 255 3 is_stmt 1 view .LVU169
 490              	.LVL56:
 491              		.loc 1 258 3 view .LVU170
 492              		.loc 1 263 4 view .LVU171
 493              		.loc 1 265 4 view .LVU172
 494              		.loc 1 255 61 is_stmt 0 view .LVU173
 495 00a6 4FEA0941 		lsl	r1, r9, #16
 496              		.loc 1 255 19 view .LVU174
 497 00aa B1FBF8F1 		udiv	r1, r1, r8
 498              		.loc 1 258 43 view .LVU175
 499 00ae 01F50041 		add	r1, r1, #32768
 500              		.loc 1 263 49 view .LVU176
 501 00b2 05F50045 		add	r5, r5, #32768
 502              	.LVL57:
 503              		.loc 1 258 24 view .LVU177
 504 00b6 090C     		lsrs	r1, r1, #16
 505              		.loc 1 265 46 view .LVU178
 506 00b8 C1EB1541 		rsb	r1, r1, r5, lsr #16
 507              		.loc 1 266 28 view .LVU179
 508 00bc 4FF47A75 		mov	r5, #1000
 509              	.LVL58:
 510              		.loc 1 266 28 view .LVU180
 511 00c0 05FB01F1 		mul	r1, r5, r1
 512              		.loc 1 265 23 view .LVU181
 513 00c4 3160     		str	r1, [r6]
ARM GAS  /tmp/ccqyZH0w.s 			page 10


 514              		.loc 1 269 3 is_stmt 1 view .LVU182
 515              		.loc 1 270 4 view .LVU183
 516              		.loc 1 272 13 is_stmt 0 view .LVU184
 517 00c6 2046     		mov	r0, r4
 518              		.loc 1 270 4 view .LVU185
 519 00c8 6162     		str	r1, [r4, #36]
 520              		.loc 1 272 4 is_stmt 1 view .LVU186
 521              		.loc 1 272 13 is_stmt 0 view .LVU187
 522 00ca FFF7FEFF 		bl	VL53L0X_SetOffsetCalibrationDataMicroMeter
 523              	.LVL59:
 524              		.loc 1 279 2 is_stmt 1 view .LVU188
 525              		.loc 1 279 5 is_stmt 0 view .LVU189
 526 00ce 0028     		cmp	r0, #0
 527 00d0 A1D1     		bne	.L30
 528              		.loc 1 280 3 is_stmt 1 view .LVU190
 529              		.loc 1 280 6 is_stmt 0 view .LVU191
 530 00d2 9DF80730 		ldrb	r3, [sp, #7]	@ zero_extendqisi2
 531 00d6 002B     		cmp	r3, #0
 532 00d8 9DD0     		beq	.L30
 533              		.loc 1 281 4 is_stmt 1 view .LVU192
 534              		.loc 1 281 13 is_stmt 0 view .LVU193
 535 00da 3946     		mov	r1, r7
 536 00dc 2046     		mov	r0, r4
 537              	.LVL60:
 538              		.loc 1 281 13 view .LVU194
 539 00de 0122     		movs	r2, #1
 540 00e0 FFF7FEFF 		bl	VL53L0X_SetSequenceStepEnable
 541              	.LVL61:
 542              		.loc 1 281 13 view .LVU195
 543 00e4 97E7     		b	.L30
 544              	.LVL62:
 545              	.L48:
 546              		.loc 1 286 1 view .LVU196
 547 00e6 FFF7FEFF 		bl	__stack_chk_fail
 548              	.LVL63:
 549              	.L52:
 550              		.loc 1 286 1 view .LVU197
 551 00ea 00BF     		.align	2
 552              	.L51:
 553 00ec 00000000 		.word	.LC1
 554              		.cfi_endproc
 555              	.LFE4:
 556              		.size	VL53L0X_perform_offset_calibration, .-VL53L0X_perform_offset_calibration
 557              		.section	.rodata.VL53L0X_set_offset_calibration_data_micro_meter.cst4,"aM",%progbits,4
 558              		.align	2
 559              	.LC2:
 560 0000 00000000 		.word	__stack_chk_guard
 561              		.section	.text.VL53L0X_set_offset_calibration_data_micro_meter,"ax",%progbits
 562              		.align	1
 563              		.p2align 4,,15
 564              		.global	VL53L0X_set_offset_calibration_data_micro_meter
 565              		.syntax unified
 566              		.thumb
 567              		.thumb_func
 568              		.fpu fpv4-sp-d16
 569              		.type	VL53L0X_set_offset_calibration_data_micro_meter, %function
 570              	VL53L0X_set_offset_calibration_data_micro_meter:
ARM GAS  /tmp/ccqyZH0w.s 			page 11


 571              	.LVL64:
 572              	.LFB5:
 573              		.loc 1 291 1 is_stmt 1 view -0
 574              		.cfi_startproc
 575              		@ args = 0, pretend = 0, frame = 8
 576              		@ frame_needed = 0, uses_anonymous_args = 0
 577              		.loc 1 291 1 is_stmt 0 view .LVU199
 578 0000 00B5     		push	{lr}
 579              		.cfi_def_cfa_offset 4
 580              		.cfi_offset 14, -4
 581              		.loc 1 300 5 view .LVU200
 582 0002 154B     		ldr	r3, .L65
 583              		.loc 1 291 1 view .LVU201
 584 0004 154A     		ldr	r2, .L65+4
 585 0006 83B0     		sub	sp, sp, #12
 586              		.cfi_def_cfa_offset 16
 587              		.loc 1 300 5 view .LVU202
 588 0008 9942     		cmp	r1, r3
 589              		.loc 1 291 1 view .LVU203
 590 000a 1268     		ldr	r2, [r2]
 591 000c 0192     		str	r2, [sp, #4]
 592 000e 4FF00002 		mov	r2,#0
 593              		.loc 1 292 2 is_stmt 1 view .LVU204
 594              	.LVL65:
 595              		.loc 1 293 2 view .LVU205
 596              		.loc 1 294 2 view .LVU206
 597              		.loc 1 295 2 view .LVU207
 598              		.loc 1 296 2 view .LVU208
 599              		.loc 1 298 2 view .LVU209
 600              		.loc 1 300 2 view .LVU210
 601              		.loc 1 300 5 is_stmt 0 view .LVU211
 602 0012 05DC     		bgt	.L60
 603              		.loc 1 302 7 is_stmt 1 view .LVU212
 604              		.loc 1 302 10 is_stmt 0 view .LVU213
 605 0014 11F5FA2F 		cmn	r1, #512000
 606 0018 0FDA     		bge	.L63
 607 001a 4FF40062 		mov	r2, #2048
 608              	.LVL66:
 609              		.loc 1 313 3 is_stmt 1 view .LVU214
 610              		.loc 1 313 3 is_stmt 0 view .LVU215
 611 001e 01E0     		b	.L57
 612              	.LVL67:
 613              	.L60:
 614              		.loc 1 313 3 view .LVU216
 615 0020 40F2FC72 		movw	r2, #2044
 616              	.LVL68:
 617              		.loc 1 310 3 is_stmt 1 view .LVU217
 618              	.L57:
 619              		.loc 1 318 2 view .LVU218
 620              		.loc 1 318 11 is_stmt 0 view .LVU219
 621 0024 0D4B     		ldr	r3, .L65+4
 622 0026 1968     		ldr	r1, [r3]
 623 0028 019B     		ldr	r3, [sp, #4]
 624 002a 5940     		eors	r1, r3, r1
 625 002c 12D1     		bne	.L64
 626 002e 2821     		movs	r1, #40
 627              		.loc 1 324 1 view .LVU220
ARM GAS  /tmp/ccqyZH0w.s 			page 12


 628 0030 03B0     		add	sp, sp, #12
 629              		.cfi_remember_state
 630              		.cfi_def_cfa_offset 4
 631              		@ sp needed
 632 0032 5DF804EB 		ldr	lr, [sp], #4
 633              		.cfi_restore 14
 634              		.cfi_def_cfa_offset 0
 635              		.loc 1 318 11 view .LVU221
 636 0036 FFF7FEBF 		b	VL53L0X_WrWord
 637              	.LVL69:
 638              	.L63:
 639              		.cfi_restore_state
 640              		.loc 1 309 2 is_stmt 1 view .LVU222
 641 003a 094B     		ldr	r3, .L65+8
 642 003c CA17     		asrs	r2, r1, #31
 643              		.loc 1 309 5 is_stmt 0 view .LVU223
 644 003e 0029     		cmp	r1, #0
 645 0040 83FB0131 		smull	r3, r1, r3, r1
 646              	.LVL70:
 647              		.loc 1 309 5 view .LVU224
 648 0044 C2EB2111 		rsb	r1, r2, r1, asr #4
 649 0048 BABF     		itte	lt
 650 004a 01F58052 		addlt	r2, r1, #4096
 651 004e 92B2     		uxthlt	r2, r2
 652 0050 8AB2     		uxthge	r2, r1
 653 0052 E7E7     		b	.L57
 654              	.LVL71:
 655              	.L64:
 656              		.loc 1 318 11 view .LVU225
 657 0054 FFF7FEFF 		bl	__stack_chk_fail
 658              	.LVL72:
 659              	.L66:
 660              		.loc 1 318 11 view .LVU226
 661              		.align	2
 662              	.L65:
 663 0058 18CC0700 		.word	511000
 664 005c 00000000 		.word	.LC2
 665 0060 D34D6210 		.word	274877907
 666              		.cfi_endproc
 667              	.LFE5:
 668              		.size	VL53L0X_set_offset_calibration_data_micro_meter, .-VL53L0X_set_offset_calibration_data_micro
 669              		.section	.rodata.VL53L0X_get_offset_calibration_data_micro_meter.cst4,"aM",%progbits,4
 670              		.align	2
 671              	.LC3:
 672 0000 00000000 		.word	__stack_chk_guard
 673              		.section	.text.VL53L0X_get_offset_calibration_data_micro_meter,"ax",%progbits
 674              		.align	1
 675              		.p2align 4,,15
 676              		.global	VL53L0X_get_offset_calibration_data_micro_meter
 677              		.syntax unified
 678              		.thumb
 679              		.thumb_func
 680              		.fpu fpv4-sp-d16
 681              		.type	VL53L0X_get_offset_calibration_data_micro_meter, %function
 682              	VL53L0X_get_offset_calibration_data_micro_meter:
 683              	.LVL73:
 684              	.LFB6:
ARM GAS  /tmp/ccqyZH0w.s 			page 13


 685              		.loc 1 328 1 is_stmt 1 view -0
 686              		.cfi_startproc
 687              		@ args = 0, pretend = 0, frame = 8
 688              		@ frame_needed = 0, uses_anonymous_args = 0
 689              		.loc 1 328 1 is_stmt 0 view .LVU228
 690 0000 10B5     		push	{r4, lr}
 691              		.cfi_def_cfa_offset 8
 692              		.cfi_offset 4, -8
 693              		.cfi_offset 14, -4
 694 0002 144B     		ldr	r3, .L73
 695 0004 82B0     		sub	sp, sp, #8
 696              		.cfi_def_cfa_offset 16
 697              		.loc 1 328 1 view .LVU229
 698 0006 0C46     		mov	r4, r1
 699              		.loc 1 336 11 view .LVU230
 700 0008 0DF10202 		add	r2, sp, #2
 701 000c 2821     		movs	r1, #40
 702              	.LVL74:
 703              		.loc 1 328 1 view .LVU231
 704 000e 1B68     		ldr	r3, [r3]
 705 0010 0193     		str	r3, [sp, #4]
 706 0012 4FF00003 		mov	r3,#0
 707              		.loc 1 329 2 is_stmt 1 view .LVU232
 708              	.LVL75:
 709              		.loc 1 330 2 view .LVU233
 710              		.loc 1 331 2 view .LVU234
 711              		.loc 1 332 2 view .LVU235
 712              		.loc 1 336 2 view .LVU236
 713              		.loc 1 336 11 is_stmt 0 view .LVU237
 714 0016 FFF7FEFF 		bl	VL53L0X_RdWord
 715              	.LVL76:
 716              		.loc 1 340 2 is_stmt 1 view .LVU238
 717              		.loc 1 340 5 is_stmt 0 view .LVU239
 718 001a 68B9     		cbnz	r0, .L68
 719              		.loc 1 341 3 is_stmt 1 view .LVU240
 720              		.loc 1 341 46 is_stmt 0 view .LVU241
 721 001c BDF80220 		ldrh	r2, [sp, #2]
 722 0020 C2F30B03 		ubfx	r3, r2, #0, #12
 723              	.LVL77:
 724              		.loc 1 344 3 is_stmt 1 view .LVU242
 725              		.loc 1 344 6 is_stmt 0 view .LVU243
 726 0024 1205     		lsls	r2, r2, #20
 727 0026 0ED5     		bpl	.L69
 728              		.loc 1 345 4 is_stmt 1 view .LVU244
 729              		.loc 1 346 35 is_stmt 0 view .LVU245
 730 0028 A3F58053 		sub	r3, r3, #4096
 731              	.LVL78:
 732              		.loc 1 347 6 view .LVU246
 733 002c C3EB4312 		rsb	r2, r3, r3, lsl #5
 734 0030 03EB8203 		add	r3, r3, r2, lsl #2
 735              	.LVL79:
 736              		.loc 1 347 6 view .LVU247
 737 0034 5B00     		lsls	r3, r3, #1
 738              		.loc 1 345 38 view .LVU248
 739 0036 2360     		str	r3, [r4]
 740              	.LVL80:
 741              	.L68:
ARM GAS  /tmp/ccqyZH0w.s 			page 14


 742              		.loc 1 354 2 is_stmt 1 view .LVU249
 743              		.loc 1 355 1 is_stmt 0 view .LVU250
 744 0038 064B     		ldr	r3, .L73
 745 003a 1A68     		ldr	r2, [r3]
 746 003c 019B     		ldr	r3, [sp, #4]
 747 003e 5A40     		eors	r2, r3, r2
 748 0040 06D1     		bne	.L72
 749 0042 02B0     		add	sp, sp, #8
 750              		.cfi_remember_state
 751              		.cfi_def_cfa_offset 8
 752              		@ sp needed
 753 0044 10BD     		pop	{r4, pc}
 754              	.LVL81:
 755              	.L69:
 756              		.cfi_restore_state
 757              		.loc 1 349 4 is_stmt 1 view .LVU251
 758              		.loc 1 350 34 is_stmt 0 view .LVU252
 759 0046 FA22     		movs	r2, #250
 760 0048 02FB03F3 		mul	r3, r2, r3
 761              	.LVL82:
 762              		.loc 1 349 38 view .LVU253
 763 004c 2360     		str	r3, [r4]
 764 004e F3E7     		b	.L68
 765              	.LVL83:
 766              	.L72:
 767              		.loc 1 355 1 view .LVU254
 768 0050 FFF7FEFF 		bl	__stack_chk_fail
 769              	.LVL84:
 770              	.L74:
 771              		.loc 1 355 1 view .LVU255
 772              		.align	2
 773              	.L73:
 774 0054 00000000 		.word	.LC3
 775              		.cfi_endproc
 776              	.LFE6:
 777              		.size	VL53L0X_get_offset_calibration_data_micro_meter, .-VL53L0X_get_offset_calibration_data_micro
 778              		.section	.rodata.VL53L0X_apply_offset_adjustment.cst4,"aM",%progbits,4
 779              		.align	2
 780              	.LC4:
 781 0000 00000000 		.word	__stack_chk_guard
 782              		.section	.text.VL53L0X_apply_offset_adjustment,"ax",%progbits
 783              		.align	1
 784              		.p2align 4,,15
 785              		.global	VL53L0X_apply_offset_adjustment
 786              		.syntax unified
 787              		.thumb
 788              		.thumb_func
 789              		.fpu fpv4-sp-d16
 790              		.type	VL53L0X_apply_offset_adjustment, %function
 791              	VL53L0X_apply_offset_adjustment:
 792              	.LVL85:
 793              	.LFB7:
 794              		.loc 1 359 1 is_stmt 1 view -0
 795              		.cfi_startproc
 796              		@ args = 0, pretend = 0, frame = 8
 797              		@ frame_needed = 0, uses_anonymous_args = 0
 798              		.loc 1 359 1 is_stmt 0 view .LVU257
ARM GAS  /tmp/ccqyZH0w.s 			page 15


 799 0000 30B5     		push	{r4, r5, lr}
 800              		.cfi_def_cfa_offset 12
 801              		.cfi_offset 4, -12
 802              		.cfi_offset 5, -8
 803              		.cfi_offset 14, -4
 804 0002 134B     		ldr	r3, .L81
 805 0004 83B0     		sub	sp, sp, #12
 806              		.cfi_def_cfa_offset 24
 807              		.loc 1 366 11 view .LVU258
 808 0006 0721     		movs	r1, #7
 809              		.loc 1 359 1 view .LVU259
 810 0008 1B68     		ldr	r3, [r3]
 811 000a 0193     		str	r3, [sp, #4]
 812 000c 4FF00003 		mov	r3,#0
 813              		.loc 1 360 2 is_stmt 1 view .LVU260
 814              	.LVL86:
 815              		.loc 1 361 2 view .LVU261
 816              		.loc 1 362 2 view .LVU262
 817              		.loc 1 366 2 view .LVU263
 818              		.loc 1 359 1 is_stmt 0 view .LVU264
 819 0010 0446     		mov	r4, r0
 820              		.loc 1 366 11 view .LVU265
 821 0012 FFF7FEFF 		bl	VL53L0X_get_info_from_device
 822              	.LVL87:
 823              		.loc 1 369 2 is_stmt 1 view .LVU266
 824              		.loc 1 369 5 is_stmt 0 view .LVU267
 825 0016 30B1     		cbz	r0, .L79
 826              	.L76:
 827              		.loc 1 395 2 is_stmt 1 view .LVU268
 828              		.loc 1 396 1 is_stmt 0 view .LVU269
 829 0018 0D4B     		ldr	r3, .L81
 830 001a 1A68     		ldr	r2, [r3]
 831 001c 019B     		ldr	r3, [sp, #4]
 832 001e 5A40     		eors	r2, r3, r2
 833 0020 13D1     		bne	.L80
 834              		.loc 1 396 1 view .LVU270
 835 0022 03B0     		add	sp, sp, #12
 836              		.cfi_remember_state
 837              		.cfi_def_cfa_offset 12
 838              		@ sp needed
 839 0024 30BD     		pop	{r4, r5, pc}
 840              	.LVL88:
 841              	.L79:
 842              		.cfi_restore_state
 843              		.loc 1 370 3 is_stmt 1 view .LVU271
 844              		.loc 1 370 12 is_stmt 0 view .LVU272
 845 0026 6946     		mov	r1, sp
 846 0028 2046     		mov	r0, r4
 847              	.LVL89:
 848              		.loc 1 370 12 view .LVU273
 849 002a FFF7FEFF 		bl	VL53L0X_GetOffsetCalibrationDataMicroMeter
 850              	.LVL90:
 851              		.loc 1 375 2 is_stmt 1 view .LVU274
 852              		.loc 1 375 5 is_stmt 0 view .LVU275
 853 002e 0028     		cmp	r0, #0
 854 0030 F2D1     		bne	.L76
 855              		.loc 1 378 3 is_stmt 1 view .LVU276
ARM GAS  /tmp/ccqyZH0w.s 			page 16


 856 0032 0099     		ldr	r1, [sp]
 857              		.loc 1 381 30 is_stmt 0 view .LVU277
 858 0034 E568     		ldr	r5, [r4, #12]
 859              		.loc 1 378 3 view .LVU278
 860 0036 A160     		str	r1, [r4, #8]
 861              		.loc 1 381 3 is_stmt 1 view .LVU279
 862              		.loc 1 381 30 is_stmt 0 view .LVU280
 863 0038 0D44     		add	r5, r5, r1
 864              	.LVL91:
 865              		.loc 1 385 3 is_stmt 1 view .LVU281
 866              		.loc 1 385 12 is_stmt 0 view .LVU282
 867 003a 2946     		mov	r1, r5
 868 003c 2046     		mov	r0, r4
 869              	.LVL92:
 870              		.loc 1 385 12 view .LVU283
 871 003e FFF7FEFF 		bl	VL53L0X_SetOffsetCalibrationDataMicroMeter
 872              	.LVL93:
 873              		.loc 1 389 3 is_stmt 1 view .LVU284
 874              		.loc 1 389 6 is_stmt 0 view .LVU285
 875 0042 0028     		cmp	r0, #0
 876 0044 E8D1     		bne	.L76
 877              		.loc 1 390 4 is_stmt 1 view .LVU286
 878 0046 6562     		str	r5, [r4, #36]
 879 0048 E6E7     		b	.L76
 880              	.LVL94:
 881              	.L80:
 882              		.loc 1 396 1 is_stmt 0 view .LVU287
 883 004a FFF7FEFF 		bl	__stack_chk_fail
 884              	.LVL95:
 885              	.L82:
 886              		.loc 1 396 1 view .LVU288
 887 004e 00BF     		.align	2
 888              	.L81:
 889 0050 00000000 		.word	.LC4
 890              		.cfi_endproc
 891              	.LFE7:
 892              		.size	VL53L0X_apply_offset_adjustment, .-VL53L0X_apply_offset_adjustment
 893              		.section	.rodata.get_next_good_spad.cst4,"aM",%progbits,4
 894              		.align	2
 895              	.LC5:
 896 0000 00000000 		.word	__stack_chk_guard
 897              		.section	.text.get_next_good_spad,"ax",%progbits
 898              		.align	1
 899              		.p2align 4,,15
 900              		.global	get_next_good_spad
 901              		.syntax unified
 902              		.thumb
 903              		.thumb_func
 904              		.fpu fpv4-sp-d16
 905              		.type	get_next_good_spad, %function
 906              	get_next_good_spad:
 907              	.LVL96:
 908              	.LFB8:
 909              		.loc 1 400 1 is_stmt 1 view -0
 910              		.cfi_startproc
 911              		@ args = 0, pretend = 0, frame = 8
 912              		@ frame_needed = 0, uses_anonymous_args = 0
ARM GAS  /tmp/ccqyZH0w.s 			page 17


 913              		.loc 1 400 1 is_stmt 0 view .LVU290
 914 0000 F0B5     		push	{r4, r5, r6, r7, lr}
 915              		.cfi_def_cfa_offset 20
 916              		.cfi_offset 4, -20
 917              		.cfi_offset 5, -16
 918              		.cfi_offset 6, -12
 919              		.cfi_offset 7, -8
 920              		.cfi_offset 14, -4
 921 0002 194D     		ldr	r5, .L96
 922 0004 83B0     		sub	sp, sp, #12
 923              		.cfi_def_cfa_offset 32
 924              		.loc 1 417 8 view .LVU291
 925 0006 4FF0FF34 		mov	r4, #-1
 926              		.loc 1 422 2 view .LVU292
 927 000a B1EBD20F 		cmp	r1, r2, lsr #3
 928              		.loc 1 400 1 view .LVU293
 929 000e 2D68     		ldr	r5, [r5]
 930 0010 0195     		str	r5, [sp, #4]
 931 0012 4FF00005 		mov	r5,#0
 932              		.loc 1 401 2 is_stmt 1 view .LVU294
 933              		.loc 1 402 2 view .LVU295
 934              		.loc 1 403 2 view .LVU296
 935              	.LVL97:
 936              		.loc 1 404 2 view .LVU297
 937              		.loc 1 405 2 view .LVU298
 938              		.loc 1 406 2 view .LVU299
 939              		.loc 1 407 2 view .LVU300
 940              		.loc 1 417 2 view .LVU301
 941              		.loc 1 417 8 is_stmt 0 view .LVU302
 942 0016 1C60     		str	r4, [r3]
 943              		.loc 1 419 2 is_stmt 1 view .LVU303
 944              	.LVL98:
 945              		.loc 1 420 2 view .LVU304
 946              		.loc 1 422 2 view .LVU305
 947              		.loc 1 422 33 view .LVU306
 948              		.loc 1 422 2 is_stmt 0 view .LVU307
 949 0018 18D9     		bls	.L83
 950 001a D608     		lsrs	r6, r2, #3
 951              	.LVL99:
 952              		.loc 1 422 2 view .LVU308
 953 001c 3519     		adds	r5, r6, r4
 954 001e 02F00707 		and	r7, r2, #7
 955              	.LVL100:
 956              		.loc 1 422 2 view .LVU309
 957 0022 0544     		add	r5, r5, r0
 958 0024 3446     		mov	r4, r6
 959              	.LVL101:
 960              	.L88:
 961              		.loc 1 424 3 is_stmt 1 view .LVU310
 962              		.loc 1 425 3 view .LVU311
 963              		.loc 1 425 12 is_stmt 0 view .LVU312
 964 0026 15F8010F 		ldrb	r0, [r5, #1]!	@ zero_extendqisi2
 965              	.LVL102:
 966              		.loc 1 427 3 is_stmt 1 view .LVU313
 967              		.loc 1 427 6 is_stmt 0 view .LVU314
 968 002a A642     		cmp	r6, r4
 969              		.loc 1 430 4 is_stmt 1 view .LVU315
ARM GAS  /tmp/ccqyZH0w.s 			page 18


 970              		.loc 1 430 13 is_stmt 0 view .LVU316
 971 002c 03BF     		ittte	eq
 972 002e 3841     		asreq	r0, r0, r7
 973              	.LVL103:
 974              		.loc 1 430 13 view .LVU317
 975 0030 C0B2     		uxtbeq	r0, r0
 976              	.LVL104:
 977              		.loc 1 431 4 is_stmt 1 view .LVU318
 978              		.loc 1 431 14 is_stmt 0 view .LVU319
 979 0032 3A46     		moveq	r2, r7
 980              		.loc 1 424 13 view .LVU320
 981 0034 0022     		movne	r2, #0
 982              	.LVL105:
 983              	.L87:
 984              		.loc 1 435 4 is_stmt 1 view .LVU321
 985              		.loc 1 435 7 is_stmt 0 view .LVU322
 986 0036 10F0010F 		tst	r0, #1
 987 003a 0ED1     		bne	.L94
 988              		.loc 1 440 4 is_stmt 1 view .LVU323
 989              		.loc 1 441 13 is_stmt 0 view .LVU324
 990 003c 0132     		adds	r2, r2, #1
 991              	.LVL106:
 992              		.loc 1 434 9 view .LVU325
 993 003e 082A     		cmp	r2, #8
 994              		.loc 1 440 13 view .LVU326
 995 0040 4FEA5000 		lsr	r0, r0, #1
 996              	.LVL107:
 997              		.loc 1 441 4 is_stmt 1 view .LVU327
 998              		.loc 1 434 9 view .LVU328
 999 0044 F7D1     		bne	.L87
 1000              		.loc 1 423 5 view .LVU329
 1001              	.LVL108:
 1002              		.loc 1 423 16 is_stmt 0 view .LVU330
 1003 0046 0134     		adds	r4, r4, #1
 1004              	.LVL109:
 1005              		.loc 1 422 33 is_stmt 1 view .LVU331
 1006              		.loc 1 422 2 is_stmt 0 view .LVU332
 1007 0048 A142     		cmp	r1, r4
 1008 004a ECD1     		bne	.L88
 1009              	.LVL110:
 1010              	.L83:
 1011              		.loc 1 444 1 view .LVU333
 1012 004c 064B     		ldr	r3, .L96
 1013              	.LVL111:
 1014              		.loc 1 444 1 view .LVU334
 1015 004e 1A68     		ldr	r2, [r3]
 1016 0050 019B     		ldr	r3, [sp, #4]
 1017 0052 5A40     		eors	r2, r3, r2
 1018 0054 05D1     		bne	.L95
 1019 0056 03B0     		add	sp, sp, #12
 1020              		.cfi_remember_state
 1021              		.cfi_def_cfa_offset 20
 1022              		@ sp needed
 1023 0058 F0BD     		pop	{r4, r5, r6, r7, pc}
 1024              	.LVL112:
 1025              	.L94:
 1026              		.cfi_restore_state
ARM GAS  /tmp/ccqyZH0w.s 			page 19


 1027              		.loc 1 436 5 is_stmt 1 view .LVU335
 1028              		.loc 1 437 5 view .LVU336
 1029              		.loc 1 437 41 is_stmt 0 view .LVU337
 1030 005a 02EBC402 		add	r2, r2, r4, lsl #3
 1031              	.LVL113:
 1032              		.loc 1 437 11 view .LVU338
 1033 005e 1A60     		str	r2, [r3]
 1034              		.loc 1 438 5 is_stmt 1 view .LVU339
 1035              		.loc 1 423 5 view .LVU340
 1036              	.LVL114:
 1037              		.loc 1 422 33 view .LVU341
 1038 0060 F4E7     		b	.L83
 1039              	.LVL115:
 1040              	.L95:
 1041              		.loc 1 444 1 is_stmt 0 view .LVU342
 1042 0062 FFF7FEFF 		bl	__stack_chk_fail
 1043              	.LVL116:
 1044              	.L97:
 1045              		.loc 1 444 1 view .LVU343
 1046 0066 00BF     		.align	2
 1047              	.L96:
 1048 0068 00000000 		.word	.LC5
 1049              		.cfi_endproc
 1050              	.LFE8:
 1051              		.size	get_next_good_spad, .-get_next_good_spad
 1052              		.section	.rodata.is_aperture.cst4,"aM",%progbits,4
 1053              		.align	2
 1054              	.LC6:
 1055 0000 00000000 		.word	__stack_chk_guard
 1056              		.section	.text.is_aperture,"ax",%progbits
 1057              		.align	1
 1058              		.p2align 4,,15
 1059              		.global	is_aperture
 1060              		.syntax unified
 1061              		.thumb
 1062              		.thumb_func
 1063              		.fpu fpv4-sp-d16
 1064              		.type	is_aperture, %function
 1065              	is_aperture:
 1066              	.LVL117:
 1067              	.LFB9:
 1068              		.loc 1 448 1 is_stmt 1 view -0
 1069              		.cfi_startproc
 1070              		@ args = 0, pretend = 0, frame = 8
 1071              		@ frame_needed = 0, uses_anonymous_args = 0
 1072              		.loc 1 448 1 is_stmt 0 view .LVU345
 1073 0000 00B5     		push	{lr}
 1074              		.cfi_def_cfa_offset 4
 1075              		.cfi_offset 14, -4
 1076              		.loc 1 456 23 view .LVU346
 1077 0002 0B4B     		ldr	r3, .L102
 1078              		.loc 1 448 1 view .LVU347
 1079 0004 0B4A     		ldr	r2, .L102+4
 1080              		.loc 1 455 11 view .LVU348
 1081 0006 8009     		lsrs	r0, r0, #6
 1082              	.LVL118:
 1083              		.loc 1 448 1 view .LVU349
ARM GAS  /tmp/ccqyZH0w.s 			page 20


 1084 0008 83B0     		sub	sp, sp, #12
 1085              		.cfi_def_cfa_offset 16
 1086              		.loc 1 456 5 view .LVU350
 1087 000a 53F82000 		ldr	r0, [r3, r0, lsl #2]
 1088              		.loc 1 460 1 view .LVU351
 1089 000e 094B     		ldr	r3, .L102+4
 1090              		.loc 1 459 9 view .LVU352
 1091 0010 0038     		subs	r0, r0, #0
 1092              		.loc 1 448 1 view .LVU353
 1093 0012 1268     		ldr	r2, [r2]
 1094 0014 0192     		str	r2, [sp, #4]
 1095 0016 4FF00002 		mov	r2,#0
 1096              		.loc 1 453 2 is_stmt 1 view .LVU354
 1097              		.loc 1 454 2 view .LVU355
 1098              	.LVL119:
 1099              		.loc 1 455 2 view .LVU356
 1100              		.loc 1 456 2 view .LVU357
 1101              		.loc 1 459 2 view .LVU358
 1102              		.loc 1 459 9 is_stmt 0 view .LVU359
 1103 001a 18BF     		it	ne
 1104 001c 0120     		movne	r0, #1
 1105              		.loc 1 460 1 view .LVU360
 1106 001e 1A68     		ldr	r2, [r3]
 1107 0020 019B     		ldr	r3, [sp, #4]
 1108 0022 5A40     		eors	r2, r3, r2
 1109 0024 02D1     		bne	.L101
 1110 0026 03B0     		add	sp, sp, #12
 1111              		.cfi_remember_state
 1112              		.cfi_def_cfa_offset 4
 1113              		@ sp needed
 1114 0028 5DF804FB 		ldr	pc, [sp], #4
 1115              	.L101:
 1116              		.cfi_restore_state
 1117 002c FFF7FEFF 		bl	__stack_chk_fail
 1118              	.LVL120:
 1119              	.L103:
 1120              		.loc 1 460 1 view .LVU361
 1121              		.align	2
 1122              	.L102:
 1123 0030 00000000 		.word	.LANCHOR0
 1124 0034 00000000 		.word	.LC6
 1125              		.cfi_endproc
 1126              	.LFE9:
 1127              		.size	is_aperture, .-is_aperture
 1128              		.section	.rodata.enable_spad_bit.cst4,"aM",%progbits,4
 1129              		.align	2
 1130              	.LC7:
 1131 0000 00000000 		.word	__stack_chk_guard
 1132              		.section	.text.enable_spad_bit,"ax",%progbits
 1133              		.align	1
 1134              		.p2align 4,,15
 1135              		.global	enable_spad_bit
 1136              		.syntax unified
 1137              		.thumb
 1138              		.thumb_func
 1139              		.fpu fpv4-sp-d16
 1140              		.type	enable_spad_bit, %function
ARM GAS  /tmp/ccqyZH0w.s 			page 21


 1141              	enable_spad_bit:
 1142              	.LVL121:
 1143              	.LFB10:
 1144              		.loc 1 465 1 is_stmt 1 view -0
 1145              		.cfi_startproc
 1146              		@ args = 0, pretend = 0, frame = 8
 1147              		@ frame_needed = 0, uses_anonymous_args = 0
 1148              		.loc 1 465 1 is_stmt 0 view .LVU363
 1149 0000 30B5     		push	{r4, r5, lr}
 1150              		.cfi_def_cfa_offset 12
 1151              		.cfi_offset 4, -12
 1152              		.cfi_offset 5, -8
 1153              		.cfi_offset 14, -4
 1154 0002 0F4B     		ldr	r3, .L110
 1155 0004 83B0     		sub	sp, sp, #12
 1156              		.cfi_def_cfa_offset 24
 1157              		.loc 1 473 5 view .LVU364
 1158 0006 B1EBD20F 		cmp	r1, r2, lsr #3
 1159              		.loc 1 465 1 view .LVU365
 1160 000a 1B68     		ldr	r3, [r3]
 1161 000c 0193     		str	r3, [sp, #4]
 1162 000e 4FF00003 		mov	r3,#0
 1163              		.loc 1 466 2 is_stmt 1 view .LVU366
 1164              	.LVL122:
 1165              		.loc 1 467 2 view .LVU367
 1166              		.loc 1 468 2 view .LVU368
 1167              		.loc 1 469 2 view .LVU369
 1168              		.loc 1 471 2 view .LVU370
 1169              		.loc 1 472 2 view .LVU371
 1170              		.loc 1 473 2 view .LVU372
 1171              		.loc 1 473 5 is_stmt 0 view .LVU373
 1172 0012 0FD9     		bls	.L107
 1173 0014 D408     		lsrs	r4, r2, #3
 1174              	.LVL123:
 1175              		.loc 1 473 5 view .LVU374
 1176 0016 02F00705 		and	r5, r2, #7
 1177              	.LVL124:
 1178              		.loc 1 476 3 is_stmt 1 view .LVU375
 1179              		.loc 1 476 26 is_stmt 0 view .LVU376
 1180 001a 035D     		ldrb	r3, [r0, r4]	@ zero_extendqisi2
 1181              		.loc 1 476 32 view .LVU377
 1182 001c 0122     		movs	r2, #1
 1183              	.LVL125:
 1184              		.loc 1 476 32 view .LVU378
 1185 001e AA40     		lsls	r2, r2, r5
 1186              		.loc 1 476 26 view .LVU379
 1187 0020 1343     		orrs	r3, r3, r2
 1188 0022 0355     		strb	r3, [r0, r4]
 1189              		.loc 1 466 16 view .LVU380
 1190 0024 0020     		movs	r0, #0
 1191              	.LVL126:
 1192              	.L105:
 1193              		.loc 1 478 2 is_stmt 1 view .LVU381
 1194              		.loc 1 479 1 is_stmt 0 view .LVU382
 1195 0026 064B     		ldr	r3, .L110
 1196 0028 1A68     		ldr	r2, [r3]
 1197 002a 019B     		ldr	r3, [sp, #4]
ARM GAS  /tmp/ccqyZH0w.s 			page 22


 1198 002c 5A40     		eors	r2, r3, r2
 1199 002e 04D1     		bne	.L109
 1200 0030 03B0     		add	sp, sp, #12
 1201              		.cfi_remember_state
 1202              		.cfi_def_cfa_offset 12
 1203              		@ sp needed
 1204 0032 30BD     		pop	{r4, r5, pc}
 1205              	.LVL127:
 1206              	.L107:
 1207              		.cfi_restore_state
 1208              		.loc 1 474 10 view .LVU383
 1209 0034 6FF03100 		mvn	r0, #49
 1210              	.LVL128:
 1211              		.loc 1 474 10 view .LVU384
 1212 0038 F5E7     		b	.L105
 1213              	.LVL129:
 1214              	.L109:
 1215              		.loc 1 479 1 view .LVU385
 1216 003a FFF7FEFF 		bl	__stack_chk_fail
 1217              	.LVL130:
 1218              	.L111:
 1219              		.loc 1 479 1 view .LVU386
 1220 003e 00BF     		.align	2
 1221              	.L110:
 1222 0040 00000000 		.word	.LC7
 1223              		.cfi_endproc
 1224              	.LFE10:
 1225              		.size	enable_spad_bit, .-enable_spad_bit
 1226              		.section	.rodata.count_enabled_spads.cst4,"aM",%progbits,4
 1227              		.align	2
 1228              	.LC8:
 1229 0000 00000000 		.word	__stack_chk_guard
 1230              		.section	.text.count_enabled_spads,"ax",%progbits
 1231              		.align	1
 1232              		.p2align 4,,15
 1233              		.global	count_enabled_spads
 1234              		.syntax unified
 1235              		.thumb
 1236              		.thumb_func
 1237              		.fpu fpv4-sp-d16
 1238              		.type	count_enabled_spads, %function
 1239              	count_enabled_spads:
 1240              	.LVL131:
 1241              	.LFB11:
 1242              		.loc 1 484 1 is_stmt 1 view -0
 1243              		.cfi_startproc
 1244              		@ args = 4, pretend = 0, frame = 16
 1245              		@ frame_needed = 0, uses_anonymous_args = 0
 1246              		.loc 1 484 1 is_stmt 0 view .LVU388
 1247 0000 2DE9F04F 		push	{r4, r5, r6, r7, r8, r9, r10, fp, lr}
 1248              		.cfi_def_cfa_offset 36
 1249              		.cfi_offset 4, -36
 1250              		.cfi_offset 5, -32
 1251              		.cfi_offset 6, -28
 1252              		.cfi_offset 7, -24
 1253              		.cfi_offset 8, -20
 1254              		.cfi_offset 9, -16
ARM GAS  /tmp/ccqyZH0w.s 			page 23


 1255              		.cfi_offset 10, -12
 1256              		.cfi_offset 11, -8
 1257              		.cfi_offset 14, -4
 1258 0004 85B0     		sub	sp, sp, #20
 1259              		.cfi_def_cfa_offset 56
 1260              		.loc 1 503 10 view .LVU389
 1261 0006 B1EBD20F 		cmp	r1, r2, lsr #3
 1262              		.loc 1 484 1 view .LVU390
 1263 000a 8346     		mov	fp, r0
 1264              		.loc 1 498 11 view .LVU391
 1265 000c 4FEAD201 		lsr	r1, r2, #3
 1266              	.LVL132:
 1267              		.loc 1 484 1 view .LVU392
 1268 0010 2948     		ldr	r0, .L137
 1269              	.LVL133:
 1270              		.loc 1 498 11 view .LVU393
 1271 0012 0191     		str	r1, [sp, #4]
 1272              		.loc 1 505 22 view .LVU394
 1273 0014 4FF00004 		mov	r4, #0
 1274              		.loc 1 484 1 view .LVU395
 1275 0018 DDF838C0 		ldr	ip, [sp, #56]
 1276 001c 0068     		ldr	r0, [r0]
 1277 001e 0390     		str	r0, [sp, #12]
 1278 0020 4FF00000 		mov	r0,#0
 1279              		.loc 1 485 2 is_stmt 1 view .LVU396
 1280              	.LVL134:
 1281              		.loc 1 486 2 view .LVU397
 1282              		.loc 1 487 2 view .LVU398
 1283              		.loc 1 488 2 view .LVU399
 1284              		.loc 1 489 2 view .LVU400
 1285              		.loc 1 490 2 view .LVU401
 1286              		.loc 1 491 2 view .LVU402
 1287              		.loc 1 492 2 view .LVU403
 1288              		.loc 1 498 2 view .LVU404
 1289              		.loc 1 499 2 view .LVU405
 1290              		.loc 1 492 10 is_stmt 0 view .LVU406
 1291 0024 2646     		mov	r6, r4
 1292              		.loc 1 503 10 view .LVU407
 1293 0026 8CBF     		ite	hi
 1294 0028 2046     		movhi	r0, r4
 1295 002a 6FF03100 		mvnls	r0, #49
 1296              		.loc 1 499 10 view .LVU408
 1297 002e 02F00709 		and	r9, r2, #7
 1298              	.LVL135:
 1299              		.loc 1 502 2 is_stmt 1 view .LVU409
 1300              		.loc 1 505 2 view .LVU410
 1301              		.loc 1 508 45 is_stmt 0 view .LVU411
 1302 0032 01F1FF3A 		add	r10, r1, #-1
 1303              		.loc 1 505 22 view .LVU412
 1304 0036 1C60     		str	r4, [r3]
 1305              		.loc 1 508 2 is_stmt 1 view .LVU413
 1306              		.loc 1 508 22 view .LVU414
 1307 0038 0BF1FF38 		add	r8, fp, #-1
 1308              		.loc 1 508 17 is_stmt 0 view .LVU415
 1309 003c 2746     		mov	r7, r4
 1310              		.loc 1 516 19 view .LVU416
 1311 003e 4FF0010E 		mov	lr, #1
ARM GAS  /tmp/ccqyZH0w.s 			page 24


 1312              	.LVL136:
 1313              	.L120:
 1314              		.loc 1 509 3 is_stmt 1 view .LVU417
 1315              		.loc 1 509 12 is_stmt 0 view .LVU418
 1316 0042 18F8012F 		ldrb	r2, [r8, #1]!	@ zero_extendqisi2
 1317              	.LVL137:
 1318              		.loc 1 511 3 is_stmt 1 view .LVU419
 1319              		.loc 1 511 22 view .LVU420
 1320              		.loc 1 509 12 is_stmt 0 view .LVU421
 1321 0046 0121     		movs	r1, #1
 1322              	.LVL138:
 1323              	.L119:
 1324              		.loc 1 512 4 is_stmt 1 view .LVU422
 1325              		.loc 1 512 7 is_stmt 0 view .LVU423
 1326 0048 12F00105 		ands	r5, r2, #1
 1327 004c 08D0     		beq	.L114
 1328              		.loc 1 513 5 is_stmt 1 view .LVU424
 1329              		.loc 1 513 26 is_stmt 0 view .LVU425
 1330 004e 1C68     		ldr	r4, [r3]
 1331 0050 0134     		adds	r4, r4, #1
 1332 0052 1C60     		str	r4, [r3]
 1333              		.loc 1 515 5 is_stmt 1 view .LVU426
 1334              		.loc 1 515 8 is_stmt 0 view .LVU427
 1335 0054 1EB9     		cbnz	r6, .L116
 1336              		.loc 1 516 6 is_stmt 1 view .LVU428
 1337              		.loc 1 517 9 is_stmt 0 view .LVU429
 1338 0056 012F     		cmp	r7, #1
 1339              		.loc 1 516 19 view .LVU430
 1340 0058 8CF800E0 		strb	lr, [ip]
 1341              		.loc 1 517 6 is_stmt 1 view .LVU431
 1342              		.loc 1 517 9 is_stmt 0 view .LVU432
 1343 005c 06D9     		bls	.L134
 1344              	.L116:
 1345              		.loc 1 509 12 view .LVU433
 1346 005e 2E46     		mov	r6, r5
 1347              	.LVL139:
 1348              	.L114:
 1349              		.loc 1 522 4 is_stmt 1 discriminator 2 view .LVU434
 1350              		.loc 1 511 3 is_stmt 0 discriminator 2 view .LVU435
 1351 0060 0929     		cmp	r1, #9
 1352              		.loc 1 522 13 discriminator 2 view .LVU436
 1353 0062 4FEA5202 		lsr	r2, r2, #1
 1354              	.LVL140:
 1355              		.loc 1 511 49 is_stmt 1 discriminator 2 view .LVU437
 1356              		.loc 1 511 22 discriminator 2 view .LVU438
 1357              		.loc 1 511 3 is_stmt 0 discriminator 2 view .LVU439
 1358 0066 09D0     		beq	.L118
 1359              	.LVL141:
 1360              	.L117:
 1361              		.loc 1 511 3 discriminator 2 view .LVU440
 1362 0068 0131     		adds	r1, r1, #1
 1363              	.LVL142:
 1364              		.loc 1 511 3 discriminator 2 view .LVU441
 1365 006a EDE7     		b	.L119
 1366              	.L134:
 1367              		.loc 1 517 26 discriminator 1 view .LVU442
 1368 006c 4C1E     		subs	r4, r1, #1
ARM GAS  /tmp/ccqyZH0w.s 			page 25


 1369 006e 032C     		cmp	r4, #3
 1370 0070 F5D8     		bhi	.L116
 1371              		.loc 1 518 8 is_stmt 1 view .LVU443
 1372              		.loc 1 518 21 is_stmt 0 view .LVU444
 1373 0072 8CF80060 		strb	r6, [ip]
 1374              	.LVL143:
 1375              		.loc 1 522 4 is_stmt 1 view .LVU445
 1376              		.loc 1 522 13 is_stmt 0 view .LVU446
 1377 0076 5208     		lsrs	r2, r2, #1
 1378              	.LVL144:
 1379              		.loc 1 511 49 is_stmt 1 view .LVU447
 1380              		.loc 1 511 22 view .LVU448
 1381              		.loc 1 519 25 is_stmt 0 view .LVU449
 1382 0078 2E46     		mov	r6, r5
 1383 007a F5E7     		b	.L117
 1384              	.LVL145:
 1385              	.L118:
 1386              		.loc 1 508 51 is_stmt 1 discriminator 2 view .LVU450
 1387              		.loc 1 508 60 is_stmt 0 discriminator 2 view .LVU451
 1388 007c 0137     		adds	r7, r7, #1
 1389              	.LVL146:
 1390              		.loc 1 508 22 is_stmt 1 discriminator 2 view .LVU452
 1391              		.loc 1 508 2 is_stmt 0 discriminator 2 view .LVU453
 1392 007e 5745     		cmp	r7, r10
 1393 0080 DFD9     		bls	.L120
 1394              		.loc 1 529 2 is_stmt 1 view .LVU454
 1395              	.LVL147:
 1396              		.loc 1 531 2 view .LVU455
 1397              		.loc 1 531 21 view .LVU456
 1398 0082 019A     		ldr	r2, [sp, #4]
 1399 0084 1BF80240 		ldrb	r4, [fp, r2]	@ zero_extendqisi2
 1400              		.loc 1 531 16 is_stmt 0 view .LVU457
 1401 0088 0022     		movs	r2, #0
 1402 008a 04F00104 		and	r4, r4, #1
 1403              	.LVL148:
 1404              	.L122:
 1405              		.loc 1 532 3 is_stmt 1 view .LVU458
 1406              		.loc 1 532 6 is_stmt 0 view .LVU459
 1407 008e 14B1     		cbz	r4, .L121
 1408              		.loc 1 533 4 is_stmt 1 view .LVU460
 1409              		.loc 1 533 25 is_stmt 0 view .LVU461
 1410 0090 1968     		ldr	r1, [r3]
 1411 0092 0131     		adds	r1, r1, #1
 1412 0094 1960     		str	r1, [r3]
 1413              	.L121:
 1414              		.loc 1 531 42 is_stmt 1 discriminator 2 view .LVU462
 1415              		.loc 1 531 2 is_stmt 0 discriminator 2 view .LVU463
 1416 0096 9145     		cmp	r9, r2
 1417              		.loc 1 531 50 discriminator 2 view .LVU464
 1418 0098 02F10101 		add	r1, r2, #1
 1419              	.LVL149:
 1420              		.loc 1 531 21 is_stmt 1 discriminator 2 view .LVU465
 1421              		.loc 1 531 2 is_stmt 0 discriminator 2 view .LVU466
 1422 009c 01D0     		beq	.L135
 1423 009e 0A46     		mov	r2, r1
 1424 00a0 F5E7     		b	.L122
 1425              	.L135:
ARM GAS  /tmp/ccqyZH0w.s 			page 26


 1426              		.loc 1 536 2 is_stmt 1 view .LVU467
 1427              		.loc 1 537 1 is_stmt 0 view .LVU468
 1428 00a2 054B     		ldr	r3, .L137
 1429              	.LVL150:
 1430              		.loc 1 537 1 view .LVU469
 1431 00a4 1A68     		ldr	r2, [r3]
 1432 00a6 039B     		ldr	r3, [sp, #12]
 1433 00a8 5A40     		eors	r2, r3, r2
 1434 00aa 02D1     		bne	.L136
 1435 00ac 05B0     		add	sp, sp, #20
 1436              		.cfi_remember_state
 1437              		.cfi_def_cfa_offset 36
 1438              		@ sp needed
 1439 00ae BDE8F08F 		pop	{r4, r5, r6, r7, r8, r9, r10, fp, pc}
 1440              	.LVL151:
 1441              	.L136:
 1442              		.cfi_restore_state
 1443              		.loc 1 537 1 view .LVU470
 1444 00b2 FFF7FEFF 		bl	__stack_chk_fail
 1445              	.LVL152:
 1446              	.L138:
 1447              		.loc 1 537 1 view .LVU471
 1448 00b6 00BF     		.align	2
 1449              	.L137:
 1450 00b8 00000000 		.word	.LC8
 1451              		.cfi_endproc
 1452              	.LFE11:
 1453              		.size	count_enabled_spads, .-count_enabled_spads
 1454              		.section	.rodata.set_ref_spad_map.cst4,"aM",%progbits,4
 1455              		.align	2
 1456              	.LC9:
 1457 0000 00000000 		.word	__stack_chk_guard
 1458              		.section	.text.set_ref_spad_map,"ax",%progbits
 1459              		.align	1
 1460              		.p2align 4,,15
 1461              		.global	set_ref_spad_map
 1462              		.syntax unified
 1463              		.thumb
 1464              		.thumb_func
 1465              		.fpu fpv4-sp-d16
 1466              		.type	set_ref_spad_map, %function
 1467              	set_ref_spad_map:
 1468              	.LVL153:
 1469              	.LFB12:
 1470              		.loc 1 540 1 is_stmt 1 view -0
 1471              		.cfi_startproc
 1472              		@ args = 0, pretend = 0, frame = 8
 1473              		@ frame_needed = 0, uses_anonymous_args = 0
 1474              		.loc 1 540 1 is_stmt 0 view .LVU473
 1475 0000 00B5     		push	{lr}
 1476              		.cfi_def_cfa_offset 4
 1477              		.cfi_offset 14, -4
 1478 0002 0A4B     		ldr	r3, .L144
 1479 0004 83B0     		sub	sp, sp, #12
 1480              		.cfi_def_cfa_offset 16
 1481              		.loc 1 540 1 view .LVU474
 1482 0006 1B68     		ldr	r3, [r3]
ARM GAS  /tmp/ccqyZH0w.s 			page 27


 1483 0008 0193     		str	r3, [sp, #4]
 1484 000a 4FF00003 		mov	r3,#0
 1485              		.loc 1 541 2 is_stmt 1 view .LVU475
 1486              		.loc 1 541 25 is_stmt 0 view .LVU476
 1487 000e 074B     		ldr	r3, .L144
 1488              		.loc 1 540 1 view .LVU477
 1489 0010 0A46     		mov	r2, r1
 1490              		.loc 1 541 25 view .LVU478
 1491 0012 1968     		ldr	r1, [r3]
 1492 0014 019B     		ldr	r3, [sp, #4]
 1493 0016 5940     		eors	r1, r3, r1
 1494              	.LVL154:
 1495              		.loc 1 541 25 view .LVU479
 1496 0018 06D1     		bne	.L143
 1497 001a 0623     		movs	r3, #6
 1498 001c B021     		movs	r1, #176
 1499              		.loc 1 545 1 view .LVU480
 1500 001e 03B0     		add	sp, sp, #12
 1501              		.cfi_remember_state
 1502              		.cfi_def_cfa_offset 4
 1503              		@ sp needed
 1504 0020 5DF804EB 		ldr	lr, [sp], #4
 1505              		.cfi_restore 14
 1506              		.cfi_def_cfa_offset 0
 1507              		.loc 1 541 25 view .LVU481
 1508 0024 FFF7FEBF 		b	VL53L0X_WriteMulti
 1509              	.LVL155:
 1510              	.L143:
 1511              		.cfi_restore_state
 1512              		.loc 1 541 25 view .LVU482
 1513 0028 FFF7FEFF 		bl	__stack_chk_fail
 1514              	.LVL156:
 1515              	.L145:
 1516              		.loc 1 541 25 view .LVU483
 1517              		.align	2
 1518              	.L144:
 1519 002c 00000000 		.word	.LC9
 1520              		.cfi_endproc
 1521              	.LFE12:
 1522              		.size	set_ref_spad_map, .-set_ref_spad_map
 1523              		.section	.rodata.get_ref_spad_map.cst4,"aM",%progbits,4
 1524              		.align	2
 1525              	.LC10:
 1526 0000 00000000 		.word	__stack_chk_guard
 1527              		.section	.text.get_ref_spad_map,"ax",%progbits
 1528              		.align	1
 1529              		.p2align 4,,15
 1530              		.global	get_ref_spad_map
 1531              		.syntax unified
 1532              		.thumb
 1533              		.thumb_func
 1534              		.fpu fpv4-sp-d16
 1535              		.type	get_ref_spad_map, %function
 1536              	get_ref_spad_map:
 1537              	.LVL157:
 1538              	.LFB13:
 1539              		.loc 1 548 1 is_stmt 1 view -0
ARM GAS  /tmp/ccqyZH0w.s 			page 28


 1540              		.cfi_startproc
 1541              		@ args = 0, pretend = 0, frame = 8
 1542              		@ frame_needed = 0, uses_anonymous_args = 0
 1543              		.loc 1 548 1 is_stmt 0 view .LVU485
 1544 0000 00B5     		push	{lr}
 1545              		.cfi_def_cfa_offset 4
 1546              		.cfi_offset 14, -4
 1547 0002 0A4B     		ldr	r3, .L151
 1548 0004 83B0     		sub	sp, sp, #12
 1549              		.cfi_def_cfa_offset 16
 1550              		.loc 1 548 1 view .LVU486
 1551 0006 1B68     		ldr	r3, [r3]
 1552 0008 0193     		str	r3, [sp, #4]
 1553 000a 4FF00003 		mov	r3,#0
 1554              		.loc 1 549 2 is_stmt 1 view .LVU487
 1555              		.loc 1 549 25 is_stmt 0 view .LVU488
 1556 000e 074B     		ldr	r3, .L151
 1557              		.loc 1 548 1 view .LVU489
 1558 0010 0A46     		mov	r2, r1
 1559              		.loc 1 549 25 view .LVU490
 1560 0012 1968     		ldr	r1, [r3]
 1561 0014 019B     		ldr	r3, [sp, #4]
 1562 0016 5940     		eors	r1, r3, r1
 1563              	.LVL158:
 1564              		.loc 1 549 25 view .LVU491
 1565 0018 06D1     		bne	.L150
 1566 001a 0623     		movs	r3, #6
 1567 001c B021     		movs	r1, #176
 1568              		.loc 1 554 1 view .LVU492
 1569 001e 03B0     		add	sp, sp, #12
 1570              		.cfi_remember_state
 1571              		.cfi_def_cfa_offset 4
 1572              		@ sp needed
 1573 0020 5DF804EB 		ldr	lr, [sp], #4
 1574              		.cfi_restore 14
 1575              		.cfi_def_cfa_offset 0
 1576              		.loc 1 549 25 view .LVU493
 1577 0024 FFF7FEBF 		b	VL53L0X_ReadMulti
 1578              	.LVL159:
 1579              	.L150:
 1580              		.cfi_restore_state
 1581              		.loc 1 549 25 view .LVU494
 1582 0028 FFF7FEFF 		bl	__stack_chk_fail
 1583              	.LVL160:
 1584              	.L152:
 1585              		.loc 1 549 25 view .LVU495
 1586              		.align	2
 1587              	.L151:
 1588 002c 00000000 		.word	.LC10
 1589              		.cfi_endproc
 1590              	.LFE13:
 1591              		.size	get_ref_spad_map, .-get_ref_spad_map
 1592              		.section	.rodata.enable_ref_spads.cst4,"aM",%progbits,4
 1593              		.align	2
 1594              	.LC11:
 1595 0000 00000000 		.word	__stack_chk_guard
 1596              		.section	.text.enable_ref_spads,"ax",%progbits
ARM GAS  /tmp/ccqyZH0w.s 			page 29


 1597              		.align	1
 1598              		.p2align 4,,15
 1599              		.global	enable_ref_spads
 1600              		.syntax unified
 1601              		.thumb
 1602              		.thumb_func
 1603              		.fpu fpv4-sp-d16
 1604              		.type	enable_ref_spads, %function
 1605              	enable_ref_spads:
 1606              	.LVL161:
 1607              	.LFB14:
 1608              		.loc 1 565 1 is_stmt 1 view -0
 1609              		.cfi_startproc
 1610              		@ args = 20, pretend = 0, frame = 32
 1611              		@ frame_needed = 0, uses_anonymous_args = 0
 1612              		.loc 1 565 1 is_stmt 0 view .LVU497
 1613 0000 2DE9F04F 		push	{r4, r5, r6, r7, r8, r9, r10, fp, lr}
 1614              		.cfi_def_cfa_offset 36
 1615              		.cfi_offset 4, -36
 1616              		.cfi_offset 5, -32
 1617              		.cfi_offset 6, -28
 1618              		.cfi_offset 7, -24
 1619              		.cfi_offset 8, -20
 1620              		.cfi_offset 9, -16
 1621              		.cfi_offset 10, -12
 1622              		.cfi_offset 11, -8
 1623              		.cfi_offset 14, -4
 1624 0004 89B0     		sub	sp, sp, #36
 1625              		.cfi_def_cfa_offset 72
 1626              		.loc 1 565 1 view .LVU498
 1627 0006 364C     		ldr	r4, .L179
 1628 0008 DDE91479 		ldrd	r7, r9, [sp, #80]
 1629 000c 2468     		ldr	r4, [r4]
 1630 000e 0794     		str	r4, [sp, #28]
 1631 0010 4FF00004 		mov	r4,#0
 1632 0014 1C46     		mov	r4, r3
 1633 0016 169B     		ldr	r3, [sp, #88]
 1634              	.LVL162:
 1635              		.loc 1 565 1 view .LVU499
 1636 0018 0390     		str	r0, [sp, #12]
 1637              		.loc 1 566 2 is_stmt 1 view .LVU500
 1638              	.LVL163:
 1639              		.loc 1 567 2 view .LVU501
 1640              		.loc 1 568 2 view .LVU502
 1641              		.loc 1 569 2 view .LVU503
 1642              		.loc 1 565 1 is_stmt 0 view .LVU504
 1643 001a DDE9126A 		ldrd	r6, r10, [sp, #72]
 1644              		.loc 1 569 10 view .LVU505
 1645 001e 0497     		str	r7, [sp, #16]
 1646              		.loc 1 570 2 is_stmt 1 view .LVU506
 1647              		.loc 1 571 2 view .LVU507
 1648              		.loc 1 583 2 view .LVU508
 1649              	.LVL164:
 1650              		.loc 1 584 2 view .LVU509
 1651              		.loc 1 584 18 view .LVU510
 1652              		.loc 1 565 1 is_stmt 0 view .LVU511
 1653 0020 0293     		str	r3, [sp, #8]
ARM GAS  /tmp/ccqyZH0w.s 			page 30


 1654              		.loc 1 584 2 view .LVU512
 1655 0022 B9F1000F 		cmp	r9, #0
 1656 0026 38D0     		beq	.L154
 1657              	.LBB24:
 1658              	.LBB25:
 1659              		.loc 1 456 23 view .LVU513
 1660 0028 DFF8B8B0 		ldr	fp, .L179+4
 1661 002c 8846     		mov	r8, r1
 1662 002e 1046     		mov	r0, r2
 1663              	.LVL165:
 1664              		.loc 1 456 23 view .LVU514
 1665              	.LBE25:
 1666              	.LBE24:
 1667              		.loc 1 584 13 view .LVU515
 1668 0030 0025     		movs	r5, #0
 1669 0032 1DE0     		b	.L157
 1670              	.LVL166:
 1671              	.L176:
 1672              		.loc 1 594 3 is_stmt 1 view .LVU516
 1673              	.LBB28:
 1674              	.LBI24:
 1675              		.loc 1 447 9 view .LVU517
 1676              	.LBB26:
 1677              		.loc 1 453 2 view .LVU518
 1678              		.loc 1 454 2 view .LVU519
 1679              		.loc 1 455 2 view .LVU520
 1680              		.loc 1 456 2 view .LVU521
 1681              		.loc 1 459 2 view .LVU522
 1682              		.loc 1 459 2 is_stmt 0 view .LVU523
 1683              	.LBE26:
 1684              	.LBE28:
 1685              		.loc 1 594 7 view .LVU524
 1686 0034 03EB0A02 		add	r2, r3, r10
 1687              	.LBB29:
 1688              	.LBB27:
 1689              		.loc 1 455 11 view .LVU525
 1690 0038 9209     		lsrs	r2, r2, #6
 1691              		.loc 1 456 5 view .LVU526
 1692 003a 5BF82220 		ldr	r2, [fp, r2, lsl #2]
 1693              	.LBE27:
 1694              	.LBE29:
 1695              		.loc 1 594 6 view .LVU527
 1696 003e 003A     		subs	r2, r2, #0
 1697 0040 18BF     		it	ne
 1698 0042 0122     		movne	r2, #1
 1699 0044 4245     		cmp	r2, r8
 1700 0046 1CD1     		bne	.L155
 1701              		.loc 1 601 3 is_stmt 1 discriminator 2 view .LVU528
 1702              	.LVL167:
 1703              		.loc 1 602 3 discriminator 2 view .LVU529
 1704              	.LBB30:
 1705              	.LBI30:
 1706              		.loc 1 463 15 discriminator 2 view .LVU530
 1707              	.LBB31:
 1708              		.loc 1 466 2 discriminator 2 view .LVU531
 1709              		.loc 1 467 2 discriminator 2 view .LVU532
 1710              		.loc 1 468 2 discriminator 2 view .LVU533
ARM GAS  /tmp/ccqyZH0w.s 			page 31


 1711              		.loc 1 469 2 discriminator 2 view .LVU534
 1712              		.loc 1 471 2 discriminator 2 view .LVU535
 1713              		.loc 1 473 5 is_stmt 0 discriminator 2 view .LVU536
 1714 0048 B6EBD30F 		cmp	r6, r3, lsr #3
 1715 004c 0198     		ldr	r0, [sp, #4]
 1716              		.loc 1 471 14 discriminator 2 view .LVU537
 1717 004e 4FEAD307 		lsr	r7, r3, #3
 1718              	.LVL168:
 1719              		.loc 1 472 2 is_stmt 1 discriminator 2 view .LVU538
 1720              		.loc 1 472 12 is_stmt 0 discriminator 2 view .LVU539
 1721 0052 03F00702 		and	r2, r3, #7
 1722              	.LVL169:
 1723              		.loc 1 473 2 is_stmt 1 discriminator 2 view .LVU540
 1724              		.loc 1 473 5 is_stmt 0 discriminator 2 view .LVU541
 1725 0056 06D9     		bls	.L156
 1726              		.loc 1 476 3 is_stmt 1 view .LVU542
 1727              		.loc 1 476 26 is_stmt 0 view .LVU543
 1728 0058 E15D     		ldrb	r1, [r4, r7]	@ zero_extendqisi2
 1729              		.loc 1 476 32 view .LVU544
 1730 005a 4FF0010C 		mov	ip, #1
 1731 005e 0CFA02F2 		lsl	r2, ip, r2
 1732              	.LVL170:
 1733              		.loc 1 476 26 view .LVU545
 1734 0062 0A43     		orrs	r2, r2, r1
 1735 0064 E255     		strb	r2, [r4, r7]
 1736              	.L156:
 1737              	.LVL171:
 1738              		.loc 1 478 2 is_stmt 1 view .LVU546
 1739              		.loc 1 478 2 is_stmt 0 view .LVU547
 1740              	.LBE31:
 1741              	.LBE30:
 1742              		.loc 1 603 3 is_stmt 1 view .LVU548
 1743              		.loc 1 584 42 is_stmt 0 view .LVU549
 1744 0066 0135     		adds	r5, r5, #1
 1745              	.LVL172:
 1746              		.loc 1 584 2 view .LVU550
 1747 0068 A945     		cmp	r9, r5
 1748              		.loc 1 603 14 view .LVU551
 1749 006a 03F10107 		add	r7, r3, #1
 1750              	.LVL173:
 1751              		.loc 1 584 37 is_stmt 1 view .LVU552
 1752              		.loc 1 584 18 view .LVU553
 1753              		.loc 1 584 2 is_stmt 0 view .LVU554
 1754 006e 14D0     		beq	.L154
 1755              	.LVL174:
 1756              	.L157:
 1757              		.loc 1 585 3 is_stmt 1 view .LVU555
 1758 0070 04AB     		add	r3, sp, #16
 1759 0072 3A46     		mov	r2, r7
 1760 0074 3146     		mov	r1, r6
 1761 0076 0190     		str	r0, [sp, #4]
 1762 0078 FFF7FEFF 		bl	get_next_good_spad
 1763              	.LVL175:
 1764              		.loc 1 588 3 view .LVU556
 1765              		.loc 1 588 20 is_stmt 0 view .LVU557
 1766 007c 049B     		ldr	r3, [sp, #16]
 1767              		.loc 1 588 6 view .LVU558
ARM GAS  /tmp/ccqyZH0w.s 			page 32


 1768 007e 5A1C     		adds	r2, r3, #1
 1769 0080 D8D1     		bne	.L176
 1770              	.L155:
 1771              	.LVL176:
 1772              		.loc 1 605 2 is_stmt 1 view .LVU559
 1773              		.loc 1 605 12 is_stmt 0 view .LVU560
 1774 0082 029B     		ldr	r3, [sp, #8]
 1775 0084 6FF03100 		mvn	r0, #49
 1776 0088 1F60     		str	r7, [r3]
 1777              		.loc 1 607 2 is_stmt 1 view .LVU561
 1778              		.loc 1 611 2 view .LVU562
 1779              	.LVL177:
 1780              	.L158:
 1781              		.loc 1 625 2 view .LVU563
 1782              		.loc 1 626 1 is_stmt 0 view .LVU564
 1783 008a 154B     		ldr	r3, .L179
 1784 008c 1A68     		ldr	r2, [r3]
 1785 008e 079B     		ldr	r3, [sp, #28]
 1786 0090 5A40     		eors	r2, r3, r2
 1787 0092 22D1     		bne	.L177
 1788 0094 09B0     		add	sp, sp, #36
 1789              		.cfi_remember_state
 1790              		.cfi_def_cfa_offset 36
 1791              		@ sp needed
 1792 0096 BDE8F08F 		pop	{r4, r5, r6, r7, r8, r9, r10, fp, pc}
 1793              	.LVL178:
 1794              	.L154:
 1795              		.cfi_restore_state
 1796              		.loc 1 605 2 is_stmt 1 view .LVU565
 1797              		.loc 1 605 12 is_stmt 0 view .LVU566
 1798 009a 029B     		ldr	r3, [sp, #8]
 1799              	.LBB32:
 1800              	.LBB33:
 1801              		.loc 1 541 25 view .LVU567
 1802 009c 0398     		ldr	r0, [sp, #12]
 1803              	.LBE33:
 1804              	.LBE32:
 1805              		.loc 1 605 12 view .LVU568
 1806 009e 1F60     		str	r7, [r3]
 1807              		.loc 1 607 2 is_stmt 1 view .LVU569
 1808              		.loc 1 608 3 view .LVU570
 1809              	.LVL179:
 1810              	.LBB35:
 1811              	.LBI32:
 1812              		.loc 1 539 15 view .LVU571
 1813              	.LBB34:
 1814              		.loc 1 541 2 view .LVU572
 1815              		.loc 1 541 25 is_stmt 0 view .LVU573
 1816 00a0 2246     		mov	r2, r4
 1817 00a2 0623     		movs	r3, #6
 1818 00a4 B021     		movs	r1, #176
 1819 00a6 FFF7FEFF 		bl	VL53L0X_WriteMulti
 1820              	.LVL180:
 1821              		.loc 1 544 2 is_stmt 1 view .LVU574
 1822              		.loc 1 544 2 is_stmt 0 view .LVU575
 1823              	.LBE34:
 1824              	.LBE35:
ARM GAS  /tmp/ccqyZH0w.s 			page 33


 1825              		.loc 1 611 2 is_stmt 1 view .LVU576
 1826              		.loc 1 611 5 is_stmt 0 view .LVU577
 1827 00aa 0028     		cmp	r0, #0
 1828 00ac EDD1     		bne	.L158
 1829              		.loc 1 612 3 is_stmt 1 view .LVU578
 1830              	.LVL181:
 1831              	.LBB36:
 1832              	.LBI36:
 1833              		.loc 1 547 15 view .LVU579
 1834              	.LBB37:
 1835              		.loc 1 549 2 view .LVU580
 1836              		.loc 1 549 25 is_stmt 0 view .LVU581
 1837 00ae 0398     		ldr	r0, [sp, #12]
 1838              	.LVL182:
 1839              		.loc 1 549 25 view .LVU582
 1840 00b0 05AA     		add	r2, sp, #20
 1841              	.LVL183:
 1842              		.loc 1 549 25 view .LVU583
 1843 00b2 0623     		movs	r3, #6
 1844 00b4 B021     		movs	r1, #176
 1845 00b6 FFF7FEFF 		bl	VL53L0X_ReadMulti
 1846              	.LVL184:
 1847              		.loc 1 553 2 is_stmt 1 view .LVU584
 1848              		.loc 1 553 2 is_stmt 0 view .LVU585
 1849              	.LBE37:
 1850              	.LBE36:
 1851              		.loc 1 614 3 is_stmt 1 view .LVU586
 1852              		.loc 1 617 3 view .LVU587
 1853              		.loc 1 617 9 view .LVU588
 1854 00ba 002E     		cmp	r6, #0
 1855 00bc E5D0     		beq	.L158
 1856 00be 2644     		add	r6, r6, r4
 1857 00c0 05AB     		add	r3, sp, #20
 1858 00c2 01E0     		b	.L159
 1859              	.LVL185:
 1860              	.L178:
 1861              		.loc 1 622 4 view .LVU589
 1862              		.loc 1 617 9 view .LVU590
 1863 00c4 A642     		cmp	r6, r4
 1864 00c6 E0D0     		beq	.L158
 1865              	.LVL186:
 1866              	.L159:
 1867              		.loc 1 618 4 view .LVU591
 1868              		.loc 1 618 17 is_stmt 0 view .LVU592
 1869 00c8 14F8011B 		ldrb	r1, [r4], #1	@ zero_extendqisi2
 1870              	.LVL187:
 1871              		.loc 1 618 38 view .LVU593
 1872 00cc 13F8012B 		ldrb	r2, [r3], #1	@ zero_extendqisi2
 1873              		.loc 1 618 7 view .LVU594
 1874 00d0 9142     		cmp	r1, r2
 1875 00d2 F7D0     		beq	.L178
 1876              		.loc 1 619 12 view .LVU595
 1877 00d4 6FF03100 		mvn	r0, #49
 1878              	.LVL188:
 1879              		.loc 1 619 12 view .LVU596
 1880 00d8 D7E7     		b	.L158
 1881              	.LVL189:
ARM GAS  /tmp/ccqyZH0w.s 			page 34


 1882              	.L177:
 1883              		.loc 1 626 1 view .LVU597
 1884 00da FFF7FEFF 		bl	__stack_chk_fail
 1885              	.LVL190:
 1886              	.L180:
 1887              		.loc 1 626 1 view .LVU598
 1888 00de 00BF     		.align	2
 1889              	.L179:
 1890 00e0 00000000 		.word	.LC11
 1891 00e4 00000000 		.word	.LANCHOR0
 1892              		.cfi_endproc
 1893              	.LFE14:
 1894              		.size	enable_ref_spads, .-enable_ref_spads
 1895              		.section	.rodata.perform_ref_signal_measurement.cst4,"aM",%progbits,4
 1896              		.align	2
 1897              	.LC12:
 1898 0000 00000000 		.word	__stack_chk_guard
 1899              		.section	.text.perform_ref_signal_measurement,"ax",%progbits
 1900              		.align	1
 1901              		.p2align 4,,15
 1902              		.global	perform_ref_signal_measurement
 1903              		.syntax unified
 1904              		.thumb
 1905              		.thumb_func
 1906              		.fpu fpv4-sp-d16
 1907              		.type	perform_ref_signal_measurement, %function
 1908              	perform_ref_signal_measurement:
 1909              	.LVL191:
 1910              	.LFB15:
 1911              		.loc 1 631 1 is_stmt 1 view -0
 1912              		.cfi_startproc
 1913              		@ args = 0, pretend = 0, frame = 32
 1914              		@ frame_needed = 0, uses_anonymous_args = 0
 1915              		.loc 1 631 1 is_stmt 0 view .LVU600
 1916 0000 70B5     		push	{r4, r5, r6, lr}
 1917              		.cfi_def_cfa_offset 16
 1918              		.cfi_offset 4, -16
 1919              		.cfi_offset 5, -12
 1920              		.cfi_offset 6, -8
 1921              		.cfi_offset 14, -4
 1922 0002 1E4B     		ldr	r3, .L187
 1923              		.loc 1 641 17 view .LVU601
 1924 0004 90F83051 		ldrb	r5, [r0, #304]	@ zero_extendqisi2
 1925              		.loc 1 631 1 view .LVU602
 1926 0008 88B0     		sub	sp, sp, #32
 1927              		.cfi_def_cfa_offset 48
 1928              		.loc 1 631 1 view .LVU603
 1929 000a 0E46     		mov	r6, r1
 1930              		.loc 1 647 12 view .LVU604
 1931 000c C022     		movs	r2, #192
 1932 000e 0121     		movs	r1, #1
 1933              	.LVL192:
 1934              		.loc 1 631 1 view .LVU605
 1935 0010 0446     		mov	r4, r0
 1936 0012 1B68     		ldr	r3, [r3]
 1937 0014 0793     		str	r3, [sp, #28]
 1938 0016 4FF00003 		mov	r3,#0
ARM GAS  /tmp/ccqyZH0w.s 			page 35


 1939              		.loc 1 632 2 is_stmt 1 view .LVU606
 1940              	.LVL193:
 1941              		.loc 1 633 2 view .LVU607
 1942              		.loc 1 635 2 view .LVU608
 1943              		.loc 1 641 2 view .LVU609
 1944              		.loc 1 646 2 view .LVU610
 1945              		.loc 1 647 3 view .LVU611
 1946              		.loc 1 647 12 is_stmt 0 view .LVU612
 1947 001a FFF7FEFF 		bl	VL53L0X_WrByte
 1948              	.LVL194:
 1949              		.loc 1 650 2 is_stmt 1 view .LVU613
 1950              		.loc 1 650 5 is_stmt 0 view .LVU614
 1951 001e 30B1     		cbz	r0, .L185
 1952              	.L182:
 1953              		.loc 1 673 2 is_stmt 1 view .LVU615
 1954              		.loc 1 674 1 is_stmt 0 view .LVU616
 1955 0020 164B     		ldr	r3, .L187
 1956 0022 1A68     		ldr	r2, [r3]
 1957 0024 079B     		ldr	r3, [sp, #28]
 1958 0026 5A40     		eors	r2, r3, r2
 1959 0028 26D1     		bne	.L186
 1960              		.loc 1 674 1 view .LVU617
 1961 002a 08B0     		add	sp, sp, #32
 1962              		.cfi_remember_state
 1963              		.cfi_def_cfa_offset 16
 1964              		@ sp needed
 1965 002c 70BD     		pop	{r4, r5, r6, pc}
 1966              	.LVL195:
 1967              	.L185:
 1968              		.cfi_restore_state
 1969              		.loc 1 651 3 is_stmt 1 view .LVU618
 1970              		.loc 1 651 12 is_stmt 0 view .LVU619
 1971 002e 6946     		mov	r1, sp
 1972 0030 2046     		mov	r0, r4
 1973              	.LVL196:
 1974              		.loc 1 651 12 view .LVU620
 1975 0032 FFF7FEFF 		bl	VL53L0X_PerformSingleRangingMeasurement
 1976              	.LVL197:
 1977              		.loc 1 654 2 is_stmt 1 view .LVU621
 1978              		.loc 1 654 5 is_stmt 0 view .LVU622
 1979 0036 0028     		cmp	r0, #0
 1980 0038 F2D1     		bne	.L182
 1981              		.loc 1 655 3 is_stmt 1 view .LVU623
 1982              		.loc 1 655 12 is_stmt 0 view .LVU624
 1983 003a 0122     		movs	r2, #1
 1984 003c FF21     		movs	r1, #255
 1985 003e 2046     		mov	r0, r4
 1986              	.LVL198:
 1987              		.loc 1 655 12 view .LVU625
 1988 0040 FFF7FEFF 		bl	VL53L0X_WrByte
 1989              	.LVL199:
 1990              		.loc 1 657 2 is_stmt 1 view .LVU626
 1991              		.loc 1 657 5 is_stmt 0 view .LVU627
 1992 0044 0028     		cmp	r0, #0
 1993 0046 EBD1     		bne	.L182
 1994              		.loc 1 658 3 is_stmt 1 view .LVU628
 1995              		.loc 1 658 12 is_stmt 0 view .LVU629
ARM GAS  /tmp/ccqyZH0w.s 			page 36


 1996 0048 3246     		mov	r2, r6
 1997 004a B621     		movs	r1, #182
 1998 004c 2046     		mov	r0, r4
 1999              	.LVL200:
 2000              		.loc 1 658 12 view .LVU630
 2001 004e FFF7FEFF 		bl	VL53L0X_RdWord
 2002              	.LVL201:
 2003              		.loc 1 662 2 is_stmt 1 view .LVU631
 2004              		.loc 1 662 5 is_stmt 0 view .LVU632
 2005 0052 0028     		cmp	r0, #0
 2006 0054 E4D1     		bne	.L182
 2007              		.loc 1 663 3 is_stmt 1 view .LVU633
 2008              		.loc 1 663 12 is_stmt 0 view .LVU634
 2009 0056 0246     		mov	r2, r0
 2010 0058 FF21     		movs	r1, #255
 2011 005a 2046     		mov	r0, r4
 2012              	.LVL202:
 2013              		.loc 1 663 12 view .LVU635
 2014 005c FFF7FEFF 		bl	VL53L0X_WrByte
 2015              	.LVL203:
 2016              		.loc 1 665 2 is_stmt 1 view .LVU636
 2017              		.loc 1 665 5 is_stmt 0 view .LVU637
 2018 0060 0028     		cmp	r0, #0
 2019 0062 DDD1     		bne	.L182
 2020              		.loc 1 667 3 is_stmt 1 view .LVU638
 2021              		.loc 1 667 12 is_stmt 0 view .LVU639
 2022 0064 2A46     		mov	r2, r5
 2023 0066 0121     		movs	r1, #1
 2024 0068 2046     		mov	r0, r4
 2025              	.LVL204:
 2026              		.loc 1 667 12 view .LVU640
 2027 006a FFF7FEFF 		bl	VL53L0X_WrByte
 2028              	.LVL205:
 2029              		.loc 1 669 3 is_stmt 1 view .LVU641
 2030              		.loc 1 669 6 is_stmt 0 view .LVU642
 2031 006e 0028     		cmp	r0, #0
 2032 0070 D6D1     		bne	.L182
 2033              		.loc 1 670 4 is_stmt 1 view .LVU643
 2034 0072 84F83051 		strb	r5, [r4, #304]
 2035 0076 D3E7     		b	.L182
 2036              	.L186:
 2037              		.loc 1 674 1 is_stmt 0 view .LVU644
 2038 0078 FFF7FEFF 		bl	__stack_chk_fail
 2039              	.LVL206:
 2040              	.L188:
 2041              		.loc 1 674 1 view .LVU645
 2042              		.align	2
 2043              	.L187:
 2044 007c 00000000 		.word	.LC12
 2045              		.cfi_endproc
 2046              	.LFE15:
 2047              		.size	perform_ref_signal_measurement, .-perform_ref_signal_measurement
 2048              		.section	.rodata.VL53L0X_set_reference_spads.cst4,"aM",%progbits,4
 2049              		.align	2
 2050              	.LC13:
 2051 0000 00000000 		.word	__stack_chk_guard
 2052              		.section	.text.VL53L0X_set_reference_spads,"ax",%progbits
ARM GAS  /tmp/ccqyZH0w.s 			page 37


 2053              		.align	1
 2054              		.p2align 4,,15
 2055              		.global	VL53L0X_set_reference_spads
 2056              		.syntax unified
 2057              		.thumb
 2058              		.thumb_func
 2059              		.fpu fpv4-sp-d16
 2060              		.type	VL53L0X_set_reference_spads, %function
 2061              	VL53L0X_set_reference_spads:
 2062              	.LVL207:
 2063              	.LFB17:
 2064              		.loc 1 945 1 is_stmt 1 view -0
 2065              		.cfi_startproc
 2066              		@ args = 0, pretend = 0, frame = 8
 2067              		@ frame_needed = 0, uses_anonymous_args = 0
 2068              		.loc 1 945 1 is_stmt 0 view .LVU647
 2069 0000 70B5     		push	{r4, r5, r6, lr}
 2070              		.cfi_def_cfa_offset 16
 2071              		.cfi_offset 4, -16
 2072              		.cfi_offset 5, -12
 2073              		.cfi_offset 6, -8
 2074              		.cfi_offset 14, -4
 2075 0002 304B     		ldr	r3, .L207
 2076 0004 88B0     		sub	sp, sp, #32
 2077              		.cfi_def_cfa_offset 48
 2078              		.loc 1 945 1 view .LVU648
 2079 0006 0E46     		mov	r6, r1
 2080 0008 1546     		mov	r5, r2
 2081              		.loc 1 961 11 view .LVU649
 2082 000a FF21     		movs	r1, #255
 2083              	.LVL208:
 2084              		.loc 1 961 11 view .LVU650
 2085 000c 0122     		movs	r2, #1
 2086              	.LVL209:
 2087              		.loc 1 945 1 view .LVU651
 2088 000e 1B68     		ldr	r3, [r3]
 2089 0010 0793     		str	r3, [sp, #28]
 2090 0012 4FF00003 		mov	r3,#0
 2091              		.loc 1 946 2 is_stmt 1 view .LVU652
 2092              	.LVL210:
 2093              		.loc 1 947 2 view .LVU653
 2094              		.loc 1 948 2 view .LVU654
 2095              		.loc 1 949 2 view .LVU655
 2096              		.loc 1 950 2 view .LVU656
 2097              		.loc 1 951 2 view .LVU657
 2098              		.loc 1 952 2 view .LVU658
 2099              		.loc 1 961 2 view .LVU659
 2100              		.loc 1 945 1 is_stmt 0 view .LVU660
 2101 0016 0446     		mov	r4, r0
 2102              		.loc 1 961 11 view .LVU661
 2103 0018 FFF7FEFF 		bl	VL53L0X_WrByte
 2104              	.LVL211:
 2105              		.loc 1 963 2 is_stmt 1 view .LVU662
 2106              		.loc 1 963 5 is_stmt 0 view .LVU663
 2107 001c A8B3     		cbz	r0, .L205
 2108              	.LVL212:
 2109              	.L191:
ARM GAS  /tmp/ccqyZH0w.s 			page 38


 2110              		.loc 1 979 18 is_stmt 1 discriminator 1 view .LVU664
 2111              		.loc 1 980 3 discriminator 1 view .LVU665
 2112              		.loc 1 979 41 discriminator 1 view .LVU666
 2113              		.loc 1 979 18 discriminator 1 view .LVU667
 2114              		.loc 1 980 3 discriminator 1 view .LVU668
 2115              		.loc 1 979 41 discriminator 1 view .LVU669
 2116              		.loc 1 979 18 discriminator 1 view .LVU670
 2117              		.loc 1 980 3 discriminator 1 view .LVU671
 2118              		.loc 1 979 41 discriminator 1 view .LVU672
 2119              		.loc 1 979 18 discriminator 1 view .LVU673
 2120              		.loc 1 980 3 discriminator 1 view .LVU674
 2121              		.loc 1 979 41 discriminator 1 view .LVU675
 2122              		.loc 1 979 18 discriminator 1 view .LVU676
 2123              		.loc 1 980 3 discriminator 1 view .LVU677
 2124              		.loc 1 979 41 discriminator 1 view .LVU678
 2125              		.loc 1 979 18 discriminator 1 view .LVU679
 2126              		.loc 1 980 3 discriminator 1 view .LVU680
 2127              		.loc 1 980 44 is_stmt 0 discriminator 1 view .LVU681
 2128 001e 0023     		movs	r3, #0
 2129 0020 C4F82431 		str	r3, [r4, #292]
 2130 0024 A4F82831 		strh	r3, [r4, #296]	@ movhi
 2131              		.loc 1 979 41 is_stmt 1 discriminator 1 view .LVU682
 2132              	.LVL213:
 2133              		.loc 1 979 18 discriminator 1 view .LVU683
 2134              		.loc 1 982 2 discriminator 1 view .LVU684
 2135              		.loc 1 982 5 is_stmt 0 discriminator 1 view .LVU685
 2136 0028 0DB3     		cbz	r5, .L198
 2137              		.loc 1 984 9 is_stmt 1 view .LVU686
 2138              	.LVL214:
 2139              	.LBB38:
 2140              	.LBI38:
 2141              		.loc 1 447 9 view .LVU687
 2142              	.LBB39:
 2143              		.loc 1 453 2 view .LVU688
 2144              		.loc 1 454 2 view .LVU689
 2145              		.loc 1 455 2 view .LVU690
 2146              		.loc 1 456 2 view .LVU691
 2147              		.loc 1 456 23 is_stmt 0 view .LVU692
 2148 002a 274A     		ldr	r2, .L207+4
 2149              		.loc 1 456 5 view .LVU693
 2150 002c 9168     		ldr	r1, [r2, #8]
 2151 002e 01B3     		cbz	r1, .L199
 2152              	.LVL215:
 2153              	.L193:
 2154              		.loc 1 456 5 view .LVU694
 2155              	.LBE39:
 2156              	.LBE38:
 2157              		.loc 1 989 2 is_stmt 1 view .LVU695
 2158              		.loc 1 989 11 is_stmt 0 view .LVU696
 2159 0030 06A8     		add	r0, sp, #24
 2160 0032 B421     		movs	r1, #180
 2161 0034 0622     		movs	r2, #6
 2162 0036 CDE90021 		strd	r2, r1, [sp]
 2163 003a CDE90236 		strd	r3, r6, [sp, #8]
 2164 003e 0490     		str	r0, [sp, #16]
 2165 0040 04F59273 		add	r3, r4, #292
 2166              	.LVL216:
ARM GAS  /tmp/ccqyZH0w.s 			page 39


 2167              		.loc 1 989 11 view .LVU697
 2168 0044 04F59572 		add	r2, r4, #298
 2169 0048 2946     		mov	r1, r5
 2170 004a 2046     		mov	r0, r4
 2171 004c FFF7FEFF 		bl	enable_ref_spads
 2172              	.LVL217:
 2173              		.loc 1 999 2 is_stmt 1 view .LVU698
 2174              		.loc 1 999 5 is_stmt 0 view .LVU699
 2175 0050 30B9     		cbnz	r0, .L196
 2176              		.loc 1 1000 3 is_stmt 1 view .LVU700
 2177 0052 0123     		movs	r3, #1
 2178              		.loc 1 1001 3 is_stmt 0 view .LVU701
 2179 0054 84F81361 		strb	r6, [r4, #275]
 2180              		.loc 1 1003 3 view .LVU702
 2181 0058 84F81451 		strb	r5, [r4, #276]
 2182              		.loc 1 1000 3 view .LVU703
 2183 005c 84F81531 		strb	r3, [r4, #277]
 2184              		.loc 1 1001 3 is_stmt 1 view .LVU704
 2185              		.loc 1 1003 3 view .LVU705
 2186              	.L196:
 2187              		.loc 1 1007 2 view .LVU706
 2188              		.loc 1 1008 1 is_stmt 0 view .LVU707
 2189 0060 184B     		ldr	r3, .L207
 2190 0062 1A68     		ldr	r2, [r3]
 2191 0064 079B     		ldr	r3, [sp, #28]
 2192 0066 5A40     		eors	r2, r3, r2
 2193 0068 2AD1     		bne	.L206
 2194 006a 08B0     		add	sp, sp, #32
 2195              		.cfi_remember_state
 2196              		.cfi_def_cfa_offset 16
 2197              		@ sp needed
 2198 006c 70BD     		pop	{r4, r5, r6, pc}
 2199              	.LVL218:
 2200              	.L198:
 2201              		.cfi_restore_state
 2202              		.loc 1 947 11 view .LVU708
 2203 006e 2B46     		mov	r3, r5
 2204 0070 DEE7     		b	.L193
 2205              	.LVL219:
 2206              	.L199:
 2207              		.loc 1 986 20 view .LVU709
 2208 0072 0123     		movs	r3, #1
 2209              	.LVL220:
 2210              	.L194:
 2211              		.loc 1 986 4 is_stmt 1 view .LVU710
 2212              	.LBB42:
 2213              	.LBB40:
 2214              		.loc 1 455 11 is_stmt 0 view .LVU711
 2215 0074 03F1B501 		add	r1, r3, #181
 2216 0078 8909     		lsrs	r1, r1, #6
 2217              	.LBE40:
 2218              	.LBE42:
 2219              		.loc 1 986 20 view .LVU712
 2220 007a 0133     		adds	r3, r3, #1
 2221              	.LVL221:
 2222              		.loc 1 984 9 is_stmt 1 view .LVU713
 2223              	.LBB43:
ARM GAS  /tmp/ccqyZH0w.s 			page 40


 2224              		.loc 1 447 9 view .LVU714
 2225              	.LBB41:
 2226              		.loc 1 453 2 view .LVU715
 2227              		.loc 1 454 2 view .LVU716
 2228              		.loc 1 455 2 view .LVU717
 2229              		.loc 1 456 2 view .LVU718
 2230              		.loc 1 456 5 is_stmt 0 view .LVU719
 2231 007c 52F82110 		ldr	r1, [r2, r1, lsl #2]
 2232 0080 0029     		cmp	r1, #0
 2233 0082 D5D1     		bne	.L193
 2234              		.loc 1 457 3 is_stmt 1 view .LVU720
 2235              	.LVL222:
 2236              		.loc 1 459 2 view .LVU721
 2237              		.loc 1 459 2 is_stmt 0 view .LVU722
 2238              	.LBE41:
 2239              	.LBE43:
 2240              		.loc 1 984 61 view .LVU723
 2241 0084 2C2B     		cmp	r3, #44
 2242 0086 D3D0     		beq	.L193
 2243 0088 F4E7     		b	.L194
 2244              	.LVL223:
 2245              	.L205:
 2246              		.loc 1 964 3 is_stmt 1 view .LVU724
 2247              		.loc 1 964 12 is_stmt 0 view .LVU725
 2248 008a 0246     		mov	r2, r0
 2249 008c 4F21     		movs	r1, #79
 2250 008e 2046     		mov	r0, r4
 2251              	.LVL224:
 2252              		.loc 1 964 12 view .LVU726
 2253 0090 FFF7FEFF 		bl	VL53L0X_WrByte
 2254              	.LVL225:
 2255              		.loc 1 967 2 is_stmt 1 view .LVU727
 2256              		.loc 1 967 5 is_stmt 0 view .LVU728
 2257 0094 0028     		cmp	r0, #0
 2258 0096 C2D1     		bne	.L191
 2259              		.loc 1 968 3 is_stmt 1 view .LVU729
 2260              		.loc 1 968 12 is_stmt 0 view .LVU730
 2261 0098 2C22     		movs	r2, #44
 2262 009a 4E21     		movs	r1, #78
 2263 009c 2046     		mov	r0, r4
 2264              	.LVL226:
 2265              		.loc 1 968 12 view .LVU731
 2266 009e FFF7FEFF 		bl	VL53L0X_WrByte
 2267              	.LVL227:
 2268              		.loc 1 971 2 is_stmt 1 view .LVU732
 2269              		.loc 1 971 5 is_stmt 0 view .LVU733
 2270 00a2 0246     		mov	r2, r0
 2271 00a4 0028     		cmp	r0, #0
 2272 00a6 BAD1     		bne	.L191
 2273              		.loc 1 972 3 is_stmt 1 view .LVU734
 2274              		.loc 1 972 12 is_stmt 0 view .LVU735
 2275 00a8 FF21     		movs	r1, #255
 2276 00aa 2046     		mov	r0, r4
 2277              	.LVL228:
 2278              		.loc 1 972 12 view .LVU736
 2279 00ac FFF7FEFF 		bl	VL53L0X_WrByte
 2280              	.LVL229:
ARM GAS  /tmp/ccqyZH0w.s 			page 41


 2281              		.loc 1 974 2 is_stmt 1 view .LVU737
 2282              		.loc 1 974 5 is_stmt 0 view .LVU738
 2283 00b0 0028     		cmp	r0, #0
 2284 00b2 B4D1     		bne	.L191
 2285              		.loc 1 975 3 is_stmt 1 view .LVU739
 2286              		.loc 1 975 12 is_stmt 0 view .LVU740
 2287 00b4 B422     		movs	r2, #180
 2288 00b6 B621     		movs	r1, #182
 2289 00b8 2046     		mov	r0, r4
 2290              	.LVL230:
 2291              		.loc 1 975 12 view .LVU741
 2292 00ba FFF7FEFF 		bl	VL53L0X_WrByte
 2293              	.LVL231:
 2294              		.loc 1 975 12 view .LVU742
 2295 00be AEE7     		b	.L191
 2296              	.LVL232:
 2297              	.L206:
 2298              		.loc 1 1008 1 view .LVU743
 2299 00c0 FFF7FEFF 		bl	__stack_chk_fail
 2300              	.LVL233:
 2301              	.L208:
 2302              		.loc 1 1008 1 view .LVU744
 2303              		.align	2
 2304              	.L207:
 2305 00c4 00000000 		.word	.LC13
 2306 00c8 00000000 		.word	.LANCHOR0
 2307              		.cfi_endproc
 2308              	.LFE17:
 2309              		.size	VL53L0X_set_reference_spads, .-VL53L0X_set_reference_spads
 2310              		.section	.rodata.VL53L0X_get_reference_spads.cst4,"aM",%progbits,4
 2311              		.align	2
 2312              	.LC14:
 2313 0000 00000000 		.word	__stack_chk_guard
 2314              		.section	.text.VL53L0X_get_reference_spads,"ax",%progbits
 2315              		.align	1
 2316              		.p2align 4,,15
 2317              		.global	VL53L0X_get_reference_spads
 2318              		.syntax unified
 2319              		.thumb
 2320              		.thumb_func
 2321              		.fpu fpv4-sp-d16
 2322              		.type	VL53L0X_get_reference_spads, %function
 2323              	VL53L0X_get_reference_spads:
 2324              	.LVL234:
 2325              	.LFB18:
 2326              		.loc 1 1012 1 is_stmt 1 view -0
 2327              		.cfi_startproc
 2328              		@ args = 0, pretend = 0, frame = 24
 2329              		@ frame_needed = 0, uses_anonymous_args = 0
 2330              		.loc 1 1012 1 is_stmt 0 view .LVU746
 2331 0000 F0B5     		push	{r4, r5, r6, r7, lr}
 2332              		.cfi_def_cfa_offset 20
 2333              		.cfi_offset 4, -20
 2334              		.cfi_offset 5, -16
 2335              		.cfi_offset 6, -12
 2336              		.cfi_offset 7, -8
 2337              		.cfi_offset 14, -4
ARM GAS  /tmp/ccqyZH0w.s 			page 42


 2338 0002 204B     		ldr	r3, .L215
 2339              		.loc 1 1024 5 view .LVU747
 2340 0004 90F81551 		ldrb	r5, [r0, #277]	@ zero_extendqisi2
 2341              		.loc 1 1012 1 view .LVU748
 2342 0008 89B0     		sub	sp, sp, #36
 2343              		.cfi_def_cfa_offset 56
 2344              		.loc 1 1012 1 view .LVU749
 2345 000a 1B68     		ldr	r3, [r3]
 2346 000c 0793     		str	r3, [sp, #28]
 2347 000e 4FF00003 		mov	r3,#0
 2348              		.loc 1 1013 2 is_stmt 1 view .LVU750
 2349              	.LVL235:
 2350              		.loc 1 1014 2 view .LVU751
 2351              		.loc 1 1015 2 view .LVU752
 2352              		.loc 1 1016 2 view .LVU753
 2353              		.loc 1 1017 2 view .LVU754
 2354              		.loc 1 1018 2 view .LVU755
 2355              		.loc 1 1019 2 view .LVU756
 2356              		.loc 1 1024 5 is_stmt 0 view .LVU757
 2357 0012 012D     		cmp	r5, #1
 2358              		.loc 1 1019 10 view .LVU758
 2359 0014 4FF00003 		mov	r3, #0
 2360              		.loc 1 1012 1 view .LVU759
 2361 0018 0446     		mov	r4, r0
 2362 001a 0E46     		mov	r6, r1
 2363 001c 1746     		mov	r7, r2
 2364              		.loc 1 1019 10 view .LVU760
 2365 001e 8DF80F30 		strb	r3, [sp, #15]
 2366              		.loc 1 1021 2 is_stmt 1 view .LVU761
 2367              	.LVL236:
 2368              		.loc 1 1024 2 view .LVU762
 2369              		.loc 1 1024 5 is_stmt 0 view .LVU763
 2370 0022 0DD1     		bne	.L210
 2371              		.loc 1 1026 3 is_stmt 1 view .LVU764
 2372              		.loc 1 1026 17 is_stmt 0 view .LVU765
 2373 0024 90F81321 		ldrb	r2, [r0, #275]	@ zero_extendqisi2
 2374              	.LVL237:
 2375              		.loc 1 1026 17 view .LVU766
 2376 0028 0A60     		str	r2, [r1]
 2377              	.LVL238:
 2378              		.loc 1 1028 3 is_stmt 1 view .LVU767
 2379              		.loc 1 1028 23 is_stmt 0 view .LVU768
 2380 002a 90F81421 		ldrb	r2, [r0, #276]	@ zero_extendqisi2
 2381              		.loc 1 1028 21 view .LVU769
 2382 002e 3A70     		strb	r2, [r7]
 2383              		.loc 1 1013 16 view .LVU770
 2384 0030 1846     		mov	r0, r3
 2385              	.LVL239:
 2386              	.L211:
 2387              		.loc 1 1061 2 is_stmt 1 view .LVU771
 2388              		.loc 1 1062 1 is_stmt 0 view .LVU772
 2389 0032 144B     		ldr	r3, .L215
 2390 0034 1A68     		ldr	r2, [r3]
 2391 0036 079B     		ldr	r3, [sp, #28]
 2392 0038 5A40     		eors	r2, r3, r2
 2393 003a 20D1     		bne	.L214
 2394 003c 09B0     		add	sp, sp, #36
ARM GAS  /tmp/ccqyZH0w.s 			page 43


 2395              		.cfi_remember_state
 2396              		.cfi_def_cfa_offset 20
 2397              		@ sp needed
 2398 003e F0BD     		pop	{r4, r5, r6, r7, pc}
 2399              	.LVL240:
 2400              	.L210:
 2401              		.cfi_restore_state
 2402              		.loc 1 1033 3 is_stmt 1 view .LVU773
 2403              	.LBB44:
 2404              	.LBI44:
 2405              		.loc 1 547 15 view .LVU774
 2406              	.LBB45:
 2407              		.loc 1 549 2 view .LVU775
 2408              		.loc 1 549 25 is_stmt 0 view .LVU776
 2409 0040 05AA     		add	r2, sp, #20
 2410              	.LVL241:
 2411              		.loc 1 549 25 view .LVU777
 2412 0042 0623     		movs	r3, #6
 2413 0044 B021     		movs	r1, #176
 2414              	.LVL242:
 2415              		.loc 1 549 25 view .LVU778
 2416 0046 FFF7FEFF 		bl	VL53L0X_ReadMulti
 2417              	.LVL243:
 2418              		.loc 1 553 2 is_stmt 1 view .LVU779
 2419              		.loc 1 553 2 is_stmt 0 view .LVU780
 2420              	.LBE45:
 2421              	.LBE44:
 2422              		.loc 1 1035 3 is_stmt 1 view .LVU781
 2423              		.loc 1 1035 6 is_stmt 0 view .LVU782
 2424 004a 0028     		cmp	r0, #0
 2425 004c F1D1     		bne	.L211
 2426              		.loc 1 1039 4 is_stmt 1 view .LVU783
 2427              		.loc 1 1039 13 is_stmt 0 view .LVU784
 2428 004e 0DF10F03 		add	r3, sp, #15
 2429 0052 0093     		str	r3, [sp]
 2430 0054 05A8     		add	r0, sp, #20
 2431              	.LVL244:
 2432              		.loc 1 1039 13 view .LVU785
 2433 0056 04AB     		add	r3, sp, #16
 2434 0058 2C22     		movs	r2, #44
 2435 005a 0621     		movs	r1, #6
 2436 005c FFF7FEFF 		bl	count_enabled_spads
 2437              	.LVL245:
 2438              		.loc 1 1045 4 is_stmt 1 view .LVU786
 2439              		.loc 1 1045 7 is_stmt 0 view .LVU787
 2440 0060 0028     		cmp	r0, #0
 2441 0062 E6D1     		bne	.L211
 2442              		.loc 1 1047 5 is_stmt 1 view .LVU788
 2443              		.loc 1 1047 17 is_stmt 0 view .LVU789
 2444 0064 049A     		ldr	r2, [sp, #16]
 2445              		.loc 1 1048 23 view .LVU790
 2446 0066 9DF80F30 		ldrb	r3, [sp, #15]	@ zero_extendqisi2
 2447              		.loc 1 1047 17 view .LVU791
 2448 006a 3260     		str	r2, [r6]
 2449              		.loc 1 1048 5 is_stmt 1 view .LVU792
 2450              		.loc 1 1050 5 is_stmt 0 view .LVU793
 2451 006c 0121     		movs	r1, #1
ARM GAS  /tmp/ccqyZH0w.s 			page 44


 2452              		.loc 1 1048 23 view .LVU794
 2453 006e 3B70     		strb	r3, [r7]
 2454              		.loc 1 1050 5 is_stmt 1 view .LVU795
 2455              		.loc 1 1052 5 is_stmt 0 view .LVU796
 2456 0070 84F81321 		strb	r2, [r4, #275]
 2457              		.loc 1 1055 5 view .LVU797
 2458 0074 84F81431 		strb	r3, [r4, #276]
 2459              		.loc 1 1050 5 view .LVU798
 2460 0078 84F81511 		strb	r1, [r4, #277]
 2461              		.loc 1 1052 5 is_stmt 1 view .LVU799
 2462              		.loc 1 1055 5 view .LVU800
 2463 007c D9E7     		b	.L211
 2464              	.L214:
 2465              		.loc 1 1062 1 is_stmt 0 view .LVU801
 2466 007e FFF7FEFF 		bl	__stack_chk_fail
 2467              	.LVL246:
 2468              	.L216:
 2469              		.loc 1 1062 1 view .LVU802
 2470 0082 00BF     		.align	2
 2471              	.L215:
 2472 0084 00000000 		.word	.LC14
 2473              		.cfi_endproc
 2474              	.LFE18:
 2475              		.size	VL53L0X_get_reference_spads, .-VL53L0X_get_reference_spads
 2476              		.section	.rodata.VL53L0X_perform_single_ref_calibration.cst4,"aM",%progbits,4
 2477              		.align	2
 2478              	.LC15:
 2479 0000 00000000 		.word	__stack_chk_guard
 2480              		.section	.text.VL53L0X_perform_single_ref_calibration,"ax",%progbits
 2481              		.align	1
 2482              		.p2align 4,,15
 2483              		.global	VL53L0X_perform_single_ref_calibration
 2484              		.syntax unified
 2485              		.thumb
 2486              		.thumb_func
 2487              		.fpu fpv4-sp-d16
 2488              		.type	VL53L0X_perform_single_ref_calibration, %function
 2489              	VL53L0X_perform_single_ref_calibration:
 2490              	.LVL247:
 2491              	.LFB19:
 2492              		.loc 1 1067 1 is_stmt 1 view -0
 2493              		.cfi_startproc
 2494              		@ args = 0, pretend = 0, frame = 8
 2495              		@ frame_needed = 0, uses_anonymous_args = 0
 2496              		.loc 1 1067 1 is_stmt 0 view .LVU804
 2497 0000 10B5     		push	{r4, lr}
 2498              		.cfi_def_cfa_offset 8
 2499              		.cfi_offset 4, -8
 2500              		.cfi_offset 14, -4
 2501 0002 184B     		ldr	r3, .L224
 2502 0004 82B0     		sub	sp, sp, #8
 2503              		.cfi_def_cfa_offset 16
 2504              		.loc 1 1071 12 view .LVU805
 2505 0006 41F00102 		orr	r2, r1, #1
 2506 000a 0021     		movs	r1, #0
 2507              	.LVL248:
 2508              		.loc 1 1067 1 view .LVU806
ARM GAS  /tmp/ccqyZH0w.s 			page 45


 2509 000c 1B68     		ldr	r3, [r3]
 2510 000e 0193     		str	r3, [sp, #4]
 2511 0010 4FF00003 		mov	r3,#0
 2512 0014 0446     		mov	r4, r0
 2513              		.loc 1 1068 2 is_stmt 1 view .LVU807
 2514              	.LVL249:
 2515              		.loc 1 1070 2 view .LVU808
 2516              		.loc 1 1071 3 view .LVU809
 2517              		.loc 1 1071 12 is_stmt 0 view .LVU810
 2518 0016 FFF7FEFF 		bl	VL53L0X_WrByte
 2519              	.LVL250:
 2520              		.loc 1 1075 2 is_stmt 1 view .LVU811
 2521              		.loc 1 1075 5 is_stmt 0 view .LVU812
 2522 001a 0146     		mov	r1, r0
 2523 001c 38B1     		cbz	r0, .L223
 2524              	.L218:
 2525              	.LVL251:
 2526              		.loc 1 1084 2 is_stmt 1 view .LVU813
 2527              		.loc 1 1085 1 is_stmt 0 view .LVU814
 2528 001e 114B     		ldr	r3, .L224
 2529 0020 1A68     		ldr	r2, [r3]
 2530 0022 019B     		ldr	r3, [sp, #4]
 2531 0024 5A40     		eors	r2, r3, r2
 2532 0026 1AD1     		bne	.L222
 2533 0028 0846     		mov	r0, r1
 2534 002a 02B0     		add	sp, sp, #8
 2535              		.cfi_remember_state
 2536              		.cfi_def_cfa_offset 8
 2537              		@ sp needed
 2538 002c 10BD     		pop	{r4, pc}
 2539              	.LVL252:
 2540              	.L223:
 2541              		.cfi_restore_state
 2542              		.loc 1 1076 3 is_stmt 1 view .LVU815
 2543              		.loc 1 1076 12 is_stmt 0 view .LVU816
 2544 002e 2046     		mov	r0, r4
 2545              	.LVL253:
 2546              		.loc 1 1076 12 view .LVU817
 2547 0030 FFF7FEFF 		bl	VL53L0X_measurement_poll_for_completion
 2548              	.LVL254:
 2549              		.loc 1 1078 2 is_stmt 1 view .LVU818
 2550              		.loc 1 1078 5 is_stmt 0 view .LVU819
 2551 0034 0146     		mov	r1, r0
 2552 0036 0028     		cmp	r0, #0
 2553 0038 F1D1     		bne	.L218
 2554              		.loc 1 1079 3 is_stmt 1 view .LVU820
 2555              		.loc 1 1079 12 is_stmt 0 view .LVU821
 2556 003a 2046     		mov	r0, r4
 2557              	.LVL255:
 2558              		.loc 1 1079 12 view .LVU822
 2559 003c FFF7FEFF 		bl	VL53L0X_ClearInterruptMask
 2560              	.LVL256:
 2561              		.loc 1 1081 2 is_stmt 1 view .LVU823
 2562              		.loc 1 1081 5 is_stmt 0 view .LVU824
 2563 0040 0146     		mov	r1, r0
 2564 0042 0028     		cmp	r0, #0
 2565 0044 EBD1     		bne	.L218
ARM GAS  /tmp/ccqyZH0w.s 			page 46


 2566              	.LVL257:
 2567              	.LBB48:
 2568              	.LBI48:
 2569              		.loc 1 1065 15 is_stmt 1 view .LVU825
 2570              	.LBB49:
 2571              		.loc 1 1082 3 view .LVU826
 2572              		.loc 1 1082 12 is_stmt 0 view .LVU827
 2573 0046 074B     		ldr	r3, .L224
 2574 0048 1A68     		ldr	r2, [r3]
 2575 004a 019B     		ldr	r3, [sp, #4]
 2576 004c 5A40     		eors	r2, r3, r2
 2577 004e 06D1     		bne	.L222
 2578 0050 2046     		mov	r0, r4
 2579              	.LVL258:
 2580              		.loc 1 1082 12 view .LVU828
 2581 0052 0A46     		mov	r2, r1
 2582              	.LBE49:
 2583              	.LBE48:
 2584              		.loc 1 1085 1 view .LVU829
 2585 0054 02B0     		add	sp, sp, #8
 2586              		.cfi_remember_state
 2587              		.cfi_def_cfa_offset 8
 2588              		@ sp needed
 2589 0056 BDE81040 		pop	{r4, lr}
 2590              		.cfi_restore 14
 2591              		.cfi_restore 4
 2592              		.cfi_def_cfa_offset 0
 2593              	.LVL259:
 2594              	.LBB51:
 2595              	.LBB50:
 2596              		.loc 1 1082 12 view .LVU830
 2597 005a FFF7FEBF 		b	VL53L0X_WrByte
 2598              	.LVL260:
 2599              	.L222:
 2600              		.cfi_restore_state
 2601              		.loc 1 1082 12 view .LVU831
 2602              	.LBE50:
 2603              	.LBE51:
 2604              		.loc 1 1085 1 view .LVU832
 2605 005e FFF7FEFF 		bl	__stack_chk_fail
 2606              	.LVL261:
 2607              	.L225:
 2608 0062 00BF     		.align	2
 2609              	.L224:
 2610 0064 00000000 		.word	.LC15
 2611              		.cfi_endproc
 2612              	.LFE19:
 2613              		.size	VL53L0X_perform_single_ref_calibration, .-VL53L0X_perform_single_ref_calibration
 2614              		.section	.rodata.VL53L0X_ref_calibration_io.cst4,"aM",%progbits,4
 2615              		.align	2
 2616              	.LC16:
 2617 0000 00000000 		.word	__stack_chk_guard
 2618              		.section	.text.VL53L0X_ref_calibration_io,"ax",%progbits
 2619              		.align	1
 2620              		.p2align 4,,15
 2621              		.global	VL53L0X_ref_calibration_io
 2622              		.syntax unified
ARM GAS  /tmp/ccqyZH0w.s 			page 47


 2623              		.thumb
 2624              		.thumb_func
 2625              		.fpu fpv4-sp-d16
 2626              		.type	VL53L0X_ref_calibration_io, %function
 2627              	VL53L0X_ref_calibration_io:
 2628              	.LVL262:
 2629              	.LFB20:
 2630              		.loc 1 1092 1 is_stmt 1 view -0
 2631              		.cfi_startproc
 2632              		@ args = 16, pretend = 0, frame = 16
 2633              		@ frame_needed = 0, uses_anonymous_args = 0
 2634              		.loc 1 1092 1 is_stmt 0 view .LVU834
 2635 0000 2DE9F04F 		push	{r4, r5, r6, r7, r8, r9, r10, fp, lr}
 2636              		.cfi_def_cfa_offset 36
 2637              		.cfi_offset 4, -36
 2638              		.cfi_offset 5, -32
 2639              		.cfi_offset 6, -28
 2640              		.cfi_offset 7, -24
 2641              		.cfi_offset 8, -20
 2642              		.cfi_offset 9, -16
 2643              		.cfi_offset 10, -12
 2644              		.cfi_offset 11, -8
 2645              		.cfi_offset 14, -4
 2646 0004 85B0     		sub	sp, sp, #20
 2647              		.cfi_def_cfa_offset 56
 2648              		.loc 1 1094 10 view .LVU835
 2649 0006 4FF0000A 		mov	r10, #0
 2650              		.loc 1 1092 1 view .LVU836
 2651 000a 0093     		str	r3, [sp]
 2652 000c 3E4B     		ldr	r3, .L250
 2653              	.LVL263:
 2654              		.loc 1 1092 1 view .LVU837
 2655 000e DDF83C80 		ldr	r8, [sp, #60]
 2656 0012 9DF840B0 		ldrb	fp, [sp, #64]	@ zero_extendqisi2
 2657 0016 9DF84490 		ldrb	r9, [sp, #68]	@ zero_extendqisi2
 2658 001a 1B68     		ldr	r3, [r3]
 2659 001c 0393     		str	r3, [sp, #12]
 2660 001e 4FF00003 		mov	r3,#0
 2661              		.loc 1 1093 2 is_stmt 1 view .LVU838
 2662              	.LVL264:
 2663              		.loc 1 1094 2 view .LVU839
 2664              		.loc 1 1092 1 is_stmt 0 view .LVU840
 2665 0022 0E46     		mov	r6, r1
 2666 0024 0E9B     		ldr	r3, [sp, #56]
 2667 0026 0193     		str	r3, [sp, #4]
 2668              		.loc 1 1097 12 view .LVU841
 2669 0028 FF21     		movs	r1, #255
 2670              	.LVL265:
 2671              		.loc 1 1092 1 view .LVU842
 2672 002a 1746     		mov	r7, r2
 2673              		.loc 1 1097 12 view .LVU843
 2674 002c 0122     		movs	r2, #1
 2675              	.LVL266:
 2676              		.loc 1 1092 1 view .LVU844
 2677 002e 0546     		mov	r5, r0
 2678              		.loc 1 1094 10 view .LVU845
 2679 0030 8DF80BA0 		strb	r10, [sp, #11]
ARM GAS  /tmp/ccqyZH0w.s 			page 48


 2680              		.loc 1 1097 2 is_stmt 1 view .LVU846
 2681              		.loc 1 1097 12 is_stmt 0 view .LVU847
 2682 0034 FFF7FEFF 		bl	VL53L0X_WrByte
 2683              	.LVL267:
 2684              		.loc 1 1098 12 view .LVU848
 2685 0038 5246     		mov	r2, r10
 2686              		.loc 1 1097 12 view .LVU849
 2687 003a 0446     		mov	r4, r0
 2688              		.loc 1 1098 12 view .LVU850
 2689 003c 5146     		mov	r1, r10
 2690              	.LVL268:
 2691              		.loc 1 1098 2 is_stmt 1 view .LVU851
 2692              		.loc 1 1098 12 is_stmt 0 view .LVU852
 2693 003e 2846     		mov	r0, r5
 2694 0040 FFF7FEFF 		bl	VL53L0X_WrByte
 2695              	.LVL269:
 2696              		.loc 1 1099 12 view .LVU853
 2697 0044 5246     		mov	r2, r10
 2698              		.loc 1 1098 9 view .LVU854
 2699 0046 0443     		orrs	r4, r4, r0
 2700              	.LVL270:
 2701              		.loc 1 1099 12 view .LVU855
 2702 0048 FF21     		movs	r1, #255
 2703 004a 2846     		mov	r0, r5
 2704 004c FFF7FEFF 		bl	VL53L0X_WrByte
 2705              	.LVL271:
 2706              		.loc 1 1098 9 view .LVU856
 2707 0050 64B2     		sxtb	r4, r4
 2708              	.LVL272:
 2709              		.loc 1 1099 2 is_stmt 1 view .LVU857
 2710              		.loc 1 1099 9 is_stmt 0 view .LVU858
 2711 0052 2043     		orrs	r0, r0, r4
 2712 0054 44B2     		sxtb	r4, r0
 2713              	.LVL273:
 2714              		.loc 1 1101 2 is_stmt 1 view .LVU859
 2715              		.loc 1 1101 5 is_stmt 0 view .LVU860
 2716 0056 46B3     		cbz	r6, .L227
 2717              		.loc 1 1102 3 is_stmt 1 view .LVU861
 2718              		.loc 1 1102 6 is_stmt 0 view .LVU862
 2719 0058 BBF1000F 		cmp	fp, #0
 2720 005c 34D1     		bne	.L245
 2721              		.loc 1 1104 3 is_stmt 1 view .LVU863
 2722              		.loc 1 1104 6 is_stmt 0 view .LVU864
 2723 005e B9F1000F 		cmp	r9, #0
 2724 0062 3BD1     		bne	.L246
 2725              	.L229:
 2726              		.loc 1 1113 2 is_stmt 1 view .LVU865
 2727              		.loc 1 1113 12 is_stmt 0 view .LVU866
 2728 0064 0122     		movs	r2, #1
 2729 0066 FF21     		movs	r1, #255
 2730 0068 2846     		mov	r0, r5
 2731 006a FFF7FEFF 		bl	VL53L0X_WrByte
 2732              	.LVL274:
 2733              		.loc 1 1114 12 view .LVU867
 2734 006e 0122     		movs	r2, #1
 2735              		.loc 1 1113 9 view .LVU868
 2736 0070 0443     		orrs	r4, r4, r0
ARM GAS  /tmp/ccqyZH0w.s 			page 49


 2737              	.LVL275:
 2738              		.loc 1 1114 12 view .LVU869
 2739 0072 0021     		movs	r1, #0
 2740 0074 2846     		mov	r0, r5
 2741 0076 FFF7FEFF 		bl	VL53L0X_WrByte
 2742              	.LVL276:
 2743              		.loc 1 1113 9 view .LVU870
 2744 007a 64B2     		sxtb	r4, r4
 2745              	.LVL277:
 2746              		.loc 1 1114 2 is_stmt 1 view .LVU871
 2747              		.loc 1 1114 9 is_stmt 0 view .LVU872
 2748 007c 0443     		orrs	r4, r4, r0
 2749              	.LVL278:
 2750              		.loc 1 1115 12 view .LVU873
 2751 007e 0022     		movs	r2, #0
 2752 0080 2846     		mov	r0, r5
 2753 0082 FF21     		movs	r1, #255
 2754 0084 FFF7FEFF 		bl	VL53L0X_WrByte
 2755              	.LVL279:
 2756              		.loc 1 1117 15 view .LVU874
 2757 0088 9DF80B30 		ldrb	r3, [sp, #11]	@ zero_extendqisi2
 2758 008c 23F01003 		bic	r3, r3, #16
 2759              		.loc 1 1117 13 view .LVU875
 2760 0090 88F80030 		strb	r3, [r8]
 2761              		.loc 1 1120 1 view .LVU876
 2762 0094 1C4B     		ldr	r3, .L250
 2763              		.loc 1 1114 9 view .LVU877
 2764 0096 64B2     		sxtb	r4, r4
 2765              	.LVL280:
 2766              		.loc 1 1115 2 is_stmt 1 view .LVU878
 2767              		.loc 1 1117 2 view .LVU879
 2768              		.loc 1 1119 2 view .LVU880
 2769              		.loc 1 1115 9 is_stmt 0 view .LVU881
 2770 0098 2043     		orrs	r0, r0, r4
 2771              	.LVL281:
 2772              		.loc 1 1120 1 view .LVU882
 2773 009a 1A68     		ldr	r2, [r3]
 2774 009c 039B     		ldr	r3, [sp, #12]
 2775 009e 5A40     		eors	r2, r3, r2
 2776              		.loc 1 1119 9 view .LVU883
 2777 00a0 40B2     		sxtb	r0, r0
 2778              		.loc 1 1120 1 view .LVU884
 2779 00a2 2FD1     		bne	.L247
 2780 00a4 05B0     		add	sp, sp, #20
 2781              		.cfi_remember_state
 2782              		.cfi_def_cfa_offset 36
 2783              		@ sp needed
 2784 00a6 BDE8F08F 		pop	{r4, r5, r6, r7, r8, r9, r10, fp, pc}
 2785              	.LVL282:
 2786              	.L227:
 2787              		.cfi_restore_state
 2788              		.loc 1 1107 3 is_stmt 1 view .LVU885
 2789              		.loc 1 1107 6 is_stmt 0 view .LVU886
 2790 00aa BBF1000F 		cmp	fp, #0
 2791 00ae 1ED1     		bne	.L248
 2792              		.loc 1 1109 3 is_stmt 1 view .LVU887
 2793              		.loc 1 1109 6 is_stmt 0 view .LVU888
ARM GAS  /tmp/ccqyZH0w.s 			page 50


 2794 00b0 B9F1000F 		cmp	r9, #0
 2795 00b4 D6D0     		beq	.L229
 2796              	.L249:
 2797              		.loc 1 1110 4 is_stmt 1 view .LVU889
 2798              		.loc 1 1110 14 is_stmt 0 view .LVU890
 2799 00b6 009B     		ldr	r3, [sp]
 2800 00b8 8022     		movs	r2, #128
 2801 00ba EE21     		movs	r1, #238
 2802 00bc 2846     		mov	r0, r5
 2803 00be FFF7FEFF 		bl	VL53L0X_UpdateByte
 2804              	.LVL283:
 2805              		.loc 1 1110 11 view .LVU891
 2806 00c2 2043     		orrs	r0, r0, r4
 2807 00c4 44B2     		sxtb	r4, r0
 2808              	.LVL284:
 2809              		.loc 1 1110 11 view .LVU892
 2810 00c6 CDE7     		b	.L229
 2811              	.L245:
 2812              		.loc 1 1103 4 is_stmt 1 view .LVU893
 2813              		.loc 1 1103 14 is_stmt 0 view .LVU894
 2814 00c8 019A     		ldr	r2, [sp, #4]
 2815 00ca CB21     		movs	r1, #203
 2816 00cc 2846     		mov	r0, r5
 2817 00ce FFF7FEFF 		bl	VL53L0X_RdByte
 2818              	.LVL285:
 2819              		.loc 1 1103 11 view .LVU895
 2820 00d2 2043     		orrs	r0, r0, r4
 2821 00d4 44B2     		sxtb	r4, r0
 2822              	.LVL286:
 2823              		.loc 1 1104 3 is_stmt 1 view .LVU896
 2824              		.loc 1 1104 6 is_stmt 0 view .LVU897
 2825 00d6 B9F1000F 		cmp	r9, #0
 2826 00da C3D0     		beq	.L229
 2827              	.L246:
 2828              		.loc 1 1105 4 is_stmt 1 view .LVU898
 2829              		.loc 1 1105 14 is_stmt 0 view .LVU899
 2830 00dc 0DF10B02 		add	r2, sp, #11
 2831 00e0 EE21     		movs	r1, #238
 2832 00e2 2846     		mov	r0, r5
 2833 00e4 FFF7FEFF 		bl	VL53L0X_RdByte
 2834              	.LVL287:
 2835              		.loc 1 1105 11 view .LVU900
 2836 00e8 2043     		orrs	r0, r0, r4
 2837 00ea 44B2     		sxtb	r4, r0
 2838              	.LVL288:
 2839              		.loc 1 1105 11 view .LVU901
 2840 00ec BAE7     		b	.L229
 2841              	.L248:
 2842              		.loc 1 1108 4 is_stmt 1 view .LVU902
 2843              		.loc 1 1108 14 is_stmt 0 view .LVU903
 2844 00ee 3A46     		mov	r2, r7
 2845 00f0 CB21     		movs	r1, #203
 2846 00f2 2846     		mov	r0, r5
 2847 00f4 FFF7FEFF 		bl	VL53L0X_WrByte
 2848              	.LVL289:
 2849              		.loc 1 1108 11 view .LVU904
 2850 00f8 2043     		orrs	r0, r0, r4
ARM GAS  /tmp/ccqyZH0w.s 			page 51


 2851 00fa 44B2     		sxtb	r4, r0
 2852              	.LVL290:
 2853              		.loc 1 1109 3 is_stmt 1 view .LVU905
 2854              		.loc 1 1109 6 is_stmt 0 view .LVU906
 2855 00fc B9F1000F 		cmp	r9, #0
 2856 0100 B0D0     		beq	.L229
 2857 0102 D8E7     		b	.L249
 2858              	.LVL291:
 2859              	.L247:
 2860              		.loc 1 1120 1 view .LVU907
 2861 0104 FFF7FEFF 		bl	__stack_chk_fail
 2862              	.LVL292:
 2863              	.L251:
 2864              		.align	2
 2865              	.L250:
 2866 0108 00000000 		.word	.LC16
 2867              		.cfi_endproc
 2868              	.LFE20:
 2869              		.size	VL53L0X_ref_calibration_io, .-VL53L0X_ref_calibration_io
 2870              		.section	.rodata.VL53L0X_perform_vhv_calibration.cst4,"aM",%progbits,4
 2871              		.align	2
 2872              	.LC17:
 2873 0000 00000000 		.word	__stack_chk_guard
 2874              		.section	.text.VL53L0X_perform_vhv_calibration,"ax",%progbits
 2875              		.align	1
 2876              		.p2align 4,,15
 2877              		.global	VL53L0X_perform_vhv_calibration
 2878              		.syntax unified
 2879              		.thumb
 2880              		.thumb_func
 2881              		.fpu fpv4-sp-d16
 2882              		.type	VL53L0X_perform_vhv_calibration, %function
 2883              	VL53L0X_perform_vhv_calibration:
 2884              	.LVL293:
 2885              	.LFB21:
 2886              		.loc 1 1126 1 is_stmt 1 view -0
 2887              		.cfi_startproc
 2888              		@ args = 0, pretend = 0, frame = 8
 2889              		@ frame_needed = 0, uses_anonymous_args = 0
 2890              		.loc 1 1126 1 is_stmt 0 view .LVU909
 2891 0000 2DE9F043 		push	{r4, r5, r6, r7, r8, r9, lr}
 2892              		.cfi_def_cfa_offset 28
 2893              		.cfi_offset 4, -28
 2894              		.cfi_offset 5, -24
 2895              		.cfi_offset 6, -20
 2896              		.cfi_offset 7, -16
 2897              		.cfi_offset 8, -12
 2898              		.cfi_offset 9, -8
 2899              		.cfi_offset 14, -4
 2900 0004 9146     		mov	r9, r2
 2901 0006 87B0     		sub	sp, sp, #28
 2902              		.cfi_def_cfa_offset 56
 2903              		.loc 1 1126 1 view .LVU910
 2904 0008 294A     		ldr	r2, .L271
 2905              	.LVL294:
 2906              		.loc 1 1131 10 view .LVU911
 2907 000a 0024     		movs	r4, #0
ARM GAS  /tmp/ccqyZH0w.s 			page 52


 2908              		.loc 1 1126 1 view .LVU912
 2909 000c 1268     		ldr	r2, [r2]
 2910 000e 0592     		str	r2, [sp, #20]
 2911 0010 4FF00002 		mov	r2,#0
 2912              		.loc 1 1127 2 is_stmt 1 view .LVU913
 2913              	.LVL295:
 2914              		.loc 1 1128 2 view .LVU914
 2915              		.loc 1 1129 2 view .LVU915
 2916              		.loc 1 1130 2 view .LVU916
 2917              		.loc 1 1131 2 view .LVU917
 2918              		.loc 1 1126 1 is_stmt 0 view .LVU918
 2919 0014 0546     		mov	r5, r0
 2920 0016 0F46     		mov	r7, r1
 2921              		.loc 1 1137 5 view .LVU919
 2922 0018 1E46     		mov	r6, r3
 2923              		.loc 1 1131 10 view .LVU920
 2924 001a 8DF81340 		strb	r4, [sp, #19]
 2925              		.loc 1 1137 2 is_stmt 1 view .LVU921
 2926              		.loc 1 1137 5 is_stmt 0 view .LVU922
 2927 001e 9BB1     		cbz	r3, .L260
 2928              		.loc 1 1138 3 is_stmt 1 view .LVU923
 2929              		.loc 1 1141 11 is_stmt 0 view .LVU924
 2930 0020 0122     		movs	r2, #1
 2931              		.loc 1 1138 18 view .LVU925
 2932 0022 90F83081 		ldrb	r8, [r0, #304]	@ zero_extendqisi2
 2933              	.LVL296:
 2934              		.loc 1 1141 2 is_stmt 1 view .LVU926
 2935              		.loc 1 1141 11 is_stmt 0 view .LVU927
 2936 0026 1146     		mov	r1, r2
 2937              	.LVL297:
 2938              		.loc 1 1141 11 view .LVU928
 2939 0028 2846     		mov	r0, r5
 2940              		.loc 1 1141 11 view .LVU929
 2941 002a FFF7FEFF 		bl	VL53L0X_WrByte
 2942              	.LVL298:
 2943              		.loc 1 1143 2 is_stmt 1 view .LVU930
 2944              		.loc 1 1143 5 is_stmt 0 view .LVU931
 2945 002e 0446     		mov	r4, r0
 2946 0030 98B1     		cbz	r0, .L268
 2947              	.L254:
 2948              	.LVL299:
 2949              		.loc 1 1153 3 is_stmt 1 view .LVU932
 2950              		.loc 1 1153 17 is_stmt 0 view .LVU933
 2951 0032 0023     		movs	r3, #0
 2952 0034 3B70     		strb	r3, [r7]
 2953              	.LVL300:
 2954              		.loc 1 1156 2 is_stmt 1 view .LVU934
 2955              	.L258:
 2956              		.loc 1 1165 2 view .LVU935
 2957              		.loc 1 1166 1 is_stmt 0 view .LVU936
 2958 0036 1E4B     		ldr	r3, .L271
 2959 0038 1A68     		ldr	r2, [r3]
 2960 003a 059B     		ldr	r3, [sp, #20]
 2961 003c 5A40     		eors	r2, r3, r2
 2962 003e 34D1     		bne	.L269
 2963 0040 2046     		mov	r0, r4
 2964 0042 07B0     		add	sp, sp, #28
ARM GAS  /tmp/ccqyZH0w.s 			page 53


 2965              		.cfi_remember_state
 2966              		.cfi_def_cfa_offset 28
 2967              		@ sp needed
 2968 0044 BDE8F083 		pop	{r4, r5, r6, r7, r8, r9, pc}
 2969              	.LVL301:
 2970              	.L260:
 2971              		.cfi_restore_state
 2972              		.loc 1 1141 11 view .LVU937
 2973 0048 0122     		movs	r2, #1
 2974 004a 1146     		mov	r1, r2
 2975              	.LVL302:
 2976              		.loc 1 1141 11 view .LVU938
 2977 004c 2846     		mov	r0, r5
 2978              	.LVL303:
 2979              		.loc 1 1128 10 view .LVU939
 2980 004e 9846     		mov	r8, r3
 2981              	.LVL304:
 2982              		.loc 1 1141 2 is_stmt 1 view .LVU940
 2983              		.loc 1 1141 11 is_stmt 0 view .LVU941
 2984 0050 FFF7FEFF 		bl	VL53L0X_WrByte
 2985              	.LVL305:
 2986              		.loc 1 1143 2 is_stmt 1 view .LVU942
 2987              		.loc 1 1143 5 is_stmt 0 view .LVU943
 2988 0054 0446     		mov	r4, r0
 2989 0056 0028     		cmp	r0, #0
 2990 0058 EBD1     		bne	.L254
 2991              	.L268:
 2992              		.loc 1 1144 3 is_stmt 1 view .LVU944
 2993              		.loc 1 1144 12 is_stmt 0 view .LVU945
 2994 005a 4021     		movs	r1, #64
 2995 005c 2846     		mov	r0, r5
 2996              	.LVL306:
 2997              		.loc 1 1144 12 view .LVU946
 2998 005e FFF7FEFF 		bl	VL53L0X_perform_single_ref_calibration
 2999              	.LVL307:
 3000              		.loc 1 1147 2 is_stmt 1 view .LVU947
 3001              		.loc 1 1147 5 is_stmt 0 view .LVU948
 3002 0062 0446     		mov	r4, r0
 3003 0064 0028     		cmp	r0, #0
 3004 0066 E4D1     		bne	.L254
 3005              		.loc 1 1147 37 discriminator 1 view .LVU949
 3006 0068 B9F1010F 		cmp	r9, #1
 3007 006c 0DD0     		beq	.L270
 3008              	.LVL308:
 3009              		.loc 1 1153 3 is_stmt 1 view .LVU950
 3010              		.loc 1 1153 17 is_stmt 0 view .LVU951
 3011 006e 3870     		strb	r0, [r7]
 3012              	.LVL309:
 3013              		.loc 1 1156 2 is_stmt 1 view .LVU952
 3014              	.L256:
 3015              		.loc 1 1156 37 is_stmt 0 discriminator 1 view .LVU953
 3016 0070 002E     		cmp	r6, #0
 3017 0072 E0D0     		beq	.L258
 3018              		.loc 1 1158 3 is_stmt 1 view .LVU954
 3019              		.loc 1 1158 12 is_stmt 0 view .LVU955
 3020 0074 4246     		mov	r2, r8
 3021 0076 0121     		movs	r1, #1
ARM GAS  /tmp/ccqyZH0w.s 			page 54


 3022 0078 2846     		mov	r0, r5
 3023 007a FFF7FEFF 		bl	VL53L0X_WrByte
 3024              	.LVL310:
 3025              		.loc 1 1160 3 is_stmt 1 view .LVU956
 3026              		.loc 1 1160 6 is_stmt 0 view .LVU957
 3027 007e 0446     		mov	r4, r0
 3028 0080 0028     		cmp	r0, #0
 3029 0082 D8D1     		bne	.L258
 3030              		.loc 1 1161 4 is_stmt 1 view .LVU958
 3031 0084 85F83081 		strb	r8, [r5, #304]
 3032 0088 D5E7     		b	.L258
 3033              	.L270:
 3034              		.loc 1 1148 3 view .LVU959
 3035              		.loc 1 1148 12 is_stmt 0 view .LVU960
 3036 008a 0DF11303 		add	r3, sp, #19
 3037 008e CDE90290 		strd	r9, r0, [sp, #8]
 3038 0092 0193     		str	r3, [sp, #4]
 3039 0094 0246     		mov	r2, r0
 3040 0096 0346     		mov	r3, r0
 3041 0098 0097     		str	r7, [sp]
 3042 009a 4946     		mov	r1, r9
 3043 009c 2846     		mov	r0, r5
 3044              	.LVL311:
 3045              		.loc 1 1148 12 view .LVU961
 3046 009e FFF7FEFF 		bl	VL53L0X_ref_calibration_io
 3047              	.LVL312:
 3048              		.loc 1 1156 2 is_stmt 1 view .LVU962
 3049              		.loc 1 1156 5 is_stmt 0 view .LVU963
 3050 00a2 0028     		cmp	r0, #0
 3051 00a4 E4D0     		beq	.L256
 3052              		.loc 1 1148 12 view .LVU964
 3053 00a6 0446     		mov	r4, r0
 3054 00a8 C5E7     		b	.L258
 3055              	.LVL313:
 3056              	.L269:
 3057              		.loc 1 1166 1 view .LVU965
 3058 00aa FFF7FEFF 		bl	__stack_chk_fail
 3059              	.LVL314:
 3060              	.L272:
 3061 00ae 00BF     		.align	2
 3062              	.L271:
 3063 00b0 00000000 		.word	.LC17
 3064              		.cfi_endproc
 3065              	.LFE21:
 3066              		.size	VL53L0X_perform_vhv_calibration, .-VL53L0X_perform_vhv_calibration
 3067              		.section	.rodata.VL53L0X_perform_phase_calibration.cst4,"aM",%progbits,4
 3068              		.align	2
 3069              	.LC18:
 3070 0000 00000000 		.word	__stack_chk_guard
 3071              		.section	.text.VL53L0X_perform_phase_calibration,"ax",%progbits
 3072              		.align	1
 3073              		.p2align 4,,15
 3074              		.global	VL53L0X_perform_phase_calibration
 3075              		.syntax unified
 3076              		.thumb
 3077              		.thumb_func
 3078              		.fpu fpv4-sp-d16
ARM GAS  /tmp/ccqyZH0w.s 			page 55


 3079              		.type	VL53L0X_perform_phase_calibration, %function
 3080              	VL53L0X_perform_phase_calibration:
 3081              	.LVL315:
 3082              	.LFB22:
 3083              		.loc 1 1171 1 is_stmt 1 view -0
 3084              		.cfi_startproc
 3085              		@ args = 0, pretend = 0, frame = 8
 3086              		@ frame_needed = 0, uses_anonymous_args = 0
 3087              		.loc 1 1171 1 is_stmt 0 view .LVU967
 3088 0000 2DE9F043 		push	{r4, r5, r6, r7, r8, r9, lr}
 3089              		.cfi_def_cfa_offset 28
 3090              		.cfi_offset 4, -28
 3091              		.cfi_offset 5, -24
 3092              		.cfi_offset 6, -20
 3093              		.cfi_offset 7, -16
 3094              		.cfi_offset 8, -12
 3095              		.cfi_offset 9, -8
 3096              		.cfi_offset 14, -4
 3097 0004 9146     		mov	r9, r2
 3098 0006 254A     		ldr	r2, .L292
 3099              	.LVL316:
 3100              		.loc 1 1171 1 view .LVU968
 3101 0008 87B0     		sub	sp, sp, #28
 3102              		.cfi_def_cfa_offset 56
 3103              		.loc 1 1171 1 view .LVU969
 3104 000a 0546     		mov	r5, r0
 3105 000c 0F46     		mov	r7, r1
 3106 000e 1268     		ldr	r2, [r2]
 3107 0010 0592     		str	r2, [sp, #20]
 3108 0012 4FF00002 		mov	r2,#0
 3109              		.loc 1 1172 2 is_stmt 1 view .LVU970
 3110              	.LVL317:
 3111              		.loc 1 1173 2 view .LVU971
 3112              		.loc 1 1174 2 view .LVU972
 3113              		.loc 1 1175 2 view .LVU973
 3114              		.loc 1 1176 2 view .LVU974
 3115              		.loc 1 1182 2 view .LVU975
 3116              		.loc 1 1182 5 is_stmt 0 view .LVU976
 3117 0016 1E46     		mov	r6, r3
 3118 0018 9BB1     		cbz	r3, .L281
 3119              		.loc 1 1183 3 is_stmt 1 view .LVU977
 3120              		.loc 1 1183 18 is_stmt 0 view .LVU978
 3121 001a 90F83081 		ldrb	r8, [r0, #304]	@ zero_extendqisi2
 3122              	.LVL318:
 3123              	.L274:
 3124              		.loc 1 1186 2 is_stmt 1 view .LVU979
 3125              		.loc 1 1186 11 is_stmt 0 view .LVU980
 3126 001e 0222     		movs	r2, #2
 3127 0020 0121     		movs	r1, #1
 3128              	.LVL319:
 3129              		.loc 1 1186 11 view .LVU981
 3130 0022 2846     		mov	r0, r5
 3131              	.LVL320:
 3132              		.loc 1 1186 11 view .LVU982
 3133 0024 FFF7FEFF 		bl	VL53L0X_WrByte
 3134              	.LVL321:
 3135              		.loc 1 1188 2 is_stmt 1 view .LVU983
ARM GAS  /tmp/ccqyZH0w.s 			page 56


 3136              		.loc 1 1188 5 is_stmt 0 view .LVU984
 3137 0028 0446     		mov	r4, r0
 3138 002a 60B1     		cbz	r0, .L289
 3139              	.L275:
 3140              	.LVL322:
 3141              		.loc 1 1198 3 is_stmt 1 view .LVU985
 3142              		.loc 1 1198 14 is_stmt 0 view .LVU986
 3143 002c 0023     		movs	r3, #0
 3144 002e 3B70     		strb	r3, [r7]
 3145              	.LVL323:
 3146              		.loc 1 1201 2 is_stmt 1 view .LVU987
 3147              	.L279:
 3148              		.loc 1 1210 2 view .LVU988
 3149              		.loc 1 1211 1 is_stmt 0 view .LVU989
 3150 0030 1A4B     		ldr	r3, .L292
 3151 0032 1A68     		ldr	r2, [r3]
 3152 0034 059B     		ldr	r3, [sp, #20]
 3153 0036 5A40     		eors	r2, r3, r2
 3154 0038 2DD1     		bne	.L290
 3155 003a 2046     		mov	r0, r4
 3156 003c 07B0     		add	sp, sp, #28
 3157              		.cfi_remember_state
 3158              		.cfi_def_cfa_offset 28
 3159              		@ sp needed
 3160 003e BDE8F083 		pop	{r4, r5, r6, r7, r8, r9, pc}
 3161              	.LVL324:
 3162              	.L281:
 3163              		.cfi_restore_state
 3164              		.loc 1 1173 10 view .LVU990
 3165 0042 9846     		mov	r8, r3
 3166 0044 EBE7     		b	.L274
 3167              	.LVL325:
 3168              	.L289:
 3169              		.loc 1 1189 3 is_stmt 1 view .LVU991
 3170              		.loc 1 1189 12 is_stmt 0 view .LVU992
 3171 0046 0146     		mov	r1, r0
 3172 0048 2846     		mov	r0, r5
 3173              	.LVL326:
 3174              		.loc 1 1189 12 view .LVU993
 3175 004a FFF7FEFF 		bl	VL53L0X_perform_single_ref_calibration
 3176              	.LVL327:
 3177              		.loc 1 1192 2 is_stmt 1 view .LVU994
 3178              		.loc 1 1192 5 is_stmt 0 view .LVU995
 3179 004e 0446     		mov	r4, r0
 3180 0050 0028     		cmp	r0, #0
 3181 0052 EBD1     		bne	.L275
 3182              		.loc 1 1192 37 discriminator 1 view .LVU996
 3183 0054 B9F1010F 		cmp	r9, #1
 3184 0058 0DD0     		beq	.L291
 3185              	.LVL328:
 3186              		.loc 1 1198 3 is_stmt 1 view .LVU997
 3187              		.loc 1 1198 14 is_stmt 0 view .LVU998
 3188 005a 3870     		strb	r0, [r7]
 3189              	.LVL329:
 3190              		.loc 1 1201 2 is_stmt 1 view .LVU999
 3191              	.L277:
 3192              		.loc 1 1201 37 is_stmt 0 discriminator 1 view .LVU1000
ARM GAS  /tmp/ccqyZH0w.s 			page 57


 3193 005c 002E     		cmp	r6, #0
 3194 005e E7D0     		beq	.L279
 3195              		.loc 1 1203 3 is_stmt 1 view .LVU1001
 3196              		.loc 1 1203 12 is_stmt 0 view .LVU1002
 3197 0060 4246     		mov	r2, r8
 3198 0062 0121     		movs	r1, #1
 3199 0064 2846     		mov	r0, r5
 3200 0066 FFF7FEFF 		bl	VL53L0X_WrByte
 3201              	.LVL330:
 3202              		.loc 1 1205 3 is_stmt 1 view .LVU1003
 3203              		.loc 1 1205 6 is_stmt 0 view .LVU1004
 3204 006a 0446     		mov	r4, r0
 3205 006c 0028     		cmp	r0, #0
 3206 006e DFD1     		bne	.L279
 3207              		.loc 1 1206 4 is_stmt 1 view .LVU1005
 3208 0070 85F83081 		strb	r8, [r5, #304]
 3209 0074 DCE7     		b	.L279
 3210              	.L291:
 3211              		.loc 1 1193 3 view .LVU1006
 3212              		.loc 1 1193 12 is_stmt 0 view .LVU1007
 3213 0076 0DF11303 		add	r3, sp, #19
 3214 007a CDE90209 		strd	r0, r9, [sp, #8]
 3215 007e 0093     		str	r3, [sp]
 3216 0080 0246     		mov	r2, r0
 3217 0082 0346     		mov	r3, r0
 3218 0084 0197     		str	r7, [sp, #4]
 3219 0086 4946     		mov	r1, r9
 3220 0088 2846     		mov	r0, r5
 3221              	.LVL331:
 3222              		.loc 1 1193 12 view .LVU1008
 3223 008a FFF7FEFF 		bl	VL53L0X_ref_calibration_io
 3224              	.LVL332:
 3225              		.loc 1 1201 2 is_stmt 1 view .LVU1009
 3226              		.loc 1 1201 5 is_stmt 0 view .LVU1010
 3227 008e 0028     		cmp	r0, #0
 3228 0090 E4D0     		beq	.L277
 3229              		.loc 1 1193 12 view .LVU1011
 3230 0092 0446     		mov	r4, r0
 3231 0094 CCE7     		b	.L279
 3232              	.LVL333:
 3233              	.L290:
 3234              		.loc 1 1211 1 view .LVU1012
 3235 0096 FFF7FEFF 		bl	__stack_chk_fail
 3236              	.LVL334:
 3237              	.L293:
 3238 009a 00BF     		.align	2
 3239              	.L292:
 3240 009c 00000000 		.word	.LC18
 3241              		.cfi_endproc
 3242              	.LFE22:
 3243              		.size	VL53L0X_perform_phase_calibration, .-VL53L0X_perform_phase_calibration
 3244              		.section	.rodata.VL53L0X_perform_ref_calibration.cst4,"aM",%progbits,4
 3245              		.align	2
 3246              	.LC19:
 3247 0000 00000000 		.word	__stack_chk_guard
 3248              		.section	.text.VL53L0X_perform_ref_calibration,"ax",%progbits
 3249              		.align	1
ARM GAS  /tmp/ccqyZH0w.s 			page 58


 3250              		.p2align 4,,15
 3251              		.global	VL53L0X_perform_ref_calibration
 3252              		.syntax unified
 3253              		.thumb
 3254              		.thumb_func
 3255              		.fpu fpv4-sp-d16
 3256              		.type	VL53L0X_perform_ref_calibration, %function
 3257              	VL53L0X_perform_ref_calibration:
 3258              	.LVL335:
 3259              	.LFB23:
 3260              		.loc 1 1215 1 is_stmt 1 view -0
 3261              		.cfi_startproc
 3262              		@ args = 0, pretend = 0, frame = 8
 3263              		@ frame_needed = 0, uses_anonymous_args = 0
 3264              		.loc 1 1215 1 is_stmt 0 view .LVU1014
 3265 0000 F0B5     		push	{r4, r5, r6, r7, lr}
 3266              		.cfi_def_cfa_offset 20
 3267              		.cfi_offset 4, -20
 3268              		.cfi_offset 5, -16
 3269              		.cfi_offset 6, -12
 3270              		.cfi_offset 7, -8
 3271              		.cfi_offset 14, -4
 3272 0002 154F     		ldr	r7, .L300
 3273 0004 1D46     		mov	r5, r3
 3274 0006 83B0     		sub	sp, sp, #12
 3275              		.cfi_def_cfa_offset 32
 3276              		.loc 1 1215 1 view .LVU1015
 3277 0008 1646     		mov	r6, r2
 3278              		.loc 1 1227 11 view .LVU1016
 3279 000a 0023     		movs	r3, #0
 3280              	.LVL336:
 3281              		.loc 1 1227 11 view .LVU1017
 3282 000c 2A46     		mov	r2, r5
 3283              	.LVL337:
 3284              		.loc 1 1215 1 view .LVU1018
 3285 000e 3F68     		ldr	r7, [r7]
 3286 0010 0197     		str	r7, [sp, #4]
 3287 0012 4FF00007 		mov	r7,#0
 3288              		.loc 1 1216 2 is_stmt 1 view .LVU1019
 3289              	.LVL338:
 3290              		.loc 1 1217 2 view .LVU1020
 3291              		.loc 1 1223 2 view .LVU1021
 3292              		.loc 1 1215 1 is_stmt 0 view .LVU1022
 3293 0016 0446     		mov	r4, r0
 3294              		.loc 1 1223 17 view .LVU1023
 3295 0018 90F83071 		ldrb	r7, [r0, #304]	@ zero_extendqisi2
 3296              	.LVL339:
 3297              		.loc 1 1227 2 is_stmt 1 view .LVU1024
 3298              		.loc 1 1227 11 is_stmt 0 view .LVU1025
 3299 001c FFF7FEFF 		bl	VL53L0X_perform_vhv_calibration
 3300              	.LVL340:
 3301              		.loc 1 1231 2 is_stmt 1 view .LVU1026
 3302              		.loc 1 1231 5 is_stmt 0 view .LVU1027
 3303 0020 30B1     		cbz	r0, .L298
 3304              	.L295:
 3305              		.loc 1 1245 2 is_stmt 1 view .LVU1028
 3306              		.loc 1 1246 1 is_stmt 0 view .LVU1029
ARM GAS  /tmp/ccqyZH0w.s 			page 59


 3307 0022 0D4B     		ldr	r3, .L300
 3308 0024 1A68     		ldr	r2, [r3]
 3309 0026 019B     		ldr	r3, [sp, #4]
 3310 0028 5A40     		eors	r2, r3, r2
 3311 002a 13D1     		bne	.L299
 3312              		.loc 1 1246 1 view .LVU1030
 3313 002c 03B0     		add	sp, sp, #12
 3314              		.cfi_remember_state
 3315              		.cfi_def_cfa_offset 20
 3316              		@ sp needed
 3317 002e F0BD     		pop	{r4, r5, r6, r7, pc}
 3318              	.LVL341:
 3319              	.L298:
 3320              		.cfi_restore_state
 3321              		.loc 1 1232 3 is_stmt 1 view .LVU1031
 3322              		.loc 1 1232 12 is_stmt 0 view .LVU1032
 3323 0030 0346     		mov	r3, r0
 3324 0032 2A46     		mov	r2, r5
 3325 0034 3146     		mov	r1, r6
 3326 0036 2046     		mov	r0, r4
 3327              	.LVL342:
 3328              		.loc 1 1232 12 view .LVU1033
 3329 0038 FFF7FEFF 		bl	VL53L0X_perform_phase_calibration
 3330              	.LVL343:
 3331              		.loc 1 1236 2 is_stmt 1 view .LVU1034
 3332              		.loc 1 1236 5 is_stmt 0 view .LVU1035
 3333 003c 0028     		cmp	r0, #0
 3334 003e F0D1     		bne	.L295
 3335              		.loc 1 1238 3 is_stmt 1 view .LVU1036
 3336              		.loc 1 1238 12 is_stmt 0 view .LVU1037
 3337 0040 3A46     		mov	r2, r7
 3338 0042 0121     		movs	r1, #1
 3339 0044 2046     		mov	r0, r4
 3340              	.LVL344:
 3341              		.loc 1 1238 12 view .LVU1038
 3342 0046 FFF7FEFF 		bl	VL53L0X_WrByte
 3343              	.LVL345:
 3344              		.loc 1 1240 3 is_stmt 1 view .LVU1039
 3345              		.loc 1 1240 6 is_stmt 0 view .LVU1040
 3346 004a 0028     		cmp	r0, #0
 3347 004c E9D1     		bne	.L295
 3348              		.loc 1 1241 4 is_stmt 1 view .LVU1041
 3349 004e 84F83071 		strb	r7, [r4, #304]
 3350 0052 E6E7     		b	.L295
 3351              	.L299:
 3352              		.loc 1 1246 1 is_stmt 0 view .LVU1042
 3353 0054 FFF7FEFF 		bl	__stack_chk_fail
 3354              	.LVL346:
 3355              	.L301:
 3356              		.loc 1 1246 1 view .LVU1043
 3357              		.align	2
 3358              	.L300:
 3359 0058 00000000 		.word	.LC19
 3360              		.cfi_endproc
 3361              	.LFE23:
 3362              		.size	VL53L0X_perform_ref_calibration, .-VL53L0X_perform_ref_calibration
 3363              		.section	.rodata.VL53L0X_perform_ref_spad_management.cst4,"aM",%progbits,4
ARM GAS  /tmp/ccqyZH0w.s 			page 60


 3364              		.align	2
 3365              	.LC20:
 3366 0000 00000000 		.word	__stack_chk_guard
 3367              		.section	.text.VL53L0X_perform_ref_spad_management,"ax",%progbits
 3368              		.align	1
 3369              		.p2align 4,,15
 3370              		.global	VL53L0X_perform_ref_spad_management
 3371              		.syntax unified
 3372              		.thumb
 3373              		.thumb_func
 3374              		.fpu fpv4-sp-d16
 3375              		.type	VL53L0X_perform_ref_spad_management, %function
 3376              	VL53L0X_perform_ref_spad_management:
 3377              	.LVL347:
 3378              	.LFB16:
 3379              		.loc 1 679 1 is_stmt 1 view -0
 3380              		.cfi_startproc
 3381              		@ args = 0, pretend = 0, frame = 48
 3382              		@ frame_needed = 0, uses_anonymous_args = 0
 3383              		.loc 1 679 1 is_stmt 0 view .LVU1045
 3384 0000 2DE9F04F 		push	{r4, r5, r6, r7, r8, r9, r10, fp, lr}
 3385              		.cfi_def_cfa_offset 36
 3386              		.cfi_offset 4, -36
 3387              		.cfi_offset 5, -32
 3388              		.cfi_offset 6, -28
 3389              		.cfi_offset 7, -24
 3390              		.cfi_offset 8, -20
 3391              		.cfi_offset 9, -16
 3392              		.cfi_offset 10, -12
 3393              		.cfi_offset 11, -8
 3394              		.cfi_offset 14, -4
 3395 0004 0D46     		mov	r5, r1
 3396 0006 93B0     		sub	sp, sp, #76
 3397              		.cfi_def_cfa_offset 112
 3398              		.loc 1 679 1 view .LVU1046
 3399 0008 1446     		mov	r4, r2
 3400 000a CDE90854 		strd	r5, r4, [sp, #32]
 3401              		.loc 1 686 11 view .LVU1047
 3402 000e 0023     		movs	r3, #0
 3403              		.loc 1 679 1 view .LVU1048
 3404 0010 A24C     		ldr	r4, .L328
 3405              		.loc 1 735 44 view .LVU1049
 3406 0012 C0F82431 		str	r3, [r0, #292]
 3407 0016 A0F82831 		strh	r3, [r0, #296]	@ movhi
 3408              		.loc 1 738 11 view .LVU1050
 3409 001a 0122     		movs	r2, #1
 3410              	.LVL348:
 3411              		.loc 1 738 11 view .LVU1051
 3412 001c FF21     		movs	r1, #255
 3413              	.LVL349:
 3414              		.loc 1 679 1 view .LVU1052
 3415 001e 2468     		ldr	r4, [r4]
 3416 0020 1194     		str	r4, [sp, #68]
 3417 0022 4FF00004 		mov	r4,#0
 3418              		.loc 1 680 2 is_stmt 1 view .LVU1053
 3419              	.LVL350:
 3420              		.loc 1 681 2 view .LVU1054
ARM GAS  /tmp/ccqyZH0w.s 			page 61


 3421              		.loc 1 682 2 view .LVU1055
 3422              		.loc 1 683 2 view .LVU1056
 3423              		.loc 1 684 2 view .LVU1057
 3424              		.loc 1 685 2 view .LVU1058
 3425              		.loc 1 686 2 view .LVU1059
 3426              		.loc 1 724 16 is_stmt 0 view .LVU1060
 3427 0026 B0F83C81 		ldrh	r8, [r0, #316]
 3428              		.loc 1 696 10 view .LVU1061
 3429 002a 8DF83030 		strb	r3, [sp, #48]
 3430              		.loc 1 687 10 view .LVU1062
 3431 002e CDE90D33 		strd	r3, r3, [sp, #52]
 3432              		.loc 1 688 2 is_stmt 1 view .LVU1063
 3433              	.LVL351:
 3434              		.loc 1 689 2 view .LVU1064
 3435              		.loc 1 690 2 view .LVU1065
 3436              		.loc 1 691 2 view .LVU1066
 3437              		.loc 1 692 2 view .LVU1067
 3438              		.loc 1 693 2 view .LVU1068
 3439              		.loc 1 694 2 view .LVU1069
 3440              		.loc 1 695 2 view .LVU1070
 3441              		.loc 1 696 2 view .LVU1071
 3442              		.loc 1 697 2 view .LVU1072
 3443              		.loc 1 679 1 is_stmt 0 view .LVU1073
 3444 0032 0646     		mov	r6, r0
 3445              		.loc 1 697 10 view .LVU1074
 3446 0034 8DF83130 		strb	r3, [sp, #49]
 3447              		.loc 1 698 2 is_stmt 1 view .LVU1075
 3448              	.LVL352:
 3449              		.loc 1 699 2 view .LVU1076
 3450              		.loc 1 724 2 view .LVU1077
 3451              		.loc 1 734 2 view .LVU1078
 3452              		.loc 1 734 18 view .LVU1079
 3453              		.loc 1 735 3 view .LVU1080
 3454              		.loc 1 734 41 view .LVU1081
 3455              		.loc 1 734 18 view .LVU1082
 3456              		.loc 1 735 3 view .LVU1083
 3457              		.loc 1 734 41 view .LVU1084
 3458              		.loc 1 734 18 view .LVU1085
 3459              		.loc 1 735 3 view .LVU1086
 3460              		.loc 1 734 41 view .LVU1087
 3461              		.loc 1 734 18 view .LVU1088
 3462              		.loc 1 735 3 view .LVU1089
 3463              		.loc 1 734 41 view .LVU1090
 3464              		.loc 1 734 18 view .LVU1091
 3465              		.loc 1 735 3 view .LVU1092
 3466              		.loc 1 734 41 view .LVU1093
 3467              		.loc 1 734 18 view .LVU1094
 3468              		.loc 1 735 3 view .LVU1095
 3469              		.loc 1 734 41 view .LVU1096
 3470              		.loc 1 734 18 view .LVU1097
 3471              		.loc 1 738 2 view .LVU1098
 3472              		.loc 1 738 11 is_stmt 0 view .LVU1099
 3473 0038 FFF7FEFF 		bl	VL53L0X_WrByte
 3474              	.LVL353:
 3475              		.loc 1 740 2 is_stmt 1 view .LVU1100
 3476              		.loc 1 740 5 is_stmt 0 view .LVU1101
 3477 003c 0546     		mov	r5, r0
ARM GAS  /tmp/ccqyZH0w.s 			page 62


 3478              	.LVL354:
 3479              		.loc 1 740 5 view .LVU1102
 3480 003e 48B1     		cbz	r0, .L324
 3481              	.LVL355:
 3482              	.L303:
 3483              		.loc 1 940 2 is_stmt 1 view .LVU1103
 3484              		.loc 1 941 1 is_stmt 0 view .LVU1104
 3485 0040 964B     		ldr	r3, .L328
 3486 0042 1A68     		ldr	r2, [r3]
 3487 0044 119B     		ldr	r3, [sp, #68]
 3488 0046 5A40     		eors	r2, r3, r2
 3489 0048 40F02681 		bne	.L325
 3490 004c 2846     		mov	r0, r5
 3491 004e 13B0     		add	sp, sp, #76
 3492              		.cfi_remember_state
 3493              		.cfi_def_cfa_offset 36
 3494              		@ sp needed
 3495 0050 BDE8F08F 		pop	{r4, r5, r6, r7, r8, r9, r10, fp, pc}
 3496              	.LVL356:
 3497              	.L324:
 3498              		.cfi_restore_state
 3499              		.loc 1 741 3 is_stmt 1 view .LVU1105
 3500              		.loc 1 741 12 is_stmt 0 view .LVU1106
 3501 0054 0246     		mov	r2, r0
 3502 0056 4F21     		movs	r1, #79
 3503 0058 3046     		mov	r0, r6
 3504              	.LVL357:
 3505              		.loc 1 741 12 view .LVU1107
 3506 005a FFF7FEFF 		bl	VL53L0X_WrByte
 3507              	.LVL358:
 3508              		.loc 1 744 2 is_stmt 1 view .LVU1108
 3509              		.loc 1 744 5 is_stmt 0 view .LVU1109
 3510 005e 0546     		mov	r5, r0
 3511 0060 0028     		cmp	r0, #0
 3512 0062 EDD1     		bne	.L303
 3513              		.loc 1 745 3 is_stmt 1 view .LVU1110
 3514              		.loc 1 745 12 is_stmt 0 view .LVU1111
 3515 0064 2C22     		movs	r2, #44
 3516 0066 4E21     		movs	r1, #78
 3517 0068 3046     		mov	r0, r6
 3518              	.LVL359:
 3519              		.loc 1 745 12 view .LVU1112
 3520 006a FFF7FEFF 		bl	VL53L0X_WrByte
 3521              	.LVL360:
 3522              		.loc 1 748 2 is_stmt 1 view .LVU1113
 3523              		.loc 1 748 5 is_stmt 0 view .LVU1114
 3524 006e 0546     		mov	r5, r0
 3525 0070 0028     		cmp	r0, #0
 3526 0072 E5D1     		bne	.L303
 3527              		.loc 1 749 3 is_stmt 1 view .LVU1115
 3528              		.loc 1 749 12 is_stmt 0 view .LVU1116
 3529 0074 0246     		mov	r2, r0
 3530 0076 FF21     		movs	r1, #255
 3531 0078 3046     		mov	r0, r6
 3532              	.LVL361:
 3533              		.loc 1 749 12 view .LVU1117
 3534 007a FFF7FEFF 		bl	VL53L0X_WrByte
ARM GAS  /tmp/ccqyZH0w.s 			page 63


 3535              	.LVL362:
 3536              		.loc 1 751 2 is_stmt 1 view .LVU1118
 3537              		.loc 1 751 5 is_stmt 0 view .LVU1119
 3538 007e 0546     		mov	r5, r0
 3539 0080 0028     		cmp	r0, #0
 3540 0082 DDD1     		bne	.L303
 3541              		.loc 1 752 3 is_stmt 1 view .LVU1120
 3542              		.loc 1 752 12 is_stmt 0 view .LVU1121
 3543 0084 B422     		movs	r2, #180
 3544 0086 B621     		movs	r1, #182
 3545 0088 3046     		mov	r0, r6
 3546              	.LVL363:
 3547              		.loc 1 752 12 view .LVU1122
 3548 008a FFF7FEFF 		bl	VL53L0X_WrByte
 3549              	.LVL364:
 3550              		.loc 1 757 2 is_stmt 1 view .LVU1123
 3551              		.loc 1 757 5 is_stmt 0 view .LVU1124
 3552 008e 0546     		mov	r5, r0
 3553 0090 0028     		cmp	r0, #0
 3554 0092 D5D1     		bne	.L303
 3555              		.loc 1 758 3 is_stmt 1 view .LVU1125
 3556              		.loc 1 758 12 is_stmt 0 view .LVU1126
 3557 0094 0246     		mov	r2, r0
 3558 0096 8021     		movs	r1, #128
 3559 0098 3046     		mov	r0, r6
 3560              	.LVL365:
 3561              		.loc 1 758 12 view .LVU1127
 3562 009a FFF7FEFF 		bl	VL53L0X_WrByte
 3563              	.LVL366:
 3564              		.loc 1 762 2 is_stmt 1 view .LVU1128
 3565              		.loc 1 762 5 is_stmt 0 view .LVU1129
 3566 009e 0546     		mov	r5, r0
 3567 00a0 0028     		cmp	r0, #0
 3568 00a2 CDD1     		bne	.L303
 3569              		.loc 1 763 3 is_stmt 1 view .LVU1130
 3570              		.loc 1 763 12 is_stmt 0 view .LVU1131
 3571 00a4 0346     		mov	r3, r0
 3572 00a6 0DF13102 		add	r2, sp, #49
 3573 00aa 0CA9     		add	r1, sp, #48
 3574 00ac 3046     		mov	r0, r6
 3575              	.LVL367:
 3576              		.loc 1 763 12 view .LVU1132
 3577 00ae FFF7FEFF 		bl	VL53L0X_perform_ref_calibration
 3578              	.LVL368:
 3579              		.loc 1 766 2 is_stmt 1 view .LVU1133
 3580              		.loc 1 766 5 is_stmt 0 view .LVU1134
 3581 00b2 0546     		mov	r5, r0
 3582 00b4 0028     		cmp	r0, #0
 3583 00b6 C3D1     		bne	.L303
 3584              		.loc 1 768 3 is_stmt 1 view .LVU1135
 3585              		.loc 1 769 3 view .LVU1136
 3586              		.loc 1 771 12 is_stmt 0 view .LVU1137
 3587 00b8 0323     		movs	r3, #3
 3588 00ba 0DAC     		add	r4, sp, #52
 3589 00bc CDE90334 		strd	r3, r4, [sp, #12]
 3590 00c0 B420     		movs	r0, #180
 3591              	.LVL369:
ARM GAS  /tmp/ccqyZH0w.s 			page 64


 3592              		.loc 1 771 12 view .LVU1138
 3593 00c2 0623     		movs	r3, #6
 3594              		.loc 1 773 24 view .LVU1139
 3595 00c4 06F5957B 		add	fp, r6, #298
 3596              		.loc 1 774 24 view .LVU1140
 3597 00c8 06F59277 		add	r7, r6, #292
 3598              		.loc 1 771 12 view .LVU1141
 3599 00cc CDE90030 		strd	r3, r0, [sp]
 3600 00d0 0295     		str	r5, [sp, #8]
 3601 00d2 2946     		mov	r1, r5
 3602 00d4 5A46     		mov	r2, fp
 3603 00d6 3B46     		mov	r3, r7
 3604 00d8 3046     		mov	r0, r6
 3605              		.loc 1 769 17 view .LVU1142
 3606 00da 0D95     		str	r5, [sp, #52]
 3607              		.loc 1 770 3 is_stmt 1 view .LVU1143
 3608              		.loc 1 771 3 view .LVU1144
 3609              		.loc 1 771 12 is_stmt 0 view .LVU1145
 3610 00dc FFF7FEFF 		bl	enable_ref_spads
 3611              	.LVL370:
 3612              		.loc 1 782 2 is_stmt 1 view .LVU1146
 3613              		.loc 1 782 5 is_stmt 0 view .LVU1147
 3614 00e0 0546     		mov	r5, r0
 3615 00e2 0028     		cmp	r0, #0
 3616 00e4 ACD1     		bne	.L303
 3617              		.loc 1 783 3 is_stmt 1 view .LVU1148
 3618              		.loc 1 783 20 is_stmt 0 view .LVU1149
 3619 00e6 0D9A     		ldr	r2, [sp, #52]
 3620 00e8 0792     		str	r2, [sp, #28]
 3621              	.LVL371:
 3622              		.loc 1 785 3 is_stmt 1 view .LVU1150
 3623              		.loc 1 785 12 is_stmt 0 view .LVU1151
 3624 00ea 0DF13201 		add	r1, sp, #50
 3625 00ee 3046     		mov	r0, r6
 3626              	.LVL372:
 3627              		.loc 1 785 12 view .LVU1152
 3628 00f0 FFF7FEFF 		bl	perform_ref_signal_measurement
 3629              	.LVL373:
 3630              		.loc 1 787 3 is_stmt 1 view .LVU1153
 3631              		.loc 1 787 6 is_stmt 0 view .LVU1154
 3632 00f4 0546     		mov	r5, r0
 3633 00f6 0028     		cmp	r0, #0
 3634 00f8 A2D1     		bne	.L303
 3635              		.loc 1 788 23 discriminator 1 view .LVU1155
 3636 00fa BDF83230 		ldrh	r3, [sp, #50]
 3637              		.loc 1 787 38 discriminator 1 view .LVU1156
 3638 00fe 079A     		ldr	r2, [sp, #28]
 3639 0100 4345     		cmp	r3, r8
 3640 0102 2AD9     		bls	.L311
 3641              	.LVL374:
 3642              		.loc 1 792 20 is_stmt 1 view .LVU1157
 3643              		.loc 1 793 5 view .LVU1158
 3644              		.loc 1 792 43 view .LVU1159
 3645              		.loc 1 792 20 view .LVU1160
 3646              		.loc 1 793 5 view .LVU1161
 3647              		.loc 1 792 43 view .LVU1162
 3648              		.loc 1 792 20 view .LVU1163
ARM GAS  /tmp/ccqyZH0w.s 			page 65


 3649              		.loc 1 793 5 view .LVU1164
 3650              		.loc 1 792 43 view .LVU1165
 3651              		.loc 1 792 20 view .LVU1166
 3652              		.loc 1 793 5 view .LVU1167
 3653              		.loc 1 792 43 view .LVU1168
 3654              		.loc 1 792 20 view .LVU1169
 3655              		.loc 1 793 5 view .LVU1170
 3656              		.loc 1 792 43 view .LVU1171
 3657              		.loc 1 792 20 view .LVU1172
 3658              		.loc 1 793 5 view .LVU1173
 3659              		.loc 1 797 12 is_stmt 0 view .LVU1174
 3660 0104 02F1B403 		add	r3, r2, #180
 3661              	.LBB52:
 3662              	.LBB53:
 3663              		.loc 1 455 11 view .LVU1175
 3664 0108 9B09     		lsrs	r3, r3, #6
 3665              		.loc 1 456 23 view .LVU1176
 3666 010a 6549     		ldr	r1, .L328+4
 3667              		.loc 1 456 5 view .LVU1177
 3668 010c 51F82300 		ldr	r0, [r1, r3, lsl #2]
 3669              	.LVL375:
 3670              		.loc 1 456 5 view .LVU1178
 3671              	.LBE53:
 3672              	.LBE52:
 3673              		.loc 1 793 46 view .LVU1179
 3674 0110 0023     		movs	r3, #0
 3675 0112 C6F82431 		str	r3, [r6, #292]
 3676 0116 A6F82831 		strh	r3, [r6, #296]	@ movhi
 3677              		.loc 1 792 43 is_stmt 1 view .LVU1180
 3678              	.LVL376:
 3679              		.loc 1 792 20 view .LVU1181
 3680              		.loc 1 797 10 view .LVU1182
 3681              	.LBB57:
 3682              	.LBI52:
 3683              		.loc 1 447 9 view .LVU1183
 3684              	.LBB54:
 3685              		.loc 1 453 2 view .LVU1184
 3686              		.loc 1 454 2 view .LVU1185
 3687              		.loc 1 455 2 view .LVU1186
 3688              		.loc 1 456 2 view .LVU1187
 3689              		.loc 1 456 5 is_stmt 0 view .LVU1188
 3690 011a 50B9     		cbnz	r0, .L305
 3691              		.loc 1 457 3 is_stmt 1 view .LVU1189
 3692              	.LVL377:
 3693              		.loc 1 459 2 view .LVU1190
 3694              		.loc 1 459 2 is_stmt 0 view .LVU1191
 3695              	.LBE54:
 3696              	.LBE57:
 3697              		.loc 1 798 11 view .LVU1192
 3698 011c 2B2A     		cmp	r2, #43
 3699 011e 08D8     		bhi	.L305
 3700              	.L306:
 3701              		.loc 1 799 5 is_stmt 1 view .LVU1193
 3702 0120 1346     		mov	r3, r2
 3703              	.LBB58:
 3704              	.LBB55:
 3705              		.loc 1 455 11 is_stmt 0 view .LVU1194
ARM GAS  /tmp/ccqyZH0w.s 			page 66


 3706 0122 B533     		adds	r3, r3, #181
 3707 0124 9B09     		lsrs	r3, r3, #6
 3708              	.LBE55:
 3709              	.LBE58:
 3710              		.loc 1 799 21 view .LVU1195
 3711 0126 0132     		adds	r2, r2, #1
 3712              	.LVL378:
 3713              		.loc 1 797 10 is_stmt 1 view .LVU1196
 3714              	.LBB59:
 3715              		.loc 1 447 9 view .LVU1197
 3716              	.LBB56:
 3717              		.loc 1 453 2 view .LVU1198
 3718              		.loc 1 454 2 view .LVU1199
 3719              		.loc 1 455 2 view .LVU1200
 3720              		.loc 1 456 2 view .LVU1201
 3721              		.loc 1 456 5 is_stmt 0 view .LVU1202
 3722 0128 51F82330 		ldr	r3, [r1, r3, lsl #2]
 3723 012c 0BB9     		cbnz	r3, .L305
 3724              		.loc 1 457 3 is_stmt 1 view .LVU1203
 3725              	.LVL379:
 3726              		.loc 1 459 2 view .LVU1204
 3727              		.loc 1 459 2 is_stmt 0 view .LVU1205
 3728              	.LBE56:
 3729              	.LBE59:
 3730              		.loc 1 798 11 view .LVU1206
 3731 012e 2C2A     		cmp	r2, #44
 3732 0130 F6D1     		bne	.L306
 3733              	.L305:
 3734              		.loc 1 802 4 is_stmt 1 view .LVU1207
 3735              	.LVL380:
 3736              		.loc 1 804 4 view .LVU1208
 3737              		.loc 1 804 13 is_stmt 0 view .LVU1209
 3738 0132 B421     		movs	r1, #180
 3739 0134 0623     		movs	r3, #6
 3740 0136 0DA8     		add	r0, sp, #52
 3741 0138 0324     		movs	r4, #3
 3742 013a CDE90031 		strd	r3, r1, [sp]
 3743 013e CDE90224 		strd	r2, r4, [sp, #8]
 3744 0142 0490     		str	r0, [sp, #16]
 3745 0144 3B46     		mov	r3, r7
 3746 0146 5A46     		mov	r2, fp
 3747              	.LVL381:
 3748              		.loc 1 804 13 view .LVU1210
 3749 0148 0121     		movs	r1, #1
 3750 014a 3046     		mov	r0, r6
 3751 014c FFF7FEFF 		bl	enable_ref_spads
 3752              	.LVL382:
 3753              		.loc 1 814 4 is_stmt 1 view .LVU1211
 3754              		.loc 1 814 7 is_stmt 0 view .LVU1212
 3755 0150 0028     		cmp	r0, #0
 3756 0152 00F08580 		beq	.L326
 3757              	.LVL383:
 3758              	.L319:
 3759              		.loc 1 893 13 view .LVU1213
 3760 0156 0546     		mov	r5, r0
 3761 0158 72E7     		b	.L303
 3762              	.LVL384:
ARM GAS  /tmp/ccqyZH0w.s 			page 67


 3763              	.L311:
 3764              		.loc 1 699 11 view .LVU1214
 3765 015a 0021     		movs	r1, #0
 3766 015c 0B91     		str	r1, [sp, #44]
 3767              		.loc 1 698 11 view .LVU1215
 3768 015e 8946     		mov	r9, r1
 3769              		.loc 1 832 17 view .LVU1216
 3770 0160 0C46     		mov	r4, r1
 3771              	.LVL385:
 3772              	.L304:
 3773              		.loc 1 836 37 discriminator 1 view .LVU1217
 3774 0162 4345     		cmp	r3, r8
 3775 0164 4DD2     		bcs	.L307
 3776              		.loc 1 843 3 is_stmt 1 view .LVU1218
 3777              		.loc 1 848 46 is_stmt 0 view .LVU1219
 3778 0166 A3EB0803 		sub	r3, r3, r8
 3779              		.loc 1 848 24 view .LVU1220
 3780 016a 002B     		cmp	r3, #0
 3781 016c B8BF     		it	lt
 3782 016e 5B42     		rsblt	r3, r3, #0
 3783              		.loc 1 846 3 view .LVU1221
 3784 0170 3868     		ldr	r0, [r7]	@ unaligned
 3785 0172 B988     		ldrh	r1, [r7, #4]	@ unaligned
 3786              		.loc 1 848 24 view .LVU1222
 3787 0174 0793     		str	r3, [sp, #28]
 3788              		.loc 1 843 23 view .LVU1223
 3789 0176 E3B2     		uxtb	r3, r4
 3790              	.LBB60:
 3791              	.LBB61:
 3792              		.loc 1 476 32 view .LVU1224
 3793 0178 0A95     		str	r5, [sp, #40]
 3794              	.LBE61:
 3795              	.LBE60:
 3796              		.loc 1 846 3 view .LVU1225
 3797 017a 0F90     		str	r0, [sp, #60]
 3798 017c ADF84010 		strh	r1, [sp, #64]	@ unaligned
 3799              		.loc 1 843 23 view .LVU1226
 3800 0180 0B93     		str	r3, [sp, #44]
 3801              	.LVL386:
 3802              		.loc 1 844 3 is_stmt 1 view .LVU1227
 3803              		.loc 1 846 3 view .LVU1228
 3804              		.loc 1 848 3 view .LVU1229
 3805              		.loc 1 850 3 view .LVU1230
 3806              		.loc 1 852 3 view .LVU1231
 3807              		.loc 1 852 9 view .LVU1232
 3808              		.loc 1 844 20 is_stmt 0 view .LVU1233
 3809 0182 4FF0030A 		mov	r10, #3
 3810              	.LBB65:
 3811              	.LBB62:
 3812              		.loc 1 476 32 view .LVU1234
 3813 0186 2546     		mov	r5, r4
 3814              	.LVL387:
 3815              	.L309:
 3816              		.loc 1 476 32 view .LVU1235
 3817              	.LBE62:
 3818              	.LBE65:
 3819              		.loc 1 853 4 is_stmt 1 view .LVU1236
ARM GAS  /tmp/ccqyZH0w.s 			page 68


 3820 0188 0EAB     		add	r3, sp, #56
 3821 018a 0621     		movs	r1, #6
 3822 018c 5846     		mov	r0, fp
 3823 018e FFF7FEFF 		bl	get_next_good_spad
 3824              	.LVL388:
 3825              		.loc 1 858 4 view .LVU1237
 3826              		.loc 1 858 21 is_stmt 0 view .LVU1238
 3827 0192 0E9C     		ldr	r4, [sp, #56]
 3828              		.loc 1 858 7 view .LVU1239
 3829 0194 631C     		adds	r3, r4, #1
 3830 0196 60D0     		beq	.L317
 3831              		.loc 1 866 4 is_stmt 1 view .LVU1240
 3832              	.LVL389:
 3833              	.LBB66:
 3834              	.LBI66:
 3835              		.loc 1 447 9 view .LVU1241
 3836              	.LBB67:
 3837              		.loc 1 453 2 view .LVU1242
 3838              		.loc 1 454 2 view .LVU1243
 3839              		.loc 1 455 2 view .LVU1244
 3840              		.loc 1 456 2 view .LVU1245
 3841              		.loc 1 459 2 view .LVU1246
 3842              		.loc 1 459 2 is_stmt 0 view .LVU1247
 3843              	.LBE67:
 3844              	.LBE66:
 3845              		.loc 1 866 8 view .LVU1248
 3846 0198 04F1B403 		add	r3, r4, #180
 3847              	.LBB69:
 3848              	.LBB68:
 3849              		.loc 1 456 5 view .LVU1249
 3850 019c 404A     		ldr	r2, .L328+4
 3851              		.loc 1 455 11 view .LVU1250
 3852 019e 9B09     		lsrs	r3, r3, #6
 3853              		.loc 1 456 5 view .LVU1251
 3854 01a0 52F82330 		ldr	r3, [r2, r3, lsl #2]
 3855 01a4 003B     		subs	r3, r3, #0
 3856 01a6 18BF     		it	ne
 3857 01a8 0123     		movne	r3, #1
 3858              	.LBE68:
 3859              	.LBE69:
 3860              		.loc 1 866 7 view .LVU1252
 3861 01aa AB42     		cmp	r3, r5
 3862 01ac 6CD1     		bne	.L316
 3863              		.loc 1 875 4 is_stmt 1 view .LVU1253
 3864              	.LBB70:
 3865              	.LBB63:
 3866              		.loc 1 473 5 is_stmt 0 view .LVU1254
 3867 01ae 2F2C     		cmp	r4, #47
 3868              	.LBE63:
 3869              	.LBE70:
 3870              		.loc 1 875 22 view .LVU1255
 3871 01b0 0AF10109 		add	r9, r10, #1
 3872              	.LVL390:
 3873              		.loc 1 877 4 is_stmt 1 view .LVU1256
 3874              		.loc 1 878 4 view .LVU1257
 3875              	.LBB71:
 3876              	.LBI60:
ARM GAS  /tmp/ccqyZH0w.s 			page 69


 3877              		.loc 1 463 15 view .LVU1258
 3878              	.LBB64:
 3879              		.loc 1 466 2 view .LVU1259
 3880              		.loc 1 467 2 view .LVU1260
 3881              		.loc 1 468 2 view .LVU1261
 3882              		.loc 1 469 2 view .LVU1262
 3883              		.loc 1 471 2 view .LVU1263
 3884              		.loc 1 471 14 is_stmt 0 view .LVU1264
 3885 01b4 4FEAD401 		lsr	r1, r4, #3
 3886              	.LVL391:
 3887              		.loc 1 472 2 is_stmt 1 view .LVU1265
 3888              		.loc 1 472 12 is_stmt 0 view .LVU1266
 3889 01b8 04F00703 		and	r3, r4, #7
 3890              	.LVL392:
 3891              		.loc 1 473 2 is_stmt 1 view .LVU1267
 3892              		.loc 1 473 5 is_stmt 0 view .LVU1268
 3893 01bc 4DD8     		bhi	.L317
 3894              		.loc 1 476 3 is_stmt 1 view .LVU1269
 3895              		.loc 1 476 26 is_stmt 0 view .LVU1270
 3896 01be 7A5C     		ldrb	r2, [r7, r1]	@ zero_extendqisi2
 3897              		.loc 1 476 32 view .LVU1271
 3898 01c0 0120     		movs	r0, #1
 3899 01c2 00FA03F3 		lsl	r3, r0, r3
 3900              	.LVL393:
 3901              		.loc 1 476 26 view .LVU1272
 3902 01c6 1343     		orrs	r3, r3, r2
 3903 01c8 7B54     		strb	r3, [r7, r1]
 3904              		.loc 1 478 2 is_stmt 1 view .LVU1273
 3905              	.LVL394:
 3906              		.loc 1 478 2 is_stmt 0 view .LVU1274
 3907              	.LBE64:
 3908              	.LBE71:
 3909              		.loc 1 882 4 is_stmt 1 view .LVU1275
 3910              		.loc 1 883 5 view .LVU1276
 3911              		.loc 1 886 5 view .LVU1277
 3912              	.LBB72:
 3913              	.LBI72:
 3914              		.loc 1 539 15 view .LVU1278
 3915              	.LBB73:
 3916              		.loc 1 541 2 view .LVU1279
 3917              		.loc 1 541 25 is_stmt 0 view .LVU1280
 3918 01ca 3A46     		mov	r2, r7
 3919 01cc 0623     		movs	r3, #6
 3920 01ce B021     		movs	r1, #176
 3921 01d0 3046     		mov	r0, r6
 3922 01d2 FFF7FEFF 		bl	VL53L0X_WriteMulti
 3923              	.LVL395:
 3924              		.loc 1 544 2 is_stmt 1 view .LVU1281
 3925              		.loc 1 544 2 is_stmt 0 view .LVU1282
 3926              	.LBE73:
 3927              	.LBE72:
 3928              		.loc 1 890 4 is_stmt 1 view .LVU1283
 3929              		.loc 1 890 7 is_stmt 0 view .LVU1284
 3930 01d6 0028     		cmp	r0, #0
 3931 01d8 BDD1     		bne	.L319
 3932              		.loc 1 893 4 is_stmt 1 view .LVU1285
 3933              		.loc 1 893 13 is_stmt 0 view .LVU1286
ARM GAS  /tmp/ccqyZH0w.s 			page 70


 3934 01da 0DF13201 		add	r1, sp, #50
 3935 01de 3046     		mov	r0, r6
 3936              	.LVL396:
 3937              		.loc 1 893 13 view .LVU1287
 3938 01e0 FFF7FEFF 		bl	perform_ref_signal_measurement
 3939              	.LVL397:
 3940              		.loc 1 896 4 is_stmt 1 view .LVU1288
 3941              		.loc 1 896 7 is_stmt 0 view .LVU1289
 3942 01e4 0028     		cmp	r0, #0
 3943 01e6 B6D1     		bne	.L319
 3944              		.loc 1 899 4 is_stmt 1 view .LVU1290
 3945              		.loc 1 899 43 is_stmt 0 view .LVU1291
 3946 01e8 BDF83220 		ldrh	r2, [sp, #50]
 3947 01ec A2EB0803 		sub	r3, r2, r8
 3948              		.loc 1 899 21 view .LVU1292
 3949 01f0 002B     		cmp	r3, #0
 3950 01f2 B8BF     		it	lt
 3951 01f4 5B42     		rsblt	r3, r3, #0
 3952              	.LVL398:
 3953              		.loc 1 901 4 is_stmt 1 view .LVU1293
 3954              		.loc 1 901 7 is_stmt 0 view .LVU1294
 3955 01f6 4245     		cmp	r2, r8
 3956 01f8 13D9     		bls	.L308
 3957              		.loc 1 906 8 view .LVU1295
 3958 01fa 079A     		ldr	r2, [sp, #28]
 3959 01fc 0A9D     		ldr	r5, [sp, #40]
 3960              		.loc 1 906 5 is_stmt 1 view .LVU1296
 3961              		.loc 1 906 8 is_stmt 0 view .LVU1297
 3962 01fe 9342     		cmp	r3, r2
 3963 0200 18D8     		bhi	.L327
 3964              	.LVL399:
 3965              	.L307:
 3966              		.loc 1 930 3 is_stmt 1 view .LVU1298
 3967              		.loc 1 930 17 is_stmt 0 view .LVU1299
 3968 0202 089A     		ldr	r2, [sp, #32]
 3969              		.loc 1 931 20 view .LVU1300
 3970 0204 0999     		ldr	r1, [sp, #36]
 3971 0206 0B9C     		ldr	r4, [sp, #44]
 3972              		.loc 1 930 17 view .LVU1301
 3973 0208 C2F80090 		str	r9, [r2]
 3974              		.loc 1 931 3 is_stmt 1 view .LVU1302
 3975              		.loc 1 933 3 is_stmt 0 view .LVU1303
 3976 020c 0123     		movs	r3, #1
 3977              		.loc 1 931 20 view .LVU1304
 3978 020e 0C70     		strb	r4, [r1]
 3979              		.loc 1 933 3 is_stmt 1 view .LVU1305
 3980 0210 86F81531 		strb	r3, [r6, #277]
 3981              		.loc 1 934 3 view .LVU1306
 3982 0214 1368     		ldr	r3, [r2]
 3983 0216 86F81331 		strb	r3, [r6, #275]
 3984              		.loc 1 936 3 view .LVU1307
 3985 021a 0B78     		ldrb	r3, [r1]	@ zero_extendqisi2
 3986 021c 86F81431 		strb	r3, [r6, #276]
 3987 0220 0EE7     		b	.L303
 3988              	.LVL400:
 3989              	.L308:
 3990              		.loc 1 921 5 is_stmt 0 view .LVU1308
ARM GAS  /tmp/ccqyZH0w.s 			page 71


 3991 0222 3868     		ldr	r0, [r7]	@ unaligned
 3992              	.LVL401:
 3993              		.loc 1 921 5 view .LVU1309
 3994 0224 B988     		ldrh	r1, [r7, #4]	@ unaligned
 3995 0226 0F90     		str	r0, [sp, #60]
 3996              		.loc 1 883 21 view .LVU1310
 3997 0228 621C     		adds	r2, r4, #1
 3998              		.loc 1 920 5 is_stmt 1 view .LVU1311
 3999              	.LVL402:
 4000              		.loc 1 921 5 view .LVU1312
 4001              		.loc 1 875 22 is_stmt 0 view .LVU1313
 4002 022a CA46     		mov	r10, r9
 4003              		.loc 1 899 19 view .LVU1314
 4004 022c 0793     		str	r3, [sp, #28]
 4005              		.loc 1 921 5 view .LVU1315
 4006 022e ADF84010 		strh	r1, [sp, #64]	@ unaligned
 4007              	.LVL403:
 4008              		.loc 1 852 9 is_stmt 1 view .LVU1316
 4009 0232 A9E7     		b	.L309
 4010              	.LVL404:
 4011              	.L327:
 4012              		.loc 1 909 6 view .LVU1317
 4013              	.LBB74:
 4014              	.LBI74:
 4015              		.loc 1 539 15 view .LVU1318
 4016              	.LBB75:
 4017              		.loc 1 541 2 view .LVU1319
 4018              		.loc 1 541 25 is_stmt 0 view .LVU1320
 4019 0234 0623     		movs	r3, #6
 4020              	.LVL405:
 4021              		.loc 1 541 25 view .LVU1321
 4022 0236 0FAA     		add	r2, sp, #60
 4023              	.LVL406:
 4024              		.loc 1 541 25 view .LVU1322
 4025 0238 B021     		movs	r1, #176
 4026 023a 3046     		mov	r0, r6
 4027              	.LVL407:
 4028              		.loc 1 541 25 view .LVU1323
 4029 023c FFF7FEFF 		bl	VL53L0X_WriteMulti
 4030              	.LVL408:
 4031              		.loc 1 541 25 view .LVU1324
 4032              	.LBE75:
 4033              	.LBE74:
 4034              		.loc 1 911 6 view .LVU1325
 4035 0240 BDF84020 		ldrh	r2, [sp, #64]	@ unaligned
 4036              	.LBB77:
 4037              	.LBB76:
 4038              		.loc 1 541 25 view .LVU1326
 4039 0244 0346     		mov	r3, r0
 4040              	.LVL409:
 4041              		.loc 1 544 2 is_stmt 1 view .LVU1327
 4042              		.loc 1 544 2 is_stmt 0 view .LVU1328
 4043              	.LBE76:
 4044              	.LBE77:
 4045              		.loc 1 911 6 is_stmt 1 view .LVU1329
 4046 0246 0F98     		ldr	r0, [sp, #60]
 4047 0248 C6F82401 		str	r0, [r6, #292]	@ unaligned
ARM GAS  /tmp/ccqyZH0w.s 			page 72


 4048 024c D146     		mov	r9, r10
 4049              	.LVL410:
 4050              		.loc 1 929 5 is_stmt 0 view .LVU1330
 4051 024e 1846     		mov	r0, r3
 4052              		.loc 1 911 6 view .LVU1331
 4053 0250 BA80     		strh	r2, [r7, #4]	@ unaligned
 4054              		.loc 1 915 6 is_stmt 1 view .LVU1332
 4055              	.LVL411:
 4056              		.loc 1 852 9 view .LVU1333
 4057              		.loc 1 929 2 view .LVU1334
 4058              		.loc 1 929 5 is_stmt 0 view .LVU1335
 4059 0252 002B     		cmp	r3, #0
 4060 0254 D5D0     		beq	.L307
 4061              		.loc 1 893 13 view .LVU1336
 4062 0256 0546     		mov	r5, r0
 4063 0258 F2E6     		b	.L303
 4064              	.LVL412:
 4065              	.L317:
 4066              		.loc 1 859 12 view .LVU1337
 4067 025a 6FF03105 		mvn	r5, #49
 4068 025e EFE6     		b	.L303
 4069              	.LVL413:
 4070              	.L326:
 4071              		.loc 1 815 5 is_stmt 1 view .LVU1338
 4072              		.loc 1 815 22 is_stmt 0 view .LVU1339
 4073 0260 0D9A     		ldr	r2, [sp, #52]
 4074 0262 0792     		str	r2, [sp, #28]
 4075              	.LVL414:
 4076              		.loc 1 816 5 is_stmt 1 view .LVU1340
 4077              		.loc 1 816 14 is_stmt 0 view .LVU1341
 4078 0264 0DF13201 		add	r1, sp, #50
 4079 0268 3046     		mov	r0, r6
 4080              	.LVL415:
 4081              		.loc 1 816 14 view .LVU1342
 4082 026a FFF7FEFF 		bl	perform_ref_signal_measurement
 4083              	.LVL416:
 4084              		.loc 1 819 5 is_stmt 1 view .LVU1343
 4085              		.loc 1 819 8 is_stmt 0 view .LVU1344
 4086 026e 0028     		cmp	r0, #0
 4087 0270 7FF471AF 		bne	.L319
 4088              		.loc 1 820 25 discriminator 1 view .LVU1345
 4089 0274 BDF83230 		ldrh	r3, [sp, #50]
 4090              		.loc 1 819 40 discriminator 1 view .LVU1346
 4091 0278 079A     		ldr	r2, [sp, #28]
 4092 027a 4345     		cmp	r3, r8
 4093 027c 07D8     		bhi	.L314
 4094              		.loc 1 802 17 view .LVU1347
 4095 027e 0121     		movs	r1, #1
 4096              		.loc 1 699 11 view .LVU1348
 4097 0280 0B90     		str	r0, [sp, #44]
 4098              		.loc 1 698 11 view .LVU1349
 4099 0282 8146     		mov	r9, r0
 4100              		.loc 1 802 17 view .LVU1350
 4101 0284 0C46     		mov	r4, r1
 4102 0286 6CE7     		b	.L304
 4103              	.LVL417:
 4104              	.L316:
ARM GAS  /tmp/ccqyZH0w.s 			page 73


 4105              		.loc 1 802 17 view .LVU1351
 4106 0288 0A9D     		ldr	r5, [sp, #40]
 4107 028a D146     		mov	r9, r10
 4108 028c B9E7     		b	.L307
 4109              	.LVL418:
 4110              	.L314:
 4111              		.loc 1 827 26 view .LVU1352
 4112 028e 0121     		movs	r1, #1
 4113              		.loc 1 828 23 view .LVU1353
 4114 0290 A146     		mov	r9, r4
 4115              		.loc 1 827 26 view .LVU1354
 4116 0292 0B91     		str	r1, [sp, #44]
 4117              		.loc 1 802 17 view .LVU1355
 4118 0294 0C46     		mov	r4, r1
 4119 0296 64E7     		b	.L304
 4120              	.LVL419:
 4121              	.L325:
 4122              		.loc 1 941 1 view .LVU1356
 4123 0298 FFF7FEFF 		bl	__stack_chk_fail
 4124              	.LVL420:
 4125              	.L329:
 4126              		.align	2
 4127              	.L328:
 4128 029c 00000000 		.word	.LC20
 4129 02a0 00000000 		.word	.LANCHOR0
 4130              		.cfi_endproc
 4131              	.LFE16:
 4132              		.size	VL53L0X_perform_ref_spad_management, .-VL53L0X_perform_ref_spad_management
 4133              		.section	.rodata.VL53L0X_set_ref_calibration.cst4,"aM",%progbits,4
 4134              		.align	2
 4135              	.LC21:
 4136 0000 00000000 		.word	__stack_chk_guard
 4137              		.section	.text.VL53L0X_set_ref_calibration,"ax",%progbits
 4138              		.align	1
 4139              		.p2align 4,,15
 4140              		.global	VL53L0X_set_ref_calibration
 4141              		.syntax unified
 4142              		.thumb
 4143              		.thumb_func
 4144              		.fpu fpv4-sp-d16
 4145              		.type	VL53L0X_set_ref_calibration, %function
 4146              	VL53L0X_set_ref_calibration:
 4147              	.LVL421:
 4148              	.LFB24:
 4149              		.loc 1 1250 1 is_stmt 1 view -0
 4150              		.cfi_startproc
 4151              		@ args = 0, pretend = 0, frame = 8
 4152              		@ frame_needed = 0, uses_anonymous_args = 0
 4153              		.loc 1 1250 1 is_stmt 0 view .LVU1358
 4154 0000 70B5     		push	{r4, r5, r6, lr}
 4155              		.cfi_def_cfa_offset 16
 4156              		.cfi_offset 4, -16
 4157              		.cfi_offset 5, -12
 4158              		.cfi_offset 6, -8
 4159              		.cfi_offset 14, -4
 4160 0002 86B0     		sub	sp, sp, #24
 4161              		.cfi_def_cfa_offset 40
ARM GAS  /tmp/ccqyZH0w.s 			page 74


 4162              		.loc 1 1255 11 view .LVU1359
 4163 0004 0124     		movs	r4, #1
 4164 0006 0DF11306 		add	r6, sp, #19
 4165 000a 0DF11205 		add	r5, sp, #18
 4166 000e CDE90244 		strd	r4, r4, [sp, #8]
 4167 0012 CDE90056 		strd	r5, r6, [sp]
 4168              		.loc 1 1250 1 view .LVU1360
 4169 0016 094C     		ldr	r4, .L334
 4170 0018 1346     		mov	r3, r2
 4171              		.loc 1 1255 11 view .LVU1361
 4172 001a 0A46     		mov	r2, r1
 4173              	.LVL422:
 4174              		.loc 1 1255 11 view .LVU1362
 4175 001c 0021     		movs	r1, #0
 4176              	.LVL423:
 4177              		.loc 1 1250 1 view .LVU1363
 4178 001e 2468     		ldr	r4, [r4]
 4179 0020 0594     		str	r4, [sp, #20]
 4180 0022 4FF00004 		mov	r4,#0
 4181              		.loc 1 1251 2 is_stmt 1 view .LVU1364
 4182              	.LVL424:
 4183              		.loc 1 1252 2 view .LVU1365
 4184              		.loc 1 1253 2 view .LVU1366
 4185              		.loc 1 1255 2 view .LVU1367
 4186              		.loc 1 1255 11 is_stmt 0 view .LVU1368
 4187 0026 FFF7FEFF 		bl	VL53L0X_ref_calibration_io
 4188              	.LVL425:
 4189              		.loc 1 1260 2 is_stmt 1 view .LVU1369
 4190              		.loc 1 1261 1 is_stmt 0 view .LVU1370
 4191 002a 044B     		ldr	r3, .L334
 4192 002c 1A68     		ldr	r2, [r3]
 4193 002e 059B     		ldr	r3, [sp, #20]
 4194 0030 5A40     		eors	r2, r3, r2
 4195 0032 01D1     		bne	.L333
 4196 0034 06B0     		add	sp, sp, #24
 4197              		.cfi_remember_state
 4198              		.cfi_def_cfa_offset 16
 4199              		@ sp needed
 4200 0036 70BD     		pop	{r4, r5, r6, pc}
 4201              	.L333:
 4202              		.cfi_restore_state
 4203 0038 FFF7FEFF 		bl	__stack_chk_fail
 4204              	.LVL426:
 4205              	.L335:
 4206              		.loc 1 1261 1 view .LVU1371
 4207              		.align	2
 4208              	.L334:
 4209 003c 00000000 		.word	.LC21
 4210              		.cfi_endproc
 4211              	.LFE24:
 4212              		.size	VL53L0X_set_ref_calibration, .-VL53L0X_set_ref_calibration
 4213              		.section	.rodata.VL53L0X_get_ref_calibration.cst4,"aM",%progbits,4
 4214              		.align	2
 4215              	.LC22:
 4216 0000 00000000 		.word	__stack_chk_guard
 4217              		.section	.text.VL53L0X_get_ref_calibration,"ax",%progbits
 4218              		.align	1
ARM GAS  /tmp/ccqyZH0w.s 			page 75


 4219              		.p2align 4,,15
 4220              		.global	VL53L0X_get_ref_calibration
 4221              		.syntax unified
 4222              		.thumb
 4223              		.thumb_func
 4224              		.fpu fpv4-sp-d16
 4225              		.type	VL53L0X_get_ref_calibration, %function
 4226              	VL53L0X_get_ref_calibration:
 4227              	.LVL427:
 4228              	.LFB25:
 4229              		.loc 1 1265 1 is_stmt 1 view -0
 4230              		.cfi_startproc
 4231              		@ args = 0, pretend = 0, frame = 8
 4232              		@ frame_needed = 0, uses_anonymous_args = 0
 4233              		.loc 1 1265 1 is_stmt 0 view .LVU1373
 4234 0000 10B5     		push	{r4, lr}
 4235              		.cfi_def_cfa_offset 8
 4236              		.cfi_offset 4, -8
 4237              		.cfi_offset 14, -4
 4238              		.loc 1 1270 11 view .LVU1374
 4239 0002 0124     		movs	r4, #1
 4240              		.loc 1 1265 1 view .LVU1375
 4241 0004 86B0     		sub	sp, sp, #24
 4242              		.cfi_def_cfa_offset 32
 4243              		.loc 1 1270 11 view .LVU1376
 4244 0006 CDE90012 		strd	r1, r2, [sp]
 4245 000a CDE90244 		strd	r4, r4, [sp, #8]
 4246 000e 0023     		movs	r3, #0
 4247 0010 2146     		mov	r1, r4
 4248              	.LVL428:
 4249              		.loc 1 1265 1 view .LVU1377
 4250 0012 084C     		ldr	r4, .L340
 4251              		.loc 1 1270 11 view .LVU1378
 4252 0014 1A46     		mov	r2, r3
 4253              	.LVL429:
 4254              		.loc 1 1265 1 view .LVU1379
 4255 0016 2468     		ldr	r4, [r4]
 4256 0018 0594     		str	r4, [sp, #20]
 4257 001a 4FF00004 		mov	r4,#0
 4258              		.loc 1 1266 2 is_stmt 1 view .LVU1380
 4259              	.LVL430:
 4260              		.loc 1 1267 2 view .LVU1381
 4261              		.loc 1 1268 2 view .LVU1382
 4262              		.loc 1 1270 2 view .LVU1383
 4263              		.loc 1 1270 11 is_stmt 0 view .LVU1384
 4264 001e FFF7FEFF 		bl	VL53L0X_ref_calibration_io
 4265              	.LVL431:
 4266              		.loc 1 1275 2 is_stmt 1 view .LVU1385
 4267              		.loc 1 1276 1 is_stmt 0 view .LVU1386
 4268 0022 044B     		ldr	r3, .L340
 4269 0024 1A68     		ldr	r2, [r3]
 4270 0026 059B     		ldr	r3, [sp, #20]
 4271 0028 5A40     		eors	r2, r3, r2
 4272 002a 01D1     		bne	.L339
 4273 002c 06B0     		add	sp, sp, #24
 4274              		.cfi_remember_state
 4275              		.cfi_def_cfa_offset 8
ARM GAS  /tmp/ccqyZH0w.s 			page 76


 4276              		@ sp needed
 4277 002e 10BD     		pop	{r4, pc}
 4278              	.L339:
 4279              		.cfi_restore_state
 4280 0030 FFF7FEFF 		bl	__stack_chk_fail
 4281              	.LVL432:
 4282              	.L341:
 4283              		.loc 1 1276 1 view .LVU1387
 4284              		.align	2
 4285              	.L340:
 4286 0034 00000000 		.word	.LC22
 4287              		.cfi_endproc
 4288              	.LFE25:
 4289              		.size	VL53L0X_get_ref_calibration, .-VL53L0X_get_ref_calibration
 4290              		.global	refArrayQuadrants
 4291              		.section	.data.refArrayQuadrants,"aw"
 4292              		.align	2
 4293              		.set	.LANCHOR0,. + 0
 4294              		.type	refArrayQuadrants, %object
 4295              		.size	refArrayQuadrants, 16
 4296              	refArrayQuadrants:
 4297 0000 0A000000 		.word	10
 4298 0004 05000000 		.word	5
 4299 0008 00000000 		.word	0
 4300 000c 05000000 		.word	5
 4301              		.text
 4302              	.Letext0:
 4303              		.file 2 "/usr/lib/gcc/arm-none-eabi/9.2.1/include/stdint.h"
 4304              		.file 3 ".//src/sensors/VL53L0X/Api/core/src/../inc/vl53l0x_types.h"
 4305              		.file 4 ".//src/sensors/VL53L0X/Api/core/src/../inc/vl53l0x_device.h"
 4306              		.file 5 ".//src/sensors/VL53L0X/Api/core/src/../inc/vl53l0x_def.h"
 4307              		.file 6 "/usr/lib/gcc/arm-none-eabi/9.2.1/include/stddef.h"
 4308              		.file 7 "/usr/include/newlib/sys/_types.h"
 4309              		.file 8 "/usr/include/newlib/sys/reent.h"
 4310              		.file 9 "/usr/include/newlib/sys/lock.h"
 4311              		.file 10 ".//src/sensors/VL53L0X/Api/core/src/../inc/../../platform/inc/vl53l0x_platform.h"
 4312              		.file 11 "/usr/include/newlib/stdlib.h"
 4313              		.file 12 ".//src/sensors/VL53L0X/Api/core/src/../inc/vl53l0x_api.h"
 4314              		.file 13 ".//src/sensors/VL53L0X/Api/core/src/../inc/vl53l0x_api_core.h"