ARM GAS  /tmp/ccqyZH0w.s 			page 1


   1              		.cpu cortex-m4
   2              		.eabi_attribute 27, 1
   3              		.eabi_attribute 28, 1
   4              		.eabi_attribute 20, 1
   5              		.eabi_attribute 21, 1
   6              		.eabi_attribute 23, 3
   7              		.eabi_attribute 24, 1
   8              		.eabi_attribute 25, 1
   9              		.eabi_attribute 26, 1
  10              		.eabi_attribute 30, 2
  11              		.eabi_attribute 34, 1
  12              		.eabi_attribute 18, 4
  13              		.file	"vl53l0x_api_calibration.c"
  14              		.text
  15              	.Ltext0:
  16              		.cfi_sections	.debug_frame
  17              		.section	.rodata.VL53L0X_perform_xtalk_calibration.cst4,"aM",%progbits,4
  18              		.align	2
  19              	.LC0:
  20 0000 00000000 		.word	__stack_chk_guard
  21              		.section	.text.VL53L0X_perform_xtalk_calibration,"ax",%progbits
  22              		.align	1
  23              		.p2align 4,,15
  24              		.global	VL53L0X_perform_xtalk_calibration
  25              		.arch armv7e-m
  26              		.syntax unified
  27              		.thumb
  28              		.thumb_func
  29              		.fpu fpv4-sp-d16
  30              		.type	VL53L0X_perform_xtalk_calibration, %function
  31              	VL53L0X_perform_xtalk_calibration:
  32              	.LVL0:
  33              	.LFB3:
  34              		.file 1 ".//src/sensors/VL53L0X/Api/core/src/vl53l0x_api_calibration.c"
  35              		.loc 1 54 1 view -0
  36              		.cfi_startproc
  37              		@ args = 0, pretend = 0, frame = 32
  38              		@ frame_needed = 0, uses_anonymous_args = 0
  39              		.loc 1 54 1 is_stmt 0 view .LVU1
  40 0000 2DE9F04F 		push	{r4, r5, r6, r7, r8, r9, r10, fp, lr}
  41              		.cfi_def_cfa_offset 36
  42              		.cfi_offset 4, -36
  43              		.cfi_offset 5, -32
  44              		.cfi_offset 6, -28
  45              		.cfi_offset 7, -24
  46              		.cfi_offset 8, -20
  47              		.cfi_offset 9, -16
  48              		.cfi_offset 10, -12
  49              		.cfi_offset 11, -8
  50              		.cfi_offset 14, -4
  51 0004 3B4B     		ldr	r3, .L27
  52 0006 89B0     		sub	sp, sp, #36
  53              		.cfi_def_cfa_offset 72
  54              		.loc 1 54 1 view .LVU2
  55 0008 1B68     		ldr	r3, [r3]
  56 000a 0793     		str	r3, [sp, #28]
  57 000c 4FF00003 		mov	r3,#0
ARM GAS  /tmp/ccqyZH0w.s 			page 2


  58              		.loc 1 55 2 is_stmt 1 view .LVU3
  59              	.LVL1:
  60              		.loc 1 56 2 view .LVU4
  61              		.loc 1 57 2 view .LVU5
  62              		.loc 1 58 2 view .LVU6
  63              		.loc 1 59 2 view .LVU7
  64              		.loc 1 60 2 view .LVU8
  65              		.loc 1 61 2 view .LVU9
  66              		.loc 1 62 2 view .LVU10
  67              		.loc 1 63 2 view .LVU11
  68              		.loc 1 64 2 view .LVU12
  69              		.loc 1 65 2 view .LVU13
  70              		.loc 1 66 2 view .LVU14
  71              		.loc 1 67 2 view .LVU15
  72              		.loc 1 68 2 view .LVU16
  73              		.loc 1 70 2 view .LVU17
  74              		.loc 1 70 5 is_stmt 0 view .LVU18
  75 0010 49B9     		cbnz	r1, .L23
  76              		.loc 1 71 10 view .LVU19
  77 0012 6FF00300 		mvn	r0, #3
  78              	.LVL2:
  79              	.L2:
  80              		.loc 1 187 2 is_stmt 1 view .LVU20
  81              		.loc 1 188 1 is_stmt 0 view .LVU21
  82 0016 374B     		ldr	r3, .L27
  83 0018 1A68     		ldr	r2, [r3]
  84 001a 079B     		ldr	r3, [sp, #28]
  85 001c 5A40     		eors	r2, r3, r2
  86 001e 67D1     		bne	.L24
  87 0020 09B0     		add	sp, sp, #36
  88              		.cfi_remember_state
  89              		.cfi_def_cfa_offset 36
  90              		@ sp needed
  91 0022 BDE8F08F 		pop	{r4, r5, r6, r7, r8, r9, r10, fp, pc}
  92              	.LVL3:
  93              	.L23:
  94              		.cfi_restore_state
  95              		.loc 1 74 2 is_stmt 1 view .LVU22
  96              		.loc 1 75 3 view .LVU23
  97 0026 8A46     		mov	r10, r1
  98              		.loc 1 75 12 is_stmt 0 view .LVU24
  99 0028 0021     		movs	r1, #0
 100              	.LVL4:
 101              		.loc 1 75 12 view .LVU25
 102 002a 9346     		mov	fp, r2
 103 002c 0646     		mov	r6, r0
 104 002e FFF7FEFF 		bl	VL53L0X_SetXTalkCompensationEnable
 105              	.LVL5:
 106              		.loc 1 78 2 is_stmt 1 view .LVU26
 107              		.loc 1 78 5 is_stmt 0 view .LVU27
 108 0032 0028     		cmp	r0, #0
 109 0034 EFD1     		bne	.L2
 110              		.loc 1 79 3 is_stmt 1 view .LVU28
 111              		.loc 1 79 12 is_stmt 0 view .LVU29
 112 0036 0246     		mov	r2, r0
 113 0038 0321     		movs	r1, #3
 114 003a 3046     		mov	r0, r6
ARM GAS  /tmp/ccqyZH0w.s 			page 3


 115              	.LVL6:
 116              		.loc 1 79 12 view .LVU30
 117 003c FFF7FEFF 		bl	VL53L0X_SetLimitCheckEnable
 118              	.LVL7:
 119              		.loc 1 84 2 is_stmt 1 view .LVU31
 120              		.loc 1 84 5 is_stmt 0 view .LVU32
 121 0040 0028     		cmp	r0, #0
 122 0042 E8D1     		bne	.L2
 123              		.loc 1 88 15 view .LVU33
 124 0044 0746     		mov	r7, r0
 125              		.loc 1 87 18 view .LVU34
 126 0046 8146     		mov	r9, r0
 127              		.loc 1 86 13 view .LVU35
 128 0048 0546     		mov	r5, r0
 129              		.loc 1 85 15 view .LVU36
 130 004a 8046     		mov	r8, r0
 131 004c 3224     		movs	r4, #50
 132 004e 13E0     		b	.L5
 133              	.LVL8:
 134              	.L26:
 135              		.loc 1 97 4 is_stmt 1 view .LVU37
 136              		.loc 1 97 7 is_stmt 0 view .LVU38
 137 0050 9DF81830 		ldrb	r3, [sp, #24]	@ zero_extendqisi2
 138 0054 63B9     		cbnz	r3, .L4
 139              		.loc 1 98 5 is_stmt 1 view .LVU39
 140              		.loc 1 98 17 is_stmt 0 view .LVU40
 141 0056 BDF80810 		ldrh	r1, [sp, #8]
 142              		.loc 1 102 27 view .LVU41
 143 005a BDF81430 		ldrh	r3, [sp, #20]
 144              		.loc 1 100 20 view .LVU42
 145 005e 039A     		ldr	r2, [sp, #12]
 146              		.loc 1 98 17 view .LVU43
 147 0060 8844     		add	r8, r8, r1
 148              	.LVL9:
 149              		.loc 1 102 15 view .LVU44
 150 0062 05EB1325 		add	r5, r5, r3, lsr #8
 151              	.LVL10:
 152              		.loc 1 105 17 view .LVU45
 153 0066 0137     		adds	r7, r7, #1
 154              	.LVL11:
 155              		.loc 1 98 17 view .LVU46
 156 0068 1FFA88F8 		uxth	r8, r8
 157              	.LVL12:
 158              		.loc 1 100 5 is_stmt 1 view .LVU47
 159              		.loc 1 102 15 is_stmt 0 view .LVU48
 160 006c ADB2     		uxth	r5, r5
 161              		.loc 1 100 20 view .LVU49
 162 006e 9144     		add	r9, r9, r2
 163              	.LVL13:
 164              		.loc 1 102 5 is_stmt 1 view .LVU50
 165              		.loc 1 105 5 view .LVU51
 166              	.L4:
 167              		.loc 1 89 41 discriminator 2 view .LVU52
 168              		.loc 1 89 24 discriminator 2 view .LVU53
 169 0070 013C     		subs	r4, r4, #1
 170              	.LVL14:
 171              		.loc 1 89 3 is_stmt 0 discriminator 2 view .LVU54
ARM GAS  /tmp/ccqyZH0w.s 			page 4


 172 0072 14F0FF04 		ands	r4, r4, #255
 173 0076 0AD0     		beq	.L25
 174              	.LVL15:
 175              	.L5:
 176              		.loc 1 90 4 is_stmt 1 view .LVU55
 177              		.loc 1 90 13 is_stmt 0 view .LVU56
 178 0078 6946     		mov	r1, sp
 179 007a 3046     		mov	r0, r6
 180 007c FFF7FEFF 		bl	VL53L0X_PerformSingleRangingMeasurement
 181              	.LVL16:
 182              		.loc 1 93 4 is_stmt 1 view .LVU57
 183              		.loc 1 93 7 is_stmt 0 view .LVU58
 184 0080 0028     		cmp	r0, #0
 185 0082 E5D0     		beq	.L26
 186              		.loc 1 110 3 is_stmt 1 view .LVU59
 187              		.loc 1 111 11 is_stmt 0 view .LVU60
 188 0084 002F     		cmp	r7, #0
 189 0086 08BF     		it	eq
 190 0088 6FF00500 		mvneq	r0, #5
 191              	.LVL17:
 192              		.loc 1 111 11 view .LVU61
 193 008c C3E7     		b	.L2
 194              	.LVL18:
 195              	.L25:
 196              		.loc 1 110 3 is_stmt 1 view .LVU62
 197              		.loc 1 110 6 is_stmt 0 view .LVU63
 198 008e 17B9     		cbnz	r7, .L20
 199              		.loc 1 111 11 view .LVU64
 200 0090 6FF00500 		mvn	r0, #5
 201 0094 BFE7     		b	.L2
 202              	.L20:
 203              		.loc 1 118 3 is_stmt 1 view .LVU65
 204              	.LVL19:
 205              		.loc 1 119 3 view .LVU66
 206              		.loc 1 121 3 view .LVU67
 207              		.loc 1 135 3 view .LVU68
 208              		.loc 1 122 14 is_stmt 0 view .LVU69
 209 0096 2904     		lsls	r1, r5, #16
 210              		.loc 1 121 27 view .LVU70
 211 0098 B1FBF7F1 		udiv	r1, r1, r7
 212              		.loc 1 135 59 view .LVU71
 213 009c 01F50041 		add	r1, r1, #32768
 214              	.LVL20:
 215              		.loc 1 141 4 is_stmt 1 view .LVU72
 216              		.loc 1 143 3 view .LVU73
 217              		.loc 1 143 6 is_stmt 0 view .LVU74
 218 00a0 0D0C     		lsrs	r5, r1, #16
 219              	.LVL21:
 220              		.loc 1 143 6 view .LVU75
 221 00a2 16D0     		beq	.L7
 222              		.loc 1 141 46 discriminator 1 view .LVU76
 223 00a4 0AF50043 		add	r3, r10, #32768
 224              	.LVL22:
 225              		.loc 1 143 41 discriminator 1 view .LVU77
 226 00a8 1B0C     		lsrs	r3, r3, #16
 227              	.LVL23:
 228              		.loc 1 143 41 discriminator 1 view .LVU78
ARM GAS  /tmp/ccqyZH0w.s 			page 5


 229 00aa 1FD0     		beq	.L12
 230              		.loc 1 120 16 view .LVU79
 231 00ac 4FEA0848 		lsl	r8, r8, #16
 232              	.LVL24:
 233              		.loc 1 119 24 view .LVU80
 234 00b0 B8FBF7F8 		udiv	r8, r8, r7
 235              		.loc 1 144 33 view .LVU81
 236 00b4 C245     		cmp	r10, r8
 237 00b6 19D9     		bls	.L12
 238              		.loc 1 151 4 is_stmt 1 view .LVU82
 239              		.loc 1 158 4 view .LVU83
 240              		.loc 1 167 27 is_stmt 0 view .LVU84
 241 00b8 B8FBF3F3 		udiv	r3, r8, r3
 242              		.loc 1 118 29 view .LVU85
 243 00bc B9FBF7F1 		udiv	r1, r9, r7
 244              	.LVL25:
 245              		.loc 1 166 42 view .LVU86
 246 00c0 C3F58033 		rsb	r3, r3, #65536
 247              		.loc 1 158 28 view .LVU87
 248 00c4 B1FBF5F1 		udiv	r1, r1, r5
 249              	.LVL26:
 250              		.loc 1 166 4 is_stmt 1 view .LVU88
 251              		.loc 1 170 4 view .LVU89
 252              		.loc 1 166 28 is_stmt 0 view .LVU90
 253 00c8 01FB03F3 		mul	r3, r1, r3
 254              		.loc 1 171 5 view .LVU91
 255 00cc 03F50041 		add	r1, r3, #32768
 256              	.LVL27:
 257              		.loc 1 170 33 view .LVU92
 258 00d0 0D0C     		lsrs	r5, r1, #16
 259              	.LVL28:
 260              	.L7:
 261              		.loc 1 174 3 is_stmt 1 view .LVU93
 262              		.loc 1 174 34 is_stmt 0 view .LVU94
 263 00d2 CBF80050 		str	r5, [fp]
 264              		.loc 1 177 3 is_stmt 1 view .LVU95
 265              		.loc 1 178 4 view .LVU96
 266              		.loc 1 178 13 is_stmt 0 view .LVU97
 267 00d6 0121     		movs	r1, #1
 268 00d8 3046     		mov	r0, r6
 269 00da FFF7FEFF 		bl	VL53L0X_SetXTalkCompensationEnable
 270              	.LVL29:
 271              		.loc 1 181 3 is_stmt 1 view .LVU98
 272              		.loc 1 181 6 is_stmt 0 view .LVU99
 273 00de 0028     		cmp	r0, #0
 274 00e0 99D1     		bne	.L2
 275              		.loc 1 182 4 is_stmt 1 view .LVU100
 276              		.loc 1 182 13 is_stmt 0 view .LVU101
 277 00e2 2946     		mov	r1, r5
 278 00e4 3046     		mov	r0, r6
 279              	.LVL30:
 280              		.loc 1 182 13 view .LVU102
 281 00e6 FFF7FEFF 		bl	VL53L0X_SetXTalkCompensationRateMegaCps
 282              	.LVL31:
 283              		.loc 1 182 13 view .LVU103
 284 00ea 94E7     		b	.L2
 285              	.LVL32:
ARM GAS  /tmp/ccqyZH0w.s 			page 6


 286              	.L12:
 287              		.loc 1 146 33 view .LVU104
 288 00ec 2546     		mov	r5, r4
 289              	.LVL33:
 290              		.loc 1 146 33 view .LVU105
 291 00ee F0E7     		b	.L7
 292              	.LVL34:
 293              	.L24:
 294              		.loc 1 188 1 view .LVU106
 295 00f0 FFF7FEFF 		bl	__stack_chk_fail
 296              	.LVL35:
 297              	.L28:
 298              		.loc 1 188 1 view .LVU107
 299              		.align	2
 300              	.L27:
 301 00f4 00000000 		.word	.LC0
 302              		.cfi_endproc
 303              	.LFE3:
 304              		.size	VL53L0X_perform_xtalk_calibration, .-VL53L0X_perform_xtalk_calibration
 305              		.section	.rodata.VL53L0X_perform_offset_calibration.cst4,"aM",%progbits,4
 306              		.align	2
 307              	.LC1:
 308 0000 00000000 		.word	__stack_chk_guard
 309              		.section	.text.VL53L0X_perform_offset_calibration,"ax",%progbits
 310              		.align	1
 311              		.p2align 4,,15
 312              		.global	VL53L0X_perform_offset_calibration
 313              		.syntax unified
 314              		.thumb
 315              		.thumb_func
 316              		.fpu fpv4-sp-d16
 317              		.type	VL53L0X_perform_offset_calibration, %function
 318              	VL53L0X_perform_offset_calibration:
 319              	.LVL36:
 320              	.LFB4:
 321              		.loc 1 193 1 is_stmt 1 view -0
 322              		.cfi_startproc
 323              		@ args = 0, pretend = 0, frame = 40
 324              		@ frame_needed = 0, uses_anonymous_args = 0
 325              		.loc 1 193 1 is_stmt 0 view .LVU109
 326 0000 2DE9F043 		push	{r4, r5, r6, r7, r8, r9, lr}
 327              		.cfi_def_cfa_offset 28
 328              		.cfi_offset 4, -28
 329              		.cfi_offset 5, -24
 330              		.cfi_offset 6, -20
 331              		.cfi_offset 7, -16
 332              		.cfi_offset 8, -12
 333              		.cfi_offset 9, -8
 334              		.cfi_offset 14, -4
 335 0004 394B     		ldr	r3, .L51
 336 0006 8BB0     		sub	sp, sp, #44
 337              		.cfi_def_cfa_offset 72
 338              		.loc 1 193 1 view .LVU110
 339 0008 1B68     		ldr	r3, [r3]
 340 000a 0993     		str	r3, [sp, #36]
 341 000c 4FF00003 		mov	r3,#0
 342              		.loc 1 194 2 is_stmt 1 view .LVU111
ARM GAS  /tmp/ccqyZH0w.s 			page 7


 343              	.LVL37:
 344              		.loc 1 195 2 view .LVU112
 345              		.loc 1 196 2 view .LVU113
 346              		.loc 1 197 2 view .LVU114
 347              		.loc 1 198 2 view .LVU115
 348              		.loc 1 199 2 view .LVU116
 349              		.loc 1 200 2 view .LVU117
 350              		.loc 1 201 2 view .LVU118
 351              		.loc 1 202 2 view .LVU119
 352              		.loc 1 204 2 view .LVU120
 353              		.loc 1 204 5 is_stmt 0 view .LVU121
 354 0010 49B9     		cbnz	r1, .L47
 355              		.loc 1 205 10 view .LVU122
 356 0012 6FF00300 		mvn	r0, #3
 357              	.LVL38:
 358              	.L30:
 359              		.loc 1 285 2 is_stmt 1 view .LVU123
 360              		.loc 1 286 1 is_stmt 0 view .LVU124
 361 0016 354B     		ldr	r3, .L51
 362 0018 1A68     		ldr	r2, [r3]
 363 001a 099B     		ldr	r3, [sp, #36]
 364 001c 5A40     		eors	r2, r3, r2
 365 001e 62D1     		bne	.L48
 366 0020 0BB0     		add	sp, sp, #44
 367              		.cfi_remember_state
 368              		.cfi_def_cfa_offset 28
 369              		@ sp needed
 370 0022 BDE8F083 		pop	{r4, r5, r6, r7, r8, r9, pc}
 371              	.LVL39:
 372              	.L47:
 373              		.cfi_restore_state
 374              		.loc 1 207 2 is_stmt 1 view .LVU125
 375              		.loc 1 208 3 view .LVU126
 376 0026 0D46     		mov	r5, r1
 377              		.loc 1 208 12 is_stmt 0 view .LVU127
 378 0028 0021     		movs	r1, #0
 379              	.LVL40:
 380              		.loc 1 208 12 view .LVU128
 381 002a 1646     		mov	r6, r2
 382 002c 0446     		mov	r4, r0
 383 002e FFF7FEFF 		bl	VL53L0X_SetOffsetCalibrationDataMicroMeter
 384              	.LVL41:
 385              		.loc 1 212 2 is_stmt 1 view .LVU129
 386              		.loc 1 212 5 is_stmt 0 view .LVU130
 387 0032 0028     		cmp	r0, #0
 388 0034 EFD1     		bne	.L30
 389              		.loc 1 213 3 is_stmt 1 view .LVU131
 390              		.loc 1 213 12 is_stmt 0 view .LVU132
 391 0036 0146     		mov	r1, r0
 392 0038 0DF10702 		add	r2, sp, #7
 393 003c 2046     		mov	r0, r4
 394              	.LVL42:
 395              		.loc 1 213 12 view .LVU133
 396 003e FFF7FEFF 		bl	VL53L0X_GetSequenceStepEnable
 397              	.LVL43:
 398              		.loc 1 218 2 is_stmt 1 view .LVU134
 399              		.loc 1 218 5 is_stmt 0 view .LVU135
ARM GAS  /tmp/ccqyZH0w.s 			page 8


 400 0042 0028     		cmp	r0, #0
 401 0044 E7D1     		bne	.L30
 402              		.loc 1 219 3 is_stmt 1 view .LVU136
 403              		.loc 1 219 12 is_stmt 0 view .LVU137
 404 0046 0246     		mov	r2, r0
 405 0048 0146     		mov	r1, r0
 406 004a 2046     		mov	r0, r4
 407              	.LVL44:
 408              		.loc 1 219 12 view .LVU138
 409 004c FFF7FEFF 		bl	VL53L0X_SetSequenceStepEnable
 410              	.LVL45:
 411              		.loc 1 224 2 is_stmt 1 view .LVU139
 412              		.loc 1 224 5 is_stmt 0 view .LVU140
 413 0050 0028     		cmp	r0, #0
 414 0052 E0D1     		bne	.L30
 415              		.loc 1 225 3 is_stmt 1 view .LVU141
 416              		.loc 1 225 12 is_stmt 0 view .LVU142
 417 0054 0246     		mov	r2, r0
 418 0056 0321     		movs	r1, #3
 419 0058 2046     		mov	r0, r4
 420              	.LVL46:
 421              		.loc 1 225 12 view .LVU143
 422 005a FFF7FEFF 		bl	VL53L0X_SetLimitCheckEnable
 423              	.LVL47:
 424              		.loc 1 229 2 is_stmt 1 view .LVU144
 425              		.loc 1 229 5 is_stmt 0 view .LVU145
 426 005e 0028     		cmp	r0, #0
 427 0060 D9D1     		bne	.L30
 428              		.loc 1 231 15 view .LVU146
 429 0062 8046     		mov	r8, r0
 430              		.loc 1 230 15 view .LVU147
 431 0064 8146     		mov	r9, r0
 432 0066 3227     		movs	r7, #50
 433 0068 0BE0     		b	.L33
 434              	.LVL48:
 435              	.L50:
 436              		.loc 1 240 4 is_stmt 1 view .LVU148
 437              		.loc 1 240 7 is_stmt 0 view .LVU149
 438 006a 9DF82030 		ldrb	r3, [sp, #32]	@ zero_extendqisi2
 439 006e 33B9     		cbnz	r3, .L32
 440              		.loc 1 241 5 is_stmt 1 view .LVU150
 441              		.loc 1 241 17 is_stmt 0 view .LVU151
 442 0070 BDF81030 		ldrh	r3, [sp, #16]
 443 0074 4B44     		add	r3, r3, r9
 444              		.loc 1 243 17 view .LVU152
 445 0076 08F10108 		add	r8, r8, #1
 446              	.LVL49:
 447              		.loc 1 241 17 view .LVU153
 448 007a 1FFA83F9 		uxth	r9, r3
 449              	.LVL50:
 450              		.loc 1 243 5 is_stmt 1 view .LVU154
 451              	.L32:
 452              		.loc 1 232 29 discriminator 2 view .LVU155
 453              		.loc 1 232 18 discriminator 2 view .LVU156
 454              		.loc 1 232 3 is_stmt 0 discriminator 2 view .LVU157
 455 007e 013F     		subs	r7, r7, #1
 456              	.LVL51:
ARM GAS  /tmp/ccqyZH0w.s 			page 9


 457              		.loc 1 232 3 discriminator 2 view .LVU158
 458 0080 0BD0     		beq	.L49
 459              	.LVL52:
 460              	.L33:
 461              		.loc 1 233 4 is_stmt 1 view .LVU159
 462              		.loc 1 233 13 is_stmt 0 view .LVU160
 463 0082 02A9     		add	r1, sp, #8
 464 0084 2046     		mov	r0, r4
 465 0086 FFF7FEFF 		bl	VL53L0X_PerformSingleRangingMeasurement
 466              	.LVL53:
 467              		.loc 1 236 4 is_stmt 1 view .LVU161
 468              		.loc 1 236 7 is_stmt 0 view .LVU162
 469 008a 0028     		cmp	r0, #0
 470 008c EDD0     		beq	.L50
 471              		.loc 1 248 3 is_stmt 1 view .LVU163
 472              		.loc 1 249 11 is_stmt 0 view .LVU164
 473 008e B8F1000F 		cmp	r8, #0
 474 0092 08BF     		it	eq
 475 0094 6FF00500 		mvneq	r0, #5
 476              	.LVL54:
 477              		.loc 1 249 11 view .LVU165
 478 0098 BDE7     		b	.L30
 479              	.LVL55:
 480              	.L49:
 481              		.loc 1 248 3 is_stmt 1 view .LVU166
 482              		.loc 1 248 6 is_stmt 0 view .LVU167
 483 009a B8F1000F 		cmp	r8, #0
 484 009e 02D1     		bne	.L45
 485              		.loc 1 249 11 view .LVU168
 486 00a0 6FF00500 		mvn	r0, #5
 487 00a4 B7E7     		b	.L30
 488              	.L45:
 489              		.loc 1 255 3 is_stmt 1 view .LVU169
 490              	.LVL56:
 491              		.loc 1 258 3 view .LVU170
 492              		.loc 1 263 4 view .LVU171
 493              		.loc 1 265 4 view .LVU172
 494              		.loc 1 255 61 is_stmt 0 view .LVU173
 495 00a6 4FEA0941 		lsl	r1, r9, #16
 496              		.loc 1 255 19 view .LVU174
 497 00aa B1FBF8F1 		udiv	r1, r1, r8
 498              		.loc 1 258 43 view .LVU175
 499 00ae 01F50041 		add	r1, r1, #32768
 500              		.loc 1 263 49 view .LVU176
 501 00b2 05F50045 		add	r5, r5, #32768
 502              	.LVL57:
 503              		.loc 1 258 24 view .LVU177
 504 00b6 090C     		lsrs	r1, r1, #16
 505              		.loc 1 265 46 view .LVU178
 506 00b8 C1EB1541 		rsb	r1, r1, r5, lsr #16
 507              		.loc 1 266 28 view .LVU179
 508 00bc 4FF47A75 		mov	r5, #1000
 509              	.LVL58:
 510              		.loc 1 266 28 view .LVU180
 511 00c0 05FB01F1 		mul	r1, r5, r1
 512              		.loc 1 265 23 view .LVU181
 513 00c4 3160     		str	r1, [r6]
ARM GAS  /tmp/ccqyZH0w.s 			page 10


 514              		.loc 1 269 3 is_stmt 1 view .LVU182
 515              		.loc 1 270 4 view .LVU183
 516              		.loc 1 272 13 is_stmt 0 view .LVU184
 517 00c6 2046     		mov	r0, r4
 518              		.loc 1 270 4 view .LVU185
 519 00c8 6162     		str	r1, [r4, #36]
 520              		.loc 1 272 4 is_stmt 1 view .LVU186
 521              		.loc 1 272 13 is_stmt 0 view .LVU187
 522 00ca FFF7FEFF 		bl	VL53L0X_SetOffsetCalibrationDataMicroMeter
 523              	.LVL59:
 524              		.loc 1 279 2 is_stmt 1 view .LVU188
 525              		.loc 1 279 5 is_stmt 0 view .LVU189
 526 00ce 0028     		cmp	r0, #0
 527 00d0 A1D1     		bne	.L30
 528              		.loc 1 280 3 is_stmt 1 view .LVU190
 529              		.loc 1 280 6 is_stmt 0 view .LVU191
 530 00d2 9DF80730 		ldrb	r3, [sp, #7]	@ zero_extendqisi2
 531 00d6 002B     		cmp	r3, #0
 532 00d8 9DD0     		beq	.L30
 533              		.loc 1 281 4 is_stmt 1 view .LVU192
 534              		.loc 1 281 13 is_stmt 0 view .LVU193
 535 00da 3946     		mov	r1, r7
 536 00dc 2046     		mov	r0, r4
 537              	.LVL60:
 538              		.loc 1 281 13 view .LVU194
 539 00de 0122     		movs	r2, #1
 540 00e0 FFF7FEFF 		bl	VL53L0X_SetSequenceStepEnable
 541              	.LVL61:
 542              		.loc 1 281 13 view .LVU195
 543 00e4 97E7     		b	.L30
 544              	.LVL62:
 545              	.L48:
 546              		.loc 1 286 1 view .LVU196
 547 00e6 FFF7FEFF 		bl	__stack_chk_fail
 548              	.LVL63:
 549              	.L52:
 550              		.loc 1 286 1 view .LVU197
 551 00ea 00BF     		.align	2
 552              	.L51:
 553 00ec 00000000 		.word	.LC1
 554              		.cfi_endproc
 555              	.LFE4:
 556              		.size	VL53L0X_perform_offset_calibration, .-VL53L0X_perform_offset_calibration
 557              		.section	.rodata.VL53L0X_set_offset_calibration_data_micro_meter.cst4,"aM",%progbits,4
 558              		.align	2
 559              	.LC2:
 560 0000 00000000 		.word	__stack_chk_guard
 561              		.section	.text.VL53L0X_set_offset_calibration_data_micro_meter,"ax",%progbits
 562              		.align	1
 563              		.p2align 4,,15
 564              		.global	VL53L0X_set_offset_calibration_data_micro_meter
 565              		.syntax unified
 566              		.thumb
 567              		.thumb_func
 568              		.fpu fpv4-sp-d16
 569              		.type	VL53L0X_set_offset_calibration_data_micro_meter, %function
 570              	VL53L0X_set_offset_calibration_data_micro_meter:
ARM GAS  /tmp/ccqyZH0w.s 			page 11


 571              	.LVL64:
 572              	.LFB5:
 573              		.loc 1 291 1 is_stmt 1 view -0
 574              		.cfi_startproc
 575              		@ args = 0, pretend = 0, frame = 8
 576              		@ frame_needed = 0, uses_anonymous_args = 0
 577              		.loc 1 291 1 is_stmt 0 view .LVU199
 578 0000 00B5     		push	{lr}
 579              		.cfi_def_cfa_offset 4
 580              		.cfi_offset 14, -4
 581              		.loc 1 300 5 view .LVU200
 582 0002 154B     		ldr	r3, .L65
 583              		.loc 1 291 1 view .LVU201
 584 0004 154A     		ldr	r2, .L65+4
 585 0006 83B0     		sub	sp, sp, #12
 586              		.cfi_def_cfa_offset 16
 587              		.loc 1 300 5 view .LVU202
 588 0008 9942     		cmp	r1, r3
 589              		.loc 1 291 1 view .LVU203
 590 000a 1268     		ldr	r2, [r2]
 591 000c 0192     		str	r2, [sp, #4]
 592 000e 4FF00002 		mov	r2,#0
 593              		.loc 1 292 2 is_stmt 1 view .LVU204
 594              	.LVL65:
 595              		.loc 1 293 2 view .LVU205
 596              		.loc 1 294 2 view .LVU206
 597              		.loc 1 295 2 view .LVU207
 598              		.loc 1 296 2 view .LVU208
 599              		.loc 1 298 2 view .LVU209
 600              		.loc 1 300 2 view .LVU210
 601              		.loc 1 300 5 is_stmt 0 view .LVU211
 602 0012 05DC     		bgt	.L60
 603              		.loc 1 302 7 is_stmt 1 view .LVU212
 604              		.loc 1 302 10 is_stmt 0 view .LVU213
 605 0014 11F5FA2F 		cmn	r1, #512000
 606 0018 0FDA     		bge	.L63
 607 001a 4FF40062 		mov	r2, #2048
 608              	.LVL66:
 609              		.loc 1 313 3 is_stmt 1 view .LVU214
 610              		.loc 1 313 3 is_stmt 0 view .LVU215
 611 001e 01E0     		b	.L57
 612              	.LVL67:
 613              	.L60:
 614              		.loc 1 313 3 view .LVU216
 615 0020 40F2FC72 		movw	r2, #2044
 616              	.LVL68:
 617              		.loc 1 310 3 is_stmt 1 view .LVU217
 618              	.L57:
 619              		.loc 1 318 2 view .LVU218
 620              		.loc 1 318 11 is_stmt 0 view .LVU219
 621 0024 0D4B     		ldr	r3, .L65+4
 622 0026 1968     		ldr	r1, [r3]
 623 0028 019B     		ldr	r3, [sp, #4]
 624 002a 5940     		eors	r1, r3, r1
 625 002c 12D1     		bne	.L64
 626 002e 2821     		movs	r1, #40
 627              		.loc 1 324 1 view .LVU220
ARM GAS  /tmp/ccqyZH0w.s 			page 12


 628 0030 03B0     		add	sp, sp, #12
 629              		.cfi_remember_state
 630              		.cfi_def_cfa_offset 4
 631              		@ sp needed
 632 0032 5DF804EB 		ldr	lr, [sp], #4
 633              		.cfi_restore 14
 634              		.cfi_def_cfa_offset 0
 635              		.loc 1 318 11 view .LVU221
 636 0036 FFF7FEBF 		b	VL53L0X_WrWord
 637              	.LVL69:
 638              	.L63:
 639              		.cfi_restore_state
 640              		.loc 1 309 2 is_stmt 1 view .LVU222
 641 003a 094B     		ldr	r3, .L65+8
 642 003c CA17     		asrs	r2, r1, #31
 643              		.loc 1 309 5 is_stmt 0 view .LVU223
 644 003e 0029     		cmp	r1, #0
 645 0040 83FB0131 		smull	r3, r1, r3, r1
 646              	.LVL70:
 647              		.loc 1 309 5 view .LVU224
 648 0044 C2EB2111 		rsb	r1, r2, r1, asr #4
 649 0048 BABF     		itte	lt
 650 004a 01F58052 		addlt	r2, r1, #4096
 651 004e 92B2     		uxthlt	r2, r2
 652 0050 8AB2     		uxthge	r2, r1
 653 0052 E7E7     		b	.L57
 654              	.LVL71:
 655              	.L64:
 656              		.loc 1 318 11 view .LVU225
 657 0054 FFF7FEFF 		bl	__stack_chk_fail
 658              	.LVL72:
 659              	.L66:
 660              		.loc 1 318 11 view .LVU226
 661              		.align	2
 662              	.L65:
 663 0058 18CC0700 		.word	511000
 664 005c 00000000 		.word	.LC2
 665 0060 D34D6210 		.word	274877907
 666              		.cfi_endproc
 667              	.LFE5:
 668              		.size	VL53L0X_set_offset_calibration_data_micro_meter, .-VL53L0X_set_offset_calibration_data_micro
 669              		.section	.rodata.VL53L0X_get_offset_calibration_data_micro_meter.cst4,"aM",%progbits,4
 670              		.align	2
 671              	.LC3:
 672 0000 00000000 		.word	__stack_chk_guard
 673              		.section	.text.VL53L0X_get_offset_calibration_data_micro_meter,"ax",%progbits
 674              		.align	1
 675              		.p2align 4,,15
 676              		.global	VL53L0X_get_offset_calibration_data_micro_meter
 677              		.syntax unified
 678              		.thumb
 679              		.thumb_func
 680              		.fpu fpv4-sp-d16
 681              		.type	VL53L0X_get_offset_calibration_data_micro_meter, %function
 682              	VL53L0X_get_offset_calibration_data_micro_meter:
 683              	.LVL73:
 684              	.LFB6:
ARM GAS  /tmp/ccqyZH0w.s 			page 13


 685              		.loc 1 328 1 is_stmt 1 view -0
 686              		.cfi_startproc
 687              		@ args = 0, pretend = 0, frame = 8
 688              		@ frame_needed = 0, uses_anonymous_args = 0
 689              		.loc 1 328 1 is_stmt 0 view .LVU228
 690 0000 10B5     		push	{r4, lr}
 691              		.cfi_def_cfa_offset 8
 692              		.cfi_offset 4, -8
 693              		.cfi_offset 14, -4
 694 0002 144B     		ldr	r3, .L73
 695 0004 82B0     		sub	sp, sp, #8
 696              		.cfi_def_cfa_offset 16
 697              		.loc 1 328 1 view .LVU229
 698 0006 0C46     		mov	r4, r1
 699              		.loc 1 336 11 view .LVU230
 700 0008 0DF10202 		add	r2, sp, #2
 701 000c 2821     		movs	r1, #40
 702              	.LVL74:
 703              		.loc 1 328 1 view .LVU231
 704 000e 1B68     		ldr	r3, [r3]
 705 0010 0193     		str	r3, [sp, #4]
 706 0012 4FF00003 		mov	r3,#0
 707              		.loc 1 329 2 is_stmt 1 view .LVU232
 708              	.LVL75:
 709              		.loc 1 330 2 view .LVU233
 710              		.loc 1 331 2 view .LVU234
 711              		.loc 1 332 2 view .LVU235
 712              		.loc 1 336 2 view .LVU236
 713              		.loc 1 336 11 is_stmt 0 view .LVU237
 714 0016 FFF7FEFF 		bl	VL53L0X_RdWord
 715              	.LVL76:
 716              		.loc 1 340 2 is_stmt 1 view .LVU238
 717              		.loc 1 340 5 is_stmt 0 view .LVU239
 718 001a 68B9     		cbnz	r0, .L68
 719              		.loc 1 341 3 is_stmt 1 view .LVU240
 720              		.loc 1 341 46 is_stmt 0 view .LVU241
 721 001c BDF80220 		ldrh	r2, [sp, #2]
 722 0020 C2F30B03 		ubfx	r3, r2, #0, #12
 723              	.LVL77:
 724              		.loc 1 344 3 is_stmt 1 view .LVU242
 725              		.loc 1 344 6 is_stmt 0 view .LVU243
 726 0024 1205     		lsls	r2, r2, #20
 727 0026 0ED5     		bpl	.L69
 728              		.loc 1 345 4 is_stmt 1 view .LVU244
 729              		.loc 1 346 35 is_stmt 0 view .LVU245
 730 0028 A3F58053 		sub	r3, r3, #4096
 731              	.LVL78:
 732              		.loc 1 347 6 view .LVU246
 733 002c C3EB4312 		rsb	r2, r3, r3, lsl #5
 734 0030 03EB8203 		add	r3, r3, r2, lsl #2
 735              	.LVL79:
 736              		.loc 1 347 6 view .LVU247
 737 0034 5B00     		lsls	r3, r3, #1
 738              		.loc 1 345 38 view .LVU248
 739 0036 2360     		str	r3, [r4]
 740              	.LVL80:
 741              	.L68:
ARM GAS  /tmp/ccqyZH0w.s 			page 14


 742              		.loc 1 354 2 is_stmt 1 view .LVU249
 743              		.loc 1 355 1 is_stmt 0 view .LVU250
 744 0038 064B     		ldr	r3, .L73
 745 003a 1A68     		ldr	r2, [r3]
 746 003c 019B     		ldr	r3, [sp, #4]
 747 003e 5A40     		eors	r2, r3, r2
 748 0040 06D1     		bne	.L72
 749 0042 02B0     		add	sp, sp, #8
 750              		.cfi_remember_state
 751              		.cfi_def_cfa_offset 8
 752              		@ sp needed
 753 0044 10BD     		pop	{r4, pc}
 754              	.LVL81:
 755              	.L69:
 756              		.cfi_restore_state
 757              		.loc 1 349 4 is_stmt 1 view .LVU251
 758              		.loc 1 350 34 is_stmt 0 view .LVU252
 759 0046 FA22     		movs	r2, #250
 760 0048 02FB03F3 		mul	r3, r2, r3
 761              	.LVL82:
 762              		.loc 1 349 38 view .LVU253
 763 004c 2360     		str	r3, [r4]
 764 004e F3E7     		b	.L68
 765              	.LVL83:
 766              	.L72:
 767              		.loc 1 355 1 view .LVU254
 768 0050 FFF7FEFF 		bl	__stack_chk_fail
 769              	.LVL84:
 770              	.L74:
 771              		.loc 1 355 1 view .LVU255
 772              		.align	2
 773              	.L73:
 774 0054 00000000 		.word	.LC3
 775              		.cfi_endproc
 776              	.LFE6:
 777              		.size	VL53L0X_get_offset_calibration_data_micro_meter, .-VL53L0X_get_offset_calibration_data_micro
 778              		.section	.rodata.VL53L0X_apply_offset_adjustment.cst4,"aM",%progbits,4
 779              		.align	2
 780              	.LC4:
 781 0000 00000000 		.word	__stack_chk_guard
 782              		.section	.text.VL53L0X_apply_offset_adjustment,"ax",%progbits
 783              		.align	1
 784              		.p2align 4,,15
 785              		.global	VL53L0X_apply_offset_adjustment
 786              		.syntax unified
 787              		.thumb
 788              		.thumb_func
 789              		.fpu fpv4-sp-d16
 790              		.type	VL53L0X_apply_offset_adjustment, %function
 791              	VL53L0X_apply_offset_adjustment:
 792              	.LVL85:
 793              	.LFB7:
 794              		.loc 1 359 1 is_stmt 1 view -0
 795              		.cfi_startproc
 796              		@ args = 0, pretend = 0, frame = 8
 797              		@ frame_needed = 0, uses_anonymous_args = 0
 798              		.loc 1 359 1 is_stmt 0 view .LVU257
ARM GAS  /tmp/ccqyZH0w.s 			page 15


 799 0000 30B5     		push	{r4, r5, lr}
 800              		.cfi_def_cfa_offset 12
 801              		.cfi_offset 4, -12
 802              		.cfi_offset 5, -8
 803              		.cfi_offset 14, -4
 804 0002 134B     		ldr	r3, .L81
 805 0004 83B0     		sub	sp, sp, #12
 806              		.cfi_def_cfa_offset 24
 807              		.loc 1 366 11 view .LVU258
 808 0006 0721     		movs	r1, #7
 809              		.loc 1 359 1 view .LVU259
 810 0008 1B68     		ldr	r3, [r3]
 811 000a 0193     		str	r3, [sp, #4]
 812 000c 4FF00003 		mov	r3,#0
 813              		.loc 1 360 2 is_stmt 1 view .LVU260
 814              	.LVL86:
 815              		.loc 1 361 2 view .LVU261
 816              		.loc 1 362 2 view .LVU262
 817              		.loc 1 366 2 view .LVU263
 818              		.loc 1 359 1 is_stmt 0 view .LVU264
 819 0010 0446     		mov	r4, r0
 820              		.loc 1 366 11 view .LVU265
 821 0012 FFF7FEFF 		bl	VL53L0X_get_info_from_device
 822              	.LVL87:
 823              		.loc 1 369 2 is_stmt 1 view .LVU266
 824              		.loc 1 369 5 is_stmt 0 view .LVU267
 825 0016 30B1     		cbz	r0, .L79
 826              	.L76:
 827              		.loc 1 395 2 is_stmt 1 view .LVU268
 828              		.loc 1 396 1 is_stmt 0 view .LVU269
 829 0018 0D4B     		ldr	r3, .L81
 830 001a 1A68     		ldr	r2, [r3]
 831 001c 019B     		ldr	r3, [sp, #4]
 832 001e 5A40     		eors	r2, r3, r2
 833 0020 13D1     		bne	.L80
 834              		.loc 1 396 1 view .LVU270
 835 0022 03B0     		add	sp, sp, #12
 836              		.cfi_remember_state
 837              		.cfi_def_cfa_offset 12
 838              		@ sp needed
 839 0024 30BD     		pop	{r4, r5, pc}
 840              	.LVL88:
 841              	.L79:
 842              		.cfi_restore_state
 843              		.loc 1 370 3 is_stmt 1 view .LVU271
 844              		.loc 1 370 12 is_stmt 0 view .LVU272
 845 0026 6946     		mov	r1, sp
 846 0028 2046     		mov	r0, r4
 847              	.LVL89:
 848              		.loc 1 370 12 view .LVU273
 849 002a FFF7FEFF 		bl	VL53L0X_GetOffsetCalibrationDataMicroMeter
 850              	.LVL90:
 851              		.loc 1 375 2 is_stmt 1 view .LVU274
 852              		.loc 1 375 5 is_stmt 0 view .LVU275
 853 002e 0028     		cmp	r0, #0
 854 0030 F2D1     		bne	.L76
 855              		.loc 1 378 3 is_stmt 1 view .LVU276
ARM GAS  /tmp/ccqyZH0w.s 			page 16


 856 0032 0099     		ldr	r1, [sp]
 857              		.loc 1 381 30 is_stmt 0 view .LVU277
 858 0034 E568     		ldr	r5, [r4, #12]
 859              		.loc 1 378 3 view .LVU278
 860 0036 A160     		str	r1, [r4, #8]
 861              		.loc 1 381 3 is_stmt 1 view .LVU279
 862              		.loc 1 381 30 is_stmt 0 view .LVU280
 863 0038 0D44     		add	r5, r5, r1
 864              	.LVL91:
 865              		.loc 1 385 3 is_stmt 1 view .LVU281
 866              		.loc 1 385 12 is_stmt 0 view .LVU282
 867 003a 2946     		mov	r1, r5
 868 003c 2046     		mov	r0, r4
 869              	.LVL92:
 870              		.loc 1 385 12 view .LVU283
 871 003e FFF7FEFF 		bl	VL53L0X_SetOffsetCalibrationDataMicroMeter
 872              	.LVL93:
 873              		.loc 1 389 3 is_stmt 1 view .LVU284
 874              		.loc 1 389 6 is_stmt 0 view .LVU285
 875 0042 0028     		cmp	r0, #0
 876 0044 E8D1     		bne	.L76
 877              		.loc 1 390 4 is_stmt 1 view .LVU286
 878 0046 6562     		str	r5, [r4, #36]
 879 0048 E6E7     		b	.L76
 880              	.LVL94:
 881              	.L80:
 882              		.loc 1 396 1 is_stmt 0 view .LVU287
 883 004a FFF7FEFF 		bl	__stack_chk_fail
 884              	.LVL95:
 885              	.L82:
 886              		.loc 1 396 1 view .LVU288
 887 004e 00BF     		.align	2
 888              	.L81:
 889 0050 00000000 		.word	.LC4
 890              		.cfi_endproc
 891              	.LFE7:
 892              		.size	VL53L0X_apply_offset_adjustment, .-VL53L0X_apply_offset_adjustment
 893              		.section	.rodata.get_next_good_spad.cst4,"aM",%progbits,4
 894              		.align	2
 895              	.LC5:
 896 0000 00000000 		.word	__stack_chk_guard
 897              		.section	.text.get_next_good_spad,"ax",%progbits
 898              		.align	1
 899              		.p2align 4,,15
 900              		.global	get_next_good_spad
 901              		.syntax unified
 902              		.thumb
 903              		.thumb_func
 904              		.fpu fpv4-sp-d16
 905              		.type	get_next_good_spad, %function
 906              	get_next_good_spad:
 907              	.LVL96:
 908              	.LFB8:
 909              		.loc 1 400 1 is_stmt 1 view -0
 910              		.cfi_startproc
 911              		@ args = 0, pretend = 0, frame = 8
 912              		@ frame_needed = 0, uses_anonymous_args = 0
ARM GAS  /tmp/ccqyZH0w.s 			page 17


 913              		.loc 1 400 1 is_stmt 0 view .LVU290
 914 0000 F0B5     		push	{r4, r5, r6, r7, lr}
 915              		.cfi_def_cfa_offset 20
 916              		.cfi_offset 4, -20
 917              		.cfi_offset 5, -16
 918              		.cfi_offset 6, -12
 919              		.cfi_offset 7, -8
 920              		.cfi_offset 14, -4
 921 0002 194D     		ldr	r5, .L96
 922 0004 83B0     		sub	sp, sp, #12
 923              		.cfi_def_cfa_offset 32
 924              		.loc 1 417 8 view .LVU291
 925 0006 4FF0FF34 		mov	r4, #-1
 926              		.loc 1 422 2 view .LVU292
 927 000a B1EBD20F 		cmp	r1, r2, lsr #3
 928              		.loc 1 400 1 view .LVU293
 929 000e 2D68     		ldr	r5, [r5]
 930 0010 0195     		str	r5, [sp, #4]
 931 0012 4FF00005 		mov	r5,#0
 932              		.loc 1 401 2 is_stmt 1 view .LVU294
 933              		.loc 1 402 2 view .LVU295
 934              		.loc 1 403 2 view .LVU296
 935              	.LVL97:
 936              		.loc 1 404 2 view .LVU297
 937              		.loc 1 405 2 view .LVU298
 938              		.loc 1 406 2 view .LVU299
 939              		.loc 1 407 2 view .LVU300
 940              		.loc 1 417 2 view .LVU301
 941              		.loc 1 417 8 is_stmt 0 view .LVU302
 942 0016 1C60     		str	r4, [r3]
 943              		.loc 1 419 2 is_stmt 1 view .LVU303
 944              	.LVL98:
 945              		.loc 1 420 2 view .LVU304
 946              		.loc 1 422 2 view .LVU305
 947              		.loc 1 422 33 view .LVU306
 948              		.loc 1 422 2 is_stmt 0 view .LVU307
 949 0018 18D9     		bls	.L83
 950 001a D608     		lsrs	r6, r2, #3
 951              	.LVL99:
 952              		.loc 1 422 2 view .LVU308
 953 001c 3519     		adds	r5, r6, r4
 954 001e 02F00707 		and	r7, r2, #7
 955              	.LVL100:
 956              		.loc 1 422 2 view .LVU309
 957 0022 0544     		add	r5, r5, r0
 958 0024 3446     		mov	r4, r6
 959              	.LVL101:
 960              	.L88:
 961              		.loc 1 424 3 is_stmt 1 view .LVU310
 962              		.loc 1 425 3 view .LVU311
 963              		.loc 1 425 12 is_stmt 0 view .LVU312
 964 0026 15F8010F 		ldrb	r0, [r5, #1]!	@ zero_extendqisi2
 965              	.LVL102:
 966              		.loc 1 427 3 is_stmt 1 view .LVU313
 967              		.loc 1 427 6 is_stmt 0 view .LVU314
 968 002a A642     		cmp	r6, r4
 969              		.loc 1 430 4 is_stmt 1 view .LVU315
ARM GAS  /tmp/ccqyZH0w.s 			page 18


 970              		.loc 1 430 13 is_stmt 0 view .LVU316
 971 002c 03BF     		ittte	eq
 972 002e 3841     		asreq	r0, r0, r7
 973              	.LVL103:
 974              		.loc 1 430 13 view .LVU317
 975 0030 C0B2     		uxtbeq	r0, r0
 976              	.LVL104:
 977              		.loc 1 431 4 is_stmt 1 view .LVU318
 978              		.loc 1 431 14 is_stmt 0 view .LVU319
 979 0032 3A46     		moveq	r2, r7
 980              		.loc 1 424 13 view .LVU320
 981 0034 0022     		movne	r2, #0
 982              	.LVL105:
 983              	.L87:
 984              		.loc 1 435 4 is_stmt 1 view .LVU321
 985              		.loc 1 435 7 is_stmt 0 view .LVU322
 986 0036 10F0010F 		tst	r0, #1
 987 003a 0ED1     		bne	.L94
 988              		.loc 1 440 4 is_stmt 1 view .LVU323
 989              		.loc 1 441 13 is_stmt 0 view .LVU324
 990 003c 0132     		adds	r2, r2, #1
 991              	.LVL106:
 992              		.loc 1 434 9 view .LVU325
 993 003e 082A     		cmp	r2, #8
 994              		.loc 1 440 13 view .LVU326
 995 0040 4FEA5000 		lsr	r0, r0, #1
 996              	.LVL107:
 997              		.loc 1 441 4 is_stmt 1 view .LVU327
 998              		.loc 1 434 9 view .LVU328
 999 0044 F7D1     		bne	.L87
 1000              		.loc 1 423 5 view .LVU329
 1001              	.LVL108:
 1002              		.loc 1 423 16 is_stmt 0 view .LVU330
 1003 0046 0134     		adds	r4, r4, #1
 1004              	.LVL109:
 1005              		.loc 1 422 33 is_stmt 1 view .LVU331
 1006              		.loc 1 422 2 is_stmt 0 view .LVU332
 1007 0048 A142     		cmp	r1, r4
 1008 004a ECD1     		bne	.L88
 1009              	.LVL110:
 1010              	.L83:
 1011              		.loc 1 444 1 view .LVU333
 1012 004c 064B     		ldr	r3, .L96
 1013              	.LVL111:
 1014              		.loc 1 444 1 view .LVU334
 1015 004e 1A68     		ldr	r2, [r3]
 1016 0050 019B     		ldr	r3, [sp, #4]
 1017 0052 5A40     		eors	r2, r3, r2
 1018 0054 05D1     		bne	.L95
 1019 0056 03B0     		add	sp, sp, #12
 1020              		.cfi_remember_state
 1021              		.cfi_def_cfa_offset 20
 1022              		@ sp needed
 1023 0058 F0BD     		pop	{r4, r5, r6, r7, pc}
 1024              	.LVL112:
 1025              	.L94:
 1026              		.cfi_restore_state
ARM GAS  /tmp/ccqyZH0w.s 			page 19


 1027              		.loc 1 436 5 is_stmt 1 view .LVU335
 1028              		.loc 1 437 5 view .LVU336
 1029              		.loc 1 437 41 is_stmt 0 view .LVU337
 1030 005a 02EBC402 		add	r2, r2, r4, lsl #3
 1031              	.LVL113:
 1032              		.loc 1 437 11 view .LVU338
 1033 005e 1A60     		str	r2, [r3]
 1034              		.loc 1 438 5 is_stmt 1 view .LVU339
 1035              		.loc 1 423 5 view .LVU340
 1036              	.LVL114:
 1037              		.loc 1 422 33 view .LVU341
 1038 0060 F4E7     		b	.L83
 1039              	.LVL115:
 1040              	.L95:
 1041              		.loc 1 444 1 is_stmt 0 view .LVU342
 1042 0062 FFF7FEFF 		bl	__stack_chk_fail
 1043              	.LVL116:
 1044              	.L97:
 1045              		.loc 1 444 1 view .LVU343
 1046 0066 00BF     		.align	2
 1047              	.L96:
 1048 0068 00000000 		.word	.LC5
 1049              		.cfi_endproc
 1050              	.LFE8:
 1051              		.size	get_next_good_spad, .-get_next_good_spad
 1052              		.section	.rodata.is_aperture.cst4,"aM",%progbits,4
 1053              		.align	2
 1054              	.LC6:
 1055 0000 00000000 		.word	__stack_chk_guard
 1056              		.section	.text.is_aperture,"ax",%progbits
 1057              		.align	1
 1058              		.p2align 4,,15
 1059              		.global	is_aperture
 1060              		.syntax unified
 1061              		.thumb
 1062              		.thumb_func
 1063              		.fpu fpv4-sp-d16
 1064              		.type	is_aperture, %function
 1065              	is_aperture:
 1066              	.LVL117:
 1067              	.LFB9:
 1068              		.loc 1 448 1 is_stmt 1 view -0
 1069              		.cfi_startproc
 1070              		@ args = 0, pretend = 0, frame = 8
 1071              		@ frame_needed = 0, uses_anonymous_args = 0
 1072              		.loc 1 448 1 is_stmt 0 view .LVU345
 1073 0000 00B5     		push	{lr}
 1074              		.cfi_def_cfa_offset 4
 1075              		.cfi_offset 14, -4
 1076              		.loc 1 456 23 view .LVU346
 1077 0002 0B4B     		ldr	r3, .L102
 1078              		.loc 1 448 1 view .LVU347
 1079 0004 0B4A     		ldr	r2, .L102+4
 1080              		.loc 1 455 11 view .LVU348
 1081 0006 8009     		lsrs	r0, r0, #6
 1082              	.LVL118:
 1083              		.loc 1 448 1 view .LVU349
ARM GAS  /tmp/ccqyZH0w.s 			page 20


 1084 0008 83B0     		sub	sp, sp, #12
 1085              		.cfi_def_cfa_offset 16
 1086              		.loc 1 456 5 view .LVU350
 1087 000a 53F82000 		ldr	r0, [r3, r0, lsl #2]
 1088              		.loc 1 460 1 view .LVU351
 1089 000e 094B     		ldr	r3, .L102+4
 1090              		.loc 1 459 9 view .LVU352
 1091 0010 0038     		subs	r0, r0, #0
 1092              		.loc 1 448 1 view .LVU353
 1093 0012 1268     		ldr	r2, [r2]
 1094 0014 0192     		str	r2, [sp, #4]
 1095 0016 4FF00002 		mov	r2,#0
 1096              		.loc 1 453 2 is_stmt 1 view .LVU354
 1097              		.loc 1 454 2 view .LVU355
 1098              	.LVL119:
 1099              		.loc 1 455 2 view .LVU356
 1100              		.loc 1 456 2 view .LVU357
 1101              		.loc 1 459 2 view .LVU358
 1102              		.loc 1 459 9 is_stmt 0 view .LVU359
 1103 001a 18BF     		it	ne
 1104 001c 0120     		movne	r0, #1
 1105              		.loc 1 460 1 view .LVU360
 1106 001e 1A68     		ldr	r2, [r3]
 1107 0020 019B     		ldr	r3, [sp, #4]
 1108 0022 5A40     		eors	r2, r3, r2
 1109 0024 02D1     		bne	.L101
 1110 0026 03B0     		add	sp, sp, #12
 1111              		.cfi_remember_state
 1112              		.cfi_def_cfa_offset 4
 1113              		@ sp needed
 1114 0028 5DF804FB 		ldr	pc, [sp], #4
 1115              	.L101:
 1116              		.cfi_restore_state
 1117 002c FFF7FEFF 		bl	__stack_chk_fail
 1118              	.LVL120:
 1119              	.L103:
 1120              		.loc 1 460 1 view .LVU361
 1121              		.align	2
 1122              	.L102:
 1123 0030 00000000 		.word	.LANCHOR0
 1124 0034 00000000 		.word	.LC6
 1125              		.cfi_endproc
 1126              	.LFE9:
 1127              		.size	is_aperture, .-is_aperture
 1128              		.section	.rodata.enable_spad_bit.cst4,"aM",%progbits,4
 1129              		.align	2
 1130              	.LC7:
 1131 0000 00000000 		.word	__stack_chk_guard
 1132              		.section	.text.enable_spad_bit,"ax",%progbits
 1133              		.align	1
 1134              		.p2align 4,,15
 1135              		.global	enable_spad_bit
 1136              		.syntax unified
 1137              		.thumb
 1138              		.thumb_func
 1139              		.fpu fpv4-sp-d16
 1140              		.type	enable_spad_bit, %function
ARM GAS  /tmp/ccqyZH0w.s 			page 21


 1141              	enable_spad_bit:
 1142              	.LVL121:
 1143              	.LFB10:
 1144              		.loc 1 465 1 is_stmt 1 view -0
 1145              		.cfi_startproc
 1146              		@ args = 0, pretend = 0, frame = 8
 1147              		@ frame_needed = 0, uses_anonymous_args = 0
 1148              		.loc 1 465 1 is_stmt 0 view .LVU363
 1149 0000 30B5     		push	{r4, r5, lr}
 1150              		.cfi_def_cfa_offset 12
 1151              		.cfi_offset 4, -12
 1152              		.cfi_offset 5, -8
 1153              		.cfi_offset 14, -4
 1154 0002 0F4B     		ldr	r3, .L110
 1155 0004 83B0     		sub	sp, sp, #12
 1156              		.cfi_def_cfa_offset 24
 1157              		.loc 1 473 5 view .LVU364
 1158 0006 B1EBD20F 		cmp	r1, r2, lsr #3
 1159              		.loc 1 465 1 view .LVU365
 1160 000a 1B68     		ldr	r3, [r3]
 1161 000c 0193     		str	r3, [sp, #4]
 1162 000e 4FF00003 		mov	r3,#0
 1163              		.loc 1 466 2 is_stmt 1 view .LVU366
 1164              	.LVL122:
 1165              		.loc 1 467 2 view .LVU367
 1166              		.loc 1 468 2 view .LVU368
 1167              		.loc 1 469 2 view .LVU369
 1168              		.loc 1 471 2 view .LVU370
 1169              		.loc 1 472 2 view .LVU371
 1170              		.loc 1 473 2 view .LVU372
 1171              		.loc 1 473 5 is_stmt 0 view .LVU373
 1172 0012 0FD9     		bls	.L107
 1173 0014 D408     		lsrs	r4, r2, #3
 1174              	.LVL123:
 1175              		.loc 1 473 5 view .LVU374
 1176 0016 02F00705 		and	r5, r2, #7
 1177              	.LVL124:
 1178              		.loc 1 476 3 is_stmt 1 view .LVU375
 1179              		.loc 1 476 26 is_stmt 0 view .LVU376
 1180 001a 035D     		ldrb	r3, [r0, r4]	@ zero_extendqisi2
 1181              		.loc 1 476 32 view .LVU377
 1182 001c 0122     		movs	r2, #1
 1183              	.LVL125:
 1184              		.loc 1 476 32 view .LVU378
 1185 001e AA40     		lsls	r2, r2, r5
 1186              		.loc 1 476 26 view .LVU379
 1187 0020 1343     		orrs	r3, r3, r2
 1188 0022 0355     		strb	r3, [r0, r4]
 1189              		.loc 1 466 16 view .LVU380
 1190 0024 0020     		movs	r0, #0
 1191              	.LVL126:
 1192              	.L105:
 1193              		.loc 1 478 2 is_stmt 1 view .LVU381
 1194              		.loc 1 479 1 is_stmt 0 view .LVU382
 1195 0026 064B     		ldr	r3, .L110
 1196 0028 1A68     		ldr	r2, [r3]
 1197 002a 019B     		ldr	r3, [sp, #4]
ARM GAS  /tmp/ccqyZH0w.s 			page 22


 1198 002c 5A40     		eors	r2, r3, r2
 1199 002e 04D1     		bne	.L109
 1200 0030 03B0     		add	sp, sp, #12
 1201              		.cfi_remember_state
 1202              		.cfi_def_cfa_offset 12
 1203              		@ sp needed
 1204 0032 30BD     		pop	{r4, r5, pc}
 1205              	.LVL127:
 1206              	.L107:
 1207              		.cfi_restore_state
 1208              		.loc 1 474 10 view .LVU383
 1209 0034 6FF03100 		mvn	r0, #49
 1210              	.LVL128:
 1211              		.loc 1 474 10 view .LVU384
 1212 0038 F5E7     		b	.L105
 1213              	.LVL129:
 1214              	.L109:
 1215              		.loc 1 479 1 view .LVU385
 1216 003a FFF7FEFF 		bl	__stack_chk_fail
 1217              	.LVL130:
 1218              	.L111:
 1219              		.loc 1 479 1 view .LVU386
 1220 003e 00BF     		.align	2
 1221              	.L110:
 1222 0040 00000000 		.word	.LC7
 1223              		.cfi_endproc
 1224              	.LFE10:
 1225              		.size	enable_spad_bit, .-enable_spad_bit
 1226              		.section	.rodata.count_enabled_spads.cst4,"aM",%progbits,4
 1227              		.align	2
 1228              	.LC8:
 1229 0000 00000000 		.word	__stack_chk_guard
 1230              		.section	.text.count_enabled_spads,"ax",%progbits
 1231              		.align	1
 1232              		.p2align 4,,15
 1233              		.global	count_enabled_spads
 1234              		.syntax unified
 1235              		.thumb
 1236              		.thumb_func
 1237              		.fpu fpv4-sp-d16
 1238              		.type	count_enabled_spads, %function
 1239              	count_enabled_spads:
 1240              	.LVL131:
 1241              	.LFB11:
 1242              		.loc 1 484 1 is_stmt 1 view -0
 1243              		.cfi_startproc
 1244              		@ args = 4, pretend = 0, frame = 16
 1245              		@ frame_needed = 0, uses_anonymous_args = 0
 1246              		.loc 1 484 1 is_stmt 0 view .LVU388
 1247 0000 2DE9F04F 		push	{r4, r5, r6, r7, r8, r9, r10, fp, lr}
 1248              		.cfi_def_cfa_offset 36
 1249              		.cfi_offset 4, -36
 1250              		.cfi_offset 5, -32
 1251              		.cfi_offset 6, -28
 1252              		.cfi_offset 7, -24
 1253              		.cfi_offset 8, -20
 1254              		.cfi_offset 9, -16
ARM GAS  /tmp/ccqyZH0w.s 			page 23


 1255              		.cfi_offset 10, -12
 1256              		.cfi_offset 11, -8
 1257              		.cfi_offset 14, -4
 1258 0004 85B0     		sub	sp, sp, #20
 1259              		.cfi_def_cfa_offset 56
 1260              		.loc 1 503 10 view .LVU389
 1261 0006 B1EBD20F 		cmp	r1, r2, lsr #3
 1262              		.loc 1 484 1 view .LVU390
 1263 000a 8346     		mov	fp, r0
 1264              		.loc 1 498 11 view .LVU391
 1265 000c 4FEAD201 		lsr	r1, r2, #3
 1266              	.LVL132:
 1267              		.loc 1 484 1 view .LVU392
 1268 0010 2948     		ldr	r0, .L137
 1269              	.LVL133:
 1270              		.loc 1 498 11 view .LVU393
 1271 0012 0191     		str	r1, [sp, #4]
 1272              		.loc 1 505 22 view .LVU394
 1273 0014 4FF00004 		mov	r4, #0
 1274              		.loc 1 484 1 view .LVU395
 1275 0018 DDF838C0 		ldr	ip, [sp, #56]
 1276 001c 0068     		ldr	r0, [r0]
 1277 001e 0390     		str	r0, [sp, #12]
 1278 0020 4FF00000 		mov	r0,#0
 1279              		.loc 1 485 2 is_stmt 1 view .LVU396
 1280              	.LVL134:
 1281              		.loc 1 486 2 view .LVU397
 1282              		.loc 1 487 2 view .LVU398
 1283              		.loc 1 488 2 view .LVU399
 1284              		.loc 1 489 2 view .LVU400
 1285              		.loc 1 490 2 view .LVU401
 1286              		.loc 1 491 2 view .LVU402
 1287              		.loc 1 492 2 view .LVU403
 1288              		.loc 1 498 2 view .LVU404
 1289              		.loc 1 499 2 view .LVU405
 1290              		.loc 1 492 10 is_stmt 0 view .LVU406
 1291 0024 2646     		mov	r6, r4
 1292              		.loc 1 503 10 view .LVU407
 1293 0026 8CBF     		ite	hi
 1294 0028 2046     		movhi	r0, r4
 1295 002a 6FF03100 		mvnls	r0, #49
 1296              		.loc 1 499 10 view .LVU408
 1297 002e 02F00709 		and	r9, r2, #7
 1298              	.LVL135:
 1299              		.loc 1 502 2 is_stmt 1 view .LVU409
 1300              		.loc 1 505 2 view .LVU410
 1301              		.loc 1 508 45 is_stmt 0 view .LVU411
 1302 0032 01F1FF3A 		add	r10, r1, #-1
 1303              		.loc 1 505 22 view .LVU412
 1304 0036 1C60     		str	r4, [r3]
 1305              		.loc 1 508 2 is_stmt 1 view .LVU413
 1306              		.loc 1 508 22 view .LVU414
 1307 0038 0BF1FF38 		add	r8, fp, #-1
 1308              		.loc 1 508 17 is_stmt 0 view .LVU415
 1309 003c 2746     		mov	r7, r4
 1310              		.loc 1 516 19 view .LVU416
 1311 003e 4FF0010E 		mov	lr, #1
ARM GAS  /tmp/ccqyZH0w.s 			page 24


 1312              	.LVL136:
 1313              	.L120:
 1314              		.loc 1 509 3 is_stmt 1 view .LVU417
 1315              		.loc 1 509 12 is_stmt 0 view .LVU418
 1316 0042 18F8012F 		ldrb	r2, [r8, #1]!	@ zero_extendqisi2
 1317              	.LVL137:
 1318              		.loc 1 511 3 is_stmt 1 view .LVU419
 1319              		.loc 1 511 22 view .LVU420
 1320              		.loc 1 509 12 is_stmt 0 view .LVU421
 1321 0046 0121     		movs	r1, #1
 1322              	.LVL138:
 1323              	.L119:
 1324              		.loc 1 512 4 is_stmt 1 view .LVU422
 1325              		.loc 1 512 7 is_stmt 0 view .LVU423
 1326 0048 12F00105 		ands	r5, r2, #1
 1327 004c 08D0     		beq	.L114
 1328              		.loc 1 513 5 is_stmt 1 view .LVU424
 1329              		.loc 1 513 26 is_stmt 0 view .LVU425
 1330 004e 1C68     		ldr	r4, [r3]
 1331 0050 0134     		adds	r4, r4, #1
 1332 0052 1C60     		str	r4, [r3]
 1333              		.loc 1 515 5 is_stmt 1 view .LVU426
 1334              		.loc 1 515 8 is_stmt 0 view .LVU427
 1335 0054 1EB9     		cbnz	r6, .L116
 1336              		.loc 1 516 6 is_stmt 1 view .LVU428
 1337              		.loc 1 517 9 is_stmt 0 view .LVU429
 1338 0056 012F     		cmp	r7, #1
 1339              		.loc 1 516 19 view .LVU430
 1340 0058 8CF800E0 		strb	lr, [ip]
 1341              		.loc 1 517 6 is_stmt 1 view .LVU431
 1342              		.loc 1 517 9 is_stmt 0 view .LVU432
 1343 005c 06D9     		bls	.L134
 1344              	.L116:
 1345              		.loc 1 509 12 view .LVU433
 1346 005e 2E46     		mov	r6, r5
 1347              	.LVL139:
 1348              	.L114:
 1349              		.loc 1 522 4 is_stmt 1 discriminator 2 view .LVU434
 1350              		.loc 1 511 3 is_stmt 0 discriminator 2 view .LVU435
 1351 0060 0929     		cmp	r1, #9
 1352              		.loc 1 522 13 discriminator 2 view .LVU436
 1353 0062 4FEA5202 		lsr	r2, r2, #1
 1354              	.LVL140:
 1355              		.loc 1 511 49 is_stmt 1 discriminator 2 view .LVU437
 1356              		.loc 1 511 22 discriminator 2 view .LVU438
 1357              		.loc 1 511 3 is_stmt 0 discriminator 2 view .LVU439
 1358 0066 09D0     		beq	.L118
 1359              	.LVL141:
 1360              	.L117:
 1361              		.loc 1 511 3 discriminator 2 view .LVU440
 1362 0068 0131     		adds	r1, r1, #1
 1363              	.LVL142:
 1364              		.loc 1 511 3 discriminator 2 view .LVU441
 1365 006a EDE7     		b	.L119
 1366              	.L134:
 1367              		.loc 1 517 26 discriminator 1 view .LVU442
 1368 006c 4C1E     		subs	r4, r1, #1
ARM GAS  /tmp/ccqyZH0w.s 			page 25


 1369 006e 032C     		cmp	r4, #3
 1370 0070 F5D8     		bhi	.L116
 1371              		.loc 1 518 8 is_stmt 1 view .LVU443
 1372              		.loc 1 518 21 is_stmt 0 view .LVU444
 1373 0072 8CF80060 		strb	r6, [ip]
 1374              	.LVL143:
 1375              		.loc 1 522 4 is_stmt 1 view .LVU445
 1376              		.loc 1 522 13 is_stmt 0 view .LVU446
 1377 0076 5208     		lsrs	r2, r2, #1
 1378              	.LVL144:
 1379              		.loc 1 511 49 is_stmt 1 view .LVU447
 1380              		.loc 1 511 22 view .LVU448
 1381              		.loc 1 519 25 is_stmt 0 view .LVU449
 1382 0078 2E46     		mov	r6, r5
 1383 007a F5E7     		b	.L117
 1384              	.LVL145:
 1385              	.L118:
 1386              		.loc 1 508 51 is_stmt 1 discriminator 2 view .LVU450
 1387              		.loc 1 508 60 is_stmt 0 discriminator 2 view .LVU451
 1388 007c 0137     		adds	r7, r7, #1
 1389              	.LVL146:
 1390              		.loc 1 508 22 is_stmt 1 discriminator 2 view .LVU452
 1391              		.loc 1 508 2 is_stmt 0 discriminator 2 view .LVU453
 1392 007e 5745     		cmp	r7, r10
 1393 0080 DFD9     		bls	.L120
 1394              		.loc 1 529 2 is_stmt 1 view .LVU454
 1395              	.LVL147:
 1396              		.loc 1 531 2 view .LVU455
 1397              		.loc 1 531 21 view .LVU456
 1398 0082 019A     		ldr	r2, [sp, #4]
 1399 0084 1BF80240 		ldrb	r4, [fp, r2]	@ zero_extendqisi2
 1400              		.loc 1 531 16 is_stmt 0 view .LVU457
 1401 0088 0022     		movs	r2, #0
 1402 008a 04F00104 		and	r4, r4, #1
 1403              	.LVL148:
 1404              	.L122:
 1405              		.loc 1 532 3 is_stmt 1 view .LVU458
 1406              		.loc 1 532 6 is_stmt 0 view .LVU459
 1407 008e 14B1     		cbz	r4, .L121
 1408              		.loc 1 533 4 is_stmt 1 view .LVU460
 1409              		.loc 1 533 25 is_stmt 0 view .LVU461
 1410 0090 1968     		ldr	r1, [r3]
 1411 0092 0131     		adds	r1, r1, #1
 1412 0094 1960     		str	r1, [r3]
 1413              	.L121:
 1414              		.loc 1 531 42 is_stmt 1 discriminator 2 view .LVU462
 1415              		.loc 1 531 2 is_stmt 0 discriminator 2 view .LVU463
 1416 0096 9145     		cmp	r9, r2
 1417              		.loc 1 531 50 discriminator 2 view .LVU464
 1418 0098 02F10101 		add	r1, r2, #1
 1419              	.LVL149:
 1420              		.loc 1 531 21 is_stmt 1 discriminator 2 view .LVU465
 1421              		.loc 1 531 2 is_stmt 0 discriminator 2 view .LVU466
 1422 009c 01D0     		beq	.L135
 1423 009e 0A46     		mov	r2, r1
 1424 00a0 F5E7     		b	.L122
 1425              	.L135:
ARM GAS  /tmp/ccqyZH0w.s 			page 26


 1426              		.loc 1 536 2 is_stmt 1 view .LVU467
 1427              		.loc 1 537 1 is_stmt 0 view .LVU468
 1428 00a2 054B     		ldr	r3, .L137
 1429              	.LVL150:
 1430              		.loc 1 537 1 view .LVU469
 1431 00a4 1A68     		ldr	r2, [r3]
 1432 00a6 039B     		ldr	r3, [sp, #12]
 1433 00a8 5A40     		eors	r2, r3, r2
 1434 00aa 02D1     		bne	.L136
 1435 00ac 05B0     		add	sp, sp, #20
 1436              		.cfi_remember_state
 1437              		.cfi_def_cfa_offset 36
 1438              		@ sp needed
 1439 00ae BDE8F08F 		pop	{r4, r5, r6, r7, r8, r9, r10, fp, pc}
 1440              	.LVL151:
 1441              	.L136:
 1442              		.cfi_restore_state
 1443              		.loc 1 537 1 view .LVU470
 1444 00b2 FFF7FEFF 		bl	__stack_chk_fail
 1445              	.LVL152:
 1446              	.L138:
 1447              		.loc 1 537 1 view .LVU471
 1448 00b6 00BF     		.align	2
 1449              	.L137:
 1450 00b8 00000000 		.word	.LC8
 1451              		.cfi_endproc
 1452              	.LFE11:
 1453              		.size	count_enabled_spads, .-count_enabled_spads
 1454              		.section	.rodata.set_ref_spad_map.cst4,"aM",%progbits,4
 1455              		.align	2
 1456              	.LC9:
 1457 0000 00000000 		.word	__stack_chk_guard
 1458              		.section	.text.set_ref_spad_map,"ax",%progbits
 1459              		.align	1
 1460              		.p2align 4,,15
 1461              		.global	set_ref_spad_map
 1462              		.syntax unified
 1463              		.thumb
 1464              		.thumb_func
 1465              		.fpu fpv4-sp-d16
 1466              		.type	set_ref_spad_map, %function
 1467              	set_ref_spad_map:
 1468              	.LVL153:
 1469              	.LFB12:
 1470              		.loc 1 540 1 is_stmt 1 view -0
 1471              		.cfi_startproc
 1472              		@ args = 0, pretend = 0, frame = 8
 1473              		@ frame_needed = 0, uses_anonymous_args = 0
 1474              		.loc 1 540 1 is_stmt 0 view .LVU473
 1475 0000 00B5     		push	{lr}
 1476              		.cfi_def_cfa_offset 4
 1477              		.cfi_offset 14, -4
 1478 0002 0A4B     		ldr	r3, .L144
 1479 0004 83B0     		sub	sp, sp, #12
 1480              		.cfi_def_cfa_offset 16
 1481              		.loc 1 540 1 view .LVU474
 1482 0006 1B68     		ldr	r3, [r3]
ARM GAS  /tmp/ccqyZH0w.s 			page 27


 1483 0008 0193     		str	r3, [sp, #4]
 1484 000a 4FF00003 		mov	r3,#0
 1485              		.loc 1 541 2 is_stmt 1 view .LVU475
 1486              		.loc 1 541 25 is_stmt 0 view .LVU476
 1487 000e 074B     		ldr	r3, .L144
 1488              		.loc 1 540 1 view .LVU477
 1489 0010 0A46     		mov	r2, r1
 1490              		.loc 1 541 25 view .LVU478
 1491 0012 1968     		ldr	r1, [r3]
 1492 0014 019B     		ldr	r3, [sp, #4]
 1493 0016 5940     		eors	r1, r3, r1
 1494              	.LVL154:
 1495              		.loc 1 541 25 view .LVU479
 1496 0018 06D1     		bne	.L143
 1497 001a 0623     		movs	r3, #6
 1498 001c B021     		movs	r1, #176
 1499              		.loc 1 545 1 view .LVU480
 1500 001e 03B0     		add	sp, sp, #12
 1501              		.cfi_remember_state
 1502              		.cfi_def_cfa_offset 4
 1503              		@ sp needed
 1504 0020 5DF804EB 		ldr	lr, [sp], #4
 1505              		.cfi_restore 14
 1506              		.cfi_def_cfa_offset 0
 1507              		.loc 1 541 25 view .LVU481
 1508 0024 FFF7FEBF 		b	VL53L0X_WriteMulti
 1509              	.LVL155:
 1510              	.L143:
 1511              		.cfi_restore_state
 1512              		.loc 1 541 25 view .LVU482
 1513 0028 FFF7FEFF 		bl	__stack_chk_fail
 1514              	.LVL156:
 1515              	.L145:
 1516              		.loc 1 541 25 view .LVU483
 1517              		.align	2
 1518              	.L144:
 1519 002c 00000000 		.word	.LC9
 1520              		.cfi_endproc
 1521              	.LFE12:
 1522              		.size	set_ref_spad_map, .-set_ref_spad_map
 1523              		.section	.rodata.get_ref_spad_map.cst4,"aM",%progbits,4
 1524              		.align	2
 1525              	.LC10:
 1526 0000 00000000 		.word	__stack_chk_guard
 1527              		.section	.text.get_ref_spad_map,"ax",%progbits
 1528              		.align	1
 1529              		.p2align 4,,15
 1530              		.global	get_ref_spad_map
 1531              		.syntax unified
 1532              		.thumb
 1533              		.thumb_func
 1534              		.fpu fpv4-sp-d16
 1535              		.type	get_ref_spad_map, %function
 1536              	get_ref_spad_map:
 1537              	.LVL157:
 1538              	.LFB13:
 1539              		.loc 1 548 1 is_stmt 1 view -0
ARM GAS  /tmp/ccqyZH0w.s 			page 28


 1540              		.cfi_startproc
 1541              		@ args = 0, pretend = 0, frame = 8
 1542              		@ frame_needed = 0, uses_anonymous_args = 0
 1543              		.loc 1 548 1 is_stmt 0 view .LVU485
 1544 0000 00B5     		push	{lr}
 1545              		.cfi_def_cfa_offset 4
 1546              		.cfi_offset 14, -4
 1547 0002 0A4B     		ldr	r3, .L151
 1548 0004 83B0     		sub	sp, sp, #12
 1549              		.cfi_def_cfa_offset 16
 1550              		.loc 1 548 1 view .LVU486
 1551 0006 1B68     		ldr	r3, [r3]
 1552 0008 0193     		str	r3, [sp, #4]
 1553 000a 4FF00003 		mov	r3,#0
 1554              		.loc 1 549 2 is_stmt 1 view .LVU487
 1555              		.loc 1 549 25 is_stmt 0 view .LVU488
 1556 000e 074B     		ldr	r3, .L151
 1557              		.loc 1 548 1 view .LVU489
 1558 0010 0A46     		mov	r2, r1
 1559              		.loc 1 549 25 view .LVU490
 1560 0012 1968     		ldr	r1, [r3]
 1561 0014 019B     		ldr	r3, [sp, #4]
 1562 0016 5940     		eors	r1, r3, r1
 1563              	.LVL158:
 1564              		.loc 1 549 25 view .LVU491
 1565 0018 06D1     		bne	.L150
 1566 001a 0623     		movs	r3, #6
 1567 001c B021     		movs	r1, #176
 1568              		.loc 1 554 1 view .LVU492
 1569 001e 03B0     		add	sp, sp, #12
 1570              		.cfi_remember_state
 1571              		.cfi_def_cfa_offset 4
 1572              		@ sp needed
 1573 0020 5DF804EB 		ldr	lr, [sp], #4
 1574              		.cfi_restore 14
 1575              		.cfi_def_cfa_offset 0
 1576              		.loc 1 549 25 view .LVU493
 1577 0024 FFF7FEBF 		b	VL53L0X_ReadMulti
 1578              	.LVL159:
 1579              	.L150:
 1580              		.cfi_restore_state
 1581              		.loc 1 549 25 view .LVU494
 1582 0028 FFF7FEFF 		bl	__stack_chk_fail
 1583              	.LVL160:
 1584              	.L152:
 1585              		.loc 1 549 25 view .LVU495
 1586              		.align	2
 1587              	.L151:
 1588 002c 00000000 		.word	.LC10
 1589              		.cfi_endproc
 1590              	.LFE13:
 1591              		.size	get_ref_spad_map, .-get_ref_spad_map
 1592              		.section	.rodata.enable_ref_spads.cst4,"aM",%progbits,4
 1593              		.align	2
 1594              	.LC11:
 1595 0000 00000000 		.word	__stack_chk_guard
 1596              		.section	.text.enable_ref_spads,"ax",%progbits
ARM GAS  /tmp/ccqyZH0w.s 			page 29


 1597              		.align	1
 1598              		.p2align 4,,15
 1599              		.global	enable_ref_spads
 1600              		.syntax unified
 1601              		.thumb
 1602              		.thumb_func
 1603              		.fpu fpv4-sp-d16
 1604              		.type	enable_ref_spads, %function
 1605              	enable_ref_spads:
 1606              	.LVL161:
 1607              	.LFB14:
 1608              		.loc 1 565 1 is_stmt 1 view -0
 1609              		.cfi_startproc
 1610              		@ args = 20, pretend = 0, frame = 32
 1611              		@ frame_needed = 0, uses_anonymous_args = 0
 1612              		.loc 1 565 1 is_stmt 0 view .LVU497
 1613 0000 2DE9F04F 		push	{r4, r5, r6, r7, r8, r9, r10, fp, lr}
 1614              		.cfi_def_cfa_offset 36
 1615              		.cfi_offset 4, -36
 1616              		.cfi_offset 5, -32
 1617              		.cfi_offset 6, -28
 1618              		.cfi_offset 7, -24
 1619              		.cfi_offset 8, -20
 1620              		.cfi_offset 9, -16
 1621              		.cfi_offset 10, -12
 1622              		.cfi_offset 11, -8
 1623              		.cfi_offset 14, -4
 1624 0004 89B0     		sub	sp, sp, #36
 1625              		.cfi_def_cfa_offset 72
 1626              		.loc 1 565 1 view .LVU498
 1627 0006 364C     		ldr	r4, .L179
 1628 0008 DDE91479 		ldrd	r7, r9, [sp, #80]
 1629 000c 2468     		ldr	r4, [r4]
 1630 000e 0794     		str	r4, [sp, #28]
 1631 0010 4FF00004 		mov	r4,#0
 1632 0014 1C46     		mov	r4, r3
 1633 0016 169B     		ldr	r3, [sp, #88]
 1634              	.LVL162:
 1635              		.loc 1 565 1 view .LVU499
 1636 0018 0390     		str	r0, [sp, #12]
 1637              		.loc 1 566 2 is_stmt 1 view .LVU500
 1638              	.LVL163:
 1639              		.loc 1 567 2 view .LVU501
 1640              		.loc 1 568 2 view .LVU502
 1641              		.loc 1 569 2 view .LVU503
 1642              		.loc 1 565 1 is_stmt 0 view .LVU504
 1643 001a DDE9126A 		ldrd	r6, r10, [sp, #72]
 1644              		.loc 1 569 10 view .LVU505
 1645 001e 0497     		str	r7, [sp, #16]
 1646              		.loc 1 570 2 is_stmt 1 view .LVU506
 1647              		.loc 1 571 2 view .LVU507
 1648              		.loc 1 583 2 view .LVU508
 1649              	.LVL164:
 1650              		.loc 1 584 2 view .LVU509
 1651              		.loc 1 584 18 view .LVU510
 1652              		.loc 1 565 1 is_stmt 0 view .LVU511
 1653 0020 0293     		str	r3, [sp, #8]
ARM GAS  /tmp/ccqyZH0w.s 			page 30


 1654              		.loc 1 584 2 view .LVU512
 1655 0022 B9F1000F 		cmp	r9, #0
 1656 0026 38D0     		beq	.L154
 1657              	.LBB24:
 1658              	.LBB25:
 1659              		.loc 1 456 23 view .LVU513
 1660 0028 DFF8B8B0 		ldr	fp, .L179+4
 1661 002c 8846     		mov	r8, r1
 1662 002e 1046     		mov	r0, r2
 1663              	.LVL165:
 1664              		.loc 1 456 23 view .LVU514
 1665              	.LBE25:
 1666              	.LBE24:
 1667              		.loc 1 584 13 view .LVU515
 1668 0030 0025     		movs	r5, #0
 1669 0032 1DE0     		b	.L157
 1670              	.LVL166:
 1671              	.L176:
 1672              		.loc 1 594 3 is_stmt 1 view .LVU516
 1673              	.LBB28:
 1674              	.LBI24:
 1675              		.loc 1 447 9 view .LVU517
 1676              	.LBB26:
 1677              		.loc 1 453 2 view .LVU518
 1678              		.loc 1 454 2 view .LVU519
 1679              		.loc 1 455 2 view .LVU520
 1680              		.loc 1 456 2 view .LVU521
 1681              		.loc 1 459 2 view .LVU522
 1682              		.loc 1 459 2 is_stmt 0 view .LVU523
 1683              	.LBE26:
 1684              	.LBE28:
 1685              		.loc 1 594 7 view .LVU524
 1686 0034 03EB0A02 		add	r2, r3, r10
 1687              	.LBB29:
 1688              	.LBB27:
 1689              		.loc 1 455 11 view .LVU525
 1690 0038 9209     		lsrs	r2, r2, #6
 1691              		.loc 1 456 5 view .LVU526
 1692 003a 5BF82220 		ldr	r2, [fp, r2, lsl #2]
 1693              	.LBE27:
 1694              	.LBE29:
 1695              		.loc 1 594 6 view .LVU527
 1696 003e 003A     		subs	r2, r2, #0
 1697 0040 18BF     		it	ne
 1698 0042 0122     		movne	r2, #1
 1699 0044 4245     		cmp	r2, r8
 1700 0046 1CD1     		bne	.L155
 1701              		.loc 1 601 3 is_stmt 1 discriminator 2 view .LVU528
 1702              	.LVL167:
 1703              		.loc 1 602 3 discriminator 2 view .LVU529
 1704              	.LBB30:
 1705              	.LBI30:
 1706              		.loc 1 463 15 discriminator 2 view .LVU530
 1707              	.LBB31:
 1708              		.loc 1 466 2 discriminator 2 view .LVU531
 1709              		.loc 1 467 2 discriminator 2 view .LVU532
 1710              		.loc 1 468 2 discriminator 2 view .LVU533
ARM GAS  /tmp/ccqyZH0w.s 			page 31


 1711              		.loc 1 469 2 discriminator 2 view .LVU534
 1712              		.loc 1 471 2 discriminator 2 view .LVU535
 1713              		.loc 1 473 5 is_stmt 0 discriminator 2 view .LVU536
 1714 0048 B6EBD30F 		cmp	r6, r3, lsr #3
 1715 004c 0198     		ldr	r0, [sp, #4]
 1716              		.loc 1 471 14 discriminator 2 view .LVU537
 1717 004e 4FEAD307 		lsr	r7, r3, #3
 1718              	.LVL168:
 1719              		.loc 1 472 2 is_stmt 1 discriminator 2 view .LVU538
 1720              		.loc 1 472 12 is_stmt 0 discriminator 2 view .LVU539
 1721 0052 03F00702 		and	r2, r3, #7
 1722              	.LVL169:
 1723              		.loc 1 473 2 is_stmt 1 discriminator 2 view .LVU540
 1724              		.loc 1 473 5 is_stmt 0 discriminator 2 view .LVU541
 1725 0056 06D9     		bls	.L156
 1726              		.loc 1 476 3 is_stmt 1 view .LVU542
 1727              		.loc 1 476 26 is_stmt 0 view .LVU543
 1728 0058 E15D     		ldrb	r1, [r4, r7]	@ zero_extendqisi2
 1729              		.loc 1 476 32 view .LVU544
 1730 005a 4FF0010C 		mov	ip, #1
 1731 005e 0CFA02F2 		lsl	r2, ip, r2
 1732              	.LVL170:
 1733              		.loc 1 476 26 view .LVU545
 1734 0062 0A43     		orrs	r2, r2, r1
 1735 0064 E255     		strb	r2, [r4, r7]
 1736              	.L156:
 1737              	.LVL171:
 1738              		.loc 1 478 2 is_stmt 1 view .LVU546
 1739              		.loc 1 478 2 is_stmt 0 view .LVU547
 1740              	.LBE31:
 1741              	.LBE30:
 1742              		.loc 1 603 3 is_stmt 1 view .LVU548
 1743              		.loc 1 584 42 is_stmt 0 view .LVU549
 1744 0066 0135     		adds	r5, r5, #1
 1745              	.LVL172:
 1746              		.loc 1 584 2 view .LVU550
 1747 0068 A945     		cmp	r9, r5
 1748              		.loc 1 603 14 view .LVU551
 1749 006a 03F10107 		add	r7, r3, #1
 1750              	.LVL173:
 1751              		.loc 1 584 37 is_stmt 1 view .LVU552
 1752              		.loc 1 584 18 view .LVU553
 1753              		.loc 1 584 2 is_stmt 0 view .LVU554
 1754 006e 14D0     		beq	.L154
 1755              	.LVL174:
 1756              	.L157:
 1757              		.loc 1 585 3 is_stmt 1 view .LVU555
 1758 0070 04AB     		add	r3, sp, #16
 1759 0072 3A46     		mov	r2, r7
 1760 0074 3146     		mov	r1, r6
 1761 0076 0190     		str	r0, [sp, #4]
 1762 0078 FFF7FEFF 		bl	get_next_good_spad
 1763              	.LVL175:
 1764              		.loc 1 588 3 view .LVU556
 1765              		.loc 1 588 20 is_stmt 0 view .LVU557
 1766 007c 049B     		ldr	r3, [sp, #16]
 1767              		.loc 1 588 6 view .LVU558
ARM GAS  /tmp/ccqyZH0w.s 			page 32


 1768 007e 5A1C     		adds	r2, r3, #1
 1769 0080 D8D1     		bne	.L176
 1770              	.L155:
 1771              	.LVL176:
 1772              		.loc 1 605 2 is_stmt 1 view .LVU559
 1773              		.loc 1 605 12 is_stmt 0 view .LVU560
 1774 0082 029B     		ldr	r3, [sp, #8]
 1775 0084 6FF03100 		mvn	r0, #49
 1776 0088 1F60     		str	r7, [r3]
 1777              		.loc 1 607 2 is_stmt 1 view .LVU561
 1778              		.loc 1 611 2 view .LVU562
 1779              	.LVL177:
 1780              	.L158:
 1781              		.loc 1 625 2 view .LVU563
 1782              		.loc 1 626 1 is_stmt 0 view .LVU564
 1783 008a 154B     		ldr	r3, .L179
 1784 008c 1A68     		ldr	r2, [r3]
 1785 008e 079B     		ldr	r3, [sp, #28]
 1786 0090 5A40     		eors	r2, r3, r2
 1787 0092 22D1     		bne	.L177
 1788 0094 09B0     		add	sp, sp, #36
 1789              		.cfi_remember_state
 1790              		.cfi_def_cfa_offset 36
 1791              		@ sp needed
 1792 0096 BDE8F08F 		pop	{r4, r5, r6, r7, r8, r9, r10, fp, pc}
 1793              	.LVL178:
 1794              	.L154:
 1795              		.cfi_restore_state
 1796              		.loc 1 605 2 is_stmt 1 view .LVU565
 1797              		.loc 1 605 12 is_stmt 0 view .LVU566
 1798 009a 029B     		ldr	r3, [sp, #8]
 1799              	.LBB32:
 1800              	.LBB33:
 1801              		.loc 1 541 25 view .LVU567
 1802 009c 0398     		ldr	r0, [sp, #12]
 1803              	.LBE33:
 1804              	.LBE32:
 1805              		.loc 1 605 12 view .LVU568
 1806 009e 1F60     		str	r7, [r3]
 1807              		.loc 1 607 2 is_stmt 1 view .LVU569
 1808              		.loc 1 608 3 view .LVU570
 1809              	.LVL179:
 1810              	.LBB35:
 1811              	.LBI32:
 1812              		.loc 1 539 15 view .LVU571
 1813              	.LBB34:
 1814              		.loc 1 541 2 view .LVU572
 1815              		.loc 1 541 25 is_stmt 0 view .LVU573
 1816 00a0 2246     		mov	r2, r4
 1817 00a2 0623     		movs	r3, #6
 1818 00a4 B021     		movs	r1, #176
 1819 00a6 FFF7FEFF 		bl	VL53L0X_WriteMulti
 1820              	.LVL180:
 1821              		.loc 1 544 2 is_stmt 1 view .LVU574
 1822              		.loc 1 544 2 is_stmt 0 view .LVU575
 1823              	.LBE34:
 1824              	.LBE35:
ARM GAS  /tmp/ccqyZH0w.s 			page 33


 1825              		.loc 1 611 2 is_stmt 1 view .LVU576
 1826              		.loc 1 611 5 is_stmt 0 view .LVU577
 1827 00aa 0028     		cmp	r0, #0
 1828 00ac EDD1     		bne	.L158
 1829              		.loc 1 612 3 is_stmt 1 view .LVU578
 1830              	.LVL181:
 1831              	.LBB36:
 1832              	.LBI36:
 1833              		.loc 1 547 15 view .LVU579
 1834              	.LBB37:
 1835              		.loc 1 549 2 view .LVU580
 1836              		.loc 1 549 25 is_stmt 0 view .LVU581
 1837 00ae 0398     		ldr	r0, [sp, #12]
 1838              	.LVL182:
 1839              		.loc 1 549 25 view .LVU582
 1840 00b0 05AA     		add	r2, sp, #20
 1841              	.LVL183:
 1842              		.loc 1 549 25 view .LVU583
 1843 00b2 0623     		movs	r3, #6
 1844 00b4 B021     		movs	r1, #176
 1845 00b6 FFF7FEFF 		bl	VL53L0X_ReadMulti
 1846              	.LVL184:
 1847              		.loc 1 553 2 is_stmt 1 view .LVU584
 1848              		.loc 1 553 2 is_stmt 0 view .LVU585
 1849              	.LBE37:
 1850              	.LBE36:
 1851              		.loc 1 614 3 is_stmt 1 view .LVU586
 1852              		.loc 1 617 3 view .LVU587
 1853              		.loc 1 617 9 view .LVU588
 1854 00ba 002E     		cmp	r6, #0
 1855 00bc E5D0     		beq	.L158
 1856 00be 2644     		add	r6, r6, r4
 1857 00c0 05AB     		add	r3, sp, #20
 1858 00c2 01E0     		b	.L159
 1859              	.LVL185:
 1860              	.L178:
 1861              		.loc 1 622 4 view .LVU589
 1862              		.loc 1 617 9 view .LVU590
 1863 00c4 A642     		cmp	r6, r4
 1864 00c6 E0D0     		beq	.L158
 1865              	.LVL186:
 1866              	.L159:
 1867              		.loc 1 618 4 view .LVU591
 1868              		.loc 1 618 17 is_stmt 0 view .LVU592
 1869 00c8 14F8011B 		ldrb	r1, [r4], #1	@ zero_extendqisi2
 1870              	.LVL187:
 1871              		.loc 1 618 38 view .LVU593
 1872 00cc 13F8012B 		ldrb	r2, [r3], #1	@ zero_extendqisi2
 1873              		.loc 1 618 7 view .LVU594
 1874 00d0 9142     		cmp	r1, r2
 1875 00d2 F7D0     		beq	.L178
 1876              		.loc 1 619 12 view .LVU595
 1877 00d4 6FF03100 		mvn	r0, #49
 1878              	.LVL188:
 1879              		.loc 1 619 12 view .LVU596
 1880 00d8 D7E7     		b	.L158
 1881              	.LVL189:
ARM GAS  /tmp/ccqyZH0w.s 			page 34


 1882              	.L177:
 1883              		.loc 1 626 1 view .LVU597
 1884 00da FFF7FEFF 		bl	__stack_chk_fail
 1885              	.LVL190:
 1886              	.L180:
 1887              		.loc 1 626 1 view .LVU598
 1888 00de 00BF     		.align	2
 1889              	.L179:
 1890 00e0 00000000 		.word	.LC11
 1891 00e4 00000000 		.word	.LANCHOR0
 1892              		.cfi_endproc
 1893              	.LFE14:
 1894              		.size	enable_ref_spads, .-enable_ref_spads
 1895              		.section	.rodata.perform_ref_signal_measurement.cst4,"aM",%progbits,4
 1896              		.align	2
 1897              	.LC12:
 1898 0000 00000000 		.word	__stack_chk_guard
 1899              		.section	.text.perform_ref_signal_measurement,"ax",%progbits
 1900              		.align	1
 1901              		.p2align 4,,15
 1902              		.global	perform_ref_signal_measurement
 1903              		.syntax unified
 1904              		.thumb
 1905              		.thumb_func
 1906              		.fpu fpv4-sp-d16
 1907              		.type	perform_ref_signal_measurement, %function
 1908              	perform_ref_signal_measurement:
 1909              	.LVL191:
 1910              	.LFB15:
 1911              		.loc 1 631 1 is_stmt 1 view -0
 1912              		.cfi_startproc
 1913              		@ args = 0, pretend = 0, frame = 32
 1914              		@ frame_needed = 0, uses_anonymous_args = 0
 1915              		.loc 1 631 1 is_stmt 0 view .LVU600
 1916 0000 70B5     		push	{r4, r5, r6, lr}
 1917              		.cfi_def_cfa_offset 16
 1918              		.cfi_offset 4, -16
 1919              		.cfi_offset 5, -12
 1920              		.cfi_offset 6, -8
 1921              		.cfi_offset 14, -4
 1922 0002 1E4B     		ldr	r3, .L187
 1923              		.loc 1 641 17 view .LVU601
 1924 0004 90F83051 		ldrb	r5, [r0, #304]	@ zero_extendqisi2
 1925              		.loc 1 631 1 view .LVU602
 1926 0008 88B0     		sub	sp, sp, #32
 1927              		.cfi_def_cfa_offset 48
 1928              		.loc 1 631 1 view .LVU603
 1929 000a 0E46     		mov	r6, r1
 1930              		.loc 1 647 12 view .LVU604
 1931 000c C022     		movs	r2, #192
 1932 000e 0121     		movs	r1, #1
 1933              	.LVL192:
 1934              		.loc 1 631 1 view .LVU605
 1935 0010 0446     		mov	r4, r0
 1936 0012 1B68     		ldr	r3, [r3]
 1937 0014 0793     		str	r3, [sp, #28]
 1938 0016 4FF00003 		mov	r3,#0
ARM GAS  /tmp/ccqyZH0w.s 			page 35


 1939              		.loc 1 632 2 is_stmt 1 view .LVU606
 1940              	.LVL193:
 1941              		.loc 1 633 2 view .LVU607
 1942              		.loc 1 635 2 view .LVU608
 1943              		.loc 1 641 2 view .LVU609
 1944              		.loc 1 646 2 view .LVU610
 1945              		.loc 1 647 3 view .LVU611
 1946              		.loc 1 647 12 is_stmt 0 view .LVU612
 1947 001a FFF7FEFF 		bl	VL53L0X_WrByte
 1948              	.LVL194:
 1949              		.loc 1 650 2 is_stmt 1 view .LVU613
 1950              		.loc 1 650 5 is_stmt 0 view .LVU614
 1951 001e 30B1     		cbz	r0, .L185
 1952              	.L182:
 1953              		.loc 1 673 2 is_stmt 1 view .LVU615
 1954              		.loc 1 674 1 is_stmt 0 view .LVU616
 1955 0020 164B     		ldr	r3, .L187
 1956 0022 1A68     		ldr	r2, [r3]
 1957 0024 079B     		ldr	r3, [sp, #28]
 1958 0026 5A40     		eors	r2, r3, r2
 1959 0028 26D1     		bne	.L186
 1960              		.loc 1 674 1 view .LVU617
 1961 002a 08B0     		add	sp, sp, #32
 1962              		.cfi_remember_state
 1963              		.cfi_def_cfa_offset 16
 1964              		@ sp needed
 1965 002c 70BD     		pop	{r4, r5, r6, pc}
 1966              	.LVL195:
 1967              	.L185:
 1968              		.cfi_restore_state
 1969              		.loc 1 651 3 is_stmt 1 view .LVU618
 1970              		.loc 1 651 12 is_stmt 0 view .LVU619
 1971 002e 6946     		mov	r1, sp
 1972 0030 2046     		mov	r0, r4
 1973              	.LVL196:
 1974              		.loc 1 651 12 view .LVU620
 1975 0032 FFF7FEFF 		bl	VL53L0X_PerformSingleRangingMeasurement
 1976              	.LVL197:
 1977              		.loc 1 654 2 is_stmt 1 view .LVU621
 1978              		.loc 1 654 5 is_stmt 0 view .LVU622
 1979 0036 0028     		cmp	r0, #0
 1980 0038 F2D1     		bne	.L182
 1981              		.loc 1 655 3 is_stmt 1 view .LVU623
 1982              		.loc 1 655 12 is_stmt 0 view .LVU624
 1983 003a 0122     		movs	r2, #1
 1984 003c FF21     		movs	r1, #255
 1985 003e 2046     		mov	r0, r4
 1986              	.LVL198:
 1987              		.loc 1 655 12 view .LVU625
 1988 0040 FFF7FEFF 		bl	VL53L0X_WrByte
 1989              	.LVL199:
 1990              		.loc 1 657 2 is_stmt 1 view .LVU626
 1991              		.loc 1 657 5 is_stmt 0 view .LVU627
 1992 0044 0028     		cmp	r0, #0
 1993 0046 EBD1     		bne	.L182
 1994              		.loc 1 658 3 is_stmt 1 view .LVU628
 1995              		.loc 1 658 12 is_stmt 0 view .LVU629
ARM GAS  /tmp/ccqyZH0w.s 			page 36


 1996 0048 3246     		mov	r2, r6
 1997 004a B621     		movs	r1, #182
 1998 004c 2046     		mov	r0, r4
 1999              	.LVL200:
 2000              		.loc 1 658 12 view .LVU630
 2001 004e FFF7FEFF 		bl	VL53L0X_RdWord
 2002              	.LVL201:
 2003              		.loc 1 662 2 is_stmt 1 view .LVU631
 2004              		.loc 1 662 5 is_stmt 0 view .LVU632
 2005 0052 0028     		cmp	r0, #0
 2006 0054 E4D1     		bne	.L182
 2007              		.loc 1 663 3 is_stmt 1 view .LVU633
 2008              		.loc 1 663 12 is_stmt 0 view .LVU634
 2009 0056 0246     		mov	r2, r0
 2010 0058 FF21     		movs	r1, #255
 2011 005a 2046     		mov	r0, r4
 2012              	.LVL202:
 2013              		.loc 1 663 12 view .LVU635
 2014 005c FFF7FEFF 		bl	VL53L0X_WrByte
 2015              	.LVL203:
 2016              		.loc 1 665 2 is_stmt 1 view .LVU636
 2017              		.loc 1 665 5 is_stmt 0 view .LVU637
 2018 0060 0028     		cmp	r0, #0
 2019 0062 DDD1     		bne	.L182
 2020              		.loc 1 667 3 is_stmt 1 view .LVU638
 2021              		.loc 1 667 12 is_stmt 0 view .LVU639
 2022 0064 2A46     		mov	r2, r5
 2023 0066 0121     		movs	r1, #1
 2024 0068 2046     		mov	r0, r4
 2025              	.LVL204:
 2026              		.loc 1 667 12 view .LVU640
 2027 006a FFF7FEFF 		bl	VL53L0X_WrByte
 2028              	.LVL205:
 2029              		.loc 1 669 3 is_stmt 1 view .LVU641
 2030              		.loc 1 669 6 is_stmt 0 view .LVU642
 2031 006e 0028     		cmp	r0, #0
 2032 0070 D6D1     		bne	.L182
 2033              		.loc 1 670 4 is_stmt 1 view .LVU643
 2034 0072 84F83051 		strb	r5, [r4, #304]
 2035 0076 D3E7     		b	.L182
 2036              	.L186:
 2037              		.loc 1 674 1 is_stmt 0 view .LVU644
 2038 0078 FFF7FEFF 		bl	__stack_chk_fail
 2039              	.LVL206:
 2040              	.L188:
 2041              		.loc 1 674 1 view .LVU645
 2042              		.align	2
 2043              	.L187:
 2044 007c 00000000 		.word	.LC12
 2045              		.cfi_endproc
 2046              	.LFE15:
 2047              		.size	perform_ref_signal_measurement, .-perform_ref_signal_measurement
 2048              		.section	.rodata.VL53L0X_set_reference_spads.cst4,"aM",%progbits,4
 2049              		.align	2
 2050              	.LC13:
 2051 0000 00000000 		.word	__stack_chk_guard
 2052              		.section	.text.VL53L0X_set_reference_spads,"ax",%progbits
ARM GAS  /tmp/ccqyZH0w.s 			page 37


 2053              		.align	1
 2054              		.p2align 4,,15
 2055              		.global	VL53L0X_set_reference_spads
 2056              		.syntax unified
 2057              		.thumb
 2058              		.thumb_func
 2059              		.fpu fpv4-sp-d16
 2060              		.type	VL53L0X_set_reference_spads, %function
 2061              	VL53L0X_set_reference_spads:
 2062              	.LVL207:
 2063              	.LFB17:
 2064              		.loc 1 945 1 is_stmt 1 view -0
 2065              		.cfi_startproc
 2066              		@ args = 0, pretend = 0, frame = 8
 2067              		@ frame_needed = 0, uses_anonymous_args = 0
 2068              		.loc 1 945 1 is_stmt 0 view .LVU647
 2069 0000 70B5     		push	{r4, r5, r6, lr}
 2070              		.cfi_def_cfa_offset 16
 2071              		.cfi_offset 4, -16
 2072              		.cfi_offset 5, -12
 2073              		.cfi_offset 6, -8
 2074              		.cfi_offset 14, -4
 2075 0002 304B     		ldr	r3, .L207
 2076 0004 88B0     		sub	sp, sp, #32
 2077              		.cfi_def_cfa_offset 48
 2078              		.loc 1 945 1 view .LVU648
 2079 0006 0E46     		mov	r6, r1
 2080 0008 1546     		mov	r5, r2
 2081              		.loc 1 961 11 view .LVU649
 2082 000a FF21     		movs	r1, #255
 2083              	.LVL208:
 2084              		.loc 1 961 11 view .LVU650
 2085 000c 0122     		movs	r2, #1
 2086              	.LVL209:
 2087              		.loc 1 945 1 view .LVU651
 2088 000e 1B68     		ldr	r3, [r3]
 2089 0010 0793     		str	r3, [sp, #28]
 2090 0012 4FF00003 		mov	r3,#0
 2091              		.loc 1 946 2 is_stmt 1 view .LVU652
 2092              	.LVL210:
 2093              		.loc 1 947 2 view .LVU653
 2094              		.loc 1 948 2 view .LVU654
 2095              		.loc 1 949 2 view .LVU655
 2096              		.loc 1 950 2 view .LVU656
 2097              		.loc 1 951 2 view .LVU657
 2098              		.loc 1 952 2 view .LVU658
 2099              		.loc 1 961 2 view .LVU659
 2100              		.loc 1 945 1 is_stmt 0 view .LVU660
 2101 0016 0446     		mov	r4, r0
 2102              		.loc 1 961 11 view .LVU661
 2103 0018 FFF7FEFF 		bl	VL53L0X_WrByte
 2104              	.LVL211:
 2105              		.loc 1 963 2 is_stmt 1 view .LVU662
 2106              		.loc 1 963 5 is_stmt 0 view .LVU663
 2107 001c A8B3     		cbz	r0, .L205
 2108              	.LVL212:
 2109              	.L191:
ARM GAS  /tmp/ccqyZH0w.s 			page 38


 2110              		.loc 1 979 18 is_stmt 1 discriminator 1 view .LVU664
 2111              		.loc 1 980 3 discriminator 1 view .LVU665
 2112              		.loc 1 979 41 discriminator 1 view .LVU666
 2113              		.loc 1 979 18 discriminator 1 view .LVU667
 2114              		.loc 1 980 3 discriminator 1 view .LVU668
 2115              		.loc 1 979 41 discriminator 1 view .LVU669
 2116              		.loc 1 979 18 discriminator 1 view .LVU670
 2117              		.loc 1 980 3 discriminator 1 view .LVU671
 2118              		.loc 1 979 41 discriminator 1 view .LVU672
 2119              		.loc 1 979 18 discriminator 1 view .LVU673
 2120              		.loc 1 980 3 discriminator 1 view .LVU674
 2121              		.loc 1 979 41 discriminator 1 view .LVU675
 2122              		.loc 1 979 18 discriminator 1 view .LVU676
 2123              		.loc 1 980 3 discriminator 1 view .LVU677
 2124              		.loc 1 979 41 discriminator 1 view .LVU678
 2125              		.loc 1 979 18 discriminator 1 view .LVU679
 2126              		.loc 1 980 3 discriminator 1 view .LVU680
 2127              		.loc 1 980 44 is_stmt 0 discriminator 1 view .LVU681
 2128 001e 0023     		movs	r3, #0
 2129 0020 C4F82431 		str	r3, [r4, #292]
 2130 0024 A4F82831 		strh	r3, [r4, #296]	@ movhi
 2131              		.loc 1 979 41 is_stmt 1 discriminator 1 view .LVU682
 2132              	.LVL213:
 2133              		.loc 1 979 18 discriminator 1 view .LVU683
 2134              		.loc 1 982 2 discriminator 1 view .LVU684
 2135              		.loc 1 982 5 is_stmt 0 discriminator 1 view .LVU685
 2136 0028 0DB3     		cbz	r5, .L198
 2137              		.loc 1 984 9 is_stmt 1 view .LVU686
 2138              	.LVL214:
 2139              	.LBB38:
 2140              	.LBI38:
 2141              		.loc 1 447 9 view .LVU687
 2142              	.LBB39:
 2143              		.loc 1 453 2 view .LVU688
 2144              		.loc 1 454 2 view .LVU689
 2145              		.loc 1 455 2 view .LVU690
 2146              		.loc 1 456 2 view .LVU691
 2147              		.loc 1 456 23 is_stmt 0 view .LVU692
 2148 002a 274A     		ldr	r2, .L207+4
 2149              		.loc 1 456 5 view .LVU693
 2150 002c 9168     		ldr	r1, [r2, #8]
 2151 002e 01B3     		cbz	r1, .L199
 2152              	.LVL215:
 2153              	.L193:
 2154              		.loc 1 456 5 view .LVU694
 2155              	.LBE39:
 2156              	.LBE38:
 2157              		.loc 1 989 2 is_stmt 1 view .LVU695
 2158              		.loc 1 989 11 is_stmt 0 view .LVU696
 2159 0030 06A8     		add	r0, sp, #24
 2160 0032 B421     		movs	r1, #180
 2161 0034 0622     		movs	r2, #6
 2162 0036 CDE90021 		strd	r2, r1, [sp]
 2163 003a CDE90236 		strd	r3, r6, [sp, #8]
 2164 003e 0490     		str	r0, [sp, #16]
 2165 0040 04F59273 		add	r3, r4, #292
 2166              	.LVL216:
ARM GAS  /tmp/ccqyZH0w.s 			page 39


 2167              		.loc 1 989 11 view .LVU697
 2168 0044 04F59572 		add	r2, r4, #298
 2169 0048 2946     		mov	r1, r5
 2170 004a 2046     		mov	r0, r4
 2171 004c FFF7FEFF 		bl	enable_ref_spads
 2172              	.LVL217:
 2173              		.loc 1 999 2 is_stmt 1 view .LVU698
 2174              		.loc 1 999 5 is_stmt 0 view .LVU699
 2175 0050 30B9     		cbnz	r0, .L196
 2176              		.loc 1 1000 3 is_stmt 1 view .LVU700
 2177 0052 0123     		movs	r3, #1
 2178              		.loc 1 1001 3 is_stmt 0 view .LVU701
 2179 0054 84F81361 		strb	r6, [r4, #275]
 2180              		.loc 1 1003 3 view .LVU702
 2181 0058 84F81451 		strb	r5, [r4, #276]
 2182              		.loc 1 1000 3 view .LVU703
 2183 005c 84F81531 		strb	r3, [r4, #277]
 2184              		.loc 1 1001 3 is_stmt 1 view .LVU704
 2185              		.loc 1 1003 3 view .LVU705
 2186              	.L196:
 2187              		.loc 1 1007 2 view .LVU706
 2188              		.loc 1 1008 1 is_stmt 0 view .LVU707
 2189 0060 184B     		ldr	r3, .L207
 2190 0062 1A68     		ldr	r2, [r3]
 2191 0064 079B     		ldr	r3, [sp, #28]
 2192 0066 5A40     		eors	r2, r3, r2
 2193 0068 2AD1     		bne	.L206
 2194 006a 08B0     		add	sp, sp, #32
 2195              		.cfi_remember_state
 2196              		.cfi_def_cfa_offset 16
 2197              		@ sp needed
 2198 006c 70BD     		pop	{r4, r5, r6, pc}
 2199              	.LVL218:
 2200              	.L198:
 2201              		.cfi_restore_state
 2202              		.loc 1 947 11 view .LVU708
 2203 006e 2B46     		mov	r3, r5
 2204 0070 DEE7     		b	.L193
 2205              	.LVL219:
 2206              	.L199:
 2207              		.loc 1 986 20 view .LVU709
 2208 0072 0123     		movs	r3, #1
 2209              	.LVL220:
 2210              	.L194:
 2211              		.loc 1 986 4 is_stmt 1 view .LVU710
 2212              	.LBB42:
 2213              	.LBB40:
 2214              		.loc 1 455 11 is_stmt 0 view .LVU711
 2215 0074 03F1B501 		add	r1, r3, #181
 2216 0078 8909     		lsrs	r1, r1, #6
 2217              	.LBE40:
 2218              	.LBE42:
 2219              		.loc 1 986 20 view .LVU712
 2220 007a 0133     		adds	r3, r3, #1
 2221              	.LVL221:
 2222              		.loc 1 984 9 is_stmt 1 view .LVU713
 2223              	.LBB43:
ARM GAS  /tmp/ccqyZH0w.s 			page 40


 2224              		.loc 1 447 9 view .LVU714
 2225              	.LBB41:
 2226              		.loc 1 453 2 view .LVU715
 2227              		.loc 1 454 2 view .LVU716
 2228              		.loc 1 455 2 view .LVU717
 2229              		.loc 1 456 2 view .LVU718
 2230              		.loc 1 456 5 is_stmt 0 view .LVU719
 2231 007c 52F82110 		ldr	r1, [r2, r1, lsl #2]
 2232 0080 0029     		cmp	r1, #0
 2233 0082 D5D1     		bne	.L193
 2234              		.loc 1 457 3 is_stmt 1 view .LVU720
 2235              	.LVL222:
 2236              		.loc 1 459 2 view .LVU721
 2237              		.loc 1 459 2 is_stmt 0 view .LVU722
 2238              	.LBE41:
 2239              	.LBE43:
 2240              		.loc 1 984 61 view .LVU723
 2241 0084 2C2B     		cmp	r3, #44
 2242 0086 D3D0     		beq	.L193
 2243 0088 F4E7     		b	.L194
 2244              	.LVL223:
 2245              	.L205:
 2246              		.loc 1 964 3 is_stmt 1 view .LVU724
 2247              		.loc 1 964 12 is_stmt 0 view .LVU725
 2248 008a 0246     		mov	r2, r0
 2249 008c 4F21     		movs	r1, #79
 2250 008e 2046     		mov	r0, r4
 2251              	.LVL224:
 2252              		.loc 1 964 12 view .LVU726
 2253 0090 FFF7FEFF 		bl	VL53L0X_WrByte
 2254              	.LVL225:
 2255              		.loc 1 967 2 is_stmt 1 view .LVU727
 2256              		.loc 1 967 5 is_stmt 0 view .LVU728
 2257 0094 0028     		cmp	r0, #0
 2258 0096 C2D1     		bne	.L191
 2259              		.loc 1 968 3 is_stmt 1 view .LVU729
 2260              		.loc 1 968 12 is_stmt 0 view .LVU730
 2261 0098 2C22     		movs	r2, #44
 2262 009a 4E21     		movs	r1, #78
 2263 009c 2046     		mov	r0, r4
 2264              	.LVL226:
 2265              		.loc 1 968 12 view .LVU731
 2266 009e FFF7FEFF 		bl	VL53L0X_WrByte
 2267              	.LVL227:
 2268              		.loc 1 971 2 is_stmt 1 view .LVU732
 2269              		.loc 1 971 5 is_stmt 0 view .LVU733
 2270 00a2 0246     		mov	r2, r0
 2271 00a4 0028     		cmp	r0, #0
 2272 00a6 BAD1     		bne	.L191
 2273              		.loc 1 972 3 is_stmt 1 view .LVU734
 2274              		.loc 1 972 12 is_stmt 0 view .LVU735
 2275 00a8 FF21     		movs	r1, #255
 2276 00aa 2046     		mov	r0, r4
 2277              	.LVL228:
 2278              		.loc 1 972 12 view .LVU736
 2279 00ac FFF7FEFF 		bl	VL53L0X_WrByte
 2280              	.LVL229:
ARM GAS  /tmp/ccqyZH0w.s 			page 41


 2281              		.loc 1 974 2 is_stmt 1 view .LVU737
 2282              		.loc 1 974 5 is_stmt 0 view .LVU738
 2283 00b0 0028     		cmp	r0, #0
 2284 00b2 B4D1     		bne	.L191
 2285              		.loc 1 975 3 is_stmt 1 view .LVU739
 2286              		.loc 1 975 12 is_stmt 0 view .LVU740
 2287 00b4 B422     		movs	r2, #180
 2288 00b6 B621     		movs	r1, #182
 2289 00b8 2046     		mov	r0, r4
 2290              	.LVL230:
 2291              		.loc 1 975 12 view .LVU741
 2292 00ba FFF7FEFF 		bl	VL53L0X_WrByte
 2293              	.LVL231:
 2294              		.loc 1 975 12 view .LVU742
 2295 00be AEE7     		b	.L191
 2296              	.LVL232:
 2297              	.L206:
 2298              		.loc 1 1008 1 view .LVU743
 2299 00c0 FFF7FEFF 		bl	__stack_chk_fail
 2300              	.LVL233:
 2301              	.L208:
 2302              		.loc 1 1008 1 view .LVU744
 2303              		.align	2
 2304              	.L207:
 2305 00c4 00000000 		.word	.LC13
 2306 00c8 00000000 		.word	.LANCHOR0
 2307              		.cfi_endproc
 2308              	.LFE17:
 2309              		.size	VL53L0X_set_reference_spads, .-VL53L0X_set_reference_spads
 2310              		.section	.rodata.VL53L0X_get_reference_spads.cst4,"aM",%progbits,4
 2311              		.align	2
 2312              	.LC14:
 2313 0000 00000000 		.word	__stack_chk_guard
 2314              		.section	.text.VL53L0X_get_reference_spads,"ax",%progbits
 2315              		.align	1
 2316              		.p2align 4,,15
 2317              		.global	VL53L0X_get_reference_spads
 2318              		.syntax unified
 2319              		.thumb
 2320              		.thumb_func
 2321              		.fpu fpv4-sp-d16
 2322              		.type	VL53L0X_get_reference_spads, %function
 2323              	VL53L0X_get_reference_spads:
 2324              	.LVL234:
 2325              	.LFB18:
 2326              		.loc 1 1012 1 is_stmt 1 view -0
 2327              		.cfi_startproc
 2328              		@ args = 0, pretend = 0, frame = 24
 2329              		@ frame_needed = 0, uses_anonymous_args = 0
 2330              		.loc 1 1012 1 is_stmt 0 view .LVU746
 2331 0000 F0B5     		push	{r4, r5, r6, r7, lr}
 2332              		.cfi_def_cfa_offset 20
 2333              		.cfi_offset 4, -20
 2334              		.cfi_offset 5, -16
 2335              		.cfi_offset 6, -12
 2336              		.cfi_offset 7, -8
 2337              		.cfi_offset 14, -4
ARM GAS  /tmp/ccqyZH0w.s 			page 42


 2338 0002 204B     		ldr	r3, .L215
 2339              		.loc 1 1024 5 view .LVU747
 2340 0004 90F81551 		ldrb	r5, [r0, #277]	@ zero_extendqisi2
 2341              		.loc 1 1012 1 view .LVU748
 2342 0008 89B0     		sub	sp, sp, #36
 2343              		.cfi_def_cfa_offset 56
 2344              		.loc 1 1012 1 view .LVU749
 2345 000a 1B68     		ldr	r3, [r3]
 2346 000c 0793     		str	r3, [sp, #28]
 2347 000e 4FF00003 		mov	r3,#0
 2348              		.loc 1 1013 2 is_stmt 1 view .LVU750
 2349              	.LVL235:
 2350              		.loc 1 1014 2 view .LVU751
 2351              		.loc 1 1015 2 view .LVU752
 2352              		.loc 1 1016 2 view .LVU753
 2353              		.loc 1 1017 2 view .LVU754
 2354              		.loc 1 1018 2 view .LVU755
 2355              		.loc 1 1019 2 view .LVU756
 2356              		.loc 1 1024 5 is_stmt 0 view .LVU757
 2357 0012 012D     		cmp	r5, #1
 2358              		.loc 1 1019 10 view .LVU758
 2359 0014 4FF00003 		mov	r3, #0
 2360              		.loc 1 1012 1 view .LVU759
 2361 0018 0446     		mov	r4, r0
 2362 001a 0E46     		mov	r6, r1
 2363 001c 1746     		mov	r7, r2
 2364              		.loc 1 1019 10 view .LVU760
 2365 001e 8DF80F30 		strb	r3, [sp, #15]
 2366              		.loc 1 1021 2 is_stmt 1 view .LVU761
 2367              	.LVL236:
 2368              		.loc 1 1024 2 view .LVU762
 2369              		.loc 1 1024 5 is_stmt 0 view .LVU763
 2370 0022 0DD1     		bne	.L210
 2371              		.loc 1 1026 3 is_stmt 1 view .LVU764
 2372              		.loc 1 1026 17 is_stmt 0 view .LVU765
 2373 0024 90F81321 		ldrb	r2, [r0, #275]	@ zero_extendqisi2
 2374              	.LVL237:
 2375              		.loc 1 1026 17 view .LVU766
 2376 0028 0A60     		str	r2, [r1]
 2377              	.LVL238:
 2378              		.loc 1 1028 3 is_stmt 1 view .LVU767
 2379              		.loc 1 1028 23 is_stmt 0 view .LVU768
 2380 002a 90F81421 		ldrb	r2, [r0, #276]	@ zero_extendqisi2
 2381              		.loc 1 1028 21 view .LVU769
 2382 002e 3A70     		strb	r2, [r7]
 2383              		.loc 1 1013 16 view .LVU770
 2384 0030 1846     		mov	r0, r3
 2385              	.LVL239:
 2386              	.L211:
 2387              		.loc 1 1061 2 is_stmt 1 view .LVU771
 2388              		.loc 1 1062 1 is_stmt 0 view .LVU772
 2389 0032 144B     		ldr	r3, .L215
 2390 0034 1A68     		ldr	r2, [r3]
 2391 0036 079B     		ldr	r3, [sp, #28]
 2392 0038 5A40     		eors	r2, r3, r2
 2393 003a 20D1     		bne	.L214
 2394 003c 09B0     		add	sp, sp, #36
ARM GAS  /tmp/ccqyZH0w.s 			page 43


 2395              		.cfi_remember_state
 2396              		.cfi_def_cfa_offset 20
 2397              		@ sp needed
 2398 003e F0BD     		pop	{r4, r5, r6, r7, pc}
 2399              	.LVL240:
 2400              	.L210:
 2401              		.cfi_restore_state
 2402              		.loc 1 1033 3 is_stmt 1 view .LVU773
 2403              	.LBB44:
 2404              	.LBI44:
 2405              		.loc 1 547 15 view .LVU774
 2406              	.LBB45:
 2407              		.loc 1 549 2 view .LVU775
 2408              		.loc 1 549 25 is_stmt 0 view .LVU776
 2409 0040 05AA     		add	r2, sp, #20
 2410              	.LVL241:
 2411              		.loc 1 549 25 view .LVU777
 2412 0042 0623     		movs	r3, #6
 2413 0044 B021     		movs	r1, #176
 2414              	.LVL242:
 2415              		.loc 1 549 25 view .LVU778
 2416 0046 FFF7FEFF 		bl	VL53L0X_ReadMulti
 2417              	.LVL243:
 2418              		.loc 1 553 2 is_stmt 1 view .LVU779
 2419              		.loc 1 553 2 is_stmt 0 view .LVU780
 2420              	.LBE45:
 2421              	.LBE44:
 2422              		.loc 1 1035 3 is_stmt 1 view .LVU781
 2423              		.loc 1 1035 6 is_stmt 0 view .LVU782
 2424 004a 0028     		cmp	r0, #0
 2425 004c F1D1     		bne	.L211
 2426              		.loc 1 1039 4 is_stmt 1 view .LVU783
 2427              		.loc 1 1039 13 is_stmt 0 view .LVU784
 2428 004e 0DF10F03 		add	r3, sp, #15
 2429 0052 0093     		str	r3, [sp]
 2430 0054 05A8     		add	r0, sp, #20
 2431              	.LVL244:
 2432              		.loc 1 1039 13 view .LVU785
 2433 0056 04AB     		add	r3, sp, #16
 2434 0058 2C22     		movs	r2, #44
 2435 005a 0621     		movs	r1, #6
 2436 005c FFF7FEFF 		bl	count_enabled_spads
 2437              	.LVL245:
 2438              		.loc 1 1045 4 is_stmt 1 view .LVU786
 2439              		.loc 1 1045 7 is_stmt 0 view .LVU787
 2440 0060 0028     		cmp	r0, #0
 2441 0062 E6D1     		bne	.L211
 2442              		.loc 1 1047 5 is_stmt 1 view .LVU788
 2443              		.loc 1 1047 17 is_stmt 0 view .LVU789
 2444 0064 049A     		ldr	r2, [sp, #16]
 2445              		.loc 1 1048 23 view .LVU790
 2446 0066 9DF80F30 		ldrb	r3, [sp, #15]	@ zero_extendqisi2
 2447              		.loc 1 1047 17 view .LVU791
 2448 006a 3260     		str	r2, [r6]
 2449              		.loc 1 1048 5 is_stmt 1 view .LVU792
 2450              		.loc 1 1050 5 is_stmt 0 view .LVU793
 2451 006c 0121     		movs	r1, #1
ARM GAS  /tmp/ccqyZH0w.s 			page 44


 2452              		.loc 1 1048 23 view .LVU794
 2453 006e 3B70     		strb	r3, [r7]
 2454              		.loc 1 1050 5 is_stmt 1 view .LVU795
 2455              		.loc 1 1052 5 is_stmt 0 view .LVU796
 2456 0070 84F81321 		strb	r2, [r4, #275]
 2457              		.loc 1 1055 5 view .LVU797
 2458 0074 84F81431 		strb	r3, [r4, #276]
 2459              		.loc 1 1050 5 view .LVU798
 2460 0078 84F81511 		strb	r1, [r4, #277]
 2461              		.loc 1 1052 5 is_stmt 1 view .LVU799
 2462              		.loc 1 1055 5 view .LVU800
 2463 007c D9E7     		b	.L211
 2464              	.L214:
 2465              		.loc 1 1062 1 is_stmt 0 view .LVU801
 2466 007e FFF7FEFF 		bl	__stack_chk_fail
 2467              	.LVL246:
 2468              	.L216:
 2469              		.loc 1 1062 1 view .LVU802
 2470 0082 00BF     		.align	2
 2471              	.L215:
 2472 0084 00000000 		.word	.LC14
 2473              		.cfi_endproc
 2474              	.LFE18:
 2475              		.size	VL53L0X_get_reference_spads, .-VL53L0X_get_reference_spads
 2476              		.section	.rodata.VL53L0X_perform_single_ref_calibration.cst4,"aM",%progbits,4
 2477              		.align	2
 2478              	.LC15:
 2479 0000 00000000 		.word	__stack_chk_guard
 2480              		.section	.text.VL53L0X_perform_single_ref_calibration,"ax",%progbits
 2481              		.align	1
 2482              		.p2align 4,,15
 2483              		.global	VL53L0X_perform_single_ref_calibration
 2484              		.syntax unified
 2485              		.thumb
 2486              		.thumb_func
 2487              		.fpu fpv4-sp-d16
 2488              		.type	VL53L0X_perform_single_ref_calibration, %function
 2489              	VL53L0X_perform_single_ref_calibration:
 2490              	.LVL247:
 2491              	.LFB19:
 2492              		.loc 1 1067 1 is_stmt 1 view -0
 2493              		.cfi_startproc
 2494              		@ args = 0, pretend = 0, frame = 8
 2495              		@ frame_needed = 0, uses_anonymous_args = 0
 2496              		.loc 1 1067 1 is_stmt 0 view .LVU804
 2497 0000 10B5     		push	{r4, lr}
 2498              		.cfi_def_cfa_offset 8
 2499              		.cfi_offset 4, -8
 2500              		.cfi_offset 14, -4
 2501 0002 184B     		ldr	r3, .L224
 2502 0004 82B0     		sub	sp, sp, #8
 2503              		.cfi_def_cfa_offset 16
 2504              		.loc 1 1071 12 view .LVU805
 2505 0006 41F00102 		orr	r2, r1, #1
 2506 000a 0021     		movs	r1, #0
 2507              	.LVL248:
 2508              		.loc 1 1067 1 view .LVU806
ARM GAS  /tmp/ccqyZH0w.s 			page 45


 2509 000c 1B68     		ldr	r3, [r3]
 2510 000e 0193     		str	r3, [sp, #4]
 2511 0010 4FF00003 		mov	r3,#0
 2512 0014 0446     		mov	r4, r0
 2513              		.loc 1 1068 2 is_stmt 1 view .LVU807
 2514              	.LVL249:
 2515              		.loc 1 1070 2 view .LVU808
 2516              		.loc 1 1071 3 view .LVU809
 2517              		.loc 1 1071 12 is_stmt 0 view .LVU810
 2518 0016 FFF7FEFF 		bl	VL53L0X_WrByte
 2519              	.LVL250:
 2520              		.loc 1 1075 2 is_stmt 1 view .LVU811
 2521              		.loc 1 1075 5 is_stmt 0 view .LVU812
 2522 001a 0146     		mov	r1, r0
 2523 001c 38B1     		cbz	r0, .L223
 2524              	.L218:
 2525              	.LVL251:
 2526              		.loc 1 1084 2 is_stmt 1 view .LVU813
 2527              		.loc 1 1085 1 is_stmt 0 view .LVU814
 2528 001e 114B     		ldr	r3, .L224
 2529 0020 1A68     		ldr	r2, [r3]
 2530 0022 019B     		ldr	r3, [sp, #4]
 2531 0024 5A40     		eors	r2, r3, r2
 2532 0026 1AD1     		bne	.L222
 2533 0028 0846     		mov	r0, r1
 2534 002a 02B0     		add	sp, sp, #8
 2535              		.cfi_remember_state
 2536              		.cfi_def_cfa_offset 8
 2537              		@ sp needed
 2538 002c 10BD     		pop	{r4, pc}
 2539              	.LVL252:
 2540              	.L223:
 2541              		.cfi_restore_state
 2542              		.loc 1 1076 3 is_stmt 1 view .LVU815
 2543              		.loc 1 1076 12 is_stmt 0 view .LVU816
 2544 002e 2046     		mov	r0, r4
 2545              	.LVL253:
 2546              		.loc 1 1076 12 view .LVU817
 2547 0030 FFF7FEFF 		bl	VL53L0X_measurement_poll_for_completion
 2548              	.LVL254:
 2549              		.loc 1 1078 2 is_stmt 1 view .LVU818
 2550              		.loc 1 1078 5 is_stmt 0 view .LVU819
 2551 0034 0146     		mov	r1, r0
 2552 0036 0028     		cmp	r0, #0
 2553 0038 F1D1     		bne	.L218
 2554              		.loc 1 1079 3 is_stmt 1 view .LVU820
 2555              		.loc 1 1079 12 is_stmt 0 view .LVU821
 2556 003a 2046     		mov	r0, r4
 2557              	.LVL255:
 2558              		.loc 1 1079 12 view .LVU822
 2559 003c FFF7FEFF 		bl	VL53L0X_ClearInterruptMask
 2560              	.LVL256:
 2561              		.loc 1 1081 2 is_stmt 1 view .LVU823
 2562              		.loc 1 1081 5 is_stmt 0 view .LVU824
 2563 0040 0146     		mov	r1, r0
 2564 0042 0028     		cmp	r0, #0
 2565 0044 EBD1     		bne	.L218
ARM GAS  /tmp/ccqyZH0w.s 			page 46


 2566              	.LVL257:
 2567              	.LBB48:
 2568              	.LBI48:
 2569              		.loc 1 1065 15 is_stmt 1 view .LVU825
 2570              	.LBB49:
 2571              		.loc 1 1082 3 view .LVU826
 2572              		.loc 1 1082 12 is_stmt 0 view .LVU827
 2573 0046 074B     		ldr	r3, .L224
 2574 0048 1A68     		ldr	r2, [r3]
 2575 004a 019B     		ldr	r3, [sp, #4]
 2576 004c 5A40     		eors	r2, r3, r2
 2577 004e 06D1     		bne	.L222
 2578 0050 2046     		mov	r0, r4
 2579              	.LVL258:
 2580              		.loc 1 1082 12 view .LVU828
 2581 0052 0A46     		mov	r2, r1
 2582              	.LBE49:
 2583              	.LBE48:
 2584              		.loc 1 1085 1 view .LVU829
 2585 0054 02B0     		add	sp, sp, #8
 2586              		.cfi_remember_state
 2587              		.cfi_def_cfa_offset 8
 2588              		@ sp needed
 2589 0056 BDE81040 		pop	{r4, lr}
 2590              		.cfi_restore 14
 2591              		.cfi_restore 4
 2592              		.cfi_def_cfa_offset 0
 2593              	.LVL259:
 2594              	.LBB51:
 2595              	.LBB50:
 2596              		.loc 1 1082 12 view .LVU830
 2597 005a FFF7FEBF 		b	VL53L0X_WrByte
 2598              	.LVL260:
 2599              	.L222:
 2600              		.cfi_restore_state
 2601              		.loc 1 1082 12 view .LVU831
 2602              	.LBE50:
 2603              	.LBE51:
 2604              		.loc 1 1085 1 view .LVU832
 2605 005e FFF7FEFF 		bl	__stack_chk_fail
 2606              	.LVL261:
 2607              	.L225:
 2608 0062 00BF     		.align	2
 2609              	.L224:
 2610 0064 00000000 		.word	.LC15
 2611              		.cfi_endproc
 2612              	.LFE19:
 2613              		.size	VL53L0X_perform_single_ref_calibration, .-VL53L0X_perform_single_ref_calibration
 2614              		.section	.rodata.VL53L0X_ref_calibration_io.cst4,"aM",%progbits,4
 2615              		.align	2
 2616              	.LC16:
 2617 0000 00000000 		.word	__stack_chk_guard
 2618              		.section	.text.VL53L0X_ref_calibration_io,"ax",%progbits
 2619              		.align	1
 2620              		.p2align 4,,15
 2621              		.global	VL53L0X_ref_calibration_io
 2622              		.syntax unified
ARM GAS  /tmp/ccqyZH0w.s 			page 47


 2623              		.thumb
 2624              		.thumb_func
 2625              		.fpu fpv4-sp-d16
 2626              		.type	VL53L0X_ref_calibration_io, %function
 2627              	VL53L0X_ref_calibration_io:
 2628              	.LVL262:
 2629              	.LFB20:
 2630              		.loc 1 1092 1 is_stmt 1 view -0
 2631              		.cfi_startproc
 2632              		@ args = 16, pretend = 0, frame = 16
 2633              		@ frame_needed = 0, uses_anonymous_args = 0
 2634              		.loc 1 1092 1 is_stmt 0 view .LVU834
 2635 0000 2DE9F04F 		push	{r4, r5, r6, r7, r8, r9, r10, fp, lr}
 2636              		.cfi_def_cfa_offset 36
 2637              		.cfi_offset 4, -36
 2638              		.cfi_offset 5, -32
 2639              		.cfi_offset 6, -28
 2640              		.cfi_offset 7, -24
 2641              		.cfi_offset 8, -20
 2642              		.cfi_offset 9, -16
 2643              		.cfi_offset 10, -12
 2644              		.cfi_offset 11, -8
 2645              		.cfi_offset 14, -4
 2646 0004 85B0     		sub	sp, sp, #20
 2647              		.cfi_def_cfa_offset 56
 2648              		.loc 1 1094 10 view .LVU835
 2649 0006 4FF0000A 		mov	r10, #0
 2650              		.loc 1 1092 1 view .LVU836
 2651 000a 0093     		str	r3, [sp]
 2652 000c 3E4B     		ldr	r3, .L250
 2653              	.LVL263:
 2654              		.loc 1 1092 1 view .LVU837
 2655 000e DDF83C80 		ldr	r8, [sp, #60]
 2656 0012 9DF840B0 		ldrb	fp, [sp, #64]	@ zero_extendqisi2
 2657 0016 9DF84490 		ldrb	r9, [sp, #68]	@ zero_extendqisi2
 2658 001a 1B68     		ldr	r3, [r3]
 2659 001c 0393     		str	r3, [sp, #12]
 2660 001e 4FF00003 		mov	r3,#0
 2661              		.loc 1 1093 2 is_stmt 1 view .LVU838
 2662              	.LVL264:
 2663              		.loc 1 1094 2 view .LVU839
 2664              		.loc 1 1092 1 is_stmt 0 view .LVU840
 2665 0022 0E46     		mov	r6, r1
 2666 0024 0E9B     		ldr	r3, [sp, #56]
 2667 0026 0193     		str	r3, [sp, #4]
 2668              		.loc 1 1097 12 view .LVU841
 2669 0028 FF21     		movs	r1, #255
 2670              	.LVL265:
 2671              		.loc 1 1092 1 view .LVU842
 2672 002a 1746     		mov	r7, r2
 2673              		.loc 1 1097 12 view .LVU843
 2674 002c 0122     		movs	r2, #1
 2675              	.LVL266:
 2676              		.loc 1 1092 1 view .LVU844
 2677 002e 0546     		mov	r5, r0
 2678              		.loc 1 1094 10 view .LVU845
 2679 0030 8DF80BA0 		strb	r10, [sp, #11]
ARM GAS  /tmp/ccqyZH0w.s 			page 48


 2680              		.loc 1 1097 2 is_stmt 1 view .LVU846
 2681              		.loc 1 1097 12 is_stmt 0 view .LVU847
 2682 0034 FFF7FEFF 		bl	VL53L0X_WrByte
 2683              	.LVL267:
 2684              		.loc 1 1098 12 view .LVU848
 2685 0038 5246     		mov	r2, r10
 2686              		.loc 1 1097 12 view .LVU849
 2687 003a 0446     		mov	r4, r0
 2688              		.loc 1 1098 12 view .LVU850
 2689 003c 5146     		mov	r1, r10
 2690              	.LVL268:
 2691              		.loc 1 1098 2 is_stmt 1 view .LVU851
 2692              		.loc 1 1098 12 is_stmt 0 view .LVU852
 2693 003e 2846     		mov	r0, r5
 2694 0040 FFF7FEFF 		bl	VL53L0X_WrByte
 2695              	.LVL269:
 2696              		.loc 1 1099 12 view .LVU853
 2697 0044 5246     		mov	r2, r10
 2698              		.loc 1 1098 9 view .LVU854
 2699 0046 0443     		orrs	r4, r4, r0
 2700              	.LVL270:
 2701              		.loc 1 1099 12 view .LVU855
 2702 0048 FF21     		movs	r1, #255
 2703 004a 2846     		mov	r0, r5
 2704 004c FFF7FEFF 		bl	VL53L0X_WrByte
 2705              	.LVL271:
 2706              		.loc 1 1098 9 view .LVU856
 2707 0050 64B2     		sxtb	r4, r4
 2708              	.LVL272:
 2709              		.loc 1 1099 2 is_stmt 1 view .LVU857
 2710              		.loc 1 1099 9 is_stmt 0 view .LVU858
 2711 0052 2043     		orrs	r0, r0, r4
 2712 0054 44B2     		sxtb	r4, r0
 2713              	.LVL273:
 2714              		.loc 1 1101 2 is_stmt 1 view .LVU859
 2715              		.loc 1 1101 5 is_stmt 0 view .LVU860
 2716 0056 46B3     		cbz	r6, .L227
 2717              		.loc 1 1102 3 is_stmt 1 view .LVU861
 2718              		.loc 1 1102 6 is_stmt 0 view .LVU862
 2719 0058 BBF1000F 		cmp	fp, #0
 2720 005c 34D1     		bne	.L245
 2721              		.loc 1 1104 3 is_stmt 1 view .LVU863
 2722              		.loc 1 1104 6 is_stmt 0 view .LVU864
 2723 005e B9F1000F 		cmp	r9, #0
 2724 0062 3BD1     		bne	.L246
 2725              	.L229:
 2726              		.loc 1 1113 2 is_stmt 1 view .LVU865
 2727              		.loc 1 1113 12 is_stmt 0 view .LVU866
 2728 0064 0122     		movs	r2, #1
 2729 0066 FF21     		movs	r1, #255
 2730 0068 2846     		mov	r0, r5
 2731 006a FFF7FEFF 		bl	VL53L0X_WrByte
 2732              	.LVL274:
 2733              		.loc 1 1114 12 view .LVU867
 2734 006e 0122     		movs	r2, #1
 2735              		.loc 1 1113 9 view .LVU868
 2736 0070 0443     		orrs	r4, r4, r0
ARM GAS  /tmp/ccqyZH0w.s 			page 49


 2737              	.LVL275:
 2738              		.loc 1 1114 12 view .LVU869
 2739 0072 0021     		movs	r1, #0
 2740 0074 2846     		mov	r0, r5
 2741 0076 FFF7FEFF 		bl	VL53L0X_WrByte
 2742              	.LVL276:
 2743              		.loc 1 1113 9 view .LVU870
 2744 007a 64B2     		sxtb	r4, r4
 2745              	.LVL277:
 2746              		.loc 1 1114 2 is_stmt 1 view .LVU871
 2747              		.loc 1 1114 9 is_stmt 0 view .LVU872
 2748 007c 0443     		orrs	r4, r4, r0
 2749              	.LVL278:
 2750              		.loc 1 1115 12 view .LVU873
 2751 007e 0022     		movs	r2, #0
 2752 0080 2846     		mov	r0, r5
 2753 0082 FF21     		movs	r1, #255
 2754 0084 FFF7FEFF 		bl	VL53L0X_WrByte
 2755              	.LVL279:
 2756              		.loc 1 1117 15 view .LVU874
 2757 0088 9DF80B30 		ldrb	r3, [sp, #11]	@ zero_extendqisi2
 2758 008c 23F01003 		bic	r3, r3, #16
 2759              		.loc 1 1117 13 view .LVU875
 2760 0090 88F80030 		strb	r3, [r8]
 2761              		.loc 1 1120 1 view .LVU876
 2762 0094 1C4B     		ldr	r3, .L250
 2763              		.loc 1 1114 9 view .LVU877
 2764 0096 64B2     		sxtb	r4, r4
 2765              	.LVL280:
 2766              		.loc 1 1115 2 is_stmt 1 view .LVU878
 2767              		.loc 1 1117 2 view .LVU879
 2768              		.loc 1 1119 2 view .LVU880
 2769              		.loc 1 1115 9 is_stmt 0 view .LVU881
 2770 0098 2043     		orrs	r0, r0, r4
 2771              	.LVL281:
 2772              		.loc 1 1120 1 view .LVU882
 2773 009a 1A68     		ldr	r2, [r3]
 2774 009c 039B     		ldr	r3, [sp, #12]
 2775 009e 5A40     		eors	r2, r3, r2
 2776              		.loc 1 1119 9 view .LVU883
 2777 00a0 40B2     		sxtb	r0, r0
 2778              		.loc 1 1120 1 view .LVU884
 2779 00a2 2FD1     		bne	.L247
 2780 00a4 05B0     		add	sp, sp, #20
 2781              		.cfi_remember_state
 2782              		.cfi_def_cfa_offset 36
 2783              		@ sp needed
 2784 00a6 BDE8F08F 		pop	{r4, r5, r6, r7, r8, r9, r10, fp, pc}
 2785              	.LVL282:
 2786              	.L227:
 2787              		.cfi_restore_state
 2788              		.loc 1 1107 3 is_stmt 1 view .LVU885
 2789              		.loc 1 1107 6 is_stmt 0 view .LVU886
 2790 00aa BBF1000F 		cmp	fp, #0
 2791 00ae 1ED1     		bne	.L248
 2792              		.loc 1 1109 3 is_stmt 1 view .LVU887
 2793              		.loc 1 1109 6 is_stmt 0 view .LVU888
ARM GAS  /tmp/ccqyZH0w.s 			page 50


 2794 00b0 B9F1000F 		cmp	r9, #0
 2795 00b4 D6D0     		beq	.L229
 2796              	.L249:
 2797              		.loc 1 1110 4 is_stmt 1 view .LVU889
 2798              		.loc 1 1110 14 is_stmt 0 view .LVU890
 2799 00b6 009B     		ldr	r3, [sp]
 2800 00b8 8022     		movs	r2, #128
 2801 00ba EE21     		movs	r1, #238
 2802 00bc 2846     		mov	r0, r5
 2803 00be FFF7FEFF 		bl	VL53L0X_UpdateByte
 2804              	.LVL283:
 2805              		.loc 1 1110 11 view .LVU891
 2806 00c2 2043     		orrs	r0, r0, r4
 2807 00c4 44B2     		sxtb	r4, r0
 2808              	.LVL284:
 2809              		.loc 1 1110 11 view .LVU892
 2810 00c6 CDE7     		b	.L229
 2811              	.L245:
 2812              		.loc 1 1103 4 is_stmt 1 view .LVU893
 2813              		.loc 1 1103 14 is_stmt 0 view .LVU894
 2814 00c8 019A     		ldr	r2, [sp, #4]
 2815 00ca CB21     		movs	r1, #203
 2816 00cc 2846     		mov	r0, r5
 2817 00ce FFF7FEFF 		bl	VL53L0X_RdByte
 2818              	.LVL285:
 2819              		.loc 1 1103 11 view .LVU895
 2820 00d2 2043     		orrs	r0, r0, r4
 2821 00d4 44B2     		sxtb	r4, r0
 2822              	.LVL286:
 2823              		.loc 1 1104 3 is_stmt 1 view .LVU896
 2824              		.loc 1 1104 6 is_stmt 0 view .LVU897
 2825 00d6 B9F1000F 		cmp	r9, #0
 2826 00da C3D0     		beq	.L229
 2827              	.L246:
 2828              		.loc 1 1105 4 is_stmt 1 view .LVU898
 2829              		.loc 1 1105 14 is_stmt 0 view .LVU899
 2830 00dc 0DF10B02 		add	r2, sp, #11
 2831 00e0 EE21     		movs	r1, #238
 2832 00e2 2846     		mov	r0, r5
 2833 00e4 FFF7FEFF 		bl	VL53L0X_RdByte
 2834              	.LVL287:
 2835              		.loc 1 1105 11 view .LVU900
 2836 00e8 2043     		orrs	r0, r0, r4
 2837 00ea 44B2     		sxtb	r4, r0
 2838              	.LVL288:
 2839              		.loc 1 1105 11 view .LVU901
 2840 00ec BAE7     		b	.L229
 2841              	.L248:
 2842              		.loc 1 1108 4 is_stmt 1 view .LVU902
 2843              		.loc 1 1108 14 is_stmt 0 view .LVU903
 2844 00ee 3A46     		mov	r2, r7
 2845 00f0 CB21     		movs	r1, #203
 2846 00f2 2846     		mov	r0, r5
 2847 00f4 FFF7FEFF 		bl	VL53L0X_WrByte
 2848              	.LVL289:
 2849              		.loc 1 1108 11 view .LVU904
 2850 00f8 2043     		orrs	r0, r0, r4
ARM GAS  /tmp/ccqyZH0w.s 			page 51


 2851 00fa 44B2     		sxtb	r4, r0
 2852              	.LVL290:
 2853              		.loc 1 1109 3 is_stmt 1 view .LVU905
 2854              		.loc 1 1109 6 is_stmt 0 view .LVU906
 2855 00fc B9F1000F 		cmp	r9, #0
 2856 0100 B0D0     		beq	.L229
 2857 0102 D8E7     		b	.L249
 2858              	.LVL291:
 2859              	.L247:
 2860              		.loc 1 1120 1 view .LVU907
 2861 0104 FFF7FEFF 		bl	__stack_chk_fail
 2862              	.LVL292:
 2863              	.L251:
 2864              		.align	2
 2865              	.L250:
 2866 0108 00000000 		.word	.LC16
 2867              		.cfi_endproc
 2868              	.LFE20:
 2869              		.size	VL53L0X_ref_calibration_io, .-VL53L0X_ref_calibration_io
 2870              		.section	.rodata.VL53L0X_perform_vhv_calibration.cst4,"aM",%progbits,4
 2871              		.align	2
 2872              	.LC17:
 2873 0000 00000000 		.word	__stack_chk_guard
 2874              		.section	.text.VL53L0X_perform_vhv_calibration,"ax",%progbits
 2875              		.align	1
 2876              		.p2align 4,,15
 2877              		.global	VL53L0X_perform_vhv_calibration
 2878              		.syntax unified
 2879              		.thumb
 2880              		.thumb_func
 2881              		.fpu fpv4-sp-d16
 2882              		.type	VL53L0X_perform_vhv_calibration, %function
 2883              	VL53L0X_perform_vhv_calibration:
 2884              	.LVL293:
 2885              	.LFB21:
 2886              		.loc 1 1126 1 is_stmt 1 view -0
 2887              		.cfi_startproc
 2888              		@ args = 0, pretend = 0, frame = 8
 2889              		@ frame_needed = 0, uses_anonymous_args = 0
 2890              		.loc 1 1126 1 is_stmt 0 view .LVU909
 2891 0000 2DE9F043 		push	{r4, r5, r6, r7, r8, r9, lr}
 2892              		.cfi_def_cfa_offset 28
 2893              		.cfi_offset 4, -28
 2894              		.cfi_offset 5, -24
 2895              		.cfi_offset 6, -20
 2896              		.cfi_offset 7, -16
 2897              		.cfi_offset 8, -12
 2898              		.cfi_offset 9, -8
 2899              		.cfi_offset 14, -4
 2900 0004 9146     		mov	r9, r2
 2901 0006 87B0     		sub	sp, sp, #28
 2902              		.cfi_def_cfa_offset 56
 2903              		.loc 1 1126 1 view .LVU910
 2904 0008 294A     		ldr	r2, .L271
 2905              	.LVL294:
 2906              		.loc 1 1131 10 view .LVU911
 2907 000a 0024     		movs	r4, #0
ARM GAS  /tmp/ccqyZH0w.s 			page 52


 2908              		.loc 1 1126 1 view .LVU912
 2909 000c 1268     		ldr	r2, [r2]
 2910 000e 0592     		str	r2, [sp, #20]
 2911 0010 4FF00002 		mov	r2,#0
 2912              		.loc 1 1127 2 is_stmt 1 view .LVU913
 2913              	.LVL295:
 2914              		.loc 1 1128 2 view .LVU914
 2915              		.loc 1 1129 2 view .LVU915
 2916              		.loc 1 1130 2 view .LVU916
 2917              		.loc 1 1131 2 view .LVU917
 2918              		.loc 1 1126 1 is_stmt 0 view .LVU918
 2919 0014 0546     		mov	r5, r0
 2920 0016 0F46     		mov	r7, r1
 2921              		.loc 1 1137 5 view .LVU919
 2922 0018 1E46     		mov	r6, r3
 2923              		.loc 1 1131 10 view .LVU920
 2924 001a 8DF81340 		strb	r4, [sp, #19]
 2925              		.loc 1 1137 2 is_stmt 1 view .LVU921
 2926              		.loc 1 1137 5 is_stmt 0 view .LVU922
 2927 001e 9BB1     		cbz	r3, .L260
 2928              		.loc 1 1138 3 is_stmt 1 view .LVU923
 2929              		.loc 1 1141 11 is_stmt 0 view .LVU924
 2930 0020 0122     		movs	r2, #1
 2931              		.loc 1 1138 18 view .LVU925
 2932 0022 90F83081 		ldrb	r8, [r0, #304]	@ zero_extendqisi2
 2933              	.LVL296:
 2934              		.loc 1 1141 2 is_stmt 1 view .LVU926
 2935              		.loc 1 1141 11 is_stmt 0 view .LVU927
 2936 0026 1146     		mov	r1, r2
 2937              	.LVL297:
 2938              		.loc 1 1141 11 view .LVU928
 2939 0028 2846     		mov	r0, r5
 2940              		.loc 1 1141 11 view .LVU929
 2941 002a FFF7FEFF 		bl	VL53L0X_WrByte
 2942              	.LVL298:
 2943              		.loc 1 1143 2 is_stmt 1 view .LVU930
 2944              		.loc 1 1143 5 is_stmt 0 view .LVU931
 2945 002e 0446     		mov	r4, r0
 2946 0030 98B1     		cbz	r0, .L268
 2947              	.L254:
 2948              	.LVL299:
 2949              		.loc 1 1153 3 is_stmt 1 view .LVU932
 2950              		.loc 1 1153 17 is_stmt 0 view .LVU933
 2951 0032 0023     		movs	r3, #0
 2952 0034 3B70     		strb	r3, [r7]
 2953              	.LVL300:
 2954              		.loc 1 1156 2 is_stmt 1 view .LVU934
 2955              	.L258:
 2956              		.loc 1 1165 2 view .LVU935
 2957              		.loc 1 1166 1 is_stmt 0 view .LVU936
 2958 0036 1E4B     		ldr	r3, .L271
 2959 0038 1A68     		ldr	r2, [r3]
 2960 003a 059B     		ldr	r3, [sp, #20]
 2961 003c 5A40     		eors	r2, r3, r2
 2962 003e 34D1     		bne	.L269
 2963 0040 2046     		mov	r0, r4
 2964 0042 07B0     		add	sp, sp, #28
ARM GAS  /tmp/ccqyZH0w.s 			page 53


 2965              		.cfi_remember_state
 2966              		.cfi_def_cfa_offset 28
 2967              		@ sp needed
 2968 0044 BDE8F083 		pop	{r4, r5, r6, r7, r8, r9, pc}
 2969              	.LVL301:
 2970              	.L260:
 2971              		.cfi_restore_state
 2972              		.loc 1 1141 11 view .LVU937
 2973 0048 0122     		movs	r2, #1
 2974 004a 1146     		mov	r1, r2
 2975              	.LVL302:
 2976              		.loc 1 1141 11 view .LVU938
 2977 004c 2846     		mov	r0, r5
 2978              	.LVL303:
 2979              		.loc 1 1128 10 view .LVU939
 2980 004e 9846     		mov	r8, r3
 2981              	.LVL304:
 2982              		.loc 1 1141 2 is_stmt 1 view .LVU940
 2983              		.loc 1 1141 11 is_stmt 0 view .LVU941
 2984 0050 FFF7FEFF 		bl	VL53L0X_WrByte
 2985              	.LVL305:
 2986              		.loc 1 1143 2 is_stmt 1 view .LVU942
 2987              		.loc 1 1143 5 is_stmt 0 view .LVU943
 2988 0054 0446     		mov	r4, r0
 2989 0056 0028     		cmp	r0, #0
 2990 0058 EBD1     		bne	.L254
 2991              	.L268:
 2992              		.loc 1 1144 3 is_stmt 1 view .LVU944
 2993              		.loc 1 1144 12 is_stmt 0 view .LVU945
 2994 005a 4021     		movs	r1, #64
 2995 005c 2846     		mov	r0, r5
 2996              	.LVL306:
 2997              		.loc 1 1144 12 view .LVU946
 2998 005e FFF7FEFF 		bl	VL53L0X_perform_single_ref_calibration
 2999              	.LVL307:
 3000              		.loc 1 1147 2 is_stmt 1 view .LVU947
 3001              		.loc 1 1147 5 is_stmt 0 view .LVU948
 3002 0062 0446     		mov	r4, r0
 3003 0064 0028     		cmp	r0, #0
 3004 0066 E4D1     		bne	.L254
 3005              		.loc 1 1147 37 discriminator 1 view .LVU949
 3006 0068 B9F1010F 		cmp	r9, #1
 3007 006c 0DD0     		beq	.L270
 3008              	.LVL308:
 3009              		.loc 1 1153 3 is_stmt 1 view .LVU950
 3010              		.loc 1 1153 17 is_stmt 0 view .LVU951
 3011 006e 3870     		strb	r0, [r7]
 3012              	.LVL309:
 3013              		.loc 1 1156 2 is_stmt 1 view .LVU952
 3014              	.L256:
 3015              		.loc 1 1156 37 is_stmt 0 discriminator 1 view .LVU953
 3016 0070 002E     		cmp	r6, #0
 3017 0072 E0D0     		beq	.L258
 3018              		.loc 1 1158 3 is_stmt 1 view .LVU954
 3019              		.loc 1 1158 12 is_stmt 0 view .LVU955
 3020 0074 4246     		mov	r2, r8
 3021 0076 0121     		movs	r1, #1
ARM GAS  /tmp/ccqyZH0w.s 			page 54


 3022 0078 2846     		mov	r0, r5
 3023 007a FFF7FEFF 		bl	VL53L0X_WrByte
 3024              	.LVL310:
 3025              		.loc 1 1160 3 is_stmt 1 view .LVU956
 3026              		.loc 1 1160 6 is_stmt 0 view .LVU957
 3027 007e 0446     		mov	r4, r0
 3028 0080 0028     		cmp	r0, #0
 3029 0082 D8D1     		bne	.L258
 3030              		.loc 1 1161 4 is_stmt 1 view .LVU958
 3031 0084 85F83081 		strb	r8, [r5, #304]
 3032 0088 D5E7     		b	.L258
 3033              	.L270:
 3034              		.loc 1 1148 3 view .LVU959
 3035              		.loc 1 1148 12 is_stmt 0 view .LVU960
 3036 008a 0DF11303 		add	r3, sp, #19
 3037 008e CDE90290 		strd	r9, r0, [sp, #8]
 3038 0092 0193     		str	r3, [sp, #4]
 3039 0094 0246     		mov	r2, r0
 3040 0096 0346     		mov	r3, r0
 3041 0098 0097     		str	r7, [sp]
 3042 009a 4946     		mov	r1, r9
 3043 009c 2846     		mov	r0, r5
 3044              	.LVL311:
 3045              		.loc 1 1148 12 view .LVU961
 3046 009e FFF7FEFF 		bl	VL53L0X_ref_calibration_io
 3047              	.LVL312:
 3048              		.loc 1 1156 2 is_stmt 1 view .LVU962
 3049              		.loc 1 1156 5 is_stmt 0 view .LVU963
 3050 00a2 0028     		cmp	r0, #0
 3051 00a4 E4D0     		beq	.L256
 3052              		.loc 1 1148 12 view .LVU964
 3053 00a6 0446     		mov	r4, r0
 3054 00a8 C5E7     		b	.L258
 3055              	.LVL313:
 3056              	.L269:
 3057              		.loc 1 1166 1 view .LVU965
 3058 00aa FFF7FEFF 		bl	__stack_chk_fail
 3059              	.LVL314:
 3060              	.L272:
 3061 00ae 00BF     		.align	2
 3062              	.L271:
 3063 00b0 00000000 		.word	.LC17
 3064              		.cfi_endproc
 3065              	.LFE21:
 3066              		.size	VL53L0X_perform_vhv_calibration, .-VL53L0X_perform_vhv_calibration
 3067              		.section	.rodata.VL53L0X_perform_phase_calibration.cst4,"aM",%progbits,4
 3068              		.align	2
 3069              	.LC18:
 3070 0000 00000000 		.word	__stack_chk_guard
 3071              		.section	.text.VL53L0X_perform_phase_calibration,"ax",%progbits
 3072              		.align	1
 3073              		.p2align 4,,15
 3074              		.global	VL53L0X_perform_phase_calibration
 3075              		.syntax unified
 3076              		.thumb
 3077              		.thumb_func
 3078              		.fpu fpv4-sp-d16
ARM GAS  /tmp/ccqyZH0w.s 			page 55


 3079              		.type	VL53L0X_perform_phase_calibration, %function
 3080              	VL53L0X_perform_phase_calibration:
 3081              	.LVL315:
 3082              	.LFB22:
 3083              		.loc 1 1171 1 is_stmt 1 view -0
 3084              		.cfi_startproc
 3085              		@ args = 0, pretend = 0, frame = 8
 3086              		@ frame_needed = 0, uses_anonymous_args = 0
 3087              		.loc 1 1171 1 is_stmt 0 view .LVU967
 3088 0000 2DE9F043 		push	{r4, r5, r6, r7, r8, r9, lr}
 3089              		.cfi_def_cfa_offset 28
 3090              		.cfi_offset 4, -28
 3091              		.cfi_offset 5, -24
 3092              		.cfi_offset 6, -20
 3093              		.cfi_offset 7, -16
 3094              		.cfi_offset 8, -12
 3095              		.cfi_offset 9, -8
 3096              		.cfi_offset 14, -4
 3097 0004 9146     		mov	r9, r2
 3098 0006 254A     		ldr	r2, .L292
 3099              	.LVL316:
 3100              		.loc 1 1171 1 view .LVU968
 3101 0008 87B0     		sub	sp, sp, #28
 3102              		.cfi_def_cfa_offset 56
 3103              		.loc 1 1171 1 view .LVU969
 3104 000a 0546     		mov	r5, r0
 3105 000c 0F46     		mov	r7, r1
 3106 000e 1268     		ldr	r2, [r2]
 3107 0010 0592     		str	r2, [sp, #20]
 3108 0012 4FF00002 		mov	r2,#0
 3109              		.loc 1 1172 2 is_stmt 1 view .LVU970
 3110              	.LVL317:
 3111              		.loc 1 1173 2 view .LVU971
 3112              		.loc 1 1174 2 view .LVU972
 3113              		.loc 1 1175 2 view .LVU973
 3114              		.loc 1 1176 2 view .LVU974
 3115              		.loc 1 1182 2 view .LVU975
 3116              		.loc 1 1182 5 is_stmt 0 view .LVU976
 3117 0016 1E46     		mov	r6, r3
 3118 0018 9BB1     		cbz	r3, .L281
 3119              		.loc 1 1183 3 is_stmt 1 view .LVU977
 3120              		.loc 1 1183 18 is_stmt 0 view .LVU978
 3121 001a 90F83081 		ldrb	r8, [r0, #304]	@ zero_extendqisi2
 3122              	.LVL318:
 3123              	.L274:
 3124              		.loc 1 1186 2 is_stmt 1 view .LVU979
 3125              		.loc 1 1186 11 is_stmt 0 view .LVU980
 3126 001e 0222     		movs	r2, #2
 3127 0020 0121     		movs	r1, #1
 3128              	.LVL319:
 3129              		.loc 1 1186 11 view .LVU981
 3130 0022 2846     		mov	r0, r5
 3131              	.LVL320:
 3132              		.loc 1 1186 11 view .LVU982
 3133 0024 FFF7FEFF 		bl	VL53L0X_WrByte
 3134              	.LVL321:
 3135              		.loc 1 1188 2 is_stmt 1 view .LVU983
ARM GAS  /tmp/ccqyZH0w.s 			page 56


 3136              		.loc 1 1188 5 is_stmt 0 view .LVU984
 3137 0028 0446     		mov	r4, r0
 3138 002a 60B1     		cbz	r0, .L289
 3139              	.L275:
 3140              	.LVL322:
 3141              		.loc 1 1198 3 is_stmt 1 view .LVU985
 3142              		.loc 1 1198 14 is_stmt 0 view .LVU986
 3143 002c 0023     		movs	r3, #0
 3144 002e 3B70     		strb	r3, [r7]
 3145              	.LVL323:
 3146              		.loc 1 1201 2 is_stmt 1 view .LVU987
 3147              	.L279:
 3148              		.loc 1 1210 2 view .LVU988
 3149              		.loc 1 1211 1 is_stmt 0 view .LVU989
 3150 0030 1A4B     		ldr	r3, .L292
 3151 0032 1A68     		ldr	r2, [r3]
 3152 0034 059B     		ldr	r3, [sp, #20]
 3153 0036 5A40     		eors	r2, r3, r2
 3154 0038 2DD1     		bne	.L290
 3155 003a 2046     		mov	r0, r4
 3156 003c 07B0     		add	sp, sp, #28
 3157              		.cfi_remember_state
 3158              		.cfi_def_cfa_offset 28
 3159              		@ sp needed
 3160 003e BDE8F083 		pop	{r4, r5, r6, r7, r8, r9, pc}
 3161              	.LVL324:
 3162              	.L281:
 3163              		.cfi_restore_state
 3164              		.loc 1 1173 10 view .LVU990
 3165 0042 9846     		mov	r8, r3
 3166 0044 EBE7     		b	.L274
 3167              	.LVL325:
 3168              	.L289:
 3169              		.loc 1 1189 3 is_stmt 1 view .LVU991
 3170              		.loc 1 1189 12 is_stmt 0 view .LVU992
 3171 0046 0146     		mov	r1, r0
 3172 0048 2846     		mov	r0, r5
 3173              	.LVL326:
 3174              		.loc 1 1189 12 view .LVU993
 3175 004a FFF7FEFF 		bl	VL53L0X_perform_single_ref_calibration
 3176              	.LVL327:
 3177              		.loc 1 1192 2 is_stmt 1 view .LVU994
 3178              		.loc 1 1192 5 is_stmt 0 view .LVU995
 3179 004e 0446     		mov	r4, r0
 3180 0050 0028     		cmp	r0, #0
 3181 0052 EBD1     		bne	.L275
 3182              		.loc 1 1192 37 discriminator 1 view .LVU996
 3183 0054 B9F1010F 		cmp	r9, #1
 3184 0058 0DD0     		beq	.L291
 3185              	.LVL328:
 3186              		.loc 1 1198 3 is_stmt 1 view .LVU997
 3187              		.loc 1 1198 14 is_stmt 0 view .LVU998
 3188 005a 3870     		strb	r0, [r7]
 3189              	.LVL329:
 3190              		.loc 1 1201 2 is_stmt 1 view .LVU999
 3191              	.L277:
 3192              		.loc 1 1201 37 is_stmt 0 discriminator 1 view .LVU1000
ARM GAS  /tmp/ccqyZH0w.s 			page 57


 3193 005c 002E     		cmp	r6, #0
 3194 005e E7D0     		beq	.L279
 3195              		.loc 1 1203 3 is_stmt 1 view .LVU1001
 3196              		.loc 1 1203 12 is_stmt 0 view .LVU1002
 3197 0060 4246     		mov	r2, r8
 3198 0062 0121     		movs	r1, #1
 3199 0064 2846     		mov	r0, r5
 3200 0066 FFF7FEFF 		bl	VL53L0X_WrByte
 3201              	.LVL330:
 3202              		.loc 1 1205 3 is_stmt 1 view .LVU1003
 3203              		.loc 1 1205 6 is_stmt 0 view .LVU1004
 3204 006a 0446     		mov	r4, r0
 3205 006c 0028     		cmp	r0, #0
 3206 006e DFD1     		bne	.L279
 3207              		.loc 1 1206 4 is_stmt 1 view .LVU1005
 3208 0070 85F83081 		strb	r8, [r5, #304]
 3209 0074 DCE7     		b	.L279
 3210              	.L291:
 3211              		.loc 1 1193 3 view .LVU1006
 3212              		.loc 1 1193 12 is_stmt 0 view .LVU1007
 3213 0076 0DF11303 		add	r3, sp, #19
 3214 007a CDE90209 		strd	r0, r9, [sp, #8]
 3215 007e 0093     		str	r3, [sp]
 3216 0080 0246     		mov	r2, r0
 3217 0082 0346     		mov	r3, r0
 3218 0084 0197     		str	r7, [sp, #4]
 3219 0086 4946     		mov	r1, r9
 3220 0088 2846     		mov	r0, r5
 3221              	.LVL331:
 3222              		.loc 1 1193 12 view .LVU1008
 3223 008a FFF7FEFF 		bl	VL53L0X_ref_calibration_io
 3224              	.LVL332:
 3225              		.loc 1 1201 2 is_stmt 1 view .LVU1009
 3226              		.loc 1 1201 5 is_stmt 0 view .LVU1010
 3227 008e 0028     		cmp	r0, #0
 3228 0090 E4D0     		beq	.L277
 3229              		.loc 1 1193 12 view .LVU1011
 3230 0092 0446     		mov	r4, r0
 3231 0094 CCE7     		b	.L279
 3232              	.LVL333:
 3233              	.L290:
 3234              		.loc 1 1211 1 view .LVU1012
 3235 0096 FFF7FEFF 		bl	__stack_chk_fail
 3236              	.LVL334:
 3237              	.L293:
 3238 009a 00BF     		.align	2
 3239              	.L292:
 3240 009c 00000000 		.word	.LC18
 3241              		.cfi_endproc
 3242              	.LFE22:
 3243              		.size	VL53L0X_perform_phase_calibration, .-VL53L0X_perform_phase_calibration
 3244              		.section	.rodata.VL53L0X_perform_ref_calibration.cst4,"aM",%progbits,4
 3245              		.align	2
 3246              	.LC19:
 3247 0000 00000000 		.word	__stack_chk_guard
 3248              		.section	.text.VL53L0X_perform_ref_calibration,"ax",%progbits
 3249              		.align	1
ARM GAS  /tmp/ccqyZH0w.s 			page 58


 3250              		.p2align 4,,15
 3251              		.global	VL53L0X_perform_ref_calibration
 3252              		.syntax unified
 3253              		.thumb
 3254              		.thumb_func
 3255              		.fpu fpv4-sp-d16
 3256              		.type	VL53L0X_perform_ref_calibration, %function
 3257              	VL53L0X_perform_ref_calibration:
 3258              	.LVL335:
 3259              	.LFB23:
 3260              		.loc 1 1215 1 is_stmt 1 view -0
 3261              		.cfi_startproc
 3262              		@ args = 0, pretend = 0, frame = 8
 3263              		@ frame_needed = 0, uses_anonymous_args = 0
 3264              		.loc 1 1215 1 is_stmt 0 view .LVU1014
 3265 0000 F0B5     		push	{r4, r5, r6, r7, lr}
 3266              		.cfi_def_cfa_offset 20
 3267              		.cfi_offset 4, -20
 3268              		.cfi_offset 5, -16
 3269              		.cfi_offset 6, -12
 3270              		.cfi_offset 7, -8
 3271              		.cfi_offset 14, -4
 3272 0002 154F     		ldr	r7, .L300
 3273 0004 1D46     		mov	r5, r3
 3274 0006 83B0     		sub	sp, sp, #12
 3275              		.cfi_def_cfa_offset 32
 3276              		.loc 1 1215 1 view .LVU1015
 3277 0008 1646     		mov	r6, r2
 3278              		.loc 1 1227 11 view .LVU1016
 3279 000a 0023     		movs	r3, #0
 3280              	.LVL336:
 3281              		.loc 1 1227 11 view .LVU1017
 3282 000c 2A46     		mov	r2, r5
 3283              	.LVL337:
 3284              		.loc 1 1215 1 view .LVU1018
 3285 000e 3F68     		ldr	r7, [r7]
 3286 0010 0197     		str	r7, [sp, #4]
 3287 0012 4FF00007 		mov	r7,#0
 3288              		.loc 1 1216 2 is_stmt 1 view .LVU1019
 3289              	.LVL338:
 3290              		.loc 1 1217 2 view .LVU1020
 3291              		.loc 1 1223 2 view .LVU1021
 3292              		.loc 1 1215 1 is_stmt 0 view .LVU1022
 3293 0016 0446     		mov	r4, r0
 3294              		.loc 1 1223 17 view .LVU1023
 3295 0018 90F83071 		ldrb	r7, [r0, #304]	@ zero_extendqisi2
 3296              	.LVL339:
 3297              		.loc 1 1227 2 is_stmt 1 view .LVU1024
 3298              		.loc 1 1227 11 is_stmt 0 view .LVU1025
 3299 001c FFF7FEFF 		bl	VL53L0X_perform_vhv_calibration
 3300              	.LVL340:
 3301              		.loc 1 1231 2 is_stmt 1 view .LVU1026
 3302              		.loc 1 1231 5 is_stmt 0 view .LVU1027
 3303 0020 30B1     		cbz	r0, .L298
 3304              	.L295:
 3305              		.loc 1 1245 2 is_stmt 1 view .LVU1028
 3306              		.loc 1 1246 1 is_stmt 0 view .LVU1029
ARM GAS  /tmp/ccqyZH0w.s 			page 59


 3307 0022 0D4B     		ldr	r3, .L300
 3308 0024 1A68     		ldr	r2, [r3]
 3309 0026 019B     		ldr	r3, [sp, #4]
 3310 0028 5A40     		eors	r2, r3, r2
 3311 002a 13D1     		bne	.L299
 3312              		.loc 1 1246 1 view .LVU1030
 3313 002c 03B0     		add	sp, sp, #12
 3314              		.cfi_remember_state
 3315              		.cfi_def_cfa_offset 20
 3316              		@ sp needed
 3317 002e F0BD     		pop	{r4, r5, r6, r7, pc}
 3318              	.LVL341:
 3319              	.L298:
 3320              		.cfi_restore_state
 3321              		.loc 1 1232 3 is_stmt 1 view .LVU1031
 3322              		.loc 1 1232 12 is_stmt 0 view .LVU1032
 3323 0030 0346     		mov	r3, r0
 3324 0032 2A46     		mov	r2, r5
 3325 0034 3146     		mov	r1, r6
 3326 0036 2046     		mov	r0, r4
 3327              	.LVL342:
 3328              		.loc 1 1232 12 view .LVU1033
 3329 0038 FFF7FEFF 		bl	VL53L0X_perform_phase_calibration
 3330              	.LVL343:
 3331              		.loc 1 1236 2 is_stmt 1 view .LVU1034
 3332              		.loc 1 1236 5 is_stmt 0 view .LVU1035
 3333 003c 0028     		cmp	r0, #0
 3334 003e F0D1     		bne	.L295
 3335              		.loc 1 1238 3 is_stmt 1 view .LVU1036
 3336              		.loc 1 1238 12 is_stmt 0 view .LVU1037
 3337 0040 3A46     		mov	r2, r7
 3338 0042 0121     		movs	r1, #1
 3339 0044 2046     		mov	r0, r4
 3340              	.LVL344:
 3341              		.loc 1 1238 12 view .LVU1038
 3342 0046 FFF7FEFF 		bl	VL53L0X_WrByte
 3343              	.LVL345:
 3344              		.loc 1 1240 3 is_stmt 1 view .LVU1039
 3345              		.loc 1 1240 6 is_stmt 0 view .LVU1040
 3346 004a 0028     		cmp	r0, #0
 3347 004c E9D1     		bne	.L295
 3348              		.loc 1 1241 4 is_stmt 1 view .LVU1041
 3349 004e 84F83071 		strb	r7, [r4, #304]
 3350 0052 E6E7     		b	.L295
 3351              	.L299:
 3352              		.loc 1 1246 1 is_stmt 0 view .LVU1042
 3353 0054 FFF7FEFF 		bl	__stack_chk_fail
 3354              	.LVL346:
 3355              	.L301:
 3356              		.loc 1 1246 1 view .LVU1043
 3357              		.align	2
 3358              	.L300:
 3359 0058 00000000 		.word	.LC19
 3360              		.cfi_endproc
 3361              	.LFE23:
 3362              		.size	VL53L0X_perform_ref_calibration, .-VL53L0X_perform_ref_calibration
 3363              		.section	.rodata.VL53L0X_perform_ref_spad_management.cst4,"aM",%progbits,4
ARM GAS  /tmp/ccqyZH0w.s 			page 60


 3364              		.align	2
 3365              	.LC20:
 3366 0000 00000000 		.word	__stack_chk_guard
 3367              		.section	.text.VL53L0X_perform_ref_spad_management,"ax",%progbits
 3368              		.align	1
 3369              		.p2align 4,,15
 3370              		.global	VL53L0X_perform_ref_spad_management
 3371              		.syntax unified
 3372              		.thumb
 3373              		.thumb_func
 3374              		.fpu fpv4-sp-d16
 3375              		.type	VL53L0X_perform_ref_spad_management, %function
 3376              	VL53L0X_perform_ref_spad_management:
 3377              	.LVL347:
 3378              	.LFB16:
 3379              		.loc 1 679 1 is_stmt 1 view -0
 3380              		.cfi_startproc
 3381              		@ args = 0, pretend = 0, frame = 48
 3382              		@ frame_needed = 0, uses_anonymous_args = 0
 3383              		.loc 1 679 1 is_stmt 0 view .LVU1045
 3384 0000 2DE9F04F 		push	{r4, r5, r6, r7, r8, r9, r10, fp, lr}
 3385              		.cfi_def_cfa_offset 36
 3386              		.cfi_offset 4, -36
 3387              		.cfi_offset 5, -32
 3388              		.cfi_offset 6, -28
 3389              		.cfi_offset 7, -24
 3390              		.cfi_offset 8, -20
 3391              		.cfi_offset 9, -16
 3392              		.cfi_offset 10, -12
 3393              		.cfi_offset 11, -8
 3394              		.cfi_offset 14, -4
 3395 0004 0D46     		mov	r5, r1
 3396 0006 93B0     		sub	sp, sp, #76
 3397              		.cfi_def_cfa_offset 112
 3398              		.loc 1 679 1 view .LVU1046
 3399 0008 1446     		mov	r4, r2
 3400 000a CDE90854 		strd	r5, r4, [sp, #32]
 3401              		.loc 1 686 11 view .LVU1047
 3402 000e 0023     		movs	r3, #0
 3403              		.loc 1 679 1 view .LVU1048
 3404 0010 A24C     		ldr	r4, .L328
 3405              		.loc 1 735 44 view .LVU1049
 3406 0012 C0F82431 		str	r3, [r0, #292]
 3407 0016 A0F82831 		strh	r3, [r0, #296]	@ movhi
 3408              		.loc 1 738 11 view .LVU1050
 3409 001a 0122     		movs	r2, #1
 3410              	.LVL348:
 3411              		.loc 1 738 11 view .LVU1051
 3412 001c FF21     		movs	r1, #255
 3413              	.LVL349:
 3414              		.loc 1 679 1 view .LVU1052
 3415 001e 2468     		ldr	r4, [r4]
 3416 0020 1194     		str	r4, [sp, #68]
 3417 0022 4FF00004 		mov	r4,#0
 3418              		.loc 1 680 2 is_stmt 1 view .LVU1053
 3419              	.LVL350:
 3420              		.loc 1 681 2 view .LVU1054
ARM GAS  /tmp/ccqyZH0w.s 			page 61


 3421              		.loc 1 682 2 view .LVU1055
 3422              		.loc 1 683 2 view .LVU1056
 3423              		.loc 1 684 2 view .LVU1057
 3424              		.loc 1 685 2 view .LVU1058
 3425              		.loc 1 686 2 view .LVU1059
 3426              		.loc 1 724 16 is_stmt 0 view .LVU1060
 3427 0026 B0F83C81 		ldrh	r8, [r0, #316]
 3428              		.loc 1 696 10 view .LVU1061
 3429 002a 8DF83030 		strb	r3, [sp, #48]
 3430              		.loc 1 687 10 view .LVU1062
 3431 002e CDE90D33 		strd	r3, r3, [sp, #52]
 3432              		.loc 1 688 2 is_stmt 1 view .LVU1063
 3433              	.LVL351:
 3434              		.loc 1 689 2 view .LVU1064
 3435              		.loc 1 690 2 view .LVU1065
 3436              		.loc 1 691 2 view .LVU1066
 3437              		.loc 1 692 2 view .LVU1067
 3438              		.loc 1 693 2 view .LVU1068
 3439              		.loc 1 694 2 view .LVU1069
 3440              		.loc 1 695 2 view .LVU1070
 3441              		.loc 1 696 2 view .LVU1071
 3442              		.loc 1 697 2 view .LVU1072
 3443              		.loc 1 679 1 is_stmt 0 view .LVU1073
 3444 0032 0646     		mov	r6, r0
 3445              		.loc 1 697 10 view .LVU1074
 3446 0034 8DF83130 		strb	r3, [sp, #49]
 3447              		.loc 1 698 2 is_stmt 1 view .LVU1075
 3448              	.LVL352:
 3449              		.loc 1 699 2 view .LVU1076
 3450              		.loc 1 724 2 view .LVU1077
 3451              		.loc 1 734 2 view .LVU1078
 3452              		.loc 1 734 18 view .LVU1079
 3453              		.loc 1 735 3 view .LVU1080
 3454              		.loc 1 734 41 view .LVU1081
 3455              		.loc 1 734 18 view .LVU1082
 3456              		.loc 1 735 3 view .LVU1083
 3457              		.loc 1 734 41 view .LVU1084
 3458              		.loc 1 734 18 view .LVU1085
 3459              		.loc 1 735 3 view .LVU1086
 3460              		.loc 1 734 41 view .LVU1087
 3461              		.loc 1 734 18 view .LVU1088
 3462              		.loc 1 735 3 view .LVU1089
 3463              		.loc 1 734 41 view .LVU1090
 3464              		.loc 1 734 18 view .LVU1091
 3465              		.loc 1 735 3 view .LVU1092
 3466              		.loc 1 734 41 view .LVU1093
 3467              		.loc 1 734 18 view .LVU1094
 3468              		.loc 1 735 3 view .LVU1095
 3469              		.loc 1 734 41 view .LVU1096
 3470              		.loc 1 734 18 view .LVU1097
 3471              		.loc 1 738 2 view .LVU1098
 3472              		.loc 1 738 11 is_stmt 0 view .LVU1099
 3473 0038 FFF7FEFF 		bl	VL53L0X_WrByte
 3474              	.LVL353:
 3475              		.loc 1 740 2 is_stmt 1 view .LVU1100
 3476              		.loc 1 740 5 is_stmt 0 view .LVU1101
 3477 003c 0546     		mov	r5, r0
ARM GAS  /tmp/ccqyZH0w.s 			page 62


 3478              	.LVL354:
 3479              		.loc 1 740 5 view .LVU1102
 3480 003e 48B1     		cbz	r0, .L324
 3481              	.LVL355:
 3482              	.L303:
 3483              		.loc 1 940 2 is_stmt 1 view .LVU1103
 3484              		.loc 1 941 1 is_stmt 0 view .LVU1104
 3485 0040 964B     		ldr	r3, .L328
 3486 0042 1A68     		ldr	r2, [r3]
 3487 0044 119B     		ldr	r3, [sp, #68]
 3488 0046 5A40     		eors	r2, r3, r2
 3489 0048 40F02681 		bne	.L325
 3490 004c 2846     		mov	r0, r5
 3491 004e 13B0     		add	sp, sp, #76
 3492              		.cfi_remember_state
 3493              		.cfi_def_cfa_offset 36
 3494              		@ sp needed
 3495 0050 BDE8F08F 		pop	{r4, r5, r6, r7, r8, r9, r10, fp, pc}
 3496              	.LVL356:
 3497              	.L324:
 3498              		.cfi_restore_state
 3499              		.loc 1 741 3 is_stmt 1 view .LVU1105
 3500              		.loc 1 741 12 is_stmt 0 view .LVU1106
 3501 0054 0246     		mov	r2, r0
 3502 0056 4F21     		movs	r1, #79
 3503 0058 3046     		mov	r0, r6
 3504              	.LVL357:
 3505              		.loc 1 741 12 view .LVU1107
 3506 005a FFF7FEFF 		bl	VL53L0X_WrByte
 3507              	.LVL358:
 3508              		.loc 1 744 2 is_stmt 1 view .LVU1108
 3509              		.loc 1 744 5 is_stmt 0 view .LVU1109
 3510 005e 0546     		mov	r5, r0
 3511 0060 0028     		cmp	r0, #0
 3512 0062 EDD1     		bne	.L303
 3513              		.loc 1 745 3 is_stmt 1 view .LVU1110
 3514              		.loc 1 745 12 is_stmt 0 view .LVU1111
 3515 0064 2C22     		movs	r2, #44
 3516 0066 4E21     		movs	r1, #78
 3517 0068 3046     		mov	r0, r6
 3518              	.LVL359:
 3519              		.loc 1 745 12 view .LVU1112
 3520 006a FFF7FEFF 		bl	VL53L0X_WrByte
 3521              	.LVL360:
 3522              		.loc 1 748 2 is_stmt 1 view .LVU1113
 3523              		.loc 1 748 5 is_stmt 0 view .LVU1114
 3524 006e 0546     		mov	r5, r0
 3525 0070 0028     		cmp	r0, #0
 3526 0072 E5D1     		bne	.L303
 3527              		.loc 1 749 3 is_stmt 1 view .LVU1115
 3528              		.loc 1 749 12 is_stmt 0 view .LVU1116
 3529 0074 0246     		mov	r2, r0
 3530 0076 FF21     		movs	r1, #255
 3531 0078 3046     		mov	r0, r6
 3532              	.LVL361:
 3533              		.loc 1 749 12 view .LVU1117
 3534 007a FFF7FEFF 		bl	VL53L0X_WrByte
ARM GAS  /tmp/ccqyZH0w.s 			page 63


 3535              	.LVL362:
 3536              		.loc 1 751 2 is_stmt 1 view .LVU1118
 3537              		.loc 1 751 5 is_stmt 0 view .LVU1119
 3538 007e 0546     		mov	r5, r0
 3539 0080 0028     		cmp	r0, #0
 3540 0082 DDD1     		bne	.L303
 3541              		.loc 1 752 3 is_stmt 1 view .LVU1120
 3542              		.loc 1 752 12 is_stmt 0 view .LVU1121
 3543 0084 B422     		movs	r2, #180
 3544 0086 B621     		movs	r1, #182
 3545 0088 3046     		mov	r0, r6
 3546              	.LVL363:
 3547              		.loc 1 752 12 view .LVU1122
 3548 008a FFF7FEFF 		bl	VL53L0X_WrByte
 3549              	.LVL364:
 3550              		.loc 1 757 2 is_stmt 1 view .LVU1123
 3551              		.loc 1 757 5 is_stmt 0 view .LVU1124
 3552 008e 0546     		mov	r5, r0
 3553 0090 0028     		cmp	r0, #0
 3554 0092 D5D1     		bne	.L303
 3555              		.loc 1 758 3 is_stmt 1 view .LVU1125
 3556              		.loc 1 758 12 is_stmt 0 view .LVU1126
 3557 0094 0246     		mov	r2, r0
 3558 0096 8021     		movs	r1, #128
 3559 0098 3046     		mov	r0, r6
 3560              	.LVL365:
 3561              		.loc 1 758 12 view .LVU1127
 3562 009a FFF7FEFF 		bl	VL53L0X_WrByte
 3563              	.LVL366:
 3564              		.loc 1 762 2 is_stmt 1 view .LVU1128
 3565              		.loc 1 762 5 is_stmt 0 view .LVU1129
 3566 009e 0546     		mov	r5, r0
 3567 00a0 0028     		cmp	r0, #0
 3568 00a2 CDD1     		bne	.L303
 3569              		.loc 1 763 3 is_stmt 1 view .LVU1130
 3570              		.loc 1 763 12 is_stmt 0 view .LVU1131
 3571 00a4 0346     		mov	r3, r0
 3572 00a6 0DF13102 		add	r2, sp, #49
 3573 00aa 0CA9     		add	r1, sp, #48
 3574 00ac 3046     		mov	r0, r6
 3575              	.LVL367:
 3576              		.loc 1 763 12 view .LVU1132
 3577 00ae FFF7FEFF 		bl	VL53L0X_perform_ref_calibration
 3578              	.LVL368:
 3579              		.loc 1 766 2 is_stmt 1 view .LVU1133
 3580              		.loc 1 766 5 is_stmt 0 view .LVU1134
 3581 00b2 0546     		mov	r5, r0
 3582 00b4 0028     		cmp	r0, #0
 3583 00b6 C3D1     		bne	.L303
 3584              		.loc 1 768 3 is_stmt 1 view .LVU1135
 3585              		.loc 1 769 3 view .LVU1136
 3586              		.loc 1 771 12 is_stmt 0 view .LVU1137
 3587 00b8 0323     		movs	r3, #3
 3588 00ba 0DAC     		add	r4, sp, #52
 3589 00bc CDE90334 		strd	r3, r4, [sp, #12]
 3590 00c0 B420     		movs	r0, #180
 3591              	.LVL369:
ARM GAS  /tmp/ccqyZH0w.s 			page 64


 3592              		.loc 1 771 12 view .LVU1138
 3593 00c2 0623     		movs	r3, #6
 3594              		.loc 1 773 24 view .LVU1139
 3595 00c4 06F5957B 		add	fp, r6, #298
 3596              		.loc 1 774 24 view .LVU1140
 3597 00c8 06F59277 		add	r7, r6, #292
 3598              		.loc 1 771 12 view .LVU1141
 3599 00cc CDE90030 		strd	r3, r0, [sp]
 3600 00d0 0295     		str	r5, [sp, #8]
 3601 00d2 2946     		mov	r1, r5
 3602 00d4 5A46     		mov	r2, fp
 3603 00d6 3B46     		mov	r3, r7
 3604 00d8 3046     		mov	r0, r6
 3605              		.loc 1 769 17 view .LVU1142
 3606 00da 0D95     		str	r5, [sp, #52]
 3607              		.loc 1 770 3 is_stmt 1 view .LVU1143
 3608              		.loc 1 771 3 view .LVU1144
 3609              		.loc 1 771 12 is_stmt 0 view .LVU1145
 3610 00dc FFF7FEFF 		bl	enable_ref_spads
 3611              	.LVL370:
 3612              		.loc 1 782 2 is_stmt 1 view .LVU1146
 3613              		.loc 1 782 5 is_stmt 0 view .LVU1147
 3614 00e0 0546     		mov	r5, r0
 3615 00e2 0028     		cmp	r0, #0
 3616 00e4 ACD1     		bne	.L303
 3617              		.loc 1 783 3 is_stmt 1 view .LVU1148
 3618              		.loc 1 783 20 is_stmt 0 view .LVU1149
 3619 00e6 0D9A     		ldr	r2, [sp, #52]
 3620 00e8 0792     		str	r2, [sp, #28]
 3621              	.LVL371:
 3622              		.loc 1 785 3 is_stmt 1 view .LVU1150
 3623              		.loc 1 785 12 is_stmt 0 view .LVU1151
 3624 00ea 0DF13201 		add	r1, sp, #50
 3625 00ee 3046     		mov	r0, r6
 3626              	.LVL372:
 3627              		.loc 1 785 12 view .LVU1152
 3628 00f0 FFF7FEFF 		bl	perform_ref_signal_measurement
 3629              	.LVL373:
 3630              		.loc 1 787 3 is_stmt 1 view .LVU1153
 3631              		.loc 1 787 6 is_stmt 0 view .LVU1154
 3632 00f4 0546     		mov	r5, r0
 3633 00f6 0028     		cmp	r0, #0
 3634 00f8 A2D1     		bne	.L303
 3635              		.loc 1 788 23 discriminator 1 view .LVU1155
 3636 00fa BDF83230 		ldrh	r3, [sp, #50]
 3637              		.loc 1 787 38 discriminator 1 view .LVU1156
 3638 00fe 079A     		ldr	r2, [sp, #28]
 3639 0100 4345     		cmp	r3, r8
 3640 0102 2AD9     		bls	.L311
 3641              	.LVL374:
 3642              		.loc 1 792 20 is_stmt 1 view .LVU1157
 3643              		.loc 1 793 5 view .LVU1158
 3644              		.loc 1 792 43 view .LVU1159
 3645              		.loc 1 792 20 view .LVU1160
 3646              		.loc 1 793 5 view .LVU1161
 3647              		.loc 1 792 43 view .LVU1162
 3648              		.loc 1 792 20 view .LVU1163
ARM GAS  /tmp/ccqyZH0w.s 			page 65


 3649              		.loc 1 793 5 view .LVU1164
 3650              		.loc 1 792 43 view .LVU1165
 3651              		.loc 1 792 20 view .LVU1166
 3652              		.loc 1 793 5 view .LVU1167
 3653              		.loc 1 792 43 view .LVU1168
 3654              		.loc 1 792 20 view .LVU1169
 3655              		.loc 1 793 5 view .LVU1170
 3656              		.loc 1 792 43 view .LVU1171
 3657              		.loc 1 792 20 view .LVU1172
 3658              		.loc 1 793 5 view .LVU1173
 3659              		.loc 1 797 12 is_stmt 0 view .LVU1174
 3660 0104 02F1B403 		add	r3, r2, #180
 3661              	.LBB52:
 3662              	.LBB53:
 3663              		.loc 1 455 11 view .LVU1175
 3664 0108 9B09     		lsrs	r3, r3, #6
 3665              		.loc 1 456 23 view .LVU1176
 3666 010a 6549     		ldr	r1, .L328+4
 3667              		.loc 1 456 5 view .LVU1177
 3668 010c 51F82300 		ldr	r0, [r1, r3, lsl #2]
 3669              	.LVL375:
 3670              		.loc 1 456 5 view .LVU1178
 3671              	.LBE53:
 3672              	.LBE52:
 3673              		.loc 1 793 46 view .LVU1179
 3674 0110 0023     		movs	r3, #0
 3675 0112 C6F82431 		str	r3, [r6, #292]
 3676 0116 A6F82831 		strh	r3, [r6, #296]	@ movhi
 3677              		.loc 1 792 43 is_stmt 1 view .LVU1180
 3678              	.LVL376:
 3679              		.loc 1 792 20 view .LVU1181
 3680              		.loc 1 797 10 view .LVU1182
 3681              	.LBB57:
 3682              	.LBI52:
 3683              		.loc 1 447 9 view .LVU1183
 3684              	.LBB54:
 3685              		.loc 1 453 2 view .LVU1184
 3686              		.loc 1 454 2 view .LVU1185
 3687              		.loc 1 455 2 view .LVU1186
 3688              		.loc 1 456 2 view .LVU1187
 3689              		.loc 1 456 5 is_stmt 0 view .LVU1188
 3690 011a 50B9     		cbnz	r0, .L305
 3691              		.loc 1 457 3 is_stmt 1 view .LVU1189
 3692              	.LVL377:
 3693              		.loc 1 459 2 view .LVU1190
 3694              		.loc 1 459 2 is_stmt 0 view .LVU1191
 3695              	.LBE54:
 3696              	.LBE57:
 3697              		.loc 1 798 11 view .LVU1192
 3698 011c 2B2A     		cmp	r2, #43
 3699 011e 08D8     		bhi	.L305
 3700              	.L306:
 3701              		.loc 1 799 5 is_stmt 1 view .LVU1193
 3702 0120 1346     		mov	r3, r2
 3703              	.LBB58:
 3704              	.LBB55:
 3705              		.loc 1 455 11 is_stmt 0 view .LVU1194
ARM GAS  /tmp/ccqyZH0w.s 			page 66


 3706 0122 B533     		adds	r3, r3, #181
 3707 0124 9B09     		lsrs	r3, r3, #6
 3708              	.LBE55:
 3709              	.LBE58:
 3710              		.loc 1 799 21 view .LVU1195
 3711 0126 0132     		adds	r2, r2, #1
 3712              	.LVL378:
 3713              		.loc 1 797 10 is_stmt 1 view .LVU1196
 3714              	.LBB59:
 3715              		.loc 1 447 9 view .LVU1197
 3716              	.LBB56:
 3717              		.loc 1 453 2 view .LVU1198
 3718              		.loc 1 454 2 view .LVU1199
 3719              		.loc 1 455 2 view .LVU1200
 3720              		.loc 1 456 2 view .LVU1201
 3721              		.loc 1 456 5 is_stmt 0 view .LVU1202
 3722 0128 51F82330 		ldr	r3, [r1, r3, lsl #2]
 3723 012c 0BB9     		cbnz	r3, .L305
 3724              		.loc 1 457 3 is_stmt 1 view .LVU1203
 3725              	.LVL379:
 3726              		.loc 1 459 2 view .LVU1204
 3727              		.loc 1 459 2 is_stmt 0 view .LVU1205
 3728              	.LBE56:
 3729              	.LBE59:
 3730              		.loc 1 798 11 view .LVU1206
 3731 012e 2C2A     		cmp	r2, #44
 3732 0130 F6D1     		bne	.L306
 3733              	.L305:
 3734              		.loc 1 802 4 is_stmt 1 view .LVU1207
 3735              	.LVL380:
 3736              		.loc 1 804 4 view .LVU1208
 3737              		.loc 1 804 13 is_stmt 0 view .LVU1209
 3738 0132 B421     		movs	r1, #180
 3739 0134 0623     		movs	r3, #6
 3740 0136 0DA8     		add	r0, sp, #52
 3741 0138 0324     		movs	r4, #3
 3742 013a CDE90031 		strd	r3, r1, [sp]
 3743 013e CDE90224 		strd	r2, r4, [sp, #8]
 3744 0142 0490     		str	r0, [sp, #16]
 3745 0144 3B46     		mov	r3, r7
 3746 0146 5A46     		mov	r2, fp
 3747              	.LVL381:
 3748              		.loc 1 804 13 view .LVU1210
 3749 0148 0121     		movs	r1, #1
 3750 014a 3046     		mov	r0, r6
 3751 014c FFF7FEFF 		bl	enable_ref_spads
 3752              	.LVL382:
 3753              		.loc 1 814 4 is_stmt 1 view .LVU1211
 3754              		.loc 1 814 7 is_stmt 0 view .LVU1212
 3755 0150 0028     		cmp	r0, #0
 3756 0152 00F08580 		beq	.L326
 3757              	.LVL383:
 3758              	.L319:
 3759              		.loc 1 893 13 view .LVU1213
 3760 0156 0546     		mov	r5, r0
 3761 0158 72E7     		b	.L303
 3762              	.LVL384:
ARM GAS  /tmp/ccqyZH0w.s 			page 67


 3763              	.L311:
 3764              		.loc 1 699 11 view .LVU1214
 3765 015a 0021     		movs	r1, #0
 3766 015c 0B91     		str	r1, [sp, #44]
 3767              		.loc 1 698 11 view .LVU1215
 3768 015e 8946     		mov	r9, r1
 3769              		.loc 1 832 17 view .LVU1216
 3770 0160 0C46     		mov	r4, r1
 3771              	.LVL385:
 3772              	.L304:
 3773              		.loc 1 836 37 discriminator 1 view .LVU1217
 3774 0162 4345     		cmp	r3, r8
 3775 0164 4DD2     		bcs	.L307
 3776              		.loc 1 843 3 is_stmt 1 view .LVU1218
 3777              		.loc 1 848 46 is_stmt 0 view .LVU1219
 3778 0166 A3EB0803 		sub	r3, r3, r8
 3779              		.loc 1 848 24 view .LVU1220
 3780 016a 002B     		cmp	r3, #0
 3781 016c B8BF     		it	lt
 3782 016e 5B42     		rsblt	r3, r3, #0
 3783              		.loc 1 846 3 view .LVU1221
 3784 0170 3868     		ldr	r0, [r7]	@ unaligned
 3785 0172 B988     		ldrh	r1, [r7, #4]	@ unaligned
 3786              		.loc 1 848 24 view .LVU1222
 3787 0174 0793     		str	r3, [sp, #28]
 3788              		.loc 1 843 23 view .LVU1223
 3789 0176 E3B2     		uxtb	r3, r4
 3790              	.LBB60:
 3791              	.LBB61:
 3792              		.loc 1 476 32 view .LVU1224
 3793 0178 0A95     		str	r5, [sp, #40]
 3794              	.LBE61:
 3795              	.LBE60:
 3796              		.loc 1 846 3 view .LVU1225
 3797 017a 0F90     		str	r0, [sp, #60]
 3798 017c ADF84010 		strh	r1, [sp, #64]	@ unaligned
 3799              		.loc 1 843 23 view .LVU1226
 3800 0180 0B93     		str	r3, [sp, #44]
 3801              	.LVL386:
 3802              		.loc 1 844 3 is_stmt 1 view .LVU1227
 3803              		.loc 1 846 3 view .LVU1228
 3804              		.loc 1 848 3 view .LVU1229
 3805              		.loc 1 850 3 view .LVU1230
 3806              		.loc 1 852 3 view .LVU1231
 3807              		.loc 1 852 9 view .LVU1232
 3808              		.loc 1 844 20 is_stmt 0 view .LVU1233
 3809 0182 4FF0030A 		mov	r10, #3
 3810              	.LBB65:
 3811              	.LBB62:
 3812              		.loc 1 476 32 view .LVU1234
 3813 0186 2546     		mov	r5, r4
 3814              	.LVL387:
 3815              	.L309:
 3816              		.loc 1 476 32 view .LVU1235
 3817              	.LBE62:
 3818              	.LBE65:
 3819              		.loc 1 853 4 is_stmt 1 view .LVU1236
ARM GAS  /tmp/ccqyZH0w.s 			page 68


 3820 0188 0EAB     		add	r3, sp, #56
 3821 018a 0621     		movs	r1, #6
 3822 018c 5846     		mov	r0, fp
 3823 018e FFF7FEFF 		bl	get_next_good_spad
 3824              	.LVL388:
 3825              		.loc 1 858 4 view .LVU1237
 3826              		.loc 1 858 21 is_stmt 0 view .LVU1238
 3827 0192 0E9C     		ldr	r4, [sp, #56]
 3828              		.loc 1 858 7 view .LVU1239
 3829 0194 631C     		adds	r3, r4, #1
 3830 0196 60D0     		beq	.L317
 3831              		.loc 1 866 4 is_stmt 1 view .LVU1240
 3832              	.LVL389:
 3833              	.LBB66:
 3834              	.LBI66:
 3835              		.loc 1 447 9 view .LVU1241
 3836              	.LBB67:
 3837              		.loc 1 453 2 view .LVU1242
 3838              		.loc 1 454 2 view .LVU1243
 3839              		.loc 1 455 2 view .LVU1244
 3840              		.loc 1 456 2 view .LVU1245
 3841              		.loc 1 459 2 view .LVU1246
 3842              		.loc 1 459 2 is_stmt 0 view .LVU1247
 3843              	.LBE67:
 3844              	.LBE66:
 3845              		.loc 1 866 8 view .LVU1248
 3846 0198 04F1B403 		add	r3, r4, #180
 3847              	.LBB69:
 3848              	.LBB68:
 3849              		.loc 1 456 5 view .LVU1249
 3850 019c 404A     		ldr	r2, .L328+4
 3851              		.loc 1 455 11 view .LVU1250
 3852 019e 9B09     		lsrs	r3, r3, #6
 3853              		.loc 1 456 5 view .LVU1251
 3854 01a0 52F82330 		ldr	r3, [r2, r3, lsl #2]
 3855 01a4 003B     		subs	r3, r3, #0
 3856 01a6 18BF     		it	ne
 3857 01a8 0123     		movne	r3, #1
 3858              	.LBE68:
 3859              	.LBE69:
 3860              		.loc 1 866 7 view .LVU1252
 3861 01aa AB42     		cmp	r3, r5
 3862 01ac 6CD1     		bne	.L316
 3863              		.loc 1 875 4 is_stmt 1 view .LVU1253
 3864              	.LBB70:
 3865              	.LBB63:
 3866              		.loc 1 473 5 is_stmt 0 view .LVU1254
 3867 01ae 2F2C     		cmp	r4, #47
 3868              	.LBE63:
 3869              	.LBE70:
 3870              		.loc 1 875 22 view .LVU1255
 3871 01b0 0AF10109 		add	r9, r10, #1
 3872              	.LVL390:
 3873              		.loc 1 877 4 is_stmt 1 view .LVU1256
 3874              		.loc 1 878 4 view .LVU1257
 3875              	.LBB71:
 3876              	.LBI60:
ARM GAS  /tmp/ccqyZH0w.s 			page 69


 3877              		.loc 1 463 15 view .LVU1258
 3878              	.LBB64:
 3879              		.loc 1 466 2 view .LVU1259
 3880              		.loc 1 467 2 view .LVU1260
 3881              		.loc 1 468 2 view .LVU1261
 3882              		.loc 1 469 2 view .LVU1262
 3883              		.loc 1 471 2 view .LVU1263
 3884              		.loc 1 471 14 is_stmt 0 view .LVU1264
 3885 01b4 4FEAD401 		lsr	r1, r4, #3
 3886              	.LVL391:
 3887              		.loc 1 472 2 is_stmt 1 view .LVU1265
 3888              		.loc 1 472 12 is_stmt 0 view .LVU1266
 3889 01b8 04F00703 		and	r3, r4, #7
 3890              	.LVL392:
 3891              		.loc 1 473 2 is_stmt 1 view .LVU1267
 3892              		.loc 1 473 5 is_stmt 0 view .LVU1268
 3893 01bc 4DD8     		bhi	.L317
 3894              		.loc 1 476 3 is_stmt 1 view .LVU1269
 3895              		.loc 1 476 26 is_stmt 0 view .LVU1270
 3896 01be 7A5C     		ldrb	r2, [r7, r1]	@ zero_extendqisi2
 3897              		.loc 1 476 32 view .LVU1271
 3898 01c0 0120     		movs	r0, #1
 3899 01c2 00FA03F3 		lsl	r3, r0, r3
 3900              	.LVL393:
 3901              		.loc 1 476 26 view .LVU1272
 3902 01c6 1343     		orrs	r3, r3, r2
 3903 01c8 7B54     		strb	r3, [r7, r1]
 3904              		.loc 1 478 2 is_stmt 1 view .LVU1273
 3905              	.LVL394:
 3906              		.loc 1 478 2 is_stmt 0 view .LVU1274
 3907              	.LBE64:
 3908              	.LBE71:
 3909              		.loc 1 882 4 is_stmt 1 view .LVU1275
 3910              		.loc 1 883 5 view .LVU1276
 3911              		.loc 1 886 5 view .LVU1277
 3912              	.LBB72:
 3913              	.LBI72:
 3914              		.loc 1 539 15 view .LVU1278
 3915              	.LBB73:
 3916              		.loc 1 541 2 view .LVU1279
 3917              		.loc 1 541 25 is_stmt 0 view .LVU1280
 3918 01ca 3A46     		mov	r2, r7
 3919 01cc 0623     		movs	r3, #6
 3920 01ce B021     		movs	r1, #176
 3921 01d0 3046     		mov	r0, r6
 3922 01d2 FFF7FEFF 		bl	VL53L0X_WriteMulti
 3923              	.LVL395:
 3924              		.loc 1 544 2 is_stmt 1 view .LVU1281
 3925              		.loc 1 544 2 is_stmt 0 view .LVU1282
 3926              	.LBE73:
 3927              	.LBE72:
 3928              		.loc 1 890 4 is_stmt 1 view .LVU1283
 3929              		.loc 1 890 7 is_stmt 0 view .LVU1284
 3930 01d6 0028     		cmp	r0, #0
 3931 01d8 BDD1     		bne	.L319
 3932              		.loc 1 893 4 is_stmt 1 view .LVU1285
 3933              		.loc 1 893 13 is_stmt 0 view .LVU1286
ARM GAS  /tmp/ccqyZH0w.s 			page 70


 3934 01da 0DF13201 		add	r1, sp, #50
 3935 01de 3046     		mov	r0, r6
 3936              	.LVL396:
 3937              		.loc 1 893 13 view .LVU1287
 3938 01e0 FFF7FEFF 		bl	perform_ref_signal_measurement
 3939              	.LVL397:
 3940              		.loc 1 896 4 is_stmt 1 view .LVU1288
 3941              		.loc 1 896 7 is_stmt 0 view .LVU1289
 3942 01e4 0028     		cmp	r0, #0
 3943 01e6 B6D1     		bne	.L319
 3944              		.loc 1 899 4 is_stmt 1 view .LVU1290
 3945              		.loc 1 899 43 is_stmt 0 view .LVU1291
 3946 01e8 BDF83220 		ldrh	r2, [sp, #50]
 3947 01ec A2EB0803 		sub	r3, r2, r8
 3948              		.loc 1 899 21 view .LVU1292
 3949 01f0 002B     		cmp	r3, #0
 3950 01f2 B8BF     		it	lt
 3951 01f4 5B42     		rsblt	r3, r3, #0
 3952              	.LVL398:
 3953              		.loc 1 901 4 is_stmt 1 view .LVU1293
 3954              		.loc 1 901 7 is_stmt 0 view .LVU1294
 3955 01f6 4245     		cmp	r2, r8
 3956 01f8 13D9     		bls	.L308
 3957              		.loc 1 906 8 view .LVU1295
 3958 01fa 079A     		ldr	r2, [sp, #28]
 3959 01fc 0A9D     		ldr	r5, [sp, #40]
 3960              		.loc 1 906 5 is_stmt 1 view .LVU1296
 3961              		.loc 1 906 8 is_stmt 0 view .LVU1297
 3962 01fe 9342     		cmp	r3, r2
 3963 0200 18D8     		bhi	.L327
 3964              	.LVL399:
 3965              	.L307:
 3966              		.loc 1 930 3 is_stmt 1 view .LVU1298
 3967              		.loc 1 930 17 is_stmt 0 view .LVU1299
 3968 0202 089A     		ldr	r2, [sp, #32]
 3969              		.loc 1 931 20 view .LVU1300
 3970 0204 0999     		ldr	r1, [sp, #36]
 3971 0206 0B9C     		ldr	r4, [sp, #44]
 3972              		.loc 1 930 17 view .LVU1301
 3973 0208 C2F80090 		str	r9, [r2]
 3974              		.loc 1 931 3 is_stmt 1 view .LVU1302
 3975              		.loc 1 933 3 is_stmt 0 view .LVU1303
 3976 020c 0123     		movs	r3, #1
 3977              		.loc 1 931 20 view .LVU1304
 3978 020e 0C70     		strb	r4, [r1]
 3979              		.loc 1 933 3 is_stmt 1 view .LVU1305
 3980 0210 86F81531 		strb	r3, [r6, #277]
 3981              		.loc 1 934 3 view .LVU1306
 3982 0214 1368     		ldr	r3, [r2]
 3983 0216 86F81331 		strb	r3, [r6, #275]
 3984              		.loc 1 936 3 view .LVU1307
 3985 021a 0B78     		ldrb	r3, [r1]	@ zero_extendqisi2
 3986 021c 86F81431 		strb	r3, [r6, #276]
 3987 0220 0EE7     		b	.L303
 3988              	.LVL400:
 3989              	.L308:
 3990              		.loc 1 921 5 is_stmt 0 view .LVU1308
ARM GAS  /tmp/ccqyZH0w.s 			page 71


 3991 0222 3868     		ldr	r0, [r7]	@ unaligned
 3992              	.LVL401:
 3993              		.loc 1 921 5 view .LVU1309
 3994 0224 B988     		ldrh	r1, [r7, #4]	@ unaligned
 3995 0226 0F90     		str	r0, [sp, #60]
 3996              		.loc 1 883 21 view .LVU1310
 3997 0228 621C     		adds	r2, r4, #1
 3998              		.loc 1 920 5 is_stmt 1 view .LVU1311
 3999              	.LVL402:
 4000              		.loc 1 921 5 view .LVU1312
 4001              		.loc 1 875 22 is_stmt 0 view .LVU1313
 4002 022a CA46     		mov	r10, r9
 4003              		.loc 1 899 19 view .LVU1314
 4004 022c 0793     		str	r3, [sp, #28]
 4005              		.loc 1 921 5 view .LVU1315
 4006 022e ADF84010 		strh	r1, [sp, #64]	@ unaligned
 4007              	.LVL403:
 4008              		.loc 1 852 9 is_stmt 1 view .LVU1316
 4009 0232 A9E7     		b	.L309
 4010              	.LVL404:
 4011              	.L327:
 4012              		.loc 1 909 6 view .LVU1317
 4013              	.LBB74:
 4014              	.LBI74:
 4015              		.loc 1 539 15 view .LVU1318
 4016              	.LBB75:
 4017              		.loc 1 541 2 view .LVU1319
 4018              		.loc 1 541 25 is_stmt 0 view .LVU1320
 4019 0234 0623     		movs	r3, #6
 4020              	.LVL405:
 4021              		.loc 1 541 25 view .LVU1321
 4022 0236 0FAA     		add	r2, sp, #60
 4023              	.LVL406:
 4024              		.loc 1 541 25 view .LVU1322
 4025 0238 B021     		movs	r1, #176
 4026 023a 3046     		mov	r0, r6
 4027              	.LVL407:
 4028              		.loc 1 541 25 view .LVU1323
 4029 023c FFF7FEFF 		bl	VL53L0X_WriteMulti
 4030              	.LVL408:
 4031              		.loc 1 541 25 view .LVU1324
 4032              	.LBE75:
 4033              	.LBE74:
 4034              		.loc 1 911 6 view .LVU1325
 4035 0240 BDF84020 		ldrh	r2, [sp, #64]	@ unaligned
 4036              	.LBB77:
 4037              	.LBB76:
 4038              		.loc 1 541 25 view .LVU1326
 4039 0244 0346     		mov	r3, r0
 4040              	.LVL409:
 4041              		.loc 1 544 2 is_stmt 1 view .LVU1327
 4042              		.loc 1 544 2 is_stmt 0 view .LVU1328
 4043              	.LBE76:
 4044              	.LBE77:
 4045              		.loc 1 911 6 is_stmt 1 view .LVU1329
 4046 0246 0F98     		ldr	r0, [sp, #60]
 4047 0248 C6F82401 		str	r0, [r6, #292]	@ unaligned
ARM GAS  /tmp/ccqyZH0w.s 			page 72


 4048 024c D146     		mov	r9, r10
 4049              	.LVL410:
 4050              		.loc 1 929 5 is_stmt 0 view .LVU1330
 4051 024e 1846     		mov	r0, r3
 4052              		.loc 1 911 6 view .LVU1331
 4053 0250 BA80     		strh	r2, [r7, #4]	@ unaligned
 4054              		.loc 1 915 6 is_stmt 1 view .LVU1332
 4055              	.LVL411:
 4056              		.loc 1 852 9 view .LVU1333
 4057              		.loc 1 929 2 view .LVU1334
 4058              		.loc 1 929 5 is_stmt 0 view .LVU1335
 4059 0252 002B     		cmp	r3, #0
 4060 0254 D5D0     		beq	.L307
 4061              		.loc 1 893 13 view .LVU1336
 4062 0256 0546     		mov	r5, r0
 4063 0258 F2E6     		b	.L303
 4064              	.LVL412:
 4065              	.L317:
 4066              		.loc 1 859 12 view .LVU1337
 4067 025a 6FF03105 		mvn	r5, #49
 4068 025e EFE6     		b	.L303
 4069              	.LVL413:
 4070              	.L326:
 4071              		.loc 1 815 5 is_stmt 1 view .LVU1338
 4072              		.loc 1 815 22 is_stmt 0 view .LVU1339
 4073 0260 0D9A     		ldr	r2, [sp, #52]
 4074 0262 0792     		str	r2, [sp, #28]
 4075              	.LVL414:
 4076              		.loc 1 816 5 is_stmt 1 view .LVU1340
 4077              		.loc 1 816 14 is_stmt 0 view .LVU1341
 4078 0264 0DF13201 		add	r1, sp, #50
 4079 0268 3046     		mov	r0, r6
 4080              	.LVL415:
 4081              		.loc 1 816 14 view .LVU1342
 4082 026a FFF7FEFF 		bl	perform_ref_signal_measurement
 4083              	.LVL416:
 4084              		.loc 1 819 5 is_stmt 1 view .LVU1343
 4085              		.loc 1 819 8 is_stmt 0 view .LVU1344
 4086 026e 0028     		cmp	r0, #0
 4087 0270 7FF471AF 		bne	.L319
 4088              		.loc 1 820 25 discriminator 1 view .LVU1345
 4089 0274 BDF83230 		ldrh	r3, [sp, #50]
 4090              		.loc 1 819 40 discriminator 1 view .LVU1346
 4091 0278 079A     		ldr	r2, [sp, #28]
 4092 027a 4345     		cmp	r3, r8
 4093 027c 07D8     		bhi	.L314
 4094              		.loc 1 802 17 view .LVU1347
 4095 027e 0121     		movs	r1, #1
 4096              		.loc 1 699 11 view .LVU1348
 4097 0280 0B90     		str	r0, [sp, #44]
 4098              		.loc 1 698 11 view .LVU1349
 4099 0282 8146     		mov	r9, r0
 4100              		.loc 1 802 17 view .LVU1350
 4101 0284 0C46     		mov	r4, r1
 4102 0286 6CE7     		b	.L304
 4103              	.LVL417:
 4104              	.L316:
ARM GAS  /tmp/ccqyZH0w.s 			page 73


 4105              		.loc 1 802 17 view .LVU1351
 4106 0288 0A9D     		ldr	r5, [sp, #40]
 4107 028a D146     		mov	r9, r10
 4108 028c B9E7     		b	.L307
 4109              	.LVL418:
 4110              	.L314:
 4111              		.loc 1 827 26 view .LVU1352
 4112 028e 0121     		movs	r1, #1
 4113              		.loc 1 828 23 view .LVU1353
 4114 0290 A146     		mov	r9, r4
 4115              		.loc 1 827 26 view .LVU1354
 4116 0292 0B91     		str	r1, [sp, #44]
 4117              		.loc 1 802 17 view .LVU1355
 4118 0294 0C46     		mov	r4, r1
 4119 0296 64E7     		b	.L304
 4120              	.LVL419:
 4121              	.L325:
 4122              		.loc 1 941 1 view .LVU1356
 4123 0298 FFF7FEFF 		bl	__stack_chk_fail
 4124              	.LVL420:
 4125              	.L329:
 4126              		.align	2
 4127              	.L328:
 4128 029c 00000000 		.word	.LC20
 4129 02a0 00000000 		.word	.LANCHOR0
 4130              		.cfi_endproc
 4131              	.LFE16:
 4132              		.size	VL53L0X_perform_ref_spad_management, .-VL53L0X_perform_ref_spad_management
 4133              		.section	.rodata.VL53L0X_set_ref_calibration.cst4,"aM",%progbits,4
 4134              		.align	2
 4135              	.LC21:
 4136 0000 00000000 		.word	__stack_chk_guard
 4137              		.section	.text.VL53L0X_set_ref_calibration,"ax",%progbits
 4138              		.align	1
 4139              		.p2align 4,,15
 4140              		.global	VL53L0X_set_ref_calibration
 4141              		.syntax unified
 4142              		.thumb
 4143              		.thumb_func
 4144              		.fpu fpv4-sp-d16
 4145              		.type	VL53L0X_set_ref_calibration, %function
 4146              	VL53L0X_set_ref_calibration:
 4147              	.LVL421:
 4148              	.LFB24:
 4149              		.loc 1 1250 1 is_stmt 1 view -0
 4150              		.cfi_startproc
 4151              		@ args = 0, pretend = 0, frame = 8
 4152              		@ frame_needed = 0, uses_anonymous_args = 0
 4153              		.loc 1 1250 1 is_stmt 0 view .LVU1358
 4154 0000 70B5     		push	{r4, r5, r6, lr}
 4155              		.cfi_def_cfa_offset 16
 4156              		.cfi_offset 4, -16
 4157              		.cfi_offset 5, -12
 4158              		.cfi_offset 6, -8
 4159              		.cfi_offset 14, -4
 4160 0002 86B0     		sub	sp, sp, #24
 4161              		.cfi_def_cfa_offset 40
ARM GAS  /tmp/ccqyZH0w.s 			page 74


 4162              		.loc 1 1255 11 view .LVU1359
 4163 0004 0124     		movs	r4, #1
 4164 0006 0DF11306 		add	r6, sp, #19
 4165 000a 0DF11205 		add	r5, sp, #18
 4166 000e CDE90244 		strd	r4, r4, [sp, #8]
 4167 0012 CDE90056 		strd	r5, r6, [sp]
 4168              		.loc 1 1250 1 view .LVU1360
 4169 0016 094C     		ldr	r4, .L334
 4170 0018 1346     		mov	r3, r2
 4171              		.loc 1 1255 11 view .LVU1361
 4172 001a 0A46     		mov	r2, r1
 4173              	.LVL422:
 4174              		.loc 1 1255 11 view .LVU1362
 4175 001c 0021     		movs	r1, #0
 4176              	.LVL423:
 4177              		.loc 1 1250 1 view .LVU1363
 4178 001e 2468     		ldr	r4, [r4]
 4179 0020 0594     		str	r4, [sp, #20]
 4180 0022 4FF00004 		mov	r4,#0
 4181              		.loc 1 1251 2 is_stmt 1 view .LVU1364
 4182              	.LVL424:
 4183              		.loc 1 1252 2 view .LVU1365
 4184              		.loc 1 1253 2 view .LVU1366
 4185              		.loc 1 1255 2 view .LVU1367
 4186              		.loc 1 1255 11 is_stmt 0 view .LVU1368
 4187 0026 FFF7FEFF 		bl	VL53L0X_ref_calibration_io
 4188              	.LVL425:
 4189              		.loc 1 1260 2 is_stmt 1 view .LVU1369
 4190              		.loc 1 1261 1 is_stmt 0 view .LVU1370
 4191 002a 044B     		ldr	r3, .L334
 4192 002c 1A68     		ldr	r2, [r3]
 4193 002e 059B     		ldr	r3, [sp, #20]
 4194 0030 5A40     		eors	r2, r3, r2
 4195 0032 01D1     		bne	.L333
 4196 0034 06B0     		add	sp, sp, #24
 4197              		.cfi_remember_state
 4198              		.cfi_def_cfa_offset 16
 4199              		@ sp needed
 4200 0036 70BD     		pop	{r4, r5, r6, pc}
 4201              	.L333:
 4202              		.cfi_restore_state
 4203 0038 FFF7FEFF 		bl	__stack_chk_fail
 4204              	.LVL426:
 4205              	.L335:
 4206              		.loc 1 1261 1 view .LVU1371
 4207              		.align	2
 4208              	.L334:
 4209 003c 00000000 		.word	.LC21
 4210              		.cfi_endproc
 4211              	.LFE24:
 4212              		.size	VL53L0X_set_ref_calibration, .-VL53L0X_set_ref_calibration
 4213              		.section	.rodata.VL53L0X_get_ref_calibration.cst4,"aM",%progbits,4
 4214              		.align	2
 4215              	.LC22:
 4216 0000 00000000 		.word	__stack_chk_guard
 4217              		.section	.text.VL53L0X_get_ref_calibration,"ax",%progbits
 4218              		.align	1
ARM GAS  /tmp/ccqyZH0w.s 			page 75


 4219              		.p2align 4,,15
 4220              		.global	VL53L0X_get_ref_calibration
 4221              		.syntax unified
 4222              		.thumb
 4223              		.thumb_func
 4224              		.fpu fpv4-sp-d16
 4225              		.type	VL53L0X_get_ref_calibration, %function
 4226              	VL53L0X_get_ref_calibration:
 4227              	.LVL427:
 4228              	.LFB25:
 4229              		.loc 1 1265 1 is_stmt 1 view -0
 4230              		.cfi_startproc
 4231              		@ args = 0, pretend = 0, frame = 8
 4232              		@ frame_needed = 0, uses_anonymous_args = 0
 4233              		.loc 1 1265 1 is_stmt 0 view .LVU1373
 4234 0000 10B5     		push	{r4, lr}
 4235              		.cfi_def_cfa_offset 8
 4236              		.cfi_offset 4, -8
 4237              		.cfi_offset 14, -4
 4238              		.loc 1 1270 11 view .LVU1374
 4239 0002 0124     		movs	r4, #1
 4240              		.loc 1 1265 1 view .LVU1375
 4241 0004 86B0     		sub	sp, sp, #24
 4242              		.cfi_def_cfa_offset 32
 4243              		.loc 1 1270 11 view .LVU1376
 4244 0006 CDE90012 		strd	r1, r2, [sp]
 4245 000a CDE90244 		strd	r4, r4, [sp, #8]
 4246 000e 0023     		movs	r3, #0
 4247 0010 2146     		mov	r1, r4
 4248              	.LVL428:
 4249              		.loc 1 1265 1 view .LVU1377
 4250 0012 084C     		ldr	r4, .L340
 4251              		.loc 1 1270 11 view .LVU1378
 4252 0014 1A46     		mov	r2, r3
 4253              	.LVL429:
 4254              		.loc 1 1265 1 view .LVU1379
 4255 0016 2468     		ldr	r4, [r4]
 4256 0018 0594     		str	r4, [sp, #20]
 4257 001a 4FF00004 		mov	r4,#0
 4258              		.loc 1 1266 2 is_stmt 1 view .LVU1380
 4259              	.LVL430:
 4260              		.loc 1 1267 2 view .LVU1381
 4261              		.loc 1 1268 2 view .LVU1382
 4262              		.loc 1 1270 2 view .LVU1383
 4263              		.loc 1 1270 11 is_stmt 0 view .LVU1384
 4264 001e FFF7FEFF 		bl	VL53L0X_ref_calibration_io
 4265              	.LVL431:
 4266              		.loc 1 1275 2 is_stmt 1 view .LVU1385
 4267              		.loc 1 1276 1 is_stmt 0 view .LVU1386
 4268 0022 044B     		ldr	r3, .L340
 4269 0024 1A68     		ldr	r2, [r3]
 4270 0026 059B     		ldr	r3, [sp, #20]
 4271 0028 5A40     		eors	r2, r3, r2
 4272 002a 01D1     		bne	.L339
 4273 002c 06B0     		add	sp, sp, #24
 4274              		.cfi_remember_state
 4275              		.cfi_def_cfa_offset 8
ARM GAS  /tmp/ccqyZH0w.s 			page 76


 4276              		@ sp needed
 4277 002e 10BD     		pop	{r4, pc}
 4278              	.L339:
 4279              		.cfi_restore_state
 4280 0030 FFF7FEFF 		bl	__stack_chk_fail
 4281              	.LVL432:
 4282              	.L341:
 4283              		.loc 1 1276 1 view .LVU1387
 4284              		.align	2
 4285              	.L340:
 4286 0034 00000000 		.word	.LC22
 4287              		.cfi_endproc
 4288              	.LFE25:
 4289              		.size	VL53L0X_get_ref_calibration, .-VL53L0X_get_ref_calibration
 4290              		.global	refArrayQuadrants
 4291              		.section	.data.refArrayQuadrants,"aw"
 4292              		.align	2
 4293              		.set	.LANCHOR0,. + 0
 4294              		.type	refArrayQuadrants, %object
 4295              		.size	refArrayQuadrants, 16
 4296              	refArrayQuadrants:
 4297 0000 0A000000 		.word	10
 4298 0004 05000000 		.word	5
 4299 0008 00000000 		.word	0
 4300 000c 05000000 		.word	5
 4301              		.text
 4302              	.Letext0:
 4303              		.file 2 "/usr/lib/gcc/arm-none-eabi/9.2.1/include/stdint.h"
 4304              		.file 3 ".//src/sensors/VL53L0X/Api/core/src/../inc/vl53l0x_types.h"
 4305              		.file 4 ".//src/sensors/VL53L0X/Api/core/src/../inc/vl53l0x_device.h"
 4306              		.file 5 ".//src/sensors/VL53L0X/Api/core/src/../inc/vl53l0x_def.h"
 4307              		.file 6 "/usr/lib/gcc/arm-none-eabi/9.2.1/include/stddef.h"
 4308              		.file 7 "/usr/include/newlib/sys/_types.h"
 4309              		.file 8 "/usr/include/newlib/sys/reent.h"
 4310              		.file 9 "/usr/include/newlib/sys/lock.h"
 4311              		.file 10 ".//src/sensors/VL53L0X/Api/core/src/../inc/../../platform/inc/vl53l0x_platform.h"
 4312              		.file 11 "/usr/include/newlib/stdlib.h"
 4313              		.file 12 ".//src/sensors/VL53L0X/Api/core/src/../inc/vl53l0x_api.h"
 4314              		.file 13 ".//src/sensors/VL53L0X/Api/core/src/../inc/vl53l0x_api_core.h"
 4315              		.section	.debug_info,"",%progbits
 4316              	.Ldebug_info0:
 4317 0000 70310000 		.4byte	0x3170
 4318 0004 0400     		.2byte	0x4
 4319 0006 00000000 		.4byte	.Ldebug_abbrev0
 4320 000a 04       		.byte	0x4
 4321 000b 01       		.uleb128 0x1
 4322 000c A3150000 		.4byte	.LASF374
 4323 0010 0C       		.byte	0xc
 4324 0011 E7130000 		.4byte	.LASF375
 4325 0015 AF020000 		.4byte	.LASF376
 4326 0019 F0000000 		.4byte	.Ldebug_ranges0+0xf0
 4327 001d 00000000 		.4byte	0
 4328 0021 00000000 		.4byte	.Ldebug_line0
 4329 0025 02       		.uleb128 0x2
 4330 0026 04       		.byte	0x4
 4331 0027 07       		.byte	0x7
 4332 0028 94010000 		.4byte	.LASF0
ARM GAS  /tmp/ccqyZH0w.s 			page 77


 4333 002c 03       		.uleb128 0x3
 4334 002d CE040000 		.4byte	.LASF2
 4335 0031 02       		.byte	0x2
 4336 0032 22       		.byte	0x22
 4337 0033 17       		.byte	0x17
 4338 0034 38000000 		.4byte	0x38
 4339 0038 02       		.uleb128 0x2
 4340 0039 01       		.byte	0x1
 4341 003a 06       		.byte	0x6
 4342 003b D7140000 		.4byte	.LASF1
 4343 003f 03       		.uleb128 0x3
 4344 0040 AA050000 		.4byte	.LASF3
 4345 0044 02       		.byte	0x2
 4346 0045 25       		.byte	0x25
 4347 0046 18       		.byte	0x18
 4348 0047 4B000000 		.4byte	0x4b
 4349 004b 02       		.uleb128 0x2
 4350 004c 02       		.byte	0x2
 4351 004d 05       		.byte	0x5
 4352 004e 640F0000 		.4byte	.LASF4
 4353 0052 03       		.uleb128 0x3
 4354 0053 68120000 		.4byte	.LASF5
 4355 0057 02       		.byte	0x2
 4356 0058 28       		.byte	0x28
 4357 0059 18       		.byte	0x18
 4358 005a 5E000000 		.4byte	0x5e
 4359 005e 02       		.uleb128 0x2
 4360 005f 04       		.byte	0x4
 4361 0060 05       		.byte	0x5
 4362 0061 9B0F0000 		.4byte	.LASF6
 4363 0065 02       		.uleb128 0x2
 4364 0066 08       		.byte	0x8
 4365 0067 05       		.byte	0x5
 4366 0068 970B0000 		.4byte	.LASF7
 4367 006c 03       		.uleb128 0x3
 4368 006d B20A0000 		.4byte	.LASF8
 4369 0071 02       		.byte	0x2
 4370 0072 2E       		.byte	0x2e
 4371 0073 18       		.byte	0x18
 4372 0074 7D000000 		.4byte	0x7d
 4373 0078 04       		.uleb128 0x4
 4374 0079 6C000000 		.4byte	0x6c
 4375 007d 02       		.uleb128 0x2
 4376 007e 01       		.byte	0x1
 4377 007f 08       		.byte	0x8
 4378 0080 D8120000 		.4byte	.LASF9
 4379 0084 03       		.uleb128 0x3
 4380 0085 810E0000 		.4byte	.LASF10
 4381 0089 02       		.byte	0x2
 4382 008a 31       		.byte	0x31
 4383 008b 19       		.byte	0x19
 4384 008c 90000000 		.4byte	0x90
 4385 0090 02       		.uleb128 0x2
 4386 0091 02       		.byte	0x2
 4387 0092 07       		.byte	0x7
 4388 0093 F8140000 		.4byte	.LASF11
 4389 0097 03       		.uleb128 0x3
ARM GAS  /tmp/ccqyZH0w.s 			page 78


 4390 0098 C5040000 		.4byte	.LASF12
 4391 009c 02       		.byte	0x2
 4392 009d 34       		.byte	0x34
 4393 009e 19       		.byte	0x19
 4394 009f A3000000 		.4byte	0xa3
 4395 00a3 02       		.uleb128 0x2
 4396 00a4 04       		.byte	0x4
 4397 00a5 07       		.byte	0x7
 4398 00a6 0C120000 		.4byte	.LASF13
 4399 00aa 02       		.uleb128 0x2
 4400 00ab 08       		.byte	0x8
 4401 00ac 07       		.byte	0x7
 4402 00ad 30060000 		.4byte	.LASF14
 4403 00b1 05       		.uleb128 0x5
 4404 00b2 04       		.byte	0x4
 4405 00b3 05       		.byte	0x5
 4406 00b4 696E7400 		.ascii	"int\000"
 4407 00b8 02       		.uleb128 0x2
 4408 00b9 08       		.byte	0x8
 4409 00ba 04       		.byte	0x4
 4410 00bb 660E0000 		.4byte	.LASF15
 4411 00bf 03       		.uleb128 0x3
 4412 00c0 93040000 		.4byte	.LASF16
 4413 00c4 03       		.byte	0x3
 4414 00c5 6D       		.byte	0x6d
 4415 00c6 12       		.byte	0x12
 4416 00c7 97000000 		.4byte	0x97
 4417 00cb 03       		.uleb128 0x3
 4418 00cc 6C050000 		.4byte	.LASF17
 4419 00d0 04       		.byte	0x4
 4420 00d1 36       		.byte	0x36
 4421 00d2 11       		.byte	0x11
 4422 00d3 6C000000 		.4byte	0x6c
 4423 00d7 03       		.uleb128 0x3
 4424 00d8 C10A0000 		.4byte	.LASF18
 4425 00dc 04       		.byte	0x4
 4426 00dd 64       		.byte	0x64
 4427 00de 11       		.byte	0x11
 4428 00df 6C000000 		.4byte	0x6c
 4429 00e3 06       		.uleb128 0x6
 4430 00e4 63       		.byte	0x63
 4431 00e5 05       		.byte	0x5
 4432 00e6 6E       		.byte	0x6e
 4433 00e7 09       		.byte	0x9
 4434 00e8 3B010000 		.4byte	0x13b
 4435 00ec 07       		.uleb128 0x7
 4436 00ed FE060000 		.4byte	.LASF19
 4437 00f1 05       		.byte	0x5
 4438 00f2 6F       		.byte	0x6f
 4439 00f3 07       		.byte	0x7
 4440 00f4 3B010000 		.4byte	0x13b
 4441 00f8 00       		.byte	0
 4442 00f9 07       		.uleb128 0x7
 4443 00fa 060B0000 		.4byte	.LASF20
 4444 00fe 05       		.byte	0x5
 4445 00ff 71       		.byte	0x71
 4446 0100 07       		.byte	0x7
ARM GAS  /tmp/ccqyZH0w.s 			page 79


 4447 0101 3B010000 		.4byte	0x13b
 4448 0105 20       		.byte	0x20
 4449 0106 07       		.uleb128 0x7
 4450 0107 F0010000 		.4byte	.LASF21
 4451 010b 05       		.byte	0x5
 4452 010c 73       		.byte	0x73
 4453 010d 07       		.byte	0x7
 4454 010e 3B010000 		.4byte	0x13b
 4455 0112 40       		.byte	0x40
 4456 0113 07       		.uleb128 0x7
 4457 0114 C0130000 		.4byte	.LASF22
 4458 0118 05       		.byte	0x5
 4459 0119 75       		.byte	0x75
 4460 011a 0A       		.byte	0xa
 4461 011b 6C000000 		.4byte	0x6c
 4462 011f 60       		.byte	0x60
 4463 0120 07       		.uleb128 0x7
 4464 0121 A1000000 		.4byte	.LASF23
 4465 0125 05       		.byte	0x5
 4466 0126 77       		.byte	0x77
 4467 0127 0A       		.byte	0xa
 4468 0128 6C000000 		.4byte	0x6c
 4469 012c 61       		.byte	0x61
 4470 012d 07       		.uleb128 0x7
 4471 012e BA050000 		.4byte	.LASF24
 4472 0132 05       		.byte	0x5
 4473 0133 79       		.byte	0x79
 4474 0134 0A       		.byte	0xa
 4475 0135 6C000000 		.4byte	0x6c
 4476 0139 62       		.byte	0x62
 4477 013a 00       		.byte	0
 4478 013b 08       		.uleb128 0x8
 4479 013c 4B010000 		.4byte	0x14b
 4480 0140 4B010000 		.4byte	0x14b
 4481 0144 09       		.uleb128 0x9
 4482 0145 25000000 		.4byte	0x25
 4483 0149 1F       		.byte	0x1f
 4484 014a 00       		.byte	0
 4485 014b 02       		.uleb128 0x2
 4486 014c 01       		.byte	0x1
 4487 014d 08       		.byte	0x8
 4488 014e AF090000 		.4byte	.LASF25
 4489 0152 04       		.uleb128 0x4
 4490 0153 4B010000 		.4byte	0x14b
 4491 0157 03       		.uleb128 0x3
 4492 0158 33040000 		.4byte	.LASF26
 4493 015c 05       		.byte	0x5
 4494 015d 7B       		.byte	0x7b
 4495 015e 03       		.byte	0x3
 4496 015f E3000000 		.4byte	0xe3
 4497 0163 03       		.uleb128 0x3
 4498 0164 46110000 		.4byte	.LASF27
 4499 0168 05       		.byte	0x5
 4500 0169 83       		.byte	0x83
 4501 016a 10       		.byte	0x10
 4502 016b 2C000000 		.4byte	0x2c
 4503 016f 03       		.uleb128 0x3
ARM GAS  /tmp/ccqyZH0w.s 			page 80


 4504 0170 D70B0000 		.4byte	.LASF28
 4505 0174 05       		.byte	0x5
 4506 0175 B5       		.byte	0xb5
 4507 0176 11       		.byte	0x11
 4508 0177 6C000000 		.4byte	0x6c
 4509 017b 03       		.uleb128 0x3
 4510 017c 400B0000 		.4byte	.LASF29
 4511 0180 05       		.byte	0x5
 4512 0181 C7       		.byte	0xc7
 4513 0182 11       		.byte	0x11
 4514 0183 6C000000 		.4byte	0x6c
 4515 0187 03       		.uleb128 0x3
 4516 0188 DD010000 		.4byte	.LASF30
 4517 018c 05       		.byte	0x5
 4518 018d DA       		.byte	0xda
 4519 018e 11       		.byte	0x11
 4520 018f 6C000000 		.4byte	0x6c
 4521 0193 06       		.uleb128 0x6
 4522 0194 40       		.byte	0x40
 4523 0195 05       		.byte	0x5
 4524 0196 EA       		.byte	0xea
 4525 0197 09       		.byte	0x9
 4526 0198 3C020000 		.4byte	0x23c
 4527 019c 07       		.uleb128 0x7
 4528 019d 3E0E0000 		.4byte	.LASF31
 4529 01a1 05       		.byte	0x5
 4530 01a2 EB       		.byte	0xeb
 4531 01a3 16       		.byte	0x16
 4532 01a4 6F010000 		.4byte	0x16f
 4533 01a8 00       		.byte	0
 4534 01a9 07       		.uleb128 0x7
 4535 01aa D0000000 		.4byte	.LASF32
 4536 01ae 05       		.byte	0x5
 4537 01af ED       		.byte	0xed
 4538 01b0 19       		.byte	0x19
 4539 01b1 7B010000 		.4byte	0x17b
 4540 01b5 01       		.byte	0x1
 4541 01b6 07       		.uleb128 0x7
 4542 01b7 040A0000 		.4byte	.LASF33
 4543 01bb 05       		.byte	0x5
 4544 01bc F0       		.byte	0xf0
 4545 01bd 0B       		.byte	0xb
 4546 01be 97000000 		.4byte	0x97
 4547 01c2 04       		.byte	0x4
 4548 01c3 07       		.uleb128 0x7
 4549 01c4 DC070000 		.4byte	.LASF34
 4550 01c8 05       		.byte	0x5
 4551 01c9 F2       		.byte	0xf2
 4552 01ca 0B       		.byte	0xb
 4553 01cb 97000000 		.4byte	0x97
 4554 01cf 08       		.byte	0x8
 4555 01d0 07       		.uleb128 0x7
 4556 01d1 15010000 		.4byte	.LASF35
 4557 01d5 05       		.byte	0x5
 4558 01d6 F5       		.byte	0xf5
 4559 01d7 0A       		.byte	0xa
 4560 01d8 6C000000 		.4byte	0x6c
ARM GAS  /tmp/ccqyZH0w.s 			page 81


 4561 01dc 0C       		.byte	0xc
 4562 01dd 07       		.uleb128 0x7
 4563 01de A1010000 		.4byte	.LASF36
 4564 01e2 05       		.byte	0x5
 4565 01e3 F7       		.byte	0xf7
 4566 01e4 0B       		.byte	0xb
 4567 01e5 84000000 		.4byte	0x84
 4568 01e9 0E       		.byte	0xe
 4569 01ea 07       		.uleb128 0x7
 4570 01eb 490E0000 		.4byte	.LASF37
 4571 01ef 05       		.byte	0x5
 4572 01f0 F9       		.byte	0xf9
 4573 01f1 11       		.byte	0x11
 4574 01f2 BF000000 		.4byte	0xbf
 4575 01f6 10       		.byte	0x10
 4576 01f7 07       		.uleb128 0x7
 4577 01f8 E2100000 		.4byte	.LASF38
 4578 01fc 05       		.byte	0x5
 4579 01fd FC       		.byte	0xfc
 4580 01fe 0A       		.byte	0xa
 4581 01ff 52000000 		.4byte	0x52
 4582 0203 14       		.byte	0x14
 4583 0204 07       		.uleb128 0x7
 4584 0205 07020000 		.4byte	.LASF39
 4585 0209 05       		.byte	0x5
 4586 020a FF       		.byte	0xff
 4587 020b 0A       		.byte	0xa
 4588 020c 3C020000 		.4byte	0x23c
 4589 0210 18       		.byte	0x18
 4590 0211 0A       		.uleb128 0xa
 4591 0212 D7030000 		.4byte	.LASF40
 4592 0216 05       		.byte	0x5
 4593 0217 0101     		.2byte	0x101
 4594 0219 0A       		.byte	0xa
 4595 021a 3C020000 		.4byte	0x23c
 4596 021e 1E       		.byte	0x1e
 4597 021f 0A       		.uleb128 0xa
 4598 0220 57080000 		.4byte	.LASF41
 4599 0224 05       		.byte	0x5
 4600 0225 0401     		.2byte	0x104
 4601 0227 11       		.byte	0x11
 4602 0228 4C020000 		.4byte	0x24c
 4603 022c 24       		.byte	0x24
 4604 022d 0A       		.uleb128 0xa
 4605 022e 90030000 		.4byte	.LASF42
 4606 0232 05       		.byte	0x5
 4607 0233 0701     		.2byte	0x107
 4608 0235 0A       		.byte	0xa
 4609 0236 6C000000 		.4byte	0x6c
 4610 023a 3C       		.byte	0x3c
 4611 023b 00       		.byte	0
 4612 023c 08       		.uleb128 0x8
 4613 023d 6C000000 		.4byte	0x6c
 4614 0241 4C020000 		.4byte	0x24c
 4615 0245 09       		.uleb128 0x9
 4616 0246 25000000 		.4byte	0x25
 4617 024a 05       		.byte	0x5
ARM GAS  /tmp/ccqyZH0w.s 			page 82


 4618 024b 00       		.byte	0
 4619 024c 08       		.uleb128 0x8
 4620 024d BF000000 		.4byte	0xbf
 4621 0251 5C020000 		.4byte	0x25c
 4622 0255 09       		.uleb128 0x9
 4623 0256 25000000 		.4byte	0x25
 4624 025a 05       		.byte	0x5
 4625 025b 00       		.byte	0
 4626 025c 0B       		.uleb128 0xb
 4627 025d 4A050000 		.4byte	.LASF43
 4628 0261 05       		.byte	0x5
 4629 0262 0901     		.2byte	0x109
 4630 0264 03       		.byte	0x3
 4631 0265 93010000 		.4byte	0x193
 4632 0269 0B       		.uleb128 0xb
 4633 026a F50D0000 		.4byte	.LASF44
 4634 026e 05       		.byte	0x5
 4635 026f 1101     		.2byte	0x111
 4636 0271 11       		.byte	0x11
 4637 0272 6C000000 		.4byte	0x6c
 4638 0276 0C       		.uleb128 0xc
 4639 0277 08       		.byte	0x8
 4640 0278 05       		.byte	0x5
 4641 0279 2701     		.2byte	0x127
 4642 027b 09       		.byte	0x9
 4643 027c 9D020000 		.4byte	0x29d
 4644 0280 0A       		.uleb128 0xa
 4645 0281 47060000 		.4byte	.LASF45
 4646 0285 05       		.byte	0x5
 4647 0286 2801     		.2byte	0x128
 4648 0288 0A       		.byte	0xa
 4649 0289 52000000 		.4byte	0x52
 4650 028d 00       		.byte	0
 4651 028e 0A       		.uleb128 0xa
 4652 028f CF0C0000 		.4byte	.LASF46
 4653 0293 05       		.byte	0x5
 4654 0294 2A01     		.2byte	0x12a
 4655 0296 0A       		.byte	0xa
 4656 0297 52000000 		.4byte	0x52
 4657 029b 04       		.byte	0x4
 4658 029c 00       		.byte	0
 4659 029d 0B       		.uleb128 0xb
 4660 029e 030E0000 		.4byte	.LASF47
 4661 02a2 05       		.byte	0x5
 4662 02a3 2C01     		.2byte	0x12c
 4663 02a5 03       		.byte	0x3
 4664 02a6 76020000 		.4byte	0x276
 4665 02aa 0C       		.uleb128 0xc
 4666 02ab 1C       		.byte	0x1c
 4667 02ac 05       		.byte	0x5
 4668 02ad 3201     		.2byte	0x132
 4669 02af 09       		.byte	0x9
 4670 02b0 41030000 		.4byte	0x341
 4671 02b4 0A       		.uleb128 0xa
 4672 02b5 C7170000 		.4byte	.LASF48
 4673 02b9 05       		.byte	0x5
 4674 02ba 3301     		.2byte	0x133
ARM GAS  /tmp/ccqyZH0w.s 			page 83


 4675 02bc 0B       		.byte	0xb
 4676 02bd 97000000 		.4byte	0x97
 4677 02c1 00       		.byte	0
 4678 02c2 0A       		.uleb128 0xa
 4679 02c3 6A090000 		.4byte	.LASF49
 4680 02c7 05       		.byte	0x5
 4681 02c8 3401     		.2byte	0x134
 4682 02ca 0B       		.byte	0xb
 4683 02cb 97000000 		.4byte	0x97
 4684 02cf 04       		.byte	0x4
 4685 02d0 0A       		.uleb128 0xa
 4686 02d1 3E150000 		.4byte	.LASF50
 4687 02d5 05       		.byte	0x5
 4688 02d6 3901     		.2byte	0x139
 4689 02d8 0B       		.byte	0xb
 4690 02d9 84000000 		.4byte	0x84
 4691 02dd 08       		.byte	0x8
 4692 02de 0A       		.uleb128 0xa
 4693 02df E9030000 		.4byte	.LASF51
 4694 02e3 05       		.byte	0x5
 4695 02e4 3B01     		.2byte	0x13b
 4696 02e6 0B       		.byte	0xb
 4697 02e7 84000000 		.4byte	0x84
 4698 02eb 0A       		.byte	0xa
 4699 02ec 0A       		.uleb128 0xa
 4700 02ed 6C000000 		.4byte	.LASF52
 4701 02f1 05       		.byte	0x5
 4702 02f2 4001     		.2byte	0x140
 4703 02f4 11       		.byte	0x11
 4704 02f5 BF000000 		.4byte	0xbf
 4705 02f9 0C       		.byte	0xc
 4706 02fa 0A       		.uleb128 0xa
 4707 02fb 32020000 		.4byte	.LASF53
 4708 02ff 05       		.byte	0x5
 4709 0300 4401     		.2byte	0x144
 4710 0302 11       		.byte	0x11
 4711 0303 BF000000 		.4byte	0xbf
 4712 0307 10       		.byte	0x10
 4713 0308 0A       		.uleb128 0xa
 4714 0309 6B070000 		.4byte	.LASF54
 4715 030d 05       		.byte	0x5
 4716 030e 4901     		.2byte	0x149
 4717 0310 0B       		.byte	0xb
 4718 0311 84000000 		.4byte	0x84
 4719 0315 14       		.byte	0x14
 4720 0316 0A       		.uleb128 0xa
 4721 0317 B4100000 		.4byte	.LASF55
 4722 031b 05       		.byte	0x5
 4723 031c 4D01     		.2byte	0x14d
 4724 031e 0A       		.byte	0xa
 4725 031f 6C000000 		.4byte	0x6c
 4726 0323 16       		.byte	0x16
 4727 0324 0A       		.uleb128 0xa
 4728 0325 73150000 		.4byte	.LASF56
 4729 0329 05       		.byte	0x5
 4730 032a 5001     		.2byte	0x150
 4731 032c 0A       		.byte	0xa
ARM GAS  /tmp/ccqyZH0w.s 			page 84


 4732 032d 6C000000 		.4byte	0x6c
 4733 0331 17       		.byte	0x17
 4734 0332 0A       		.uleb128 0xa
 4735 0333 820B0000 		.4byte	.LASF57
 4736 0337 05       		.byte	0x5
 4737 0338 5301     		.2byte	0x153
 4738 033a 0A       		.byte	0xa
 4739 033b 6C000000 		.4byte	0x6c
 4740 033f 18       		.byte	0x18
 4741 0340 00       		.byte	0
 4742 0341 0B       		.uleb128 0xb
 4743 0342 8A0E0000 		.4byte	.LASF58
 4744 0346 05       		.byte	0x5
 4745 0347 5701     		.2byte	0x157
 4746 0349 03       		.byte	0x3
 4747 034a AA020000 		.4byte	0x2aa
 4748 034e 0C       		.uleb128 0xc
 4749 034f 68       		.byte	0x68
 4750 0350 05       		.byte	0x5
 4751 0351 6001     		.2byte	0x160
 4752 0353 09       		.byte	0x9
 4753 0354 AD030000 		.4byte	0x3ad
 4754 0358 0A       		.uleb128 0xa
 4755 0359 49080000 		.4byte	.LASF59
 4756 035d 05       		.byte	0x5
 4757 035e 6201     		.2byte	0x162
 4758 0360 0B       		.byte	0xb
 4759 0361 AD030000 		.4byte	0x3ad
 4760 0365 00       		.byte	0
 4761 0366 0A       		.uleb128 0xa
 4762 0367 0C130000 		.4byte	.LASF60
 4763 036b 05       		.byte	0x5
 4764 036c 6401     		.2byte	0x164
 4765 036e 0A       		.byte	0xa
 4766 036f 6C000000 		.4byte	0x6c
 4767 0373 60       		.byte	0x60
 4768 0374 0A       		.uleb128 0xa
 4769 0375 8E0B0000 		.4byte	.LASF61
 4770 0379 05       		.byte	0x5
 4771 037a 6601     		.2byte	0x166
 4772 037c 0A       		.byte	0xa
 4773 037d 6C000000 		.4byte	0x6c
 4774 0381 61       		.byte	0x61
 4775 0382 0A       		.uleb128 0xa
 4776 0383 4A0A0000 		.4byte	.LASF62
 4777 0387 05       		.byte	0x5
 4778 0388 6701     		.2byte	0x167
 4779 038a 0A       		.byte	0xa
 4780 038b 6C000000 		.4byte	0x6c
 4781 038f 62       		.byte	0x62
 4782 0390 0A       		.uleb128 0xa
 4783 0391 E6120000 		.4byte	.LASF63
 4784 0395 05       		.byte	0x5
 4785 0396 6801     		.2byte	0x168
 4786 0398 0A       		.byte	0xa
 4787 0399 6C000000 		.4byte	0x6c
 4788 039d 63       		.byte	0x63
ARM GAS  /tmp/ccqyZH0w.s 			page 85


 4789 039e 0A       		.uleb128 0xa
 4790 039f 26020000 		.4byte	.LASF64
 4791 03a3 05       		.byte	0x5
 4792 03a4 6B01     		.2byte	0x16b
 4793 03a6 16       		.byte	0x16
 4794 03a7 CB000000 		.4byte	0xcb
 4795 03ab 64       		.byte	0x64
 4796 03ac 00       		.byte	0
 4797 03ad 08       		.uleb128 0x8
 4798 03ae 97000000 		.4byte	0x97
 4799 03b2 BD030000 		.4byte	0x3bd
 4800 03b6 09       		.uleb128 0x9
 4801 03b7 25000000 		.4byte	0x25
 4802 03bb 17       		.byte	0x17
 4803 03bc 00       		.byte	0
 4804 03bd 0B       		.uleb128 0xb
 4805 03be E2170000 		.4byte	.LASF65
 4806 03c2 05       		.byte	0x5
 4807 03c3 6E01     		.2byte	0x16e
 4808 03c5 03       		.byte	0x3
 4809 03c6 4E030000 		.4byte	0x34e
 4810 03ca 0C       		.uleb128 0xc
 4811 03cb 0C       		.byte	0xc
 4812 03cc 05       		.byte	0x5
 4813 03cd 7601     		.2byte	0x176
 4814 03cf 09       		.byte	0x9
 4815 03d0 F1030000 		.4byte	0x3f1
 4816 03d4 0A       		.uleb128 0xa
 4817 03d5 EF060000 		.4byte	.LASF66
 4818 03d9 05       		.byte	0x5
 4819 03da 7701     		.2byte	0x177
 4820 03dc 0A       		.byte	0xa
 4821 03dd 3C020000 		.4byte	0x23c
 4822 03e1 00       		.byte	0
 4823 03e2 0A       		.uleb128 0xa
 4824 03e3 2D110000 		.4byte	.LASF67
 4825 03e7 05       		.byte	0x5
 4826 03e8 7901     		.2byte	0x179
 4827 03ea 0A       		.byte	0xa
 4828 03eb 3C020000 		.4byte	0x23c
 4829 03ef 06       		.byte	0x6
 4830 03f0 00       		.byte	0
 4831 03f1 0B       		.uleb128 0xb
 4832 03f2 8A0A0000 		.4byte	.LASF68
 4833 03f6 05       		.byte	0x5
 4834 03f7 7B01     		.2byte	0x17b
 4835 03f9 03       		.byte	0x3
 4836 03fa CA030000 		.4byte	0x3ca
 4837 03fe 0C       		.uleb128 0xc
 4838 03ff 50       		.byte	0x50
 4839 0400 05       		.byte	0x5
 4840 0401 7D01     		.2byte	0x17d
 4841 0403 09       		.byte	0x9
 4842 0404 21050000 		.4byte	0x521
 4843 0408 0A       		.uleb128 0xa
 4844 0409 A2060000 		.4byte	.LASF69
 4845 040d 05       		.byte	0x5
ARM GAS  /tmp/ccqyZH0w.s 			page 86


 4846 040e 7E01     		.2byte	0x17e
 4847 0410 11       		.byte	0x11
 4848 0411 BF000000 		.4byte	0xbf
 4849 0415 00       		.byte	0
 4850 0416 0A       		.uleb128 0xa
 4851 0417 F5160000 		.4byte	.LASF70
 4852 041b 05       		.byte	0x5
 4853 041c 8001     		.2byte	0x180
 4854 041e 0B       		.byte	0xb
 4855 041f 84000000 		.4byte	0x84
 4856 0423 04       		.byte	0x4
 4857 0424 0A       		.uleb128 0xa
 4858 0425 46140000 		.4byte	.LASF71
 4859 0429 05       		.byte	0x5
 4860 042a 8301     		.2byte	0x183
 4861 042c 1C       		.byte	0x1c
 4862 042d D7000000 		.4byte	0xd7
 4863 0431 06       		.byte	0x6
 4864 0432 0A       		.uleb128 0xa
 4865 0433 8F100000 		.4byte	.LASF72
 4866 0437 05       		.byte	0x5
 4867 0438 8601     		.2byte	0x186
 4868 043a 0B       		.byte	0xb
 4869 043b 97000000 		.4byte	0x97
 4870 043f 08       		.byte	0x8
 4871 0440 0A       		.uleb128 0xa
 4872 0441 36130000 		.4byte	.LASF73
 4873 0445 05       		.byte	0x5
 4874 0446 8801     		.2byte	0x188
 4875 0448 0A       		.byte	0xa
 4876 0449 6C000000 		.4byte	0x6c
 4877 044d 0C       		.byte	0xc
 4878 044e 0A       		.uleb128 0xa
 4879 044f F3120000 		.4byte	.LASF74
 4880 0453 05       		.byte	0x5
 4881 0454 8A01     		.2byte	0x18a
 4882 0456 0B       		.byte	0xb
 4883 0457 97000000 		.4byte	0x97
 4884 045b 10       		.byte	0x10
 4885 045c 0A       		.uleb128 0xa
 4886 045d 2D010000 		.4byte	.LASF75
 4887 0461 05       		.byte	0x5
 4888 0462 8C01     		.2byte	0x18c
 4889 0464 0A       		.byte	0xa
 4890 0465 6C000000 		.4byte	0x6c
 4891 0469 14       		.byte	0x14
 4892 046a 0A       		.uleb128 0xa
 4893 046b 5C150000 		.4byte	.LASF76
 4894 046f 05       		.byte	0x5
 4895 0470 8F01     		.2byte	0x18f
 4896 0472 0B       		.byte	0xb
 4897 0473 84000000 		.4byte	0x84
 4898 0477 16       		.byte	0x16
 4899 0478 0A       		.uleb128 0xa
 4900 0479 18090000 		.4byte	.LASF77
 4901 047d 05       		.byte	0x5
 4902 047e 9101     		.2byte	0x191
ARM GAS  /tmp/ccqyZH0w.s 			page 87


 4903 0480 0B       		.byte	0xb
 4904 0481 84000000 		.4byte	0x84
 4905 0485 18       		.byte	0x18
 4906 0486 0A       		.uleb128 0xa
 4907 0487 8B120000 		.4byte	.LASF78
 4908 048b 05       		.byte	0x5
 4909 048c 9401     		.2byte	0x194
 4910 048e 0B       		.byte	0xb
 4911 048f 84000000 		.4byte	0x84
 4912 0493 1A       		.byte	0x1a
 4913 0494 0A       		.uleb128 0xa
 4914 0495 ED090000 		.4byte	.LASF79
 4915 0499 05       		.byte	0x5
 4916 049a 9901     		.2byte	0x199
 4917 049c 0A       		.byte	0xa
 4918 049d 6C000000 		.4byte	0x6c
 4919 04a1 1C       		.byte	0x1c
 4920 04a2 0A       		.uleb128 0xa
 4921 04a3 40080000 		.4byte	.LASF80
 4922 04a7 05       		.byte	0x5
 4923 04a8 9B01     		.2byte	0x19b
 4924 04aa 0A       		.byte	0xa
 4925 04ab 6C000000 		.4byte	0x6c
 4926 04af 1D       		.byte	0x1d
 4927 04b0 0A       		.uleb128 0xa
 4928 04b1 22040000 		.4byte	.LASF81
 4929 04b5 05       		.byte	0x5
 4930 04b6 9C01     		.2byte	0x19c
 4931 04b8 0A       		.byte	0xa
 4932 04b9 6C000000 		.4byte	0x6c
 4933 04bd 1E       		.byte	0x1e
 4934 04be 0A       		.uleb128 0xa
 4935 04bf F0010000 		.4byte	.LASF21
 4936 04c3 05       		.byte	0x5
 4937 04c4 9D01     		.2byte	0x19d
 4938 04c6 07       		.byte	0x7
 4939 04c7 3B010000 		.4byte	0x13b
 4940 04cb 1F       		.byte	0x1f
 4941 04cc 0A       		.uleb128 0xa
 4942 04cd FF070000 		.4byte	.LASF82
 4943 04d1 05       		.byte	0x5
 4944 04d2 9F01     		.2byte	0x19f
 4945 04d4 0A       		.byte	0xa
 4946 04d5 6C000000 		.4byte	0x6c
 4947 04d9 3F       		.byte	0x3f
 4948 04da 0A       		.uleb128 0xa
 4949 04db 5A000000 		.4byte	.LASF83
 4950 04df 05       		.byte	0x5
 4951 04e0 A001     		.2byte	0x1a0
 4952 04e2 0A       		.byte	0xa
 4953 04e3 6C000000 		.4byte	0x6c
 4954 04e7 40       		.byte	0x40
 4955 04e8 0A       		.uleb128 0xa
 4956 04e9 3D0C0000 		.4byte	.LASF84
 4957 04ed 05       		.byte	0x5
 4958 04ee A101     		.2byte	0x1a1
 4959 04f0 0A       		.byte	0xa
ARM GAS  /tmp/ccqyZH0w.s 			page 88


 4960 04f1 6C000000 		.4byte	0x6c
 4961 04f5 41       		.byte	0x41
 4962 04f6 0A       		.uleb128 0xa
 4963 04f7 CA0F0000 		.4byte	.LASF85
 4964 04fb 05       		.byte	0x5
 4965 04fc A201     		.2byte	0x1a2
 4966 04fe 0B       		.byte	0xb
 4967 04ff 97000000 		.4byte	0x97
 4968 0503 44       		.byte	0x44
 4969 0504 0A       		.uleb128 0xa
 4970 0505 89000000 		.4byte	.LASF86
 4971 0509 05       		.byte	0x5
 4972 050a A301     		.2byte	0x1a3
 4973 050c 0B       		.byte	0xb
 4974 050d 97000000 		.4byte	0x97
 4975 0511 48       		.byte	0x48
 4976 0512 0A       		.uleb128 0xa
 4977 0513 57180000 		.4byte	.LASF87
 4978 0517 05       		.byte	0x5
 4979 0518 A401     		.2byte	0x1a4
 4980 051a 11       		.byte	0x11
 4981 051b BF000000 		.4byte	0xbf
 4982 051f 4C       		.byte	0x4c
 4983 0520 00       		.byte	0
 4984 0521 0B       		.uleb128 0xb
 4985 0522 A2040000 		.4byte	.LASF88
 4986 0526 05       		.byte	0x5
 4987 0527 A701     		.2byte	0x1a7
 4988 0529 03       		.byte	0x3
 4989 052a FE030000 		.4byte	0x3fe
 4990 052e 0D       		.uleb128 0xd
 4991 052f 5C01     		.2byte	0x15c
 4992 0531 05       		.byte	0x5
 4993 0532 B101     		.2byte	0x1b1
 4994 0534 09       		.byte	0x9
 4995 0535 AA060000 		.4byte	0x6aa
 4996 0539 0A       		.uleb128 0xa
 4997 053a 61090000 		.4byte	.LASF89
 4998 053e 05       		.byte	0x5
 4999 053f B201     		.2byte	0x1b2
 5000 0541 15       		.byte	0x15
 5001 0542 9D020000 		.4byte	0x29d
 5002 0546 00       		.byte	0
 5003 0547 0A       		.uleb128 0xa
 5004 0548 48040000 		.4byte	.LASF90
 5005 054c 05       		.byte	0x5
 5006 054d B401     		.2byte	0x1b4
 5007 054f 0B       		.byte	0xb
 5008 0550 52000000 		.4byte	0x52
 5009 0554 08       		.byte	0x8
 5010 0555 0A       		.uleb128 0xa
 5011 0556 09060000 		.4byte	.LASF91
 5012 055a 05       		.byte	0x5
 5013 055b B601     		.2byte	0x1b6
 5014 055d 0B       		.byte	0xb
 5015 055e 52000000 		.4byte	0x52
 5016 0562 0C       		.byte	0xc
ARM GAS  /tmp/ccqyZH0w.s 			page 89


 5017 0563 0A       		.uleb128 0xa
 5018 0564 FA110000 		.4byte	.LASF92
 5019 0568 05       		.byte	0x5
 5020 0569 B801     		.2byte	0x1b8
 5021 056b 1D       		.byte	0x1d
 5022 056c 5C020000 		.4byte	0x25c
 5023 0570 10       		.byte	0x10
 5024 0571 0A       		.uleb128 0xa
 5025 0572 280A0000 		.4byte	.LASF93
 5026 0576 05       		.byte	0x5
 5027 0577 BA01     		.2byte	0x1ba
 5028 0579 23       		.byte	0x23
 5029 057a 41030000 		.4byte	0x341
 5030 057e 50       		.byte	0x50
 5031 057f 0A       		.uleb128 0xa
 5032 0580 E3140000 		.4byte	.LASF94
 5033 0584 05       		.byte	0x5
 5034 0585 BC01     		.2byte	0x1bc
 5035 0587 25       		.byte	0x25
 5036 0588 BD030000 		.4byte	0x3bd
 5037 058c 6C       		.byte	0x6c
 5038 058d 0A       		.uleb128 0xa
 5039 058e 2A120000 		.4byte	.LASF95
 5040 0592 05       		.byte	0x5
 5041 0593 BE01     		.2byte	0x1be
 5042 0595 25       		.byte	0x25
 5043 0596 21050000 		.4byte	0x521
 5044 059a D4       		.byte	0xd4
 5045 059b 0E       		.uleb128 0xe
 5046 059c CC070000 		.4byte	.LASF96
 5047 05a0 05       		.byte	0x5
 5048 05a1 C001     		.2byte	0x1c0
 5049 05a3 15       		.byte	0x15
 5050 05a4 F1030000 		.4byte	0x3f1
 5051 05a8 2401     		.2byte	0x124
 5052 05aa 0E       		.uleb128 0xe
 5053 05ab FA0E0000 		.4byte	.LASF97
 5054 05af 05       		.byte	0x5
 5055 05b0 C201     		.2byte	0x1c2
 5056 05b2 0A       		.byte	0xa
 5057 05b3 6C000000 		.4byte	0x6c
 5058 05b7 3001     		.2byte	0x130
 5059 05b9 0E       		.uleb128 0xe
 5060 05ba 0B150000 		.4byte	.LASF98
 5061 05be 05       		.byte	0x5
 5062 05bf C401     		.2byte	0x1c4
 5063 05c1 0A       		.byte	0xa
 5064 05c2 6C000000 		.4byte	0x6c
 5065 05c6 3101     		.2byte	0x131
 5066 05c8 0E       		.uleb128 0xe
 5067 05c9 BE170000 		.4byte	.LASF99
 5068 05cd 05       		.byte	0x5
 5069 05ce C601     		.2byte	0x1c6
 5070 05d0 10       		.byte	0x10
 5071 05d1 69020000 		.4byte	0x269
 5072 05d5 3201     		.2byte	0x132
 5073 05d7 0E       		.uleb128 0xe
ARM GAS  /tmp/ccqyZH0w.s 			page 90


 5074 05d8 A6030000 		.4byte	.LASF100
 5075 05dc 05       		.byte	0x5
 5076 05dd C801     		.2byte	0x1c8
 5077 05df 15       		.byte	0x15
 5078 05e0 87010000 		.4byte	0x187
 5079 05e4 3301     		.2byte	0x133
 5080 05e6 0E       		.uleb128 0xe
 5081 05e7 5C150000 		.4byte	.LASF76
 5082 05eb 05       		.byte	0x5
 5083 05ec CA01     		.2byte	0x1ca
 5084 05ee 0B       		.byte	0xb
 5085 05ef 84000000 		.4byte	0x84
 5086 05f3 3401     		.2byte	0x134
 5087 05f5 0E       		.uleb128 0xe
 5088 05f6 18090000 		.4byte	.LASF77
 5089 05fa 05       		.byte	0x5
 5090 05fb CC01     		.2byte	0x1cc
 5091 05fd 0B       		.byte	0xb
 5092 05fe 84000000 		.4byte	0x84
 5093 0602 3601     		.2byte	0x136
 5094 0604 0E       		.uleb128 0xe
 5095 0605 8B120000 		.4byte	.LASF78
 5096 0609 05       		.byte	0x5
 5097 060a CF01     		.2byte	0x1cf
 5098 060c 0B       		.byte	0xb
 5099 060d 84000000 		.4byte	0x84
 5100 0611 3801     		.2byte	0x138
 5101 0613 0E       		.uleb128 0xe
 5102 0614 4A090000 		.4byte	.LASF101
 5103 0618 05       		.byte	0x5
 5104 0619 D201     		.2byte	0x1d2
 5105 061b 0A       		.byte	0xa
 5106 061c 6C000000 		.4byte	0x6c
 5107 0620 3A01     		.2byte	0x13a
 5108 0622 0E       		.uleb128 0xe
 5109 0623 9C050000 		.4byte	.LASF102
 5110 0627 05       		.byte	0x5
 5111 0628 D401     		.2byte	0x1d4
 5112 062a 0B       		.byte	0xb
 5113 062b 84000000 		.4byte	0x84
 5114 062f 3C01     		.2byte	0x13c
 5115 0631 0E       		.uleb128 0xe
 5116 0632 4E150000 		.4byte	.LASF103
 5117 0636 05       		.byte	0x5
 5118 0637 D601     		.2byte	0x1d6
 5119 0639 11       		.byte	0x11
 5120 063a BF000000 		.4byte	0xbf
 5121 063e 4001     		.2byte	0x140
 5122 0640 0E       		.uleb128 0xe
 5123 0641 D70F0000 		.4byte	.LASF104
 5124 0645 05       		.byte	0x5
 5125 0646 D901     		.2byte	0x1d9
 5126 0648 11       		.byte	0x11
 5127 0649 BF000000 		.4byte	0xbf
 5128 064d 4401     		.2byte	0x144
 5129 064f 0E       		.uleb128 0xe
 5130 0650 63100000 		.4byte	.LASF105
ARM GAS  /tmp/ccqyZH0w.s 			page 91


 5131 0654 05       		.byte	0x5
 5132 0655 DB01     		.2byte	0x1db
 5133 0657 11       		.byte	0x11
 5134 0658 BF000000 		.4byte	0xbf
 5135 065c 4801     		.2byte	0x148
 5136 065e 0E       		.uleb128 0xe
 5137 065f 51120000 		.4byte	.LASF106
 5138 0663 05       		.byte	0x5
 5139 0664 DD01     		.2byte	0x1dd
 5140 0666 0B       		.byte	0xb
 5141 0667 AA060000 		.4byte	0x6aa
 5142 066b 4C01     		.2byte	0x14c
 5143 066d 0E       		.uleb128 0xe
 5144 066e 03070000 		.4byte	.LASF107
 5145 0672 05       		.byte	0x5
 5146 0673 DF01     		.2byte	0x1df
 5147 0675 0A       		.byte	0xa
 5148 0676 6C000000 		.4byte	0x6c
 5149 067a 5001     		.2byte	0x150
 5150 067c 0E       		.uleb128 0xe
 5151 067d 53070000 		.4byte	.LASF108
 5152 0681 05       		.byte	0x5
 5153 0682 E101     		.2byte	0x1e1
 5154 0684 0B       		.byte	0xb
 5155 0685 84000000 		.4byte	0x84
 5156 0689 5201     		.2byte	0x152
 5157 068b 0E       		.uleb128 0xe
 5158 068c F0080000 		.4byte	.LASF109
 5159 0690 05       		.byte	0x5
 5160 0691 E301     		.2byte	0x1e3
 5161 0693 0B       		.byte	0xb
 5162 0694 84000000 		.4byte	0x84
 5163 0698 5401     		.2byte	0x154
 5164 069a 0E       		.uleb128 0xe
 5165 069b 1A130000 		.4byte	.LASF110
 5166 069f 05       		.byte	0x5
 5167 06a0 E501     		.2byte	0x1e5
 5168 06a2 11       		.byte	0x11
 5169 06a3 BF000000 		.4byte	0xbf
 5170 06a7 5801     		.2byte	0x158
 5171 06a9 00       		.byte	0
 5172 06aa 0F       		.uleb128 0xf
 5173 06ab 04       		.byte	0x4
 5174 06ac 6C000000 		.4byte	0x6c
 5175 06b0 0B       		.uleb128 0xb
 5176 06b1 7A130000 		.4byte	.LASF111
 5177 06b5 05       		.byte	0x5
 5178 06b6 E801     		.2byte	0x1e8
 5179 06b8 03       		.byte	0x3
 5180 06b9 2E050000 		.4byte	0x52e
 5181 06bd 0B       		.uleb128 0xb
 5182 06be BB140000 		.4byte	.LASF112
 5183 06c2 05       		.byte	0x5
 5184 06c3 FE01     		.2byte	0x1fe
 5185 06c5 11       		.byte	0x11
 5186 06c6 6C000000 		.4byte	0x6c
 5187 06ca 10       		.uleb128 0x10
ARM GAS  /tmp/ccqyZH0w.s 			page 92


 5188 06cb 04       		.byte	0x4
 5189 06cc 0B       		.uleb128 0xb
 5190 06cd 4A120000 		.4byte	.LASF113
 5191 06d1 06       		.byte	0x6
 5192 06d2 5E01     		.2byte	0x15e
 5193 06d4 17       		.byte	0x17
 5194 06d5 25000000 		.4byte	0x25
 5195 06d9 03       		.uleb128 0x3
 5196 06da 4F020000 		.4byte	.LASF114
 5197 06de 07       		.byte	0x7
 5198 06df 2E       		.byte	0x2e
 5199 06e0 0E       		.byte	0xe
 5200 06e1 5E000000 		.4byte	0x5e
 5201 06e5 03       		.uleb128 0x3
 5202 06e6 09040000 		.4byte	.LASF115
 5203 06ea 07       		.byte	0x7
 5204 06eb 74       		.byte	0x74
 5205 06ec 0E       		.byte	0xe
 5206 06ed 5E000000 		.4byte	0x5e
 5207 06f1 11       		.uleb128 0x11
 5208 06f2 04       		.byte	0x4
 5209 06f3 07       		.byte	0x7
 5210 06f4 A5       		.byte	0xa5
 5211 06f5 03       		.byte	0x3
 5212 06f6 13070000 		.4byte	0x713
 5213 06fa 12       		.uleb128 0x12
 5214 06fb A60A0000 		.4byte	.LASF116
 5215 06ff 07       		.byte	0x7
 5216 0700 A7       		.byte	0xa7
 5217 0701 0C       		.byte	0xc
 5218 0702 CC060000 		.4byte	0x6cc
 5219 0706 12       		.uleb128 0x12
 5220 0707 75100000 		.4byte	.LASF117
 5221 070b 07       		.byte	0x7
 5222 070c A8       		.byte	0xa8
 5223 070d 13       		.byte	0x13
 5224 070e 13070000 		.4byte	0x713
 5225 0712 00       		.byte	0
 5226 0713 08       		.uleb128 0x8
 5227 0714 7D000000 		.4byte	0x7d
 5228 0718 23070000 		.4byte	0x723
 5229 071c 09       		.uleb128 0x9
 5230 071d 25000000 		.4byte	0x25
 5231 0721 03       		.byte	0x3
 5232 0722 00       		.byte	0
 5233 0723 06       		.uleb128 0x6
 5234 0724 08       		.byte	0x8
 5235 0725 07       		.byte	0x7
 5236 0726 A2       		.byte	0xa2
 5237 0727 09       		.byte	0x9
 5238 0728 47070000 		.4byte	0x747
 5239 072c 07       		.uleb128 0x7
 5240 072d 02050000 		.4byte	.LASF118
 5241 0731 07       		.byte	0x7
 5242 0732 A4       		.byte	0xa4
 5243 0733 07       		.byte	0x7
 5244 0734 B1000000 		.4byte	0xb1
ARM GAS  /tmp/ccqyZH0w.s 			page 93


 5245 0738 00       		.byte	0
 5246 0739 07       		.uleb128 0x7
 5247 073a 10090000 		.4byte	.LASF119
 5248 073e 07       		.byte	0x7
 5249 073f A9       		.byte	0xa9
 5250 0740 05       		.byte	0x5
 5251 0741 F1060000 		.4byte	0x6f1
 5252 0745 04       		.byte	0x4
 5253 0746 00       		.byte	0
 5254 0747 03       		.uleb128 0x3
 5255 0748 B00C0000 		.4byte	.LASF120
 5256 074c 07       		.byte	0x7
 5257 074d AA       		.byte	0xaa
 5258 074e 03       		.byte	0x3
 5259 074f 23070000 		.4byte	0x723
 5260 0753 03       		.uleb128 0x3
 5261 0754 350C0000 		.4byte	.LASF121
 5262 0758 08       		.byte	0x8
 5263 0759 16       		.byte	0x16
 5264 075a 19       		.byte	0x19
 5265 075b A3000000 		.4byte	0xa3
 5266 075f 03       		.uleb128 0x3
 5267 0760 53030000 		.4byte	.LASF122
 5268 0764 09       		.byte	0x9
 5269 0765 0C       		.byte	0xc
 5270 0766 0D       		.byte	0xd
 5271 0767 B1000000 		.4byte	0xb1
 5272 076b 03       		.uleb128 0x3
 5273 076c 700A0000 		.4byte	.LASF123
 5274 0770 08       		.byte	0x8
 5275 0771 23       		.byte	0x23
 5276 0772 1B       		.byte	0x1b
 5277 0773 5F070000 		.4byte	0x75f
 5278 0777 13       		.uleb128 0x13
 5279 0778 79040000 		.4byte	.LASF128
 5280 077c 18       		.byte	0x18
 5281 077d 08       		.byte	0x8
 5282 077e 34       		.byte	0x34
 5283 077f 08       		.byte	0x8
 5284 0780 D1070000 		.4byte	0x7d1
 5285 0784 07       		.uleb128 0x7
 5286 0785 90080000 		.4byte	.LASF124
 5287 0789 08       		.byte	0x8
 5288 078a 36       		.byte	0x36
 5289 078b 13       		.byte	0x13
 5290 078c D1070000 		.4byte	0x7d1
 5291 0790 00       		.byte	0
 5292 0791 14       		.uleb128 0x14
 5293 0792 5F6B00   		.ascii	"_k\000"
 5294 0795 08       		.byte	0x8
 5295 0796 37       		.byte	0x37
 5296 0797 07       		.byte	0x7
 5297 0798 B1000000 		.4byte	0xb1
 5298 079c 04       		.byte	0x4
 5299 079d 07       		.uleb128 0x7
 5300 079e 81000000 		.4byte	.LASF125
 5301 07a2 08       		.byte	0x8
ARM GAS  /tmp/ccqyZH0w.s 			page 94


 5302 07a3 37       		.byte	0x37
 5303 07a4 0B       		.byte	0xb
 5304 07a5 B1000000 		.4byte	0xb1
 5305 07a9 08       		.byte	0x8
 5306 07aa 07       		.uleb128 0x7
 5307 07ab 07100000 		.4byte	.LASF126
 5308 07af 08       		.byte	0x8
 5309 07b0 37       		.byte	0x37
 5310 07b1 14       		.byte	0x14
 5311 07b2 B1000000 		.4byte	0xb1
 5312 07b6 0C       		.byte	0xc
 5313 07b7 07       		.uleb128 0x7
 5314 07b8 74060000 		.4byte	.LASF127
 5315 07bc 08       		.byte	0x8
 5316 07bd 37       		.byte	0x37
 5317 07be 1B       		.byte	0x1b
 5318 07bf B1000000 		.4byte	0xb1
 5319 07c3 10       		.byte	0x10
 5320 07c4 14       		.uleb128 0x14
 5321 07c5 5F7800   		.ascii	"_x\000"
 5322 07c8 08       		.byte	0x8
 5323 07c9 38       		.byte	0x38
 5324 07ca 0B       		.byte	0xb
 5325 07cb D7070000 		.4byte	0x7d7
 5326 07cf 14       		.byte	0x14
 5327 07d0 00       		.byte	0
 5328 07d1 0F       		.uleb128 0xf
 5329 07d2 04       		.byte	0x4
 5330 07d3 77070000 		.4byte	0x777
 5331 07d7 08       		.uleb128 0x8
 5332 07d8 53070000 		.4byte	0x753
 5333 07dc E7070000 		.4byte	0x7e7
 5334 07e0 09       		.uleb128 0x9
 5335 07e1 25000000 		.4byte	0x25
 5336 07e5 00       		.byte	0
 5337 07e6 00       		.byte	0
 5338 07e7 13       		.uleb128 0x13
 5339 07e8 CE110000 		.4byte	.LASF129
 5340 07ec 24       		.byte	0x24
 5341 07ed 08       		.byte	0x8
 5342 07ee 3C       		.byte	0x3c
 5343 07ef 08       		.byte	0x8
 5344 07f0 6A080000 		.4byte	0x86a
 5345 07f4 07       		.uleb128 0x7
 5346 07f5 7F010000 		.4byte	.LASF130
 5347 07f9 08       		.byte	0x8
 5348 07fa 3E       		.byte	0x3e
 5349 07fb 09       		.byte	0x9
 5350 07fc B1000000 		.4byte	0xb1
 5351 0800 00       		.byte	0
 5352 0801 07       		.uleb128 0x7
 5353 0802 41050000 		.4byte	.LASF131
 5354 0806 08       		.byte	0x8
 5355 0807 3F       		.byte	0x3f
 5356 0808 09       		.byte	0x9
 5357 0809 B1000000 		.4byte	0xb1
 5358 080d 04       		.byte	0x4
ARM GAS  /tmp/ccqyZH0w.s 			page 95


 5359 080e 07       		.uleb128 0x7
 5360 080f D5040000 		.4byte	.LASF132
 5361 0813 08       		.byte	0x8
 5362 0814 40       		.byte	0x40
 5363 0815 09       		.byte	0x9
 5364 0816 B1000000 		.4byte	0xb1
 5365 081a 08       		.byte	0x8
 5366 081b 07       		.uleb128 0x7
 5367 081c B4090000 		.4byte	.LASF133
 5368 0820 08       		.byte	0x8
 5369 0821 41       		.byte	0x41
 5370 0822 09       		.byte	0x9
 5371 0823 B1000000 		.4byte	0xb1
 5372 0827 0C       		.byte	0xc
 5373 0828 07       		.uleb128 0x7
 5374 0829 350E0000 		.4byte	.LASF134
 5375 082d 08       		.byte	0x8
 5376 082e 42       		.byte	0x42
 5377 082f 09       		.byte	0x9
 5378 0830 B1000000 		.4byte	0xb1
 5379 0834 10       		.byte	0x10
 5380 0835 07       		.uleb128 0x7
 5381 0836 AA100000 		.4byte	.LASF135
 5382 083a 08       		.byte	0x8
 5383 083b 43       		.byte	0x43
 5384 083c 09       		.byte	0x9
 5385 083d B1000000 		.4byte	0xb1
 5386 0841 14       		.byte	0x14
 5387 0842 07       		.uleb128 0x7
 5388 0843 81040000 		.4byte	.LASF136
 5389 0847 08       		.byte	0x8
 5390 0848 44       		.byte	0x44
 5391 0849 09       		.byte	0x9
 5392 084a B1000000 		.4byte	0xb1
 5393 084e 18       		.byte	0x18
 5394 084f 07       		.uleb128 0x7
 5395 0850 1C080000 		.4byte	.LASF137
 5396 0854 08       		.byte	0x8
 5397 0855 45       		.byte	0x45
 5398 0856 09       		.byte	0x9
 5399 0857 B1000000 		.4byte	0xb1
 5400 085b 1C       		.byte	0x1c
 5401 085c 07       		.uleb128 0x7
 5402 085d 010D0000 		.4byte	.LASF138
 5403 0861 08       		.byte	0x8
 5404 0862 46       		.byte	0x46
 5405 0863 09       		.byte	0x9
 5406 0864 B1000000 		.4byte	0xb1
 5407 0868 20       		.byte	0x20
 5408 0869 00       		.byte	0
 5409 086a 15       		.uleb128 0x15
 5410 086b C2000000 		.4byte	.LASF139
 5411 086f 0801     		.2byte	0x108
 5412 0871 08       		.byte	0x8
 5413 0872 4F       		.byte	0x4f
 5414 0873 08       		.byte	0x8
 5415 0874 AF080000 		.4byte	0x8af
ARM GAS  /tmp/ccqyZH0w.s 			page 96


 5416 0878 07       		.uleb128 0x7
 5417 0879 CF140000 		.4byte	.LASF140
 5418 087d 08       		.byte	0x8
 5419 087e 50       		.byte	0x50
 5420 087f 0A       		.byte	0xa
 5421 0880 AF080000 		.4byte	0x8af
 5422 0884 00       		.byte	0
 5423 0885 07       		.uleb128 0x7
 5424 0886 70120000 		.4byte	.LASF141
 5425 088a 08       		.byte	0x8
 5426 088b 51       		.byte	0x51
 5427 088c 09       		.byte	0x9
 5428 088d AF080000 		.4byte	0x8af
 5429 0891 80       		.byte	0x80
 5430 0892 16       		.uleb128 0x16
 5431 0893 8C130000 		.4byte	.LASF142
 5432 0897 08       		.byte	0x8
 5433 0898 53       		.byte	0x53
 5434 0899 0A       		.byte	0xa
 5435 089a 53070000 		.4byte	0x753
 5436 089e 0001     		.2byte	0x100
 5437 08a0 16       		.uleb128 0x16
 5438 08a1 8E170000 		.4byte	.LASF143
 5439 08a5 08       		.byte	0x8
 5440 08a6 56       		.byte	0x56
 5441 08a7 0A       		.byte	0xa
 5442 08a8 53070000 		.4byte	0x753
 5443 08ac 0401     		.2byte	0x104
 5444 08ae 00       		.byte	0
 5445 08af 08       		.uleb128 0x8
 5446 08b0 CA060000 		.4byte	0x6ca
 5447 08b4 BF080000 		.4byte	0x8bf
 5448 08b8 09       		.uleb128 0x9
 5449 08b9 25000000 		.4byte	0x25
 5450 08bd 1F       		.byte	0x1f
 5451 08be 00       		.byte	0
 5452 08bf 15       		.uleb128 0x15
 5453 08c0 090F0000 		.4byte	.LASF144
 5454 08c4 9001     		.2byte	0x190
 5455 08c6 08       		.byte	0x8
 5456 08c7 62       		.byte	0x62
 5457 08c8 08       		.byte	0x8
 5458 08c9 02090000 		.4byte	0x902
 5459 08cd 07       		.uleb128 0x7
 5460 08ce 90080000 		.4byte	.LASF124
 5461 08d2 08       		.byte	0x8
 5462 08d3 63       		.byte	0x63
 5463 08d4 12       		.byte	0x12
 5464 08d5 02090000 		.4byte	0x902
 5465 08d9 00       		.byte	0
 5466 08da 07       		.uleb128 0x7
 5467 08db 2B080000 		.4byte	.LASF145
 5468 08df 08       		.byte	0x8
 5469 08e0 64       		.byte	0x64
 5470 08e1 06       		.byte	0x6
 5471 08e2 B1000000 		.4byte	0xb1
 5472 08e6 04       		.byte	0x4
ARM GAS  /tmp/ccqyZH0w.s 			page 97


 5473 08e7 07       		.uleb128 0x7
 5474 08e8 1D040000 		.4byte	.LASF146
 5475 08ec 08       		.byte	0x8
 5476 08ed 66       		.byte	0x66
 5477 08ee 09       		.byte	0x9
 5478 08ef 08090000 		.4byte	0x908
 5479 08f3 08       		.byte	0x8
 5480 08f4 07       		.uleb128 0x7
 5481 08f5 C2000000 		.4byte	.LASF139
 5482 08f9 08       		.byte	0x8
 5483 08fa 67       		.byte	0x67
 5484 08fb 1E       		.byte	0x1e
 5485 08fc 6A080000 		.4byte	0x86a
 5486 0900 88       		.byte	0x88
 5487 0901 00       		.byte	0
 5488 0902 0F       		.uleb128 0xf
 5489 0903 04       		.byte	0x4
 5490 0904 BF080000 		.4byte	0x8bf
 5491 0908 08       		.uleb128 0x8
 5492 0909 18090000 		.4byte	0x918
 5493 090d 18090000 		.4byte	0x918
 5494 0911 09       		.uleb128 0x9
 5495 0912 25000000 		.4byte	0x25
 5496 0916 1F       		.byte	0x1f
 5497 0917 00       		.byte	0
 5498 0918 0F       		.uleb128 0xf
 5499 0919 04       		.byte	0x4
 5500 091a 1E090000 		.4byte	0x91e
 5501 091e 17       		.uleb128 0x17
 5502 091f 13       		.uleb128 0x13
 5503 0920 E0130000 		.4byte	.LASF147
 5504 0924 08       		.byte	0x8
 5505 0925 08       		.byte	0x8
 5506 0926 7A       		.byte	0x7a
 5507 0927 08       		.byte	0x8
 5508 0928 47090000 		.4byte	0x947
 5509 092c 07       		.uleb128 0x7
 5510 092d EB0B0000 		.4byte	.LASF148
 5511 0931 08       		.byte	0x8
 5512 0932 7B       		.byte	0x7b
 5513 0933 11       		.byte	0x11
 5514 0934 47090000 		.4byte	0x947
 5515 0938 00       		.byte	0
 5516 0939 07       		.uleb128 0x7
 5517 093a 6D150000 		.4byte	.LASF149
 5518 093e 08       		.byte	0x8
 5519 093f 7C       		.byte	0x7c
 5520 0940 06       		.byte	0x6
 5521 0941 B1000000 		.4byte	0xb1
 5522 0945 04       		.byte	0x4
 5523 0946 00       		.byte	0
 5524 0947 0F       		.uleb128 0xf
 5525 0948 04       		.byte	0x4
 5526 0949 7D000000 		.4byte	0x7d
 5527 094d 13       		.uleb128 0x13
 5528 094e 6C060000 		.4byte	.LASF150
 5529 0952 68       		.byte	0x68
ARM GAS  /tmp/ccqyZH0w.s 			page 98


 5530 0953 08       		.byte	0x8
 5531 0954 BA       		.byte	0xba
 5532 0955 08       		.byte	0x8
 5533 0956 900A0000 		.4byte	0xa90
 5534 095a 14       		.uleb128 0x14
 5535 095b 5F7000   		.ascii	"_p\000"
 5536 095e 08       		.byte	0x8
 5537 095f BB       		.byte	0xbb
 5538 0960 12       		.byte	0x12
 5539 0961 47090000 		.4byte	0x947
 5540 0965 00       		.byte	0
 5541 0966 14       		.uleb128 0x14
 5542 0967 5F7200   		.ascii	"_r\000"
 5543 096a 08       		.byte	0x8
 5544 096b BC       		.byte	0xbc
 5545 096c 07       		.byte	0x7
 5546 096d B1000000 		.4byte	0xb1
 5547 0971 04       		.byte	0x4
 5548 0972 14       		.uleb128 0x14
 5549 0973 5F7700   		.ascii	"_w\000"
 5550 0976 08       		.byte	0x8
 5551 0977 BD       		.byte	0xbd
 5552 0978 07       		.byte	0x7
 5553 0979 B1000000 		.4byte	0xb1
 5554 097d 08       		.byte	0x8
 5555 097e 07       		.uleb128 0x7
 5556 097f 19020000 		.4byte	.LASF151
 5557 0983 08       		.byte	0x8
 5558 0984 BE       		.byte	0xbe
 5559 0985 09       		.byte	0x9
 5560 0986 4B000000 		.4byte	0x4b
 5561 098a 0C       		.byte	0xc
 5562 098b 07       		.uleb128 0x7
 5563 098c 710C0000 		.4byte	.LASF152
 5564 0990 08       		.byte	0x8
 5565 0991 BF       		.byte	0xbf
 5566 0992 09       		.byte	0x9
 5567 0993 4B000000 		.4byte	0x4b
 5568 0997 0E       		.byte	0xe
 5569 0998 14       		.uleb128 0x14
 5570 0999 5F626600 		.ascii	"_bf\000"
 5571 099d 08       		.byte	0x8
 5572 099e C0       		.byte	0xc0
 5573 099f 11       		.byte	0x11
 5574 09a0 1F090000 		.4byte	0x91f
 5575 09a4 10       		.byte	0x10
 5576 09a5 07       		.uleb128 0x7
 5577 09a6 5E130000 		.4byte	.LASF153
 5578 09aa 08       		.byte	0x8
 5579 09ab C1       		.byte	0xc1
 5580 09ac 07       		.byte	0x7
 5581 09ad B1000000 		.4byte	0xb1
 5582 09b1 18       		.byte	0x18
 5583 09b2 07       		.uleb128 0x7
 5584 09b3 2B040000 		.4byte	.LASF154
 5585 09b7 08       		.byte	0x8
 5586 09b8 C8       		.byte	0xc8
ARM GAS  /tmp/ccqyZH0w.s 			page 99


 5587 09b9 0A       		.byte	0xa
 5588 09ba CA060000 		.4byte	0x6ca
 5589 09be 1C       		.byte	0x1c
 5590 09bf 07       		.uleb128 0x7
 5591 09c0 65030000 		.4byte	.LASF155
 5592 09c4 08       		.byte	0x8
 5593 09c5 CA       		.byte	0xca
 5594 09c6 1D       		.byte	0x1d
 5595 09c7 080C0000 		.4byte	0xc08
 5596 09cb 20       		.byte	0x20
 5597 09cc 07       		.uleb128 0x7
 5598 09cd AB0E0000 		.4byte	.LASF156
 5599 09d1 08       		.byte	0x8
 5600 09d2 CC       		.byte	0xcc
 5601 09d3 1D       		.byte	0x1d
 5602 09d4 320C0000 		.4byte	0xc32
 5603 09d8 24       		.byte	0x24
 5604 09d9 07       		.uleb128 0x7
 5605 09da 0A180000 		.4byte	.LASF157
 5606 09de 08       		.byte	0x8
 5607 09df CF       		.byte	0xcf
 5608 09e0 0D       		.byte	0xd
 5609 09e1 560C0000 		.4byte	0xc56
 5610 09e5 28       		.byte	0x28
 5611 09e6 07       		.uleb128 0x7
 5612 09e7 EC0A0000 		.4byte	.LASF158
 5613 09eb 08       		.byte	0x8
 5614 09ec D0       		.byte	0xd0
 5615 09ed 09       		.byte	0x9
 5616 09ee 700C0000 		.4byte	0xc70
 5617 09f2 2C       		.byte	0x2c
 5618 09f3 14       		.uleb128 0x14
 5619 09f4 5F756200 		.ascii	"_ub\000"
 5620 09f8 08       		.byte	0x8
 5621 09f9 D3       		.byte	0xd3
 5622 09fa 11       		.byte	0x11
 5623 09fb 1F090000 		.4byte	0x91f
 5624 09ff 30       		.byte	0x30
 5625 0a00 14       		.uleb128 0x14
 5626 0a01 5F757000 		.ascii	"_up\000"
 5627 0a05 08       		.byte	0x8
 5628 0a06 D4       		.byte	0xd4
 5629 0a07 12       		.byte	0x12
 5630 0a08 47090000 		.4byte	0x947
 5631 0a0c 38       		.byte	0x38
 5632 0a0d 14       		.uleb128 0x14
 5633 0a0e 5F757200 		.ascii	"_ur\000"
 5634 0a12 08       		.byte	0x8
 5635 0a13 D5       		.byte	0xd5
 5636 0a14 07       		.byte	0x7
 5637 0a15 B1000000 		.4byte	0xb1
 5638 0a19 3C       		.byte	0x3c
 5639 0a1a 07       		.uleb128 0x7
 5640 0a1b 2F180000 		.4byte	.LASF159
 5641 0a1f 08       		.byte	0x8
 5642 0a20 D8       		.byte	0xd8
 5643 0a21 11       		.byte	0x11
ARM GAS  /tmp/ccqyZH0w.s 			page 100


 5644 0a22 760C0000 		.4byte	0xc76
 5645 0a26 40       		.byte	0x40
 5646 0a27 07       		.uleb128 0x7
 5647 0a28 08170000 		.4byte	.LASF160
 5648 0a2c 08       		.byte	0x8
 5649 0a2d D9       		.byte	0xd9
 5650 0a2e 11       		.byte	0x11
 5651 0a2f 860C0000 		.4byte	0xc86
 5652 0a33 43       		.byte	0x43
 5653 0a34 14       		.uleb128 0x14
 5654 0a35 5F6C6200 		.ascii	"_lb\000"
 5655 0a39 08       		.byte	0x8
 5656 0a3a DC       		.byte	0xdc
 5657 0a3b 11       		.byte	0x11
 5658 0a3c 1F090000 		.4byte	0x91f
 5659 0a40 44       		.byte	0x44
 5660 0a41 07       		.uleb128 0x7
 5661 0a42 C5110000 		.4byte	.LASF161
 5662 0a46 08       		.byte	0x8
 5663 0a47 DF       		.byte	0xdf
 5664 0a48 07       		.byte	0x7
 5665 0a49 B1000000 		.4byte	0xb1
 5666 0a4d 4C       		.byte	0x4c
 5667 0a4e 07       		.uleb128 0x7
 5668 0a4f D0060000 		.4byte	.LASF162
 5669 0a53 08       		.byte	0x8
 5670 0a54 E0       		.byte	0xe0
 5671 0a55 0A       		.byte	0xa
 5672 0a56 D9060000 		.4byte	0x6d9
 5673 0a5a 50       		.byte	0x50
 5674 0a5b 07       		.uleb128 0x7
 5675 0a5c 5D100000 		.4byte	.LASF163
 5676 0a60 08       		.byte	0x8
 5677 0a61 E3       		.byte	0xe3
 5678 0a62 12       		.byte	0x12
 5679 0a63 AE0A0000 		.4byte	0xaae
 5680 0a67 54       		.byte	0x54
 5681 0a68 07       		.uleb128 0x7
 5682 0a69 D3110000 		.4byte	.LASF164
 5683 0a6d 08       		.byte	0x8
 5684 0a6e E7       		.byte	0xe7
 5685 0a6f 0C       		.byte	0xc
 5686 0a70 6B070000 		.4byte	0x76b
 5687 0a74 58       		.byte	0x58
 5688 0a75 07       		.uleb128 0x7
 5689 0a76 110F0000 		.4byte	.LASF165
 5690 0a7a 08       		.byte	0x8
 5691 0a7b E9       		.byte	0xe9
 5692 0a7c 0E       		.byte	0xe
 5693 0a7d 47070000 		.4byte	0x747
 5694 0a81 5C       		.byte	0x5c
 5695 0a82 07       		.uleb128 0x7
 5696 0a83 86170000 		.4byte	.LASF166
 5697 0a87 08       		.byte	0x8
 5698 0a88 EA       		.byte	0xea
 5699 0a89 09       		.byte	0x9
 5700 0a8a B1000000 		.4byte	0xb1
ARM GAS  /tmp/ccqyZH0w.s 			page 101


 5701 0a8e 64       		.byte	0x64
 5702 0a8f 00       		.byte	0
 5703 0a90 18       		.uleb128 0x18
 5704 0a91 B1000000 		.4byte	0xb1
 5705 0a95 AE0A0000 		.4byte	0xaae
 5706 0a99 19       		.uleb128 0x19
 5707 0a9a AE0A0000 		.4byte	0xaae
 5708 0a9e 19       		.uleb128 0x19
 5709 0a9f CA060000 		.4byte	0x6ca
 5710 0aa3 19       		.uleb128 0x19
 5711 0aa4 020C0000 		.4byte	0xc02
 5712 0aa8 19       		.uleb128 0x19
 5713 0aa9 B1000000 		.4byte	0xb1
 5714 0aad 00       		.byte	0
 5715 0aae 0F       		.uleb128 0xf
 5716 0aaf 04       		.byte	0x4
 5717 0ab0 B90A0000 		.4byte	0xab9
 5718 0ab4 04       		.uleb128 0x4
 5719 0ab5 AE0A0000 		.4byte	0xaae
 5720 0ab9 1A       		.uleb128 0x1a
 5721 0aba 1A0F0000 		.4byte	.LASF167
 5722 0abe 2804     		.2byte	0x428
 5723 0ac0 08       		.byte	0x8
 5724 0ac1 6502     		.2byte	0x265
 5725 0ac3 08       		.byte	0x8
 5726 0ac4 020C0000 		.4byte	0xc02
 5727 0ac8 0A       		.uleb128 0xa
 5728 0ac9 48020000 		.4byte	.LASF168
 5729 0acd 08       		.byte	0x8
 5730 0ace 6702     		.2byte	0x267
 5731 0ad0 07       		.byte	0x7
 5732 0ad1 B1000000 		.4byte	0xb1
 5733 0ad5 00       		.byte	0
 5734 0ad6 0A       		.uleb128 0xa
 5735 0ad7 6C0B0000 		.4byte	.LASF169
 5736 0adb 08       		.byte	0x8
 5737 0adc 6C02     		.2byte	0x26c
 5738 0ade 0B       		.byte	0xb
 5739 0adf E20C0000 		.4byte	0xce2
 5740 0ae3 04       		.byte	0x4
 5741 0ae4 0A       		.uleb128 0xa
 5742 0ae5 BB120000 		.4byte	.LASF170
 5743 0ae9 08       		.byte	0x8
 5744 0aea 6C02     		.2byte	0x26c
 5745 0aec 14       		.byte	0x14
 5746 0aed E20C0000 		.4byte	0xce2
 5747 0af1 08       		.byte	0x8
 5748 0af2 0A       		.uleb128 0xa
 5749 0af3 1E180000 		.4byte	.LASF171
 5750 0af7 08       		.byte	0x8
 5751 0af8 6C02     		.2byte	0x26c
 5752 0afa 1E       		.byte	0x1e
 5753 0afb E20C0000 		.4byte	0xce2
 5754 0aff 0C       		.byte	0xc
 5755 0b00 0A       		.uleb128 0xa
 5756 0b01 26080000 		.4byte	.LASF172
 5757 0b05 08       		.byte	0x8
ARM GAS  /tmp/ccqyZH0w.s 			page 102


 5758 0b06 6E02     		.2byte	0x26e
 5759 0b08 08       		.byte	0x8
 5760 0b09 B1000000 		.4byte	0xb1
 5761 0b0d 10       		.byte	0x10
 5762 0b0e 0A       		.uleb128 0xa
 5763 0b0f 1D070000 		.4byte	.LASF173
 5764 0b13 08       		.byte	0x8
 5765 0b14 6F02     		.2byte	0x26f
 5766 0b16 08       		.byte	0x8
 5767 0b17 E20E0000 		.4byte	0xee2
 5768 0b1b 14       		.byte	0x14
 5769 0b1c 0A       		.uleb128 0xa
 5770 0b1d 6D170000 		.4byte	.LASF174
 5771 0b21 08       		.byte	0x8
 5772 0b22 7202     		.2byte	0x272
 5773 0b24 07       		.byte	0x7
 5774 0b25 B1000000 		.4byte	0xb1
 5775 0b29 30       		.byte	0x30
 5776 0b2a 0A       		.uleb128 0xa
 5777 0b2b B3140000 		.4byte	.LASF175
 5778 0b2f 08       		.byte	0x8
 5779 0b30 7302     		.2byte	0x273
 5780 0b32 16       		.byte	0x16
 5781 0b33 F70E0000 		.4byte	0xef7
 5782 0b37 34       		.byte	0x34
 5783 0b38 0A       		.uleb128 0xa
 5784 0b39 FB0A0000 		.4byte	.LASF176
 5785 0b3d 08       		.byte	0x8
 5786 0b3e 7502     		.2byte	0x275
 5787 0b40 07       		.byte	0x7
 5788 0b41 B1000000 		.4byte	0xb1
 5789 0b45 38       		.byte	0x38
 5790 0b46 0A       		.uleb128 0xa
 5791 0b47 A60C0000 		.4byte	.LASF177
 5792 0b4b 08       		.byte	0x8
 5793 0b4c 7702     		.2byte	0x277
 5794 0b4e 0A       		.byte	0xa
 5795 0b4f 080F0000 		.4byte	0xf08
 5796 0b53 3C       		.byte	0x3c
 5797 0b54 0A       		.uleb128 0xa
 5798 0b55 8B040000 		.4byte	.LASF178
 5799 0b59 08       		.byte	0x8
 5800 0b5a 7A02     		.2byte	0x27a
 5801 0b5c 13       		.byte	0x13
 5802 0b5d D1070000 		.4byte	0x7d1
 5803 0b61 40       		.byte	0x40
 5804 0b62 0A       		.uleb128 0xa
 5805 0b63 FF050000 		.4byte	.LASF179
 5806 0b67 08       		.byte	0x8
 5807 0b68 7B02     		.2byte	0x27b
 5808 0b6a 07       		.byte	0x7
 5809 0b6b B1000000 		.4byte	0xb1
 5810 0b6f 44       		.byte	0x44
 5811 0b70 0A       		.uleb128 0xa
 5812 0b71 3F090000 		.4byte	.LASF180
 5813 0b75 08       		.byte	0x8
 5814 0b76 7C02     		.2byte	0x27c
ARM GAS  /tmp/ccqyZH0w.s 			page 103


 5815 0b78 13       		.byte	0x13
 5816 0b79 D1070000 		.4byte	0x7d1
 5817 0b7d 48       		.byte	0x48
 5818 0b7e 0A       		.uleb128 0xa
 5819 0b7f F10B0000 		.4byte	.LASF181
 5820 0b83 08       		.byte	0x8
 5821 0b84 7D02     		.2byte	0x27d
 5822 0b86 14       		.byte	0x14
 5823 0b87 0E0F0000 		.4byte	0xf0e
 5824 0b8b 4C       		.byte	0x4c
 5825 0b8c 0A       		.uleb128 0xa
 5826 0b8d 25110000 		.4byte	.LASF182
 5827 0b91 08       		.byte	0x8
 5828 0b92 8002     		.2byte	0x280
 5829 0b94 07       		.byte	0x7
 5830 0b95 B1000000 		.4byte	0xb1
 5831 0b99 50       		.byte	0x50
 5832 0b9a 0A       		.uleb128 0xa
 5833 0b9b C3120000 		.4byte	.LASF183
 5834 0b9f 08       		.byte	0x8
 5835 0ba0 8102     		.2byte	0x281
 5836 0ba2 09       		.byte	0x9
 5837 0ba3 020C0000 		.4byte	0xc02
 5838 0ba7 54       		.byte	0x54
 5839 0ba8 0A       		.uleb128 0xa
 5840 0ba9 20110000 		.4byte	.LASF184
 5841 0bad 08       		.byte	0x8
 5842 0bae A402     		.2byte	0x2a4
 5843 0bb0 07       		.byte	0x7
 5844 0bb1 BD0E0000 		.4byte	0xebd
 5845 0bb5 58       		.byte	0x58
 5846 0bb6 0E       		.uleb128 0xe
 5847 0bb7 090F0000 		.4byte	.LASF144
 5848 0bbb 08       		.byte	0x8
 5849 0bbc A802     		.2byte	0x2a8
 5850 0bbe 13       		.byte	0x13
 5851 0bbf 02090000 		.4byte	0x902
 5852 0bc3 4801     		.2byte	0x148
 5853 0bc5 0E       		.uleb128 0xe
 5854 0bc6 D7090000 		.4byte	.LASF185
 5855 0bca 08       		.byte	0x8
 5856 0bcb A902     		.2byte	0x2a9
 5857 0bcd 12       		.byte	0x12
 5858 0bce BF080000 		.4byte	0x8bf
 5859 0bd2 4C01     		.2byte	0x14c
 5860 0bd4 0E       		.uleb128 0xe
 5861 0bd5 BE090000 		.4byte	.LASF186
 5862 0bd9 08       		.byte	0x8
 5863 0bda AD02     		.2byte	0x2ad
 5864 0bdc 0C       		.byte	0xc
 5865 0bdd 1F0F0000 		.4byte	0xf1f
 5866 0be1 DC02     		.2byte	0x2dc
 5867 0be3 0E       		.uleb128 0xe
 5868 0be4 78140000 		.4byte	.LASF187
 5869 0be8 08       		.byte	0x8
 5870 0be9 B202     		.2byte	0x2b2
 5871 0beb 10       		.byte	0x10
ARM GAS  /tmp/ccqyZH0w.s 			page 104


 5872 0bec A30C0000 		.4byte	0xca3
 5873 0bf0 E002     		.2byte	0x2e0
 5874 0bf2 0E       		.uleb128 0xe
 5875 0bf3 02100000 		.4byte	.LASF188
 5876 0bf7 08       		.byte	0x8
 5877 0bf8 B402     		.2byte	0x2b4
 5878 0bfa 0A       		.byte	0xa
 5879 0bfb 2B0F0000 		.4byte	0xf2b
 5880 0bff EC02     		.2byte	0x2ec
 5881 0c01 00       		.byte	0
 5882 0c02 0F       		.uleb128 0xf
 5883 0c03 04       		.byte	0x4
 5884 0c04 4B010000 		.4byte	0x14b
 5885 0c08 0F       		.uleb128 0xf
 5886 0c09 04       		.byte	0x4
 5887 0c0a 900A0000 		.4byte	0xa90
 5888 0c0e 18       		.uleb128 0x18
 5889 0c0f B1000000 		.4byte	0xb1
 5890 0c13 2C0C0000 		.4byte	0xc2c
 5891 0c17 19       		.uleb128 0x19
 5892 0c18 AE0A0000 		.4byte	0xaae
 5893 0c1c 19       		.uleb128 0x19
 5894 0c1d CA060000 		.4byte	0x6ca
 5895 0c21 19       		.uleb128 0x19
 5896 0c22 2C0C0000 		.4byte	0xc2c
 5897 0c26 19       		.uleb128 0x19
 5898 0c27 B1000000 		.4byte	0xb1
 5899 0c2b 00       		.byte	0
 5900 0c2c 0F       		.uleb128 0xf
 5901 0c2d 04       		.byte	0x4
 5902 0c2e 52010000 		.4byte	0x152
 5903 0c32 0F       		.uleb128 0xf
 5904 0c33 04       		.byte	0x4
 5905 0c34 0E0C0000 		.4byte	0xc0e
 5906 0c38 18       		.uleb128 0x18
 5907 0c39 E5060000 		.4byte	0x6e5
 5908 0c3d 560C0000 		.4byte	0xc56
 5909 0c41 19       		.uleb128 0x19
 5910 0c42 AE0A0000 		.4byte	0xaae
 5911 0c46 19       		.uleb128 0x19
 5912 0c47 CA060000 		.4byte	0x6ca
 5913 0c4b 19       		.uleb128 0x19
 5914 0c4c E5060000 		.4byte	0x6e5
 5915 0c50 19       		.uleb128 0x19
 5916 0c51 B1000000 		.4byte	0xb1
 5917 0c55 00       		.byte	0
 5918 0c56 0F       		.uleb128 0xf
 5919 0c57 04       		.byte	0x4
 5920 0c58 380C0000 		.4byte	0xc38
 5921 0c5c 18       		.uleb128 0x18
 5922 0c5d B1000000 		.4byte	0xb1
 5923 0c61 700C0000 		.4byte	0xc70
 5924 0c65 19       		.uleb128 0x19
 5925 0c66 AE0A0000 		.4byte	0xaae
 5926 0c6a 19       		.uleb128 0x19
 5927 0c6b CA060000 		.4byte	0x6ca
 5928 0c6f 00       		.byte	0
ARM GAS  /tmp/ccqyZH0w.s 			page 105


 5929 0c70 0F       		.uleb128 0xf
 5930 0c71 04       		.byte	0x4
 5931 0c72 5C0C0000 		.4byte	0xc5c
 5932 0c76 08       		.uleb128 0x8
 5933 0c77 7D000000 		.4byte	0x7d
 5934 0c7b 860C0000 		.4byte	0xc86
 5935 0c7f 09       		.uleb128 0x9
 5936 0c80 25000000 		.4byte	0x25
 5937 0c84 02       		.byte	0x2
 5938 0c85 00       		.byte	0
 5939 0c86 08       		.uleb128 0x8
 5940 0c87 7D000000 		.4byte	0x7d
 5941 0c8b 960C0000 		.4byte	0xc96
 5942 0c8f 09       		.uleb128 0x9
 5943 0c90 25000000 		.4byte	0x25
 5944 0c94 00       		.byte	0
 5945 0c95 00       		.byte	0
 5946 0c96 0B       		.uleb128 0xb
 5947 0c97 BB060000 		.4byte	.LASF189
 5948 0c9b 08       		.byte	0x8
 5949 0c9c 2401     		.2byte	0x124
 5950 0c9e 1A       		.byte	0x1a
 5951 0c9f 4D090000 		.4byte	0x94d
 5952 0ca3 1B       		.uleb128 0x1b
 5953 0ca4 5C140000 		.4byte	.LASF190
 5954 0ca8 0C       		.byte	0xc
 5955 0ca9 08       		.byte	0x8
 5956 0caa 2801     		.2byte	0x128
 5957 0cac 08       		.byte	0x8
 5958 0cad DC0C0000 		.4byte	0xcdc
 5959 0cb1 0A       		.uleb128 0xa
 5960 0cb2 90080000 		.4byte	.LASF124
 5961 0cb6 08       		.byte	0x8
 5962 0cb7 2A01     		.2byte	0x12a
 5963 0cb9 11       		.byte	0x11
 5964 0cba DC0C0000 		.4byte	0xcdc
 5965 0cbe 00       		.byte	0
 5966 0cbf 0A       		.uleb128 0xa
 5967 0cc0 43120000 		.4byte	.LASF191
 5968 0cc4 08       		.byte	0x8
 5969 0cc5 2B01     		.2byte	0x12b
 5970 0cc7 07       		.byte	0x7
 5971 0cc8 B1000000 		.4byte	0xb1
 5972 0ccc 04       		.byte	0x4
 5973 0ccd 0A       		.uleb128 0xa
 5974 0cce AC0A0000 		.4byte	.LASF192
 5975 0cd2 08       		.byte	0x8
 5976 0cd3 2C01     		.2byte	0x12c
 5977 0cd5 0B       		.byte	0xb
 5978 0cd6 E20C0000 		.4byte	0xce2
 5979 0cda 08       		.byte	0x8
 5980 0cdb 00       		.byte	0
 5981 0cdc 0F       		.uleb128 0xf
 5982 0cdd 04       		.byte	0x4
 5983 0cde A30C0000 		.4byte	0xca3
 5984 0ce2 0F       		.uleb128 0xf
 5985 0ce3 04       		.byte	0x4
ARM GAS  /tmp/ccqyZH0w.s 			page 106


 5986 0ce4 960C0000 		.4byte	0xc96
 5987 0ce8 1B       		.uleb128 0x1b
 5988 0ce9 B2050000 		.4byte	.LASF193
 5989 0ced 0E       		.byte	0xe
 5990 0cee 08       		.byte	0x8
 5991 0cef 4401     		.2byte	0x144
 5992 0cf1 08       		.byte	0x8
 5993 0cf2 210D0000 		.4byte	0xd21
 5994 0cf6 0A       		.uleb128 0xa
 5995 0cf7 D1170000 		.4byte	.LASF194
 5996 0cfb 08       		.byte	0x8
 5997 0cfc 4501     		.2byte	0x145
 5998 0cfe 12       		.byte	0x12
 5999 0cff 210D0000 		.4byte	0xd21
 6000 0d03 00       		.byte	0
 6001 0d04 0A       		.uleb128 0xa
 6002 0d05 110C0000 		.4byte	.LASF195
 6003 0d09 08       		.byte	0x8
 6004 0d0a 4601     		.2byte	0x146
 6005 0d0c 12       		.byte	0x12
 6006 0d0d 210D0000 		.4byte	0xd21
 6007 0d11 06       		.byte	0x6
 6008 0d12 0A       		.uleb128 0xa
 6009 0d13 95130000 		.4byte	.LASF196
 6010 0d17 08       		.byte	0x8
 6011 0d18 4701     		.2byte	0x147
 6012 0d1a 12       		.byte	0x12
 6013 0d1b 90000000 		.4byte	0x90
 6014 0d1f 0C       		.byte	0xc
 6015 0d20 00       		.byte	0
 6016 0d21 08       		.uleb128 0x8
 6017 0d22 90000000 		.4byte	0x90
 6018 0d26 310D0000 		.4byte	0xd31
 6019 0d2a 09       		.uleb128 0x9
 6020 0d2b 25000000 		.4byte	0x25
 6021 0d2f 02       		.byte	0x2
 6022 0d30 00       		.byte	0
 6023 0d31 0C       		.uleb128 0xc
 6024 0d32 D0       		.byte	0xd0
 6025 0d33 08       		.byte	0x8
 6026 0d34 8502     		.2byte	0x285
 6027 0d36 07       		.byte	0x7
 6028 0d37 460E0000 		.4byte	0xe46
 6029 0d3b 0A       		.uleb128 0xa
 6030 0d3c 0E170000 		.4byte	.LASF197
 6031 0d40 08       		.byte	0x8
 6032 0d41 8702     		.2byte	0x287
 6033 0d43 18       		.byte	0x18
 6034 0d44 25000000 		.4byte	0x25
 6035 0d48 00       		.byte	0
 6036 0d49 0A       		.uleb128 0xa
 6037 0d4a 8C140000 		.4byte	.LASF198
 6038 0d4e 08       		.byte	0x8
 6039 0d4f 8802     		.2byte	0x288
 6040 0d51 12       		.byte	0x12
 6041 0d52 020C0000 		.4byte	0xc02
 6042 0d56 04       		.byte	0x4
ARM GAS  /tmp/ccqyZH0w.s 			page 107


 6043 0d57 0A       		.uleb128 0xa
 6044 0d58 5F060000 		.4byte	.LASF199
 6045 0d5c 08       		.byte	0x8
 6046 0d5d 8902     		.2byte	0x289
 6047 0d5f 10       		.byte	0x10
 6048 0d60 460E0000 		.4byte	0xe46
 6049 0d64 08       		.byte	0x8
 6050 0d65 0A       		.uleb128 0xa
 6051 0d66 BB100000 		.4byte	.LASF200
 6052 0d6a 08       		.byte	0x8
 6053 0d6b 8A02     		.2byte	0x28a
 6054 0d6d 17       		.byte	0x17
 6055 0d6e E7070000 		.4byte	0x7e7
 6056 0d72 24       		.byte	0x24
 6057 0d73 0A       		.uleb128 0xa
 6058 0d74 730B0000 		.4byte	.LASF201
 6059 0d78 08       		.byte	0x8
 6060 0d79 8B02     		.2byte	0x28b
 6061 0d7b 0F       		.byte	0xf
 6062 0d7c B1000000 		.4byte	0xb1
 6063 0d80 48       		.byte	0x48
 6064 0d81 0A       		.uleb128 0xa
 6065 0d82 D7170000 		.4byte	.LASF202
 6066 0d86 08       		.byte	0x8
 6067 0d87 8C02     		.2byte	0x28c
 6068 0d89 2C       		.byte	0x2c
 6069 0d8a AA000000 		.4byte	0xaa
 6070 0d8e 50       		.byte	0x50
 6071 0d8f 0A       		.uleb128 0xa
 6072 0d90 46010000 		.4byte	.LASF203
 6073 0d94 08       		.byte	0x8
 6074 0d95 8D02     		.2byte	0x28d
 6075 0d97 1A       		.byte	0x1a
 6076 0d98 E80C0000 		.4byte	0xce8
 6077 0d9c 58       		.byte	0x58
 6078 0d9d 0A       		.uleb128 0xa
 6079 0d9e 7E090000 		.4byte	.LASF204
 6080 0da2 08       		.byte	0x8
 6081 0da3 8E02     		.2byte	0x28e
 6082 0da5 16       		.byte	0x16
 6083 0da6 47070000 		.4byte	0x747
 6084 0daa 68       		.byte	0x68
 6085 0dab 0A       		.uleb128 0xa
 6086 0dac 99140000 		.4byte	.LASF205
 6087 0db0 08       		.byte	0x8
 6088 0db1 8F02     		.2byte	0x28f
 6089 0db3 16       		.byte	0x16
 6090 0db4 47070000 		.4byte	0x747
 6091 0db8 70       		.byte	0x70
 6092 0db9 0A       		.uleb128 0xa
 6093 0dba FC000000 		.4byte	.LASF206
 6094 0dbe 08       		.byte	0x8
 6095 0dbf 9002     		.2byte	0x290
 6096 0dc1 16       		.byte	0x16
 6097 0dc2 47070000 		.4byte	0x747
 6098 0dc6 78       		.byte	0x78
 6099 0dc7 0A       		.uleb128 0xa
ARM GAS  /tmp/ccqyZH0w.s 			page 108


 6100 0dc8 3C110000 		.4byte	.LASF207
 6101 0dcc 08       		.byte	0x8
 6102 0dcd 9102     		.2byte	0x291
 6103 0dcf 10       		.byte	0x10
 6104 0dd0 560E0000 		.4byte	0xe56
 6105 0dd4 80       		.byte	0x80
 6106 0dd5 0A       		.uleb128 0xa
 6107 0dd6 88010000 		.4byte	.LASF208
 6108 0dda 08       		.byte	0x8
 6109 0ddb 9202     		.2byte	0x292
 6110 0ddd 10       		.byte	0x10
 6111 0dde 660E0000 		.4byte	0xe66
 6112 0de2 88       		.byte	0x88
 6113 0de3 0A       		.uleb128 0xa
 6114 0de4 51130000 		.4byte	.LASF209
 6115 0de8 08       		.byte	0x8
 6116 0de9 9302     		.2byte	0x293
 6117 0deb 0F       		.byte	0xf
 6118 0dec B1000000 		.4byte	0xb1
 6119 0df0 A0       		.byte	0xa0
 6120 0df1 0A       		.uleb128 0xa
 6121 0df2 74030000 		.4byte	.LASF210
 6122 0df6 08       		.byte	0x8
 6123 0df7 9402     		.2byte	0x294
 6124 0df9 16       		.byte	0x16
 6125 0dfa 47070000 		.4byte	0x747
 6126 0dfe A4       		.byte	0xa4
 6127 0dff 0A       		.uleb128 0xa
 6128 0e00 C8090000 		.4byte	.LASF211
 6129 0e04 08       		.byte	0x8
 6130 0e05 9502     		.2byte	0x295
 6131 0e07 16       		.byte	0x16
 6132 0e08 47070000 		.4byte	0x747
 6133 0e0c AC       		.byte	0xac
 6134 0e0d 0A       		.uleb128 0xa
 6135 0e0e A7080000 		.4byte	.LASF212
 6136 0e12 08       		.byte	0x8
 6137 0e13 9602     		.2byte	0x296
 6138 0e15 16       		.byte	0x16
 6139 0e16 47070000 		.4byte	0x747
 6140 0e1a B4       		.byte	0xb4
 6141 0e1b 0A       		.uleb128 0xa
 6142 0e1c 510C0000 		.4byte	.LASF213
 6143 0e20 08       		.byte	0x8
 6144 0e21 9702     		.2byte	0x297
 6145 0e23 16       		.byte	0x16
 6146 0e24 47070000 		.4byte	0x747
 6147 0e28 BC       		.byte	0xbc
 6148 0e29 0A       		.uleb128 0xa
 6149 0e2a 6E0D0000 		.4byte	.LASF214
 6150 0e2e 08       		.byte	0x8
 6151 0e2f 9802     		.2byte	0x298
 6152 0e31 16       		.byte	0x16
 6153 0e32 47070000 		.4byte	0x747
 6154 0e36 C4       		.byte	0xc4
 6155 0e37 0A       		.uleb128 0xa
 6156 0e38 AE0D0000 		.4byte	.LASF215
ARM GAS  /tmp/ccqyZH0w.s 			page 109


 6157 0e3c 08       		.byte	0x8
 6158 0e3d 9902     		.2byte	0x299
 6159 0e3f 08       		.byte	0x8
 6160 0e40 B1000000 		.4byte	0xb1
 6161 0e44 CC       		.byte	0xcc
 6162 0e45 00       		.byte	0
 6163 0e46 08       		.uleb128 0x8
 6164 0e47 4B010000 		.4byte	0x14b
 6165 0e4b 560E0000 		.4byte	0xe56
 6166 0e4f 09       		.uleb128 0x9
 6167 0e50 25000000 		.4byte	0x25
 6168 0e54 19       		.byte	0x19
 6169 0e55 00       		.byte	0
 6170 0e56 08       		.uleb128 0x8
 6171 0e57 4B010000 		.4byte	0x14b
 6172 0e5b 660E0000 		.4byte	0xe66
 6173 0e5f 09       		.uleb128 0x9
 6174 0e60 25000000 		.4byte	0x25
 6175 0e64 07       		.byte	0x7
 6176 0e65 00       		.byte	0
 6177 0e66 08       		.uleb128 0x8
 6178 0e67 4B010000 		.4byte	0x14b
 6179 0e6b 760E0000 		.4byte	0xe76
 6180 0e6f 09       		.uleb128 0x9
 6181 0e70 25000000 		.4byte	0x25
 6182 0e74 17       		.byte	0x17
 6183 0e75 00       		.byte	0
 6184 0e76 0C       		.uleb128 0xc
 6185 0e77 F0       		.byte	0xf0
 6186 0e78 08       		.byte	0x8
 6187 0e79 9E02     		.2byte	0x29e
 6188 0e7b 07       		.byte	0x7
 6189 0e7c 9D0E0000 		.4byte	0xe9d
 6190 0e80 0A       		.uleb128 0xa
 6191 0e81 65050000 		.4byte	.LASF216
 6192 0e85 08       		.byte	0x8
 6193 0e86 A102     		.2byte	0x2a1
 6194 0e88 1B       		.byte	0x1b
 6195 0e89 9D0E0000 		.4byte	0xe9d
 6196 0e8d 00       		.byte	0
 6197 0e8e 0A       		.uleb128 0xa
 6198 0e8f 26180000 		.4byte	.LASF217
 6199 0e93 08       		.byte	0x8
 6200 0e94 A202     		.2byte	0x2a2
 6201 0e96 18       		.byte	0x18
 6202 0e97 AD0E0000 		.4byte	0xead
 6203 0e9b 78       		.byte	0x78
 6204 0e9c 00       		.byte	0
 6205 0e9d 08       		.uleb128 0x8
 6206 0e9e 47090000 		.4byte	0x947
 6207 0ea2 AD0E0000 		.4byte	0xead
 6208 0ea6 09       		.uleb128 0x9
 6209 0ea7 25000000 		.4byte	0x25
 6210 0eab 1D       		.byte	0x1d
 6211 0eac 00       		.byte	0
 6212 0ead 08       		.uleb128 0x8
 6213 0eae 25000000 		.4byte	0x25
ARM GAS  /tmp/ccqyZH0w.s 			page 110


 6214 0eb2 BD0E0000 		.4byte	0xebd
 6215 0eb6 09       		.uleb128 0x9
 6216 0eb7 25000000 		.4byte	0x25
 6217 0ebb 1D       		.byte	0x1d
 6218 0ebc 00       		.byte	0
 6219 0ebd 1C       		.uleb128 0x1c
 6220 0ebe F0       		.byte	0xf0
 6221 0ebf 08       		.byte	0x8
 6222 0ec0 8302     		.2byte	0x283
 6223 0ec2 03       		.byte	0x3
 6224 0ec3 E20E0000 		.4byte	0xee2
 6225 0ec7 1D       		.uleb128 0x1d
 6226 0ec8 1A0F0000 		.4byte	.LASF167
 6227 0ecc 08       		.byte	0x8
 6228 0ecd 9A02     		.2byte	0x29a
 6229 0ecf 0B       		.byte	0xb
 6230 0ed0 310D0000 		.4byte	0xd31
 6231 0ed4 1D       		.uleb128 0x1d
 6232 0ed5 DA100000 		.4byte	.LASF218
 6233 0ed9 08       		.byte	0x8
 6234 0eda A302     		.2byte	0x2a3
 6235 0edc 0B       		.byte	0xb
 6236 0edd 760E0000 		.4byte	0xe76
 6237 0ee1 00       		.byte	0
 6238 0ee2 08       		.uleb128 0x8
 6239 0ee3 4B010000 		.4byte	0x14b
 6240 0ee7 F20E0000 		.4byte	0xef2
 6241 0eeb 09       		.uleb128 0x9
 6242 0eec 25000000 		.4byte	0x25
 6243 0ef0 18       		.byte	0x18
 6244 0ef1 00       		.byte	0
 6245 0ef2 1E       		.uleb128 0x1e
 6246 0ef3 48030000 		.4byte	.LASF377
 6247 0ef7 0F       		.uleb128 0xf
 6248 0ef8 04       		.byte	0x4
 6249 0ef9 F20E0000 		.4byte	0xef2
 6250 0efd 1F       		.uleb128 0x1f
 6251 0efe 080F0000 		.4byte	0xf08
 6252 0f02 19       		.uleb128 0x19
 6253 0f03 AE0A0000 		.4byte	0xaae
 6254 0f07 00       		.byte	0
 6255 0f08 0F       		.uleb128 0xf
 6256 0f09 04       		.byte	0x4
 6257 0f0a FD0E0000 		.4byte	0xefd
 6258 0f0e 0F       		.uleb128 0xf
 6259 0f0f 04       		.byte	0x4
 6260 0f10 D1070000 		.4byte	0x7d1
 6261 0f14 1F       		.uleb128 0x1f
 6262 0f15 1F0F0000 		.4byte	0xf1f
 6263 0f19 19       		.uleb128 0x19
 6264 0f1a B1000000 		.4byte	0xb1
 6265 0f1e 00       		.byte	0
 6266 0f1f 0F       		.uleb128 0xf
 6267 0f20 04       		.byte	0x4
 6268 0f21 250F0000 		.4byte	0xf25
 6269 0f25 0F       		.uleb128 0xf
 6270 0f26 04       		.byte	0x4
ARM GAS  /tmp/ccqyZH0w.s 			page 111


 6271 0f27 140F0000 		.4byte	0xf14
 6272 0f2b 08       		.uleb128 0x8
 6273 0f2c 960C0000 		.4byte	0xc96
 6274 0f30 3B0F0000 		.4byte	0xf3b
 6275 0f34 09       		.uleb128 0x9
 6276 0f35 25000000 		.4byte	0x25
 6277 0f39 02       		.byte	0x2
 6278 0f3a 00       		.byte	0
 6279 0f3b 20       		.uleb128 0x20
 6280 0f3c 11040000 		.4byte	.LASF219
 6281 0f40 08       		.byte	0x8
 6282 0f41 3303     		.2byte	0x333
 6283 0f43 17       		.byte	0x17
 6284 0f44 AE0A0000 		.4byte	0xaae
 6285 0f48 20       		.uleb128 0x20
 6286 0f49 7C100000 		.4byte	.LASF220
 6287 0f4d 08       		.byte	0x8
 6288 0f4e 3403     		.2byte	0x334
 6289 0f50 1D       		.byte	0x1d
 6290 0f51 B40A0000 		.4byte	0xab4
 6291 0f55 21       		.uleb128 0x21
 6292 0f56 C001     		.2byte	0x1c0
 6293 0f58 0A       		.byte	0xa
 6294 0f59 44       		.byte	0x44
 6295 0f5a 09       		.byte	0x9
 6296 0f5b 890F0000 		.4byte	0xf89
 6297 0f5f 07       		.uleb128 0x7
 6298 0f60 05180000 		.4byte	.LASF221
 6299 0f64 0A       		.byte	0xa
 6300 0f65 45       		.byte	0x45
 6301 0f66 1B       		.byte	0x1b
 6302 0f67 B0060000 		.4byte	0x6b0
 6303 0f6b 00       		.byte	0
 6304 0f6c 16       		.uleb128 0x16
 6305 0f6d 0A010000 		.4byte	.LASF222
 6306 0f71 0A       		.byte	0xa
 6307 0f72 48       		.byte	0x48
 6308 0f73 1B       		.byte	0x1b
 6309 0f74 57010000 		.4byte	0x157
 6310 0f78 5C01     		.2byte	0x15c
 6311 0f7a 16       		.uleb128 0x16
 6312 0f7b F70F0000 		.4byte	.LASF223
 6313 0f7f 0A       		.byte	0xa
 6314 0f80 49       		.byte	0x49
 6315 0f81 1B       		.byte	0x1b
 6316 0f82 6C000000 		.4byte	0x6c
 6317 0f86 BF01     		.2byte	0x1bf
 6318 0f88 00       		.byte	0
 6319 0f89 03       		.uleb128 0x3
 6320 0f8a 82030000 		.4byte	.LASF224
 6321 0f8e 0A       		.byte	0xa
 6322 0f8f 4B       		.byte	0x4b
 6323 0f90 03       		.byte	0x3
 6324 0f91 550F0000 		.4byte	0xf55
 6325 0f95 03       		.uleb128 0x3
 6326 0f96 B6000000 		.4byte	.LASF225
 6327 0f9a 0A       		.byte	0xa
ARM GAS  /tmp/ccqyZH0w.s 			page 112


 6328 0f9b 52       		.byte	0x52
 6329 0f9c 18       		.byte	0x18
 6330 0f9d A10F0000 		.4byte	0xfa1
 6331 0fa1 0F       		.uleb128 0xf
 6332 0fa2 04       		.byte	0x4
 6333 0fa3 890F0000 		.4byte	0xf89
 6334 0fa7 22       		.uleb128 0x22
 6335 0fa8 12080000 		.4byte	.LASF226
 6336 0fac 0B       		.byte	0xb
 6337 0fad 67       		.byte	0x67
 6338 0fae 0E       		.byte	0xe
 6339 0faf 020C0000 		.4byte	0xc02
 6340 0fb3 08       		.uleb128 0x8
 6341 0fb4 97000000 		.4byte	0x97
 6342 0fb8 C30F0000 		.4byte	0xfc3
 6343 0fbc 09       		.uleb128 0x9
 6344 0fbd 25000000 		.4byte	0x25
 6345 0fc1 03       		.byte	0x3
 6346 0fc2 00       		.byte	0
 6347 0fc3 23       		.uleb128 0x23
 6348 0fc4 0C0D0000 		.4byte	.LASF227
 6349 0fc8 01       		.byte	0x1
 6350 0fc9 30       		.byte	0x30
 6351 0fca 0A       		.byte	0xa
 6352 0fcb B30F0000 		.4byte	0xfb3
 6353 0fcf 05       		.uleb128 0x5
 6354 0fd0 03       		.byte	0x3
 6355 0fd1 00000000 		.4byte	refArrayQuadrants
 6356 0fd5 24       		.uleb128 0x24
 6357 0fd6 28070000 		.4byte	.LASF233
 6358 0fda 01       		.byte	0x1
 6359 0fdb EF04     		.2byte	0x4ef
 6360 0fdd 0F       		.byte	0xf
 6361 0fde 63010000 		.4byte	0x163
 6362 0fe2 00000000 		.4byte	.LFB25
 6363 0fe6 38000000 		.4byte	.LFE25-.LFB25
 6364 0fea 01       		.uleb128 0x1
 6365 0feb 9C       		.byte	0x9c
 6366 0fec AA100000 		.4byte	0x10aa
 6367 0ff0 25       		.uleb128 0x25
 6368 0ff1 44657600 		.ascii	"Dev\000"
 6369 0ff5 01       		.byte	0x1
 6370 0ff6 EF04     		.2byte	0x4ef
 6371 0ff8 37       		.byte	0x37
 6372 0ff9 950F0000 		.4byte	0xf95
 6373 0ffd 04000000 		.4byte	.LLST186
 6374 1001 00000000 		.4byte	.LVUS186
 6375 1005 26       		.uleb128 0x26
 6376 1006 E0090000 		.4byte	.LASF228
 6377 100a 01       		.byte	0x1
 6378 100b F004     		.2byte	0x4f0
 6379 100d 0C       		.byte	0xc
 6380 100e AA060000 		.4byte	0x6aa
 6381 1012 2B000000 		.4byte	.LLST187
 6382 1016 25000000 		.4byte	.LVUS187
 6383 101a 26       		.uleb128 0x26
 6384 101b 6F040000 		.4byte	.LASF229
ARM GAS  /tmp/ccqyZH0w.s 			page 113


 6385 101f 01       		.byte	0x1
 6386 1020 F004     		.2byte	0x4f0
 6387 1022 23       		.byte	0x23
 6388 1023 AA060000 		.4byte	0x6aa
 6389 1027 5E000000 		.4byte	.LLST188
 6390 102b 58000000 		.4byte	.LVUS188
 6391 102f 27       		.uleb128 0x27
 6392 1030 C7010000 		.4byte	.LASF230
 6393 1034 01       		.byte	0x1
 6394 1035 F204     		.2byte	0x4f2
 6395 1037 10       		.byte	0x10
 6396 1038 63010000 		.4byte	0x163
 6397 103c 8F000000 		.4byte	.LLST189
 6398 1040 8B000000 		.4byte	.LVUS189
 6399 1044 28       		.uleb128 0x28
 6400 1045 F9100000 		.4byte	.LASF231
 6401 1049 01       		.byte	0x1
 6402 104a F304     		.2byte	0x4f3
 6403 104c 0A       		.byte	0xa
 6404 104d 6C000000 		.4byte	0x6c
 6405 1051 00       		.byte	0
 6406 1052 28       		.uleb128 0x28
 6407 1053 E30A0000 		.4byte	.LASF232
 6408 1057 01       		.byte	0x1
 6409 1058 F404     		.2byte	0x4f4
 6410 105a 0A       		.byte	0xa
 6411 105b 6C000000 		.4byte	0x6c
 6412 105f 00       		.byte	0
 6413 1060 29       		.uleb128 0x29
 6414 1061 22000000 		.4byte	.LVL431
 6415 1065 6D150000 		.4byte	0x156d
 6416 1069 A0100000 		.4byte	0x10a0
 6417 106d 2A       		.uleb128 0x2a
 6418 106e 01       		.uleb128 0x1
 6419 106f 50       		.byte	0x50
 6420 1070 03       		.uleb128 0x3
 6421 1071 F3       		.byte	0xf3
 6422 1072 01       		.uleb128 0x1
 6423 1073 50       		.byte	0x50
 6424 1074 2A       		.uleb128 0x2a
 6425 1075 01       		.uleb128 0x1
 6426 1076 51       		.byte	0x51
 6427 1077 01       		.uleb128 0x1
 6428 1078 31       		.byte	0x31
 6429 1079 2A       		.uleb128 0x2a
 6430 107a 01       		.uleb128 0x1
 6431 107b 52       		.byte	0x52
 6432 107c 01       		.uleb128 0x1
 6433 107d 30       		.byte	0x30
 6434 107e 2A       		.uleb128 0x2a
 6435 107f 01       		.uleb128 0x1
 6436 1080 53       		.byte	0x53
 6437 1081 01       		.uleb128 0x1
 6438 1082 30       		.byte	0x30
 6439 1083 2A       		.uleb128 0x2a
 6440 1084 02       		.uleb128 0x2
 6441 1085 7D       		.byte	0x7d
ARM GAS  /tmp/ccqyZH0w.s 			page 114


 6442 1086 00       		.sleb128 0
 6443 1087 03       		.uleb128 0x3
 6444 1088 F3       		.byte	0xf3
 6445 1089 01       		.uleb128 0x1
 6446 108a 51       		.byte	0x51
 6447 108b 2A       		.uleb128 0x2a
 6448 108c 02       		.uleb128 0x2
 6449 108d 7D       		.byte	0x7d
 6450 108e 04       		.sleb128 4
 6451 108f 03       		.uleb128 0x3
 6452 1090 F3       		.byte	0xf3
 6453 1091 01       		.uleb128 0x1
 6454 1092 52       		.byte	0x52
 6455 1093 2A       		.uleb128 0x2a
 6456 1094 02       		.uleb128 0x2
 6457 1095 7D       		.byte	0x7d
 6458 1096 08       		.sleb128 8
 6459 1097 01       		.uleb128 0x1
 6460 1098 31       		.byte	0x31
 6461 1099 2A       		.uleb128 0x2a
 6462 109a 02       		.uleb128 0x2
 6463 109b 7D       		.byte	0x7d
 6464 109c 0C       		.sleb128 12
 6465 109d 01       		.uleb128 0x1
 6466 109e 31       		.byte	0x31
 6467 109f 00       		.byte	0
 6468 10a0 2B       		.uleb128 0x2b
 6469 10a1 34000000 		.4byte	.LVL432
 6470 10a5 8A300000 		.4byte	0x308a
 6471 10a9 00       		.byte	0
 6472 10aa 24       		.uleb128 0x24
 6473 10ab B20E0000 		.4byte	.LASF234
 6474 10af 01       		.byte	0x1
 6475 10b0 E004     		.2byte	0x4e0
 6476 10b2 0F       		.byte	0xf
 6477 10b3 63010000 		.4byte	0x163
 6478 10b7 00000000 		.4byte	.LFB24
 6479 10bb 40000000 		.4byte	.LFE24-.LFB24
 6480 10bf 01       		.uleb128 0x1
 6481 10c0 9C       		.byte	0x9c
 6482 10c1 77110000 		.4byte	0x1177
 6483 10c5 25       		.uleb128 0x25
 6484 10c6 44657600 		.ascii	"Dev\000"
 6485 10ca 01       		.byte	0x1
 6486 10cb E004     		.2byte	0x4e0
 6487 10cd 37       		.byte	0x37
 6488 10ce 950F0000 		.4byte	0xf95
 6489 10d2 B2000000 		.4byte	.LLST182
 6490 10d6 AE000000 		.4byte	.LVUS182
 6491 10da 26       		.uleb128 0x26
 6492 10db F9100000 		.4byte	.LASF231
 6493 10df 01       		.byte	0x1
 6494 10e0 E104     		.2byte	0x4e1
 6495 10e2 0B       		.byte	0xb
 6496 10e3 6C000000 		.4byte	0x6c
 6497 10e7 D7000000 		.4byte	.LLST183
 6498 10eb D3000000 		.4byte	.LVUS183
ARM GAS  /tmp/ccqyZH0w.s 			page 115


 6499 10ef 26       		.uleb128 0x26
 6500 10f0 E30A0000 		.4byte	.LASF232
 6501 10f4 01       		.byte	0x1
 6502 10f5 E104     		.2byte	0x4e1
 6503 10f7 20       		.byte	0x20
 6504 10f8 6C000000 		.4byte	0x6c
 6505 10fc FC000000 		.4byte	.LLST184
 6506 1100 F8000000 		.4byte	.LVUS184
 6507 1104 27       		.uleb128 0x27
 6508 1105 C7010000 		.4byte	.LASF230
 6509 1109 01       		.byte	0x1
 6510 110a E304     		.2byte	0x4e3
 6511 110c 10       		.byte	0x10
 6512 110d 63010000 		.4byte	0x163
 6513 1111 21010000 		.4byte	.LLST185
 6514 1115 1D010000 		.4byte	.LVUS185
 6515 1119 2C       		.uleb128 0x2c
 6516 111a E0090000 		.4byte	.LASF228
 6517 111e 01       		.byte	0x1
 6518 111f E404     		.2byte	0x4e4
 6519 1121 0A       		.byte	0xa
 6520 1122 6C000000 		.4byte	0x6c
 6521 1126 02       		.uleb128 0x2
 6522 1127 91       		.byte	0x91
 6523 1128 6A       		.sleb128 -22
 6524 1129 2C       		.uleb128 0x2c
 6525 112a 6F040000 		.4byte	.LASF229
 6526 112e 01       		.byte	0x1
 6527 112f E504     		.2byte	0x4e5
 6528 1131 0A       		.byte	0xa
 6529 1132 6C000000 		.4byte	0x6c
 6530 1136 02       		.uleb128 0x2
 6531 1137 91       		.byte	0x91
 6532 1138 6B       		.sleb128 -21
 6533 1139 29       		.uleb128 0x29
 6534 113a 2A000000 		.4byte	.LVL425
 6535 113e 6D150000 		.4byte	0x156d
 6536 1142 6D110000 		.4byte	0x116d
 6537 1146 2A       		.uleb128 0x2a
 6538 1147 01       		.uleb128 0x1
 6539 1148 50       		.byte	0x50
 6540 1149 03       		.uleb128 0x3
 6541 114a F3       		.byte	0xf3
 6542 114b 01       		.uleb128 0x1
 6543 114c 50       		.byte	0x50
 6544 114d 2A       		.uleb128 0x2a
 6545 114e 01       		.uleb128 0x1
 6546 114f 51       		.byte	0x51
 6547 1150 01       		.uleb128 0x1
 6548 1151 30       		.byte	0x30
 6549 1152 2A       		.uleb128 0x2a
 6550 1153 02       		.uleb128 0x2
 6551 1154 7D       		.byte	0x7d
 6552 1155 00       		.sleb128 0
 6553 1156 02       		.uleb128 0x2
 6554 1157 75       		.byte	0x75
 6555 1158 00       		.sleb128 0
ARM GAS  /tmp/ccqyZH0w.s 			page 116


 6556 1159 2A       		.uleb128 0x2a
 6557 115a 02       		.uleb128 0x2
 6558 115b 7D       		.byte	0x7d
 6559 115c 04       		.sleb128 4
 6560 115d 02       		.uleb128 0x2
 6561 115e 76       		.byte	0x76
 6562 115f 00       		.sleb128 0
 6563 1160 2A       		.uleb128 0x2a
 6564 1161 02       		.uleb128 0x2
 6565 1162 7D       		.byte	0x7d
 6566 1163 08       		.sleb128 8
 6567 1164 01       		.uleb128 0x1
 6568 1165 31       		.byte	0x31
 6569 1166 2A       		.uleb128 0x2a
 6570 1167 02       		.uleb128 0x2
 6571 1168 7D       		.byte	0x7d
 6572 1169 0C       		.sleb128 12
 6573 116a 01       		.uleb128 0x1
 6574 116b 31       		.byte	0x31
 6575 116c 00       		.byte	0
 6576 116d 2B       		.uleb128 0x2b
 6577 116e 3C000000 		.4byte	.LVL426
 6578 1172 8A300000 		.4byte	0x308a
 6579 1176 00       		.byte	0
 6580 1177 24       		.uleb128 0x24
 6581 1178 70180000 		.4byte	.LASF235
 6582 117c 01       		.byte	0x1
 6583 117d BD04     		.2byte	0x4bd
 6584 117f 0F       		.byte	0xf
 6585 1180 63010000 		.4byte	0x163
 6586 1184 00000000 		.4byte	.LFB23
 6587 1188 5C000000 		.4byte	.LFE23-.LFB23
 6588 118c 01       		.uleb128 0x1
 6589 118d 9C       		.byte	0x9c
 6590 118e 7F120000 		.4byte	0x127f
 6591 1192 25       		.uleb128 0x25
 6592 1193 44657600 		.ascii	"Dev\000"
 6593 1197 01       		.byte	0x1
 6594 1198 BD04     		.2byte	0x4bd
 6595 119a 3B       		.byte	0x3b
 6596 119b 950F0000 		.4byte	0xf95
 6597 119f 44010000 		.4byte	.LLST145
 6598 11a3 40010000 		.4byte	.LVUS145
 6599 11a7 26       		.uleb128 0x26
 6600 11a8 E0090000 		.4byte	.LASF228
 6601 11ac 01       		.byte	0x1
 6602 11ad BE04     		.2byte	0x4be
 6603 11af 0B       		.byte	0xb
 6604 11b0 AA060000 		.4byte	0x6aa
 6605 11b4 66010000 		.4byte	.LLST146
 6606 11b8 62010000 		.4byte	.LVUS146
 6607 11bc 26       		.uleb128 0x26
 6608 11bd 6F040000 		.4byte	.LASF229
 6609 11c1 01       		.byte	0x1
 6610 11c2 BE04     		.2byte	0x4be
 6611 11c4 22       		.byte	0x22
 6612 11c5 AA060000 		.4byte	0x6aa
ARM GAS  /tmp/ccqyZH0w.s 			page 117


 6613 11c9 8B010000 		.4byte	.LLST147
 6614 11cd 87010000 		.4byte	.LVUS147
 6615 11d1 26       		.uleb128 0x26
 6616 11d2 CA100000 		.4byte	.LASF236
 6617 11d6 01       		.byte	0x1
 6618 11d7 BE04     		.2byte	0x4be
 6619 11d9 35       		.byte	0x35
 6620 11da 6C000000 		.4byte	0x6c
 6621 11de AD010000 		.4byte	.LLST148
 6622 11e2 A9010000 		.4byte	.LVUS148
 6623 11e6 27       		.uleb128 0x27
 6624 11e7 C7010000 		.4byte	.LASF230
 6625 11eb 01       		.byte	0x1
 6626 11ec C004     		.2byte	0x4c0
 6627 11ee 10       		.byte	0x10
 6628 11ef 63010000 		.4byte	0x163
 6629 11f3 D6010000 		.4byte	.LLST149
 6630 11f7 CE010000 		.4byte	.LVUS149
 6631 11fb 27       		.uleb128 0x27
 6632 11fc FA0E0000 		.4byte	.LASF97
 6633 1200 01       		.byte	0x1
 6634 1201 C104     		.2byte	0x4c1
 6635 1203 0A       		.byte	0xa
 6636 1204 6C000000 		.4byte	0x6c
 6637 1208 0F020000 		.4byte	.LLST150
 6638 120c 0B020000 		.4byte	.LVUS150
 6639 1210 29       		.uleb128 0x29
 6640 1211 20000000 		.4byte	.LVL340
 6641 1215 E7130000 		.4byte	0x13e7
 6642 1219 36120000 		.4byte	0x1236
 6643 121d 2A       		.uleb128 0x2a
 6644 121e 01       		.uleb128 0x1
 6645 121f 50       		.byte	0x50
 6646 1220 02       		.uleb128 0x2
 6647 1221 74       		.byte	0x74
 6648 1222 00       		.sleb128 0
 6649 1223 2A       		.uleb128 0x2a
 6650 1224 01       		.uleb128 0x1
 6651 1225 51       		.byte	0x51
 6652 1226 03       		.uleb128 0x3
 6653 1227 F3       		.byte	0xf3
 6654 1228 01       		.uleb128 0x1
 6655 1229 51       		.byte	0x51
 6656 122a 2A       		.uleb128 0x2a
 6657 122b 01       		.uleb128 0x1
 6658 122c 52       		.byte	0x52
 6659 122d 02       		.uleb128 0x2
 6660 122e 75       		.byte	0x75
 6661 122f 00       		.sleb128 0
 6662 1230 2A       		.uleb128 0x2a
 6663 1231 01       		.uleb128 0x1
 6664 1232 53       		.byte	0x53
 6665 1233 01       		.uleb128 0x1
 6666 1234 30       		.byte	0x30
 6667 1235 00       		.byte	0
 6668 1236 29       		.uleb128 0x29
 6669 1237 3C000000 		.4byte	.LVL343
ARM GAS  /tmp/ccqyZH0w.s 			page 118


 6670 123b 7F120000 		.4byte	0x127f
 6671 123f 56120000 		.4byte	0x1256
 6672 1243 2A       		.uleb128 0x2a
 6673 1244 01       		.uleb128 0x1
 6674 1245 50       		.byte	0x50
 6675 1246 02       		.uleb128 0x2
 6676 1247 74       		.byte	0x74
 6677 1248 00       		.sleb128 0
 6678 1249 2A       		.uleb128 0x2a
 6679 124a 01       		.uleb128 0x1
 6680 124b 51       		.byte	0x51
 6681 124c 02       		.uleb128 0x2
 6682 124d 76       		.byte	0x76
 6683 124e 00       		.sleb128 0
 6684 124f 2A       		.uleb128 0x2a
 6685 1250 01       		.uleb128 0x1
 6686 1251 52       		.byte	0x52
 6687 1252 02       		.uleb128 0x2
 6688 1253 75       		.byte	0x75
 6689 1254 00       		.sleb128 0
 6690 1255 00       		.byte	0
 6691 1256 29       		.uleb128 0x29
 6692 1257 4A000000 		.4byte	.LVL345
 6693 125b 93300000 		.4byte	0x3093
 6694 125f 75120000 		.4byte	0x1275
 6695 1263 2A       		.uleb128 0x2a
 6696 1264 01       		.uleb128 0x1
 6697 1265 50       		.byte	0x50
 6698 1266 02       		.uleb128 0x2
 6699 1267 74       		.byte	0x74
 6700 1268 00       		.sleb128 0
 6701 1269 2A       		.uleb128 0x2a
 6702 126a 01       		.uleb128 0x1
 6703 126b 51       		.byte	0x51
 6704 126c 01       		.uleb128 0x1
 6705 126d 31       		.byte	0x31
 6706 126e 2A       		.uleb128 0x2a
 6707 126f 01       		.uleb128 0x1
 6708 1270 52       		.byte	0x52
 6709 1271 02       		.uleb128 0x2
 6710 1272 77       		.byte	0x77
 6711 1273 00       		.sleb128 0
 6712 1274 00       		.byte	0
 6713 1275 2B       		.uleb128 0x2b
 6714 1276 58000000 		.4byte	.LVL346
 6715 127a 8A300000 		.4byte	0x308a
 6716 127e 00       		.byte	0
 6717 127f 24       		.uleb128 0x24
 6718 1280 20000000 		.4byte	.LASF237
 6719 1284 01       		.byte	0x1
 6720 1285 9004     		.2byte	0x490
 6721 1287 0F       		.byte	0xf
 6722 1288 63010000 		.4byte	0x163
 6723 128c 00000000 		.4byte	.LFB22
 6724 1290 A0000000 		.4byte	.LFE22-.LFB22
 6725 1294 01       		.uleb128 0x1
 6726 1295 9C       		.byte	0x9c
ARM GAS  /tmp/ccqyZH0w.s 			page 119


 6727 1296 E7130000 		.4byte	0x13e7
 6728 129a 25       		.uleb128 0x25
 6729 129b 44657600 		.ascii	"Dev\000"
 6730 129f 01       		.byte	0x1
 6731 12a0 9004     		.2byte	0x490
 6732 12a2 3D       		.byte	0x3d
 6733 12a3 950F0000 		.4byte	0xf95
 6734 12a7 36020000 		.4byte	.LLST139
 6735 12ab 2E020000 		.4byte	.LVUS139
 6736 12af 26       		.uleb128 0x26
 6737 12b0 6F040000 		.4byte	.LASF229
 6738 12b4 01       		.byte	0x1
 6739 12b5 9104     		.2byte	0x491
 6740 12b7 0B       		.byte	0xb
 6741 12b8 AA060000 		.4byte	0x6aa
 6742 12bc 72020000 		.4byte	.LLST140
 6743 12c0 6A020000 		.4byte	.LVUS140
 6744 12c4 26       		.uleb128 0x26
 6745 12c5 CA100000 		.4byte	.LASF236
 6746 12c9 01       		.byte	0x1
 6747 12ca 9104     		.2byte	0x491
 6748 12cc 24       		.byte	0x24
 6749 12cd 78000000 		.4byte	0x78
 6750 12d1 AA020000 		.4byte	.LLST141
 6751 12d5 A6020000 		.4byte	.LVUS141
 6752 12d9 26       		.uleb128 0x26
 6753 12da 44070000 		.4byte	.LASF238
 6754 12de 01       		.byte	0x1
 6755 12df 9204     		.2byte	0x492
 6756 12e1 10       		.byte	0x10
 6757 12e2 78000000 		.4byte	0x78
 6758 12e6 D3020000 		.4byte	.LLST142
 6759 12ea CB020000 		.4byte	.LVUS142
 6760 12ee 27       		.uleb128 0x27
 6761 12ef C7010000 		.4byte	.LASF230
 6762 12f3 01       		.byte	0x1
 6763 12f4 9404     		.2byte	0x494
 6764 12f6 10       		.byte	0x10
 6765 12f7 63010000 		.4byte	0x163
 6766 12fb 21030000 		.4byte	.LLST143
 6767 12ff 0D030000 		.4byte	.LVUS143
 6768 1303 27       		.uleb128 0x27
 6769 1304 FA0E0000 		.4byte	.LASF97
 6770 1308 01       		.byte	0x1
 6771 1309 9504     		.2byte	0x495
 6772 130b 0A       		.byte	0xa
 6773 130c 6C000000 		.4byte	0x6c
 6774 1310 A2030000 		.4byte	.LLST144
 6775 1314 9A030000 		.4byte	.LVUS144
 6776 1318 28       		.uleb128 0x28
 6777 1319 F9100000 		.4byte	.LASF231
 6778 131d 01       		.byte	0x1
 6779 131e 9604     		.2byte	0x496
 6780 1320 0A       		.byte	0xa
 6781 1321 6C000000 		.4byte	0x6c
 6782 1325 00       		.byte	0
 6783 1326 28       		.uleb128 0x28
ARM GAS  /tmp/ccqyZH0w.s 			page 120


 6784 1327 E30A0000 		.4byte	.LASF232
 6785 132b 01       		.byte	0x1
 6786 132c 9704     		.2byte	0x497
 6787 132e 0A       		.byte	0xa
 6788 132f 6C000000 		.4byte	0x6c
 6789 1333 00       		.byte	0
 6790 1334 2C       		.uleb128 0x2c
 6791 1335 82020000 		.4byte	.LASF239
 6792 1339 01       		.byte	0x1
 6793 133a 9804     		.2byte	0x498
 6794 133c 0A       		.byte	0xa
 6795 133d 6C000000 		.4byte	0x6c
 6796 1341 02       		.uleb128 0x2
 6797 1342 91       		.byte	0x91
 6798 1343 5B       		.sleb128 -37
 6799 1344 29       		.uleb128 0x29
 6800 1345 28000000 		.4byte	.LVL321
 6801 1349 93300000 		.4byte	0x3093
 6802 134d 62130000 		.4byte	0x1362
 6803 1351 2A       		.uleb128 0x2a
 6804 1352 01       		.uleb128 0x1
 6805 1353 50       		.byte	0x50
 6806 1354 02       		.uleb128 0x2
 6807 1355 75       		.byte	0x75
 6808 1356 00       		.sleb128 0
 6809 1357 2A       		.uleb128 0x2a
 6810 1358 01       		.uleb128 0x1
 6811 1359 51       		.byte	0x51
 6812 135a 01       		.uleb128 0x1
 6813 135b 31       		.byte	0x31
 6814 135c 2A       		.uleb128 0x2a
 6815 135d 01       		.uleb128 0x1
 6816 135e 52       		.byte	0x52
 6817 135f 01       		.uleb128 0x1
 6818 1360 32       		.byte	0x32
 6819 1361 00       		.byte	0
 6820 1362 29       		.uleb128 0x29
 6821 1363 4E000000 		.4byte	.LVL327
 6822 1367 A5170000 		.4byte	0x17a5
 6823 136b 7C130000 		.4byte	0x137c
 6824 136f 2A       		.uleb128 0x2a
 6825 1370 01       		.uleb128 0x1
 6826 1371 50       		.byte	0x50
 6827 1372 02       		.uleb128 0x2
 6828 1373 75       		.byte	0x75
 6829 1374 00       		.sleb128 0
 6830 1375 2A       		.uleb128 0x2a
 6831 1376 01       		.uleb128 0x1
 6832 1377 51       		.byte	0x51
 6833 1378 02       		.uleb128 0x2
 6834 1379 74       		.byte	0x74
 6835 137a 00       		.sleb128 0
 6836 137b 00       		.byte	0
 6837 137c 29       		.uleb128 0x29
 6838 137d 6A000000 		.4byte	.LVL330
 6839 1381 93300000 		.4byte	0x3093
 6840 1385 9B130000 		.4byte	0x139b
ARM GAS  /tmp/ccqyZH0w.s 			page 121


 6841 1389 2A       		.uleb128 0x2a
 6842 138a 01       		.uleb128 0x1
 6843 138b 50       		.byte	0x50
 6844 138c 02       		.uleb128 0x2
 6845 138d 75       		.byte	0x75
 6846 138e 00       		.sleb128 0
 6847 138f 2A       		.uleb128 0x2a
 6848 1390 01       		.uleb128 0x1
 6849 1391 51       		.byte	0x51
 6850 1392 01       		.uleb128 0x1
 6851 1393 31       		.byte	0x31
 6852 1394 2A       		.uleb128 0x2a
 6853 1395 01       		.uleb128 0x1
 6854 1396 52       		.byte	0x52
 6855 1397 02       		.uleb128 0x2
 6856 1398 78       		.byte	0x78
 6857 1399 00       		.sleb128 0
 6858 139a 00       		.byte	0
 6859 139b 29       		.uleb128 0x29
 6860 139c 8E000000 		.4byte	.LVL332
 6861 13a0 6D150000 		.4byte	0x156d
 6862 13a4 DD130000 		.4byte	0x13dd
 6863 13a8 2A       		.uleb128 0x2a
 6864 13a9 01       		.uleb128 0x1
 6865 13aa 50       		.byte	0x50
 6866 13ab 02       		.uleb128 0x2
 6867 13ac 75       		.byte	0x75
 6868 13ad 00       		.sleb128 0
 6869 13ae 2A       		.uleb128 0x2a
 6870 13af 01       		.uleb128 0x1
 6871 13b0 51       		.byte	0x51
 6872 13b1 02       		.uleb128 0x2
 6873 13b2 79       		.byte	0x79
 6874 13b3 00       		.sleb128 0
 6875 13b4 2A       		.uleb128 0x2a
 6876 13b5 01       		.uleb128 0x1
 6877 13b6 52       		.byte	0x52
 6878 13b7 02       		.uleb128 0x2
 6879 13b8 74       		.byte	0x74
 6880 13b9 00       		.sleb128 0
 6881 13ba 2A       		.uleb128 0x2a
 6882 13bb 01       		.uleb128 0x1
 6883 13bc 53       		.byte	0x53
 6884 13bd 02       		.uleb128 0x2
 6885 13be 74       		.byte	0x74
 6886 13bf 00       		.sleb128 0
 6887 13c0 2A       		.uleb128 0x2a
 6888 13c1 02       		.uleb128 0x2
 6889 13c2 7D       		.byte	0x7d
 6890 13c3 00       		.sleb128 0
 6891 13c4 02       		.uleb128 0x2
 6892 13c5 91       		.byte	0x91
 6893 13c6 5B       		.sleb128 -37
 6894 13c7 2A       		.uleb128 0x2a
 6895 13c8 02       		.uleb128 0x2
 6896 13c9 7D       		.byte	0x7d
 6897 13ca 04       		.sleb128 4
ARM GAS  /tmp/ccqyZH0w.s 			page 122


 6898 13cb 02       		.uleb128 0x2
 6899 13cc 77       		.byte	0x77
 6900 13cd 00       		.sleb128 0
 6901 13ce 2A       		.uleb128 0x2a
 6902 13cf 02       		.uleb128 0x2
 6903 13d0 7D       		.byte	0x7d
 6904 13d1 08       		.sleb128 8
 6905 13d2 02       		.uleb128 0x2
 6906 13d3 74       		.byte	0x74
 6907 13d4 00       		.sleb128 0
 6908 13d5 2A       		.uleb128 0x2a
 6909 13d6 02       		.uleb128 0x2
 6910 13d7 7D       		.byte	0x7d
 6911 13d8 0C       		.sleb128 12
 6912 13d9 02       		.uleb128 0x2
 6913 13da 79       		.byte	0x79
 6914 13db 00       		.sleb128 0
 6915 13dc 00       		.byte	0
 6916 13dd 2B       		.uleb128 0x2b
 6917 13de 9A000000 		.4byte	.LVL334
 6918 13e2 8A300000 		.4byte	0x308a
 6919 13e6 00       		.byte	0
 6920 13e7 24       		.uleb128 0x24
 6921 13e8 4E0D0000 		.4byte	.LASF240
 6922 13ec 01       		.byte	0x1
 6923 13ed 6304     		.2byte	0x463
 6924 13ef 0F       		.byte	0xf
 6925 13f0 63010000 		.4byte	0x163
 6926 13f4 00000000 		.4byte	.LFB21
 6927 13f8 B4000000 		.4byte	.LFE21-.LFB21
 6928 13fc 01       		.uleb128 0x1
 6929 13fd 9C       		.byte	0x9c
 6930 13fe 6D150000 		.4byte	0x156d
 6931 1402 25       		.uleb128 0x25
 6932 1403 44657600 		.ascii	"Dev\000"
 6933 1407 01       		.byte	0x1
 6934 1408 6304     		.2byte	0x463
 6935 140a 3B       		.byte	0x3b
 6936 140b 950F0000 		.4byte	0xf95
 6937 140f E0030000 		.4byte	.LLST133
 6938 1413 D8030000 		.4byte	.LVUS133
 6939 1417 26       		.uleb128 0x26
 6940 1418 E0090000 		.4byte	.LASF228
 6941 141c 01       		.byte	0x1
 6942 141d 6404     		.2byte	0x464
 6943 141f 0B       		.byte	0xb
 6944 1420 AA060000 		.4byte	0x6aa
 6945 1424 1C040000 		.4byte	.LLST134
 6946 1428 14040000 		.4byte	.LVUS134
 6947 142c 26       		.uleb128 0x26
 6948 142d CA100000 		.4byte	.LASF236
 6949 1431 01       		.byte	0x1
 6950 1432 6404     		.2byte	0x464
 6951 1434 27       		.byte	0x27
 6952 1435 78000000 		.4byte	0x78
 6953 1439 54040000 		.4byte	.LLST135
 6954 143d 50040000 		.4byte	.LVUS135
ARM GAS  /tmp/ccqyZH0w.s 			page 123


 6955 1441 26       		.uleb128 0x26
 6956 1442 44070000 		.4byte	.LASF238
 6957 1446 01       		.byte	0x1
 6958 1447 6504     		.2byte	0x465
 6959 1449 10       		.byte	0x10
 6960 144a 78000000 		.4byte	0x78
 6961 144e 7D040000 		.4byte	.LLST136
 6962 1452 75040000 		.4byte	.LVUS136
 6963 1456 27       		.uleb128 0x27
 6964 1457 C7010000 		.4byte	.LASF230
 6965 145b 01       		.byte	0x1
 6966 145c 6704     		.2byte	0x467
 6967 145e 10       		.byte	0x10
 6968 145f 63010000 		.4byte	0x163
 6969 1463 CB040000 		.4byte	.LLST137
 6970 1467 B7040000 		.4byte	.LVUS137
 6971 146b 27       		.uleb128 0x27
 6972 146c FA0E0000 		.4byte	.LASF97
 6973 1470 01       		.byte	0x1
 6974 1471 6804     		.2byte	0x468
 6975 1473 0A       		.byte	0xa
 6976 1474 6C000000 		.4byte	0x6c
 6977 1478 4C050000 		.4byte	.LLST138
 6978 147c 44050000 		.4byte	.LVUS138
 6979 1480 28       		.uleb128 0x28
 6980 1481 F9100000 		.4byte	.LASF231
 6981 1485 01       		.byte	0x1
 6982 1486 6904     		.2byte	0x469
 6983 1488 0A       		.byte	0xa
 6984 1489 6C000000 		.4byte	0x6c
 6985 148d 00       		.byte	0
 6986 148e 28       		.uleb128 0x28
 6987 148f E30A0000 		.4byte	.LASF232
 6988 1493 01       		.byte	0x1
 6989 1494 6A04     		.2byte	0x46a
 6990 1496 0A       		.byte	0xa
 6991 1497 6C000000 		.4byte	0x6c
 6992 149b 00       		.byte	0
 6993 149c 2C       		.uleb128 0x2c
 6994 149d A7140000 		.4byte	.LASF241
 6995 14a1 01       		.byte	0x1
 6996 14a2 6B04     		.2byte	0x46b
 6997 14a4 0A       		.byte	0xa
 6998 14a5 6C000000 		.4byte	0x6c
 6999 14a9 02       		.uleb128 0x2
 7000 14aa 91       		.byte	0x91
 7001 14ab 5B       		.sleb128 -37
 7002 14ac 29       		.uleb128 0x29
 7003 14ad 2E000000 		.4byte	.LVL298
 7004 14b1 93300000 		.4byte	0x3093
 7005 14b5 CA140000 		.4byte	0x14ca
 7006 14b9 2A       		.uleb128 0x2a
 7007 14ba 01       		.uleb128 0x1
 7008 14bb 50       		.byte	0x50
 7009 14bc 02       		.uleb128 0x2
 7010 14bd 75       		.byte	0x75
 7011 14be 00       		.sleb128 0
ARM GAS  /tmp/ccqyZH0w.s 			page 124


 7012 14bf 2A       		.uleb128 0x2a
 7013 14c0 01       		.uleb128 0x1
 7014 14c1 51       		.byte	0x51
 7015 14c2 01       		.uleb128 0x1
 7016 14c3 31       		.byte	0x31
 7017 14c4 2A       		.uleb128 0x2a
 7018 14c5 01       		.uleb128 0x1
 7019 14c6 52       		.byte	0x52
 7020 14c7 01       		.uleb128 0x1
 7021 14c8 31       		.byte	0x31
 7022 14c9 00       		.byte	0
 7023 14ca 29       		.uleb128 0x29
 7024 14cb 54000000 		.4byte	.LVL305
 7025 14cf 93300000 		.4byte	0x3093
 7026 14d3 E8140000 		.4byte	0x14e8
 7027 14d7 2A       		.uleb128 0x2a
 7028 14d8 01       		.uleb128 0x1
 7029 14d9 50       		.byte	0x50
 7030 14da 02       		.uleb128 0x2
 7031 14db 75       		.byte	0x75
 7032 14dc 00       		.sleb128 0
 7033 14dd 2A       		.uleb128 0x2a
 7034 14de 01       		.uleb128 0x1
 7035 14df 51       		.byte	0x51
 7036 14e0 01       		.uleb128 0x1
 7037 14e1 31       		.byte	0x31
 7038 14e2 2A       		.uleb128 0x2a
 7039 14e3 01       		.uleb128 0x1
 7040 14e4 52       		.byte	0x52
 7041 14e5 01       		.uleb128 0x1
 7042 14e6 31       		.byte	0x31
 7043 14e7 00       		.byte	0
 7044 14e8 29       		.uleb128 0x29
 7045 14e9 62000000 		.4byte	.LVL307
 7046 14ed A5170000 		.4byte	0x17a5
 7047 14f1 02150000 		.4byte	0x1502
 7048 14f5 2A       		.uleb128 0x2a
 7049 14f6 01       		.uleb128 0x1
 7050 14f7 50       		.byte	0x50
 7051 14f8 02       		.uleb128 0x2
 7052 14f9 75       		.byte	0x75
 7053 14fa 00       		.sleb128 0
 7054 14fb 2A       		.uleb128 0x2a
 7055 14fc 01       		.uleb128 0x1
 7056 14fd 51       		.byte	0x51
 7057 14fe 02       		.uleb128 0x2
 7058 14ff 08       		.byte	0x8
 7059 1500 40       		.byte	0x40
 7060 1501 00       		.byte	0
 7061 1502 29       		.uleb128 0x29
 7062 1503 7E000000 		.4byte	.LVL310
 7063 1507 93300000 		.4byte	0x3093
 7064 150b 21150000 		.4byte	0x1521
 7065 150f 2A       		.uleb128 0x2a
 7066 1510 01       		.uleb128 0x1
 7067 1511 50       		.byte	0x50
 7068 1512 02       		.uleb128 0x2
ARM GAS  /tmp/ccqyZH0w.s 			page 125


 7069 1513 75       		.byte	0x75
 7070 1514 00       		.sleb128 0
 7071 1515 2A       		.uleb128 0x2a
 7072 1516 01       		.uleb128 0x1
 7073 1517 51       		.byte	0x51
 7074 1518 01       		.uleb128 0x1
 7075 1519 31       		.byte	0x31
 7076 151a 2A       		.uleb128 0x2a
 7077 151b 01       		.uleb128 0x1
 7078 151c 52       		.byte	0x52
 7079 151d 02       		.uleb128 0x2
 7080 151e 78       		.byte	0x78
 7081 151f 00       		.sleb128 0
 7082 1520 00       		.byte	0
 7083 1521 29       		.uleb128 0x29
 7084 1522 A2000000 		.4byte	.LVL312
 7085 1526 6D150000 		.4byte	0x156d
 7086 152a 63150000 		.4byte	0x1563
 7087 152e 2A       		.uleb128 0x2a
 7088 152f 01       		.uleb128 0x1
 7089 1530 50       		.byte	0x50
 7090 1531 02       		.uleb128 0x2
 7091 1532 75       		.byte	0x75
 7092 1533 00       		.sleb128 0
 7093 1534 2A       		.uleb128 0x2a
 7094 1535 01       		.uleb128 0x1
 7095 1536 51       		.byte	0x51
 7096 1537 02       		.uleb128 0x2
 7097 1538 79       		.byte	0x79
 7098 1539 00       		.sleb128 0
 7099 153a 2A       		.uleb128 0x2a
 7100 153b 01       		.uleb128 0x1
 7101 153c 52       		.byte	0x52
 7102 153d 02       		.uleb128 0x2
 7103 153e 74       		.byte	0x74
 7104 153f 00       		.sleb128 0
 7105 1540 2A       		.uleb128 0x2a
 7106 1541 01       		.uleb128 0x1
 7107 1542 53       		.byte	0x53
 7108 1543 02       		.uleb128 0x2
 7109 1544 74       		.byte	0x74
 7110 1545 00       		.sleb128 0
 7111 1546 2A       		.uleb128 0x2a
 7112 1547 02       		.uleb128 0x2
 7113 1548 7D       		.byte	0x7d
 7114 1549 00       		.sleb128 0
 7115 154a 02       		.uleb128 0x2
 7116 154b 77       		.byte	0x77
 7117 154c 00       		.sleb128 0
 7118 154d 2A       		.uleb128 0x2a
 7119 154e 02       		.uleb128 0x2
 7120 154f 7D       		.byte	0x7d
 7121 1550 04       		.sleb128 4
 7122 1551 02       		.uleb128 0x2
 7123 1552 91       		.byte	0x91
 7124 1553 5B       		.sleb128 -37
 7125 1554 2A       		.uleb128 0x2a
ARM GAS  /tmp/ccqyZH0w.s 			page 126


 7126 1555 02       		.uleb128 0x2
 7127 1556 7D       		.byte	0x7d
 7128 1557 08       		.sleb128 8
 7129 1558 02       		.uleb128 0x2
 7130 1559 79       		.byte	0x79
 7131 155a 00       		.sleb128 0
 7132 155b 2A       		.uleb128 0x2a
 7133 155c 02       		.uleb128 0x2
 7134 155d 7D       		.byte	0x7d
 7135 155e 0C       		.sleb128 12
 7136 155f 02       		.uleb128 0x2
 7137 1560 74       		.byte	0x74
 7138 1561 00       		.sleb128 0
 7139 1562 00       		.byte	0
 7140 1563 2B       		.uleb128 0x2b
 7141 1564 AE000000 		.4byte	.LVL314
 7142 1568 8A300000 		.4byte	0x308a
 7143 156c 00       		.byte	0
 7144 156d 24       		.uleb128 0x24
 7145 156e 05110000 		.4byte	.LASF242
 7146 1572 01       		.byte	0x1
 7147 1573 4004     		.2byte	0x440
 7148 1575 0F       		.byte	0xf
 7149 1576 63010000 		.4byte	0x163
 7150 157a 00000000 		.4byte	.LFB20
 7151 157e 0C010000 		.4byte	.LFE20-.LFB20
 7152 1582 01       		.uleb128 0x1
 7153 1583 9C       		.byte	0x9c
 7154 1584 A5170000 		.4byte	0x17a5
 7155 1588 25       		.uleb128 0x25
 7156 1589 44657600 		.ascii	"Dev\000"
 7157 158d 01       		.byte	0x1
 7158 158e 4004     		.2byte	0x440
 7159 1590 36       		.byte	0x36
 7160 1591 950F0000 		.4byte	0xf95
 7161 1595 86050000 		.4byte	.LLST124
 7162 1599 82050000 		.4byte	.LVUS124
 7163 159d 26       		.uleb128 0x26
 7164 159e CE010000 		.4byte	.LASF243
 7165 15a2 01       		.byte	0x1
 7166 15a3 4004     		.2byte	0x440
 7167 15a5 43       		.byte	0x43
 7168 15a6 6C000000 		.4byte	0x6c
 7169 15aa A8050000 		.4byte	.LLST125
 7170 15ae A4050000 		.4byte	.LVUS125
 7171 15b2 26       		.uleb128 0x26
 7172 15b3 F9100000 		.4byte	.LASF231
 7173 15b7 01       		.byte	0x1
 7174 15b8 4104     		.2byte	0x441
 7175 15ba 0A       		.byte	0xa
 7176 15bb 6C000000 		.4byte	0x6c
 7177 15bf CD050000 		.4byte	.LLST126
 7178 15c3 C9050000 		.4byte	.LVUS126
 7179 15c7 26       		.uleb128 0x26
 7180 15c8 E30A0000 		.4byte	.LASF232
 7181 15cc 01       		.byte	0x1
 7182 15cd 4104     		.2byte	0x441
ARM GAS  /tmp/ccqyZH0w.s 			page 127


 7183 15cf 1F       		.byte	0x1f
 7184 15d0 6C000000 		.4byte	0x6c
 7185 15d4 F2050000 		.4byte	.LLST127
 7186 15d8 EE050000 		.4byte	.LVUS127
 7187 15dc 26       		.uleb128 0x26
 7188 15dd E0090000 		.4byte	.LASF228
 7189 15e1 01       		.byte	0x1
 7190 15e2 4204     		.2byte	0x442
 7191 15e4 0B       		.byte	0xb
 7192 15e5 AA060000 		.4byte	0x6aa
 7193 15e9 17060000 		.4byte	.LLST128
 7194 15ed 13060000 		.4byte	.LVUS128
 7195 15f1 26       		.uleb128 0x26
 7196 15f2 6F040000 		.4byte	.LASF229
 7197 15f6 01       		.byte	0x1
 7198 15f7 4204     		.2byte	0x442
 7199 15f9 22       		.byte	0x22
 7200 15fa AA060000 		.4byte	0x6aa
 7201 15fe 3B060000 		.4byte	.LLST129
 7202 1602 37060000 		.4byte	.LVUS129
 7203 1606 26       		.uleb128 0x26
 7204 1607 480F0000 		.4byte	.LASF244
 7205 160b 01       		.byte	0x1
 7206 160c 4304     		.2byte	0x443
 7207 160e 10       		.byte	0x10
 7208 160f 78000000 		.4byte	0x78
 7209 1613 5F060000 		.4byte	.LLST130
 7210 1617 5B060000 		.4byte	.LVUS130
 7211 161b 26       		.uleb128 0x26
 7212 161c FA010000 		.4byte	.LASF245
 7213 1620 01       		.byte	0x1
 7214 1621 4304     		.2byte	0x443
 7215 1623 2A       		.byte	0x2a
 7216 1624 78000000 		.4byte	0x78
 7217 1628 83060000 		.4byte	.LLST131
 7218 162c 7F060000 		.4byte	.LVUS131
 7219 1630 27       		.uleb128 0x27
 7220 1631 C7010000 		.4byte	.LASF230
 7221 1635 01       		.byte	0x1
 7222 1636 4504     		.2byte	0x445
 7223 1638 10       		.byte	0x10
 7224 1639 63010000 		.4byte	0x163
 7225 163d B1060000 		.4byte	.LLST132
 7226 1641 A3060000 		.4byte	.LVUS132
 7227 1645 2C       		.uleb128 0x2c
 7228 1646 DB0D0000 		.4byte	.LASF246
 7229 164a 01       		.byte	0x1
 7230 164b 4604     		.2byte	0x446
 7231 164d 0A       		.byte	0xa
 7232 164e 6C000000 		.4byte	0x6c
 7233 1652 02       		.uleb128 0x2
 7234 1653 91       		.byte	0x91
 7235 1654 53       		.sleb128 -45
 7236 1655 29       		.uleb128 0x29
 7237 1656 38000000 		.4byte	.LVL267
 7238 165a 93300000 		.4byte	0x3093
 7239 165e 74160000 		.4byte	0x1674
ARM GAS  /tmp/ccqyZH0w.s 			page 128


 7240 1662 2A       		.uleb128 0x2a
 7241 1663 01       		.uleb128 0x1
 7242 1664 50       		.byte	0x50
 7243 1665 02       		.uleb128 0x2
 7244 1666 75       		.byte	0x75
 7245 1667 00       		.sleb128 0
 7246 1668 2A       		.uleb128 0x2a
 7247 1669 01       		.uleb128 0x1
 7248 166a 51       		.byte	0x51
 7249 166b 02       		.uleb128 0x2
 7250 166c 09       		.byte	0x9
 7251 166d FF       		.byte	0xff
 7252 166e 2A       		.uleb128 0x2a
 7253 166f 01       		.uleb128 0x1
 7254 1670 52       		.byte	0x52
 7255 1671 01       		.uleb128 0x1
 7256 1672 31       		.byte	0x31
 7257 1673 00       		.byte	0
 7258 1674 29       		.uleb128 0x29
 7259 1675 44000000 		.4byte	.LVL269
 7260 1679 93300000 		.4byte	0x3093
 7261 167d 94160000 		.4byte	0x1694
 7262 1681 2A       		.uleb128 0x2a
 7263 1682 01       		.uleb128 0x1
 7264 1683 50       		.byte	0x50
 7265 1684 02       		.uleb128 0x2
 7266 1685 75       		.byte	0x75
 7267 1686 00       		.sleb128 0
 7268 1687 2A       		.uleb128 0x2a
 7269 1688 01       		.uleb128 0x1
 7270 1689 51       		.byte	0x51
 7271 168a 02       		.uleb128 0x2
 7272 168b 7A       		.byte	0x7a
 7273 168c 00       		.sleb128 0
 7274 168d 2A       		.uleb128 0x2a
 7275 168e 01       		.uleb128 0x1
 7276 168f 52       		.byte	0x52
 7277 1690 02       		.uleb128 0x2
 7278 1691 7A       		.byte	0x7a
 7279 1692 00       		.sleb128 0
 7280 1693 00       		.byte	0
 7281 1694 29       		.uleb128 0x29
 7282 1695 50000000 		.4byte	.LVL271
 7283 1699 93300000 		.4byte	0x3093
 7284 169d B4160000 		.4byte	0x16b4
 7285 16a1 2A       		.uleb128 0x2a
 7286 16a2 01       		.uleb128 0x1
 7287 16a3 50       		.byte	0x50
 7288 16a4 02       		.uleb128 0x2
 7289 16a5 75       		.byte	0x75
 7290 16a6 00       		.sleb128 0
 7291 16a7 2A       		.uleb128 0x2a
 7292 16a8 01       		.uleb128 0x1
 7293 16a9 51       		.byte	0x51
 7294 16aa 02       		.uleb128 0x2
 7295 16ab 09       		.byte	0x9
 7296 16ac FF       		.byte	0xff
ARM GAS  /tmp/ccqyZH0w.s 			page 129


 7297 16ad 2A       		.uleb128 0x2a
 7298 16ae 01       		.uleb128 0x1
 7299 16af 52       		.byte	0x52
 7300 16b0 02       		.uleb128 0x2
 7301 16b1 7A       		.byte	0x7a
 7302 16b2 00       		.sleb128 0
 7303 16b3 00       		.byte	0
 7304 16b4 29       		.uleb128 0x29
 7305 16b5 6E000000 		.4byte	.LVL274
 7306 16b9 93300000 		.4byte	0x3093
 7307 16bd D3160000 		.4byte	0x16d3
 7308 16c1 2A       		.uleb128 0x2a
 7309 16c2 01       		.uleb128 0x1
 7310 16c3 50       		.byte	0x50
 7311 16c4 02       		.uleb128 0x2
 7312 16c5 75       		.byte	0x75
 7313 16c6 00       		.sleb128 0
 7314 16c7 2A       		.uleb128 0x2a
 7315 16c8 01       		.uleb128 0x1
 7316 16c9 51       		.byte	0x51
 7317 16ca 02       		.uleb128 0x2
 7318 16cb 09       		.byte	0x9
 7319 16cc FF       		.byte	0xff
 7320 16cd 2A       		.uleb128 0x2a
 7321 16ce 01       		.uleb128 0x1
 7322 16cf 52       		.byte	0x52
 7323 16d0 01       		.uleb128 0x1
 7324 16d1 31       		.byte	0x31
 7325 16d2 00       		.byte	0
 7326 16d3 29       		.uleb128 0x29
 7327 16d4 7A000000 		.4byte	.LVL276
 7328 16d8 93300000 		.4byte	0x3093
 7329 16dc F2160000 		.4byte	0x16f2
 7330 16e0 2A       		.uleb128 0x2a
 7331 16e1 01       		.uleb128 0x1
 7332 16e2 50       		.byte	0x50
 7333 16e3 02       		.uleb128 0x2
 7334 16e4 75       		.byte	0x75
 7335 16e5 00       		.sleb128 0
 7336 16e6 2A       		.uleb128 0x2a
 7337 16e7 01       		.uleb128 0x1
 7338 16e8 51       		.byte	0x51
 7339 16e9 02       		.uleb128 0x2
 7340 16ea 7A       		.byte	0x7a
 7341 16eb 00       		.sleb128 0
 7342 16ec 2A       		.uleb128 0x2a
 7343 16ed 01       		.uleb128 0x1
 7344 16ee 52       		.byte	0x52
 7345 16ef 01       		.uleb128 0x1
 7346 16f0 31       		.byte	0x31
 7347 16f1 00       		.byte	0
 7348 16f2 29       		.uleb128 0x29
 7349 16f3 88000000 		.4byte	.LVL279
 7350 16f7 93300000 		.4byte	0x3093
 7351 16fb 12170000 		.4byte	0x1712
 7352 16ff 2A       		.uleb128 0x2a
 7353 1700 01       		.uleb128 0x1
ARM GAS  /tmp/ccqyZH0w.s 			page 130


 7354 1701 50       		.byte	0x50
 7355 1702 02       		.uleb128 0x2
 7356 1703 75       		.byte	0x75
 7357 1704 00       		.sleb128 0
 7358 1705 2A       		.uleb128 0x2a
 7359 1706 01       		.uleb128 0x1
 7360 1707 51       		.byte	0x51
 7361 1708 02       		.uleb128 0x2
 7362 1709 09       		.byte	0x9
 7363 170a FF       		.byte	0xff
 7364 170b 2A       		.uleb128 0x2a
 7365 170c 01       		.uleb128 0x1
 7366 170d 52       		.byte	0x52
 7367 170e 02       		.uleb128 0x2
 7368 170f 7A       		.byte	0x7a
 7369 1710 00       		.sleb128 0
 7370 1711 00       		.byte	0
 7371 1712 29       		.uleb128 0x29
 7372 1713 C2000000 		.4byte	.LVL283
 7373 1717 9F300000 		.4byte	0x309f
 7374 171b 3A170000 		.4byte	0x173a
 7375 171f 2A       		.uleb128 0x2a
 7376 1720 01       		.uleb128 0x1
 7377 1721 50       		.byte	0x50
 7378 1722 02       		.uleb128 0x2
 7379 1723 75       		.byte	0x75
 7380 1724 00       		.sleb128 0
 7381 1725 2A       		.uleb128 0x2a
 7382 1726 01       		.uleb128 0x1
 7383 1727 51       		.byte	0x51
 7384 1728 02       		.uleb128 0x2
 7385 1729 09       		.byte	0x9
 7386 172a EE       		.byte	0xee
 7387 172b 2A       		.uleb128 0x2a
 7388 172c 01       		.uleb128 0x1
 7389 172d 52       		.byte	0x52
 7390 172e 02       		.uleb128 0x2
 7391 172f 09       		.byte	0x9
 7392 1730 80       		.byte	0x80
 7393 1731 2A       		.uleb128 0x2a
 7394 1732 01       		.uleb128 0x1
 7395 1733 53       		.byte	0x53
 7396 1734 04       		.uleb128 0x4
 7397 1735 7D       		.byte	0x7d
 7398 1736 00       		.sleb128 0
 7399 1737 94       		.byte	0x94
 7400 1738 01       		.byte	0x1
 7401 1739 00       		.byte	0
 7402 173a 29       		.uleb128 0x29
 7403 173b D2000000 		.4byte	.LVL285
 7404 173f AB300000 		.4byte	0x30ab
 7405 1743 5B170000 		.4byte	0x175b
 7406 1747 2A       		.uleb128 0x2a
 7407 1748 01       		.uleb128 0x1
 7408 1749 50       		.byte	0x50
 7409 174a 02       		.uleb128 0x2
 7410 174b 75       		.byte	0x75
ARM GAS  /tmp/ccqyZH0w.s 			page 131


 7411 174c 00       		.sleb128 0
 7412 174d 2A       		.uleb128 0x2a
 7413 174e 01       		.uleb128 0x1
 7414 174f 51       		.byte	0x51
 7415 1750 02       		.uleb128 0x2
 7416 1751 09       		.byte	0x9
 7417 1752 CB       		.byte	0xcb
 7418 1753 2A       		.uleb128 0x2a
 7419 1754 01       		.uleb128 0x1
 7420 1755 52       		.byte	0x52
 7421 1756 03       		.uleb128 0x3
 7422 1757 91       		.byte	0x91
 7423 1758 4C       		.sleb128 -52
 7424 1759 06       		.byte	0x6
 7425 175a 00       		.byte	0
 7426 175b 29       		.uleb128 0x29
 7427 175c E8000000 		.4byte	.LVL287
 7428 1760 AB300000 		.4byte	0x30ab
 7429 1764 7B170000 		.4byte	0x177b
 7430 1768 2A       		.uleb128 0x2a
 7431 1769 01       		.uleb128 0x1
 7432 176a 50       		.byte	0x50
 7433 176b 02       		.uleb128 0x2
 7434 176c 75       		.byte	0x75
 7435 176d 00       		.sleb128 0
 7436 176e 2A       		.uleb128 0x2a
 7437 176f 01       		.uleb128 0x1
 7438 1770 51       		.byte	0x51
 7439 1771 02       		.uleb128 0x2
 7440 1772 09       		.byte	0x9
 7441 1773 EE       		.byte	0xee
 7442 1774 2A       		.uleb128 0x2a
 7443 1775 01       		.uleb128 0x1
 7444 1776 52       		.byte	0x52
 7445 1777 02       		.uleb128 0x2
 7446 1778 91       		.byte	0x91
 7447 1779 53       		.sleb128 -45
 7448 177a 00       		.byte	0
 7449 177b 29       		.uleb128 0x29
 7450 177c F8000000 		.4byte	.LVL289
 7451 1780 93300000 		.4byte	0x3093
 7452 1784 9B170000 		.4byte	0x179b
 7453 1788 2A       		.uleb128 0x2a
 7454 1789 01       		.uleb128 0x1
 7455 178a 50       		.byte	0x50
 7456 178b 02       		.uleb128 0x2
 7457 178c 75       		.byte	0x75
 7458 178d 00       		.sleb128 0
 7459 178e 2A       		.uleb128 0x2a
 7460 178f 01       		.uleb128 0x1
 7461 1790 51       		.byte	0x51
 7462 1791 02       		.uleb128 0x2
 7463 1792 09       		.byte	0x9
 7464 1793 CB       		.byte	0xcb
 7465 1794 2A       		.uleb128 0x2a
 7466 1795 01       		.uleb128 0x1
 7467 1796 52       		.byte	0x52
ARM GAS  /tmp/ccqyZH0w.s 			page 132


 7468 1797 02       		.uleb128 0x2
 7469 1798 77       		.byte	0x77
 7470 1799 00       		.sleb128 0
 7471 179a 00       		.byte	0
 7472 179b 2B       		.uleb128 0x2b
 7473 179c 08010000 		.4byte	.LVL292
 7474 17a0 8A300000 		.4byte	0x308a
 7475 17a4 00       		.byte	0
 7476 17a5 2D       		.uleb128 0x2d
 7477 17a6 210F0000 		.4byte	.LASF292
 7478 17aa 01       		.byte	0x1
 7479 17ab 2904     		.2byte	0x429
 7480 17ad 0F       		.byte	0xf
 7481 17ae 63010000 		.4byte	0x163
 7482 17b2 01       		.byte	0x1
 7483 17b3 DF170000 		.4byte	0x17df
 7484 17b7 2E       		.uleb128 0x2e
 7485 17b8 44657600 		.ascii	"Dev\000"
 7486 17bc 01       		.byte	0x1
 7487 17bd 2904     		.2byte	0x429
 7488 17bf 42       		.byte	0x42
 7489 17c0 950F0000 		.4byte	0xf95
 7490 17c4 2F       		.uleb128 0x2f
 7491 17c5 33050000 		.4byte	.LASF247
 7492 17c9 01       		.byte	0x1
 7493 17ca 2A04     		.2byte	0x42a
 7494 17cc 0B       		.byte	0xb
 7495 17cd 6C000000 		.4byte	0x6c
 7496 17d1 30       		.uleb128 0x30
 7497 17d2 C7010000 		.4byte	.LASF230
 7498 17d6 01       		.byte	0x1
 7499 17d7 2C04     		.2byte	0x42c
 7500 17d9 10       		.byte	0x10
 7501 17da 63010000 		.4byte	0x163
 7502 17de 00       		.byte	0
 7503 17df 24       		.uleb128 0x24
 7504 17e0 1B170000 		.4byte	.LASF248
 7505 17e4 01       		.byte	0x1
 7506 17e5 F203     		.2byte	0x3f2
 7507 17e7 0F       		.byte	0xf
 7508 17e8 63010000 		.4byte	0x163
 7509 17ec 00000000 		.4byte	.LFB18
 7510 17f0 88000000 		.4byte	.LFE18-.LFB18
 7511 17f4 01       		.uleb128 0x1
 7512 17f5 9C       		.byte	0x9c
 7513 17f6 43190000 		.4byte	0x1943
 7514 17fa 25       		.uleb128 0x25
 7515 17fb 44657600 		.ascii	"Dev\000"
 7516 17ff 01       		.byte	0x1
 7517 1800 F203     		.2byte	0x3f2
 7518 1802 37       		.byte	0x37
 7519 1803 950F0000 		.4byte	0xf95
 7520 1807 14070000 		.4byte	.LLST112
 7521 180b 0C070000 		.4byte	.LVUS112
 7522 180f 26       		.uleb128 0x26
 7523 1810 C5080000 		.4byte	.LASF249
 7524 1814 01       		.byte	0x1
ARM GAS  /tmp/ccqyZH0w.s 			page 133


 7525 1815 F303     		.2byte	0x3f3
 7526 1817 0E       		.byte	0xe
 7527 1818 43190000 		.4byte	0x1943
 7528 181c 50070000 		.4byte	.LLST113
 7529 1820 48070000 		.4byte	.LVUS113
 7530 1824 26       		.uleb128 0x26
 7531 1825 2E090000 		.4byte	.LASF250
 7532 1829 01       		.byte	0x1
 7533 182a F303     		.2byte	0x3f3
 7534 182c 23       		.byte	0x23
 7535 182d AA060000 		.4byte	0x6aa
 7536 1831 8C070000 		.4byte	.LLST114
 7537 1835 84070000 		.4byte	.LVUS114
 7538 1839 27       		.uleb128 0x27
 7539 183a C7010000 		.4byte	.LASF230
 7540 183e 01       		.byte	0x1
 7541 183f F503     		.2byte	0x3f5
 7542 1841 10       		.byte	0x10
 7543 1842 63010000 		.4byte	0x163
 7544 1846 CA070000 		.4byte	.LLST115
 7545 184a C0070000 		.4byte	.LVUS115
 7546 184e 27       		.uleb128 0x27
 7547 184f AC130000 		.4byte	.LASF251
 7548 1853 01       		.byte	0x1
 7549 1854 F603     		.2byte	0x3f6
 7550 1856 0A       		.byte	0xa
 7551 1857 6C000000 		.4byte	0x6c
 7552 185b 13080000 		.4byte	.LLST116
 7553 185f 0B080000 		.4byte	.LVUS116
 7554 1863 2C       		.uleb128 0x2c
 7555 1864 CB120000 		.4byte	.LASF252
 7556 1868 01       		.byte	0x1
 7557 1869 F703     		.2byte	0x3f7
 7558 186b 0A       		.byte	0xa
 7559 186c 3C020000 		.4byte	0x23c
 7560 1870 02       		.uleb128 0x2
 7561 1871 91       		.byte	0x91
 7562 1872 5C       		.sleb128 -36
 7563 1873 28       		.uleb128 0x28
 7564 1874 10180000 		.4byte	.LASF253
 7565 1878 01       		.byte	0x1
 7566 1879 F803     		.2byte	0x3f8
 7567 187b 0B       		.byte	0xb
 7568 187c 97000000 		.4byte	0x97
 7569 1880 2C       		.byte	0x2c
 7570 1881 28       		.uleb128 0x28
 7571 1882 160E0000 		.4byte	.LASF254
 7572 1886 01       		.byte	0x1
 7573 1887 F903     		.2byte	0x3f9
 7574 1889 0B       		.byte	0xb
 7575 188a 97000000 		.4byte	0x97
 7576 188e 06       		.byte	0x6
 7577 188f 2C       		.uleb128 0x2c
 7578 1890 B8080000 		.4byte	.LASF255
 7579 1894 01       		.byte	0x1
 7580 1895 FA03     		.2byte	0x3fa
 7581 1897 0B       		.byte	0xb
ARM GAS  /tmp/ccqyZH0w.s 			page 134


 7582 1898 97000000 		.4byte	0x97
 7583 189c 02       		.uleb128 0x2
 7584 189d 91       		.byte	0x91
 7585 189e 58       		.sleb128 -40
 7586 189f 2C       		.uleb128 0x2c
 7587 18a0 250E0000 		.4byte	.LASF256
 7588 18a4 01       		.byte	0x1
 7589 18a5 FB03     		.2byte	0x3fb
 7590 18a7 0A       		.byte	0xa
 7591 18a8 6C000000 		.4byte	0x6c
 7592 18ac 02       		.uleb128 0x2
 7593 18ad 91       		.byte	0x91
 7594 18ae 57       		.sleb128 -41
 7595 18af 31       		.uleb128 0x31
 7596 18b0 F3240000 		.4byte	0x24f3
 7597 18b4 40000000 		.4byte	.LBI44
 7598 18b8 0100     		.2byte	.LVU774
 7599 18ba 40000000 		.4byte	.LBB44
 7600 18be 0A000000 		.4byte	.LBE44-.LBB44
 7601 18c2 01       		.byte	0x1
 7602 18c3 0904     		.2byte	0x409
 7603 18c5 0C       		.byte	0xc
 7604 18c6 0D190000 		.4byte	0x190d
 7605 18ca 32       		.uleb128 0x32
 7606 18cb 12250000 		.4byte	0x2512
 7607 18cf 51080000 		.4byte	.LLST117
 7608 18d3 4B080000 		.4byte	.LVUS117
 7609 18d7 32       		.uleb128 0x32
 7610 18d8 05250000 		.4byte	0x2505
 7611 18dc 82080000 		.4byte	.LLST118
 7612 18e0 7E080000 		.4byte	.LVUS118
 7613 18e4 33       		.uleb128 0x33
 7614 18e5 1F250000 		.4byte	0x251f
 7615 18e9 A2080000 		.4byte	.LLST119
 7616 18ed A0080000 		.4byte	.LVUS119
 7617 18f1 34       		.uleb128 0x34
 7618 18f2 4A000000 		.4byte	.LVL243
 7619 18f6 B7300000 		.4byte	0x30b7
 7620 18fa 2A       		.uleb128 0x2a
 7621 18fb 01       		.uleb128 0x1
 7622 18fc 51       		.byte	0x51
 7623 18fd 02       		.uleb128 0x2
 7624 18fe 09       		.byte	0x9
 7625 18ff B0       		.byte	0xb0
 7626 1900 2A       		.uleb128 0x2a
 7627 1901 01       		.uleb128 0x1
 7628 1902 52       		.byte	0x52
 7629 1903 02       		.uleb128 0x2
 7630 1904 91       		.byte	0x91
 7631 1905 5C       		.sleb128 -36
 7632 1906 2A       		.uleb128 0x2a
 7633 1907 01       		.uleb128 0x1
 7634 1908 53       		.byte	0x53
 7635 1909 01       		.uleb128 0x1
 7636 190a 36       		.byte	0x36
 7637 190b 00       		.byte	0
 7638 190c 00       		.byte	0
ARM GAS  /tmp/ccqyZH0w.s 			page 135


 7639 190d 29       		.uleb128 0x29
 7640 190e 60000000 		.4byte	.LVL245
 7641 1912 67250000 		.4byte	0x2567
 7642 1916 39190000 		.4byte	0x1939
 7643 191a 2A       		.uleb128 0x2a
 7644 191b 01       		.uleb128 0x1
 7645 191c 50       		.byte	0x50
 7646 191d 02       		.uleb128 0x2
 7647 191e 91       		.byte	0x91
 7648 191f 5C       		.sleb128 -36
 7649 1920 2A       		.uleb128 0x2a
 7650 1921 01       		.uleb128 0x1
 7651 1922 51       		.byte	0x51
 7652 1923 01       		.uleb128 0x1
 7653 1924 36       		.byte	0x36
 7654 1925 2A       		.uleb128 0x2a
 7655 1926 01       		.uleb128 0x1
 7656 1927 52       		.byte	0x52
 7657 1928 02       		.uleb128 0x2
 7658 1929 08       		.byte	0x8
 7659 192a 2C       		.byte	0x2c
 7660 192b 2A       		.uleb128 0x2a
 7661 192c 01       		.uleb128 0x1
 7662 192d 53       		.byte	0x53
 7663 192e 02       		.uleb128 0x2
 7664 192f 91       		.byte	0x91
 7665 1930 58       		.sleb128 -40
 7666 1931 2A       		.uleb128 0x2a
 7667 1932 02       		.uleb128 0x2
 7668 1933 7D       		.byte	0x7d
 7669 1934 00       		.sleb128 0
 7670 1935 02       		.uleb128 0x2
 7671 1936 91       		.byte	0x91
 7672 1937 57       		.sleb128 -41
 7673 1938 00       		.byte	0
 7674 1939 2B       		.uleb128 0x2b
 7675 193a 82000000 		.4byte	.LVL246
 7676 193e 8A300000 		.4byte	0x308a
 7677 1942 00       		.byte	0
 7678 1943 0F       		.uleb128 0xf
 7679 1944 04       		.byte	0x4
 7680 1945 97000000 		.4byte	0x97
 7681 1949 24       		.uleb128 0x24
 7682 194a E3050000 		.4byte	.LASF257
 7683 194e 01       		.byte	0x1
 7684 194f AF03     		.2byte	0x3af
 7685 1951 0F       		.byte	0xf
 7686 1952 63010000 		.4byte	0x163
 7687 1956 00000000 		.4byte	.LFB17
 7688 195a CC000000 		.4byte	.LFE17-.LFB17
 7689 195e 01       		.uleb128 0x1
 7690 195f 9C       		.byte	0x9c
 7691 1960 421B0000 		.4byte	0x1b42
 7692 1964 25       		.uleb128 0x25
 7693 1965 44657600 		.ascii	"Dev\000"
 7694 1969 01       		.byte	0x1
 7695 196a AF03     		.2byte	0x3af
ARM GAS  /tmp/ccqyZH0w.s 			page 136


 7696 196c 37       		.byte	0x37
 7697 196d 950F0000 		.4byte	0xf95
 7698 1971 B9080000 		.4byte	.LLST103
 7699 1975 B5080000 		.4byte	.LVUS103
 7700 1979 26       		.uleb128 0x26
 7701 197a 44090000 		.4byte	.LASF258
 7702 197e 01       		.byte	0x1
 7703 197f B003     		.2byte	0x3b0
 7704 1981 0F       		.byte	0xf
 7705 1982 97000000 		.4byte	0x97
 7706 1986 DB080000 		.4byte	.LLST104
 7707 198a D7080000 		.4byte	.LVUS104
 7708 198e 26       		.uleb128 0x26
 7709 198f 250E0000 		.4byte	.LASF256
 7710 1993 01       		.byte	0x1
 7711 1994 B003     		.2byte	0x3b0
 7712 1996 1E       		.byte	0x1e
 7713 1997 6C000000 		.4byte	0x6c
 7714 199b FD080000 		.4byte	.LLST105
 7715 199f F9080000 		.4byte	.LVUS105
 7716 19a3 27       		.uleb128 0x27
 7717 19a4 C7010000 		.4byte	.LASF230
 7718 19a8 01       		.byte	0x1
 7719 19a9 B203     		.2byte	0x3b2
 7720 19ab 10       		.byte	0x10
 7721 19ac 63010000 		.4byte	0x163
 7722 19b0 2E090000 		.4byte	.LLST106
 7723 19b4 1E090000 		.4byte	.LVUS106
 7724 19b8 27       		.uleb128 0x27
 7725 19b9 6E010000 		.4byte	.LASF259
 7726 19bd 01       		.byte	0x1
 7727 19be B303     		.2byte	0x3b3
 7728 19c0 0B       		.byte	0xb
 7729 19c1 97000000 		.4byte	0x97
 7730 19c5 9B090000 		.4byte	.LLST107
 7731 19c9 8F090000 		.4byte	.LVUS107
 7732 19cd 35       		.uleb128 0x35
 7733 19ce AC070000 		.4byte	.LASF260
 7734 19d2 01       		.byte	0x1
 7735 19d3 B403     		.2byte	0x3b4
 7736 19d5 0A       		.byte	0xa
 7737 19d6 6C000000 		.4byte	0x6c
 7738 19da B47F     		.sleb128 -76
 7739 19dc 28       		.uleb128 0x28
 7740 19dd E70D0000 		.4byte	.LASF261
 7741 19e1 01       		.byte	0x1
 7742 19e2 B503     		.2byte	0x3b5
 7743 19e4 0B       		.byte	0xb
 7744 19e5 97000000 		.4byte	0x97
 7745 19e9 06       		.byte	0x6
 7746 19ea 28       		.uleb128 0x28
 7747 19eb D9110000 		.4byte	.LASF262
 7748 19ef 01       		.byte	0x1
 7749 19f0 B603     		.2byte	0x3b6
 7750 19f2 0B       		.byte	0xb
 7751 19f3 97000000 		.4byte	0x97
 7752 19f7 2C       		.byte	0x2c
ARM GAS  /tmp/ccqyZH0w.s 			page 137


 7753 19f8 2C       		.uleb128 0x2c
 7754 19f9 F30C0000 		.4byte	.LASF263
 7755 19fd 01       		.byte	0x1
 7756 19fe B703     		.2byte	0x3b7
 7757 1a00 0B       		.byte	0xb
 7758 1a01 97000000 		.4byte	0x97
 7759 1a05 02       		.uleb128 0x2
 7760 1a06 91       		.byte	0x91
 7761 1a07 68       		.sleb128 -24
 7762 1a08 27       		.uleb128 0x27
 7763 1a09 20020000 		.4byte	.LASF264
 7764 1a0d 01       		.byte	0x1
 7765 1a0e B803     		.2byte	0x3b8
 7766 1a10 0B       		.byte	0xb
 7767 1a11 97000000 		.4byte	0x97
 7768 1a15 F9090000 		.4byte	.LLST108
 7769 1a19 E9090000 		.4byte	.LVUS108
 7770 1a1d 36       		.uleb128 0x36
 7771 1a1e 04270000 		.4byte	0x2704
 7772 1a22 2A000000 		.4byte	.LBI38
 7773 1a26 0100     		.2byte	.LVU687
 7774 1a28 38000000 		.4byte	.Ldebug_ranges0+0x38
 7775 1a2c 01       		.byte	0x1
 7776 1a2d D803     		.2byte	0x3d8
 7777 1a2f 0B       		.byte	0xb
 7778 1a30 621A0000 		.4byte	0x1a62
 7779 1a34 32       		.uleb128 0x32
 7780 1a35 16270000 		.4byte	0x2716
 7781 1a39 670A0000 		.4byte	.LLST109
 7782 1a3d 610A0000 		.4byte	.LVUS109
 7783 1a41 37       		.uleb128 0x37
 7784 1a42 38000000 		.4byte	.Ldebug_ranges0+0x38
 7785 1a46 33       		.uleb128 0x33
 7786 1a47 23270000 		.4byte	0x2723
 7787 1a4b 9D0A0000 		.4byte	.LLST110
 7788 1a4f 970A0000 		.4byte	.LVUS110
 7789 1a53 33       		.uleb128 0x33
 7790 1a54 30270000 		.4byte	0x2730
 7791 1a58 D50A0000 		.4byte	.LLST111
 7792 1a5c CD0A0000 		.4byte	.LVUS111
 7793 1a60 00       		.byte	0
 7794 1a61 00       		.byte	0
 7795 1a62 29       		.uleb128 0x29
 7796 1a63 1C000000 		.4byte	.LVL211
 7797 1a67 93300000 		.4byte	0x3093
 7798 1a6b 811A0000 		.4byte	0x1a81
 7799 1a6f 2A       		.uleb128 0x2a
 7800 1a70 01       		.uleb128 0x1
 7801 1a71 50       		.byte	0x50
 7802 1a72 02       		.uleb128 0x2
 7803 1a73 74       		.byte	0x74
 7804 1a74 00       		.sleb128 0
 7805 1a75 2A       		.uleb128 0x2a
 7806 1a76 01       		.uleb128 0x1
 7807 1a77 51       		.byte	0x51
 7808 1a78 02       		.uleb128 0x2
 7809 1a79 09       		.byte	0x9
ARM GAS  /tmp/ccqyZH0w.s 			page 138


 7810 1a7a FF       		.byte	0xff
 7811 1a7b 2A       		.uleb128 0x2a
 7812 1a7c 01       		.uleb128 0x1
 7813 1a7d 52       		.byte	0x52
 7814 1a7e 01       		.uleb128 0x1
 7815 1a7f 31       		.byte	0x31
 7816 1a80 00       		.byte	0
 7817 1a81 29       		.uleb128 0x29
 7818 1a82 50000000 		.4byte	.LVL217
 7819 1a86 EF210000 		.4byte	0x21ef
 7820 1a8a C41A0000 		.4byte	0x1ac4
 7821 1a8e 2A       		.uleb128 0x2a
 7822 1a8f 01       		.uleb128 0x1
 7823 1a90 50       		.byte	0x50
 7824 1a91 02       		.uleb128 0x2
 7825 1a92 74       		.byte	0x74
 7826 1a93 00       		.sleb128 0
 7827 1a94 2A       		.uleb128 0x2a
 7828 1a95 01       		.uleb128 0x1
 7829 1a96 51       		.byte	0x51
 7830 1a97 02       		.uleb128 0x2
 7831 1a98 75       		.byte	0x75
 7832 1a99 00       		.sleb128 0
 7833 1a9a 2A       		.uleb128 0x2a
 7834 1a9b 01       		.uleb128 0x1
 7835 1a9c 52       		.byte	0x52
 7836 1a9d 03       		.uleb128 0x3
 7837 1a9e 74       		.byte	0x74
 7838 1a9f AA02     		.sleb128 298
 7839 1aa1 2A       		.uleb128 0x2a
 7840 1aa2 01       		.uleb128 0x1
 7841 1aa3 53       		.byte	0x53
 7842 1aa4 03       		.uleb128 0x3
 7843 1aa5 74       		.byte	0x74
 7844 1aa6 A402     		.sleb128 292
 7845 1aa8 2A       		.uleb128 0x2a
 7846 1aa9 02       		.uleb128 0x2
 7847 1aaa 7D       		.byte	0x7d
 7848 1aab 00       		.sleb128 0
 7849 1aac 01       		.uleb128 0x1
 7850 1aad 36       		.byte	0x36
 7851 1aae 2A       		.uleb128 0x2a
 7852 1aaf 02       		.uleb128 0x2
 7853 1ab0 7D       		.byte	0x7d
 7854 1ab1 04       		.sleb128 4
 7855 1ab2 02       		.uleb128 0x2
 7856 1ab3 08       		.byte	0x8
 7857 1ab4 B4       		.byte	0xb4
 7858 1ab5 2A       		.uleb128 0x2a
 7859 1ab6 02       		.uleb128 0x2
 7860 1ab7 7D       		.byte	0x7d
 7861 1ab8 0C       		.sleb128 12
 7862 1ab9 02       		.uleb128 0x2
 7863 1aba 76       		.byte	0x76
 7864 1abb 00       		.sleb128 0
 7865 1abc 2A       		.uleb128 0x2a
 7866 1abd 02       		.uleb128 0x2
ARM GAS  /tmp/ccqyZH0w.s 			page 139


 7867 1abe 7D       		.byte	0x7d
 7868 1abf 10       		.sleb128 16
 7869 1ac0 02       		.uleb128 0x2
 7870 1ac1 91       		.byte	0x91
 7871 1ac2 68       		.sleb128 -24
 7872 1ac3 00       		.byte	0
 7873 1ac4 29       		.uleb128 0x29
 7874 1ac5 94000000 		.4byte	.LVL225
 7875 1ac9 93300000 		.4byte	0x3093
 7876 1acd DE1A0000 		.4byte	0x1ade
 7877 1ad1 2A       		.uleb128 0x2a
 7878 1ad2 01       		.uleb128 0x1
 7879 1ad3 50       		.byte	0x50
 7880 1ad4 02       		.uleb128 0x2
 7881 1ad5 74       		.byte	0x74
 7882 1ad6 00       		.sleb128 0
 7883 1ad7 2A       		.uleb128 0x2a
 7884 1ad8 01       		.uleb128 0x1
 7885 1ad9 51       		.byte	0x51
 7886 1ada 02       		.uleb128 0x2
 7887 1adb 08       		.byte	0x8
 7888 1adc 4F       		.byte	0x4f
 7889 1add 00       		.byte	0
 7890 1ade 29       		.uleb128 0x29
 7891 1adf A2000000 		.4byte	.LVL227
 7892 1ae3 93300000 		.4byte	0x3093
 7893 1ae7 FE1A0000 		.4byte	0x1afe
 7894 1aeb 2A       		.uleb128 0x2a
 7895 1aec 01       		.uleb128 0x1
 7896 1aed 50       		.byte	0x50
 7897 1aee 02       		.uleb128 0x2
 7898 1aef 74       		.byte	0x74
 7899 1af0 00       		.sleb128 0
 7900 1af1 2A       		.uleb128 0x2a
 7901 1af2 01       		.uleb128 0x1
 7902 1af3 51       		.byte	0x51
 7903 1af4 02       		.uleb128 0x2
 7904 1af5 08       		.byte	0x8
 7905 1af6 4E       		.byte	0x4e
 7906 1af7 2A       		.uleb128 0x2a
 7907 1af8 01       		.uleb128 0x1
 7908 1af9 52       		.byte	0x52
 7909 1afa 02       		.uleb128 0x2
 7910 1afb 08       		.byte	0x8
 7911 1afc 2C       		.byte	0x2c
 7912 1afd 00       		.byte	0
 7913 1afe 29       		.uleb128 0x29
 7914 1aff B0000000 		.4byte	.LVL229
 7915 1b03 93300000 		.4byte	0x3093
 7916 1b07 181B0000 		.4byte	0x1b18
 7917 1b0b 2A       		.uleb128 0x2a
 7918 1b0c 01       		.uleb128 0x1
 7919 1b0d 50       		.byte	0x50
 7920 1b0e 02       		.uleb128 0x2
 7921 1b0f 74       		.byte	0x74
 7922 1b10 00       		.sleb128 0
 7923 1b11 2A       		.uleb128 0x2a
ARM GAS  /tmp/ccqyZH0w.s 			page 140


 7924 1b12 01       		.uleb128 0x1
 7925 1b13 51       		.byte	0x51
 7926 1b14 02       		.uleb128 0x2
 7927 1b15 09       		.byte	0x9
 7928 1b16 FF       		.byte	0xff
 7929 1b17 00       		.byte	0
 7930 1b18 29       		.uleb128 0x29
 7931 1b19 BE000000 		.4byte	.LVL231
 7932 1b1d 93300000 		.4byte	0x3093
 7933 1b21 381B0000 		.4byte	0x1b38
 7934 1b25 2A       		.uleb128 0x2a
 7935 1b26 01       		.uleb128 0x1
 7936 1b27 50       		.byte	0x50
 7937 1b28 02       		.uleb128 0x2
 7938 1b29 74       		.byte	0x74
 7939 1b2a 00       		.sleb128 0
 7940 1b2b 2A       		.uleb128 0x2a
 7941 1b2c 01       		.uleb128 0x1
 7942 1b2d 51       		.byte	0x51
 7943 1b2e 02       		.uleb128 0x2
 7944 1b2f 09       		.byte	0x9
 7945 1b30 B6       		.byte	0xb6
 7946 1b31 2A       		.uleb128 0x2a
 7947 1b32 01       		.uleb128 0x1
 7948 1b33 52       		.byte	0x52
 7949 1b34 02       		.uleb128 0x2
 7950 1b35 09       		.byte	0x9
 7951 1b36 B4       		.byte	0xb4
 7952 1b37 00       		.byte	0
 7953 1b38 2B       		.uleb128 0x2b
 7954 1b39 C4000000 		.4byte	.LVL233
 7955 1b3d 8A300000 		.4byte	0x308a
 7956 1b41 00       		.byte	0
 7957 1b42 24       		.uleb128 0x24
 7958 1b43 B70D0000 		.4byte	.LASF265
 7959 1b47 01       		.byte	0x1
 7960 1b48 A402     		.2byte	0x2a4
 7961 1b4a 0F       		.byte	0xf
 7962 1b4b 63010000 		.4byte	0x163
 7963 1b4f 00000000 		.4byte	.LFB16
 7964 1b53 A4020000 		.4byte	.LFE16-.LFB16
 7965 1b57 01       		.uleb128 0x1
 7966 1b58 9C       		.byte	0x9c
 7967 1b59 AF200000 		.4byte	0x20af
 7968 1b5d 25       		.uleb128 0x25
 7969 1b5e 44657600 		.ascii	"Dev\000"
 7970 1b62 01       		.byte	0x1
 7971 1b63 A402     		.2byte	0x2a4
 7972 1b65 3F       		.byte	0x3f
 7973 1b66 950F0000 		.4byte	0xf95
 7974 1b6a 110B0000 		.4byte	.LLST151
 7975 1b6e 0D0B0000 		.4byte	.LVUS151
 7976 1b72 26       		.uleb128 0x26
 7977 1b73 630A0000 		.4byte	.LASF266
 7978 1b77 01       		.byte	0x1
 7979 1b78 A502     		.2byte	0x2a5
 7980 1b7a 0F       		.byte	0xf
ARM GAS  /tmp/ccqyZH0w.s 			page 141


 7981 1b7b 43190000 		.4byte	0x1943
 7982 1b7f 350B0000 		.4byte	.LLST152
 7983 1b83 2F0B0000 		.4byte	.LVUS152
 7984 1b87 26       		.uleb128 0x26
 7985 1b88 250E0000 		.4byte	.LASF256
 7986 1b8c 01       		.byte	0x1
 7987 1b8d A602     		.2byte	0x2a6
 7988 1b8f 0E       		.byte	0xe
 7989 1b90 AA060000 		.4byte	0x6aa
 7990 1b94 640B0000 		.4byte	.LLST153
 7991 1b98 600B0000 		.4byte	.LVUS153
 7992 1b9c 27       		.uleb128 0x27
 7993 1b9d C7010000 		.4byte	.LASF230
 7994 1ba1 01       		.byte	0x1
 7995 1ba2 A802     		.2byte	0x2a8
 7996 1ba4 10       		.byte	0x10
 7997 1ba5 63010000 		.4byte	0x163
 7998 1ba9 B40B0000 		.4byte	.LLST154
 7999 1bad 840B0000 		.4byte	.LVUS154
 8000 1bb1 2C       		.uleb128 0x2c
 8001 1bb2 94060000 		.4byte	.LASF267
 8002 1bb6 01       		.byte	0x1
 8003 1bb7 A902     		.2byte	0x2a9
 8004 1bb9 0A       		.byte	0xa
 8005 1bba 3C020000 		.4byte	0x23c
 8006 1bbe 02       		.uleb128 0x2
 8007 1bbf 91       		.byte	0x91
 8008 1bc0 4C       		.sleb128 -52
 8009 1bc1 35       		.uleb128 0x35
 8010 1bc2 AC070000 		.4byte	.LASF260
 8011 1bc6 01       		.byte	0x1
 8012 1bc7 AA02     		.2byte	0x2aa
 8013 1bc9 0A       		.byte	0xa
 8014 1bca 6C000000 		.4byte	0x6c
 8015 1bce B47F     		.sleb128 -76
 8016 1bd0 28       		.uleb128 0x28
 8017 1bd1 B0030000 		.4byte	.LASF268
 8018 1bd5 01       		.byte	0x1
 8019 1bd6 AB02     		.2byte	0x2ab
 8020 1bd8 0B       		.byte	0xb
 8021 1bd9 97000000 		.4byte	0x97
 8022 1bdd 03       		.byte	0x3
 8023 1bde 28       		.uleb128 0x28
 8024 1bdf D9110000 		.4byte	.LASF262
 8025 1be3 01       		.byte	0x1
 8026 1be4 AC02     		.2byte	0x2ac
 8027 1be6 0B       		.byte	0xb
 8028 1be7 97000000 		.4byte	0x97
 8029 1beb 2C       		.byte	0x2c
 8030 1bec 27       		.uleb128 0x27
 8031 1bed 6E010000 		.4byte	.LASF259
 8032 1bf1 01       		.byte	0x1
 8033 1bf2 AD02     		.2byte	0x2ad
 8034 1bf4 0B       		.byte	0xb
 8035 1bf5 97000000 		.4byte	0x97
 8036 1bf9 E50C0000 		.4byte	.LLST155
 8037 1bfd C90C0000 		.4byte	.LVUS155
ARM GAS  /tmp/ccqyZH0w.s 			page 142


 8038 1c01 2C       		.uleb128 0x2c
 8039 1c02 F30C0000 		.4byte	.LASF263
 8040 1c06 01       		.byte	0x1
 8041 1c07 AE02     		.2byte	0x2ae
 8042 1c09 0B       		.byte	0xb
 8043 1c0a 97000000 		.4byte	0x97
 8044 1c0e 02       		.uleb128 0x2
 8045 1c0f 91       		.byte	0x91
 8046 1c10 44       		.sleb128 -60
 8047 1c11 2C       		.uleb128 0x2c
 8048 1c12 AE120000 		.4byte	.LASF269
 8049 1c16 01       		.byte	0x1
 8050 1c17 AF02     		.2byte	0x2af
 8051 1c19 0A       		.byte	0xa
 8052 1c1a 52000000 		.4byte	0x52
 8053 1c1e 02       		.uleb128 0x2
 8054 1c1f 91       		.byte	0x91
 8055 1c20 48       		.sleb128 -56
 8056 1c21 27       		.uleb128 0x27
 8057 1c22 9C050000 		.4byte	.LASF102
 8058 1c26 01       		.byte	0x1
 8059 1c27 B002     		.2byte	0x2b0
 8060 1c29 0B       		.byte	0xb
 8061 1c2a 84000000 		.4byte	0x84
 8062 1c2e 9B0D0000 		.4byte	.LLST156
 8063 1c32 970D0000 		.4byte	.LVUS156
 8064 1c36 2C       		.uleb128 0x2c
 8065 1c37 9A130000 		.4byte	.LASF270
 8066 1c3b 01       		.byte	0x1
 8067 1c3c B102     		.2byte	0x2b1
 8068 1c3e 0B       		.byte	0xb
 8069 1c3f 84000000 		.4byte	0x84
 8070 1c43 02       		.uleb128 0x2
 8071 1c44 91       		.byte	0x91
 8072 1c45 42       		.sleb128 -62
 8073 1c46 27       		.uleb128 0x27
 8074 1c47 0B030000 		.4byte	.LASF271
 8075 1c4b 01       		.byte	0x1
 8076 1c4c B202     		.2byte	0x2b2
 8077 1c4e 0B       		.byte	0xb
 8078 1c4f 97000000 		.4byte	0x97
 8079 1c53 C80D0000 		.4byte	.LLST157
 8080 1c57 BC0D0000 		.4byte	.LVUS157
 8081 1c5b 27       		.uleb128 0x27
 8082 1c5c 20020000 		.4byte	.LASF264
 8083 1c60 01       		.byte	0x1
 8084 1c61 B302     		.2byte	0x2b3
 8085 1c63 0B       		.byte	0xb
 8086 1c64 97000000 		.4byte	0x97
 8087 1c68 340E0000 		.4byte	.LLST158
 8088 1c6c 180E0000 		.4byte	.LVUS158
 8089 1c70 28       		.uleb128 0x28
 8090 1c71 E70D0000 		.4byte	.LASF261
 8091 1c75 01       		.byte	0x1
 8092 1c76 B402     		.2byte	0x2b4
 8093 1c78 0B       		.byte	0xb
 8094 1c79 97000000 		.4byte	0x97
ARM GAS  /tmp/ccqyZH0w.s 			page 143


 8095 1c7d 06       		.byte	0x6
 8096 1c7e 27       		.uleb128 0x27
 8097 1c7f 7C120000 		.4byte	.LASF272
 8098 1c83 01       		.byte	0x1
 8099 1c84 B502     		.2byte	0x2b5
 8100 1c86 0B       		.byte	0xb
 8101 1c87 97000000 		.4byte	0x97
 8102 1c8b F40E0000 		.4byte	.LLST159
 8103 1c8f E40E0000 		.4byte	.LVUS159
 8104 1c93 27       		.uleb128 0x27
 8105 1c94 67130000 		.4byte	.LASF273
 8106 1c98 01       		.byte	0x1
 8107 1c99 B602     		.2byte	0x2b6
 8108 1c9b 0B       		.byte	0xb
 8109 1c9c 97000000 		.4byte	0x97
 8110 1ca0 8D0F0000 		.4byte	.LLST160
 8111 1ca4 810F0000 		.4byte	.LVUS160
 8112 1ca8 27       		.uleb128 0x27
 8113 1ca9 07090000 		.4byte	.LASF274
 8114 1cad 01       		.byte	0x1
 8115 1cae B702     		.2byte	0x2b7
 8116 1cb0 0A       		.byte	0xa
 8117 1cb1 6C000000 		.4byte	0x6c
 8118 1cb5 E60F0000 		.4byte	.LLST161
 8119 1cb9 DC0F0000 		.4byte	.LVUS161
 8120 1cbd 2C       		.uleb128 0x2c
 8121 1cbe F9100000 		.4byte	.LASF231
 8122 1cc2 01       		.byte	0x1
 8123 1cc3 B802     		.2byte	0x2b8
 8124 1cc5 0A       		.byte	0xa
 8125 1cc6 6C000000 		.4byte	0x6c
 8126 1cca 02       		.uleb128 0x2
 8127 1ccb 91       		.byte	0x91
 8128 1ccc 40       		.sleb128 -64
 8129 1ccd 2C       		.uleb128 0x2c
 8130 1cce E30A0000 		.4byte	.LASF232
 8131 1cd2 01       		.byte	0x1
 8132 1cd3 B902     		.2byte	0x2b9
 8133 1cd5 0A       		.byte	0xa
 8134 1cd6 6C000000 		.4byte	0x6c
 8135 1cda 02       		.uleb128 0x2
 8136 1cdb 91       		.byte	0x91
 8137 1cdc 41       		.sleb128 -63
 8138 1cdd 27       		.uleb128 0x27
 8139 1cde 390A0000 		.4byte	.LASF275
 8140 1ce2 01       		.byte	0x1
 8141 1ce3 BA02     		.2byte	0x2ba
 8142 1ce5 0B       		.byte	0xb
 8143 1ce6 97000000 		.4byte	0x97
 8144 1cea 42100000 		.4byte	.LLST162
 8145 1cee 2A100000 		.4byte	.LVUS162
 8146 1cf2 27       		.uleb128 0x27
 8147 1cf3 CC130000 		.4byte	.LASF276
 8148 1cf7 01       		.byte	0x1
 8149 1cf8 BB02     		.2byte	0x2bb
 8150 1cfa 0B       		.byte	0xb
 8151 1cfb 6C000000 		.4byte	0x6c
ARM GAS  /tmp/ccqyZH0w.s 			page 144


 8152 1cff E6100000 		.4byte	.LLST163
 8153 1d03 D6100000 		.4byte	.LVUS163
 8154 1d07 36       		.uleb128 0x36
 8155 1d08 04270000 		.4byte	0x2704
 8156 1d0c 1A010000 		.4byte	.LBI52
 8157 1d10 0300     		.2byte	.LVU1183
 8158 1d12 70000000 		.4byte	.Ldebug_ranges0+0x70
 8159 1d16 01       		.byte	0x1
 8160 1d17 1D03     		.2byte	0x31d
 8161 1d19 0C       		.byte	0xc
 8162 1d1a 4C1D0000 		.4byte	0x1d4c
 8163 1d1e 32       		.uleb128 0x32
 8164 1d1f 16270000 		.4byte	0x2716
 8165 1d23 55110000 		.4byte	.LLST164
 8166 1d27 51110000 		.4byte	.LVUS164
 8167 1d2b 37       		.uleb128 0x37
 8168 1d2c 70000000 		.4byte	.Ldebug_ranges0+0x70
 8169 1d30 33       		.uleb128 0x33
 8170 1d31 23270000 		.4byte	0x2723
 8171 1d35 7D110000 		.4byte	.LLST165
 8172 1d39 79110000 		.4byte	.LVUS165
 8173 1d3d 33       		.uleb128 0x33
 8174 1d3e 30270000 		.4byte	0x2730
 8175 1d42 AD110000 		.4byte	.LLST166
 8176 1d46 A5110000 		.4byte	.LVUS166
 8177 1d4a 00       		.byte	0
 8178 1d4b 00       		.byte	0
 8179 1d4c 36       		.uleb128 0x36
 8180 1d4d 96260000 		.4byte	0x2696
 8181 1d51 B4010000 		.4byte	.LBI60
 8182 1d55 0200     		.2byte	.LVU1258
 8183 1d57 98000000 		.4byte	.Ldebug_ranges0+0x98
 8184 1d5b 01       		.byte	0x1
 8185 1d5c 6E03     		.2byte	0x36e
 8186 1d5e 0D       		.byte	0xd
 8187 1d5f BD1D0000 		.4byte	0x1dbd
 8188 1d63 32       		.uleb128 0x32
 8189 1d64 C2260000 		.4byte	0x26c2
 8190 1d68 E7110000 		.4byte	.LLST167
 8191 1d6c E5110000 		.4byte	.LVUS167
 8192 1d70 32       		.uleb128 0x32
 8193 1d71 B5260000 		.4byte	0x26b5
 8194 1d75 FC110000 		.4byte	.LLST168
 8195 1d79 FA110000 		.4byte	.LVUS168
 8196 1d7d 38       		.uleb128 0x38
 8197 1d7e A8260000 		.4byte	0x26a8
 8198 1d82 37       		.uleb128 0x37
 8199 1d83 98000000 		.4byte	.Ldebug_ranges0+0x98
 8200 1d87 33       		.uleb128 0x33
 8201 1d88 CF260000 		.4byte	0x26cf
 8202 1d8c 12120000 		.4byte	.LLST169
 8203 1d90 10120000 		.4byte	.LVUS169
 8204 1d94 33       		.uleb128 0x33
 8205 1d95 DC260000 		.4byte	0x26dc
 8206 1d99 2A120000 		.4byte	.LLST170
 8207 1d9d 26120000 		.4byte	.LVUS170
 8208 1da1 33       		.uleb128 0x33
ARM GAS  /tmp/ccqyZH0w.s 			page 145


 8209 1da2 E9260000 		.4byte	0x26e9
 8210 1da6 4C120000 		.4byte	.LLST171
 8211 1daa 4A120000 		.4byte	.LVUS171
 8212 1dae 33       		.uleb128 0x33
 8213 1daf F6260000 		.4byte	0x26f6
 8214 1db3 63120000 		.4byte	.LLST172
 8215 1db7 5F120000 		.4byte	.LVUS172
 8216 1dbb 00       		.byte	0
 8217 1dbc 00       		.byte	0
 8218 1dbd 36       		.uleb128 0x36
 8219 1dbe 04270000 		.4byte	0x2704
 8220 1dc2 98010000 		.4byte	.LBI66
 8221 1dc6 0100     		.2byte	.LVU1241
 8222 1dc8 C0000000 		.4byte	.Ldebug_ranges0+0xc0
 8223 1dcc 01       		.byte	0x1
 8224 1dcd 6203     		.2byte	0x362
 8225 1dcf 08       		.byte	0x8
 8226 1dd0 021E0000 		.4byte	0x1e02
 8227 1dd4 32       		.uleb128 0x32
 8228 1dd5 16270000 		.4byte	0x2716
 8229 1dd9 87120000 		.4byte	.LLST173
 8230 1ddd 85120000 		.4byte	.LVUS173
 8231 1de1 37       		.uleb128 0x37
 8232 1de2 C0000000 		.4byte	.Ldebug_ranges0+0xc0
 8233 1de6 33       		.uleb128 0x33
 8234 1de7 23270000 		.4byte	0x2723
 8235 1deb 9F120000 		.4byte	.LLST174
 8236 1def 9D120000 		.4byte	.LVUS174
 8237 1df3 33       		.uleb128 0x33
 8238 1df4 30270000 		.4byte	0x2730
 8239 1df8 BB120000 		.4byte	.LLST175
 8240 1dfc B7120000 		.4byte	.LVUS175
 8241 1e00 00       		.byte	0
 8242 1e01 00       		.byte	0
 8243 1e02 31       		.uleb128 0x31
 8244 1e03 2D250000 		.4byte	0x252d
 8245 1e07 CA010000 		.4byte	.LBI72
 8246 1e0b 0500     		.2byte	.LVU1278
 8247 1e0d CA010000 		.4byte	.LBB72
 8248 1e11 0C000000 		.4byte	.LBE72-.LBB72
 8249 1e15 01       		.byte	0x1
 8250 1e16 7603     		.2byte	0x376
 8251 1e18 0E       		.byte	0xe
 8252 1e19 661E0000 		.4byte	0x1e66
 8253 1e1d 32       		.uleb128 0x32
 8254 1e1e 4C250000 		.4byte	0x254c
 8255 1e22 EC120000 		.4byte	.LLST176
 8256 1e26 EA120000 		.4byte	.LVUS176
 8257 1e2a 32       		.uleb128 0x32
 8258 1e2b 3F250000 		.4byte	0x253f
 8259 1e2f 01130000 		.4byte	.LLST177
 8260 1e33 FF120000 		.4byte	.LVUS177
 8261 1e37 33       		.uleb128 0x33
 8262 1e38 59250000 		.4byte	0x2559
 8263 1e3c 16130000 		.4byte	.LLST178
 8264 1e40 14130000 		.4byte	.LVUS178
 8265 1e44 34       		.uleb128 0x34
ARM GAS  /tmp/ccqyZH0w.s 			page 146


 8266 1e45 D6010000 		.4byte	.LVL395
 8267 1e49 C3300000 		.4byte	0x30c3
 8268 1e4d 2A       		.uleb128 0x2a
 8269 1e4e 01       		.uleb128 0x1
 8270 1e4f 50       		.byte	0x50
 8271 1e50 02       		.uleb128 0x2
 8272 1e51 76       		.byte	0x76
 8273 1e52 00       		.sleb128 0
 8274 1e53 2A       		.uleb128 0x2a
 8275 1e54 01       		.uleb128 0x1
 8276 1e55 51       		.byte	0x51
 8277 1e56 02       		.uleb128 0x2
 8278 1e57 09       		.byte	0x9
 8279 1e58 B0       		.byte	0xb0
 8280 1e59 2A       		.uleb128 0x2a
 8281 1e5a 01       		.uleb128 0x1
 8282 1e5b 52       		.byte	0x52
 8283 1e5c 02       		.uleb128 0x2
 8284 1e5d 77       		.byte	0x77
 8285 1e5e 00       		.sleb128 0
 8286 1e5f 2A       		.uleb128 0x2a
 8287 1e60 01       		.uleb128 0x1
 8288 1e61 53       		.byte	0x53
 8289 1e62 01       		.uleb128 0x1
 8290 1e63 36       		.byte	0x36
 8291 1e64 00       		.byte	0
 8292 1e65 00       		.byte	0
 8293 1e66 36       		.uleb128 0x36
 8294 1e67 2D250000 		.4byte	0x252d
 8295 1e6b 34020000 		.4byte	.LBI74
 8296 1e6f 0100     		.2byte	.LVU1318
 8297 1e71 D8000000 		.4byte	.Ldebug_ranges0+0xd8
 8298 1e75 01       		.byte	0x1
 8299 1e76 8D03     		.2byte	0x38d
 8300 1e78 0F       		.byte	0xf
 8301 1e79 CC1E0000 		.4byte	0x1ecc
 8302 1e7d 32       		.uleb128 0x32
 8303 1e7e 4C250000 		.4byte	0x254c
 8304 1e82 2F130000 		.4byte	.LLST179
 8305 1e86 29130000 		.4byte	.LVUS179
 8306 1e8a 32       		.uleb128 0x32
 8307 1e8b 3F250000 		.4byte	0x253f
 8308 1e8f 5E130000 		.4byte	.LLST180
 8309 1e93 5C130000 		.4byte	.LVUS180
 8310 1e97 37       		.uleb128 0x37
 8311 1e98 D8000000 		.4byte	.Ldebug_ranges0+0xd8
 8312 1e9c 33       		.uleb128 0x33
 8313 1e9d 59250000 		.4byte	0x2559
 8314 1ea1 73130000 		.4byte	.LLST181
 8315 1ea5 71130000 		.4byte	.LVUS181
 8316 1ea9 34       		.uleb128 0x34
 8317 1eaa 40020000 		.4byte	.LVL408
 8318 1eae C3300000 		.4byte	0x30c3
 8319 1eb2 2A       		.uleb128 0x2a
 8320 1eb3 01       		.uleb128 0x1
 8321 1eb4 50       		.byte	0x50
 8322 1eb5 02       		.uleb128 0x2
ARM GAS  /tmp/ccqyZH0w.s 			page 147


 8323 1eb6 76       		.byte	0x76
 8324 1eb7 00       		.sleb128 0
 8325 1eb8 2A       		.uleb128 0x2a
 8326 1eb9 01       		.uleb128 0x1
 8327 1eba 51       		.byte	0x51
 8328 1ebb 02       		.uleb128 0x2
 8329 1ebc 09       		.byte	0x9
 8330 1ebd B0       		.byte	0xb0
 8331 1ebe 2A       		.uleb128 0x2a
 8332 1ebf 01       		.uleb128 0x1
 8333 1ec0 52       		.byte	0x52
 8334 1ec1 02       		.uleb128 0x2
 8335 1ec2 91       		.byte	0x91
 8336 1ec3 4C       		.sleb128 -52
 8337 1ec4 2A       		.uleb128 0x2a
 8338 1ec5 01       		.uleb128 0x1
 8339 1ec6 53       		.byte	0x53
 8340 1ec7 01       		.uleb128 0x1
 8341 1ec8 36       		.byte	0x36
 8342 1ec9 00       		.byte	0
 8343 1eca 00       		.byte	0
 8344 1ecb 00       		.byte	0
 8345 1ecc 29       		.uleb128 0x29
 8346 1ecd 3C000000 		.4byte	.LVL353
 8347 1ed1 93300000 		.4byte	0x3093
 8348 1ed5 EB1E0000 		.4byte	0x1eeb
 8349 1ed9 2A       		.uleb128 0x2a
 8350 1eda 01       		.uleb128 0x1
 8351 1edb 50       		.byte	0x50
 8352 1edc 02       		.uleb128 0x2
 8353 1edd 76       		.byte	0x76
 8354 1ede 00       		.sleb128 0
 8355 1edf 2A       		.uleb128 0x2a
 8356 1ee0 01       		.uleb128 0x1
 8357 1ee1 51       		.byte	0x51
 8358 1ee2 02       		.uleb128 0x2
 8359 1ee3 09       		.byte	0x9
 8360 1ee4 FF       		.byte	0xff
 8361 1ee5 2A       		.uleb128 0x2a
 8362 1ee6 01       		.uleb128 0x1
 8363 1ee7 52       		.byte	0x52
 8364 1ee8 01       		.uleb128 0x1
 8365 1ee9 31       		.byte	0x31
 8366 1eea 00       		.byte	0
 8367 1eeb 29       		.uleb128 0x29
 8368 1eec 5E000000 		.4byte	.LVL358
 8369 1ef0 93300000 		.4byte	0x3093
 8370 1ef4 0B1F0000 		.4byte	0x1f0b
 8371 1ef8 2A       		.uleb128 0x2a
 8372 1ef9 01       		.uleb128 0x1
 8373 1efa 50       		.byte	0x50
 8374 1efb 02       		.uleb128 0x2
 8375 1efc 76       		.byte	0x76
 8376 1efd 00       		.sleb128 0
 8377 1efe 2A       		.uleb128 0x2a
 8378 1eff 01       		.uleb128 0x1
 8379 1f00 51       		.byte	0x51
ARM GAS  /tmp/ccqyZH0w.s 			page 148


 8380 1f01 02       		.uleb128 0x2
 8381 1f02 08       		.byte	0x8
 8382 1f03 4F       		.byte	0x4f
 8383 1f04 2A       		.uleb128 0x2a
 8384 1f05 01       		.uleb128 0x1
 8385 1f06 52       		.byte	0x52
 8386 1f07 02       		.uleb128 0x2
 8387 1f08 75       		.byte	0x75
 8388 1f09 00       		.sleb128 0
 8389 1f0a 00       		.byte	0
 8390 1f0b 29       		.uleb128 0x29
 8391 1f0c 6E000000 		.4byte	.LVL360
 8392 1f10 93300000 		.4byte	0x3093
 8393 1f14 2B1F0000 		.4byte	0x1f2b
 8394 1f18 2A       		.uleb128 0x2a
 8395 1f19 01       		.uleb128 0x1
 8396 1f1a 50       		.byte	0x50
 8397 1f1b 02       		.uleb128 0x2
 8398 1f1c 76       		.byte	0x76
 8399 1f1d 00       		.sleb128 0
 8400 1f1e 2A       		.uleb128 0x2a
 8401 1f1f 01       		.uleb128 0x1
 8402 1f20 51       		.byte	0x51
 8403 1f21 02       		.uleb128 0x2
 8404 1f22 08       		.byte	0x8
 8405 1f23 4E       		.byte	0x4e
 8406 1f24 2A       		.uleb128 0x2a
 8407 1f25 01       		.uleb128 0x1
 8408 1f26 52       		.byte	0x52
 8409 1f27 02       		.uleb128 0x2
 8410 1f28 08       		.byte	0x8
 8411 1f29 2C       		.byte	0x2c
 8412 1f2a 00       		.byte	0
 8413 1f2b 29       		.uleb128 0x29
 8414 1f2c 7E000000 		.4byte	.LVL362
 8415 1f30 93300000 		.4byte	0x3093
 8416 1f34 4B1F0000 		.4byte	0x1f4b
 8417 1f38 2A       		.uleb128 0x2a
 8418 1f39 01       		.uleb128 0x1
 8419 1f3a 50       		.byte	0x50
 8420 1f3b 02       		.uleb128 0x2
 8421 1f3c 76       		.byte	0x76
 8422 1f3d 00       		.sleb128 0
 8423 1f3e 2A       		.uleb128 0x2a
 8424 1f3f 01       		.uleb128 0x1
 8425 1f40 51       		.byte	0x51
 8426 1f41 02       		.uleb128 0x2
 8427 1f42 09       		.byte	0x9
 8428 1f43 FF       		.byte	0xff
 8429 1f44 2A       		.uleb128 0x2a
 8430 1f45 01       		.uleb128 0x1
 8431 1f46 52       		.byte	0x52
 8432 1f47 02       		.uleb128 0x2
 8433 1f48 75       		.byte	0x75
 8434 1f49 00       		.sleb128 0
 8435 1f4a 00       		.byte	0
 8436 1f4b 29       		.uleb128 0x29
ARM GAS  /tmp/ccqyZH0w.s 			page 149


 8437 1f4c 8E000000 		.4byte	.LVL364
 8438 1f50 93300000 		.4byte	0x3093
 8439 1f54 6B1F0000 		.4byte	0x1f6b
 8440 1f58 2A       		.uleb128 0x2a
 8441 1f59 01       		.uleb128 0x1
 8442 1f5a 50       		.byte	0x50
 8443 1f5b 02       		.uleb128 0x2
 8444 1f5c 76       		.byte	0x76
 8445 1f5d 00       		.sleb128 0
 8446 1f5e 2A       		.uleb128 0x2a
 8447 1f5f 01       		.uleb128 0x1
 8448 1f60 51       		.byte	0x51
 8449 1f61 02       		.uleb128 0x2
 8450 1f62 09       		.byte	0x9
 8451 1f63 B6       		.byte	0xb6
 8452 1f64 2A       		.uleb128 0x2a
 8453 1f65 01       		.uleb128 0x1
 8454 1f66 52       		.byte	0x52
 8455 1f67 02       		.uleb128 0x2
 8456 1f68 09       		.byte	0x9
 8457 1f69 B4       		.byte	0xb4
 8458 1f6a 00       		.byte	0
 8459 1f6b 29       		.uleb128 0x29
 8460 1f6c 9E000000 		.4byte	.LVL366
 8461 1f70 93300000 		.4byte	0x3093
 8462 1f74 8B1F0000 		.4byte	0x1f8b
 8463 1f78 2A       		.uleb128 0x2a
 8464 1f79 01       		.uleb128 0x1
 8465 1f7a 50       		.byte	0x50
 8466 1f7b 02       		.uleb128 0x2
 8467 1f7c 76       		.byte	0x76
 8468 1f7d 00       		.sleb128 0
 8469 1f7e 2A       		.uleb128 0x2a
 8470 1f7f 01       		.uleb128 0x1
 8471 1f80 51       		.byte	0x51
 8472 1f81 02       		.uleb128 0x2
 8473 1f82 09       		.byte	0x9
 8474 1f83 80       		.byte	0x80
 8475 1f84 2A       		.uleb128 0x2a
 8476 1f85 01       		.uleb128 0x1
 8477 1f86 52       		.byte	0x52
 8478 1f87 02       		.uleb128 0x2
 8479 1f88 75       		.byte	0x75
 8480 1f89 00       		.sleb128 0
 8481 1f8a 00       		.byte	0
 8482 1f8b 29       		.uleb128 0x29
 8483 1f8c B2000000 		.4byte	.LVL368
 8484 1f90 77110000 		.4byte	0x1177
 8485 1f94 B11F0000 		.4byte	0x1fb1
 8486 1f98 2A       		.uleb128 0x2a
 8487 1f99 01       		.uleb128 0x1
 8488 1f9a 50       		.byte	0x50
 8489 1f9b 02       		.uleb128 0x2
 8490 1f9c 76       		.byte	0x76
 8491 1f9d 00       		.sleb128 0
 8492 1f9e 2A       		.uleb128 0x2a
 8493 1f9f 01       		.uleb128 0x1
ARM GAS  /tmp/ccqyZH0w.s 			page 150


 8494 1fa0 51       		.byte	0x51
 8495 1fa1 02       		.uleb128 0x2
 8496 1fa2 91       		.byte	0x91
 8497 1fa3 40       		.sleb128 -64
 8498 1fa4 2A       		.uleb128 0x2a
 8499 1fa5 01       		.uleb128 0x1
 8500 1fa6 52       		.byte	0x52
 8501 1fa7 02       		.uleb128 0x2
 8502 1fa8 91       		.byte	0x91
 8503 1fa9 41       		.sleb128 -63
 8504 1faa 2A       		.uleb128 0x2a
 8505 1fab 01       		.uleb128 0x1
 8506 1fac 53       		.byte	0x53
 8507 1fad 02       		.uleb128 0x2
 8508 1fae 75       		.byte	0x75
 8509 1faf 00       		.sleb128 0
 8510 1fb0 00       		.byte	0
 8511 1fb1 29       		.uleb128 0x29
 8512 1fb2 E0000000 		.4byte	.LVL370
 8513 1fb6 EF210000 		.4byte	0x21ef
 8514 1fba F81F0000 		.4byte	0x1ff8
 8515 1fbe 2A       		.uleb128 0x2a
 8516 1fbf 01       		.uleb128 0x1
 8517 1fc0 50       		.byte	0x50
 8518 1fc1 02       		.uleb128 0x2
 8519 1fc2 76       		.byte	0x76
 8520 1fc3 00       		.sleb128 0
 8521 1fc4 2A       		.uleb128 0x2a
 8522 1fc5 01       		.uleb128 0x1
 8523 1fc6 51       		.byte	0x51
 8524 1fc7 02       		.uleb128 0x2
 8525 1fc8 75       		.byte	0x75
 8526 1fc9 00       		.sleb128 0
 8527 1fca 2A       		.uleb128 0x2a
 8528 1fcb 01       		.uleb128 0x1
 8529 1fcc 52       		.byte	0x52
 8530 1fcd 02       		.uleb128 0x2
 8531 1fce 7B       		.byte	0x7b
 8532 1fcf 00       		.sleb128 0
 8533 1fd0 2A       		.uleb128 0x2a
 8534 1fd1 01       		.uleb128 0x1
 8535 1fd2 53       		.byte	0x53
 8536 1fd3 02       		.uleb128 0x2
 8537 1fd4 77       		.byte	0x77
 8538 1fd5 00       		.sleb128 0
 8539 1fd6 2A       		.uleb128 0x2a
 8540 1fd7 02       		.uleb128 0x2
 8541 1fd8 7D       		.byte	0x7d
 8542 1fd9 00       		.sleb128 0
 8543 1fda 01       		.uleb128 0x1
 8544 1fdb 36       		.byte	0x36
 8545 1fdc 2A       		.uleb128 0x2a
 8546 1fdd 02       		.uleb128 0x2
 8547 1fde 7D       		.byte	0x7d
 8548 1fdf 04       		.sleb128 4
 8549 1fe0 02       		.uleb128 0x2
 8550 1fe1 08       		.byte	0x8
ARM GAS  /tmp/ccqyZH0w.s 			page 151


 8551 1fe2 B4       		.byte	0xb4
 8552 1fe3 2A       		.uleb128 0x2a
 8553 1fe4 02       		.uleb128 0x2
 8554 1fe5 7D       		.byte	0x7d
 8555 1fe6 08       		.sleb128 8
 8556 1fe7 02       		.uleb128 0x2
 8557 1fe8 75       		.byte	0x75
 8558 1fe9 00       		.sleb128 0
 8559 1fea 2A       		.uleb128 0x2a
 8560 1feb 02       		.uleb128 0x2
 8561 1fec 7D       		.byte	0x7d
 8562 1fed 0C       		.sleb128 12
 8563 1fee 01       		.uleb128 0x1
 8564 1fef 33       		.byte	0x33
 8565 1ff0 2A       		.uleb128 0x2a
 8566 1ff1 02       		.uleb128 0x2
 8567 1ff2 7D       		.byte	0x7d
 8568 1ff3 10       		.sleb128 16
 8569 1ff4 02       		.uleb128 0x2
 8570 1ff5 74       		.byte	0x74
 8571 1ff6 00       		.sleb128 0
 8572 1ff7 00       		.byte	0
 8573 1ff8 29       		.uleb128 0x29
 8574 1ff9 F4000000 		.4byte	.LVL373
 8575 1ffd AF200000 		.4byte	0x20af
 8576 2001 12200000 		.4byte	0x2012
 8577 2005 2A       		.uleb128 0x2a
 8578 2006 01       		.uleb128 0x1
 8579 2007 50       		.byte	0x50
 8580 2008 02       		.uleb128 0x2
 8581 2009 76       		.byte	0x76
 8582 200a 00       		.sleb128 0
 8583 200b 2A       		.uleb128 0x2a
 8584 200c 01       		.uleb128 0x1
 8585 200d 51       		.byte	0x51
 8586 200e 02       		.uleb128 0x2
 8587 200f 91       		.byte	0x91
 8588 2010 42       		.sleb128 -62
 8589 2011 00       		.byte	0
 8590 2012 29       		.uleb128 0x29
 8591 2013 50010000 		.4byte	.LVL382
 8592 2017 EF210000 		.4byte	0x21ef
 8593 201b 52200000 		.4byte	0x2052
 8594 201f 2A       		.uleb128 0x2a
 8595 2020 01       		.uleb128 0x1
 8596 2021 50       		.byte	0x50
 8597 2022 02       		.uleb128 0x2
 8598 2023 76       		.byte	0x76
 8599 2024 00       		.sleb128 0
 8600 2025 2A       		.uleb128 0x2a
 8601 2026 01       		.uleb128 0x1
 8602 2027 51       		.byte	0x51
 8603 2028 01       		.uleb128 0x1
 8604 2029 31       		.byte	0x31
 8605 202a 2A       		.uleb128 0x2a
 8606 202b 01       		.uleb128 0x1
 8607 202c 52       		.byte	0x52
ARM GAS  /tmp/ccqyZH0w.s 			page 152


 8608 202d 02       		.uleb128 0x2
 8609 202e 7B       		.byte	0x7b
 8610 202f 00       		.sleb128 0
 8611 2030 2A       		.uleb128 0x2a
 8612 2031 01       		.uleb128 0x1
 8613 2032 53       		.byte	0x53
 8614 2033 02       		.uleb128 0x2
 8615 2034 77       		.byte	0x77
 8616 2035 00       		.sleb128 0
 8617 2036 2A       		.uleb128 0x2a
 8618 2037 02       		.uleb128 0x2
 8619 2038 7D       		.byte	0x7d
 8620 2039 00       		.sleb128 0
 8621 203a 01       		.uleb128 0x1
 8622 203b 36       		.byte	0x36
 8623 203c 2A       		.uleb128 0x2a
 8624 203d 02       		.uleb128 0x2
 8625 203e 7D       		.byte	0x7d
 8626 203f 04       		.sleb128 4
 8627 2040 02       		.uleb128 0x2
 8628 2041 08       		.byte	0x8
 8629 2042 B4       		.byte	0xb4
 8630 2043 2A       		.uleb128 0x2a
 8631 2044 02       		.uleb128 0x2
 8632 2045 7D       		.byte	0x7d
 8633 2046 0C       		.sleb128 12
 8634 2047 02       		.uleb128 0x2
 8635 2048 74       		.byte	0x74
 8636 2049 00       		.sleb128 0
 8637 204a 2A       		.uleb128 0x2a
 8638 204b 02       		.uleb128 0x2
 8639 204c 7D       		.byte	0x7d
 8640 204d 10       		.sleb128 16
 8641 204e 02       		.uleb128 0x2
 8642 204f 91       		.byte	0x91
 8643 2050 44       		.sleb128 -60
 8644 2051 00       		.byte	0
 8645 2052 29       		.uleb128 0x29
 8646 2053 92010000 		.4byte	.LVL388
 8647 2057 3E270000 		.4byte	0x273e
 8648 205b 71200000 		.4byte	0x2071
 8649 205f 2A       		.uleb128 0x2a
 8650 2060 01       		.uleb128 0x1
 8651 2061 50       		.byte	0x50
 8652 2062 02       		.uleb128 0x2
 8653 2063 7B       		.byte	0x7b
 8654 2064 00       		.sleb128 0
 8655 2065 2A       		.uleb128 0x2a
 8656 2066 01       		.uleb128 0x1
 8657 2067 51       		.byte	0x51
 8658 2068 01       		.uleb128 0x1
 8659 2069 36       		.byte	0x36
 8660 206a 2A       		.uleb128 0x2a
 8661 206b 01       		.uleb128 0x1
 8662 206c 53       		.byte	0x53
 8663 206d 02       		.uleb128 0x2
 8664 206e 91       		.byte	0x91
ARM GAS  /tmp/ccqyZH0w.s 			page 153


 8665 206f 48       		.sleb128 -56
 8666 2070 00       		.byte	0
 8667 2071 29       		.uleb128 0x29
 8668 2072 E4010000 		.4byte	.LVL397
 8669 2076 AF200000 		.4byte	0x20af
 8670 207a 8B200000 		.4byte	0x208b
 8671 207e 2A       		.uleb128 0x2a
 8672 207f 01       		.uleb128 0x1
 8673 2080 50       		.byte	0x50
 8674 2081 02       		.uleb128 0x2
 8675 2082 76       		.byte	0x76
 8676 2083 00       		.sleb128 0
 8677 2084 2A       		.uleb128 0x2a
 8678 2085 01       		.uleb128 0x1
 8679 2086 51       		.byte	0x51
 8680 2087 02       		.uleb128 0x2
 8681 2088 91       		.byte	0x91
 8682 2089 42       		.sleb128 -62
 8683 208a 00       		.byte	0
 8684 208b 29       		.uleb128 0x29
 8685 208c 6E020000 		.4byte	.LVL416
 8686 2090 AF200000 		.4byte	0x20af
 8687 2094 A5200000 		.4byte	0x20a5
 8688 2098 2A       		.uleb128 0x2a
 8689 2099 01       		.uleb128 0x1
 8690 209a 50       		.byte	0x50
 8691 209b 02       		.uleb128 0x2
 8692 209c 76       		.byte	0x76
 8693 209d 00       		.sleb128 0
 8694 209e 2A       		.uleb128 0x2a
 8695 209f 01       		.uleb128 0x1
 8696 20a0 51       		.byte	0x51
 8697 20a1 02       		.uleb128 0x2
 8698 20a2 91       		.byte	0x91
 8699 20a3 42       		.sleb128 -62
 8700 20a4 00       		.byte	0
 8701 20a5 2B       		.uleb128 0x2b
 8702 20a6 9C020000 		.4byte	.LVL420
 8703 20aa 8A300000 		.4byte	0x308a
 8704 20ae 00       		.byte	0
 8705 20af 24       		.uleb128 0x24
 8706 20b0 6E0F0000 		.4byte	.LASF277
 8707 20b4 01       		.byte	0x1
 8708 20b5 7502     		.2byte	0x275
 8709 20b7 0F       		.byte	0xf
 8710 20b8 63010000 		.4byte	0x163
 8711 20bc 00000000 		.4byte	.LFB15
 8712 20c0 80000000 		.4byte	.LFE15-.LFB15
 8713 20c4 01       		.uleb128 0x1
 8714 20c5 9C       		.byte	0x9c
 8715 20c6 E9210000 		.4byte	0x21e9
 8716 20ca 25       		.uleb128 0x25
 8717 20cb 44657600 		.ascii	"Dev\000"
 8718 20cf 01       		.byte	0x1
 8719 20d0 7502     		.2byte	0x275
 8720 20d2 3A       		.byte	0x3a
 8721 20d3 950F0000 		.4byte	0xf95
ARM GAS  /tmp/ccqyZH0w.s 			page 154


 8722 20d7 8A130000 		.4byte	.LLST99
 8723 20db 86130000 		.4byte	.LVUS99
 8724 20df 26       		.uleb128 0x26
 8725 20e0 A00D0000 		.4byte	.LASF278
 8726 20e4 01       		.byte	0x1
 8727 20e5 7602     		.2byte	0x276
 8728 20e7 0D       		.byte	0xd
 8729 20e8 E9210000 		.4byte	0x21e9
 8730 20ec AC130000 		.4byte	.LLST100
 8731 20f0 A8130000 		.4byte	.LVUS100
 8732 20f4 27       		.uleb128 0x27
 8733 20f5 BA0A0000 		.4byte	.LASF279
 8734 20f9 01       		.byte	0x1
 8735 20fa 7802     		.2byte	0x278
 8736 20fc 10       		.byte	0x10
 8737 20fd 63010000 		.4byte	0x163
 8738 2101 D8130000 		.4byte	.LLST101
 8739 2105 CA130000 		.4byte	.LVUS101
 8740 2109 2C       		.uleb128 0x2c
 8741 210a 87150000 		.4byte	.LASF280
 8742 210e 01       		.byte	0x1
 8743 210f 7902     		.2byte	0x279
 8744 2111 23       		.byte	0x23
 8745 2112 41030000 		.4byte	0x341
 8746 2116 02       		.uleb128 0x2
 8747 2117 91       		.byte	0x91
 8748 2118 50       		.sleb128 -48
 8749 2119 27       		.uleb128 0x27
 8750 211a FA0E0000 		.4byte	.LASF97
 8751 211e 01       		.byte	0x1
 8752 211f 7B02     		.2byte	0x27b
 8753 2121 0A       		.byte	0xa
 8754 2122 6C000000 		.4byte	0x6c
 8755 2126 32140000 		.4byte	.LLST102
 8756 212a 2E140000 		.4byte	.LVUS102
 8757 212e 29       		.uleb128 0x29
 8758 212f 1E000000 		.4byte	.LVL194
 8759 2133 93300000 		.4byte	0x3093
 8760 2137 4D210000 		.4byte	0x214d
 8761 213b 2A       		.uleb128 0x2a
 8762 213c 01       		.uleb128 0x1
 8763 213d 50       		.byte	0x50
 8764 213e 02       		.uleb128 0x2
 8765 213f 74       		.byte	0x74
 8766 2140 00       		.sleb128 0
 8767 2141 2A       		.uleb128 0x2a
 8768 2142 01       		.uleb128 0x1
 8769 2143 51       		.byte	0x51
 8770 2144 01       		.uleb128 0x1
 8771 2145 31       		.byte	0x31
 8772 2146 2A       		.uleb128 0x2a
 8773 2147 01       		.uleb128 0x1
 8774 2148 52       		.byte	0x52
 8775 2149 02       		.uleb128 0x2
 8776 214a 09       		.byte	0x9
 8777 214b C0       		.byte	0xc0
 8778 214c 00       		.byte	0
ARM GAS  /tmp/ccqyZH0w.s 			page 155


 8779 214d 29       		.uleb128 0x29
 8780 214e 36000000 		.4byte	.LVL197
 8781 2152 CF300000 		.4byte	0x30cf
 8782 2156 67210000 		.4byte	0x2167
 8783 215a 2A       		.uleb128 0x2a
 8784 215b 01       		.uleb128 0x1
 8785 215c 50       		.byte	0x50
 8786 215d 02       		.uleb128 0x2
 8787 215e 74       		.byte	0x74
 8788 215f 00       		.sleb128 0
 8789 2160 2A       		.uleb128 0x2a
 8790 2161 01       		.uleb128 0x1
 8791 2162 51       		.byte	0x51
 8792 2163 02       		.uleb128 0x2
 8793 2164 7D       		.byte	0x7d
 8794 2165 00       		.sleb128 0
 8795 2166 00       		.byte	0
 8796 2167 29       		.uleb128 0x29
 8797 2168 44000000 		.4byte	.LVL199
 8798 216c 93300000 		.4byte	0x3093
 8799 2170 86210000 		.4byte	0x2186
 8800 2174 2A       		.uleb128 0x2a
 8801 2175 01       		.uleb128 0x1
 8802 2176 50       		.byte	0x50
 8803 2177 02       		.uleb128 0x2
 8804 2178 74       		.byte	0x74
 8805 2179 00       		.sleb128 0
 8806 217a 2A       		.uleb128 0x2a
 8807 217b 01       		.uleb128 0x1
 8808 217c 51       		.byte	0x51
 8809 217d 02       		.uleb128 0x2
 8810 217e 09       		.byte	0x9
 8811 217f FF       		.byte	0xff
 8812 2180 2A       		.uleb128 0x2a
 8813 2181 01       		.uleb128 0x1
 8814 2182 52       		.byte	0x52
 8815 2183 01       		.uleb128 0x1
 8816 2184 31       		.byte	0x31
 8817 2185 00       		.byte	0
 8818 2186 29       		.uleb128 0x29
 8819 2187 52000000 		.4byte	.LVL201
 8820 218b DC300000 		.4byte	0x30dc
 8821 218f A6210000 		.4byte	0x21a6
 8822 2193 2A       		.uleb128 0x2a
 8823 2194 01       		.uleb128 0x1
 8824 2195 50       		.byte	0x50
 8825 2196 02       		.uleb128 0x2
 8826 2197 74       		.byte	0x74
 8827 2198 00       		.sleb128 0
 8828 2199 2A       		.uleb128 0x2a
 8829 219a 01       		.uleb128 0x1
 8830 219b 51       		.byte	0x51
 8831 219c 02       		.uleb128 0x2
 8832 219d 09       		.byte	0x9
 8833 219e B6       		.byte	0xb6
 8834 219f 2A       		.uleb128 0x2a
 8835 21a0 01       		.uleb128 0x1
ARM GAS  /tmp/ccqyZH0w.s 			page 156


 8836 21a1 52       		.byte	0x52
 8837 21a2 02       		.uleb128 0x2
 8838 21a3 76       		.byte	0x76
 8839 21a4 00       		.sleb128 0
 8840 21a5 00       		.byte	0
 8841 21a6 29       		.uleb128 0x29
 8842 21a7 60000000 		.4byte	.LVL203
 8843 21ab 93300000 		.4byte	0x3093
 8844 21af C0210000 		.4byte	0x21c0
 8845 21b3 2A       		.uleb128 0x2a
 8846 21b4 01       		.uleb128 0x1
 8847 21b5 50       		.byte	0x50
 8848 21b6 02       		.uleb128 0x2
 8849 21b7 74       		.byte	0x74
 8850 21b8 00       		.sleb128 0
 8851 21b9 2A       		.uleb128 0x2a
 8852 21ba 01       		.uleb128 0x1
 8853 21bb 51       		.byte	0x51
 8854 21bc 02       		.uleb128 0x2
 8855 21bd 09       		.byte	0x9
 8856 21be FF       		.byte	0xff
 8857 21bf 00       		.byte	0
 8858 21c0 29       		.uleb128 0x29
 8859 21c1 6E000000 		.4byte	.LVL205
 8860 21c5 93300000 		.4byte	0x3093
 8861 21c9 DF210000 		.4byte	0x21df
 8862 21cd 2A       		.uleb128 0x2a
 8863 21ce 01       		.uleb128 0x1
 8864 21cf 50       		.byte	0x50
 8865 21d0 02       		.uleb128 0x2
 8866 21d1 74       		.byte	0x74
 8867 21d2 00       		.sleb128 0
 8868 21d3 2A       		.uleb128 0x2a
 8869 21d4 01       		.uleb128 0x1
 8870 21d5 51       		.byte	0x51
 8871 21d6 01       		.uleb128 0x1
 8872 21d7 31       		.byte	0x31
 8873 21d8 2A       		.uleb128 0x2a
 8874 21d9 01       		.uleb128 0x1
 8875 21da 52       		.byte	0x52
 8876 21db 02       		.uleb128 0x2
 8877 21dc 75       		.byte	0x75
 8878 21dd 00       		.sleb128 0
 8879 21de 00       		.byte	0
 8880 21df 2B       		.uleb128 0x2b
 8881 21e0 7C000000 		.4byte	.LVL206
 8882 21e4 8A300000 		.4byte	0x308a
 8883 21e8 00       		.byte	0
 8884 21e9 0F       		.uleb128 0xf
 8885 21ea 04       		.byte	0x4
 8886 21eb 84000000 		.4byte	0x84
 8887 21ef 24       		.uleb128 0x24
 8888 21f0 530F0000 		.4byte	.LASF281
 8889 21f4 01       		.byte	0x1
 8890 21f5 2C02     		.2byte	0x22c
 8891 21f7 0F       		.byte	0xf
 8892 21f8 63010000 		.4byte	0x163
ARM GAS  /tmp/ccqyZH0w.s 			page 157


 8893 21fc 00000000 		.4byte	.LFB14
 8894 2200 E8000000 		.4byte	.LFE14-.LFB14
 8895 2204 01       		.uleb128 0x1
 8896 2205 9C       		.byte	0x9c
 8897 2206 F3240000 		.4byte	0x24f3
 8898 220a 25       		.uleb128 0x25
 8899 220b 44657600 		.ascii	"Dev\000"
 8900 220f 01       		.byte	0x1
 8901 2210 2C02     		.2byte	0x22c
 8902 2212 2C       		.byte	0x2c
 8903 2213 950F0000 		.4byte	0xf95
 8904 2217 55140000 		.4byte	.LLST70
 8905 221b 51140000 		.4byte	.LVUS70
 8906 221f 26       		.uleb128 0x26
 8907 2220 550A0000 		.4byte	.LASF282
 8908 2224 01       		.byte	0x1
 8909 2225 2D02     		.2byte	0x22d
 8910 2227 0D       		.byte	0xd
 8911 2228 6C000000 		.4byte	0x6c
 8912 222c 78140000 		.4byte	.LLST71
 8913 2230 74140000 		.4byte	.LVUS71
 8914 2234 26       		.uleb128 0x26
 8915 2235 5F170000 		.4byte	.LASF283
 8916 2239 01       		.byte	0x1
 8917 223a 2E02     		.2byte	0x22e
 8918 223c 0D       		.byte	0xd
 8919 223d AA060000 		.4byte	0x6aa
 8920 2241 9D140000 		.4byte	.LLST72
 8921 2245 99140000 		.4byte	.LVUS72
 8922 2249 26       		.uleb128 0x26
 8923 224a 65040000 		.4byte	.LASF284
 8924 224e 01       		.byte	0x1
 8925 224f 2F02     		.2byte	0x22f
 8926 2251 0D       		.byte	0xd
 8927 2252 AA060000 		.4byte	0x6aa
 8928 2256 C8140000 		.4byte	.LLST73
 8929 225a BE140000 		.4byte	.LVUS73
 8930 225e 26       		.uleb128 0x26
 8931 225f CA0C0000 		.4byte	.LASF285
 8932 2263 01       		.byte	0x1
 8933 2264 3002     		.2byte	0x230
 8934 2266 0E       		.byte	0xe
 8935 2267 97000000 		.4byte	0x97
 8936 226b 11150000 		.4byte	.LLST74
 8937 226f 0D150000 		.4byte	.LVUS74
 8938 2273 26       		.uleb128 0x26
 8939 2274 7F0D0000 		.4byte	.LASF286
 8940 2278 01       		.byte	0x1
 8941 2279 3102     		.2byte	0x231
 8942 227b 0E       		.byte	0xe
 8943 227c 97000000 		.4byte	0x97
 8944 2280 35150000 		.4byte	.LLST75
 8945 2284 31150000 		.4byte	.LVUS75
 8946 2288 26       		.uleb128 0x26
 8947 2289 D5070000 		.4byte	.LASF287
 8948 228d 01       		.byte	0x1
 8949 228e 3202     		.2byte	0x232
ARM GAS  /tmp/ccqyZH0w.s 			page 158


 8950 2290 0E       		.byte	0xe
 8951 2291 97000000 		.4byte	0x97
 8952 2295 59150000 		.4byte	.LLST76
 8953 2299 55150000 		.4byte	.LVUS76
 8954 229d 26       		.uleb128 0x26
 8955 229e E6110000 		.4byte	.LASF288
 8956 22a2 01       		.byte	0x1
 8957 22a3 3302     		.2byte	0x233
 8958 22a5 0E       		.byte	0xe
 8959 22a6 97000000 		.4byte	0x97
 8960 22aa 7D150000 		.4byte	.LLST77
 8961 22ae 79150000 		.4byte	.LVUS77
 8962 22b2 26       		.uleb128 0x26
 8963 22b3 6F140000 		.4byte	.LASF289
 8964 22b7 01       		.byte	0x1
 8965 22b8 3402     		.2byte	0x234
 8966 22ba 0F       		.byte	0xf
 8967 22bb 43190000 		.4byte	0x1943
 8968 22bf A1150000 		.4byte	.LLST78
 8969 22c3 9D150000 		.4byte	.LVUS78
 8970 22c7 27       		.uleb128 0x27
 8971 22c8 BA0A0000 		.4byte	.LASF279
 8972 22cc 01       		.byte	0x1
 8973 22cd 3602     		.2byte	0x236
 8974 22cf 10       		.byte	0x10
 8975 22d0 63010000 		.4byte	0x163
 8976 22d4 CF150000 		.4byte	.LLST79
 8977 22d8 C1150000 		.4byte	.LVUS79
 8978 22dc 27       		.uleb128 0x27
 8979 22dd 20020000 		.4byte	.LASF264
 8980 22e1 01       		.byte	0x1
 8981 22e2 3702     		.2byte	0x237
 8982 22e4 0B       		.byte	0xb
 8983 22e5 97000000 		.4byte	0x97
 8984 22e9 30160000 		.4byte	.LLST80
 8985 22ed 28160000 		.4byte	.LVUS80
 8986 22f1 39       		.uleb128 0x39
 8987 22f2 6900     		.ascii	"i\000"
 8988 22f4 01       		.byte	0x1
 8989 22f5 3802     		.2byte	0x238
 8990 22f7 0B       		.byte	0xb
 8991 22f8 97000000 		.4byte	0x97
 8992 22fc 6F160000 		.4byte	.LLST81
 8993 2300 67160000 		.4byte	.LVUS81
 8994 2304 2C       		.uleb128 0x2c
 8995 2305 AE120000 		.4byte	.LASF269
 8996 2309 01       		.byte	0x1
 8997 230a 3902     		.2byte	0x239
 8998 230c 0A       		.byte	0xa
 8999 230d 52000000 		.4byte	0x52
 9000 2311 02       		.uleb128 0x2
 9001 2312 91       		.byte	0x91
 9002 2313 48       		.sleb128 -56
 9003 2314 27       		.uleb128 0x27
 9004 2315 1E120000 		.4byte	.LASF290
 9005 2319 01       		.byte	0x1
 9006 231a 3A02     		.2byte	0x23a
ARM GAS  /tmp/ccqyZH0w.s 			page 159


 9007 231c 0B       		.byte	0xb
 9008 231d 97000000 		.4byte	0x97
 9009 2321 BE160000 		.4byte	.LLST82
 9010 2325 B8160000 		.4byte	.LVUS82
 9011 2329 2C       		.uleb128 0x2c
 9012 232a 9F120000 		.4byte	.LASF291
 9013 232e 01       		.byte	0x1
 9014 232f 3B02     		.2byte	0x23b
 9015 2331 0A       		.byte	0xa
 9016 2332 3C020000 		.4byte	0x23c
 9017 2336 02       		.uleb128 0x2
 9018 2337 91       		.byte	0x91
 9019 2338 4C       		.sleb128 -52
 9020 2339 36       		.uleb128 0x36
 9021 233a 04270000 		.4byte	0x2704
 9022 233e 34000000 		.4byte	.LBI24
 9023 2342 0100     		.2byte	.LVU517
 9024 2344 00000000 		.4byte	.Ldebug_ranges0+0
 9025 2348 01       		.byte	0x1
 9026 2349 5202     		.2byte	0x252
 9027 234b 07       		.byte	0x7
 9028 234c 7E230000 		.4byte	0x237e
 9029 2350 32       		.uleb128 0x32
 9030 2351 16270000 		.4byte	0x2716
 9031 2355 E9160000 		.4byte	.LLST83
 9032 2359 E7160000 		.4byte	.LVUS83
 9033 235d 37       		.uleb128 0x37
 9034 235e 00000000 		.4byte	.Ldebug_ranges0+0
 9035 2362 33       		.uleb128 0x33
 9036 2363 23270000 		.4byte	0x2723
 9037 2367 03170000 		.4byte	.LLST84
 9038 236b 01170000 		.4byte	.LVUS84
 9039 236f 33       		.uleb128 0x33
 9040 2370 30270000 		.4byte	0x2730
 9041 2374 21170000 		.4byte	.LLST85
 9042 2378 1D170000 		.4byte	.LVUS85
 9043 237c 00       		.byte	0
 9044 237d 00       		.byte	0
 9045 237e 31       		.uleb128 0x31
 9046 237f 96260000 		.4byte	0x2696
 9047 2383 48000000 		.4byte	.LBI30
 9048 2387 0200     		.2byte	.LVU530
 9049 2389 48000000 		.4byte	.LBB30
 9050 238d 1E000000 		.4byte	.LBE30-.LBB30
 9051 2391 01       		.byte	0x1
 9052 2392 5A02     		.2byte	0x25a
 9053 2394 03       		.byte	0x3
 9054 2395 F5230000 		.4byte	0x23f5
 9055 2399 32       		.uleb128 0x32
 9056 239a C2260000 		.4byte	0x26c2
 9057 239e 54170000 		.4byte	.LLST86
 9058 23a2 52170000 		.4byte	.LVUS86
 9059 23a6 32       		.uleb128 0x32
 9060 23a7 B5260000 		.4byte	0x26b5
 9061 23ab 69170000 		.4byte	.LLST87
 9062 23af 67170000 		.4byte	.LVUS87
 9063 23b3 32       		.uleb128 0x32
ARM GAS  /tmp/ccqyZH0w.s 			page 160


 9064 23b4 A8260000 		.4byte	0x26a8
 9065 23b8 7E170000 		.4byte	.LLST88
 9066 23bc 7C170000 		.4byte	.LVUS88
 9067 23c0 33       		.uleb128 0x33
 9068 23c1 CF260000 		.4byte	0x26cf
 9069 23c5 93170000 		.4byte	.LLST89
 9070 23c9 91170000 		.4byte	.LVUS89
 9071 23cd 33       		.uleb128 0x33
 9072 23ce DC260000 		.4byte	0x26dc
 9073 23d2 A9170000 		.4byte	.LLST90
 9074 23d6 A7170000 		.4byte	.LVUS90
 9075 23da 33       		.uleb128 0x33
 9076 23db E9260000 		.4byte	0x26e9
 9077 23df BF170000 		.4byte	.LLST91
 9078 23e3 BD170000 		.4byte	.LVUS91
 9079 23e7 33       		.uleb128 0x33
 9080 23e8 F6260000 		.4byte	0x26f6
 9081 23ec D6170000 		.4byte	.LLST92
 9082 23f0 D2170000 		.4byte	.LVUS92
 9083 23f4 00       		.byte	0
 9084 23f5 36       		.uleb128 0x36
 9085 23f6 2D250000 		.4byte	0x252d
 9086 23fa A0000000 		.4byte	.LBI32
 9087 23fe 0200     		.2byte	.LVU571
 9088 2400 20000000 		.4byte	.Ldebug_ranges0+0x20
 9089 2404 01       		.byte	0x1
 9090 2405 6002     		.2byte	0x260
 9091 2407 0C       		.byte	0xc
 9092 2408 5C240000 		.4byte	0x245c
 9093 240c 32       		.uleb128 0x32
 9094 240d 4C250000 		.4byte	0x254c
 9095 2411 FA170000 		.4byte	.LLST93
 9096 2415 F8170000 		.4byte	.LVUS93
 9097 2419 32       		.uleb128 0x32
 9098 241a 3F250000 		.4byte	0x253f
 9099 241e 11180000 		.4byte	.LLST94
 9100 2422 0D180000 		.4byte	.LVUS94
 9101 2426 37       		.uleb128 0x37
 9102 2427 20000000 		.4byte	.Ldebug_ranges0+0x20
 9103 242b 33       		.uleb128 0x33
 9104 242c 59250000 		.4byte	0x2559
 9105 2430 32180000 		.4byte	.LLST95
 9106 2434 30180000 		.4byte	.LVUS95
 9107 2438 34       		.uleb128 0x34
 9108 2439 AA000000 		.4byte	.LVL180
 9109 243d C3300000 		.4byte	0x30c3
 9110 2441 2A       		.uleb128 0x2a
 9111 2442 01       		.uleb128 0x1
 9112 2443 50       		.byte	0x50
 9113 2444 03       		.uleb128 0x3
 9114 2445 91       		.byte	0x91
 9115 2446 44       		.sleb128 -60
 9116 2447 06       		.byte	0x6
 9117 2448 2A       		.uleb128 0x2a
 9118 2449 01       		.uleb128 0x1
 9119 244a 51       		.byte	0x51
 9120 244b 02       		.uleb128 0x2
ARM GAS  /tmp/ccqyZH0w.s 			page 161


 9121 244c 09       		.byte	0x9
 9122 244d B0       		.byte	0xb0
 9123 244e 2A       		.uleb128 0x2a
 9124 244f 01       		.uleb128 0x1
 9125 2450 52       		.byte	0x52
 9126 2451 02       		.uleb128 0x2
 9127 2452 74       		.byte	0x74
 9128 2453 00       		.sleb128 0
 9129 2454 2A       		.uleb128 0x2a
 9130 2455 01       		.uleb128 0x1
 9131 2456 53       		.byte	0x53
 9132 2457 01       		.uleb128 0x1
 9133 2458 36       		.byte	0x36
 9134 2459 00       		.byte	0
 9135 245a 00       		.byte	0
 9136 245b 00       		.byte	0
 9137 245c 31       		.uleb128 0x31
 9138 245d F3240000 		.4byte	0x24f3
 9139 2461 AE000000 		.4byte	.LBI36
 9140 2465 0100     		.2byte	.LVU579
 9141 2467 AE000000 		.4byte	.LBB36
 9142 246b 0C000000 		.4byte	.LBE36-.LBB36
 9143 246f 01       		.byte	0x1
 9144 2470 6402     		.2byte	0x264
 9145 2472 0C       		.byte	0xc
 9146 2473 C1240000 		.4byte	0x24c1
 9147 2477 32       		.uleb128 0x32
 9148 2478 12250000 		.4byte	0x2512
 9149 247c 4B180000 		.4byte	.LLST96
 9150 2480 45180000 		.4byte	.LVUS96
 9151 2484 32       		.uleb128 0x32
 9152 2485 05250000 		.4byte	0x2505
 9153 2489 7A180000 		.4byte	.LLST97
 9154 248d 78180000 		.4byte	.LVUS97
 9155 2491 33       		.uleb128 0x33
 9156 2492 1F250000 		.4byte	0x251f
 9157 2496 90180000 		.4byte	.LLST98
 9158 249a 8E180000 		.4byte	.LVUS98
 9159 249e 34       		.uleb128 0x34
 9160 249f BA000000 		.4byte	.LVL184
 9161 24a3 B7300000 		.4byte	0x30b7
 9162 24a7 2A       		.uleb128 0x2a
 9163 24a8 01       		.uleb128 0x1
 9164 24a9 50       		.byte	0x50
 9165 24aa 03       		.uleb128 0x3
 9166 24ab 91       		.byte	0x91
 9167 24ac 44       		.sleb128 -60
 9168 24ad 06       		.byte	0x6
 9169 24ae 2A       		.uleb128 0x2a
 9170 24af 01       		.uleb128 0x1
 9171 24b0 51       		.byte	0x51
 9172 24b1 02       		.uleb128 0x2
 9173 24b2 09       		.byte	0x9
 9174 24b3 B0       		.byte	0xb0
 9175 24b4 2A       		.uleb128 0x2a
 9176 24b5 01       		.uleb128 0x1
 9177 24b6 52       		.byte	0x52
ARM GAS  /tmp/ccqyZH0w.s 			page 162


 9178 24b7 02       		.uleb128 0x2
 9179 24b8 91       		.byte	0x91
 9180 24b9 4C       		.sleb128 -52
 9181 24ba 2A       		.uleb128 0x2a
 9182 24bb 01       		.uleb128 0x1
 9183 24bc 53       		.byte	0x53
 9184 24bd 01       		.uleb128 0x1
 9185 24be 36       		.byte	0x36
 9186 24bf 00       		.byte	0
 9187 24c0 00       		.byte	0
 9188 24c1 29       		.uleb128 0x29
 9189 24c2 7C000000 		.4byte	.LVL175
 9190 24c6 3E270000 		.4byte	0x273e
 9191 24ca E9240000 		.4byte	0x24e9
 9192 24ce 2A       		.uleb128 0x2a
 9193 24cf 01       		.uleb128 0x1
 9194 24d0 50       		.byte	0x50
 9195 24d1 04       		.uleb128 0x4
 9196 24d2 91       		.byte	0x91
 9197 24d3 BC7F     		.sleb128 -68
 9198 24d5 06       		.byte	0x6
 9199 24d6 2A       		.uleb128 0x2a
 9200 24d7 01       		.uleb128 0x1
 9201 24d8 51       		.byte	0x51
 9202 24d9 02       		.uleb128 0x2
 9203 24da 76       		.byte	0x76
 9204 24db 00       		.sleb128 0
 9205 24dc 2A       		.uleb128 0x2a
 9206 24dd 01       		.uleb128 0x1
 9207 24de 52       		.byte	0x52
 9208 24df 02       		.uleb128 0x2
 9209 24e0 77       		.byte	0x77
 9210 24e1 00       		.sleb128 0
 9211 24e2 2A       		.uleb128 0x2a
 9212 24e3 01       		.uleb128 0x1
 9213 24e4 53       		.byte	0x53
 9214 24e5 02       		.uleb128 0x2
 9215 24e6 91       		.byte	0x91
 9216 24e7 48       		.sleb128 -56
 9217 24e8 00       		.byte	0
 9218 24e9 2B       		.uleb128 0x2b
 9219 24ea DE000000 		.4byte	.LVL190
 9220 24ee 8A300000 		.4byte	0x308a
 9221 24f2 00       		.byte	0
 9222 24f3 2D       		.uleb128 0x2d
 9223 24f4 600C0000 		.4byte	.LASF293
 9224 24f8 01       		.byte	0x1
 9225 24f9 2302     		.2byte	0x223
 9226 24fb 0F       		.byte	0xf
 9227 24fc 63010000 		.4byte	0x163
 9228 2500 01       		.byte	0x1
 9229 2501 2D250000 		.4byte	0x252d
 9230 2505 2E       		.uleb128 0x2e
 9231 2506 44657600 		.ascii	"Dev\000"
 9232 250a 01       		.byte	0x1
 9233 250b 2302     		.2byte	0x223
 9234 250d 2C       		.byte	0x2c
ARM GAS  /tmp/ccqyZH0w.s 			page 163


 9235 250e 950F0000 		.4byte	0xf95
 9236 2512 2F       		.uleb128 0x2f
 9237 2513 CB120000 		.4byte	.LASF252
 9238 2517 01       		.byte	0x1
 9239 2518 2302     		.2byte	0x223
 9240 251a 3A       		.byte	0x3a
 9241 251b AA060000 		.4byte	0x6aa
 9242 251f 30       		.uleb128 0x30
 9243 2520 BA0A0000 		.4byte	.LASF279
 9244 2524 01       		.byte	0x1
 9245 2525 2502     		.2byte	0x225
 9246 2527 10       		.byte	0x10
 9247 2528 63010000 		.4byte	0x163
 9248 252c 00       		.byte	0
 9249 252d 2D       		.uleb128 0x2d
 9250 252e 00000000 		.4byte	.LASF294
 9251 2532 01       		.byte	0x1
 9252 2533 1B02     		.2byte	0x21b
 9253 2535 0F       		.byte	0xf
 9254 2536 63010000 		.4byte	0x163
 9255 253a 01       		.byte	0x1
 9256 253b 67250000 		.4byte	0x2567
 9257 253f 2E       		.uleb128 0x2e
 9258 2540 44657600 		.ascii	"Dev\000"
 9259 2544 01       		.byte	0x1
 9260 2545 1B02     		.2byte	0x21b
 9261 2547 2C       		.byte	0x2c
 9262 2548 950F0000 		.4byte	0xf95
 9263 254c 2F       		.uleb128 0x2f
 9264 254d CB120000 		.4byte	.LASF252
 9265 2551 01       		.byte	0x1
 9266 2552 1B02     		.2byte	0x21b
 9267 2554 3A       		.byte	0x3a
 9268 2555 AA060000 		.4byte	0x6aa
 9269 2559 30       		.uleb128 0x30
 9270 255a BA0A0000 		.4byte	.LASF279
 9271 255e 01       		.byte	0x1
 9272 255f 1D02     		.2byte	0x21d
 9273 2561 10       		.byte	0x10
 9274 2562 63010000 		.4byte	0x163
 9275 2566 00       		.byte	0
 9276 2567 24       		.uleb128 0x24
 9277 2568 F7020000 		.4byte	.LASF295
 9278 256c 01       		.byte	0x1
 9279 256d E101     		.2byte	0x1e1
 9280 256f 0F       		.byte	0xf
 9281 2570 63010000 		.4byte	0x163
 9282 2574 00000000 		.4byte	.LFB11
 9283 2578 BC000000 		.4byte	.LFE11-.LFB11
 9284 257c 01       		.uleb128 0x1
 9285 257d 9C       		.byte	0x9c
 9286 257e 96260000 		.4byte	0x2696
 9287 2582 26       		.uleb128 0x26
 9288 2583 65040000 		.4byte	.LASF284
 9289 2587 01       		.byte	0x1
 9290 2588 E101     		.2byte	0x1e1
 9291 258a 2B       		.byte	0x2b
ARM GAS  /tmp/ccqyZH0w.s 			page 164


 9292 258b AA060000 		.4byte	0x6aa
 9293 258f A7180000 		.4byte	.LLST54
 9294 2593 A3180000 		.4byte	.LVUS54
 9295 2597 26       		.uleb128 0x26
 9296 2598 B8070000 		.4byte	.LASF296
 9297 259c 01       		.byte	0x1
 9298 259d E201     		.2byte	0x1e2
 9299 259f 0C       		.byte	0xc
 9300 25a0 97000000 		.4byte	0x97
 9301 25a4 C9180000 		.4byte	.LLST55
 9302 25a8 C5180000 		.4byte	.LVUS55
 9303 25ac 26       		.uleb128 0x26
 9304 25ad A6090000 		.4byte	.LASF297
 9305 25b1 01       		.byte	0x1
 9306 25b2 E201     		.2byte	0x1e2
 9307 25b4 20       		.byte	0x20
 9308 25b5 97000000 		.4byte	0x97
 9309 25b9 EE180000 		.4byte	.LLST56
 9310 25bd EA180000 		.4byte	.LVUS56
 9311 25c1 26       		.uleb128 0x26
 9312 25c2 B2110000 		.4byte	.LASF298
 9313 25c6 01       		.byte	0x1
 9314 25c7 E301     		.2byte	0x1e3
 9315 25c9 0D       		.byte	0xd
 9316 25ca 43190000 		.4byte	0x1943
 9317 25ce 13190000 		.4byte	.LLST57
 9318 25d2 0F190000 		.4byte	.LVUS57
 9319 25d6 26       		.uleb128 0x26
 9320 25d7 FD030000 		.4byte	.LASF299
 9321 25db 01       		.byte	0x1
 9322 25dc E301     		.2byte	0x1e3
 9323 25de 2A       		.byte	0x2a
 9324 25df AA060000 		.4byte	0x6aa
 9325 25e3 38190000 		.4byte	.LLST58
 9326 25e7 34190000 		.4byte	.LVUS58
 9327 25eb 27       		.uleb128 0x27
 9328 25ec BA0A0000 		.4byte	.LASF279
 9329 25f0 01       		.byte	0x1
 9330 25f1 E501     		.2byte	0x1e5
 9331 25f3 10       		.byte	0x10
 9332 25f4 63010000 		.4byte	0x163
 9333 25f8 5C190000 		.4byte	.LLST59
 9334 25fc 58190000 		.4byte	.LVUS59
 9335 2600 28       		.uleb128 0x28
 9336 2601 C2060000 		.4byte	.LASF300
 9337 2605 01       		.byte	0x1
 9338 2606 E601     		.2byte	0x1e6
 9339 2608 0B       		.byte	0xb
 9340 2609 97000000 		.4byte	0x97
 9341 260d 08       		.byte	0x8
 9342 260e 27       		.uleb128 0x27
 9343 260f 8D0F0000 		.4byte	.LASF301
 9344 2613 01       		.byte	0x1
 9345 2614 E701     		.2byte	0x1e7
 9346 2616 0B       		.byte	0xb
 9347 2617 97000000 		.4byte	0x97
 9348 261b 7F190000 		.4byte	.LLST60
ARM GAS  /tmp/ccqyZH0w.s 			page 165


 9349 261f 7B190000 		.4byte	.LVUS60
 9350 2623 27       		.uleb128 0x27
 9351 2624 F30A0000 		.4byte	.LASF302
 9352 2628 01       		.byte	0x1
 9353 2629 E801     		.2byte	0x1e8
 9354 262b 0B       		.byte	0xb
 9355 262c 97000000 		.4byte	0x97
 9356 2630 A0190000 		.4byte	.LLST61
 9357 2634 9E190000 		.4byte	.LVUS61
 9358 2638 27       		.uleb128 0x27
 9359 2639 C2070000 		.4byte	.LASF303
 9360 263d 01       		.byte	0x1
 9361 263e E901     		.2byte	0x1e9
 9362 2640 0B       		.byte	0xb
 9363 2641 97000000 		.4byte	0x97
 9364 2645 B7190000 		.4byte	.LLST62
 9365 2649 B3190000 		.4byte	.LVUS62
 9366 264d 27       		.uleb128 0x27
 9367 264e B2060000 		.4byte	.LASF304
 9368 2652 01       		.byte	0x1
 9369 2653 EA01     		.2byte	0x1ea
 9370 2655 0B       		.byte	0xb
 9371 2656 97000000 		.4byte	0x97
 9372 265a E8190000 		.4byte	.LLST63
 9373 265e D6190000 		.4byte	.LVUS63
 9374 2662 27       		.uleb128 0x27
 9375 2663 9D0A0000 		.4byte	.LASF305
 9376 2667 01       		.byte	0x1
 9377 2668 EB01     		.2byte	0x1eb
 9378 266a 0A       		.byte	0xa
 9379 266b 6C000000 		.4byte	0x6c
 9380 266f 5E1A0000 		.4byte	.LLST64
 9381 2673 5A1A0000 		.4byte	.LVUS64
 9382 2677 27       		.uleb128 0x27
 9383 2678 A50B0000 		.4byte	.LASF306
 9384 267c 01       		.byte	0x1
 9385 267d EC01     		.2byte	0x1ec
 9386 267f 0A       		.byte	0xa
 9387 2680 6C000000 		.4byte	0x6c
 9388 2684 891A0000 		.4byte	.LLST65
 9389 2688 811A0000 		.4byte	.LVUS65
 9390 268c 2B       		.uleb128 0x2b
 9391 268d B6000000 		.4byte	.LVL152
 9392 2691 8A300000 		.4byte	0x308a
 9393 2695 00       		.byte	0
 9394 2696 2D       		.uleb128 0x2d
 9395 2697 79060000 		.4byte	.LASF307
 9396 269b 01       		.byte	0x1
 9397 269c CF01     		.2byte	0x1cf
 9398 269e 0F       		.byte	0xf
 9399 269f 63010000 		.4byte	0x163
 9400 26a3 01       		.byte	0x1
 9401 26a4 04270000 		.4byte	0x2704
 9402 26a8 2F       		.uleb128 0x2f
 9403 26a9 65040000 		.4byte	.LASF284
 9404 26ad 01       		.byte	0x1
 9405 26ae CF01     		.2byte	0x1cf
ARM GAS  /tmp/ccqyZH0w.s 			page 166


 9406 26b0 27       		.byte	0x27
 9407 26b1 AA060000 		.4byte	0x6aa
 9408 26b5 2F       		.uleb128 0x2f
 9409 26b6 CA0C0000 		.4byte	.LASF285
 9410 26ba 01       		.byte	0x1
 9411 26bb CF01     		.2byte	0x1cf
 9412 26bd 3D       		.byte	0x3d
 9413 26be 97000000 		.4byte	0x97
 9414 26c2 2F       		.uleb128 0x2f
 9415 26c3 F0110000 		.4byte	.LASF308
 9416 26c7 01       		.byte	0x1
 9417 26c8 D001     		.2byte	0x1d0
 9418 26ca 0B       		.byte	0xb
 9419 26cb 97000000 		.4byte	0x97
 9420 26cf 30       		.uleb128 0x30
 9421 26d0 BA0A0000 		.4byte	.LASF279
 9422 26d4 01       		.byte	0x1
 9423 26d5 D201     		.2byte	0x1d2
 9424 26d7 10       		.byte	0x10
 9425 26d8 63010000 		.4byte	0x163
 9426 26dc 30       		.uleb128 0x30
 9427 26dd C2060000 		.4byte	.LASF300
 9428 26e1 01       		.byte	0x1
 9429 26e2 D301     		.2byte	0x1d3
 9430 26e4 0B       		.byte	0xb
 9431 26e5 97000000 		.4byte	0x97
 9432 26e9 30       		.uleb128 0x30
 9433 26ea 80140000 		.4byte	.LASF309
 9434 26ee 01       		.byte	0x1
 9435 26ef D401     		.2byte	0x1d4
 9436 26f1 0B       		.byte	0xb
 9437 26f2 97000000 		.4byte	0x97
 9438 26f6 30       		.uleb128 0x30
 9439 26f7 57090000 		.4byte	.LASF310
 9440 26fb 01       		.byte	0x1
 9441 26fc D501     		.2byte	0x1d5
 9442 26fe 0B       		.byte	0xb
 9443 26ff 97000000 		.4byte	0x97
 9444 2703 00       		.byte	0
 9445 2704 2D       		.uleb128 0x2d
 9446 2705 E3060000 		.4byte	.LASF311
 9447 2709 01       		.byte	0x1
 9448 270a BF01     		.2byte	0x1bf
 9449 270c 09       		.byte	0x9
 9450 270d 6C000000 		.4byte	0x6c
 9451 2711 01       		.byte	0x1
 9452 2712 3E270000 		.4byte	0x273e
 9453 2716 2F       		.uleb128 0x2f
 9454 2717 F0110000 		.4byte	.LASF308
 9455 271b 01       		.byte	0x1
 9456 271c BF01     		.2byte	0x1bf
 9457 271e 1E       		.byte	0x1e
 9458 271f 97000000 		.4byte	0x97
 9459 2723 30       		.uleb128 0x30
 9460 2724 6B030000 		.4byte	.LASF312
 9461 2728 01       		.byte	0x1
 9462 2729 C501     		.2byte	0x1c5
ARM GAS  /tmp/ccqyZH0w.s 			page 167


 9463 272b 0B       		.byte	0xb
 9464 272c 97000000 		.4byte	0x97
 9465 2730 30       		.uleb128 0x30
 9466 2731 B80B0000 		.4byte	.LASF313
 9467 2735 01       		.byte	0x1
 9468 2736 C601     		.2byte	0x1c6
 9469 2738 0A       		.byte	0xa
 9470 2739 6C000000 		.4byte	0x6c
 9471 273d 00       		.byte	0
 9472 273e 3A       		.uleb128 0x3a
 9473 273f 68080000 		.4byte	.LASF378
 9474 2743 01       		.byte	0x1
 9475 2744 8E01     		.2byte	0x18e
 9476 2746 06       		.byte	0x6
 9477 2747 00000000 		.4byte	.LFB8
 9478 274b 6C000000 		.4byte	.LFE8-.LFB8
 9479 274f 01       		.uleb128 0x1
 9480 2750 9C       		.byte	0x9c
 9481 2751 3F280000 		.4byte	0x283f
 9482 2755 26       		.uleb128 0x26
 9483 2756 5F170000 		.4byte	.LASF283
 9484 275a 01       		.byte	0x1
 9485 275b 8E01     		.2byte	0x18e
 9486 275d 21       		.byte	0x21
 9487 275e AA060000 		.4byte	0x6aa
 9488 2762 C31A0000 		.4byte	.LLST35
 9489 2766 BF1A0000 		.4byte	.LVUS35
 9490 276a 26       		.uleb128 0x26
 9491 276b CA0C0000 		.4byte	.LASF285
 9492 276f 01       		.byte	0x1
 9493 2770 8E01     		.2byte	0x18e
 9494 2772 3B       		.byte	0x3b
 9495 2773 97000000 		.4byte	0x97
 9496 2777 E81A0000 		.4byte	.LLST36
 9497 277b E41A0000 		.4byte	.LVUS36
 9498 277f 26       		.uleb128 0x26
 9499 2780 960F0000 		.4byte	.LASF314
 9500 2784 01       		.byte	0x1
 9501 2785 8F01     		.2byte	0x18f
 9502 2787 0D       		.byte	0xd
 9503 2788 97000000 		.4byte	0x97
 9504 278c 0D1B0000 		.4byte	.LLST37
 9505 2790 091B0000 		.4byte	.LVUS37
 9506 2794 26       		.uleb128 0x26
 9507 2795 C2010000 		.4byte	.LASF315
 9508 2799 01       		.byte	0x1
 9509 279a 8F01     		.2byte	0x18f
 9510 279c 1C       		.byte	0x1c
 9511 279d 3F280000 		.4byte	0x283f
 9512 27a1 361B0000 		.4byte	.LLST38
 9513 27a5 2E1B0000 		.4byte	.LVUS38
 9514 27a9 27       		.uleb128 0x27
 9515 27aa D8060000 		.4byte	.LASF316
 9516 27ae 01       		.byte	0x1
 9517 27af 9101     		.2byte	0x191
 9518 27b1 0B       		.byte	0xb
 9519 27b2 97000000 		.4byte	0x97
ARM GAS  /tmp/ccqyZH0w.s 			page 168


 9520 27b6 7A1B0000 		.4byte	.LLST39
 9521 27ba 701B0000 		.4byte	.LVUS39
 9522 27be 27       		.uleb128 0x27
 9523 27bf 89060000 		.4byte	.LASF317
 9524 27c3 01       		.byte	0x1
 9525 27c4 9201     		.2byte	0x192
 9526 27c6 0B       		.byte	0xb
 9527 27c7 97000000 		.4byte	0x97
 9528 27cb D11B0000 		.4byte	.LLST40
 9529 27cf C71B0000 		.4byte	.LVUS40
 9530 27d3 28       		.uleb128 0x28
 9531 27d4 C2060000 		.4byte	.LASF300
 9532 27d8 01       		.byte	0x1
 9533 27d9 9301     		.2byte	0x193
 9534 27db 0B       		.byte	0xb
 9535 27dc 97000000 		.4byte	0x97
 9536 27e0 08       		.byte	0x8
 9537 27e1 27       		.uleb128 0x27
 9538 27e2 80140000 		.4byte	.LASF309
 9539 27e6 01       		.byte	0x1
 9540 27e7 9401     		.2byte	0x194
 9541 27e9 0B       		.byte	0xb
 9542 27ea 97000000 		.4byte	0x97
 9543 27ee 2C1C0000 		.4byte	.LLST41
 9544 27f2 1E1C0000 		.4byte	.LVUS41
 9545 27f6 27       		.uleb128 0x27
 9546 27f7 57090000 		.4byte	.LASF310
 9547 27fb 01       		.byte	0x1
 9548 27fc 9501     		.2byte	0x195
 9549 27fe 0B       		.byte	0xb
 9550 27ff 97000000 		.4byte	0x97
 9551 2803 951C0000 		.4byte	.LLST42
 9552 2807 891C0000 		.4byte	.LVUS42
 9553 280b 27       		.uleb128 0x27
 9554 280c F3000000 		.4byte	.LASF318
 9555 2810 01       		.byte	0x1
 9556 2811 9601     		.2byte	0x196
 9557 2813 0A       		.byte	0xa
 9558 2814 6C000000 		.4byte	0x6c
 9559 2818 EA1C0000 		.4byte	.LLST43
 9560 281c E21C0000 		.4byte	.LVUS43
 9561 2820 27       		.uleb128 0x27
 9562 2821 DB0A0000 		.4byte	.LASF319
 9563 2825 01       		.byte	0x1
 9564 2826 9701     		.2byte	0x197
 9565 2828 0A       		.byte	0xa
 9566 2829 6C000000 		.4byte	0x6c
 9567 282d 251D0000 		.4byte	.LLST44
 9568 2831 1F1D0000 		.4byte	.LVUS44
 9569 2835 2B       		.uleb128 0x2b
 9570 2836 66000000 		.4byte	.LVL116
 9571 283a 8A300000 		.4byte	0x308a
 9572 283e 00       		.byte	0
 9573 283f 0F       		.uleb128 0xf
 9574 2840 04       		.byte	0x4
 9575 2841 52000000 		.4byte	0x52
 9576 2845 24       		.uleb128 0x24
ARM GAS  /tmp/ccqyZH0w.s 			page 169


 9577 2846 D0080000 		.4byte	.LASF320
 9578 284a 01       		.byte	0x1
 9579 284b 6601     		.2byte	0x166
 9580 284d 0F       		.byte	0xf
 9581 284e 63010000 		.4byte	0x163
 9582 2852 00000000 		.4byte	.LFB7
 9583 2856 54000000 		.4byte	.LFE7-.LFB7
 9584 285a 01       		.uleb128 0x1
 9585 285b 9C       		.byte	0x9c
 9586 285c 06290000 		.4byte	0x2906
 9587 2860 25       		.uleb128 0x25
 9588 2861 44657600 		.ascii	"Dev\000"
 9589 2865 01       		.byte	0x1
 9590 2866 6601     		.2byte	0x166
 9591 2868 3B       		.byte	0x3b
 9592 2869 950F0000 		.4byte	0xf95
 9593 286d 551D0000 		.4byte	.LLST32
 9594 2871 511D0000 		.4byte	.LVUS32
 9595 2875 27       		.uleb128 0x27
 9596 2876 C7010000 		.4byte	.LASF230
 9597 287a 01       		.byte	0x1
 9598 287b 6801     		.2byte	0x168
 9599 287d 10       		.byte	0x10
 9600 287e 63010000 		.4byte	0x163
 9601 2882 7B1D0000 		.4byte	.LLST33
 9602 2886 731D0000 		.4byte	.LVUS33
 9603 288a 27       		.uleb128 0x27
 9604 288b 850D0000 		.4byte	.LASF321
 9605 288f 01       		.byte	0x1
 9606 2890 6901     		.2byte	0x169
 9607 2892 0A       		.byte	0xa
 9608 2893 52000000 		.4byte	0x52
 9609 2897 B21D0000 		.4byte	.LLST34
 9610 289b B01D0000 		.4byte	.LVUS34
 9611 289f 2C       		.uleb128 0x2c
 9612 28a0 0D100000 		.4byte	.LASF322
 9613 28a4 01       		.byte	0x1
 9614 28a5 6A01     		.2byte	0x16a
 9615 28a7 0A       		.byte	0xa
 9616 28a8 52000000 		.4byte	0x52
 9617 28ac 02       		.uleb128 0x2
 9618 28ad 91       		.byte	0x91
 9619 28ae 68       		.sleb128 -24
 9620 28af 29       		.uleb128 0x29
 9621 28b0 16000000 		.4byte	.LVL87
 9622 28b4 E8300000 		.4byte	0x30e8
 9623 28b8 C8280000 		.4byte	0x28c8
 9624 28bc 2A       		.uleb128 0x2a
 9625 28bd 01       		.uleb128 0x1
 9626 28be 50       		.byte	0x50
 9627 28bf 02       		.uleb128 0x2
 9628 28c0 74       		.byte	0x74
 9629 28c1 00       		.sleb128 0
 9630 28c2 2A       		.uleb128 0x2a
 9631 28c3 01       		.uleb128 0x1
 9632 28c4 51       		.byte	0x51
 9633 28c5 01       		.uleb128 0x1
ARM GAS  /tmp/ccqyZH0w.s 			page 170


 9634 28c6 37       		.byte	0x37
 9635 28c7 00       		.byte	0
 9636 28c8 29       		.uleb128 0x29
 9637 28c9 2E000000 		.4byte	.LVL90
 9638 28cd F4300000 		.4byte	0x30f4
 9639 28d1 E2280000 		.4byte	0x28e2
 9640 28d5 2A       		.uleb128 0x2a
 9641 28d6 01       		.uleb128 0x1
 9642 28d7 50       		.byte	0x50
 9643 28d8 02       		.uleb128 0x2
 9644 28d9 74       		.byte	0x74
 9645 28da 00       		.sleb128 0
 9646 28db 2A       		.uleb128 0x2a
 9647 28dc 01       		.uleb128 0x1
 9648 28dd 51       		.byte	0x51
 9649 28de 02       		.uleb128 0x2
 9650 28df 7D       		.byte	0x7d
 9651 28e0 00       		.sleb128 0
 9652 28e1 00       		.byte	0
 9653 28e2 29       		.uleb128 0x29
 9654 28e3 42000000 		.4byte	.LVL93
 9655 28e7 01310000 		.4byte	0x3101
 9656 28eb FC280000 		.4byte	0x28fc
 9657 28ef 2A       		.uleb128 0x2a
 9658 28f0 01       		.uleb128 0x1
 9659 28f1 50       		.byte	0x50
 9660 28f2 02       		.uleb128 0x2
 9661 28f3 74       		.byte	0x74
 9662 28f4 00       		.sleb128 0
 9663 28f5 2A       		.uleb128 0x2a
 9664 28f6 01       		.uleb128 0x1
 9665 28f7 51       		.byte	0x51
 9666 28f8 02       		.uleb128 0x2
 9667 28f9 75       		.byte	0x75
 9668 28fa 00       		.sleb128 0
 9669 28fb 00       		.byte	0
 9670 28fc 2B       		.uleb128 0x2b
 9671 28fd 4E000000 		.4byte	.LVL95
 9672 2901 8A300000 		.4byte	0x308a
 9673 2905 00       		.byte	0
 9674 2906 24       		.uleb128 0x24
 9675 2907 1E0D0000 		.4byte	.LASF323
 9676 290b 01       		.byte	0x1
 9677 290c 4601     		.2byte	0x146
 9678 290e 0F       		.byte	0xf
 9679 290f 63010000 		.4byte	0x163
 9680 2913 00000000 		.4byte	.LFB6
 9681 2917 58000000 		.4byte	.LFE6-.LFB6
 9682 291b 01       		.uleb128 0x1
 9683 291c 9C       		.byte	0x9c
 9684 291d BE290000 		.4byte	0x29be
 9685 2921 25       		.uleb128 0x25
 9686 2922 44657600 		.ascii	"Dev\000"
 9687 2926 01       		.byte	0x1
 9688 2927 4601     		.2byte	0x146
 9689 2929 4B       		.byte	0x4b
 9690 292a 950F0000 		.4byte	0xf95
ARM GAS  /tmp/ccqyZH0w.s 			page 171


 9691 292e C91D0000 		.4byte	.LLST28
 9692 2932 C51D0000 		.4byte	.LVUS28
 9693 2936 26       		.uleb128 0x26
 9694 2937 25140000 		.4byte	.LASF324
 9695 293b 01       		.byte	0x1
 9696 293c 4701     		.2byte	0x147
 9697 293e 0C       		.byte	0xc
 9698 293f 3F280000 		.4byte	0x283f
 9699 2943 EE1D0000 		.4byte	.LLST29
 9700 2947 EA1D0000 		.4byte	.LVUS29
 9701 294b 27       		.uleb128 0x27
 9702 294c C7010000 		.4byte	.LASF230
 9703 2950 01       		.byte	0x1
 9704 2951 4901     		.2byte	0x149
 9705 2953 10       		.byte	0x10
 9706 2954 63010000 		.4byte	0x163
 9707 2958 101E0000 		.4byte	.LLST30
 9708 295c 0C1E0000 		.4byte	.LVUS30
 9709 2960 27       		.uleb128 0x27
 9710 2961 C30B0000 		.4byte	.LASF325
 9711 2965 01       		.byte	0x1
 9712 2966 4A01     		.2byte	0x14a
 9713 2968 0B       		.byte	0xb
 9714 2969 84000000 		.4byte	0x84
 9715 296d 391E0000 		.4byte	.LLST31
 9716 2971 2F1E0000 		.4byte	.LVUS31
 9717 2975 3B       		.uleb128 0x3b
 9718 2976 96000000 		.4byte	.LASF326
 9719 297a 01       		.byte	0x1
 9720 297b 4B01     		.2byte	0x14b
 9721 297d 0A       		.byte	0xa
 9722 297e 3F000000 		.4byte	0x3f
 9723 2982 FF07     		.2byte	0x7ff
 9724 2984 3B       		.uleb128 0x3b
 9725 2985 62140000 		.4byte	.LASF327
 9726 2989 01       		.byte	0x1
 9727 298a 4C01     		.2byte	0x14c
 9728 298c 0A       		.byte	0xa
 9729 298d 3F000000 		.4byte	0x3f
 9730 2991 0010     		.2byte	0x1000
 9731 2993 29       		.uleb128 0x29
 9732 2994 1A000000 		.4byte	.LVL76
 9733 2998 DC300000 		.4byte	0x30dc
 9734 299c B4290000 		.4byte	0x29b4
 9735 29a0 2A       		.uleb128 0x2a
 9736 29a1 01       		.uleb128 0x1
 9737 29a2 50       		.byte	0x50
 9738 29a3 03       		.uleb128 0x3
 9739 29a4 F3       		.byte	0xf3
 9740 29a5 01       		.uleb128 0x1
 9741 29a6 50       		.byte	0x50
 9742 29a7 2A       		.uleb128 0x2a
 9743 29a8 01       		.uleb128 0x1
 9744 29a9 51       		.byte	0x51
 9745 29aa 02       		.uleb128 0x2
 9746 29ab 08       		.byte	0x8
 9747 29ac 28       		.byte	0x28
ARM GAS  /tmp/ccqyZH0w.s 			page 172


 9748 29ad 2A       		.uleb128 0x2a
 9749 29ae 01       		.uleb128 0x1
 9750 29af 52       		.byte	0x52
 9751 29b0 02       		.uleb128 0x2
 9752 29b1 91       		.byte	0x91
 9753 29b2 72       		.sleb128 -14
 9754 29b3 00       		.byte	0
 9755 29b4 2B       		.uleb128 0x2b
 9756 29b5 54000000 		.4byte	.LVL84
 9757 29b9 8A300000 		.4byte	0x308a
 9758 29bd 00       		.byte	0
 9759 29be 24       		.uleb128 0x24
 9760 29bf 18030000 		.4byte	.LASF328
 9761 29c3 01       		.byte	0x1
 9762 29c4 2101     		.2byte	0x121
 9763 29c6 0F       		.byte	0xf
 9764 29c7 63010000 		.4byte	0x163
 9765 29cb 00000000 		.4byte	.LFB5
 9766 29cf 64000000 		.4byte	.LFE5-.LFB5
 9767 29d3 01       		.uleb128 0x1
 9768 29d4 9C       		.byte	0x9c
 9769 29d5 6C2A0000 		.4byte	0x2a6c
 9770 29d9 25       		.uleb128 0x25
 9771 29da 44657600 		.ascii	"Dev\000"
 9772 29de 01       		.byte	0x1
 9773 29df 2101     		.2byte	0x121
 9774 29e1 4B       		.byte	0x4b
 9775 29e2 950F0000 		.4byte	0xf95
 9776 29e6 9F1E0000 		.4byte	.LLST26
 9777 29ea 971E0000 		.4byte	.LVUS26
 9778 29ee 26       		.uleb128 0x26
 9779 29ef 0B0B0000 		.4byte	.LASF329
 9780 29f3 01       		.byte	0x1
 9781 29f4 2201     		.2byte	0x122
 9782 29f6 0B       		.byte	0xb
 9783 29f7 52000000 		.4byte	0x52
 9784 29fb E11E0000 		.4byte	.LLST27
 9785 29ff D91E0000 		.4byte	.LVUS27
 9786 2a03 28       		.uleb128 0x28
 9787 2a04 C7010000 		.4byte	.LASF230
 9788 2a08 01       		.byte	0x1
 9789 2a09 2401     		.2byte	0x124
 9790 2a0b 10       		.byte	0x10
 9791 2a0c 63010000 		.4byte	0x163
 9792 2a10 00       		.byte	0
 9793 2a11 3C       		.uleb128 0x3c
 9794 2a12 DE0C0000 		.4byte	.LASF330
 9795 2a16 01       		.byte	0x1
 9796 2a17 2501     		.2byte	0x125
 9797 2a19 0A       		.byte	0xa
 9798 2a1a 52000000 		.4byte	0x52
 9799 2a1e 18CC0700 		.4byte	0x7cc18
 9800 2a22 35       		.uleb128 0x35
 9801 2a23 2B0B0000 		.4byte	.LASF331
 9802 2a27 01       		.byte	0x1
 9803 2a28 2601     		.2byte	0x126
 9804 2a2a 0A       		.byte	0xa
ARM GAS  /tmp/ccqyZH0w.s 			page 173


 9805 2a2b 52000000 		.4byte	0x52
 9806 2a2f 80E060   		.sleb128 -512000
 9807 2a32 3B       		.uleb128 0x3b
 9808 2a33 62140000 		.4byte	.LASF327
 9809 2a37 01       		.byte	0x1
 9810 2a38 2701     		.2byte	0x127
 9811 2a3a 0A       		.byte	0xa
 9812 2a3b 3F000000 		.4byte	0x3f
 9813 2a3f 0010     		.2byte	0x1000
 9814 2a41 30       		.uleb128 0x30
 9815 2a42 790A0000 		.4byte	.LASF332
 9816 2a46 01       		.byte	0x1
 9817 2a47 2801     		.2byte	0x128
 9818 2a49 0B       		.byte	0xb
 9819 2a4a 97000000 		.4byte	0x97
 9820 2a4e 3D       		.uleb128 0x3d
 9821 2a4f 3A000000 		.4byte	.LVL69
 9822 2a53 0D310000 		.4byte	0x310d
 9823 2a57 622A0000 		.4byte	0x2a62
 9824 2a5b 2A       		.uleb128 0x2a
 9825 2a5c 01       		.uleb128 0x1
 9826 2a5d 51       		.byte	0x51
 9827 2a5e 02       		.uleb128 0x2
 9828 2a5f 08       		.byte	0x8
 9829 2a60 28       		.byte	0x28
 9830 2a61 00       		.byte	0
 9831 2a62 2B       		.uleb128 0x2b
 9832 2a63 58000000 		.4byte	.LVL72
 9833 2a67 8A300000 		.4byte	0x308a
 9834 2a6b 00       		.byte	0
 9835 2a6c 3E       		.uleb128 0x3e
 9836 2a6d 4B010000 		.4byte	.LASF333
 9837 2a71 01       		.byte	0x1
 9838 2a72 BE       		.byte	0xbe
 9839 2a73 0F       		.byte	0xf
 9840 2a74 63010000 		.4byte	0x163
 9841 2a78 00000000 		.4byte	.LFB4
 9842 2a7c F0000000 		.4byte	.LFE4-.LFB4
 9843 2a80 01       		.uleb128 0x1
 9844 2a81 9C       		.byte	0x9c
 9845 2a82 492C0000 		.4byte	0x2c49
 9846 2a86 3F       		.uleb128 0x3f
 9847 2a87 44657600 		.ascii	"Dev\000"
 9848 2a8b 01       		.byte	0x1
 9849 2a8c BE       		.byte	0xbe
 9850 2a8d 3E       		.byte	0x3e
 9851 2a8e 950F0000 		.4byte	0xf95
 9852 2a92 221F0000 		.4byte	.LLST16
 9853 2a96 181F0000 		.4byte	.LVUS16
 9854 2a9a 40       		.uleb128 0x40
 9855 2a9b C1030000 		.4byte	.LASF334
 9856 2a9f 01       		.byte	0x1
 9857 2aa0 BF       		.byte	0xbf
 9858 2aa1 13       		.byte	0x13
 9859 2aa2 BF000000 		.4byte	0xbf
 9860 2aa6 731F0000 		.4byte	.LLST17
 9861 2aaa 671F0000 		.4byte	.LVUS17
ARM GAS  /tmp/ccqyZH0w.s 			page 174


 9862 2aae 40       		.uleb128 0x40
 9863 2aaf 56020000 		.4byte	.LASF335
 9864 2ab3 01       		.byte	0x1
 9865 2ab4 C0       		.byte	0xc0
 9866 2ab5 0D       		.byte	0xd
 9867 2ab6 3F280000 		.4byte	0x283f
 9868 2aba D11F0000 		.4byte	.LLST18
 9869 2abe C71F0000 		.4byte	.LVUS18
 9870 2ac2 41       		.uleb128 0x41
 9871 2ac3 C7010000 		.4byte	.LASF230
 9872 2ac7 01       		.byte	0x1
 9873 2ac8 C2       		.byte	0xc2
 9874 2ac9 10       		.byte	0x10
 9875 2aca 63010000 		.4byte	0x163
 9876 2ace 2E200000 		.4byte	.LLST19
 9877 2ad2 16200000 		.4byte	.LVUS19
 9878 2ad6 41       		.uleb128 0x41
 9879 2ad7 26100000 		.4byte	.LASF336
 9880 2adb 01       		.byte	0x1
 9881 2adc C3       		.byte	0xc3
 9882 2add 0B       		.byte	0xb
 9883 2ade 84000000 		.4byte	0x84
 9884 2ae2 C4200000 		.4byte	.LLST20
 9885 2ae6 BE200000 		.4byte	.LVUS20
 9886 2aea 41       		.uleb128 0x41
 9887 2aeb 770C0000 		.4byte	.LASF337
 9888 2aef 01       		.byte	0x1
 9889 2af0 C4       		.byte	0xc4
 9890 2af1 11       		.byte	0x11
 9891 2af2 BF000000 		.4byte	0xbf
 9892 2af6 F9200000 		.4byte	.LLST21
 9893 2afa EF200000 		.4byte	.LVUS21
 9894 2afe 42       		.uleb128 0x42
 9895 2aff 1C050000 		.4byte	.LASF338
 9896 2b03 01       		.byte	0x1
 9897 2b04 C5       		.byte	0xc5
 9898 2b05 23       		.byte	0x23
 9899 2b06 41030000 		.4byte	0x341
 9900 2b0a 02       		.uleb128 0x2
 9901 2b0b 91       		.byte	0x91
 9902 2b0c 40       		.sleb128 -64
 9903 2b0d 41       		.uleb128 0x41
 9904 2b0e 30080000 		.4byte	.LASF339
 9905 2b12 01       		.byte	0x1
 9906 2b13 C6       		.byte	0xc6
 9907 2b14 11       		.byte	0x11
 9908 2b15 BF000000 		.4byte	0xbf
 9909 2b19 3E210000 		.4byte	.LLST22
 9910 2b1d 3C210000 		.4byte	.LVUS22
 9911 2b21 41       		.uleb128 0x41
 9912 2b22 7B080000 		.4byte	.LASF340
 9913 2b26 01       		.byte	0x1
 9914 2b27 C7       		.byte	0xc7
 9915 2b28 0B       		.byte	0xb
 9916 2b29 97000000 		.4byte	0x97
 9917 2b2d 64210000 		.4byte	.LLST23
 9918 2b31 62210000 		.4byte	.LVUS23
ARM GAS  /tmp/ccqyZH0w.s 			page 175


 9919 2b35 41       		.uleb128 0x41
 9920 2b36 830C0000 		.4byte	.LASF341
 9921 2b3a 01       		.byte	0x1
 9922 2b3b C8       		.byte	0xc8
 9923 2b3c 0B       		.byte	0xb
 9924 2b3d 97000000 		.4byte	0x97
 9925 2b41 94210000 		.4byte	.LLST24
 9926 2b45 8E210000 		.4byte	.LVUS24
 9927 2b49 42       		.uleb128 0x42
 9928 2b4a CF050000 		.4byte	.LASF342
 9929 2b4e 01       		.byte	0x1
 9930 2b4f C9       		.byte	0xc9
 9931 2b50 0A       		.byte	0xa
 9932 2b51 6C000000 		.4byte	0x6c
 9933 2b55 03       		.uleb128 0x3
 9934 2b56 91       		.byte	0x91
 9935 2b57 BF7F     		.sleb128 -65
 9936 2b59 41       		.uleb128 0x41
 9937 2b5a 9E150000 		.4byte	.LASF343
 9938 2b5e 01       		.byte	0x1
 9939 2b5f CA       		.byte	0xca
 9940 2b60 06       		.byte	0x6
 9941 2b61 B1000000 		.4byte	0xb1
 9942 2b65 DA210000 		.4byte	.LLST25
 9943 2b69 D0210000 		.4byte	.LVUS25
 9944 2b6d 29       		.uleb128 0x29
 9945 2b6e 32000000 		.4byte	.LVL41
 9946 2b72 01310000 		.4byte	0x3101
 9947 2b76 862B0000 		.4byte	0x2b86
 9948 2b7a 2A       		.uleb128 0x2a
 9949 2b7b 01       		.uleb128 0x1
 9950 2b7c 50       		.byte	0x50
 9951 2b7d 02       		.uleb128 0x2
 9952 2b7e 74       		.byte	0x74
 9953 2b7f 00       		.sleb128 0
 9954 2b80 2A       		.uleb128 0x2a
 9955 2b81 01       		.uleb128 0x1
 9956 2b82 51       		.byte	0x51
 9957 2b83 01       		.uleb128 0x1
 9958 2b84 30       		.byte	0x30
 9959 2b85 00       		.byte	0
 9960 2b86 29       		.uleb128 0x29
 9961 2b87 42000000 		.4byte	.LVL43
 9962 2b8b 19310000 		.4byte	0x3119
 9963 2b8f A12B0000 		.4byte	0x2ba1
 9964 2b93 2A       		.uleb128 0x2a
 9965 2b94 01       		.uleb128 0x1
 9966 2b95 50       		.byte	0x50
 9967 2b96 02       		.uleb128 0x2
 9968 2b97 74       		.byte	0x74
 9969 2b98 00       		.sleb128 0
 9970 2b99 2A       		.uleb128 0x2a
 9971 2b9a 01       		.uleb128 0x1
 9972 2b9b 52       		.byte	0x52
 9973 2b9c 03       		.uleb128 0x3
 9974 2b9d 91       		.byte	0x91
 9975 2b9e BF7F     		.sleb128 -65
ARM GAS  /tmp/ccqyZH0w.s 			page 176


 9976 2ba0 00       		.byte	0
 9977 2ba1 29       		.uleb128 0x29
 9978 2ba2 50000000 		.4byte	.LVL45
 9979 2ba6 26310000 		.4byte	0x3126
 9980 2baa B52B0000 		.4byte	0x2bb5
 9981 2bae 2A       		.uleb128 0x2a
 9982 2baf 01       		.uleb128 0x1
 9983 2bb0 50       		.byte	0x50
 9984 2bb1 02       		.uleb128 0x2
 9985 2bb2 74       		.byte	0x74
 9986 2bb3 00       		.sleb128 0
 9987 2bb4 00       		.byte	0
 9988 2bb5 29       		.uleb128 0x29
 9989 2bb6 5E000000 		.4byte	.LVL47
 9990 2bba 33310000 		.4byte	0x3133
 9991 2bbe CE2B0000 		.4byte	0x2bce
 9992 2bc2 2A       		.uleb128 0x2a
 9993 2bc3 01       		.uleb128 0x1
 9994 2bc4 50       		.byte	0x50
 9995 2bc5 02       		.uleb128 0x2
 9996 2bc6 74       		.byte	0x74
 9997 2bc7 00       		.sleb128 0
 9998 2bc8 2A       		.uleb128 0x2a
 9999 2bc9 01       		.uleb128 0x1
 10000 2bca 51       		.byte	0x51
 10001 2bcb 01       		.uleb128 0x1
 10002 2bcc 33       		.byte	0x33
 10003 2bcd 00       		.byte	0
 10004 2bce 29       		.uleb128 0x29
 10005 2bcf 8A000000 		.4byte	.LVL53
 10006 2bd3 CF300000 		.4byte	0x30cf
 10007 2bd7 E82B0000 		.4byte	0x2be8
 10008 2bdb 2A       		.uleb128 0x2a
 10009 2bdc 01       		.uleb128 0x1
 10010 2bdd 50       		.byte	0x50
 10011 2bde 02       		.uleb128 0x2
 10012 2bdf 74       		.byte	0x74
 10013 2be0 00       		.sleb128 0
 10014 2be1 2A       		.uleb128 0x2a
 10015 2be2 01       		.uleb128 0x1
 10016 2be3 51       		.byte	0x51
 10017 2be4 02       		.uleb128 0x2
 10018 2be5 91       		.byte	0x91
 10019 2be6 40       		.sleb128 -64
 10020 2be7 00       		.byte	0
 10021 2be8 29       		.uleb128 0x29
 10022 2be9 CE000000 		.4byte	.LVL59
 10023 2bed 01310000 		.4byte	0x3101
 10024 2bf1 202C0000 		.4byte	0x2c20
 10025 2bf5 2A       		.uleb128 0x2a
 10026 2bf6 01       		.uleb128 0x1
 10027 2bf7 50       		.byte	0x50
 10028 2bf8 02       		.uleb128 0x2
 10029 2bf9 74       		.byte	0x74
 10030 2bfa 00       		.sleb128 0
 10031 2bfb 2A       		.uleb128 0x2a
 10032 2bfc 01       		.uleb128 0x1
ARM GAS  /tmp/ccqyZH0w.s 			page 177


 10033 2bfd 51       		.byte	0x51
 10034 2bfe 20       		.uleb128 0x20
 10035 2bff F3       		.byte	0xf3
 10036 2c00 01       		.uleb128 0x1
 10037 2c01 51       		.byte	0x51
 10038 2c02 23       		.byte	0x23
 10039 2c03 808002   		.uleb128 0x8000
 10040 2c06 40       		.byte	0x40
 10041 2c07 25       		.byte	0x25
 10042 2c08 79       		.byte	0x79
 10043 2c09 00       		.sleb128 0
 10044 2c0a 40       		.byte	0x40
 10045 2c0b 24       		.byte	0x24
 10046 2c0c F7       		.byte	0xf7
 10047 2c0d 25       		.uleb128 0x25
 10048 2c0e 78       		.byte	0x78
 10049 2c0f 00       		.sleb128 0
 10050 2c10 F7       		.byte	0xf7
 10051 2c11 25       		.uleb128 0x25
 10052 2c12 1B       		.byte	0x1b
 10053 2c13 F7       		.byte	0xf7
 10054 2c14 00       		.uleb128 0
 10055 2c15 23       		.byte	0x23
 10056 2c16 808002   		.uleb128 0x8000
 10057 2c19 40       		.byte	0x40
 10058 2c1a 25       		.byte	0x25
 10059 2c1b 1C       		.byte	0x1c
 10060 2c1c 75       		.byte	0x75
 10061 2c1d 00       		.sleb128 0
 10062 2c1e 1E       		.byte	0x1e
 10063 2c1f 00       		.byte	0
 10064 2c20 29       		.uleb128 0x29
 10065 2c21 E4000000 		.4byte	.LVL61
 10066 2c25 26310000 		.4byte	0x3126
 10067 2c29 3F2C0000 		.4byte	0x2c3f
 10068 2c2d 2A       		.uleb128 0x2a
 10069 2c2e 01       		.uleb128 0x1
 10070 2c2f 50       		.byte	0x50
 10071 2c30 02       		.uleb128 0x2
 10072 2c31 74       		.byte	0x74
 10073 2c32 00       		.sleb128 0
 10074 2c33 2A       		.uleb128 0x2a
 10075 2c34 01       		.uleb128 0x1
 10076 2c35 51       		.byte	0x51
 10077 2c36 02       		.uleb128 0x2
 10078 2c37 77       		.byte	0x77
 10079 2c38 00       		.sleb128 0
 10080 2c39 2A       		.uleb128 0x2a
 10081 2c3a 01       		.uleb128 0x1
 10082 2c3b 52       		.byte	0x52
 10083 2c3c 01       		.uleb128 0x1
 10084 2c3d 31       		.byte	0x31
 10085 2c3e 00       		.byte	0
 10086 2c3f 2B       		.uleb128 0x2b
 10087 2c40 EA000000 		.4byte	.LVL63
 10088 2c44 8A300000 		.4byte	0x308a
 10089 2c48 00       		.byte	0
ARM GAS  /tmp/ccqyZH0w.s 			page 178


 10090 2c49 3E       		.uleb128 0x3e
 10091 2c4a 35180000 		.4byte	.LASF344
 10092 2c4e 01       		.byte	0x1
 10093 2c4f 33       		.byte	0x33
 10094 2c50 0F       		.byte	0xf
 10095 2c51 63010000 		.4byte	0x163
 10096 2c55 00000000 		.4byte	.LFB3
 10097 2c59 F8000000 		.4byte	.LFE3-.LFB3
 10098 2c5d 01       		.uleb128 0x1
 10099 2c5e 9C       		.byte	0x9c
 10100 2c5f 3C2E0000 		.4byte	0x2e3c
 10101 2c63 3F       		.uleb128 0x3f
 10102 2c64 44657600 		.ascii	"Dev\000"
 10103 2c68 01       		.byte	0x1
 10104 2c69 33       		.byte	0x33
 10105 2c6a 3D       		.byte	0x3d
 10106 2c6b 950F0000 		.4byte	0xf95
 10107 2c6f 34220000 		.4byte	.LLST0
 10108 2c73 2A220000 		.4byte	.LVUS0
 10109 2c77 40       		.uleb128 0x40
 10110 2c78 96080000 		.4byte	.LASF345
 10111 2c7c 01       		.byte	0x1
 10112 2c7d 34       		.byte	0x34
 10113 2c7e 13       		.byte	0x13
 10114 2c7f BF000000 		.4byte	0xbf
 10115 2c83 83220000 		.4byte	.LLST1
 10116 2c87 79220000 		.4byte	.LVUS1
 10117 2c8b 40       		.uleb128 0x40
 10118 2c8c 170C0000 		.4byte	.LASF346
 10119 2c90 01       		.byte	0x1
 10120 2c91 35       		.byte	0x35
 10121 2c92 14       		.byte	0x14
 10122 2c93 3C2E0000 		.4byte	0x2e3c
 10123 2c97 D2220000 		.4byte	.LLST2
 10124 2c9b C8220000 		.4byte	.LVUS2
 10125 2c9f 41       		.uleb128 0x41
 10126 2ca0 C7010000 		.4byte	.LASF230
 10127 2ca4 01       		.byte	0x1
 10128 2ca5 37       		.byte	0x37
 10129 2ca6 10       		.byte	0x10
 10130 2ca7 63010000 		.4byte	0x163
 10131 2cab 2F230000 		.4byte	.LLST3
 10132 2caf 17230000 		.4byte	.LVUS3
 10133 2cb3 41       		.uleb128 0x41
 10134 2cb4 26100000 		.4byte	.LASF336
 10135 2cb8 01       		.byte	0x1
 10136 2cb9 38       		.byte	0x38
 10137 2cba 0B       		.byte	0xb
 10138 2cbb 84000000 		.4byte	0x84
 10139 2cbf C8230000 		.4byte	.LLST4
 10140 2cc3 C0230000 		.4byte	.LVUS4
 10141 2cc7 41       		.uleb128 0x41
 10142 2cc8 570B0000 		.4byte	.LASF347
 10143 2ccc 01       		.byte	0x1
 10144 2ccd 39       		.byte	0x39
 10145 2cce 0B       		.byte	0xb
 10146 2ccf 84000000 		.4byte	0x84
ARM GAS  /tmp/ccqyZH0w.s 			page 179


 10147 2cd3 06240000 		.4byte	.LLST5
 10148 2cd7 FE230000 		.4byte	.LVUS5
 10149 2cdb 41       		.uleb128 0x41
 10150 2cdc 720E0000 		.4byte	.LASF348
 10151 2ce0 01       		.byte	0x1
 10152 2ce1 3A       		.byte	0x3a
 10153 2ce2 11       		.byte	0x11
 10154 2ce3 BF000000 		.4byte	0xbf
 10155 2ce7 42240000 		.4byte	.LLST6
 10156 2ceb 3C240000 		.4byte	.LVUS6
 10157 2cef 41       		.uleb128 0x41
 10158 2cf0 770C0000 		.4byte	.LASF337
 10159 2cf4 01       		.byte	0x1
 10160 2cf5 3B       		.byte	0x3b
 10161 2cf6 11       		.byte	0x11
 10162 2cf7 BF000000 		.4byte	0xbf
 10163 2cfb 77240000 		.4byte	.LLST7
 10164 2cff 6D240000 		.4byte	.LVUS7
 10165 2d03 41       		.uleb128 0x41
 10166 2d04 610B0000 		.4byte	.LASF349
 10167 2d08 01       		.byte	0x1
 10168 2d09 3C       		.byte	0x3c
 10169 2d0a 0A       		.byte	0xa
 10170 2d0b 6C000000 		.4byte	0x6c
 10171 2d0f C4240000 		.4byte	.LLST8
 10172 2d13 BA240000 		.4byte	.LVUS8
 10173 2d17 42       		.uleb128 0x42
 10174 2d18 1C050000 		.4byte	.LASF338
 10175 2d1c 01       		.byte	0x1
 10176 2d1d 3D       		.byte	0x3d
 10177 2d1e 23       		.byte	0x23
 10178 2d1f 41030000 		.4byte	0x341
 10179 2d23 03       		.uleb128 0x3
 10180 2d24 91       		.byte	0x91
 10181 2d25 B87F     		.sleb128 -72
 10182 2d27 41       		.uleb128 0x41
 10183 2d28 68020000 		.4byte	.LASF350
 10184 2d2c 01       		.byte	0x1
 10185 2d2d 3E       		.byte	0x3e
 10186 2d2e 11       		.byte	0x11
 10187 2d2f BF000000 		.4byte	0xbf
 10188 2d33 1A250000 		.4byte	.LLST9
 10189 2d37 14250000 		.4byte	.LVUS9
 10190 2d3b 41       		.uleb128 0x41
 10191 2d3c DE000000 		.4byte	.LASF351
 10192 2d40 01       		.byte	0x1
 10193 2d41 3F       		.byte	0x3f
 10194 2d42 11       		.byte	0x11
 10195 2d43 BF000000 		.4byte	0xbf
 10196 2d47 5B250000 		.4byte	.LLST10
 10197 2d4b 59250000 		.4byte	.LVUS10
 10198 2d4f 41       		.uleb128 0x41
 10199 2d50 9A110000 		.4byte	.LASF352
 10200 2d54 01       		.byte	0x1
 10201 2d55 40       		.byte	0x40
 10202 2d56 11       		.byte	0x11
 10203 2d57 BF000000 		.4byte	0xbf
ARM GAS  /tmp/ccqyZH0w.s 			page 180


 10204 2d5b 81250000 		.4byte	.LLST11
 10205 2d5f 7F250000 		.4byte	.LVUS11
 10206 2d63 41       		.uleb128 0x41
 10207 2d64 42000000 		.4byte	.LASF353
 10208 2d68 01       		.byte	0x1
 10209 2d69 41       		.byte	0x41
 10210 2d6a 0B       		.byte	0xb
 10211 2d6b 97000000 		.4byte	0x97
 10212 2d6f AB250000 		.4byte	.LLST12
 10213 2d73 A5250000 		.4byte	.LVUS12
 10214 2d77 41       		.uleb128 0x41
 10215 2d78 21150000 		.4byte	.LASF354
 10216 2d7c 01       		.byte	0x1
 10217 2d7d 42       		.byte	0x42
 10218 2d7e 0B       		.byte	0xb
 10219 2d7f 97000000 		.4byte	0x97
 10220 2d83 1A260000 		.4byte	.LLST13
 10221 2d87 12260000 		.4byte	.LVUS13
 10222 2d8b 41       		.uleb128 0x41
 10223 2d8c FB0B0000 		.4byte	.LASF355
 10224 2d90 01       		.byte	0x1
 10225 2d91 43       		.byte	0x43
 10226 2d92 0B       		.byte	0xb
 10227 2d93 97000000 		.4byte	0x97
 10228 2d97 5C260000 		.4byte	.LLST14
 10229 2d9b 56260000 		.4byte	.LVUS14
 10230 2d9f 41       		.uleb128 0x41
 10231 2da0 490E0000 		.4byte	.LASF37
 10232 2da4 01       		.byte	0x1
 10233 2da5 44       		.byte	0x44
 10234 2da6 11       		.byte	0x11
 10235 2da7 BF000000 		.4byte	0xbf
 10236 2dab 97260000 		.4byte	.LLST15
 10237 2daf 95260000 		.4byte	.LVUS15
 10238 2db3 29       		.uleb128 0x29
 10239 2db4 32000000 		.4byte	.LVL5
 10240 2db8 40310000 		.4byte	0x3140
 10241 2dbc CC2D0000 		.4byte	0x2dcc
 10242 2dc0 2A       		.uleb128 0x2a
 10243 2dc1 01       		.uleb128 0x1
 10244 2dc2 50       		.byte	0x50
 10245 2dc3 02       		.uleb128 0x2
 10246 2dc4 76       		.byte	0x76
 10247 2dc5 00       		.sleb128 0
 10248 2dc6 2A       		.uleb128 0x2a
 10249 2dc7 01       		.uleb128 0x1
 10250 2dc8 51       		.byte	0x51
 10251 2dc9 01       		.uleb128 0x1
 10252 2dca 30       		.byte	0x30
 10253 2dcb 00       		.byte	0
 10254 2dcc 29       		.uleb128 0x29
 10255 2dcd 40000000 		.4byte	.LVL7
 10256 2dd1 33310000 		.4byte	0x3133
 10257 2dd5 E52D0000 		.4byte	0x2de5
 10258 2dd9 2A       		.uleb128 0x2a
 10259 2dda 01       		.uleb128 0x1
 10260 2ddb 50       		.byte	0x50
ARM GAS  /tmp/ccqyZH0w.s 			page 181


 10261 2ddc 02       		.uleb128 0x2
 10262 2ddd 76       		.byte	0x76
 10263 2dde 00       		.sleb128 0
 10264 2ddf 2A       		.uleb128 0x2a
 10265 2de0 01       		.uleb128 0x1
 10266 2de1 51       		.byte	0x51
 10267 2de2 01       		.uleb128 0x1
 10268 2de3 33       		.byte	0x33
 10269 2de4 00       		.byte	0
 10270 2de5 29       		.uleb128 0x29
 10271 2de6 80000000 		.4byte	.LVL16
 10272 2dea CF300000 		.4byte	0x30cf
 10273 2dee FF2D0000 		.4byte	0x2dff
 10274 2df2 2A       		.uleb128 0x2a
 10275 2df3 01       		.uleb128 0x1
 10276 2df4 50       		.byte	0x50
 10277 2df5 02       		.uleb128 0x2
 10278 2df6 76       		.byte	0x76
 10279 2df7 00       		.sleb128 0
 10280 2df8 2A       		.uleb128 0x2a
 10281 2df9 01       		.uleb128 0x1
 10282 2dfa 51       		.byte	0x51
 10283 2dfb 02       		.uleb128 0x2
 10284 2dfc 7D       		.byte	0x7d
 10285 2dfd 00       		.sleb128 0
 10286 2dfe 00       		.byte	0
 10287 2dff 29       		.uleb128 0x29
 10288 2e00 DE000000 		.4byte	.LVL29
 10289 2e04 40310000 		.4byte	0x3140
 10290 2e08 182E0000 		.4byte	0x2e18
 10291 2e0c 2A       		.uleb128 0x2a
 10292 2e0d 01       		.uleb128 0x1
 10293 2e0e 50       		.byte	0x50
 10294 2e0f 02       		.uleb128 0x2
 10295 2e10 76       		.byte	0x76
 10296 2e11 00       		.sleb128 0
 10297 2e12 2A       		.uleb128 0x2a
 10298 2e13 01       		.uleb128 0x1
 10299 2e14 51       		.byte	0x51
 10300 2e15 01       		.uleb128 0x1
 10301 2e16 31       		.byte	0x31
 10302 2e17 00       		.byte	0
 10303 2e18 29       		.uleb128 0x29
 10304 2e19 EA000000 		.4byte	.LVL31
 10305 2e1d 4D310000 		.4byte	0x314d
 10306 2e21 322E0000 		.4byte	0x2e32
 10307 2e25 2A       		.uleb128 0x2a
 10308 2e26 01       		.uleb128 0x1
 10309 2e27 50       		.byte	0x50
 10310 2e28 02       		.uleb128 0x2
 10311 2e29 76       		.byte	0x76
 10312 2e2a 00       		.sleb128 0
 10313 2e2b 2A       		.uleb128 0x2a
 10314 2e2c 01       		.uleb128 0x1
 10315 2e2d 51       		.byte	0x51
 10316 2e2e 02       		.uleb128 0x2
 10317 2e2f 75       		.byte	0x75
ARM GAS  /tmp/ccqyZH0w.s 			page 182


 10318 2e30 00       		.sleb128 0
 10319 2e31 00       		.byte	0
 10320 2e32 2B       		.uleb128 0x2b
 10321 2e33 F4000000 		.4byte	.LVL35
 10322 2e37 8A300000 		.4byte	0x308a
 10323 2e3b 00       		.byte	0
 10324 2e3c 0F       		.uleb128 0xf
 10325 2e3d 04       		.byte	0x4
 10326 2e3e BF000000 		.4byte	0xbf
 10327 2e42 43       		.uleb128 0x43
 10328 2e43 04270000 		.4byte	0x2704
 10329 2e47 00000000 		.4byte	.LFB9
 10330 2e4b 38000000 		.4byte	.LFE9-.LFB9
 10331 2e4f 01       		.uleb128 0x1
 10332 2e50 9C       		.byte	0x9c
 10333 2e51 862E0000 		.4byte	0x2e86
 10334 2e55 32       		.uleb128 0x32
 10335 2e56 16270000 		.4byte	0x2716
 10336 2e5a AE260000 		.4byte	.LLST45
 10337 2e5e AA260000 		.4byte	.LVUS45
 10338 2e62 33       		.uleb128 0x33
 10339 2e63 23270000 		.4byte	0x2723
 10340 2e67 D1260000 		.4byte	.LLST46
 10341 2e6b CF260000 		.4byte	.LVUS46
 10342 2e6f 33       		.uleb128 0x33
 10343 2e70 30270000 		.4byte	0x2730
 10344 2e74 ED260000 		.4byte	.LLST47
 10345 2e78 E9260000 		.4byte	.LVUS47
 10346 2e7c 2B       		.uleb128 0x2b
 10347 2e7d 30000000 		.4byte	.LVL120
 10348 2e81 8A300000 		.4byte	0x308a
 10349 2e85 00       		.byte	0
 10350 2e86 43       		.uleb128 0x43
 10351 2e87 96260000 		.4byte	0x2696
 10352 2e8b 00000000 		.4byte	.LFB10
 10353 2e8f 44000000 		.4byte	.LFE10-.LFB10
 10354 2e93 01       		.uleb128 0x1
 10355 2e94 9C       		.byte	0x9c
 10356 2e95 F72E0000 		.4byte	0x2ef7
 10357 2e99 32       		.uleb128 0x32
 10358 2e9a A8260000 		.4byte	0x26a8
 10359 2e9e 24270000 		.4byte	.LLST48
 10360 2ea2 1C270000 		.4byte	.LVUS48
 10361 2ea6 32       		.uleb128 0x32
 10362 2ea7 B5260000 		.4byte	0x26b5
 10363 2eab 62270000 		.4byte	.LLST49
 10364 2eaf 5E270000 		.4byte	.LVUS49
 10365 2eb3 32       		.uleb128 0x32
 10366 2eb4 C2260000 		.4byte	0x26c2
 10367 2eb8 8B270000 		.4byte	.LLST50
 10368 2ebc 83270000 		.4byte	.LVUS50
 10369 2ec0 33       		.uleb128 0x33
 10370 2ec1 CF260000 		.4byte	0x26cf
 10371 2ec5 CD270000 		.4byte	.LLST51
 10372 2ec9 C5270000 		.4byte	.LVUS51
 10373 2ecd 44       		.uleb128 0x44
 10374 2ece DC260000 		.4byte	0x26dc
ARM GAS  /tmp/ccqyZH0w.s 			page 183


 10375 2ed2 08       		.byte	0x8
 10376 2ed3 33       		.uleb128 0x33
 10377 2ed4 E9260000 		.4byte	0x26e9
 10378 2ed8 0D280000 		.4byte	.LLST52
 10379 2edc 03280000 		.4byte	.LVUS52
 10380 2ee0 33       		.uleb128 0x33
 10381 2ee1 F6260000 		.4byte	0x26f6
 10382 2ee5 68280000 		.4byte	.LLST53
 10383 2ee9 5E280000 		.4byte	.LVUS53
 10384 2eed 2B       		.uleb128 0x2b
 10385 2eee 3E000000 		.4byte	.LVL130
 10386 2ef2 8A300000 		.4byte	0x308a
 10387 2ef6 00       		.byte	0
 10388 2ef7 43       		.uleb128 0x43
 10389 2ef8 2D250000 		.4byte	0x252d
 10390 2efc 00000000 		.4byte	.LFB12
 10391 2f00 30000000 		.4byte	.LFE12-.LFB12
 10392 2f04 01       		.uleb128 0x1
 10393 2f05 9C       		.byte	0x9c
 10394 2f06 5A2F0000 		.4byte	0x2f5a
 10395 2f0a 32       		.uleb128 0x32
 10396 2f0b 3F250000 		.4byte	0x253f
 10397 2f0f C1280000 		.4byte	.LLST66
 10398 2f13 B9280000 		.4byte	.LVUS66
 10399 2f17 32       		.uleb128 0x32
 10400 2f18 4C250000 		.4byte	0x254c
 10401 2f1c 05290000 		.4byte	.LLST67
 10402 2f20 FB280000 		.4byte	.LVUS67
 10403 2f24 45       		.uleb128 0x45
 10404 2f25 59250000 		.4byte	0x2559
 10405 2f29 3D       		.uleb128 0x3d
 10406 2f2a 28000000 		.4byte	.LVL155
 10407 2f2e C3300000 		.4byte	0x30c3
 10408 2f32 502F0000 		.4byte	0x2f50
 10409 2f36 2A       		.uleb128 0x2a
 10410 2f37 01       		.uleb128 0x1
 10411 2f38 50       		.byte	0x50
 10412 2f39 03       		.uleb128 0x3
 10413 2f3a F3       		.byte	0xf3
 10414 2f3b 01       		.uleb128 0x1
 10415 2f3c 50       		.byte	0x50
 10416 2f3d 2A       		.uleb128 0x2a
 10417 2f3e 01       		.uleb128 0x1
 10418 2f3f 51       		.byte	0x51
 10419 2f40 02       		.uleb128 0x2
 10420 2f41 09       		.byte	0x9
 10421 2f42 B0       		.byte	0xb0
 10422 2f43 2A       		.uleb128 0x2a
 10423 2f44 01       		.uleb128 0x1
 10424 2f45 52       		.byte	0x52
 10425 2f46 03       		.uleb128 0x3
 10426 2f47 F3       		.byte	0xf3
 10427 2f48 01       		.uleb128 0x1
 10428 2f49 51       		.byte	0x51
 10429 2f4a 2A       		.uleb128 0x2a
 10430 2f4b 01       		.uleb128 0x1
 10431 2f4c 53       		.byte	0x53
ARM GAS  /tmp/ccqyZH0w.s 			page 184


 10432 2f4d 01       		.uleb128 0x1
 10433 2f4e 36       		.byte	0x36
 10434 2f4f 00       		.byte	0
 10435 2f50 2B       		.uleb128 0x2b
 10436 2f51 2C000000 		.4byte	.LVL156
 10437 2f55 8A300000 		.4byte	0x308a
 10438 2f59 00       		.byte	0
 10439 2f5a 43       		.uleb128 0x43
 10440 2f5b F3240000 		.4byte	0x24f3
 10441 2f5f 00000000 		.4byte	.LFB13
 10442 2f63 30000000 		.4byte	.LFE13-.LFB13
 10443 2f67 01       		.uleb128 0x1
 10444 2f68 9C       		.byte	0x9c
 10445 2f69 BD2F0000 		.4byte	0x2fbd
 10446 2f6d 32       		.uleb128 0x32
 10447 2f6e 05250000 		.4byte	0x2505
 10448 2f72 52290000 		.4byte	.LLST68
 10449 2f76 4A290000 		.4byte	.LVUS68
 10450 2f7a 32       		.uleb128 0x32
 10451 2f7b 12250000 		.4byte	0x2512
 10452 2f7f 96290000 		.4byte	.LLST69
 10453 2f83 8C290000 		.4byte	.LVUS69
 10454 2f87 45       		.uleb128 0x45
 10455 2f88 1F250000 		.4byte	0x251f
 10456 2f8c 3D       		.uleb128 0x3d
 10457 2f8d 28000000 		.4byte	.LVL159
 10458 2f91 B7300000 		.4byte	0x30b7
 10459 2f95 B32F0000 		.4byte	0x2fb3
 10460 2f99 2A       		.uleb128 0x2a
 10461 2f9a 01       		.uleb128 0x1
 10462 2f9b 50       		.byte	0x50
 10463 2f9c 03       		.uleb128 0x3
 10464 2f9d F3       		.byte	0xf3
 10465 2f9e 01       		.uleb128 0x1
 10466 2f9f 50       		.byte	0x50
 10467 2fa0 2A       		.uleb128 0x2a
 10468 2fa1 01       		.uleb128 0x1
 10469 2fa2 51       		.byte	0x51
 10470 2fa3 02       		.uleb128 0x2
 10471 2fa4 09       		.byte	0x9
 10472 2fa5 B0       		.byte	0xb0
 10473 2fa6 2A       		.uleb128 0x2a
 10474 2fa7 01       		.uleb128 0x1
 10475 2fa8 52       		.byte	0x52
 10476 2fa9 03       		.uleb128 0x3
 10477 2faa F3       		.byte	0xf3
 10478 2fab 01       		.uleb128 0x1
 10479 2fac 51       		.byte	0x51
 10480 2fad 2A       		.uleb128 0x2a
 10481 2fae 01       		.uleb128 0x1
 10482 2faf 53       		.byte	0x53
 10483 2fb0 01       		.uleb128 0x1
 10484 2fb1 36       		.byte	0x36
 10485 2fb2 00       		.byte	0
 10486 2fb3 2B       		.uleb128 0x2b
 10487 2fb4 2C000000 		.4byte	.LVL160
 10488 2fb8 8A300000 		.4byte	0x308a
ARM GAS  /tmp/ccqyZH0w.s 			page 185


 10489 2fbc 00       		.byte	0
 10490 2fbd 43       		.uleb128 0x43
 10491 2fbe A5170000 		.4byte	0x17a5
 10492 2fc2 00000000 		.4byte	.LFB19
 10493 2fc6 68000000 		.4byte	.LFE19-.LFB19
 10494 2fca 01       		.uleb128 0x1
 10495 2fcb 9C       		.byte	0x9c
 10496 2fcc 8A300000 		.4byte	0x308a
 10497 2fd0 32       		.uleb128 0x32
 10498 2fd1 B7170000 		.4byte	0x17b7
 10499 2fd5 E5290000 		.4byte	.LLST120
 10500 2fd9 DB290000 		.4byte	.LVUS120
 10501 2fdd 32       		.uleb128 0x32
 10502 2fde C4170000 		.4byte	0x17c4
 10503 2fe2 2B2A0000 		.4byte	.LLST121
 10504 2fe6 272A0000 		.4byte	.LVUS121
 10505 2fea 33       		.uleb128 0x33
 10506 2feb D1170000 		.4byte	0x17d1
 10507 2fef 582A0000 		.4byte	.LLST122
 10508 2ff3 4C2A0000 		.4byte	.LVUS122
 10509 2ff7 36       		.uleb128 0x36
 10510 2ff8 A5170000 		.4byte	0x17a5
 10511 2ffc 46000000 		.4byte	.LBI48
 10512 3000 0000     		.2byte	.LVU825
 10513 3002 58000000 		.4byte	.Ldebug_ranges0+0x58
 10514 3006 01       		.byte	0x1
 10515 3007 2904     		.2byte	0x429
 10516 3009 0F       		.byte	0xf
 10517 300a 3F300000 		.4byte	0x303f
 10518 300e 38       		.uleb128 0x38
 10519 300f C4170000 		.4byte	0x17c4
 10520 3013 32       		.uleb128 0x32
 10521 3014 B7170000 		.4byte	0x17b7
 10522 3018 A92A0000 		.4byte	.LLST123
 10523 301c A32A0000 		.4byte	.LVUS123
 10524 3020 37       		.uleb128 0x37
 10525 3021 58000000 		.4byte	.Ldebug_ranges0+0x58
 10526 3025 46       		.uleb128 0x46
 10527 3026 D1170000 		.4byte	0x17d1
 10528 302a 01       		.uleb128 0x1
 10529 302b 51       		.byte	0x51
 10530 302c 47       		.uleb128 0x47
 10531 302d 5E000000 		.4byte	.LVL260
 10532 3031 93300000 		.4byte	0x3093
 10533 3035 2A       		.uleb128 0x2a
 10534 3036 01       		.uleb128 0x1
 10535 3037 50       		.byte	0x50
 10536 3038 03       		.uleb128 0x3
 10537 3039 F3       		.byte	0xf3
 10538 303a 01       		.uleb128 0x1
 10539 303b 50       		.byte	0x50
 10540 303c 00       		.byte	0
 10541 303d 00       		.byte	0
 10542 303e 00       		.byte	0
 10543 303f 29       		.uleb128 0x29
 10544 3040 1A000000 		.4byte	.LVL250
 10545 3044 93300000 		.4byte	0x3093
ARM GAS  /tmp/ccqyZH0w.s 			page 186


 10546 3048 58300000 		.4byte	0x3058
 10547 304c 2A       		.uleb128 0x2a
 10548 304d 01       		.uleb128 0x1
 10549 304e 50       		.byte	0x50
 10550 304f 02       		.uleb128 0x2
 10551 3050 74       		.byte	0x74
 10552 3051 00       		.sleb128 0
 10553 3052 2A       		.uleb128 0x2a
 10554 3053 01       		.uleb128 0x1
 10555 3054 51       		.byte	0x51
 10556 3055 01       		.uleb128 0x1
 10557 3056 30       		.byte	0x30
 10558 3057 00       		.byte	0
 10559 3058 29       		.uleb128 0x29
 10560 3059 34000000 		.4byte	.LVL254
 10561 305d 5A310000 		.4byte	0x315a
 10562 3061 6C300000 		.4byte	0x306c
 10563 3065 2A       		.uleb128 0x2a
 10564 3066 01       		.uleb128 0x1
 10565 3067 50       		.byte	0x50
 10566 3068 02       		.uleb128 0x2
 10567 3069 74       		.byte	0x74
 10568 306a 00       		.sleb128 0
 10569 306b 00       		.byte	0
 10570 306c 29       		.uleb128 0x29
 10571 306d 40000000 		.4byte	.LVL256
 10572 3071 66310000 		.4byte	0x3166
 10573 3075 80300000 		.4byte	0x3080
 10574 3079 2A       		.uleb128 0x2a
 10575 307a 01       		.uleb128 0x1
 10576 307b 50       		.byte	0x50
 10577 307c 02       		.uleb128 0x2
 10578 307d 74       		.byte	0x74
 10579 307e 00       		.sleb128 0
 10580 307f 00       		.byte	0
 10581 3080 2B       		.uleb128 0x2b
 10582 3081 62000000 		.4byte	.LVL261
 10583 3085 8A300000 		.4byte	0x308a
 10584 3089 00       		.byte	0
 10585 308a 48       		.uleb128 0x48
 10586 308b E60F0000 		.4byte	.LASF379
 10587 308f E60F0000 		.4byte	.LASF379
 10588 3093 49       		.uleb128 0x49
 10589 3094 11000000 		.4byte	.LASF356
 10590 3098 11000000 		.4byte	.LASF356
 10591 309c 0A       		.byte	0xa
 10592 309d 8E       		.byte	0x8e
 10593 309e 0F       		.byte	0xf
 10594 309f 49       		.uleb128 0x49
 10595 30a0 B70F0000 		.4byte	.LASF357
 10596 30a4 B70F0000 		.4byte	.LASF357
 10597 30a8 0A       		.byte	0xa
 10598 30a9 CE       		.byte	0xce
 10599 30aa 0F       		.byte	0xf
 10600 30ab 49       		.uleb128 0x49
 10601 30ac 970C0000 		.4byte	.LASF358
 10602 30b0 970C0000 		.4byte	.LASF358
ARM GAS  /tmp/ccqyZH0w.s 			page 187


 10603 30b4 0A       		.byte	0xa
 10604 30b5 AC       		.byte	0xac
 10605 30b6 0F       		.byte	0xf
 10606 30b7 49       		.uleb128 0x49
 10607 30b8 0A050000 		.4byte	.LASF359
 10608 30bc 0A050000 		.4byte	.LASF359
 10609 30c0 0A       		.byte	0xa
 10610 30c1 84       		.byte	0x84
 10611 30c2 0F       		.byte	0xf
 10612 30c3 49       		.uleb128 0x49
 10613 30c4 A40F0000 		.4byte	.LASF360
 10614 30c8 A40F0000 		.4byte	.LASF360
 10615 30cc 0A       		.byte	0xa
 10616 30cd 79       		.byte	0x79
 10617 30ce 0F       		.byte	0xf
 10618 30cf 4A       		.uleb128 0x4a
 10619 30d0 54110000 		.4byte	.LASF361
 10620 30d4 54110000 		.4byte	.LASF361
 10621 30d8 0C       		.byte	0xc
 10622 30d9 0906     		.2byte	0x609
 10623 30db 1B       		.byte	0x1b
 10624 30dc 49       		.uleb128 0x49
 10625 30dd BB0C0000 		.4byte	.LASF362
 10626 30e1 BB0C0000 		.4byte	.LASF362
 10627 30e5 0A       		.byte	0xa
 10628 30e6 B6       		.byte	0xb6
 10629 30e7 0F       		.byte	0xf
 10630 30e8 49       		.uleb128 0x49
 10631 30e9 CE0E0000 		.4byte	.LASF363
 10632 30ed CE0E0000 		.4byte	.LASF363
 10633 30f1 0D       		.byte	0xd
 10634 30f2 35       		.byte	0x35
 10635 30f3 0F       		.byte	0xf
 10636 30f4 4A       		.uleb128 0x4a
 10637 30f5 81070000 		.4byte	.LASF364
 10638 30f9 81070000 		.4byte	.LASF364
 10639 30fd 0C       		.byte	0xc
 10640 30fe 0A01     		.2byte	0x10a
 10641 3100 1B       		.byte	0x1b
 10642 3101 49       		.uleb128 0x49
 10643 3102 32100000 		.4byte	.LASF365
 10644 3106 32100000 		.4byte	.LASF365
 10645 310a 0C       		.byte	0xc
 10646 310b F8       		.byte	0xf8
 10647 310c 1B       		.byte	0x1b
 10648 310d 49       		.uleb128 0x49
 10649 310e EB0E0000 		.4byte	.LASF366
 10650 3112 EB0E0000 		.4byte	.LASF366
 10651 3116 0A       		.byte	0xa
 10652 3117 98       		.byte	0x98
 10653 3118 0F       		.byte	0xf
 10654 3119 4A       		.uleb128 0x4a
 10655 311a 91020000 		.4byte	.LASF367
 10656 311e 91020000 		.4byte	.LASF367
 10657 3122 0C       		.byte	0xc
 10658 3123 0A03     		.2byte	0x30a
 10659 3125 1B       		.byte	0x1b
ARM GAS  /tmp/ccqyZH0w.s 			page 188


 10660 3126 4A       		.uleb128 0x4a
 10661 3127 7C110000 		.4byte	.LASF368
 10662 312b 7C110000 		.4byte	.LASF368
 10663 312f 0C       		.byte	0xc
 10664 3130 F602     		.2byte	0x2f6
 10665 3132 1B       		.byte	0x1b
 10666 3133 4A       		.uleb128 0x4a
 10667 3134 80050000 		.4byte	.LASF369
 10668 3138 80050000 		.4byte	.LASF369
 10669 313c 0C       		.byte	0xc
 10670 313d 4004     		.2byte	0x440
 10671 313f 1B       		.byte	0x1b
 10672 3140 4A       		.uleb128 0x4a
 10673 3141 DF040000 		.4byte	.LASF370
 10674 3145 DF040000 		.4byte	.LASF370
 10675 3149 0C       		.byte	0xc
 10676 314a 9503     		.2byte	0x395
 10677 314c 1B       		.byte	0x1b
 10678 314d 4A       		.uleb128 0x4a
 10679 314e 96170000 		.4byte	.LASF371
 10680 3152 96170000 		.4byte	.LASF371
 10681 3156 0C       		.byte	0xc
 10682 3157 B503     		.2byte	0x3b5
 10683 3159 1B       		.byte	0x1b
 10684 315a 49       		.uleb128 0x49
 10685 315b 37170000 		.4byte	.LASF372
 10686 315f 37170000 		.4byte	.LASF372
 10687 3163 0D       		.byte	0xd
 10688 3164 2B       		.byte	0x2b
 10689 3165 0F       		.byte	0xf
 10690 3166 4A       		.uleb128 0x4a
 10691 3167 8B090000 		.4byte	.LASF373
 10692 316b 8B090000 		.4byte	.LASF373
 10693 316f 0C       		.byte	0xc
 10694 3170 E406     		.2byte	0x6e4
 10695 3172 1B       		.byte	0x1b
 10696 3173 00       		.byte	0
 10697              		.section	.debug_abbrev,"",%progbits
 10698              	.Ldebug_abbrev0:
 10699 0000 01       		.uleb128 0x1
 10700 0001 11       		.uleb128 0x11
 10701 0002 01       		.byte	0x1
 10702 0003 25       		.uleb128 0x25
 10703 0004 0E       		.uleb128 0xe
 10704 0005 13       		.uleb128 0x13
 10705 0006 0B       		.uleb128 0xb
 10706 0007 03       		.uleb128 0x3
 10707 0008 0E       		.uleb128 0xe
 10708 0009 1B       		.uleb128 0x1b
 10709 000a 0E       		.uleb128 0xe
 10710 000b 55       		.uleb128 0x55
 10711 000c 17       		.uleb128 0x17
 10712 000d 11       		.uleb128 0x11
 10713 000e 01       		.uleb128 0x1
 10714 000f 10       		.uleb128 0x10
 10715 0010 17       		.uleb128 0x17
 10716 0011 00       		.byte	0
ARM GAS  /tmp/ccqyZH0w.s 			page 189


 10717 0012 00       		.byte	0
 10718 0013 02       		.uleb128 0x2
 10719 0014 24       		.uleb128 0x24
 10720 0015 00       		.byte	0
 10721 0016 0B       		.uleb128 0xb
 10722 0017 0B       		.uleb128 0xb
 10723 0018 3E       		.uleb128 0x3e
 10724 0019 0B       		.uleb128 0xb
 10725 001a 03       		.uleb128 0x3
 10726 001b 0E       		.uleb128 0xe
 10727 001c 00       		.byte	0
 10728 001d 00       		.byte	0
 10729 001e 03       		.uleb128 0x3
 10730 001f 16       		.uleb128 0x16
 10731 0020 00       		.byte	0
 10732 0021 03       		.uleb128 0x3
 10733 0022 0E       		.uleb128 0xe
 10734 0023 3A       		.uleb128 0x3a
 10735 0024 0B       		.uleb128 0xb
 10736 0025 3B       		.uleb128 0x3b
 10737 0026 0B       		.uleb128 0xb
 10738 0027 39       		.uleb128 0x39
 10739 0028 0B       		.uleb128 0xb
 10740 0029 49       		.uleb128 0x49
 10741 002a 13       		.uleb128 0x13
 10742 002b 00       		.byte	0
 10743 002c 00       		.byte	0
 10744 002d 04       		.uleb128 0x4
 10745 002e 26       		.uleb128 0x26
 10746 002f 00       		.byte	0
 10747 0030 49       		.uleb128 0x49
 10748 0031 13       		.uleb128 0x13
 10749 0032 00       		.byte	0
 10750 0033 00       		.byte	0
 10751 0034 05       		.uleb128 0x5
 10752 0035 24       		.uleb128 0x24
 10753 0036 00       		.byte	0
 10754 0037 0B       		.uleb128 0xb
 10755 0038 0B       		.uleb128 0xb
 10756 0039 3E       		.uleb128 0x3e
 10757 003a 0B       		.uleb128 0xb
 10758 003b 03       		.uleb128 0x3
 10759 003c 08       		.uleb128 0x8
 10760 003d 00       		.byte	0
 10761 003e 00       		.byte	0
 10762 003f 06       		.uleb128 0x6
 10763 0040 13       		.uleb128 0x13
 10764 0041 01       		.byte	0x1
 10765 0042 0B       		.uleb128 0xb
 10766 0043 0B       		.uleb128 0xb
 10767 0044 3A       		.uleb128 0x3a
 10768 0045 0B       		.uleb128 0xb
 10769 0046 3B       		.uleb128 0x3b
 10770 0047 0B       		.uleb128 0xb
 10771 0048 39       		.uleb128 0x39
 10772 0049 0B       		.uleb128 0xb
 10773 004a 01       		.uleb128 0x1
ARM GAS  /tmp/ccqyZH0w.s 			page 190


 10774 004b 13       		.uleb128 0x13
 10775 004c 00       		.byte	0
 10776 004d 00       		.byte	0
 10777 004e 07       		.uleb128 0x7
 10778 004f 0D       		.uleb128 0xd
 10779 0050 00       		.byte	0
 10780 0051 03       		.uleb128 0x3
 10781 0052 0E       		.uleb128 0xe
 10782 0053 3A       		.uleb128 0x3a
 10783 0054 0B       		.uleb128 0xb
 10784 0055 3B       		.uleb128 0x3b
 10785 0056 0B       		.uleb128 0xb
 10786 0057 39       		.uleb128 0x39
 10787 0058 0B       		.uleb128 0xb
 10788 0059 49       		.uleb128 0x49
 10789 005a 13       		.uleb128 0x13
 10790 005b 38       		.uleb128 0x38
 10791 005c 0B       		.uleb128 0xb
 10792 005d 00       		.byte	0
 10793 005e 00       		.byte	0
 10794 005f 08       		.uleb128 0x8
 10795 0060 01       		.uleb128 0x1
 10796 0061 01       		.byte	0x1
 10797 0062 49       		.uleb128 0x49
 10798 0063 13       		.uleb128 0x13
 10799 0064 01       		.uleb128 0x1
 10800 0065 13       		.uleb128 0x13
 10801 0066 00       		.byte	0
 10802 0067 00       		.byte	0
 10803 0068 09       		.uleb128 0x9
 10804 0069 21       		.uleb128 0x21
 10805 006a 00       		.byte	0
 10806 006b 49       		.uleb128 0x49
 10807 006c 13       		.uleb128 0x13
 10808 006d 2F       		.uleb128 0x2f
 10809 006e 0B       		.uleb128 0xb
 10810 006f 00       		.byte	0
 10811 0070 00       		.byte	0
 10812 0071 0A       		.uleb128 0xa
 10813 0072 0D       		.uleb128 0xd
 10814 0073 00       		.byte	0
 10815 0074 03       		.uleb128 0x3
 10816 0075 0E       		.uleb128 0xe
 10817 0076 3A       		.uleb128 0x3a
 10818 0077 0B       		.uleb128 0xb
 10819 0078 3B       		.uleb128 0x3b
 10820 0079 05       		.uleb128 0x5
 10821 007a 39       		.uleb128 0x39
 10822 007b 0B       		.uleb128 0xb
 10823 007c 49       		.uleb128 0x49
 10824 007d 13       		.uleb128 0x13
 10825 007e 38       		.uleb128 0x38
 10826 007f 0B       		.uleb128 0xb
 10827 0080 00       		.byte	0
 10828 0081 00       		.byte	0
 10829 0082 0B       		.uleb128 0xb
 10830 0083 16       		.uleb128 0x16
ARM GAS  /tmp/ccqyZH0w.s 			page 191


 10831 0084 00       		.byte	0
 10832 0085 03       		.uleb128 0x3
 10833 0086 0E       		.uleb128 0xe
 10834 0087 3A       		.uleb128 0x3a
 10835 0088 0B       		.uleb128 0xb
 10836 0089 3B       		.uleb128 0x3b
 10837 008a 05       		.uleb128 0x5
 10838 008b 39       		.uleb128 0x39
 10839 008c 0B       		.uleb128 0xb
 10840 008d 49       		.uleb128 0x49
 10841 008e 13       		.uleb128 0x13
 10842 008f 00       		.byte	0
 10843 0090 00       		.byte	0
 10844 0091 0C       		.uleb128 0xc
 10845 0092 13       		.uleb128 0x13
 10846 0093 01       		.byte	0x1
 10847 0094 0B       		.uleb128 0xb
 10848 0095 0B       		.uleb128 0xb
 10849 0096 3A       		.uleb128 0x3a
 10850 0097 0B       		.uleb128 0xb
 10851 0098 3B       		.uleb128 0x3b
 10852 0099 05       		.uleb128 0x5
 10853 009a 39       		.uleb128 0x39
 10854 009b 0B       		.uleb128 0xb
 10855 009c 01       		.uleb128 0x1
 10856 009d 13       		.uleb128 0x13
 10857 009e 00       		.byte	0
 10858 009f 00       		.byte	0
 10859 00a0 0D       		.uleb128 0xd
 10860 00a1 13       		.uleb128 0x13
 10861 00a2 01       		.byte	0x1
 10862 00a3 0B       		.uleb128 0xb
 10863 00a4 05       		.uleb128 0x5
 10864 00a5 3A       		.uleb128 0x3a
 10865 00a6 0B       		.uleb128 0xb
 10866 00a7 3B       		.uleb128 0x3b
 10867 00a8 05       		.uleb128 0x5
 10868 00a9 39       		.uleb128 0x39
 10869 00aa 0B       		.uleb128 0xb
 10870 00ab 01       		.uleb128 0x1
 10871 00ac 13       		.uleb128 0x13
 10872 00ad 00       		.byte	0
 10873 00ae 00       		.byte	0
 10874 00af 0E       		.uleb128 0xe
 10875 00b0 0D       		.uleb128 0xd
 10876 00b1 00       		.byte	0
 10877 00b2 03       		.uleb128 0x3
 10878 00b3 0E       		.uleb128 0xe
 10879 00b4 3A       		.uleb128 0x3a
 10880 00b5 0B       		.uleb128 0xb
 10881 00b6 3B       		.uleb128 0x3b
 10882 00b7 05       		.uleb128 0x5
 10883 00b8 39       		.uleb128 0x39
 10884 00b9 0B       		.uleb128 0xb
 10885 00ba 49       		.uleb128 0x49
 10886 00bb 13       		.uleb128 0x13
 10887 00bc 38       		.uleb128 0x38
ARM GAS  /tmp/ccqyZH0w.s 			page 192


 10888 00bd 05       		.uleb128 0x5
 10889 00be 00       		.byte	0
 10890 00bf 00       		.byte	0
 10891 00c0 0F       		.uleb128 0xf
 10892 00c1 0F       		.uleb128 0xf
 10893 00c2 00       		.byte	0
 10894 00c3 0B       		.uleb128 0xb
 10895 00c4 0B       		.uleb128 0xb
 10896 00c5 49       		.uleb128 0x49
 10897 00c6 13       		.uleb128 0x13
 10898 00c7 00       		.byte	0
 10899 00c8 00       		.byte	0
 10900 00c9 10       		.uleb128 0x10
 10901 00ca 0F       		.uleb128 0xf
 10902 00cb 00       		.byte	0
 10903 00cc 0B       		.uleb128 0xb
 10904 00cd 0B       		.uleb128 0xb
 10905 00ce 00       		.byte	0
 10906 00cf 00       		.byte	0
 10907 00d0 11       		.uleb128 0x11
 10908 00d1 17       		.uleb128 0x17
 10909 00d2 01       		.byte	0x1
 10910 00d3 0B       		.uleb128 0xb
 10911 00d4 0B       		.uleb128 0xb
 10912 00d5 3A       		.uleb128 0x3a
 10913 00d6 0B       		.uleb128 0xb
 10914 00d7 3B       		.uleb128 0x3b
 10915 00d8 0B       		.uleb128 0xb
 10916 00d9 39       		.uleb128 0x39
 10917 00da 0B       		.uleb128 0xb
 10918 00db 01       		.uleb128 0x1
 10919 00dc 13       		.uleb128 0x13
 10920 00dd 00       		.byte	0
 10921 00de 00       		.byte	0
 10922 00df 12       		.uleb128 0x12
 10923 00e0 0D       		.uleb128 0xd
 10924 00e1 00       		.byte	0
 10925 00e2 03       		.uleb128 0x3
 10926 00e3 0E       		.uleb128 0xe
 10927 00e4 3A       		.uleb128 0x3a
 10928 00e5 0B       		.uleb128 0xb
 10929 00e6 3B       		.uleb128 0x3b
 10930 00e7 0B       		.uleb128 0xb
 10931 00e8 39       		.uleb128 0x39
 10932 00e9 0B       		.uleb128 0xb
 10933 00ea 49       		.uleb128 0x49
 10934 00eb 13       		.uleb128 0x13
 10935 00ec 00       		.byte	0
 10936 00ed 00       		.byte	0
 10937 00ee 13       		.uleb128 0x13
 10938 00ef 13       		.uleb128 0x13
 10939 00f0 01       		.byte	0x1
 10940 00f1 03       		.uleb128 0x3
 10941 00f2 0E       		.uleb128 0xe
 10942 00f3 0B       		.uleb128 0xb
 10943 00f4 0B       		.uleb128 0xb
 10944 00f5 3A       		.uleb128 0x3a
ARM GAS  /tmp/ccqyZH0w.s 			page 193


 10945 00f6 0B       		.uleb128 0xb
 10946 00f7 3B       		.uleb128 0x3b
 10947 00f8 0B       		.uleb128 0xb
 10948 00f9 39       		.uleb128 0x39
 10949 00fa 0B       		.uleb128 0xb
 10950 00fb 01       		.uleb128 0x1
 10951 00fc 13       		.uleb128 0x13
 10952 00fd 00       		.byte	0
 10953 00fe 00       		.byte	0
 10954 00ff 14       		.uleb128 0x14
 10955 0100 0D       		.uleb128 0xd
 10956 0101 00       		.byte	0
 10957 0102 03       		.uleb128 0x3
 10958 0103 08       		.uleb128 0x8
 10959 0104 3A       		.uleb128 0x3a
 10960 0105 0B       		.uleb128 0xb
 10961 0106 3B       		.uleb128 0x3b
 10962 0107 0B       		.uleb128 0xb
 10963 0108 39       		.uleb128 0x39
 10964 0109 0B       		.uleb128 0xb
 10965 010a 49       		.uleb128 0x49
 10966 010b 13       		.uleb128 0x13
 10967 010c 38       		.uleb128 0x38
 10968 010d 0B       		.uleb128 0xb
 10969 010e 00       		.byte	0
 10970 010f 00       		.byte	0
 10971 0110 15       		.uleb128 0x15
 10972 0111 13       		.uleb128 0x13
 10973 0112 01       		.byte	0x1
 10974 0113 03       		.uleb128 0x3
 10975 0114 0E       		.uleb128 0xe
 10976 0115 0B       		.uleb128 0xb
 10977 0116 05       		.uleb128 0x5
 10978 0117 3A       		.uleb128 0x3a
 10979 0118 0B       		.uleb128 0xb
 10980 0119 3B       		.uleb128 0x3b
 10981 011a 0B       		.uleb128 0xb
 10982 011b 39       		.uleb128 0x39
 10983 011c 0B       		.uleb128 0xb
 10984 011d 01       		.uleb128 0x1
 10985 011e 13       		.uleb128 0x13
 10986 011f 00       		.byte	0
 10987 0120 00       		.byte	0
 10988 0121 16       		.uleb128 0x16
 10989 0122 0D       		.uleb128 0xd
 10990 0123 00       		.byte	0
 10991 0124 03       		.uleb128 0x3
 10992 0125 0E       		.uleb128 0xe
 10993 0126 3A       		.uleb128 0x3a
 10994 0127 0B       		.uleb128 0xb
 10995 0128 3B       		.uleb128 0x3b
 10996 0129 0B       		.uleb128 0xb
 10997 012a 39       		.uleb128 0x39
 10998 012b 0B       		.uleb128 0xb
 10999 012c 49       		.uleb128 0x49
 11000 012d 13       		.uleb128 0x13
 11001 012e 38       		.uleb128 0x38
ARM GAS  /tmp/ccqyZH0w.s 			page 194


 11002 012f 05       		.uleb128 0x5
 11003 0130 00       		.byte	0
 11004 0131 00       		.byte	0
 11005 0132 17       		.uleb128 0x17
 11006 0133 15       		.uleb128 0x15
 11007 0134 00       		.byte	0
 11008 0135 27       		.uleb128 0x27
 11009 0136 19       		.uleb128 0x19
 11010 0137 00       		.byte	0
 11011 0138 00       		.byte	0
 11012 0139 18       		.uleb128 0x18
 11013 013a 15       		.uleb128 0x15
 11014 013b 01       		.byte	0x1
 11015 013c 27       		.uleb128 0x27
 11016 013d 19       		.uleb128 0x19
 11017 013e 49       		.uleb128 0x49
 11018 013f 13       		.uleb128 0x13
 11019 0140 01       		.uleb128 0x1
 11020 0141 13       		.uleb128 0x13
 11021 0142 00       		.byte	0
 11022 0143 00       		.byte	0
 11023 0144 19       		.uleb128 0x19
 11024 0145 05       		.uleb128 0x5
 11025 0146 00       		.byte	0
 11026 0147 49       		.uleb128 0x49
 11027 0148 13       		.uleb128 0x13
 11028 0149 00       		.byte	0
 11029 014a 00       		.byte	0
 11030 014b 1A       		.uleb128 0x1a
 11031 014c 13       		.uleb128 0x13
 11032 014d 01       		.byte	0x1
 11033 014e 03       		.uleb128 0x3
 11034 014f 0E       		.uleb128 0xe
 11035 0150 0B       		.uleb128 0xb
 11036 0151 05       		.uleb128 0x5
 11037 0152 3A       		.uleb128 0x3a
 11038 0153 0B       		.uleb128 0xb
 11039 0154 3B       		.uleb128 0x3b
 11040 0155 05       		.uleb128 0x5
 11041 0156 39       		.uleb128 0x39
 11042 0157 0B       		.uleb128 0xb
 11043 0158 01       		.uleb128 0x1
 11044 0159 13       		.uleb128 0x13
 11045 015a 00       		.byte	0
 11046 015b 00       		.byte	0
 11047 015c 1B       		.uleb128 0x1b
 11048 015d 13       		.uleb128 0x13
 11049 015e 01       		.byte	0x1
 11050 015f 03       		.uleb128 0x3
 11051 0160 0E       		.uleb128 0xe
 11052 0161 0B       		.uleb128 0xb
 11053 0162 0B       		.uleb128 0xb
 11054 0163 3A       		.uleb128 0x3a
 11055 0164 0B       		.uleb128 0xb
 11056 0165 3B       		.uleb128 0x3b
 11057 0166 05       		.uleb128 0x5
 11058 0167 39       		.uleb128 0x39
ARM GAS  /tmp/ccqyZH0w.s 			page 195


 11059 0168 0B       		.uleb128 0xb
 11060 0169 01       		.uleb128 0x1
 11061 016a 13       		.uleb128 0x13
 11062 016b 00       		.byte	0
 11063 016c 00       		.byte	0
 11064 016d 1C       		.uleb128 0x1c
 11065 016e 17       		.uleb128 0x17
 11066 016f 01       		.byte	0x1
 11067 0170 0B       		.uleb128 0xb
 11068 0171 0B       		.uleb128 0xb
 11069 0172 3A       		.uleb128 0x3a
 11070 0173 0B       		.uleb128 0xb
 11071 0174 3B       		.uleb128 0x3b
 11072 0175 05       		.uleb128 0x5
 11073 0176 39       		.uleb128 0x39
 11074 0177 0B       		.uleb128 0xb
 11075 0178 01       		.uleb128 0x1
 11076 0179 13       		.uleb128 0x13
 11077 017a 00       		.byte	0
 11078 017b 00       		.byte	0
 11079 017c 1D       		.uleb128 0x1d
 11080 017d 0D       		.uleb128 0xd
 11081 017e 00       		.byte	0
 11082 017f 03       		.uleb128 0x3
 11083 0180 0E       		.uleb128 0xe
 11084 0181 3A       		.uleb128 0x3a
 11085 0182 0B       		.uleb128 0xb
 11086 0183 3B       		.uleb128 0x3b
 11087 0184 05       		.uleb128 0x5
 11088 0185 39       		.uleb128 0x39
 11089 0186 0B       		.uleb128 0xb
 11090 0187 49       		.uleb128 0x49
 11091 0188 13       		.uleb128 0x13
 11092 0189 00       		.byte	0
 11093 018a 00       		.byte	0
 11094 018b 1E       		.uleb128 0x1e
 11095 018c 13       		.uleb128 0x13
 11096 018d 00       		.byte	0
 11097 018e 03       		.uleb128 0x3
 11098 018f 0E       		.uleb128 0xe
 11099 0190 3C       		.uleb128 0x3c
 11100 0191 19       		.uleb128 0x19
 11101 0192 00       		.byte	0
 11102 0193 00       		.byte	0
 11103 0194 1F       		.uleb128 0x1f
 11104 0195 15       		.uleb128 0x15
 11105 0196 01       		.byte	0x1
 11106 0197 27       		.uleb128 0x27
 11107 0198 19       		.uleb128 0x19
 11108 0199 01       		.uleb128 0x1
 11109 019a 13       		.uleb128 0x13
 11110 019b 00       		.byte	0
 11111 019c 00       		.byte	0
 11112 019d 20       		.uleb128 0x20
 11113 019e 34       		.uleb128 0x34
 11114 019f 00       		.byte	0
 11115 01a0 03       		.uleb128 0x3
ARM GAS  /tmp/ccqyZH0w.s 			page 196


 11116 01a1 0E       		.uleb128 0xe
 11117 01a2 3A       		.uleb128 0x3a
 11118 01a3 0B       		.uleb128 0xb
 11119 01a4 3B       		.uleb128 0x3b
 11120 01a5 05       		.uleb128 0x5
 11121 01a6 39       		.uleb128 0x39
 11122 01a7 0B       		.uleb128 0xb
 11123 01a8 49       		.uleb128 0x49
 11124 01a9 13       		.uleb128 0x13
 11125 01aa 3F       		.uleb128 0x3f
 11126 01ab 19       		.uleb128 0x19
 11127 01ac 3C       		.uleb128 0x3c
 11128 01ad 19       		.uleb128 0x19
 11129 01ae 00       		.byte	0
 11130 01af 00       		.byte	0
 11131 01b0 21       		.uleb128 0x21
 11132 01b1 13       		.uleb128 0x13
 11133 01b2 01       		.byte	0x1
 11134 01b3 0B       		.uleb128 0xb
 11135 01b4 05       		.uleb128 0x5
 11136 01b5 3A       		.uleb128 0x3a
 11137 01b6 0B       		.uleb128 0xb
 11138 01b7 3B       		.uleb128 0x3b
 11139 01b8 0B       		.uleb128 0xb
 11140 01b9 39       		.uleb128 0x39
 11141 01ba 0B       		.uleb128 0xb
 11142 01bb 01       		.uleb128 0x1
 11143 01bc 13       		.uleb128 0x13
 11144 01bd 00       		.byte	0
 11145 01be 00       		.byte	0
 11146 01bf 22       		.uleb128 0x22
 11147 01c0 34       		.uleb128 0x34
 11148 01c1 00       		.byte	0
 11149 01c2 03       		.uleb128 0x3
 11150 01c3 0E       		.uleb128 0xe
 11151 01c4 3A       		.uleb128 0x3a
 11152 01c5 0B       		.uleb128 0xb
 11153 01c6 3B       		.uleb128 0x3b
 11154 01c7 0B       		.uleb128 0xb
 11155 01c8 39       		.uleb128 0x39
 11156 01c9 0B       		.uleb128 0xb
 11157 01ca 49       		.uleb128 0x49
 11158 01cb 13       		.uleb128 0x13
 11159 01cc 3F       		.uleb128 0x3f
 11160 01cd 19       		.uleb128 0x19
 11161 01ce 3C       		.uleb128 0x3c
 11162 01cf 19       		.uleb128 0x19
 11163 01d0 00       		.byte	0
 11164 01d1 00       		.byte	0
 11165 01d2 23       		.uleb128 0x23
 11166 01d3 34       		.uleb128 0x34
 11167 01d4 00       		.byte	0
 11168 01d5 03       		.uleb128 0x3
 11169 01d6 0E       		.uleb128 0xe
 11170 01d7 3A       		.uleb128 0x3a
 11171 01d8 0B       		.uleb128 0xb
 11172 01d9 3B       		.uleb128 0x3b
ARM GAS  /tmp/ccqyZH0w.s 			page 197


 11173 01da 0B       		.uleb128 0xb
 11174 01db 39       		.uleb128 0x39
 11175 01dc 0B       		.uleb128 0xb
 11176 01dd 49       		.uleb128 0x49
 11177 01de 13       		.uleb128 0x13
 11178 01df 3F       		.uleb128 0x3f
 11179 01e0 19       		.uleb128 0x19
 11180 01e1 02       		.uleb128 0x2
 11181 01e2 18       		.uleb128 0x18
 11182 01e3 00       		.byte	0
 11183 01e4 00       		.byte	0
 11184 01e5 24       		.uleb128 0x24
 11185 01e6 2E       		.uleb128 0x2e
 11186 01e7 01       		.byte	0x1
 11187 01e8 3F       		.uleb128 0x3f
 11188 01e9 19       		.uleb128 0x19
 11189 01ea 03       		.uleb128 0x3
 11190 01eb 0E       		.uleb128 0xe
 11191 01ec 3A       		.uleb128 0x3a
 11192 01ed 0B       		.uleb128 0xb
 11193 01ee 3B       		.uleb128 0x3b
 11194 01ef 05       		.uleb128 0x5
 11195 01f0 39       		.uleb128 0x39
 11196 01f1 0B       		.uleb128 0xb
 11197 01f2 27       		.uleb128 0x27
 11198 01f3 19       		.uleb128 0x19
 11199 01f4 49       		.uleb128 0x49
 11200 01f5 13       		.uleb128 0x13
 11201 01f6 11       		.uleb128 0x11
 11202 01f7 01       		.uleb128 0x1
 11203 01f8 12       		.uleb128 0x12
 11204 01f9 06       		.uleb128 0x6
 11205 01fa 40       		.uleb128 0x40
 11206 01fb 18       		.uleb128 0x18
 11207 01fc 9742     		.uleb128 0x2117
 11208 01fe 19       		.uleb128 0x19
 11209 01ff 01       		.uleb128 0x1
 11210 0200 13       		.uleb128 0x13
 11211 0201 00       		.byte	0
 11212 0202 00       		.byte	0
 11213 0203 25       		.uleb128 0x25
 11214 0204 05       		.uleb128 0x5
 11215 0205 00       		.byte	0
 11216 0206 03       		.uleb128 0x3
 11217 0207 08       		.uleb128 0x8
 11218 0208 3A       		.uleb128 0x3a
 11219 0209 0B       		.uleb128 0xb
 11220 020a 3B       		.uleb128 0x3b
 11221 020b 05       		.uleb128 0x5
 11222 020c 39       		.uleb128 0x39
 11223 020d 0B       		.uleb128 0xb
 11224 020e 49       		.uleb128 0x49
 11225 020f 13       		.uleb128 0x13
 11226 0210 02       		.uleb128 0x2
 11227 0211 17       		.uleb128 0x17
 11228 0212 B742     		.uleb128 0x2137
 11229 0214 17       		.uleb128 0x17
ARM GAS  /tmp/ccqyZH0w.s 			page 198


 11230 0215 00       		.byte	0
 11231 0216 00       		.byte	0
 11232 0217 26       		.uleb128 0x26
 11233 0218 05       		.uleb128 0x5
 11234 0219 00       		.byte	0
 11235 021a 03       		.uleb128 0x3
 11236 021b 0E       		.uleb128 0xe
 11237 021c 3A       		.uleb128 0x3a
 11238 021d 0B       		.uleb128 0xb
 11239 021e 3B       		.uleb128 0x3b
 11240 021f 05       		.uleb128 0x5
 11241 0220 39       		.uleb128 0x39
 11242 0221 0B       		.uleb128 0xb
 11243 0222 49       		.uleb128 0x49
 11244 0223 13       		.uleb128 0x13
 11245 0224 02       		.uleb128 0x2
 11246 0225 17       		.uleb128 0x17
 11247 0226 B742     		.uleb128 0x2137
 11248 0228 17       		.uleb128 0x17
 11249 0229 00       		.byte	0
 11250 022a 00       		.byte	0
 11251 022b 27       		.uleb128 0x27
 11252 022c 34       		.uleb128 0x34
 11253 022d 00       		.byte	0
 11254 022e 03       		.uleb128 0x3
 11255 022f 0E       		.uleb128 0xe
 11256 0230 3A       		.uleb128 0x3a
 11257 0231 0B       		.uleb128 0xb
 11258 0232 3B       		.uleb128 0x3b
 11259 0233 05       		.uleb128 0x5
 11260 0234 39       		.uleb128 0x39
 11261 0235 0B       		.uleb128 0xb
 11262 0236 49       		.uleb128 0x49
 11263 0237 13       		.uleb128 0x13
 11264 0238 02       		.uleb128 0x2
 11265 0239 17       		.uleb128 0x17
 11266 023a B742     		.uleb128 0x2137
 11267 023c 17       		.uleb128 0x17
 11268 023d 00       		.byte	0
 11269 023e 00       		.byte	0
 11270 023f 28       		.uleb128 0x28
 11271 0240 34       		.uleb128 0x34
 11272 0241 00       		.byte	0
 11273 0242 03       		.uleb128 0x3
 11274 0243 0E       		.uleb128 0xe
 11275 0244 3A       		.uleb128 0x3a
 11276 0245 0B       		.uleb128 0xb
 11277 0246 3B       		.uleb128 0x3b
 11278 0247 05       		.uleb128 0x5
 11279 0248 39       		.uleb128 0x39
 11280 0249 0B       		.uleb128 0xb
 11281 024a 49       		.uleb128 0x49
 11282 024b 13       		.uleb128 0x13
 11283 024c 1C       		.uleb128 0x1c
 11284 024d 0B       		.uleb128 0xb
 11285 024e 00       		.byte	0
 11286 024f 00       		.byte	0
ARM GAS  /tmp/ccqyZH0w.s 			page 199


 11287 0250 29       		.uleb128 0x29
 11288 0251 898201   		.uleb128 0x4109
 11289 0254 01       		.byte	0x1
 11290 0255 11       		.uleb128 0x11
 11291 0256 01       		.uleb128 0x1
 11292 0257 31       		.uleb128 0x31
 11293 0258 13       		.uleb128 0x13
 11294 0259 01       		.uleb128 0x1
 11295 025a 13       		.uleb128 0x13
 11296 025b 00       		.byte	0
 11297 025c 00       		.byte	0
 11298 025d 2A       		.uleb128 0x2a
 11299 025e 8A8201   		.uleb128 0x410a
 11300 0261 00       		.byte	0
 11301 0262 02       		.uleb128 0x2
 11302 0263 18       		.uleb128 0x18
 11303 0264 9142     		.uleb128 0x2111
 11304 0266 18       		.uleb128 0x18
 11305 0267 00       		.byte	0
 11306 0268 00       		.byte	0
 11307 0269 2B       		.uleb128 0x2b
 11308 026a 898201   		.uleb128 0x4109
 11309 026d 00       		.byte	0
 11310 026e 11       		.uleb128 0x11
 11311 026f 01       		.uleb128 0x1
 11312 0270 31       		.uleb128 0x31
 11313 0271 13       		.uleb128 0x13
 11314 0272 00       		.byte	0
 11315 0273 00       		.byte	0
 11316 0274 2C       		.uleb128 0x2c
 11317 0275 34       		.uleb128 0x34
 11318 0276 00       		.byte	0
 11319 0277 03       		.uleb128 0x3
 11320 0278 0E       		.uleb128 0xe
 11321 0279 3A       		.uleb128 0x3a
 11322 027a 0B       		.uleb128 0xb
 11323 027b 3B       		.uleb128 0x3b
 11324 027c 05       		.uleb128 0x5
 11325 027d 39       		.uleb128 0x39
 11326 027e 0B       		.uleb128 0xb
 11327 027f 49       		.uleb128 0x49
 11328 0280 13       		.uleb128 0x13
 11329 0281 02       		.uleb128 0x2
 11330 0282 18       		.uleb128 0x18
 11331 0283 00       		.byte	0
 11332 0284 00       		.byte	0
 11333 0285 2D       		.uleb128 0x2d
 11334 0286 2E       		.uleb128 0x2e
 11335 0287 01       		.byte	0x1
 11336 0288 3F       		.uleb128 0x3f
 11337 0289 19       		.uleb128 0x19
 11338 028a 03       		.uleb128 0x3
 11339 028b 0E       		.uleb128 0xe
 11340 028c 3A       		.uleb128 0x3a
 11341 028d 0B       		.uleb128 0xb
 11342 028e 3B       		.uleb128 0x3b
 11343 028f 05       		.uleb128 0x5
ARM GAS  /tmp/ccqyZH0w.s 			page 200


 11344 0290 39       		.uleb128 0x39
 11345 0291 0B       		.uleb128 0xb
 11346 0292 27       		.uleb128 0x27
 11347 0293 19       		.uleb128 0x19
 11348 0294 49       		.uleb128 0x49
 11349 0295 13       		.uleb128 0x13
 11350 0296 20       		.uleb128 0x20
 11351 0297 0B       		.uleb128 0xb
 11352 0298 01       		.uleb128 0x1
 11353 0299 13       		.uleb128 0x13
 11354 029a 00       		.byte	0
 11355 029b 00       		.byte	0
 11356 029c 2E       		.uleb128 0x2e
 11357 029d 05       		.uleb128 0x5
 11358 029e 00       		.byte	0
 11359 029f 03       		.uleb128 0x3
 11360 02a0 08       		.uleb128 0x8
 11361 02a1 3A       		.uleb128 0x3a
 11362 02a2 0B       		.uleb128 0xb
 11363 02a3 3B       		.uleb128 0x3b
 11364 02a4 05       		.uleb128 0x5
 11365 02a5 39       		.uleb128 0x39
 11366 02a6 0B       		.uleb128 0xb
 11367 02a7 49       		.uleb128 0x49
 11368 02a8 13       		.uleb128 0x13
 11369 02a9 00       		.byte	0
 11370 02aa 00       		.byte	0
 11371 02ab 2F       		.uleb128 0x2f
 11372 02ac 05       		.uleb128 0x5
 11373 02ad 00       		.byte	0
 11374 02ae 03       		.uleb128 0x3
 11375 02af 0E       		.uleb128 0xe
 11376 02b0 3A       		.uleb128 0x3a
 11377 02b1 0B       		.uleb128 0xb
 11378 02b2 3B       		.uleb128 0x3b
 11379 02b3 05       		.uleb128 0x5
 11380 02b4 39       		.uleb128 0x39
 11381 02b5 0B       		.uleb128 0xb
 11382 02b6 49       		.uleb128 0x49
 11383 02b7 13       		.uleb128 0x13
 11384 02b8 00       		.byte	0
 11385 02b9 00       		.byte	0
 11386 02ba 30       		.uleb128 0x30
 11387 02bb 34       		.uleb128 0x34
 11388 02bc 00       		.byte	0
 11389 02bd 03       		.uleb128 0x3
 11390 02be 0E       		.uleb128 0xe
 11391 02bf 3A       		.uleb128 0x3a
 11392 02c0 0B       		.uleb128 0xb
 11393 02c1 3B       		.uleb128 0x3b
 11394 02c2 05       		.uleb128 0x5
 11395 02c3 39       		.uleb128 0x39
 11396 02c4 0B       		.uleb128 0xb
 11397 02c5 49       		.uleb128 0x49
 11398 02c6 13       		.uleb128 0x13
 11399 02c7 00       		.byte	0
 11400 02c8 00       		.byte	0
ARM GAS  /tmp/ccqyZH0w.s 			page 201


 11401 02c9 31       		.uleb128 0x31
 11402 02ca 1D       		.uleb128 0x1d
 11403 02cb 01       		.byte	0x1
 11404 02cc 31       		.uleb128 0x31
 11405 02cd 13       		.uleb128 0x13
 11406 02ce 52       		.uleb128 0x52
 11407 02cf 01       		.uleb128 0x1
 11408 02d0 B842     		.uleb128 0x2138
 11409 02d2 05       		.uleb128 0x5
 11410 02d3 11       		.uleb128 0x11
 11411 02d4 01       		.uleb128 0x1
 11412 02d5 12       		.uleb128 0x12
 11413 02d6 06       		.uleb128 0x6
 11414 02d7 58       		.uleb128 0x58
 11415 02d8 0B       		.uleb128 0xb
 11416 02d9 59       		.uleb128 0x59
 11417 02da 05       		.uleb128 0x5
 11418 02db 57       		.uleb128 0x57
 11419 02dc 0B       		.uleb128 0xb
 11420 02dd 01       		.uleb128 0x1
 11421 02de 13       		.uleb128 0x13
 11422 02df 00       		.byte	0
 11423 02e0 00       		.byte	0
 11424 02e1 32       		.uleb128 0x32
 11425 02e2 05       		.uleb128 0x5
 11426 02e3 00       		.byte	0
 11427 02e4 31       		.uleb128 0x31
 11428 02e5 13       		.uleb128 0x13
 11429 02e6 02       		.uleb128 0x2
 11430 02e7 17       		.uleb128 0x17
 11431 02e8 B742     		.uleb128 0x2137
 11432 02ea 17       		.uleb128 0x17
 11433 02eb 00       		.byte	0
 11434 02ec 00       		.byte	0
 11435 02ed 33       		.uleb128 0x33
 11436 02ee 34       		.uleb128 0x34
 11437 02ef 00       		.byte	0
 11438 02f0 31       		.uleb128 0x31
 11439 02f1 13       		.uleb128 0x13
 11440 02f2 02       		.uleb128 0x2
 11441 02f3 17       		.uleb128 0x17
 11442 02f4 B742     		.uleb128 0x2137
 11443 02f6 17       		.uleb128 0x17
 11444 02f7 00       		.byte	0
 11445 02f8 00       		.byte	0
 11446 02f9 34       		.uleb128 0x34
 11447 02fa 898201   		.uleb128 0x4109
 11448 02fd 01       		.byte	0x1
 11449 02fe 11       		.uleb128 0x11
 11450 02ff 01       		.uleb128 0x1
 11451 0300 31       		.uleb128 0x31
 11452 0301 13       		.uleb128 0x13
 11453 0302 00       		.byte	0
 11454 0303 00       		.byte	0
 11455 0304 35       		.uleb128 0x35
 11456 0305 34       		.uleb128 0x34
 11457 0306 00       		.byte	0
ARM GAS  /tmp/ccqyZH0w.s 			page 202


 11458 0307 03       		.uleb128 0x3
 11459 0308 0E       		.uleb128 0xe
 11460 0309 3A       		.uleb128 0x3a
 11461 030a 0B       		.uleb128 0xb
 11462 030b 3B       		.uleb128 0x3b
 11463 030c 05       		.uleb128 0x5
 11464 030d 39       		.uleb128 0x39
 11465 030e 0B       		.uleb128 0xb
 11466 030f 49       		.uleb128 0x49
 11467 0310 13       		.uleb128 0x13
 11468 0311 1C       		.uleb128 0x1c
 11469 0312 0D       		.uleb128 0xd
 11470 0313 00       		.byte	0
 11471 0314 00       		.byte	0
 11472 0315 36       		.uleb128 0x36
 11473 0316 1D       		.uleb128 0x1d
 11474 0317 01       		.byte	0x1
 11475 0318 31       		.uleb128 0x31
 11476 0319 13       		.uleb128 0x13
 11477 031a 52       		.uleb128 0x52
 11478 031b 01       		.uleb128 0x1
 11479 031c B842     		.uleb128 0x2138
 11480 031e 05       		.uleb128 0x5
 11481 031f 55       		.uleb128 0x55
 11482 0320 17       		.uleb128 0x17
 11483 0321 58       		.uleb128 0x58
 11484 0322 0B       		.uleb128 0xb
 11485 0323 59       		.uleb128 0x59
 11486 0324 05       		.uleb128 0x5
 11487 0325 57       		.uleb128 0x57
 11488 0326 0B       		.uleb128 0xb
 11489 0327 01       		.uleb128 0x1
 11490 0328 13       		.uleb128 0x13
 11491 0329 00       		.byte	0
 11492 032a 00       		.byte	0
 11493 032b 37       		.uleb128 0x37
 11494 032c 0B       		.uleb128 0xb
 11495 032d 01       		.byte	0x1
 11496 032e 55       		.uleb128 0x55
 11497 032f 17       		.uleb128 0x17
 11498 0330 00       		.byte	0
 11499 0331 00       		.byte	0
 11500 0332 38       		.uleb128 0x38
 11501 0333 05       		.uleb128 0x5
 11502 0334 00       		.byte	0
 11503 0335 31       		.uleb128 0x31
 11504 0336 13       		.uleb128 0x13
 11505 0337 00       		.byte	0
 11506 0338 00       		.byte	0
 11507 0339 39       		.uleb128 0x39
 11508 033a 34       		.uleb128 0x34
 11509 033b 00       		.byte	0
 11510 033c 03       		.uleb128 0x3
 11511 033d 08       		.uleb128 0x8
 11512 033e 3A       		.uleb128 0x3a
 11513 033f 0B       		.uleb128 0xb
 11514 0340 3B       		.uleb128 0x3b
ARM GAS  /tmp/ccqyZH0w.s 			page 203


 11515 0341 05       		.uleb128 0x5
 11516 0342 39       		.uleb128 0x39
 11517 0343 0B       		.uleb128 0xb
 11518 0344 49       		.uleb128 0x49
 11519 0345 13       		.uleb128 0x13
 11520 0346 02       		.uleb128 0x2
 11521 0347 17       		.uleb128 0x17
 11522 0348 B742     		.uleb128 0x2137
 11523 034a 17       		.uleb128 0x17
 11524 034b 00       		.byte	0
 11525 034c 00       		.byte	0
 11526 034d 3A       		.uleb128 0x3a
 11527 034e 2E       		.uleb128 0x2e
 11528 034f 01       		.byte	0x1
 11529 0350 3F       		.uleb128 0x3f
 11530 0351 19       		.uleb128 0x19
 11531 0352 03       		.uleb128 0x3
 11532 0353 0E       		.uleb128 0xe
 11533 0354 3A       		.uleb128 0x3a
 11534 0355 0B       		.uleb128 0xb
 11535 0356 3B       		.uleb128 0x3b
 11536 0357 05       		.uleb128 0x5
 11537 0358 39       		.uleb128 0x39
 11538 0359 0B       		.uleb128 0xb
 11539 035a 27       		.uleb128 0x27
 11540 035b 19       		.uleb128 0x19
 11541 035c 11       		.uleb128 0x11
 11542 035d 01       		.uleb128 0x1
 11543 035e 12       		.uleb128 0x12
 11544 035f 06       		.uleb128 0x6
 11545 0360 40       		.uleb128 0x40
 11546 0361 18       		.uleb128 0x18
 11547 0362 9742     		.uleb128 0x2117
 11548 0364 19       		.uleb128 0x19
 11549 0365 01       		.uleb128 0x1
 11550 0366 13       		.uleb128 0x13
 11551 0367 00       		.byte	0
 11552 0368 00       		.byte	0
 11553 0369 3B       		.uleb128 0x3b
 11554 036a 34       		.uleb128 0x34
 11555 036b 00       		.byte	0
 11556 036c 03       		.uleb128 0x3
 11557 036d 0E       		.uleb128 0xe
 11558 036e 3A       		.uleb128 0x3a
 11559 036f 0B       		.uleb128 0xb
 11560 0370 3B       		.uleb128 0x3b
 11561 0371 05       		.uleb128 0x5
 11562 0372 39       		.uleb128 0x39
 11563 0373 0B       		.uleb128 0xb
 11564 0374 49       		.uleb128 0x49
 11565 0375 13       		.uleb128 0x13
 11566 0376 1C       		.uleb128 0x1c
 11567 0377 05       		.uleb128 0x5
 11568 0378 00       		.byte	0
 11569 0379 00       		.byte	0
 11570 037a 3C       		.uleb128 0x3c
 11571 037b 34       		.uleb128 0x34
ARM GAS  /tmp/ccqyZH0w.s 			page 204


 11572 037c 00       		.byte	0
 11573 037d 03       		.uleb128 0x3
 11574 037e 0E       		.uleb128 0xe
 11575 037f 3A       		.uleb128 0x3a
 11576 0380 0B       		.uleb128 0xb
 11577 0381 3B       		.uleb128 0x3b
 11578 0382 05       		.uleb128 0x5
 11579 0383 39       		.uleb128 0x39
 11580 0384 0B       		.uleb128 0xb
 11581 0385 49       		.uleb128 0x49
 11582 0386 13       		.uleb128 0x13
 11583 0387 1C       		.uleb128 0x1c
 11584 0388 06       		.uleb128 0x6
 11585 0389 00       		.byte	0
 11586 038a 00       		.byte	0
 11587 038b 3D       		.uleb128 0x3d
 11588 038c 898201   		.uleb128 0x4109
 11589 038f 01       		.byte	0x1
 11590 0390 11       		.uleb128 0x11
 11591 0391 01       		.uleb128 0x1
 11592 0392 9542     		.uleb128 0x2115
 11593 0394 19       		.uleb128 0x19
 11594 0395 31       		.uleb128 0x31
 11595 0396 13       		.uleb128 0x13
 11596 0397 01       		.uleb128 0x1
 11597 0398 13       		.uleb128 0x13
 11598 0399 00       		.byte	0
 11599 039a 00       		.byte	0
 11600 039b 3E       		.uleb128 0x3e
 11601 039c 2E       		.uleb128 0x2e
 11602 039d 01       		.byte	0x1
 11603 039e 3F       		.uleb128 0x3f
 11604 039f 19       		.uleb128 0x19
 11605 03a0 03       		.uleb128 0x3
 11606 03a1 0E       		.uleb128 0xe
 11607 03a2 3A       		.uleb128 0x3a
 11608 03a3 0B       		.uleb128 0xb
 11609 03a4 3B       		.uleb128 0x3b
 11610 03a5 0B       		.uleb128 0xb
 11611 03a6 39       		.uleb128 0x39
 11612 03a7 0B       		.uleb128 0xb
 11613 03a8 27       		.uleb128 0x27
 11614 03a9 19       		.uleb128 0x19
 11615 03aa 49       		.uleb128 0x49
 11616 03ab 13       		.uleb128 0x13
 11617 03ac 11       		.uleb128 0x11
 11618 03ad 01       		.uleb128 0x1
 11619 03ae 12       		.uleb128 0x12
 11620 03af 06       		.uleb128 0x6
 11621 03b0 40       		.uleb128 0x40
 11622 03b1 18       		.uleb128 0x18
 11623 03b2 9742     		.uleb128 0x2117
 11624 03b4 19       		.uleb128 0x19
 11625 03b5 01       		.uleb128 0x1
 11626 03b6 13       		.uleb128 0x13
 11627 03b7 00       		.byte	0
 11628 03b8 00       		.byte	0
ARM GAS  /tmp/ccqyZH0w.s 			page 205


 11629 03b9 3F       		.uleb128 0x3f
 11630 03ba 05       		.uleb128 0x5
 11631 03bb 00       		.byte	0
 11632 03bc 03       		.uleb128 0x3
 11633 03bd 08       		.uleb128 0x8
 11634 03be 3A       		.uleb128 0x3a
 11635 03bf 0B       		.uleb128 0xb
 11636 03c0 3B       		.uleb128 0x3b
 11637 03c1 0B       		.uleb128 0xb
 11638 03c2 39       		.uleb128 0x39
 11639 03c3 0B       		.uleb128 0xb
 11640 03c4 49       		.uleb128 0x49
 11641 03c5 13       		.uleb128 0x13
 11642 03c6 02       		.uleb128 0x2
 11643 03c7 17       		.uleb128 0x17
 11644 03c8 B742     		.uleb128 0x2137
 11645 03ca 17       		.uleb128 0x17
 11646 03cb 00       		.byte	0
 11647 03cc 00       		.byte	0
 11648 03cd 40       		.uleb128 0x40
 11649 03ce 05       		.uleb128 0x5
 11650 03cf 00       		.byte	0
 11651 03d0 03       		.uleb128 0x3
 11652 03d1 0E       		.uleb128 0xe
 11653 03d2 3A       		.uleb128 0x3a
 11654 03d3 0B       		.uleb128 0xb
 11655 03d4 3B       		.uleb128 0x3b
 11656 03d5 0B       		.uleb128 0xb
 11657 03d6 39       		.uleb128 0x39
 11658 03d7 0B       		.uleb128 0xb
 11659 03d8 49       		.uleb128 0x49
 11660 03d9 13       		.uleb128 0x13
 11661 03da 02       		.uleb128 0x2
 11662 03db 17       		.uleb128 0x17
 11663 03dc B742     		.uleb128 0x2137
 11664 03de 17       		.uleb128 0x17
 11665 03df 00       		.byte	0
 11666 03e0 00       		.byte	0
 11667 03e1 41       		.uleb128 0x41
 11668 03e2 34       		.uleb128 0x34
 11669 03e3 00       		.byte	0
 11670 03e4 03       		.uleb128 0x3
 11671 03e5 0E       		.uleb128 0xe
 11672 03e6 3A       		.uleb128 0x3a
 11673 03e7 0B       		.uleb128 0xb
 11674 03e8 3B       		.uleb128 0x3b
 11675 03e9 0B       		.uleb128 0xb
 11676 03ea 39       		.uleb128 0x39
 11677 03eb 0B       		.uleb128 0xb
 11678 03ec 49       		.uleb128 0x49
 11679 03ed 13       		.uleb128 0x13
 11680 03ee 02       		.uleb128 0x2
 11681 03ef 17       		.uleb128 0x17
 11682 03f0 B742     		.uleb128 0x2137
 11683 03f2 17       		.uleb128 0x17
 11684 03f3 00       		.byte	0
 11685 03f4 00       		.byte	0
ARM GAS  /tmp/ccqyZH0w.s 			page 206


 11686 03f5 42       		.uleb128 0x42
 11687 03f6 34       		.uleb128 0x34
 11688 03f7 00       		.byte	0
 11689 03f8 03       		.uleb128 0x3
 11690 03f9 0E       		.uleb128 0xe
 11691 03fa 3A       		.uleb128 0x3a
 11692 03fb 0B       		.uleb128 0xb
 11693 03fc 3B       		.uleb128 0x3b
 11694 03fd 0B       		.uleb128 0xb
 11695 03fe 39       		.uleb128 0x39
 11696 03ff 0B       		.uleb128 0xb
 11697 0400 49       		.uleb128 0x49
 11698 0401 13       		.uleb128 0x13
 11699 0402 02       		.uleb128 0x2
 11700 0403 18       		.uleb128 0x18
 11701 0404 00       		.byte	0
 11702 0405 00       		.byte	0
 11703 0406 43       		.uleb128 0x43
 11704 0407 2E       		.uleb128 0x2e
 11705 0408 01       		.byte	0x1
 11706 0409 31       		.uleb128 0x31
 11707 040a 13       		.uleb128 0x13
 11708 040b 11       		.uleb128 0x11
 11709 040c 01       		.uleb128 0x1
 11710 040d 12       		.uleb128 0x12
 11711 040e 06       		.uleb128 0x6
 11712 040f 40       		.uleb128 0x40
 11713 0410 18       		.uleb128 0x18
 11714 0411 9742     		.uleb128 0x2117
 11715 0413 19       		.uleb128 0x19
 11716 0414 01       		.uleb128 0x1
 11717 0415 13       		.uleb128 0x13
 11718 0416 00       		.byte	0
 11719 0417 00       		.byte	0
 11720 0418 44       		.uleb128 0x44
 11721 0419 34       		.uleb128 0x34
 11722 041a 00       		.byte	0
 11723 041b 31       		.uleb128 0x31
 11724 041c 13       		.uleb128 0x13
 11725 041d 1C       		.uleb128 0x1c
 11726 041e 0B       		.uleb128 0xb
 11727 041f 00       		.byte	0
 11728 0420 00       		.byte	0
 11729 0421 45       		.uleb128 0x45
 11730 0422 34       		.uleb128 0x34
 11731 0423 00       		.byte	0
 11732 0424 31       		.uleb128 0x31
 11733 0425 13       		.uleb128 0x13
 11734 0426 00       		.byte	0
 11735 0427 00       		.byte	0
 11736 0428 46       		.uleb128 0x46
 11737 0429 34       		.uleb128 0x34
 11738 042a 00       		.byte	0
 11739 042b 31       		.uleb128 0x31
 11740 042c 13       		.uleb128 0x13
 11741 042d 02       		.uleb128 0x2
 11742 042e 18       		.uleb128 0x18
ARM GAS  /tmp/ccqyZH0w.s 			page 207


 11743 042f 00       		.byte	0
 11744 0430 00       		.byte	0
 11745 0431 47       		.uleb128 0x47
 11746 0432 898201   		.uleb128 0x4109
 11747 0435 01       		.byte	0x1
 11748 0436 11       		.uleb128 0x11
 11749 0437 01       		.uleb128 0x1
 11750 0438 9542     		.uleb128 0x2115
 11751 043a 19       		.uleb128 0x19
 11752 043b 31       		.uleb128 0x31
 11753 043c 13       		.uleb128 0x13
 11754 043d 00       		.byte	0
 11755 043e 00       		.byte	0
 11756 043f 48       		.uleb128 0x48
 11757 0440 2E       		.uleb128 0x2e
 11758 0441 00       		.byte	0
 11759 0442 3F       		.uleb128 0x3f
 11760 0443 19       		.uleb128 0x19
 11761 0444 3C       		.uleb128 0x3c
 11762 0445 19       		.uleb128 0x19
 11763 0446 6E       		.uleb128 0x6e
 11764 0447 0E       		.uleb128 0xe
 11765 0448 03       		.uleb128 0x3
 11766 0449 0E       		.uleb128 0xe
 11767 044a 00       		.byte	0
 11768 044b 00       		.byte	0
 11769 044c 49       		.uleb128 0x49
 11770 044d 2E       		.uleb128 0x2e
 11771 044e 00       		.byte	0
 11772 044f 3F       		.uleb128 0x3f
 11773 0450 19       		.uleb128 0x19
 11774 0451 3C       		.uleb128 0x3c
 11775 0452 19       		.uleb128 0x19
 11776 0453 6E       		.uleb128 0x6e
 11777 0454 0E       		.uleb128 0xe
 11778 0455 03       		.uleb128 0x3
 11779 0456 0E       		.uleb128 0xe
 11780 0457 3A       		.uleb128 0x3a
 11781 0458 0B       		.uleb128 0xb
 11782 0459 3B       		.uleb128 0x3b
 11783 045a 0B       		.uleb128 0xb
 11784 045b 39       		.uleb128 0x39
 11785 045c 0B       		.uleb128 0xb
 11786 045d 00       		.byte	0
 11787 045e 00       		.byte	0
 11788 045f 4A       		.uleb128 0x4a
 11789 0460 2E       		.uleb128 0x2e
 11790 0461 00       		.byte	0
 11791 0462 3F       		.uleb128 0x3f
 11792 0463 19       		.uleb128 0x19
 11793 0464 3C       		.uleb128 0x3c
 11794 0465 19       		.uleb128 0x19
 11795 0466 6E       		.uleb128 0x6e
 11796 0467 0E       		.uleb128 0xe
 11797 0468 03       		.uleb128 0x3
 11798 0469 0E       		.uleb128 0xe
 11799 046a 3A       		.uleb128 0x3a
ARM GAS  /tmp/ccqyZH0w.s 			page 208


 11800 046b 0B       		.uleb128 0xb
 11801 046c 3B       		.uleb128 0x3b
 11802 046d 05       		.uleb128 0x5
 11803 046e 39       		.uleb128 0x39
 11804 046f 0B       		.uleb128 0xb
 11805 0470 00       		.byte	0
 11806 0471 00       		.byte	0
 11807 0472 00       		.byte	0
 11808              		.section	.debug_loc,"",%progbits
 11809              	.Ldebug_loc0:
 11810              	.LVUS186:
 11811 0000 00       		.uleb128 0
 11812 0001 00       		.uleb128 .LVU1385
 11813 0002 00       		.uleb128 .LVU1385
 11814 0003 00       		.uleb128 0
 11815              	.LLST186:
 11816 0004 00000000 		.4byte	.LVL427
 11817 0008 21000000 		.4byte	.LVL431-1
 11818 000c 0100     		.2byte	0x1
 11819 000e 50       		.byte	0x50
 11820 000f 21000000 		.4byte	.LVL431-1
 11821 0013 38000000 		.4byte	.LFE25
 11822 0017 0400     		.2byte	0x4
 11823 0019 F3       		.byte	0xf3
 11824 001a 01       		.uleb128 0x1
 11825 001b 50       		.byte	0x50
 11826 001c 9F       		.byte	0x9f
 11827 001d 00000000 		.4byte	0
 11828 0021 00000000 		.4byte	0
 11829              	.LVUS187:
 11830 0025 00       		.uleb128 0
 11831 0026 00       		.uleb128 .LVU1377
 11832 0027 00       		.uleb128 .LVU1377
 11833 0028 00       		.uleb128 .LVU1385
 11834 0029 00       		.uleb128 .LVU1385
 11835 002a 00       		.uleb128 0
 11836              	.LLST187:
 11837 002b 00000000 		.4byte	.LVL427
 11838 002f 12000000 		.4byte	.LVL428
 11839 0033 0100     		.2byte	0x1
 11840 0035 51       		.byte	0x51
 11841 0036 12000000 		.4byte	.LVL428
 11842 003a 21000000 		.4byte	.LVL431-1
 11843 003e 0200     		.2byte	0x2
 11844 0040 7D       		.byte	0x7d
 11845 0041 00       		.sleb128 0
 11846 0042 21000000 		.4byte	.LVL431-1
 11847 0046 38000000 		.4byte	.LFE25
 11848 004a 0400     		.2byte	0x4
 11849 004c F3       		.byte	0xf3
 11850 004d 01       		.uleb128 0x1
 11851 004e 51       		.byte	0x51
 11852 004f 9F       		.byte	0x9f
 11853 0050 00000000 		.4byte	0
 11854 0054 00000000 		.4byte	0
 11855              	.LVUS188:
 11856 0058 00       		.uleb128 0
ARM GAS  /tmp/ccqyZH0w.s 			page 209


 11857 0059 00       		.uleb128 .LVU1379
 11858 005a 00       		.uleb128 .LVU1379
 11859 005b 00       		.uleb128 .LVU1385
 11860 005c 00       		.uleb128 .LVU1385
 11861 005d 00       		.uleb128 0
 11862              	.LLST188:
 11863 005e 00000000 		.4byte	.LVL427
 11864 0062 16000000 		.4byte	.LVL429
 11865 0066 0100     		.2byte	0x1
 11866 0068 52       		.byte	0x52
 11867 0069 16000000 		.4byte	.LVL429
 11868 006d 21000000 		.4byte	.LVL431-1
 11869 0071 0200     		.2byte	0x2
 11870 0073 91       		.byte	0x91
 11871 0074 64       		.sleb128 -28
 11872 0075 21000000 		.4byte	.LVL431-1
 11873 0079 38000000 		.4byte	.LFE25
 11874 007d 0400     		.2byte	0x4
 11875 007f F3       		.byte	0xf3
 11876 0080 01       		.uleb128 0x1
 11877 0081 52       		.byte	0x52
 11878 0082 9F       		.byte	0x9f
 11879 0083 00000000 		.4byte	0
 11880 0087 00000000 		.4byte	0
 11881              	.LVUS189:
 11882 008b 01       		.uleb128 .LVU1381
 11883 008c 00       		.uleb128 .LVU1385
 11884 008d 00       		.uleb128 .LVU1385
 11885 008e 00       		.uleb128 .LVU1387
 11886              	.LLST189:
 11887 008f 1E000000 		.4byte	.LVL430
 11888 0093 22000000 		.4byte	.LVL431
 11889 0097 0200     		.2byte	0x2
 11890 0099 30       		.byte	0x30
 11891 009a 9F       		.byte	0x9f
 11892 009b 22000000 		.4byte	.LVL431
 11893 009f 33000000 		.4byte	.LVL432-1
 11894 00a3 0100     		.2byte	0x1
 11895 00a5 50       		.byte	0x50
 11896 00a6 00000000 		.4byte	0
 11897 00aa 00000000 		.4byte	0
 11898              	.LVUS182:
 11899 00ae 00       		.uleb128 0
 11900 00af 00       		.uleb128 .LVU1369
 11901 00b0 00       		.uleb128 .LVU1369
 11902 00b1 00       		.uleb128 0
 11903              	.LLST182:
 11904 00b2 00000000 		.4byte	.LVL421
 11905 00b6 29000000 		.4byte	.LVL425-1
 11906 00ba 0100     		.2byte	0x1
 11907 00bc 50       		.byte	0x50
 11908 00bd 29000000 		.4byte	.LVL425-1
 11909 00c1 40000000 		.4byte	.LFE24
 11910 00c5 0400     		.2byte	0x4
 11911 00c7 F3       		.byte	0xf3
 11912 00c8 01       		.uleb128 0x1
 11913 00c9 50       		.byte	0x50
ARM GAS  /tmp/ccqyZH0w.s 			page 210


 11914 00ca 9F       		.byte	0x9f
 11915 00cb 00000000 		.4byte	0
 11916 00cf 00000000 		.4byte	0
 11917              	.LVUS183:
 11918 00d3 00       		.uleb128 0
 11919 00d4 00       		.uleb128 .LVU1363
 11920 00d5 00       		.uleb128 .LVU1363
 11921 00d6 00       		.uleb128 0
 11922              	.LLST183:
 11923 00d7 00000000 		.4byte	.LVL421
 11924 00db 1E000000 		.4byte	.LVL423
 11925 00df 0100     		.2byte	0x1
 11926 00e1 51       		.byte	0x51
 11927 00e2 1E000000 		.4byte	.LVL423
 11928 00e6 40000000 		.4byte	.LFE24
 11929 00ea 0400     		.2byte	0x4
 11930 00ec F3       		.byte	0xf3
 11931 00ed 01       		.uleb128 0x1
 11932 00ee 51       		.byte	0x51
 11933 00ef 9F       		.byte	0x9f
 11934 00f0 00000000 		.4byte	0
 11935 00f4 00000000 		.4byte	0
 11936              	.LVUS184:
 11937 00f8 00       		.uleb128 0
 11938 00f9 00       		.uleb128 .LVU1362
 11939 00fa 00       		.uleb128 .LVU1362
 11940 00fb 00       		.uleb128 0
 11941              	.LLST184:
 11942 00fc 00000000 		.4byte	.LVL421
 11943 0100 1C000000 		.4byte	.LVL422
 11944 0104 0100     		.2byte	0x1
 11945 0106 52       		.byte	0x52
 11946 0107 1C000000 		.4byte	.LVL422
 11947 010b 40000000 		.4byte	.LFE24
 11948 010f 0400     		.2byte	0x4
 11949 0111 F3       		.byte	0xf3
 11950 0112 01       		.uleb128 0x1
 11951 0113 52       		.byte	0x52
 11952 0114 9F       		.byte	0x9f
 11953 0115 00000000 		.4byte	0
 11954 0119 00000000 		.4byte	0
 11955              	.LVUS185:
 11956 011d 01       		.uleb128 .LVU1365
 11957 011e 00       		.uleb128 .LVU1369
 11958 011f 00       		.uleb128 .LVU1369
 11959 0120 00       		.uleb128 .LVU1371
 11960              	.LLST185:
 11961 0121 26000000 		.4byte	.LVL424
 11962 0125 2A000000 		.4byte	.LVL425
 11963 0129 0200     		.2byte	0x2
 11964 012b 30       		.byte	0x30
 11965 012c 9F       		.byte	0x9f
 11966 012d 2A000000 		.4byte	.LVL425
 11967 0131 3B000000 		.4byte	.LVL426-1
 11968 0135 0100     		.2byte	0x1
 11969 0137 50       		.byte	0x50
 11970 0138 00000000 		.4byte	0
ARM GAS  /tmp/ccqyZH0w.s 			page 211


 11971 013c 00000000 		.4byte	0
 11972              	.LVUS145:
 11973 0140 00       		.uleb128 0
 11974 0141 00       		.uleb128 .LVU1026
 11975 0142 00       		.uleb128 .LVU1026
 11976 0143 00       		.uleb128 0
 11977              	.LLST145:
 11978 0144 00000000 		.4byte	.LVL335
 11979 0148 1F000000 		.4byte	.LVL340-1
 11980 014c 0100     		.2byte	0x1
 11981 014e 50       		.byte	0x50
 11982 014f 1F000000 		.4byte	.LVL340-1
 11983 0153 5C000000 		.4byte	.LFE23
 11984 0157 0100     		.2byte	0x1
 11985 0159 54       		.byte	0x54
 11986 015a 00000000 		.4byte	0
 11987 015e 00000000 		.4byte	0
 11988              	.LVUS146:
 11989 0162 00       		.uleb128 0
 11990 0163 00       		.uleb128 .LVU1026
 11991 0164 00       		.uleb128 .LVU1026
 11992 0165 00       		.uleb128 0
 11993              	.LLST146:
 11994 0166 00000000 		.4byte	.LVL335
 11995 016a 1F000000 		.4byte	.LVL340-1
 11996 016e 0100     		.2byte	0x1
 11997 0170 51       		.byte	0x51
 11998 0171 1F000000 		.4byte	.LVL340-1
 11999 0175 5C000000 		.4byte	.LFE23
 12000 0179 0400     		.2byte	0x4
 12001 017b F3       		.byte	0xf3
 12002 017c 01       		.uleb128 0x1
 12003 017d 51       		.byte	0x51
 12004 017e 9F       		.byte	0x9f
 12005 017f 00000000 		.4byte	0
 12006 0183 00000000 		.4byte	0
 12007              	.LVUS147:
 12008 0187 00       		.uleb128 0
 12009 0188 00       		.uleb128 .LVU1018
 12010 0189 00       		.uleb128 .LVU1018
 12011 018a 00       		.uleb128 0
 12012              	.LLST147:
 12013 018b 00000000 		.4byte	.LVL335
 12014 018f 0E000000 		.4byte	.LVL337
 12015 0193 0100     		.2byte	0x1
 12016 0195 52       		.byte	0x52
 12017 0196 0E000000 		.4byte	.LVL337
 12018 019a 5C000000 		.4byte	.LFE23
 12019 019e 0100     		.2byte	0x1
 12020 01a0 56       		.byte	0x56
 12021 01a1 00000000 		.4byte	0
 12022 01a5 00000000 		.4byte	0
 12023              	.LVUS148:
 12024 01a9 00       		.uleb128 0
 12025 01aa 00       		.uleb128 .LVU1017
 12026 01ab 00       		.uleb128 .LVU1017
 12027 01ac 00       		.uleb128 0
ARM GAS  /tmp/ccqyZH0w.s 			page 212


 12028              	.LLST148:
 12029 01ad 00000000 		.4byte	.LVL335
 12030 01b1 0C000000 		.4byte	.LVL336
 12031 01b5 0100     		.2byte	0x1
 12032 01b7 53       		.byte	0x53
 12033 01b8 0C000000 		.4byte	.LVL336
 12034 01bc 5C000000 		.4byte	.LFE23
 12035 01c0 0400     		.2byte	0x4
 12036 01c2 F3       		.byte	0xf3
 12037 01c3 01       		.uleb128 0x1
 12038 01c4 53       		.byte	0x53
 12039 01c5 9F       		.byte	0x9f
 12040 01c6 00000000 		.4byte	0
 12041 01ca 00000000 		.4byte	0
 12042              	.LVUS149:
 12043 01ce 01       		.uleb128 .LVU1020
 12044 01cf 00       		.uleb128 .LVU1026
 12045 01d0 00       		.uleb128 .LVU1026
 12046 01d1 00       		.uleb128 .LVU1033
 12047 01d2 00       		.uleb128 .LVU1034
 12048 01d3 00       		.uleb128 .LVU1038
 12049 01d4 00       		.uleb128 .LVU1039
 12050 01d5 00       		.uleb128 .LVU1043
 12051              	.LLST149:
 12052 01d6 16000000 		.4byte	.LVL338
 12053 01da 20000000 		.4byte	.LVL340
 12054 01de 0200     		.2byte	0x2
 12055 01e0 30       		.byte	0x30
 12056 01e1 9F       		.byte	0x9f
 12057 01e2 20000000 		.4byte	.LVL340
 12058 01e6 38000000 		.4byte	.LVL342
 12059 01ea 0100     		.2byte	0x1
 12060 01ec 50       		.byte	0x50
 12061 01ed 3C000000 		.4byte	.LVL343
 12062 01f1 46000000 		.4byte	.LVL344
 12063 01f5 0100     		.2byte	0x1
 12064 01f7 50       		.byte	0x50
 12065 01f8 4A000000 		.4byte	.LVL345
 12066 01fc 57000000 		.4byte	.LVL346-1
 12067 0200 0100     		.2byte	0x1
 12068 0202 50       		.byte	0x50
 12069 0203 00000000 		.4byte	0
 12070 0207 00000000 		.4byte	0
 12071              	.LVUS150:
 12072 020b 02       		.uleb128 .LVU1021
 12073 020c 00       		.uleb128 .LVU1024
 12074 020d 00       		.uleb128 .LVU1024
 12075 020e 00       		.uleb128 0
 12076              	.LLST150:
 12077 020f 16000000 		.4byte	.LVL338
 12078 0213 1C000000 		.4byte	.LVL339
 12079 0217 0200     		.2byte	0x2
 12080 0219 30       		.byte	0x30
 12081 021a 9F       		.byte	0x9f
 12082 021b 1C000000 		.4byte	.LVL339
 12083 021f 5C000000 		.4byte	.LFE23
 12084 0223 0100     		.2byte	0x1
ARM GAS  /tmp/ccqyZH0w.s 			page 213


 12085 0225 57       		.byte	0x57
 12086 0226 00000000 		.4byte	0
 12087 022a 00000000 		.4byte	0
 12088              	.LVUS139:
 12089 022e 00       		.uleb128 0
 12090 022f 00       		.uleb128 .LVU982
 12091 0230 00       		.uleb128 .LVU982
 12092 0231 00       		.uleb128 .LVU990
 12093 0232 00       		.uleb128 .LVU990
 12094 0233 00       		.uleb128 .LVU991
 12095 0234 00       		.uleb128 .LVU991
 12096 0235 00       		.uleb128 0
 12097              	.LLST139:
 12098 0236 00000000 		.4byte	.LVL315
 12099 023a 24000000 		.4byte	.LVL320
 12100 023e 0100     		.2byte	0x1
 12101 0240 50       		.byte	0x50
 12102 0241 24000000 		.4byte	.LVL320
 12103 0245 42000000 		.4byte	.LVL324
 12104 0249 0100     		.2byte	0x1
 12105 024b 55       		.byte	0x55
 12106 024c 42000000 		.4byte	.LVL324
 12107 0250 46000000 		.4byte	.LVL325
 12108 0254 0100     		.2byte	0x1
 12109 0256 50       		.byte	0x50
 12110 0257 46000000 		.4byte	.LVL325
 12111 025b A0000000 		.4byte	.LFE22
 12112 025f 0100     		.2byte	0x1
 12113 0261 55       		.byte	0x55
 12114 0262 00000000 		.4byte	0
 12115 0266 00000000 		.4byte	0
 12116              	.LVUS140:
 12117 026a 00       		.uleb128 0
 12118 026b 00       		.uleb128 .LVU981
 12119 026c 00       		.uleb128 .LVU981
 12120 026d 00       		.uleb128 .LVU990
 12121 026e 00       		.uleb128 .LVU990
 12122 026f 00       		.uleb128 .LVU991
 12123 0270 00       		.uleb128 .LVU991
 12124 0271 00       		.uleb128 0
 12125              	.LLST140:
 12126 0272 00000000 		.4byte	.LVL315
 12127 0276 22000000 		.4byte	.LVL319
 12128 027a 0100     		.2byte	0x1
 12129 027c 51       		.byte	0x51
 12130 027d 22000000 		.4byte	.LVL319
 12131 0281 42000000 		.4byte	.LVL324
 12132 0285 0100     		.2byte	0x1
 12133 0287 57       		.byte	0x57
 12134 0288 42000000 		.4byte	.LVL324
 12135 028c 46000000 		.4byte	.LVL325
 12136 0290 0100     		.2byte	0x1
 12137 0292 51       		.byte	0x51
 12138 0293 46000000 		.4byte	.LVL325
 12139 0297 A0000000 		.4byte	.LFE22
 12140 029b 0100     		.2byte	0x1
 12141 029d 57       		.byte	0x57
ARM GAS  /tmp/ccqyZH0w.s 			page 214


 12142 029e 00000000 		.4byte	0
 12143 02a2 00000000 		.4byte	0
 12144              	.LVUS141:
 12145 02a6 00       		.uleb128 0
 12146 02a7 00       		.uleb128 .LVU968
 12147 02a8 00       		.uleb128 .LVU968
 12148 02a9 00       		.uleb128 0
 12149              	.LLST141:
 12150 02aa 00000000 		.4byte	.LVL315
 12151 02ae 08000000 		.4byte	.LVL316
 12152 02b2 0100     		.2byte	0x1
 12153 02b4 52       		.byte	0x52
 12154 02b5 08000000 		.4byte	.LVL316
 12155 02b9 A0000000 		.4byte	.LFE22
 12156 02bd 0400     		.2byte	0x4
 12157 02bf F3       		.byte	0xf3
 12158 02c0 01       		.uleb128 0x1
 12159 02c1 52       		.byte	0x52
 12160 02c2 9F       		.byte	0x9f
 12161 02c3 00000000 		.4byte	0
 12162 02c7 00000000 		.4byte	0
 12163              	.LVUS142:
 12164 02cb 00       		.uleb128 0
 12165 02cc 00       		.uleb128 .LVU983
 12166 02cd 00       		.uleb128 .LVU983
 12167 02ce 00       		.uleb128 .LVU990
 12168 02cf 00       		.uleb128 .LVU990
 12169 02d0 00       		.uleb128 .LVU991
 12170 02d1 00       		.uleb128 .LVU991
 12171 02d2 00       		.uleb128 0
 12172              	.LLST142:
 12173 02d3 00000000 		.4byte	.LVL315
 12174 02d7 27000000 		.4byte	.LVL321-1
 12175 02db 0100     		.2byte	0x1
 12176 02dd 53       		.byte	0x53
 12177 02de 27000000 		.4byte	.LVL321-1
 12178 02e2 42000000 		.4byte	.LVL324
 12179 02e6 0400     		.2byte	0x4
 12180 02e8 F3       		.byte	0xf3
 12181 02e9 01       		.uleb128 0x1
 12182 02ea 53       		.byte	0x53
 12183 02eb 9F       		.byte	0x9f
 12184 02ec 42000000 		.4byte	.LVL324
 12185 02f0 46000000 		.4byte	.LVL325
 12186 02f4 0100     		.2byte	0x1
 12187 02f6 53       		.byte	0x53
 12188 02f7 46000000 		.4byte	.LVL325
 12189 02fb A0000000 		.4byte	.LFE22
 12190 02ff 0400     		.2byte	0x4
 12191 0301 F3       		.byte	0xf3
 12192 0302 01       		.uleb128 0x1
 12193 0303 53       		.byte	0x53
 12194 0304 9F       		.byte	0x9f
 12195 0305 00000000 		.4byte	0
 12196 0309 00000000 		.4byte	0
 12197              	.LVUS143:
 12198 030d 01       		.uleb128 .LVU971
ARM GAS  /tmp/ccqyZH0w.s 			page 215


 12199 030e 00       		.uleb128 .LVU983
 12200 030f 00       		.uleb128 .LVU983
 12201 0310 00       		.uleb128 .LVU985
 12202 0311 00       		.uleb128 .LVU987
 12203 0312 00       		.uleb128 .LVU990
 12204 0313 00       		.uleb128 .LVU990
 12205 0314 00       		.uleb128 .LVU991
 12206 0315 00       		.uleb128 .LVU991
 12207 0316 00       		.uleb128 .LVU993
 12208 0317 00       		.uleb128 .LVU994
 12209 0318 00       		.uleb128 .LVU997
 12210 0319 00       		.uleb128 .LVU999
 12211 031a 01       		.uleb128 .LVU1000
 12212 031b 00       		.uleb128 .LVU1003
 12213 031c 00       		.uleb128 .LVU1008
 12214 031d 00       		.uleb128 .LVU1009
 12215 031e 00       		.uleb128 .LVU1012
 12216 031f 00       		.uleb128 .LVU1012
 12217 0320 00       		.uleb128 0
 12218              	.LLST143:
 12219 0321 16000000 		.4byte	.LVL317
 12220 0325 28000000 		.4byte	.LVL321
 12221 0329 0200     		.2byte	0x2
 12222 032b 30       		.byte	0x30
 12223 032c 9F       		.byte	0x9f
 12224 032d 28000000 		.4byte	.LVL321
 12225 0331 2C000000 		.4byte	.LVL322
 12226 0335 0100     		.2byte	0x1
 12227 0337 50       		.byte	0x50
 12228 0338 30000000 		.4byte	.LVL323
 12229 033c 42000000 		.4byte	.LVL324
 12230 0340 0100     		.2byte	0x1
 12231 0342 54       		.byte	0x54
 12232 0343 42000000 		.4byte	.LVL324
 12233 0347 46000000 		.4byte	.LVL325
 12234 034b 0200     		.2byte	0x2
 12235 034d 30       		.byte	0x30
 12236 034e 9F       		.byte	0x9f
 12237 034f 46000000 		.4byte	.LVL325
 12238 0353 4A000000 		.4byte	.LVL326
 12239 0357 0100     		.2byte	0x1
 12240 0359 50       		.byte	0x50
 12241 035a 4E000000 		.4byte	.LVL327
 12242 035e 5A000000 		.4byte	.LVL328
 12243 0362 0100     		.2byte	0x1
 12244 0364 50       		.byte	0x50
 12245 0365 5C000000 		.4byte	.LVL329
 12246 0369 5C000000 		.4byte	.LVL329
 12247 036d 0200     		.2byte	0x2
 12248 036f 30       		.byte	0x30
 12249 0370 9F       		.byte	0x9f
 12250 0371 6A000000 		.4byte	.LVL330
 12251 0375 8A000000 		.4byte	.LVL331
 12252 0379 0100     		.2byte	0x1
 12253 037b 50       		.byte	0x50
 12254 037c 8E000000 		.4byte	.LVL332
 12255 0380 96000000 		.4byte	.LVL333
ARM GAS  /tmp/ccqyZH0w.s 			page 216


 12256 0384 0100     		.2byte	0x1
 12257 0386 50       		.byte	0x50
 12258 0387 96000000 		.4byte	.LVL333
 12259 038b A0000000 		.4byte	.LFE22
 12260 038f 0100     		.2byte	0x1
 12261 0391 54       		.byte	0x54
 12262 0392 00000000 		.4byte	0
 12263 0396 00000000 		.4byte	0
 12264              	.LVUS144:
 12265 039a 02       		.uleb128 .LVU972
 12266 039b 00       		.uleb128 .LVU979
 12267 039c 00       		.uleb128 .LVU979
 12268 039d 00       		.uleb128 .LVU990
 12269 039e 00       		.uleb128 .LVU990
 12270 039f 00       		.uleb128 .LVU991
 12271 03a0 00       		.uleb128 .LVU991
 12272 03a1 00       		.uleb128 0
 12273              	.LLST144:
 12274 03a2 16000000 		.4byte	.LVL317
 12275 03a6 1E000000 		.4byte	.LVL318
 12276 03aa 0200     		.2byte	0x2
 12277 03ac 30       		.byte	0x30
 12278 03ad 9F       		.byte	0x9f
 12279 03ae 1E000000 		.4byte	.LVL318
 12280 03b2 42000000 		.4byte	.LVL324
 12281 03b6 0100     		.2byte	0x1
 12282 03b8 58       		.byte	0x58
 12283 03b9 42000000 		.4byte	.LVL324
 12284 03bd 46000000 		.4byte	.LVL325
 12285 03c1 0200     		.2byte	0x2
 12286 03c3 30       		.byte	0x30
 12287 03c4 9F       		.byte	0x9f
 12288 03c5 46000000 		.4byte	.LVL325
 12289 03c9 A0000000 		.4byte	.LFE22
 12290 03cd 0100     		.2byte	0x1
 12291 03cf 58       		.byte	0x58
 12292 03d0 00000000 		.4byte	0
 12293 03d4 00000000 		.4byte	0
 12294              	.LVUS133:
 12295 03d8 00       		.uleb128 0
 12296 03d9 00       		.uleb128 .LVU930
 12297 03da 00       		.uleb128 .LVU930
 12298 03db 00       		.uleb128 .LVU937
 12299 03dc 00       		.uleb128 .LVU937
 12300 03dd 00       		.uleb128 .LVU939
 12301 03de 00       		.uleb128 .LVU939
 12302 03df 00       		.uleb128 0
 12303              	.LLST133:
 12304 03e0 00000000 		.4byte	.LVL293
 12305 03e4 2D000000 		.4byte	.LVL298-1
 12306 03e8 0100     		.2byte	0x1
 12307 03ea 50       		.byte	0x50
 12308 03eb 2D000000 		.4byte	.LVL298-1
 12309 03ef 48000000 		.4byte	.LVL301
 12310 03f3 0100     		.2byte	0x1
 12311 03f5 55       		.byte	0x55
 12312 03f6 48000000 		.4byte	.LVL301
ARM GAS  /tmp/ccqyZH0w.s 			page 217


 12313 03fa 4E000000 		.4byte	.LVL303
 12314 03fe 0100     		.2byte	0x1
 12315 0400 50       		.byte	0x50
 12316 0401 4E000000 		.4byte	.LVL303
 12317 0405 B4000000 		.4byte	.LFE21
 12318 0409 0100     		.2byte	0x1
 12319 040b 55       		.byte	0x55
 12320 040c 00000000 		.4byte	0
 12321 0410 00000000 		.4byte	0
 12322              	.LVUS134:
 12323 0414 00       		.uleb128 0
 12324 0415 00       		.uleb128 .LVU928
 12325 0416 00       		.uleb128 .LVU928
 12326 0417 00       		.uleb128 .LVU937
 12327 0418 00       		.uleb128 .LVU937
 12328 0419 00       		.uleb128 .LVU938
 12329 041a 00       		.uleb128 .LVU938
 12330 041b 00       		.uleb128 0
 12331              	.LLST134:
 12332 041c 00000000 		.4byte	.LVL293
 12333 0420 28000000 		.4byte	.LVL297
 12334 0424 0100     		.2byte	0x1
 12335 0426 51       		.byte	0x51
 12336 0427 28000000 		.4byte	.LVL297
 12337 042b 48000000 		.4byte	.LVL301
 12338 042f 0100     		.2byte	0x1
 12339 0431 57       		.byte	0x57
 12340 0432 48000000 		.4byte	.LVL301
 12341 0436 4C000000 		.4byte	.LVL302
 12342 043a 0100     		.2byte	0x1
 12343 043c 51       		.byte	0x51
 12344 043d 4C000000 		.4byte	.LVL302
 12345 0441 B4000000 		.4byte	.LFE21
 12346 0445 0100     		.2byte	0x1
 12347 0447 57       		.byte	0x57
 12348 0448 00000000 		.4byte	0
 12349 044c 00000000 		.4byte	0
 12350              	.LVUS135:
 12351 0450 00       		.uleb128 0
 12352 0451 00       		.uleb128 .LVU911
 12353 0452 00       		.uleb128 .LVU911
 12354 0453 00       		.uleb128 0
 12355              	.LLST135:
 12356 0454 00000000 		.4byte	.LVL293
 12357 0458 0A000000 		.4byte	.LVL294
 12358 045c 0100     		.2byte	0x1
 12359 045e 52       		.byte	0x52
 12360 045f 0A000000 		.4byte	.LVL294
 12361 0463 B4000000 		.4byte	.LFE21
 12362 0467 0400     		.2byte	0x4
 12363 0469 F3       		.byte	0xf3
 12364 046a 01       		.uleb128 0x1
 12365 046b 52       		.byte	0x52
 12366 046c 9F       		.byte	0x9f
 12367 046d 00000000 		.4byte	0
 12368 0471 00000000 		.4byte	0
 12369              	.LVUS136:
ARM GAS  /tmp/ccqyZH0w.s 			page 218


 12370 0475 00       		.uleb128 0
 12371 0476 00       		.uleb128 .LVU930
 12372 0477 00       		.uleb128 .LVU930
 12373 0478 00       		.uleb128 .LVU937
 12374 0479 00       		.uleb128 .LVU937
 12375 047a 00       		.uleb128 .LVU942
 12376 047b 00       		.uleb128 .LVU942
 12377 047c 00       		.uleb128 0
 12378              	.LLST136:
 12379 047d 00000000 		.4byte	.LVL293
 12380 0481 2D000000 		.4byte	.LVL298-1
 12381 0485 0100     		.2byte	0x1
 12382 0487 53       		.byte	0x53
 12383 0488 2D000000 		.4byte	.LVL298-1
 12384 048c 48000000 		.4byte	.LVL301
 12385 0490 0400     		.2byte	0x4
 12386 0492 F3       		.byte	0xf3
 12387 0493 01       		.uleb128 0x1
 12388 0494 53       		.byte	0x53
 12389 0495 9F       		.byte	0x9f
 12390 0496 48000000 		.4byte	.LVL301
 12391 049a 53000000 		.4byte	.LVL305-1
 12392 049e 0100     		.2byte	0x1
 12393 04a0 53       		.byte	0x53
 12394 04a1 53000000 		.4byte	.LVL305-1
 12395 04a5 B4000000 		.4byte	.LFE21
 12396 04a9 0400     		.2byte	0x4
 12397 04ab F3       		.byte	0xf3
 12398 04ac 01       		.uleb128 0x1
 12399 04ad 53       		.byte	0x53
 12400 04ae 9F       		.byte	0x9f
 12401 04af 00000000 		.4byte	0
 12402 04b3 00000000 		.4byte	0
 12403              	.LVUS137:
 12404 04b7 01       		.uleb128 .LVU914
 12405 04b8 00       		.uleb128 .LVU930
 12406 04b9 00       		.uleb128 .LVU930
 12407 04ba 00       		.uleb128 .LVU932
 12408 04bb 00       		.uleb128 .LVU934
 12409 04bc 00       		.uleb128 .LVU937
 12410 04bd 00       		.uleb128 .LVU937
 12411 04be 00       		.uleb128 .LVU942
 12412 04bf 00       		.uleb128 .LVU942
 12413 04c0 00       		.uleb128 .LVU946
 12414 04c1 00       		.uleb128 .LVU947
 12415 04c2 00       		.uleb128 .LVU950
 12416 04c3 00       		.uleb128 .LVU952
 12417 04c4 01       		.uleb128 .LVU953
 12418 04c5 00       		.uleb128 .LVU956
 12419 04c6 00       		.uleb128 .LVU961
 12420 04c7 00       		.uleb128 .LVU962
 12421 04c8 00       		.uleb128 .LVU965
 12422 04c9 00       		.uleb128 .LVU965
 12423 04ca 00       		.uleb128 0
 12424              	.LLST137:
 12425 04cb 14000000 		.4byte	.LVL295
 12426 04cf 2E000000 		.4byte	.LVL298
ARM GAS  /tmp/ccqyZH0w.s 			page 219


 12427 04d3 0200     		.2byte	0x2
 12428 04d5 30       		.byte	0x30
 12429 04d6 9F       		.byte	0x9f
 12430 04d7 2E000000 		.4byte	.LVL298
 12431 04db 32000000 		.4byte	.LVL299
 12432 04df 0100     		.2byte	0x1
 12433 04e1 50       		.byte	0x50
 12434 04e2 36000000 		.4byte	.LVL300
 12435 04e6 48000000 		.4byte	.LVL301
 12436 04ea 0100     		.2byte	0x1
 12437 04ec 54       		.byte	0x54
 12438 04ed 48000000 		.4byte	.LVL301
 12439 04f1 54000000 		.4byte	.LVL305
 12440 04f5 0200     		.2byte	0x2
 12441 04f7 30       		.byte	0x30
 12442 04f8 9F       		.byte	0x9f
 12443 04f9 54000000 		.4byte	.LVL305
 12444 04fd 5E000000 		.4byte	.LVL306
 12445 0501 0100     		.2byte	0x1
 12446 0503 50       		.byte	0x50
 12447 0504 62000000 		.4byte	.LVL307
 12448 0508 6E000000 		.4byte	.LVL308
 12449 050c 0100     		.2byte	0x1
 12450 050e 50       		.byte	0x50
 12451 050f 70000000 		.4byte	.LVL309
 12452 0513 70000000 		.4byte	.LVL309
 12453 0517 0200     		.2byte	0x2
 12454 0519 30       		.byte	0x30
 12455 051a 9F       		.byte	0x9f
 12456 051b 7E000000 		.4byte	.LVL310
 12457 051f 9E000000 		.4byte	.LVL311
 12458 0523 0100     		.2byte	0x1
 12459 0525 50       		.byte	0x50
 12460 0526 A2000000 		.4byte	.LVL312
 12461 052a AA000000 		.4byte	.LVL313
 12462 052e 0100     		.2byte	0x1
 12463 0530 50       		.byte	0x50
 12464 0531 AA000000 		.4byte	.LVL313
 12465 0535 B4000000 		.4byte	.LFE21
 12466 0539 0100     		.2byte	0x1
 12467 053b 54       		.byte	0x54
 12468 053c 00000000 		.4byte	0
 12469 0540 00000000 		.4byte	0
 12470              	.LVUS138:
 12471 0544 02       		.uleb128 .LVU915
 12472 0545 00       		.uleb128 .LVU926
 12473 0546 00       		.uleb128 .LVU926
 12474 0547 00       		.uleb128 .LVU937
 12475 0548 00       		.uleb128 .LVU937
 12476 0549 00       		.uleb128 .LVU940
 12477 054a 00       		.uleb128 .LVU940
 12478 054b 00       		.uleb128 0
 12479              	.LLST138:
 12480 054c 14000000 		.4byte	.LVL295
 12481 0550 26000000 		.4byte	.LVL296
 12482 0554 0200     		.2byte	0x2
 12483 0556 30       		.byte	0x30
ARM GAS  /tmp/ccqyZH0w.s 			page 220


 12484 0557 9F       		.byte	0x9f
 12485 0558 26000000 		.4byte	.LVL296
 12486 055c 48000000 		.4byte	.LVL301
 12487 0560 0100     		.2byte	0x1
 12488 0562 58       		.byte	0x58
 12489 0563 48000000 		.4byte	.LVL301
 12490 0567 50000000 		.4byte	.LVL304
 12491 056b 0200     		.2byte	0x2
 12492 056d 30       		.byte	0x30
 12493 056e 9F       		.byte	0x9f
 12494 056f 50000000 		.4byte	.LVL304
 12495 0573 B4000000 		.4byte	.LFE21
 12496 0577 0100     		.2byte	0x1
 12497 0579 58       		.byte	0x58
 12498 057a 00000000 		.4byte	0
 12499 057e 00000000 		.4byte	0
 12500              	.LVUS124:
 12501 0582 00       		.uleb128 0
 12502 0583 00       		.uleb128 .LVU848
 12503 0584 00       		.uleb128 .LVU848
 12504 0585 00       		.uleb128 0
 12505              	.LLST124:
 12506 0586 00000000 		.4byte	.LVL262
 12507 058a 37000000 		.4byte	.LVL267-1
 12508 058e 0100     		.2byte	0x1
 12509 0590 50       		.byte	0x50
 12510 0591 37000000 		.4byte	.LVL267-1
 12511 0595 0C010000 		.4byte	.LFE20
 12512 0599 0100     		.2byte	0x1
 12513 059b 55       		.byte	0x55
 12514 059c 00000000 		.4byte	0
 12515 05a0 00000000 		.4byte	0
 12516              	.LVUS125:
 12517 05a4 00       		.uleb128 0
 12518 05a5 00       		.uleb128 .LVU842
 12519 05a6 00       		.uleb128 .LVU842
 12520 05a7 00       		.uleb128 0
 12521              	.LLST125:
 12522 05a8 00000000 		.4byte	.LVL262
 12523 05ac 2A000000 		.4byte	.LVL265
 12524 05b0 0100     		.2byte	0x1
 12525 05b2 51       		.byte	0x51
 12526 05b3 2A000000 		.4byte	.LVL265
 12527 05b7 0C010000 		.4byte	.LFE20
 12528 05bb 0400     		.2byte	0x4
 12529 05bd F3       		.byte	0xf3
 12530 05be 01       		.uleb128 0x1
 12531 05bf 51       		.byte	0x51
 12532 05c0 9F       		.byte	0x9f
 12533 05c1 00000000 		.4byte	0
 12534 05c5 00000000 		.4byte	0
 12535              	.LVUS126:
 12536 05c9 00       		.uleb128 0
 12537 05ca 00       		.uleb128 .LVU844
 12538 05cb 00       		.uleb128 .LVU844
 12539 05cc 00       		.uleb128 0
 12540              	.LLST126:
ARM GAS  /tmp/ccqyZH0w.s 			page 221


 12541 05cd 00000000 		.4byte	.LVL262
 12542 05d1 2E000000 		.4byte	.LVL266
 12543 05d5 0100     		.2byte	0x1
 12544 05d7 52       		.byte	0x52
 12545 05d8 2E000000 		.4byte	.LVL266
 12546 05dc 0C010000 		.4byte	.LFE20
 12547 05e0 0400     		.2byte	0x4
 12548 05e2 F3       		.byte	0xf3
 12549 05e3 01       		.uleb128 0x1
 12550 05e4 52       		.byte	0x52
 12551 05e5 9F       		.byte	0x9f
 12552 05e6 00000000 		.4byte	0
 12553 05ea 00000000 		.4byte	0
 12554              	.LVUS127:
 12555 05ee 00       		.uleb128 0
 12556 05ef 00       		.uleb128 .LVU837
 12557 05f0 00       		.uleb128 .LVU837
 12558 05f1 00       		.uleb128 0
 12559              	.LLST127:
 12560 05f2 00000000 		.4byte	.LVL262
 12561 05f6 0E000000 		.4byte	.LVL263
 12562 05fa 0100     		.2byte	0x1
 12563 05fc 53       		.byte	0x53
 12564 05fd 0E000000 		.4byte	.LVL263
 12565 0601 0C010000 		.4byte	.LFE20
 12566 0605 0400     		.2byte	0x4
 12567 0607 F3       		.byte	0xf3
 12568 0608 01       		.uleb128 0x1
 12569 0609 53       		.byte	0x53
 12570 060a 9F       		.byte	0x9f
 12571 060b 00000000 		.4byte	0
 12572 060f 00000000 		.4byte	0
 12573              	.LVUS128:
 12574 0613 00       		.uleb128 0
 12575 0614 00       		.uleb128 .LVU885
 12576 0615 00       		.uleb128 .LVU885
 12577 0616 00       		.uleb128 0
 12578              	.LLST128:
 12579 0617 00000000 		.4byte	.LVL262
 12580 061b AA000000 		.4byte	.LVL282
 12581 061f 0200     		.2byte	0x2
 12582 0621 91       		.byte	0x91
 12583 0622 00       		.sleb128 0
 12584 0623 AA000000 		.4byte	.LVL282
 12585 0627 0C010000 		.4byte	.LFE20
 12586 062b 0200     		.2byte	0x2
 12587 062d 91       		.byte	0x91
 12588 062e 00       		.sleb128 0
 12589 062f 00000000 		.4byte	0
 12590 0633 00000000 		.4byte	0
 12591              	.LVUS129:
 12592 0637 00       		.uleb128 0
 12593 0638 00       		.uleb128 .LVU885
 12594 0639 00       		.uleb128 .LVU885
 12595 063a 00       		.uleb128 0
 12596              	.LLST129:
 12597 063b 00000000 		.4byte	.LVL262
ARM GAS  /tmp/ccqyZH0w.s 			page 222


 12598 063f AA000000 		.4byte	.LVL282
 12599 0643 0200     		.2byte	0x2
 12600 0645 91       		.byte	0x91
 12601 0646 04       		.sleb128 4
 12602 0647 AA000000 		.4byte	.LVL282
 12603 064b 0C010000 		.4byte	.LFE20
 12604 064f 0200     		.2byte	0x2
 12605 0651 91       		.byte	0x91
 12606 0652 04       		.sleb128 4
 12607 0653 00000000 		.4byte	0
 12608 0657 00000000 		.4byte	0
 12609              	.LVUS130:
 12610 065b 00       		.uleb128 0
 12611 065c 00       		.uleb128 .LVU885
 12612 065d 00       		.uleb128 .LVU885
 12613 065e 00       		.uleb128 0
 12614              	.LLST130:
 12615 065f 00000000 		.4byte	.LVL262
 12616 0663 AA000000 		.4byte	.LVL282
 12617 0667 0200     		.2byte	0x2
 12618 0669 91       		.byte	0x91
 12619 066a 08       		.sleb128 8
 12620 066b AA000000 		.4byte	.LVL282
 12621 066f 0C010000 		.4byte	.LFE20
 12622 0673 0200     		.2byte	0x2
 12623 0675 91       		.byte	0x91
 12624 0676 08       		.sleb128 8
 12625 0677 00000000 		.4byte	0
 12626 067b 00000000 		.4byte	0
 12627              	.LVUS131:
 12628 067f 00       		.uleb128 0
 12629 0680 00       		.uleb128 .LVU885
 12630 0681 00       		.uleb128 .LVU885
 12631 0682 00       		.uleb128 0
 12632              	.LLST131:
 12633 0683 00000000 		.4byte	.LVL262
 12634 0687 AA000000 		.4byte	.LVL282
 12635 068b 0200     		.2byte	0x2
 12636 068d 91       		.byte	0x91
 12637 068e 0C       		.sleb128 12
 12638 068f AA000000 		.4byte	.LVL282
 12639 0693 0C010000 		.4byte	.LFE20
 12640 0697 0200     		.2byte	0x2
 12641 0699 91       		.byte	0x91
 12642 069a 0C       		.sleb128 12
 12643 069b 00000000 		.4byte	0
 12644 069f 00000000 		.4byte	0
 12645              	.LVUS132:
 12646 06a3 01       		.uleb128 .LVU839
 12647 06a4 00       		.uleb128 .LVU851
 12648 06a5 00       		.uleb128 .LVU851
 12649 06a6 00       		.uleb128 .LVU855
 12650 06a7 00       		.uleb128 .LVU857
 12651 06a8 00       		.uleb128 .LVU869
 12652 06a9 00       		.uleb128 .LVU871
 12653 06aa 00       		.uleb128 .LVU873
 12654 06ab 00       		.uleb128 .LVU878
ARM GAS  /tmp/ccqyZH0w.s 			page 223


 12655 06ac 01       		.uleb128 .LVU879
 12656 06ad 01       		.uleb128 .LVU879
 12657 06ae 00       		.uleb128 .LVU882
 12658 06af 00       		.uleb128 .LVU885
 12659 06b0 00       		.uleb128 .LVU907
 12660              	.LLST132:
 12661 06b1 22000000 		.4byte	.LVL264
 12662 06b5 3E000000 		.4byte	.LVL268
 12663 06b9 0200     		.2byte	0x2
 12664 06bb 30       		.byte	0x30
 12665 06bc 9F       		.byte	0x9f
 12666 06bd 3E000000 		.4byte	.LVL268
 12667 06c1 48000000 		.4byte	.LVL270
 12668 06c5 0100     		.2byte	0x1
 12669 06c7 54       		.byte	0x54
 12670 06c8 52000000 		.4byte	.LVL272
 12671 06cc 72000000 		.4byte	.LVL275
 12672 06d0 0100     		.2byte	0x1
 12673 06d2 54       		.byte	0x54
 12674 06d3 7C000000 		.4byte	.LVL277
 12675 06d7 7E000000 		.4byte	.LVL278
 12676 06db 0100     		.2byte	0x1
 12677 06dd 54       		.byte	0x54
 12678 06de 98000000 		.4byte	.LVL280
 12679 06e2 98000000 		.4byte	.LVL280
 12680 06e6 0100     		.2byte	0x1
 12681 06e8 54       		.byte	0x54
 12682 06e9 98000000 		.4byte	.LVL280
 12683 06ed 9A000000 		.4byte	.LVL281
 12684 06f1 0600     		.2byte	0x6
 12685 06f3 74       		.byte	0x74
 12686 06f4 00       		.sleb128 0
 12687 06f5 70       		.byte	0x70
 12688 06f6 00       		.sleb128 0
 12689 06f7 21       		.byte	0x21
 12690 06f8 9F       		.byte	0x9f
 12691 06f9 AA000000 		.4byte	.LVL282
 12692 06fd 04010000 		.4byte	.LVL291
 12693 0701 0100     		.2byte	0x1
 12694 0703 54       		.byte	0x54
 12695 0704 00000000 		.4byte	0
 12696 0708 00000000 		.4byte	0
 12697              	.LVUS112:
 12698 070c 00       		.uleb128 0
 12699 070d 00       		.uleb128 .LVU771
 12700 070e 00       		.uleb128 .LVU771
 12701 070f 00       		.uleb128 .LVU773
 12702 0710 00       		.uleb128 .LVU773
 12703 0711 00       		.uleb128 .LVU779
 12704 0712 00       		.uleb128 .LVU779
 12705 0713 00       		.uleb128 0
 12706              	.LLST112:
 12707 0714 00000000 		.4byte	.LVL234
 12708 0718 32000000 		.4byte	.LVL239
 12709 071c 0100     		.2byte	0x1
 12710 071e 50       		.byte	0x50
 12711 071f 32000000 		.4byte	.LVL239
ARM GAS  /tmp/ccqyZH0w.s 			page 224


 12712 0723 40000000 		.4byte	.LVL240
 12713 0727 0100     		.2byte	0x1
 12714 0729 54       		.byte	0x54
 12715 072a 40000000 		.4byte	.LVL240
 12716 072e 49000000 		.4byte	.LVL243-1
 12717 0732 0100     		.2byte	0x1
 12718 0734 50       		.byte	0x50
 12719 0735 49000000 		.4byte	.LVL243-1
 12720 0739 88000000 		.4byte	.LFE18
 12721 073d 0100     		.2byte	0x1
 12722 073f 54       		.byte	0x54
 12723 0740 00000000 		.4byte	0
 12724 0744 00000000 		.4byte	0
 12725              	.LVUS113:
 12726 0748 00       		.uleb128 0
 12727 0749 00       		.uleb128 .LVU771
 12728 074a 00       		.uleb128 .LVU771
 12729 074b 00       		.uleb128 .LVU773
 12730 074c 00       		.uleb128 .LVU773
 12731 074d 00       		.uleb128 .LVU778
 12732 074e 00       		.uleb128 .LVU778
 12733 074f 00       		.uleb128 0
 12734              	.LLST113:
 12735 0750 00000000 		.4byte	.LVL234
 12736 0754 32000000 		.4byte	.LVL239
 12737 0758 0100     		.2byte	0x1
 12738 075a 51       		.byte	0x51
 12739 075b 32000000 		.4byte	.LVL239
 12740 075f 40000000 		.4byte	.LVL240
 12741 0763 0100     		.2byte	0x1
 12742 0765 56       		.byte	0x56
 12743 0766 40000000 		.4byte	.LVL240
 12744 076a 46000000 		.4byte	.LVL242
 12745 076e 0100     		.2byte	0x1
 12746 0770 51       		.byte	0x51
 12747 0771 46000000 		.4byte	.LVL242
 12748 0775 88000000 		.4byte	.LFE18
 12749 0779 0100     		.2byte	0x1
 12750 077b 56       		.byte	0x56
 12751 077c 00000000 		.4byte	0
 12752 0780 00000000 		.4byte	0
 12753              	.LVUS114:
 12754 0784 00       		.uleb128 0
 12755 0785 00       		.uleb128 .LVU766
 12756 0786 00       		.uleb128 .LVU766
 12757 0787 00       		.uleb128 .LVU773
 12758 0788 00       		.uleb128 .LVU773
 12759 0789 00       		.uleb128 .LVU777
 12760 078a 00       		.uleb128 .LVU777
 12761 078b 00       		.uleb128 0
 12762              	.LLST114:
 12763 078c 00000000 		.4byte	.LVL234
 12764 0790 28000000 		.4byte	.LVL237
 12765 0794 0100     		.2byte	0x1
 12766 0796 52       		.byte	0x52
 12767 0797 28000000 		.4byte	.LVL237
 12768 079b 40000000 		.4byte	.LVL240
ARM GAS  /tmp/ccqyZH0w.s 			page 225


 12769 079f 0100     		.2byte	0x1
 12770 07a1 57       		.byte	0x57
 12771 07a2 40000000 		.4byte	.LVL240
 12772 07a6 42000000 		.4byte	.LVL241
 12773 07aa 0100     		.2byte	0x1
 12774 07ac 52       		.byte	0x52
 12775 07ad 42000000 		.4byte	.LVL241
 12776 07b1 88000000 		.4byte	.LFE18
 12777 07b5 0100     		.2byte	0x1
 12778 07b7 57       		.byte	0x57
 12779 07b8 00000000 		.4byte	0
 12780 07bc 00000000 		.4byte	0
 12781              	.LVUS115:
 12782 07c0 01       		.uleb128 .LVU751
 12783 07c1 00       		.uleb128 .LVU771
 12784 07c2 00       		.uleb128 .LVU771
 12785 07c3 00       		.uleb128 .LVU773
 12786 07c4 00       		.uleb128 .LVU773
 12787 07c5 01       		.uleb128 .LVU780
 12788 07c6 01       		.uleb128 .LVU780
 12789 07c7 00       		.uleb128 .LVU785
 12790 07c8 00       		.uleb128 .LVU786
 12791 07c9 00       		.uleb128 .LVU802
 12792              	.LLST115:
 12793 07ca 12000000 		.4byte	.LVL235
 12794 07ce 32000000 		.4byte	.LVL239
 12795 07d2 0200     		.2byte	0x2
 12796 07d4 30       		.byte	0x30
 12797 07d5 9F       		.byte	0x9f
 12798 07d6 32000000 		.4byte	.LVL239
 12799 07da 40000000 		.4byte	.LVL240
 12800 07de 0100     		.2byte	0x1
 12801 07e0 50       		.byte	0x50
 12802 07e1 40000000 		.4byte	.LVL240
 12803 07e5 4A000000 		.4byte	.LVL243
 12804 07e9 0200     		.2byte	0x2
 12805 07eb 30       		.byte	0x30
 12806 07ec 9F       		.byte	0x9f
 12807 07ed 4A000000 		.4byte	.LVL243
 12808 07f1 56000000 		.4byte	.LVL244
 12809 07f5 0100     		.2byte	0x1
 12810 07f7 50       		.byte	0x50
 12811 07f8 60000000 		.4byte	.LVL245
 12812 07fc 81000000 		.4byte	.LVL246-1
 12813 0800 0100     		.2byte	0x1
 12814 0802 50       		.byte	0x50
 12815 0803 00000000 		.4byte	0
 12816 0807 00000000 		.4byte	0
 12817              	.LVUS116:
 12818 080b 01       		.uleb128 .LVU762
 12819 080c 00       		.uleb128 .LVU767
 12820 080d 00       		.uleb128 .LVU767
 12821 080e 00       		.uleb128 .LVU773
 12822 080f 00       		.uleb128 .LVU773
 12823 0810 00       		.uleb128 .LVU779
 12824 0811 00       		.uleb128 .LVU779
 12825 0812 00       		.uleb128 0
ARM GAS  /tmp/ccqyZH0w.s 			page 226


 12826              	.LLST116:
 12827 0813 22000000 		.4byte	.LVL236
 12828 0817 2A000000 		.4byte	.LVL238
 12829 081b 0300     		.2byte	0x3
 12830 081d 70       		.byte	0x70
 12831 081e 9502     		.sleb128 277
 12832 0820 2A000000 		.4byte	.LVL238
 12833 0824 40000000 		.4byte	.LVL240
 12834 0828 0100     		.2byte	0x1
 12835 082a 55       		.byte	0x55
 12836 082b 40000000 		.4byte	.LVL240
 12837 082f 49000000 		.4byte	.LVL243-1
 12838 0833 0300     		.2byte	0x3
 12839 0835 70       		.byte	0x70
 12840 0836 9502     		.sleb128 277
 12841 0838 49000000 		.4byte	.LVL243-1
 12842 083c 88000000 		.4byte	.LFE18
 12843 0840 0100     		.2byte	0x1
 12844 0842 55       		.byte	0x55
 12845 0843 00000000 		.4byte	0
 12846 0847 00000000 		.4byte	0
 12847              	.LVUS117:
 12848 084b 01       		.uleb128 .LVU774
 12849 084c 00       		.uleb128 .LVU777
 12850 084d 00       		.uleb128 .LVU777
 12851 084e 00       		.uleb128 .LVU779
 12852 084f 00       		.uleb128 .LVU779
 12853 0850 01       		.uleb128 .LVU780
 12854              	.LLST117:
 12855 0851 40000000 		.4byte	.LVL240
 12856 0855 42000000 		.4byte	.LVL241
 12857 0859 0300     		.2byte	0x3
 12858 085b 91       		.byte	0x91
 12859 085c 5C       		.sleb128 -36
 12860 085d 9F       		.byte	0x9f
 12861 085e 42000000 		.4byte	.LVL241
 12862 0862 49000000 		.4byte	.LVL243-1
 12863 0866 0100     		.2byte	0x1
 12864 0868 52       		.byte	0x52
 12865 0869 49000000 		.4byte	.LVL243-1
 12866 086d 4A000000 		.4byte	.LVL243
 12867 0871 0300     		.2byte	0x3
 12868 0873 91       		.byte	0x91
 12869 0874 5C       		.sleb128 -36
 12870 0875 9F       		.byte	0x9f
 12871 0876 00000000 		.4byte	0
 12872 087a 00000000 		.4byte	0
 12873              	.LVUS118:
 12874 087e 01       		.uleb128 .LVU774
 12875 087f 00       		.uleb128 .LVU779
 12876 0880 00       		.uleb128 .LVU779
 12877 0881 01       		.uleb128 .LVU780
 12878              	.LLST118:
 12879 0882 40000000 		.4byte	.LVL240
 12880 0886 49000000 		.4byte	.LVL243-1
 12881 088a 0100     		.2byte	0x1
 12882 088c 50       		.byte	0x50
ARM GAS  /tmp/ccqyZH0w.s 			page 227


 12883 088d 49000000 		.4byte	.LVL243-1
 12884 0891 4A000000 		.4byte	.LVL243
 12885 0895 0100     		.2byte	0x1
 12886 0897 54       		.byte	0x54
 12887 0898 00000000 		.4byte	0
 12888 089c 00000000 		.4byte	0
 12889              	.LVUS119:
 12890 08a0 00       		.uleb128 .LVU779
 12891 08a1 01       		.uleb128 .LVU780
 12892              	.LLST119:
 12893 08a2 4A000000 		.4byte	.LVL243
 12894 08a6 4A000000 		.4byte	.LVL243
 12895 08aa 0100     		.2byte	0x1
 12896 08ac 50       		.byte	0x50
 12897 08ad 00000000 		.4byte	0
 12898 08b1 00000000 		.4byte	0
 12899              	.LVUS103:
 12900 08b5 00       		.uleb128 0
 12901 08b6 00       		.uleb128 .LVU662
 12902 08b7 00       		.uleb128 .LVU662
 12903 08b8 00       		.uleb128 0
 12904              	.LLST103:
 12905 08b9 00000000 		.4byte	.LVL207
 12906 08bd 1B000000 		.4byte	.LVL211-1
 12907 08c1 0100     		.2byte	0x1
 12908 08c3 50       		.byte	0x50
 12909 08c4 1B000000 		.4byte	.LVL211-1
 12910 08c8 CC000000 		.4byte	.LFE17
 12911 08cc 0100     		.2byte	0x1
 12912 08ce 54       		.byte	0x54
 12913 08cf 00000000 		.4byte	0
 12914 08d3 00000000 		.4byte	0
 12915              	.LVUS104:
 12916 08d7 00       		.uleb128 0
 12917 08d8 00       		.uleb128 .LVU650
 12918 08d9 00       		.uleb128 .LVU650
 12919 08da 00       		.uleb128 0
 12920              	.LLST104:
 12921 08db 00000000 		.4byte	.LVL207
 12922 08df 0C000000 		.4byte	.LVL208
 12923 08e3 0100     		.2byte	0x1
 12924 08e5 51       		.byte	0x51
 12925 08e6 0C000000 		.4byte	.LVL208
 12926 08ea CC000000 		.4byte	.LFE17
 12927 08ee 0100     		.2byte	0x1
 12928 08f0 56       		.byte	0x56
 12929 08f1 00000000 		.4byte	0
 12930 08f5 00000000 		.4byte	0
 12931              	.LVUS105:
 12932 08f9 00       		.uleb128 0
 12933 08fa 00       		.uleb128 .LVU651
 12934 08fb 00       		.uleb128 .LVU651
 12935 08fc 00       		.uleb128 0
 12936              	.LLST105:
 12937 08fd 00000000 		.4byte	.LVL207
 12938 0901 0E000000 		.4byte	.LVL209
 12939 0905 0100     		.2byte	0x1
ARM GAS  /tmp/ccqyZH0w.s 			page 228


 12940 0907 52       		.byte	0x52
 12941 0908 0E000000 		.4byte	.LVL209
 12942 090c CC000000 		.4byte	.LFE17
 12943 0910 0400     		.2byte	0x4
 12944 0912 F3       		.byte	0xf3
 12945 0913 01       		.uleb128 0x1
 12946 0914 52       		.byte	0x52
 12947 0915 9F       		.byte	0x9f
 12948 0916 00000000 		.4byte	0
 12949 091a 00000000 		.4byte	0
 12950              	.LVUS106:
 12951 091e 01       		.uleb128 .LVU653
 12952 091f 00       		.uleb128 .LVU662
 12953 0920 00       		.uleb128 .LVU662
 12954 0921 00       		.uleb128 .LVU664
 12955 0922 00       		.uleb128 .LVU698
 12956 0923 00       		.uleb128 .LVU708
 12957 0924 00       		.uleb128 .LVU724
 12958 0925 00       		.uleb128 .LVU726
 12959 0926 00       		.uleb128 .LVU727
 12960 0927 00       		.uleb128 .LVU731
 12961 0928 00       		.uleb128 .LVU732
 12962 0929 00       		.uleb128 .LVU736
 12963 092a 00       		.uleb128 .LVU737
 12964 092b 00       		.uleb128 .LVU741
 12965 092c 00       		.uleb128 .LVU743
 12966 092d 00       		.uleb128 .LVU744
 12967              	.LLST106:
 12968 092e 16000000 		.4byte	.LVL210
 12969 0932 1C000000 		.4byte	.LVL211
 12970 0936 0200     		.2byte	0x2
 12971 0938 30       		.byte	0x30
 12972 0939 9F       		.byte	0x9f
 12973 093a 1C000000 		.4byte	.LVL211
 12974 093e 1E000000 		.4byte	.LVL212
 12975 0942 0100     		.2byte	0x1
 12976 0944 50       		.byte	0x50
 12977 0945 50000000 		.4byte	.LVL217
 12978 0949 6E000000 		.4byte	.LVL218
 12979 094d 0100     		.2byte	0x1
 12980 094f 50       		.byte	0x50
 12981 0950 8A000000 		.4byte	.LVL223
 12982 0954 90000000 		.4byte	.LVL224
 12983 0958 0100     		.2byte	0x1
 12984 095a 50       		.byte	0x50
 12985 095b 94000000 		.4byte	.LVL225
 12986 095f 9E000000 		.4byte	.LVL226
 12987 0963 0100     		.2byte	0x1
 12988 0965 50       		.byte	0x50
 12989 0966 A2000000 		.4byte	.LVL227
 12990 096a AC000000 		.4byte	.LVL228
 12991 096e 0100     		.2byte	0x1
 12992 0970 50       		.byte	0x50
 12993 0971 B0000000 		.4byte	.LVL229
 12994 0975 BA000000 		.4byte	.LVL230
 12995 0979 0100     		.2byte	0x1
 12996 097b 50       		.byte	0x50
ARM GAS  /tmp/ccqyZH0w.s 			page 229


 12997 097c C0000000 		.4byte	.LVL232
 12998 0980 C3000000 		.4byte	.LVL233-1
 12999 0984 0100     		.2byte	0x1
 13000 0986 50       		.byte	0x50
 13001 0987 00000000 		.4byte	0
 13002 098b 00000000 		.4byte	0
 13003              	.LVUS107:
 13004 098f 02       		.uleb128 .LVU654
 13005 0990 00       		.uleb128 .LVU694
 13006 0991 00       		.uleb128 .LVU694
 13007 0992 00       		.uleb128 .LVU697
 13008 0993 00       		.uleb128 .LVU697
 13009 0994 00       		.uleb128 .LVU698
 13010 0995 00       		.uleb128 .LVU708
 13011 0996 00       		.uleb128 .LVU710
 13012 0997 00       		.uleb128 .LVU710
 13013 0998 00       		.uleb128 .LVU724
 13014 0999 00       		.uleb128 .LVU724
 13015 099a 00       		.uleb128 .LVU743
 13016              	.LLST107:
 13017 099b 16000000 		.4byte	.LVL210
 13018 099f 30000000 		.4byte	.LVL215
 13019 09a3 0200     		.2byte	0x2
 13020 09a5 30       		.byte	0x30
 13021 09a6 9F       		.byte	0x9f
 13022 09a7 30000000 		.4byte	.LVL215
 13023 09ab 44000000 		.4byte	.LVL216
 13024 09af 0100     		.2byte	0x1
 13025 09b1 53       		.byte	0x53
 13026 09b2 44000000 		.4byte	.LVL216
 13027 09b6 4F000000 		.4byte	.LVL217-1
 13028 09ba 0200     		.2byte	0x2
 13029 09bc 91       		.byte	0x91
 13030 09bd 58       		.sleb128 -40
 13031 09be 6E000000 		.4byte	.LVL218
 13032 09c2 74000000 		.4byte	.LVL220
 13033 09c6 0200     		.2byte	0x2
 13034 09c8 30       		.byte	0x30
 13035 09c9 9F       		.byte	0x9f
 13036 09ca 74000000 		.4byte	.LVL220
 13037 09ce 8A000000 		.4byte	.LVL223
 13038 09d2 0100     		.2byte	0x1
 13039 09d4 53       		.byte	0x53
 13040 09d5 8A000000 		.4byte	.LVL223
 13041 09d9 C0000000 		.4byte	.LVL232
 13042 09dd 0200     		.2byte	0x2
 13043 09df 30       		.byte	0x30
 13044 09e0 9F       		.byte	0x9f
 13045 09e1 00000000 		.4byte	0
 13046 09e5 00000000 		.4byte	0
 13047              	.LVUS108:
 13048 09e9 00       		.uleb128 .LVU664
 13049 09ea 03       		.uleb128 .LVU667
 13050 09eb 03       		.uleb128 .LVU667
 13051 09ec 06       		.uleb128 .LVU670
 13052 09ed 06       		.uleb128 .LVU670
 13053 09ee 09       		.uleb128 .LVU673
ARM GAS  /tmp/ccqyZH0w.s 			page 230


 13054 09ef 09       		.uleb128 .LVU673
 13055 09f0 0C       		.uleb128 .LVU676
 13056 09f1 0C       		.uleb128 .LVU676
 13057 09f2 0F       		.uleb128 .LVU679
 13058 09f3 0F       		.uleb128 .LVU679
 13059 09f4 01       		.uleb128 .LVU683
 13060 09f5 01       		.uleb128 .LVU683
 13061 09f6 00       		.uleb128 .LVU724
 13062 09f7 00       		.uleb128 .LVU743
 13063 09f8 00       		.uleb128 0
 13064              	.LLST108:
 13065 09f9 1E000000 		.4byte	.LVL212
 13066 09fd 1E000000 		.4byte	.LVL212
 13067 0a01 0200     		.2byte	0x2
 13068 0a03 30       		.byte	0x30
 13069 0a04 9F       		.byte	0x9f
 13070 0a05 1E000000 		.4byte	.LVL212
 13071 0a09 1E000000 		.4byte	.LVL212
 13072 0a0d 0200     		.2byte	0x2
 13073 0a0f 31       		.byte	0x31
 13074 0a10 9F       		.byte	0x9f
 13075 0a11 1E000000 		.4byte	.LVL212
 13076 0a15 1E000000 		.4byte	.LVL212
 13077 0a19 0200     		.2byte	0x2
 13078 0a1b 32       		.byte	0x32
 13079 0a1c 9F       		.byte	0x9f
 13080 0a1d 1E000000 		.4byte	.LVL212
 13081 0a21 1E000000 		.4byte	.LVL212
 13082 0a25 0200     		.2byte	0x2
 13083 0a27 33       		.byte	0x33
 13084 0a28 9F       		.byte	0x9f
 13085 0a29 1E000000 		.4byte	.LVL212
 13086 0a2d 1E000000 		.4byte	.LVL212
 13087 0a31 0200     		.2byte	0x2
 13088 0a33 34       		.byte	0x34
 13089 0a34 9F       		.byte	0x9f
 13090 0a35 1E000000 		.4byte	.LVL212
 13091 0a39 28000000 		.4byte	.LVL213
 13092 0a3d 0200     		.2byte	0x2
 13093 0a3f 35       		.byte	0x35
 13094 0a40 9F       		.byte	0x9f
 13095 0a41 28000000 		.4byte	.LVL213
 13096 0a45 8A000000 		.4byte	.LVL223
 13097 0a49 0200     		.2byte	0x2
 13098 0a4b 36       		.byte	0x36
 13099 0a4c 9F       		.byte	0x9f
 13100 0a4d C0000000 		.4byte	.LVL232
 13101 0a51 CC000000 		.4byte	.LFE17
 13102 0a55 0200     		.2byte	0x2
 13103 0a57 36       		.byte	0x36
 13104 0a58 9F       		.byte	0x9f
 13105 0a59 00000000 		.4byte	0
 13106 0a5d 00000000 		.4byte	0
 13107              	.LVUS109:
 13108 0a61 01       		.uleb128 .LVU687
 13109 0a62 00       		.uleb128 .LVU694
 13110 0a63 00       		.uleb128 .LVU709
ARM GAS  /tmp/ccqyZH0w.s 			page 231


 13111 0a64 00       		.uleb128 .LVU710
 13112 0a65 01       		.uleb128 .LVU714
 13113 0a66 02       		.uleb128 .LVU722
 13114              	.LLST109:
 13115 0a67 2A000000 		.4byte	.LVL214
 13116 0a6b 30000000 		.4byte	.LVL215
 13117 0a6f 0300     		.2byte	0x3
 13118 0a71 08       		.byte	0x8
 13119 0a72 B4       		.byte	0xb4
 13120 0a73 9F       		.byte	0x9f
 13121 0a74 72000000 		.4byte	.LVL219
 13122 0a78 74000000 		.4byte	.LVL220
 13123 0a7c 0300     		.2byte	0x3
 13124 0a7e 08       		.byte	0x8
 13125 0a7f B4       		.byte	0xb4
 13126 0a80 9F       		.byte	0x9f
 13127 0a81 7C000000 		.4byte	.LVL221
 13128 0a85 84000000 		.4byte	.LVL222
 13129 0a89 0400     		.2byte	0x4
 13130 0a8b 73       		.byte	0x73
 13131 0a8c B401     		.sleb128 180
 13132 0a8e 9F       		.byte	0x9f
 13133 0a8f 00000000 		.4byte	0
 13134 0a93 00000000 		.4byte	0
 13135              	.LVUS110:
 13136 0a97 05       		.uleb128 .LVU691
 13137 0a98 00       		.uleb128 .LVU694
 13138 0a99 00       		.uleb128 .LVU709
 13139 0a9a 00       		.uleb128 .LVU710
 13140 0a9b 05       		.uleb128 .LVU718
 13141 0a9c 02       		.uleb128 .LVU722
 13142              	.LLST110:
 13143 0a9d 2A000000 		.4byte	.LVL214
 13144 0aa1 30000000 		.4byte	.LVL215
 13145 0aa5 0200     		.2byte	0x2
 13146 0aa7 32       		.byte	0x32
 13147 0aa8 9F       		.byte	0x9f
 13148 0aa9 72000000 		.4byte	.LVL219
 13149 0aad 74000000 		.4byte	.LVL220
 13150 0ab1 0200     		.2byte	0x2
 13151 0ab3 32       		.byte	0x32
 13152 0ab4 9F       		.byte	0x9f
 13153 0ab5 7C000000 		.4byte	.LVL221
 13154 0ab9 84000000 		.4byte	.LVL222
 13155 0abd 0600     		.2byte	0x6
 13156 0abf 73       		.byte	0x73
 13157 0ac0 B401     		.sleb128 180
 13158 0ac2 36       		.byte	0x36
 13159 0ac3 25       		.byte	0x25
 13160 0ac4 9F       		.byte	0x9f
 13161 0ac5 00000000 		.4byte	0
 13162 0ac9 00000000 		.4byte	0
 13163              	.LVUS111:
 13164 0acd 04       		.uleb128 .LVU690
 13165 0ace 00       		.uleb128 .LVU694
 13166 0acf 00       		.uleb128 .LVU709
 13167 0ad0 00       		.uleb128 .LVU710
ARM GAS  /tmp/ccqyZH0w.s 			page 232


 13168 0ad1 04       		.uleb128 .LVU717
 13169 0ad2 01       		.uleb128 .LVU721
 13170 0ad3 01       		.uleb128 .LVU721
 13171 0ad4 02       		.uleb128 .LVU722
 13172              	.LLST111:
 13173 0ad5 2A000000 		.4byte	.LVL214
 13174 0ad9 30000000 		.4byte	.LVL215
 13175 0add 0200     		.2byte	0x2
 13176 0adf 31       		.byte	0x31
 13177 0ae0 9F       		.byte	0x9f
 13178 0ae1 72000000 		.4byte	.LVL219
 13179 0ae5 74000000 		.4byte	.LVL220
 13180 0ae9 0200     		.2byte	0x2
 13181 0aeb 31       		.byte	0x31
 13182 0aec 9F       		.byte	0x9f
 13183 0aed 7C000000 		.4byte	.LVL221
 13184 0af1 84000000 		.4byte	.LVL222
 13185 0af5 0200     		.2byte	0x2
 13186 0af7 31       		.byte	0x31
 13187 0af8 9F       		.byte	0x9f
 13188 0af9 84000000 		.4byte	.LVL222
 13189 0afd 84000000 		.4byte	.LVL222
 13190 0b01 0200     		.2byte	0x2
 13191 0b03 30       		.byte	0x30
 13192 0b04 9F       		.byte	0x9f
 13193 0b05 00000000 		.4byte	0
 13194 0b09 00000000 		.4byte	0
 13195              	.LVUS151:
 13196 0b0d 00       		.uleb128 0
 13197 0b0e 00       		.uleb128 .LVU1100
 13198 0b0f 00       		.uleb128 .LVU1100
 13199 0b10 00       		.uleb128 0
 13200              	.LLST151:
 13201 0b11 00000000 		.4byte	.LVL347
 13202 0b15 3B000000 		.4byte	.LVL353-1
 13203 0b19 0100     		.2byte	0x1
 13204 0b1b 50       		.byte	0x50
 13205 0b1c 3B000000 		.4byte	.LVL353-1
 13206 0b20 A4020000 		.4byte	.LFE16
 13207 0b24 0100     		.2byte	0x1
 13208 0b26 56       		.byte	0x56
 13209 0b27 00000000 		.4byte	0
 13210 0b2b 00000000 		.4byte	0
 13211              	.LVUS152:
 13212 0b2f 00       		.uleb128 0
 13213 0b30 00       		.uleb128 .LVU1052
 13214 0b31 00       		.uleb128 .LVU1052
 13215 0b32 00       		.uleb128 .LVU1102
 13216 0b33 00       		.uleb128 .LVU1102
 13217 0b34 00       		.uleb128 0
 13218              	.LLST152:
 13219 0b35 00000000 		.4byte	.LVL347
 13220 0b39 1E000000 		.4byte	.LVL349
 13221 0b3d 0100     		.2byte	0x1
 13222 0b3f 51       		.byte	0x51
 13223 0b40 1E000000 		.4byte	.LVL349
 13224 0b44 3E000000 		.4byte	.LVL354
ARM GAS  /tmp/ccqyZH0w.s 			page 233


 13225 0b48 0100     		.2byte	0x1
 13226 0b4a 55       		.byte	0x55
 13227 0b4b 3E000000 		.4byte	.LVL354
 13228 0b4f A4020000 		.4byte	.LFE16
 13229 0b53 0300     		.2byte	0x3
 13230 0b55 91       		.byte	0x91
 13231 0b56 B07F     		.sleb128 -80
 13232 0b58 00000000 		.4byte	0
 13233 0b5c 00000000 		.4byte	0
 13234              	.LVUS153:
 13235 0b60 00       		.uleb128 0
 13236 0b61 00       		.uleb128 .LVU1051
 13237 0b62 00       		.uleb128 .LVU1051
 13238 0b63 00       		.uleb128 0
 13239              	.LLST153:
 13240 0b64 00000000 		.4byte	.LVL347
 13241 0b68 1C000000 		.4byte	.LVL348
 13242 0b6c 0100     		.2byte	0x1
 13243 0b6e 52       		.byte	0x52
 13244 0b6f 1C000000 		.4byte	.LVL348
 13245 0b73 A4020000 		.4byte	.LFE16
 13246 0b77 0300     		.2byte	0x3
 13247 0b79 91       		.byte	0x91
 13248 0b7a B47F     		.sleb128 -76
 13249 0b7c 00000000 		.4byte	0
 13250 0b80 00000000 		.4byte	0
 13251              	.LVUS154:
 13252 0b84 01       		.uleb128 .LVU1054
 13253 0b85 00       		.uleb128 .LVU1100
 13254 0b86 00       		.uleb128 .LVU1100
 13255 0b87 00       		.uleb128 .LVU1103
 13256 0b88 00       		.uleb128 .LVU1105
 13257 0b89 00       		.uleb128 .LVU1107
 13258 0b8a 00       		.uleb128 .LVU1108
 13259 0b8b 00       		.uleb128 .LVU1112
 13260 0b8c 00       		.uleb128 .LVU1113
 13261 0b8d 00       		.uleb128 .LVU1117
 13262 0b8e 00       		.uleb128 .LVU1118
 13263 0b8f 00       		.uleb128 .LVU1122
 13264 0b90 00       		.uleb128 .LVU1123
 13265 0b91 00       		.uleb128 .LVU1127
 13266 0b92 00       		.uleb128 .LVU1128
 13267 0b93 00       		.uleb128 .LVU1132
 13268 0b94 00       		.uleb128 .LVU1133
 13269 0b95 00       		.uleb128 .LVU1138
 13270 0b96 00       		.uleb128 .LVU1146
 13271 0b97 00       		.uleb128 .LVU1152
 13272 0b98 00       		.uleb128 .LVU1153
 13273 0b99 00       		.uleb128 .LVU1178
 13274 0b9a 00       		.uleb128 .LVU1211
 13275 0b9b 00       		.uleb128 .LVU1217
 13276 0b9c 05       		.uleb128 .LVU1232
 13277 0b9d 01       		.uleb128 .LVU1282
 13278 0b9e 01       		.uleb128 .LVU1282
 13279 0b9f 00       		.uleb128 .LVU1287
 13280 0ba0 00       		.uleb128 .LVU1288
 13281 0ba1 00       		.uleb128 .LVU1298
ARM GAS  /tmp/ccqyZH0w.s 			page 234


 13282 0ba2 00       		.uleb128 .LVU1308
 13283 0ba3 00       		.uleb128 .LVU1309
 13284 0ba4 00       		.uleb128 .LVU1316
 13285 0ba5 00       		.uleb128 .LVU1317
 13286 0ba6 00       		.uleb128 .LVU1317
 13287 0ba7 00       		.uleb128 .LVU1323
 13288 0ba8 01       		.uleb128 .LVU1328
 13289 0ba9 00       		.uleb128 .LVU1337
 13290 0baa 00       		.uleb128 .LVU1337
 13291 0bab 00       		.uleb128 .LVU1338
 13292 0bac 00       		.uleb128 .LVU1338
 13293 0bad 00       		.uleb128 .LVU1342
 13294 0bae 00       		.uleb128 .LVU1343
 13295 0baf 00       		.uleb128 .LVU1351
 13296 0bb0 00       		.uleb128 .LVU1351
 13297 0bb1 00       		.uleb128 .LVU1352
 13298 0bb2 00       		.uleb128 .LVU1352
 13299 0bb3 00       		.uleb128 .LVU1356
 13300              	.LLST154:
 13301 0bb4 26000000 		.4byte	.LVL350
 13302 0bb8 3C000000 		.4byte	.LVL353
 13303 0bbc 0200     		.2byte	0x2
 13304 0bbe 30       		.byte	0x30
 13305 0bbf 9F       		.byte	0x9f
 13306 0bc0 3C000000 		.4byte	.LVL353
 13307 0bc4 40000000 		.4byte	.LVL355
 13308 0bc8 0100     		.2byte	0x1
 13309 0bca 50       		.byte	0x50
 13310 0bcb 54000000 		.4byte	.LVL356
 13311 0bcf 5A000000 		.4byte	.LVL357
 13312 0bd3 0100     		.2byte	0x1
 13313 0bd5 50       		.byte	0x50
 13314 0bd6 5E000000 		.4byte	.LVL358
 13315 0bda 6A000000 		.4byte	.LVL359
 13316 0bde 0100     		.2byte	0x1
 13317 0be0 50       		.byte	0x50
 13318 0be1 6E000000 		.4byte	.LVL360
 13319 0be5 7A000000 		.4byte	.LVL361
 13320 0be9 0100     		.2byte	0x1
 13321 0beb 50       		.byte	0x50
 13322 0bec 7E000000 		.4byte	.LVL362
 13323 0bf0 8A000000 		.4byte	.LVL363
 13324 0bf4 0100     		.2byte	0x1
 13325 0bf6 50       		.byte	0x50
 13326 0bf7 8E000000 		.4byte	.LVL364
 13327 0bfb 9A000000 		.4byte	.LVL365
 13328 0bff 0100     		.2byte	0x1
 13329 0c01 50       		.byte	0x50
 13330 0c02 9E000000 		.4byte	.LVL366
 13331 0c06 AE000000 		.4byte	.LVL367
 13332 0c0a 0100     		.2byte	0x1
 13333 0c0c 50       		.byte	0x50
 13334 0c0d B2000000 		.4byte	.LVL368
 13335 0c11 C2000000 		.4byte	.LVL369
 13336 0c15 0100     		.2byte	0x1
 13337 0c17 50       		.byte	0x50
 13338 0c18 E0000000 		.4byte	.LVL370
ARM GAS  /tmp/ccqyZH0w.s 			page 235


 13339 0c1c F0000000 		.4byte	.LVL372
 13340 0c20 0100     		.2byte	0x1
 13341 0c22 50       		.byte	0x50
 13342 0c23 F4000000 		.4byte	.LVL373
 13343 0c27 10010000 		.4byte	.LVL375
 13344 0c2b 0100     		.2byte	0x1
 13345 0c2d 50       		.byte	0x50
 13346 0c2e 50010000 		.4byte	.LVL382
 13347 0c32 62010000 		.4byte	.LVL385
 13348 0c36 0100     		.2byte	0x1
 13349 0c38 50       		.byte	0x50
 13350 0c39 82010000 		.4byte	.LVL386
 13351 0c3d D6010000 		.4byte	.LVL395
 13352 0c41 0200     		.2byte	0x2
 13353 0c43 30       		.byte	0x30
 13354 0c44 9F       		.byte	0x9f
 13355 0c45 D6010000 		.4byte	.LVL395
 13356 0c49 E0010000 		.4byte	.LVL396
 13357 0c4d 0100     		.2byte	0x1
 13358 0c4f 50       		.byte	0x50
 13359 0c50 E4010000 		.4byte	.LVL397
 13360 0c54 02020000 		.4byte	.LVL399
 13361 0c58 0100     		.2byte	0x1
 13362 0c5a 50       		.byte	0x50
 13363 0c5b 22020000 		.4byte	.LVL400
 13364 0c5f 24020000 		.4byte	.LVL401
 13365 0c63 0100     		.2byte	0x1
 13366 0c65 50       		.byte	0x50
 13367 0c66 32020000 		.4byte	.LVL403
 13368 0c6a 34020000 		.4byte	.LVL404
 13369 0c6e 0200     		.2byte	0x2
 13370 0c70 30       		.byte	0x30
 13371 0c71 9F       		.byte	0x9f
 13372 0c72 34020000 		.4byte	.LVL404
 13373 0c76 3C020000 		.4byte	.LVL407
 13374 0c7a 0100     		.2byte	0x1
 13375 0c7c 50       		.byte	0x50
 13376 0c7d 46020000 		.4byte	.LVL409
 13377 0c81 5A020000 		.4byte	.LVL412
 13378 0c85 0100     		.2byte	0x1
 13379 0c87 53       		.byte	0x53
 13380 0c88 5A020000 		.4byte	.LVL412
 13381 0c8c 60020000 		.4byte	.LVL413
 13382 0c90 0200     		.2byte	0x2
 13383 0c92 30       		.byte	0x30
 13384 0c93 9F       		.byte	0x9f
 13385 0c94 60020000 		.4byte	.LVL413
 13386 0c98 6A020000 		.4byte	.LVL415
 13387 0c9c 0100     		.2byte	0x1
 13388 0c9e 50       		.byte	0x50
 13389 0c9f 6E020000 		.4byte	.LVL416
 13390 0ca3 88020000 		.4byte	.LVL417
 13391 0ca7 0100     		.2byte	0x1
 13392 0ca9 50       		.byte	0x50
 13393 0caa 88020000 		.4byte	.LVL417
 13394 0cae 8E020000 		.4byte	.LVL418
 13395 0cb2 0200     		.2byte	0x2
ARM GAS  /tmp/ccqyZH0w.s 			page 236


 13396 0cb4 30       		.byte	0x30
 13397 0cb5 9F       		.byte	0x9f
 13398 0cb6 8E020000 		.4byte	.LVL418
 13399 0cba 98020000 		.4byte	.LVL419
 13400 0cbe 0100     		.2byte	0x1
 13401 0cc0 50       		.byte	0x50
 13402 0cc1 00000000 		.4byte	0
 13403 0cc5 00000000 		.4byte	0
 13404              	.LVUS155:
 13405 0cc9 06       		.uleb128 .LVU1059
 13406 0cca 00       		.uleb128 .LVU1103
 13407 0ccb 00       		.uleb128 .LVU1105
 13408 0ccc 00       		.uleb128 .LVU1150
 13409 0ccd 00       		.uleb128 .LVU1150
 13410 0cce 00       		.uleb128 .LVU1153
 13411 0ccf 00       		.uleb128 .LVU1153
 13412 0cd0 02       		.uleb128 .LVU1182
 13413 0cd1 02       		.uleb128 .LVU1182
 13414 0cd2 00       		.uleb128 .LVU1210
 13415 0cd3 00       		.uleb128 .LVU1210
 13416 0cd4 00       		.uleb128 .LVU1211
 13417 0cd5 00       		.uleb128 .LVU1214
 13418 0cd6 00       		.uleb128 .LVU1217
 13419 0cd7 05       		.uleb128 .LVU1232
 13420 0cd8 00       		.uleb128 .LVU1235
 13421 0cd9 01       		.uleb128 .LVU1257
 13422 0cda 04       		.uleb128 .LVU1277
 13423 0cdb 04       		.uleb128 .LVU1277
 13424 0cdc 00       		.uleb128 .LVU1298
 13425 0cdd 00       		.uleb128 .LVU1308
 13426 0cde 00       		.uleb128 .LVU1337
 13427 0cdf 00       		.uleb128 .LVU1340
 13428 0ce0 00       		.uleb128 .LVU1343
 13429 0ce1 00       		.uleb128 .LVU1343
 13430 0ce2 00       		.uleb128 .LVU1351
 13431 0ce3 00       		.uleb128 .LVU1352
 13432 0ce4 00       		.uleb128 .LVU1356
 13433              	.LLST155:
 13434 0ce5 26000000 		.4byte	.LVL350
 13435 0ce9 40000000 		.4byte	.LVL355
 13436 0ced 0200     		.2byte	0x2
 13437 0cef 30       		.byte	0x30
 13438 0cf0 9F       		.byte	0x9f
 13439 0cf1 54000000 		.4byte	.LVL356
 13440 0cf5 EA000000 		.4byte	.LVL371
 13441 0cf9 0200     		.2byte	0x2
 13442 0cfb 30       		.byte	0x30
 13443 0cfc 9F       		.byte	0x9f
 13444 0cfd EA000000 		.4byte	.LVL371
 13445 0d01 F3000000 		.4byte	.LVL373-1
 13446 0d05 0100     		.2byte	0x1
 13447 0d07 52       		.byte	0x52
 13448 0d08 F3000000 		.4byte	.LVL373-1
 13449 0d0c 1A010000 		.4byte	.LVL376
 13450 0d10 0300     		.2byte	0x3
 13451 0d12 91       		.byte	0x91
 13452 0d13 AC7F     		.sleb128 -84
ARM GAS  /tmp/ccqyZH0w.s 			page 237


 13453 0d15 1A010000 		.4byte	.LVL376
 13454 0d19 48010000 		.4byte	.LVL381
 13455 0d1d 0100     		.2byte	0x1
 13456 0d1f 52       		.byte	0x52
 13457 0d20 48010000 		.4byte	.LVL381
 13458 0d24 4F010000 		.4byte	.LVL382-1
 13459 0d28 0300     		.2byte	0x3
 13460 0d2a 91       		.byte	0x91
 13461 0d2b 987F     		.sleb128 -104
 13462 0d2d 5A010000 		.4byte	.LVL384
 13463 0d31 62010000 		.4byte	.LVL385
 13464 0d35 0300     		.2byte	0x3
 13465 0d37 91       		.byte	0x91
 13466 0d38 AC7F     		.sleb128 -84
 13467 0d3a 82010000 		.4byte	.LVL386
 13468 0d3e 88010000 		.4byte	.LVL387
 13469 0d42 0100     		.2byte	0x1
 13470 0d44 52       		.byte	0x52
 13471 0d45 B4010000 		.4byte	.LVL390
 13472 0d49 CA010000 		.4byte	.LVL394
 13473 0d4d 0100     		.2byte	0x1
 13474 0d4f 54       		.byte	0x54
 13475 0d50 CA010000 		.4byte	.LVL394
 13476 0d54 02020000 		.4byte	.LVL399
 13477 0d58 0300     		.2byte	0x3
 13478 0d5a 74       		.byte	0x74
 13479 0d5b 01       		.sleb128 1
 13480 0d5c 9F       		.byte	0x9f
 13481 0d5d 22020000 		.4byte	.LVL400
 13482 0d61 5A020000 		.4byte	.LVL412
 13483 0d65 0300     		.2byte	0x3
 13484 0d67 74       		.byte	0x74
 13485 0d68 01       		.sleb128 1
 13486 0d69 9F       		.byte	0x9f
 13487 0d6a 64020000 		.4byte	.LVL414
 13488 0d6e 6D020000 		.4byte	.LVL416-1
 13489 0d72 0100     		.2byte	0x1
 13490 0d74 52       		.byte	0x52
 13491 0d75 6D020000 		.4byte	.LVL416-1
 13492 0d79 88020000 		.4byte	.LVL417
 13493 0d7d 0300     		.2byte	0x3
 13494 0d7f 91       		.byte	0x91
 13495 0d80 AC7F     		.sleb128 -84
 13496 0d82 8E020000 		.4byte	.LVL418
 13497 0d86 98020000 		.4byte	.LVL419
 13498 0d8a 0300     		.2byte	0x3
 13499 0d8c 91       		.byte	0x91
 13500 0d8d AC7F     		.sleb128 -84
 13501 0d8f 00000000 		.4byte	0
 13502 0d93 00000000 		.4byte	0
 13503              	.LVUS156:
 13504 0d97 01       		.uleb128 .LVU1064
 13505 0d98 03       		.uleb128 .LVU1078
 13506 0d99 03       		.uleb128 .LVU1078
 13507 0d9a 00       		.uleb128 0
 13508              	.LLST156:
 13509 0d9b 32000000 		.4byte	.LVL351
ARM GAS  /tmp/ccqyZH0w.s 			page 238


 13510 0d9f 38000000 		.4byte	.LVL352
 13511 0da3 0400     		.2byte	0x4
 13512 0da5 0A       		.byte	0xa
 13513 0da6 000A     		.2byte	0xa00
 13514 0da8 9F       		.byte	0x9f
 13515 0da9 38000000 		.4byte	.LVL352
 13516 0dad A4020000 		.4byte	.LFE16
 13517 0db1 0100     		.2byte	0x1
 13518 0db3 58       		.byte	0x58
 13519 0db4 00000000 		.4byte	0
 13520 0db8 00000000 		.4byte	0
 13521              	.LVUS157:
 13522 0dbc 03       		.uleb128 .LVU1066
 13523 0dbd 00       		.uleb128 .LVU1103
 13524 0dbe 00       		.uleb128 .LVU1105
 13525 0dbf 01       		.uleb128 .LVU1208
 13526 0dc0 01       		.uleb128 .LVU1208
 13527 0dc1 00       		.uleb128 .LVU1213
 13528 0dc2 00       		.uleb128 .LVU1214
 13529 0dc3 00       		.uleb128 .LVU1217
 13530 0dc4 00       		.uleb128 .LVU1338
 13531 0dc5 00       		.uleb128 .LVU1351
 13532 0dc6 00       		.uleb128 .LVU1352
 13533 0dc7 00       		.uleb128 .LVU1356
 13534              	.LLST157:
 13535 0dc8 32000000 		.4byte	.LVL351
 13536 0dcc 40000000 		.4byte	.LVL355
 13537 0dd0 0200     		.2byte	0x2
 13538 0dd2 30       		.byte	0x30
 13539 0dd3 9F       		.byte	0x9f
 13540 0dd4 54000000 		.4byte	.LVL356
 13541 0dd8 32010000 		.4byte	.LVL380
 13542 0ddc 0200     		.2byte	0x2
 13543 0dde 30       		.byte	0x30
 13544 0ddf 9F       		.byte	0x9f
 13545 0de0 32010000 		.4byte	.LVL380
 13546 0de4 56010000 		.4byte	.LVL383
 13547 0de8 0200     		.2byte	0x2
 13548 0dea 31       		.byte	0x31
 13549 0deb 9F       		.byte	0x9f
 13550 0dec 5A010000 		.4byte	.LVL384
 13551 0df0 62010000 		.4byte	.LVL385
 13552 0df4 0200     		.2byte	0x2
 13553 0df6 30       		.byte	0x30
 13554 0df7 9F       		.byte	0x9f
 13555 0df8 60020000 		.4byte	.LVL413
 13556 0dfc 88020000 		.4byte	.LVL417
 13557 0e00 0200     		.2byte	0x2
 13558 0e02 31       		.byte	0x31
 13559 0e03 9F       		.byte	0x9f
 13560 0e04 8E020000 		.4byte	.LVL418
 13561 0e08 98020000 		.4byte	.LVL419
 13562 0e0c 0200     		.2byte	0x2
 13563 0e0e 31       		.byte	0x31
 13564 0e0f 9F       		.byte	0x9f
 13565 0e10 00000000 		.4byte	0
 13566 0e14 00000000 		.4byte	0
ARM GAS  /tmp/ccqyZH0w.s 			page 239


 13567              	.LVUS158:
 13568 0e18 04       		.uleb128 .LVU1067
 13569 0e19 07       		.uleb128 .LVU1082
 13570 0e1a 07       		.uleb128 .LVU1082
 13571 0e1b 0A       		.uleb128 .LVU1085
 13572 0e1c 0A       		.uleb128 .LVU1085
 13573 0e1d 0D       		.uleb128 .LVU1088
 13574 0e1e 0D       		.uleb128 .LVU1088
 13575 0e1f 10       		.uleb128 .LVU1091
 13576 0e20 10       		.uleb128 .LVU1091
 13577 0e21 13       		.uleb128 .LVU1094
 13578 0e22 13       		.uleb128 .LVU1094
 13579 0e23 16       		.uleb128 .LVU1097
 13580 0e24 16       		.uleb128 .LVU1097
 13581 0e25 00       		.uleb128 .LVU1157
 13582 0e26 00       		.uleb128 .LVU1157
 13583 0e27 03       		.uleb128 .LVU1160
 13584 0e28 03       		.uleb128 .LVU1160
 13585 0e29 06       		.uleb128 .LVU1163
 13586 0e2a 06       		.uleb128 .LVU1163
 13587 0e2b 09       		.uleb128 .LVU1166
 13588 0e2c 09       		.uleb128 .LVU1166
 13589 0e2d 0C       		.uleb128 .LVU1169
 13590 0e2e 0C       		.uleb128 .LVU1169
 13591 0e2f 0F       		.uleb128 .LVU1172
 13592 0e30 0F       		.uleb128 .LVU1172
 13593 0e31 01       		.uleb128 .LVU1181
 13594 0e32 01       		.uleb128 .LVU1181
 13595 0e33 00       		.uleb128 0
 13596              	.LLST158:
 13597 0e34 32000000 		.4byte	.LVL351
 13598 0e38 38000000 		.4byte	.LVL352
 13599 0e3c 0200     		.2byte	0x2
 13600 0e3e 30       		.byte	0x30
 13601 0e3f 9F       		.byte	0x9f
 13602 0e40 38000000 		.4byte	.LVL352
 13603 0e44 38000000 		.4byte	.LVL352
 13604 0e48 0200     		.2byte	0x2
 13605 0e4a 31       		.byte	0x31
 13606 0e4b 9F       		.byte	0x9f
 13607 0e4c 38000000 		.4byte	.LVL352
 13608 0e50 38000000 		.4byte	.LVL352
 13609 0e54 0200     		.2byte	0x2
 13610 0e56 32       		.byte	0x32
 13611 0e57 9F       		.byte	0x9f
 13612 0e58 38000000 		.4byte	.LVL352
 13613 0e5c 38000000 		.4byte	.LVL352
 13614 0e60 0200     		.2byte	0x2
 13615 0e62 33       		.byte	0x33
 13616 0e63 9F       		.byte	0x9f
 13617 0e64 38000000 		.4byte	.LVL352
 13618 0e68 38000000 		.4byte	.LVL352
 13619 0e6c 0200     		.2byte	0x2
 13620 0e6e 34       		.byte	0x34
 13621 0e6f 9F       		.byte	0x9f
 13622 0e70 38000000 		.4byte	.LVL352
 13623 0e74 38000000 		.4byte	.LVL352
ARM GAS  /tmp/ccqyZH0w.s 			page 240


 13624 0e78 0200     		.2byte	0x2
 13625 0e7a 35       		.byte	0x35
 13626 0e7b 9F       		.byte	0x9f
 13627 0e7c 38000000 		.4byte	.LVL352
 13628 0e80 04010000 		.4byte	.LVL374
 13629 0e84 0200     		.2byte	0x2
 13630 0e86 36       		.byte	0x36
 13631 0e87 9F       		.byte	0x9f
 13632 0e88 04010000 		.4byte	.LVL374
 13633 0e8c 04010000 		.4byte	.LVL374
 13634 0e90 0200     		.2byte	0x2
 13635 0e92 30       		.byte	0x30
 13636 0e93 9F       		.byte	0x9f
 13637 0e94 04010000 		.4byte	.LVL374
 13638 0e98 04010000 		.4byte	.LVL374
 13639 0e9c 0200     		.2byte	0x2
 13640 0e9e 31       		.byte	0x31
 13641 0e9f 9F       		.byte	0x9f
 13642 0ea0 04010000 		.4byte	.LVL374
 13643 0ea4 04010000 		.4byte	.LVL374
 13644 0ea8 0200     		.2byte	0x2
 13645 0eaa 32       		.byte	0x32
 13646 0eab 9F       		.byte	0x9f
 13647 0eac 04010000 		.4byte	.LVL374
 13648 0eb0 04010000 		.4byte	.LVL374
 13649 0eb4 0200     		.2byte	0x2
 13650 0eb6 33       		.byte	0x33
 13651 0eb7 9F       		.byte	0x9f
 13652 0eb8 04010000 		.4byte	.LVL374
 13653 0ebc 04010000 		.4byte	.LVL374
 13654 0ec0 0200     		.2byte	0x2
 13655 0ec2 34       		.byte	0x34
 13656 0ec3 9F       		.byte	0x9f
 13657 0ec4 04010000 		.4byte	.LVL374
 13658 0ec8 1A010000 		.4byte	.LVL376
 13659 0ecc 0200     		.2byte	0x2
 13660 0ece 35       		.byte	0x35
 13661 0ecf 9F       		.byte	0x9f
 13662 0ed0 1A010000 		.4byte	.LVL376
 13663 0ed4 A4020000 		.4byte	.LFE16
 13664 0ed8 0200     		.2byte	0x2
 13665 0eda 36       		.byte	0x36
 13666 0edb 9F       		.byte	0x9f
 13667 0edc 00000000 		.4byte	0
 13668 0ee0 00000000 		.4byte	0
 13669              	.LVUS159:
 13670 0ee4 06       		.uleb128 .LVU1069
 13671 0ee5 00       		.uleb128 .LVU1103
 13672 0ee6 00       		.uleb128 .LVU1105
 13673 0ee7 00       		.uleb128 .LVU1213
 13674 0ee8 00       		.uleb128 .LVU1214
 13675 0ee9 00       		.uleb128 .LVU1235
 13676 0eea 00       		.uleb128 .LVU1293
 13677 0eeb 00       		.uleb128 .LVU1298
 13678 0eec 00       		.uleb128 .LVU1308
 13679 0eed 00       		.uleb128 .LVU1321
 13680 0eee 00       		.uleb128 .LVU1321
ARM GAS  /tmp/ccqyZH0w.s 			page 241


 13681 0eef 00       		.uleb128 .LVU1324
 13682 0ef0 00       		.uleb128 .LVU1338
 13683 0ef1 00       		.uleb128 .LVU1351
 13684 0ef2 00       		.uleb128 .LVU1352
 13685 0ef3 00       		.uleb128 .LVU1356
 13686              	.LLST159:
 13687 0ef4 32000000 		.4byte	.LVL351
 13688 0ef8 40000000 		.4byte	.LVL355
 13689 0efc 0200     		.2byte	0x2
 13690 0efe 30       		.byte	0x30
 13691 0eff 9F       		.byte	0x9f
 13692 0f00 54000000 		.4byte	.LVL356
 13693 0f04 56010000 		.4byte	.LVL383
 13694 0f08 0200     		.2byte	0x2
 13695 0f0a 30       		.byte	0x30
 13696 0f0b 9F       		.byte	0x9f
 13697 0f0c 5A010000 		.4byte	.LVL384
 13698 0f10 88010000 		.4byte	.LVL387
 13699 0f14 0200     		.2byte	0x2
 13700 0f16 30       		.byte	0x30
 13701 0f17 9F       		.byte	0x9f
 13702 0f18 F6010000 		.4byte	.LVL398
 13703 0f1c 02020000 		.4byte	.LVL399
 13704 0f20 0100     		.2byte	0x1
 13705 0f22 53       		.byte	0x53
 13706 0f23 22020000 		.4byte	.LVL400
 13707 0f27 36020000 		.4byte	.LVL405
 13708 0f2b 0100     		.2byte	0x1
 13709 0f2d 53       		.byte	0x53
 13710 0f2e 36020000 		.4byte	.LVL405
 13711 0f32 3F020000 		.4byte	.LVL408-1
 13712 0f36 2900     		.2byte	0x29
 13713 0f38 78       		.byte	0x78
 13714 0f39 00       		.sleb128 0
 13715 0f3a 91       		.byte	0x91
 13716 0f3b 42       		.sleb128 -62
 13717 0f3c 94       		.byte	0x94
 13718 0f3d 02       		.byte	0x2
 13719 0f3e 0A       		.byte	0xa
 13720 0f3f FFFF     		.2byte	0xffff
 13721 0f41 1A       		.byte	0x1a
 13722 0f42 1C       		.byte	0x1c
 13723 0f43 91       		.byte	0x91
 13724 0f44 42       		.sleb128 -62
 13725 0f45 94       		.byte	0x94
 13726 0f46 02       		.byte	0x2
 13727 0f47 0A       		.byte	0xa
 13728 0f48 FFFF     		.2byte	0xffff
 13729 0f4a 1A       		.byte	0x1a
 13730 0f4b 78       		.byte	0x78
 13731 0f4c 00       		.sleb128 0
 13732 0f4d 1C       		.byte	0x1c
 13733 0f4e 91       		.byte	0x91
 13734 0f4f 42       		.sleb128 -62
 13735 0f50 94       		.byte	0x94
 13736 0f51 02       		.byte	0x2
 13737 0f52 0A       		.byte	0xa
ARM GAS  /tmp/ccqyZH0w.s 			page 242


 13738 0f53 FFFF     		.2byte	0xffff
 13739 0f55 1A       		.byte	0x1a
 13740 0f56 78       		.byte	0x78
 13741 0f57 00       		.sleb128 0
 13742 0f58 1C       		.byte	0x1c
 13743 0f59 30       		.byte	0x30
 13744 0f5a 2D       		.byte	0x2d
 13745 0f5b 28       		.byte	0x28
 13746 0f5c 0100     		.2byte	0x1
 13747 0f5e 16       		.byte	0x16
 13748 0f5f 13       		.byte	0x13
 13749 0f60 9F       		.byte	0x9f
 13750 0f61 60020000 		.4byte	.LVL413
 13751 0f65 88020000 		.4byte	.LVL417
 13752 0f69 0200     		.2byte	0x2
 13753 0f6b 30       		.byte	0x30
 13754 0f6c 9F       		.byte	0x9f
 13755 0f6d 8E020000 		.4byte	.LVL418
 13756 0f71 98020000 		.4byte	.LVL419
 13757 0f75 0200     		.2byte	0x2
 13758 0f77 30       		.byte	0x30
 13759 0f78 9F       		.byte	0x9f
 13760 0f79 00000000 		.4byte	0
 13761 0f7d 00000000 		.4byte	0
 13762              	.LVUS160:
 13763 0f81 07       		.uleb128 .LVU1070
 13764 0f82 00       		.uleb128 .LVU1103
 13765 0f83 00       		.uleb128 .LVU1105
 13766 0f84 00       		.uleb128 .LVU1213
 13767 0f85 00       		.uleb128 .LVU1214
 13768 0f86 03       		.uleb128 .LVU1230
 13769 0f87 01       		.uleb128 .LVU1312
 13770 0f88 00       		.uleb128 .LVU1317
 13771 0f89 00       		.uleb128 .LVU1338
 13772 0f8a 00       		.uleb128 .LVU1351
 13773 0f8b 00       		.uleb128 .LVU1352
 13774 0f8c 00       		.uleb128 .LVU1356
 13775              	.LLST160:
 13776 0f8d 32000000 		.4byte	.LVL351
 13777 0f91 40000000 		.4byte	.LVL355
 13778 0f95 0200     		.2byte	0x2
 13779 0f97 30       		.byte	0x30
 13780 0f98 9F       		.byte	0x9f
 13781 0f99 54000000 		.4byte	.LVL356
 13782 0f9d 56010000 		.4byte	.LVL383
 13783 0fa1 0200     		.2byte	0x2
 13784 0fa3 30       		.byte	0x30
 13785 0fa4 9F       		.byte	0x9f
 13786 0fa5 5A010000 		.4byte	.LVL384
 13787 0fa9 82010000 		.4byte	.LVL386
 13788 0fad 0200     		.2byte	0x2
 13789 0faf 30       		.byte	0x30
 13790 0fb0 9F       		.byte	0x9f
 13791 0fb1 2A020000 		.4byte	.LVL402
 13792 0fb5 34020000 		.4byte	.LVL404
 13793 0fb9 0100     		.2byte	0x1
 13794 0fbb 53       		.byte	0x53
ARM GAS  /tmp/ccqyZH0w.s 			page 243


 13795 0fbc 60020000 		.4byte	.LVL413
 13796 0fc0 88020000 		.4byte	.LVL417
 13797 0fc4 0200     		.2byte	0x2
 13798 0fc6 30       		.byte	0x30
 13799 0fc7 9F       		.byte	0x9f
 13800 0fc8 8E020000 		.4byte	.LVL418
 13801 0fcc 98020000 		.4byte	.LVL419
 13802 0fd0 0200     		.2byte	0x2
 13803 0fd2 30       		.byte	0x30
 13804 0fd3 9F       		.byte	0x9f
 13805 0fd4 00000000 		.4byte	0
 13806 0fd8 00000000 		.4byte	0
 13807              	.LVUS161:
 13808 0fdc 08       		.uleb128 .LVU1071
 13809 0fdd 00       		.uleb128 .LVU1103
 13810 0fde 00       		.uleb128 .LVU1105
 13811 0fdf 00       		.uleb128 .LVU1298
 13812 0fe0 00       		.uleb128 .LVU1308
 13813 0fe1 01       		.uleb128 .LVU1333
 13814 0fe2 01       		.uleb128 .LVU1333
 13815 0fe3 02       		.uleb128 .LVU1334
 13816 0fe4 00       		.uleb128 .LVU1337
 13817 0fe5 00       		.uleb128 .LVU1356
 13818              	.LLST161:
 13819 0fe6 32000000 		.4byte	.LVL351
 13820 0fea 40000000 		.4byte	.LVL355
 13821 0fee 0200     		.2byte	0x2
 13822 0ff0 30       		.byte	0x30
 13823 0ff1 9F       		.byte	0x9f
 13824 0ff2 54000000 		.4byte	.LVL356
 13825 0ff6 02020000 		.4byte	.LVL399
 13826 0ffa 0200     		.2byte	0x2
 13827 0ffc 30       		.byte	0x30
 13828 0ffd 9F       		.byte	0x9f
 13829 0ffe 22020000 		.4byte	.LVL400
 13830 1002 52020000 		.4byte	.LVL411
 13831 1006 0200     		.2byte	0x2
 13832 1008 30       		.byte	0x30
 13833 1009 9F       		.byte	0x9f
 13834 100a 52020000 		.4byte	.LVL411
 13835 100e 52020000 		.4byte	.LVL411
 13836 1012 0200     		.2byte	0x2
 13837 1014 31       		.byte	0x31
 13838 1015 9F       		.byte	0x9f
 13839 1016 5A020000 		.4byte	.LVL412
 13840 101a 98020000 		.4byte	.LVL419
 13841 101e 0200     		.2byte	0x2
 13842 1020 30       		.byte	0x30
 13843 1021 9F       		.byte	0x9f
 13844 1022 00000000 		.4byte	0
 13845 1026 00000000 		.4byte	0
 13846              	.LVUS162:
 13847 102a 01       		.uleb128 .LVU1076
 13848 102b 00       		.uleb128 .LVU1103
 13849 102c 00       		.uleb128 .LVU1105
 13850 102d 00       		.uleb128 .LVU1213
 13851 102e 00       		.uleb128 .LVU1214
ARM GAS  /tmp/ccqyZH0w.s 			page 244


 13852 102f 00       		.uleb128 .LVU1217
 13853 1030 01       		.uleb128 .LVU1228
 13854 1031 00       		.uleb128 .LVU1235
 13855 1032 00       		.uleb128 .LVU1256
 13856 1033 00       		.uleb128 .LVU1298
 13857 1034 00       		.uleb128 .LVU1308
 13858 1035 00       		.uleb128 .LVU1316
 13859 1036 00       		.uleb128 .LVU1316
 13860 1037 00       		.uleb128 .LVU1317
 13861 1038 00       		.uleb128 .LVU1317
 13862 1039 00       		.uleb128 .LVU1330
 13863 103a 00       		.uleb128 .LVU1330
 13864 103b 01       		.uleb128 .LVU1333
 13865 103c 01       		.uleb128 .LVU1333
 13866 103d 00       		.uleb128 .LVU1337
 13867 103e 00       		.uleb128 .LVU1338
 13868 103f 00       		.uleb128 .LVU1351
 13869 1040 00       		.uleb128 .LVU1352
 13870 1041 00       		.uleb128 .LVU1356
 13871              	.LLST162:
 13872 1042 38000000 		.4byte	.LVL352
 13873 1046 40000000 		.4byte	.LVL355
 13874 104a 0200     		.2byte	0x2
 13875 104c 30       		.byte	0x30
 13876 104d 9F       		.byte	0x9f
 13877 104e 54000000 		.4byte	.LVL356
 13878 1052 56010000 		.4byte	.LVL383
 13879 1056 0200     		.2byte	0x2
 13880 1058 30       		.byte	0x30
 13881 1059 9F       		.byte	0x9f
 13882 105a 5A010000 		.4byte	.LVL384
 13883 105e 62010000 		.4byte	.LVL385
 13884 1062 0200     		.2byte	0x2
 13885 1064 30       		.byte	0x30
 13886 1065 9F       		.byte	0x9f
 13887 1066 82010000 		.4byte	.LVL386
 13888 106a 88010000 		.4byte	.LVL387
 13889 106e 0200     		.2byte	0x2
 13890 1070 33       		.byte	0x33
 13891 1071 9F       		.byte	0x9f
 13892 1072 B4010000 		.4byte	.LVL390
 13893 1076 02020000 		.4byte	.LVL399
 13894 107a 0100     		.2byte	0x1
 13895 107c 59       		.byte	0x59
 13896 107d 22020000 		.4byte	.LVL400
 13897 1081 32020000 		.4byte	.LVL403
 13898 1085 0100     		.2byte	0x1
 13899 1087 59       		.byte	0x59
 13900 1088 32020000 		.4byte	.LVL403
 13901 108c 34020000 		.4byte	.LVL404
 13902 1090 0100     		.2byte	0x1
 13903 1092 5A       		.byte	0x5a
 13904 1093 34020000 		.4byte	.LVL404
 13905 1097 4E020000 		.4byte	.LVL410
 13906 109b 0100     		.2byte	0x1
 13907 109d 59       		.byte	0x59
 13908 109e 4E020000 		.4byte	.LVL410
ARM GAS  /tmp/ccqyZH0w.s 			page 245


 13909 10a2 52020000 		.4byte	.LVL411
 13910 10a6 0300     		.2byte	0x3
 13911 10a8 7A       		.byte	0x7a
 13912 10a9 01       		.sleb128 1
 13913 10aa 9F       		.byte	0x9f
 13914 10ab 52020000 		.4byte	.LVL411
 13915 10af 5A020000 		.4byte	.LVL412
 13916 10b3 0100     		.2byte	0x1
 13917 10b5 59       		.byte	0x59
 13918 10b6 60020000 		.4byte	.LVL413
 13919 10ba 88020000 		.4byte	.LVL417
 13920 10be 0200     		.2byte	0x2
 13921 10c0 30       		.byte	0x30
 13922 10c1 9F       		.byte	0x9f
 13923 10c2 8E020000 		.4byte	.LVL418
 13924 10c6 98020000 		.4byte	.LVL419
 13925 10ca 0200     		.2byte	0x2
 13926 10cc 30       		.byte	0x30
 13927 10cd 9F       		.byte	0x9f
 13928 10ce 00000000 		.4byte	0
 13929 10d2 00000000 		.4byte	0
 13930              	.LVUS163:
 13931 10d6 02       		.uleb128 .LVU1077
 13932 10d7 00       		.uleb128 .LVU1103
 13933 10d8 00       		.uleb128 .LVU1105
 13934 10d9 00       		.uleb128 .LVU1213
 13935 10da 00       		.uleb128 .LVU1214
 13936 10db 00       		.uleb128 .LVU1217
 13937 10dc 00       		.uleb128 .LVU1227
 13938 10dd 00       		.uleb128 .LVU1298
 13939 10de 00       		.uleb128 .LVU1308
 13940 10df 00       		.uleb128 .LVU1338
 13941 10e0 00       		.uleb128 .LVU1338
 13942 10e1 00       		.uleb128 .LVU1351
 13943 10e2 00       		.uleb128 .LVU1351
 13944 10e3 00       		.uleb128 .LVU1352
 13945 10e4 00       		.uleb128 .LVU1352
 13946 10e5 00       		.uleb128 .LVU1356
 13947              	.LLST163:
 13948 10e6 38000000 		.4byte	.LVL352
 13949 10ea 40000000 		.4byte	.LVL355
 13950 10ee 0200     		.2byte	0x2
 13951 10f0 30       		.byte	0x30
 13952 10f1 9F       		.byte	0x9f
 13953 10f2 54000000 		.4byte	.LVL356
 13954 10f6 56010000 		.4byte	.LVL383
 13955 10fa 0200     		.2byte	0x2
 13956 10fc 30       		.byte	0x30
 13957 10fd 9F       		.byte	0x9f
 13958 10fe 5A010000 		.4byte	.LVL384
 13959 1102 62010000 		.4byte	.LVL385
 13960 1106 0200     		.2byte	0x2
 13961 1108 30       		.byte	0x30
 13962 1109 9F       		.byte	0x9f
 13963 110a 82010000 		.4byte	.LVL386
 13964 110e 02020000 		.4byte	.LVL399
 13965 1112 0300     		.2byte	0x3
ARM GAS  /tmp/ccqyZH0w.s 			page 246


 13966 1114 91       		.byte	0x91
 13967 1115 BC7F     		.sleb128 -68
 13968 1117 22020000 		.4byte	.LVL400
 13969 111b 60020000 		.4byte	.LVL413
 13970 111f 0300     		.2byte	0x3
 13971 1121 91       		.byte	0x91
 13972 1122 BC7F     		.sleb128 -68
 13973 1124 60020000 		.4byte	.LVL413
 13974 1128 88020000 		.4byte	.LVL417
 13975 112c 0200     		.2byte	0x2
 13976 112e 30       		.byte	0x30
 13977 112f 9F       		.byte	0x9f
 13978 1130 88020000 		.4byte	.LVL417
 13979 1134 8E020000 		.4byte	.LVL418
 13980 1138 0300     		.2byte	0x3
 13981 113a 91       		.byte	0x91
 13982 113b BC7F     		.sleb128 -68
 13983 113d 8E020000 		.4byte	.LVL418
 13984 1141 98020000 		.4byte	.LVL419
 13985 1145 0200     		.2byte	0x2
 13986 1147 30       		.byte	0x30
 13987 1148 9F       		.byte	0x9f
 13988 1149 00000000 		.4byte	0
 13989 114d 00000000 		.4byte	0
 13990              	.LVUS164:
 13991 1151 03       		.uleb128 .LVU1183
 13992 1152 02       		.uleb128 .LVU1191
 13993 1153 01       		.uleb128 .LVU1197
 13994 1154 02       		.uleb128 .LVU1205
 13995              	.LLST164:
 13996 1155 1A010000 		.4byte	.LVL376
 13997 1159 1C010000 		.4byte	.LVL377
 13998 115d 0400     		.2byte	0x4
 13999 115f 72       		.byte	0x72
 14000 1160 B401     		.sleb128 180
 14001 1162 9F       		.byte	0x9f
 14002 1163 28010000 		.4byte	.LVL378
 14003 1167 2E010000 		.4byte	.LVL379
 14004 116b 0400     		.2byte	0x4
 14005 116d 72       		.byte	0x72
 14006 116e B401     		.sleb128 180
 14007 1170 9F       		.byte	0x9f
 14008 1171 00000000 		.4byte	0
 14009 1175 00000000 		.4byte	0
 14010              	.LVUS165:
 14011 1179 07       		.uleb128 .LVU1187
 14012 117a 02       		.uleb128 .LVU1191
 14013 117b 05       		.uleb128 .LVU1201
 14014 117c 02       		.uleb128 .LVU1205
 14015              	.LLST165:
 14016 117d 1A010000 		.4byte	.LVL376
 14017 1181 1C010000 		.4byte	.LVL377
 14018 1185 0600     		.2byte	0x6
 14019 1187 72       		.byte	0x72
 14020 1188 B401     		.sleb128 180
 14021 118a 36       		.byte	0x36
 14022 118b 25       		.byte	0x25
ARM GAS  /tmp/ccqyZH0w.s 			page 247


 14023 118c 9F       		.byte	0x9f
 14024 118d 28010000 		.4byte	.LVL378
 14025 1191 2E010000 		.4byte	.LVL379
 14026 1195 0600     		.2byte	0x6
 14027 1197 72       		.byte	0x72
 14028 1198 B401     		.sleb128 180
 14029 119a 36       		.byte	0x36
 14030 119b 25       		.byte	0x25
 14031 119c 9F       		.byte	0x9f
 14032 119d 00000000 		.4byte	0
 14033 11a1 00000000 		.4byte	0
 14034              	.LVUS166:
 14035 11a5 06       		.uleb128 .LVU1186
 14036 11a6 01       		.uleb128 .LVU1190
 14037 11a7 01       		.uleb128 .LVU1190
 14038 11a8 02       		.uleb128 .LVU1191
 14039 11a9 04       		.uleb128 .LVU1200
 14040 11aa 01       		.uleb128 .LVU1204
 14041 11ab 01       		.uleb128 .LVU1204
 14042 11ac 02       		.uleb128 .LVU1205
 14043              	.LLST166:
 14044 11ad 1A010000 		.4byte	.LVL376
 14045 11b1 1C010000 		.4byte	.LVL377
 14046 11b5 0200     		.2byte	0x2
 14047 11b7 31       		.byte	0x31
 14048 11b8 9F       		.byte	0x9f
 14049 11b9 1C010000 		.4byte	.LVL377
 14050 11bd 1C010000 		.4byte	.LVL377
 14051 11c1 0200     		.2byte	0x2
 14052 11c3 30       		.byte	0x30
 14053 11c4 9F       		.byte	0x9f
 14054 11c5 28010000 		.4byte	.LVL378
 14055 11c9 2E010000 		.4byte	.LVL379
 14056 11cd 0200     		.2byte	0x2
 14057 11cf 31       		.byte	0x31
 14058 11d0 9F       		.byte	0x9f
 14059 11d1 2E010000 		.4byte	.LVL379
 14060 11d5 2E010000 		.4byte	.LVL379
 14061 11d9 0200     		.2byte	0x2
 14062 11db 30       		.byte	0x30
 14063 11dc 9F       		.byte	0x9f
 14064 11dd 00000000 		.4byte	0
 14065 11e1 00000000 		.4byte	0
 14066              	.LVUS167:
 14067 11e5 02       		.uleb128 .LVU1258
 14068 11e6 01       		.uleb128 .LVU1274
 14069              	.LLST167:
 14070 11e7 B4010000 		.4byte	.LVL390
 14071 11eb CA010000 		.4byte	.LVL394
 14072 11ef 0100     		.2byte	0x1
 14073 11f1 54       		.byte	0x54
 14074 11f2 00000000 		.4byte	0
 14075 11f6 00000000 		.4byte	0
 14076              	.LVUS168:
 14077 11fa 02       		.uleb128 .LVU1258
 14078 11fb 01       		.uleb128 .LVU1274
 14079              	.LLST168:
ARM GAS  /tmp/ccqyZH0w.s 			page 248


 14080 11fc B4010000 		.4byte	.LVL390
 14081 1200 CA010000 		.4byte	.LVL394
 14082 1204 0200     		.2byte	0x2
 14083 1206 36       		.byte	0x36
 14084 1207 9F       		.byte	0x9f
 14085 1208 00000000 		.4byte	0
 14086 120c 00000000 		.4byte	0
 14087              	.LVUS169:
 14088 1210 04       		.uleb128 .LVU1260
 14089 1211 01       		.uleb128 .LVU1274
 14090              	.LLST169:
 14091 1212 B4010000 		.4byte	.LVL390
 14092 1216 CA010000 		.4byte	.LVL394
 14093 121a 0200     		.2byte	0x2
 14094 121c 30       		.byte	0x30
 14095 121d 9F       		.byte	0x9f
 14096 121e 00000000 		.4byte	0
 14097 1222 00000000 		.4byte	0
 14098              	.LVUS170:
 14099 1226 05       		.uleb128 .LVU1261
 14100 1227 00       		.uleb128 .LVU1298
 14101 1228 00       		.uleb128 .LVU1308
 14102 1229 00       		.uleb128 .LVU1337
 14103              	.LLST170:
 14104 122a B4010000 		.4byte	.LVL390
 14105 122e 02020000 		.4byte	.LVL399
 14106 1232 0200     		.2byte	0x2
 14107 1234 38       		.byte	0x38
 14108 1235 9F       		.byte	0x9f
 14109 1236 22020000 		.4byte	.LVL400
 14110 123a 5A020000 		.4byte	.LVL412
 14111 123e 0200     		.2byte	0x2
 14112 1240 38       		.byte	0x38
 14113 1241 9F       		.byte	0x9f
 14114 1242 00000000 		.4byte	0
 14115 1246 00000000 		.4byte	0
 14116              	.LVUS171:
 14117 124a 00       		.uleb128 .LVU1265
 14118 124b 01       		.uleb128 .LVU1274
 14119              	.LLST171:
 14120 124c B8010000 		.4byte	.LVL391
 14121 1250 CA010000 		.4byte	.LVL394
 14122 1254 0100     		.2byte	0x1
 14123 1256 51       		.byte	0x51
 14124 1257 00000000 		.4byte	0
 14125 125b 00000000 		.4byte	0
 14126              	.LVUS172:
 14127 125f 00       		.uleb128 .LVU1267
 14128 1260 00       		.uleb128 .LVU1272
 14129 1261 00       		.uleb128 .LVU1272
 14130 1262 01       		.uleb128 .LVU1274
 14131              	.LLST172:
 14132 1263 BC010000 		.4byte	.LVL392
 14133 1267 C6010000 		.4byte	.LVL393
 14134 126b 0100     		.2byte	0x1
 14135 126d 53       		.byte	0x53
 14136 126e C6010000 		.4byte	.LVL393
ARM GAS  /tmp/ccqyZH0w.s 			page 249


 14137 1272 CA010000 		.4byte	.LVL394
 14138 1276 0500     		.2byte	0x5
 14139 1278 74       		.byte	0x74
 14140 1279 00       		.sleb128 0
 14141 127a 37       		.byte	0x37
 14142 127b 1A       		.byte	0x1a
 14143 127c 9F       		.byte	0x9f
 14144 127d 00000000 		.4byte	0
 14145 1281 00000000 		.4byte	0
 14146              	.LVUS173:
 14147 1285 01       		.uleb128 .LVU1241
 14148 1286 07       		.uleb128 .LVU1247
 14149              	.LLST173:
 14150 1287 98010000 		.4byte	.LVL389
 14151 128b 98010000 		.4byte	.LVL389
 14152 128f 0400     		.2byte	0x4
 14153 1291 74       		.byte	0x74
 14154 1292 B401     		.sleb128 180
 14155 1294 9F       		.byte	0x9f
 14156 1295 00000000 		.4byte	0
 14157 1299 00000000 		.4byte	0
 14158              	.LVUS174:
 14159 129d 05       		.uleb128 .LVU1245
 14160 129e 07       		.uleb128 .LVU1247
 14161              	.LLST174:
 14162 129f 98010000 		.4byte	.LVL389
 14163 12a3 98010000 		.4byte	.LVL389
 14164 12a7 0600     		.2byte	0x6
 14165 12a9 74       		.byte	0x74
 14166 12aa B401     		.sleb128 180
 14167 12ac 36       		.byte	0x36
 14168 12ad 25       		.byte	0x25
 14169 12ae 9F       		.byte	0x9f
 14170 12af 00000000 		.4byte	0
 14171 12b3 00000000 		.4byte	0
 14172              	.LVUS175:
 14173 12b7 04       		.uleb128 .LVU1244
 14174 12b8 06       		.uleb128 .LVU1246
 14175 12b9 06       		.uleb128 .LVU1246
 14176 12ba 07       		.uleb128 .LVU1247
 14177              	.LLST175:
 14178 12bb 98010000 		.4byte	.LVL389
 14179 12bf 98010000 		.4byte	.LVL389
 14180 12c3 0200     		.2byte	0x2
 14181 12c5 31       		.byte	0x31
 14182 12c6 9F       		.byte	0x9f
 14183 12c7 98010000 		.4byte	.LVL389
 14184 12cb 98010000 		.4byte	.LVL389
 14185 12cf 1100     		.2byte	0x11
 14186 12d1 74       		.byte	0x74
 14187 12d2 B401     		.sleb128 180
 14188 12d4 36       		.byte	0x36
 14189 12d5 25       		.byte	0x25
 14190 12d6 32       		.byte	0x32
 14191 12d7 24       		.byte	0x24
 14192 12d8 03       		.byte	0x3
 14193 12d9 00000000 		.4byte	refArrayQuadrants
ARM GAS  /tmp/ccqyZH0w.s 			page 250


 14194 12dd 22       		.byte	0x22
 14195 12de 06       		.byte	0x6
 14196 12df 30       		.byte	0x30
 14197 12e0 2E       		.byte	0x2e
 14198 12e1 9F       		.byte	0x9f
 14199 12e2 00000000 		.4byte	0
 14200 12e6 00000000 		.4byte	0
 14201              	.LVUS176:
 14202 12ea 05       		.uleb128 .LVU1278
 14203 12eb 01       		.uleb128 .LVU1282
 14204              	.LLST176:
 14205 12ec CA010000 		.4byte	.LVL394
 14206 12f0 D6010000 		.4byte	.LVL395
 14207 12f4 0100     		.2byte	0x1
 14208 12f6 57       		.byte	0x57
 14209 12f7 00000000 		.4byte	0
 14210 12fb 00000000 		.4byte	0
 14211              	.LVUS177:
 14212 12ff 05       		.uleb128 .LVU1278
 14213 1300 01       		.uleb128 .LVU1282
 14214              	.LLST177:
 14215 1301 CA010000 		.4byte	.LVL394
 14216 1305 D6010000 		.4byte	.LVL395
 14217 1309 0100     		.2byte	0x1
 14218 130b 56       		.byte	0x56
 14219 130c 00000000 		.4byte	0
 14220 1310 00000000 		.4byte	0
 14221              	.LVUS178:
 14222 1314 00       		.uleb128 .LVU1281
 14223 1315 01       		.uleb128 .LVU1282
 14224              	.LLST178:
 14225 1316 D6010000 		.4byte	.LVL395
 14226 131a D6010000 		.4byte	.LVL395
 14227 131e 0100     		.2byte	0x1
 14228 1320 50       		.byte	0x50
 14229 1321 00000000 		.4byte	0
 14230 1325 00000000 		.4byte	0
 14231              	.LVUS179:
 14232 1329 01       		.uleb128 .LVU1318
 14233 132a 00       		.uleb128 .LVU1322
 14234 132b 00       		.uleb128 .LVU1322
 14235 132c 00       		.uleb128 .LVU1324
 14236 132d 00       		.uleb128 .LVU1324
 14237 132e 01       		.uleb128 .LVU1328
 14238              	.LLST179:
 14239 132f 34020000 		.4byte	.LVL404
 14240 1333 38020000 		.4byte	.LVL406
 14241 1337 0300     		.2byte	0x3
 14242 1339 91       		.byte	0x91
 14243 133a 4C       		.sleb128 -52
 14244 133b 9F       		.byte	0x9f
 14245 133c 38020000 		.4byte	.LVL406
 14246 1340 3F020000 		.4byte	.LVL408-1
 14247 1344 0100     		.2byte	0x1
 14248 1346 52       		.byte	0x52
 14249 1347 3F020000 		.4byte	.LVL408-1
 14250 134b 46020000 		.4byte	.LVL409
ARM GAS  /tmp/ccqyZH0w.s 			page 251


 14251 134f 0300     		.2byte	0x3
 14252 1351 91       		.byte	0x91
 14253 1352 4C       		.sleb128 -52
 14254 1353 9F       		.byte	0x9f
 14255 1354 00000000 		.4byte	0
 14256 1358 00000000 		.4byte	0
 14257              	.LVUS180:
 14258 135c 01       		.uleb128 .LVU1318
 14259 135d 01       		.uleb128 .LVU1328
 14260              	.LLST180:
 14261 135e 34020000 		.4byte	.LVL404
 14262 1362 46020000 		.4byte	.LVL409
 14263 1366 0100     		.2byte	0x1
 14264 1368 56       		.byte	0x56
 14265 1369 00000000 		.4byte	0
 14266 136d 00000000 		.4byte	0
 14267              	.LVUS181:
 14268 1371 00       		.uleb128 .LVU1327
 14269 1372 01       		.uleb128 .LVU1328
 14270              	.LLST181:
 14271 1373 46020000 		.4byte	.LVL409
 14272 1377 46020000 		.4byte	.LVL409
 14273 137b 0100     		.2byte	0x1
 14274 137d 53       		.byte	0x53
 14275 137e 00000000 		.4byte	0
 14276 1382 00000000 		.4byte	0
 14277              	.LVUS99:
 14278 1386 00       		.uleb128 0
 14279 1387 00       		.uleb128 .LVU613
 14280 1388 00       		.uleb128 .LVU613
 14281 1389 00       		.uleb128 0
 14282              	.LLST99:
 14283 138a 00000000 		.4byte	.LVL191
 14284 138e 1D000000 		.4byte	.LVL194-1
 14285 1392 0100     		.2byte	0x1
 14286 1394 50       		.byte	0x50
 14287 1395 1D000000 		.4byte	.LVL194-1
 14288 1399 80000000 		.4byte	.LFE15
 14289 139d 0100     		.2byte	0x1
 14290 139f 54       		.byte	0x54
 14291 13a0 00000000 		.4byte	0
 14292 13a4 00000000 		.4byte	0
 14293              	.LVUS100:
 14294 13a8 00       		.uleb128 0
 14295 13a9 00       		.uleb128 .LVU605
 14296 13aa 00       		.uleb128 .LVU605
 14297 13ab 00       		.uleb128 0
 14298              	.LLST100:
 14299 13ac 00000000 		.4byte	.LVL191
 14300 13b0 10000000 		.4byte	.LVL192
 14301 13b4 0100     		.2byte	0x1
 14302 13b6 51       		.byte	0x51
 14303 13b7 10000000 		.4byte	.LVL192
 14304 13bb 80000000 		.4byte	.LFE15
 14305 13bf 0100     		.2byte	0x1
 14306 13c1 56       		.byte	0x56
 14307 13c2 00000000 		.4byte	0
ARM GAS  /tmp/ccqyZH0w.s 			page 252


 14308 13c6 00000000 		.4byte	0
 14309              	.LVUS101:
 14310 13ca 01       		.uleb128 .LVU607
 14311 13cb 00       		.uleb128 .LVU613
 14312 13cc 00       		.uleb128 .LVU613
 14313 13cd 00       		.uleb128 .LVU620
 14314 13ce 00       		.uleb128 .LVU621
 14315 13cf 00       		.uleb128 .LVU625
 14316 13d0 00       		.uleb128 .LVU626
 14317 13d1 00       		.uleb128 .LVU630
 14318 13d2 00       		.uleb128 .LVU631
 14319 13d3 00       		.uleb128 .LVU635
 14320 13d4 00       		.uleb128 .LVU636
 14321 13d5 00       		.uleb128 .LVU640
 14322 13d6 00       		.uleb128 .LVU641
 14323 13d7 00       		.uleb128 .LVU645
 14324              	.LLST101:
 14325 13d8 1A000000 		.4byte	.LVL193
 14326 13dc 1E000000 		.4byte	.LVL194
 14327 13e0 0200     		.2byte	0x2
 14328 13e2 30       		.byte	0x30
 14329 13e3 9F       		.byte	0x9f
 14330 13e4 1E000000 		.4byte	.LVL194
 14331 13e8 32000000 		.4byte	.LVL196
 14332 13ec 0100     		.2byte	0x1
 14333 13ee 50       		.byte	0x50
 14334 13ef 36000000 		.4byte	.LVL197
 14335 13f3 40000000 		.4byte	.LVL198
 14336 13f7 0100     		.2byte	0x1
 14337 13f9 50       		.byte	0x50
 14338 13fa 44000000 		.4byte	.LVL199
 14339 13fe 4E000000 		.4byte	.LVL200
 14340 1402 0100     		.2byte	0x1
 14341 1404 50       		.byte	0x50
 14342 1405 52000000 		.4byte	.LVL201
 14343 1409 5C000000 		.4byte	.LVL202
 14344 140d 0100     		.2byte	0x1
 14345 140f 50       		.byte	0x50
 14346 1410 60000000 		.4byte	.LVL203
 14347 1414 6A000000 		.4byte	.LVL204
 14348 1418 0100     		.2byte	0x1
 14349 141a 50       		.byte	0x50
 14350 141b 6E000000 		.4byte	.LVL205
 14351 141f 7B000000 		.4byte	.LVL206-1
 14352 1423 0100     		.2byte	0x1
 14353 1425 50       		.byte	0x50
 14354 1426 00000000 		.4byte	0
 14355 142a 00000000 		.4byte	0
 14356              	.LVUS102:
 14357 142e 03       		.uleb128 .LVU609
 14358 142f 04       		.uleb128 .LVU610
 14359 1430 04       		.uleb128 .LVU610
 14360 1431 00       		.uleb128 0
 14361              	.LLST102:
 14362 1432 1A000000 		.4byte	.LVL193
 14363 1436 1A000000 		.4byte	.LVL193
 14364 143a 0200     		.2byte	0x2
ARM GAS  /tmp/ccqyZH0w.s 			page 253


 14365 143c 30       		.byte	0x30
 14366 143d 9F       		.byte	0x9f
 14367 143e 1A000000 		.4byte	.LVL193
 14368 1442 80000000 		.4byte	.LFE15
 14369 1446 0100     		.2byte	0x1
 14370 1448 55       		.byte	0x55
 14371 1449 00000000 		.4byte	0
 14372 144d 00000000 		.4byte	0
 14373              	.LVUS70:
 14374 1451 00       		.uleb128 0
 14375 1452 00       		.uleb128 .LVU514
 14376 1453 00       		.uleb128 .LVU514
 14377 1454 00       		.uleb128 0
 14378              	.LLST70:
 14379 1455 00000000 		.4byte	.LVL161
 14380 1459 30000000 		.4byte	.LVL165
 14381 145d 0100     		.2byte	0x1
 14382 145f 50       		.byte	0x50
 14383 1460 30000000 		.4byte	.LVL165
 14384 1464 E8000000 		.4byte	.LFE14
 14385 1468 0200     		.2byte	0x2
 14386 146a 91       		.byte	0x91
 14387 146b 44       		.sleb128 -60
 14388 146c 00000000 		.4byte	0
 14389 1470 00000000 		.4byte	0
 14390              	.LVUS71:
 14391 1474 00       		.uleb128 0
 14392 1475 00       		.uleb128 .LVU516
 14393 1476 00       		.uleb128 .LVU516
 14394 1477 00       		.uleb128 0
 14395              	.LLST71:
 14396 1478 00000000 		.4byte	.LVL161
 14397 147c 34000000 		.4byte	.LVL166
 14398 1480 0100     		.2byte	0x1
 14399 1482 51       		.byte	0x51
 14400 1483 34000000 		.4byte	.LVL166
 14401 1487 E8000000 		.4byte	.LFE14
 14402 148b 0400     		.2byte	0x4
 14403 148d F3       		.byte	0xf3
 14404 148e 01       		.uleb128 0x1
 14405 148f 51       		.byte	0x51
 14406 1490 9F       		.byte	0x9f
 14407 1491 00000000 		.4byte	0
 14408 1495 00000000 		.4byte	0
 14409              	.LVUS72:
 14410 1499 00       		.uleb128 0
 14411 149a 00       		.uleb128 .LVU516
 14412 149b 00       		.uleb128 .LVU516
 14413 149c 00       		.uleb128 0
 14414              	.LLST72:
 14415 149d 00000000 		.4byte	.LVL161
 14416 14a1 34000000 		.4byte	.LVL166
 14417 14a5 0100     		.2byte	0x1
 14418 14a7 52       		.byte	0x52
 14419 14a8 34000000 		.4byte	.LVL166
 14420 14ac E8000000 		.4byte	.LFE14
 14421 14b0 0400     		.2byte	0x4
ARM GAS  /tmp/ccqyZH0w.s 			page 254


 14422 14b2 F3       		.byte	0xf3
 14423 14b3 01       		.uleb128 0x1
 14424 14b4 52       		.byte	0x52
 14425 14b5 9F       		.byte	0x9f
 14426 14b6 00000000 		.4byte	0
 14427 14ba 00000000 		.4byte	0
 14428              	.LVUS73:
 14429 14be 00       		.uleb128 0
 14430 14bf 00       		.uleb128 .LVU499
 14431 14c0 00       		.uleb128 .LVU499
 14432 14c1 02       		.uleb128 .LVU563
 14433 14c2 02       		.uleb128 .LVU563
 14434 14c3 00       		.uleb128 .LVU565
 14435 14c4 00       		.uleb128 .LVU565
 14436 14c5 00       		.uleb128 .LVU589
 14437 14c6 00       		.uleb128 .LVU589
 14438 14c7 00       		.uleb128 0
 14439              	.LLST73:
 14440 14c8 00000000 		.4byte	.LVL161
 14441 14cc 18000000 		.4byte	.LVL162
 14442 14d0 0100     		.2byte	0x1
 14443 14d2 53       		.byte	0x53
 14444 14d3 18000000 		.4byte	.LVL162
 14445 14d7 8A000000 		.4byte	.LVL177
 14446 14db 0100     		.2byte	0x1
 14447 14dd 54       		.byte	0x54
 14448 14de 8A000000 		.4byte	.LVL177
 14449 14e2 9A000000 		.4byte	.LVL178
 14450 14e6 0400     		.2byte	0x4
 14451 14e8 F3       		.byte	0xf3
 14452 14e9 01       		.uleb128 0x1
 14453 14ea 53       		.byte	0x53
 14454 14eb 9F       		.byte	0x9f
 14455 14ec 9A000000 		.4byte	.LVL178
 14456 14f0 C4000000 		.4byte	.LVL185
 14457 14f4 0100     		.2byte	0x1
 14458 14f6 54       		.byte	0x54
 14459 14f7 C4000000 		.4byte	.LVL185
 14460 14fb E8000000 		.4byte	.LFE14
 14461 14ff 0400     		.2byte	0x4
 14462 1501 F3       		.byte	0xf3
 14463 1502 01       		.uleb128 0x1
 14464 1503 53       		.byte	0x53
 14465 1504 9F       		.byte	0x9f
 14466 1505 00000000 		.4byte	0
 14467 1509 00000000 		.4byte	0
 14468              	.LVUS74:
 14469 150d 00       		.uleb128 0
 14470 150e 00       		.uleb128 .LVU565
 14471 150f 00       		.uleb128 .LVU565
 14472 1510 00       		.uleb128 0
 14473              	.LLST74:
 14474 1511 00000000 		.4byte	.LVL161
 14475 1515 9A000000 		.4byte	.LVL178
 14476 1519 0200     		.2byte	0x2
 14477 151b 91       		.byte	0x91
 14478 151c 00       		.sleb128 0
ARM GAS  /tmp/ccqyZH0w.s 			page 255


 14479 151d 9A000000 		.4byte	.LVL178
 14480 1521 E8000000 		.4byte	.LFE14
 14481 1525 0200     		.2byte	0x2
 14482 1527 91       		.byte	0x91
 14483 1528 00       		.sleb128 0
 14484 1529 00000000 		.4byte	0
 14485 152d 00000000 		.4byte	0
 14486              	.LVUS75:
 14487 1531 00       		.uleb128 0
 14488 1532 00       		.uleb128 .LVU565
 14489 1533 00       		.uleb128 .LVU565
 14490 1534 00       		.uleb128 0
 14491              	.LLST75:
 14492 1535 00000000 		.4byte	.LVL161
 14493 1539 9A000000 		.4byte	.LVL178
 14494 153d 0200     		.2byte	0x2
 14495 153f 91       		.byte	0x91
 14496 1540 04       		.sleb128 4
 14497 1541 9A000000 		.4byte	.LVL178
 14498 1545 E8000000 		.4byte	.LFE14
 14499 1549 0200     		.2byte	0x2
 14500 154b 91       		.byte	0x91
 14501 154c 04       		.sleb128 4
 14502 154d 00000000 		.4byte	0
 14503 1551 00000000 		.4byte	0
 14504              	.LVUS76:
 14505 1555 00       		.uleb128 0
 14506 1556 00       		.uleb128 .LVU565
 14507 1557 00       		.uleb128 .LVU565
 14508 1558 00       		.uleb128 0
 14509              	.LLST76:
 14510 1559 00000000 		.4byte	.LVL161
 14511 155d 9A000000 		.4byte	.LVL178
 14512 1561 0200     		.2byte	0x2
 14513 1563 91       		.byte	0x91
 14514 1564 08       		.sleb128 8
 14515 1565 9A000000 		.4byte	.LVL178
 14516 1569 E8000000 		.4byte	.LFE14
 14517 156d 0200     		.2byte	0x2
 14518 156f 91       		.byte	0x91
 14519 1570 08       		.sleb128 8
 14520 1571 00000000 		.4byte	0
 14521 1575 00000000 		.4byte	0
 14522              	.LVUS77:
 14523 1579 00       		.uleb128 0
 14524 157a 00       		.uleb128 .LVU565
 14525 157b 00       		.uleb128 .LVU565
 14526 157c 00       		.uleb128 0
 14527              	.LLST77:
 14528 157d 00000000 		.4byte	.LVL161
 14529 1581 9A000000 		.4byte	.LVL178
 14530 1585 0200     		.2byte	0x2
 14531 1587 91       		.byte	0x91
 14532 1588 0C       		.sleb128 12
 14533 1589 9A000000 		.4byte	.LVL178
 14534 158d E8000000 		.4byte	.LFE14
 14535 1591 0200     		.2byte	0x2
ARM GAS  /tmp/ccqyZH0w.s 			page 256


 14536 1593 91       		.byte	0x91
 14537 1594 0C       		.sleb128 12
 14538 1595 00000000 		.4byte	0
 14539 1599 00000000 		.4byte	0
 14540              	.LVUS78:
 14541 159d 00       		.uleb128 0
 14542 159e 00       		.uleb128 .LVU565
 14543 159f 00       		.uleb128 .LVU565
 14544 15a0 00       		.uleb128 0
 14545              	.LLST78:
 14546 15a1 00000000 		.4byte	.LVL161
 14547 15a5 9A000000 		.4byte	.LVL178
 14548 15a9 0200     		.2byte	0x2
 14549 15ab 91       		.byte	0x91
 14550 15ac 10       		.sleb128 16
 14551 15ad 9A000000 		.4byte	.LVL178
 14552 15b1 E8000000 		.4byte	.LFE14
 14553 15b5 0200     		.2byte	0x2
 14554 15b7 91       		.byte	0x91
 14555 15b8 10       		.sleb128 16
 14556 15b9 00000000 		.4byte	0
 14557 15bd 00000000 		.4byte	0
 14558              	.LVUS79:
 14559 15c1 01       		.uleb128 .LVU501
 14560 15c2 00       		.uleb128 .LVU559
 14561 15c3 00       		.uleb128 .LVU559
 14562 15c4 02       		.uleb128 .LVU563
 14563 15c5 02       		.uleb128 .LVU563
 14564 15c6 00       		.uleb128 .LVU565
 14565 15c7 00       		.uleb128 .LVU565
 14566 15c8 01       		.uleb128 .LVU575
 14567 15c9 01       		.uleb128 .LVU575
 14568 15ca 00       		.uleb128 .LVU582
 14569 15cb 01       		.uleb128 .LVU585
 14570 15cc 00       		.uleb128 .LVU596
 14571 15cd 00       		.uleb128 .LVU597
 14572 15ce 00       		.uleb128 .LVU598
 14573              	.LLST79:
 14574 15cf 1A000000 		.4byte	.LVL163
 14575 15d3 82000000 		.4byte	.LVL176
 14576 15d7 0200     		.2byte	0x2
 14577 15d9 30       		.byte	0x30
 14578 15da 9F       		.byte	0x9f
 14579 15db 82000000 		.4byte	.LVL176
 14580 15df 8A000000 		.4byte	.LVL177
 14581 15e3 0300     		.2byte	0x3
 14582 15e5 09       		.byte	0x9
 14583 15e6 CE       		.byte	0xce
 14584 15e7 9F       		.byte	0x9f
 14585 15e8 8A000000 		.4byte	.LVL177
 14586 15ec 9A000000 		.4byte	.LVL178
 14587 15f0 0100     		.2byte	0x1
 14588 15f2 50       		.byte	0x50
 14589 15f3 9A000000 		.4byte	.LVL178
 14590 15f7 AA000000 		.4byte	.LVL180
 14591 15fb 0200     		.2byte	0x2
 14592 15fd 30       		.byte	0x30
ARM GAS  /tmp/ccqyZH0w.s 			page 257


 14593 15fe 9F       		.byte	0x9f
 14594 15ff AA000000 		.4byte	.LVL180
 14595 1603 B0000000 		.4byte	.LVL182
 14596 1607 0100     		.2byte	0x1
 14597 1609 50       		.byte	0x50
 14598 160a BA000000 		.4byte	.LVL184
 14599 160e D8000000 		.4byte	.LVL188
 14600 1612 0100     		.2byte	0x1
 14601 1614 50       		.byte	0x50
 14602 1615 DA000000 		.4byte	.LVL189
 14603 1619 DD000000 		.4byte	.LVL190-1
 14604 161d 0100     		.2byte	0x1
 14605 161f 50       		.byte	0x50
 14606 1620 00000000 		.4byte	0
 14607 1624 00000000 		.4byte	0
 14608              	.LVUS80:
 14609 1628 04       		.uleb128 .LVU510
 14610 1629 00       		.uleb128 .LVU516
 14611 162a 00       		.uleb128 .LVU516
 14612 162b 00       		.uleb128 .LVU550
 14613 162c 00       		.uleb128 .LVU550
 14614 162d 01       		.uleb128 .LVU553
 14615 162e 01       		.uleb128 .LVU553
 14616 162f 02       		.uleb128 .LVU563
 14617              	.LLST80:
 14618 1630 20000000 		.4byte	.LVL164
 14619 1634 34000000 		.4byte	.LVL166
 14620 1638 0200     		.2byte	0x2
 14621 163a 30       		.byte	0x30
 14622 163b 9F       		.byte	0x9f
 14623 163c 34000000 		.4byte	.LVL166
 14624 1640 68000000 		.4byte	.LVL172
 14625 1644 0100     		.2byte	0x1
 14626 1646 55       		.byte	0x55
 14627 1647 68000000 		.4byte	.LVL172
 14628 164b 6E000000 		.4byte	.LVL173
 14629 164f 0300     		.2byte	0x3
 14630 1651 75       		.byte	0x75
 14631 1652 7F       		.sleb128 -1
 14632 1653 9F       		.byte	0x9f
 14633 1654 6E000000 		.4byte	.LVL173
 14634 1658 8A000000 		.4byte	.LVL177
 14635 165c 0100     		.2byte	0x1
 14636 165e 55       		.byte	0x55
 14637 165f 00000000 		.4byte	0
 14638 1663 00000000 		.4byte	0
 14639              	.LVUS81:
 14640 1667 03       		.uleb128 .LVU587
 14641 1668 00       		.uleb128 .LVU589
 14642 1669 00       		.uleb128 .LVU589
 14643 166a 01       		.uleb128 .LVU590
 14644 166b 01       		.uleb128 .LVU590
 14645 166c 00       		.uleb128 .LVU593
 14646 166d 00       		.uleb128 .LVU593
 14647 166e 00       		.uleb128 .LVU597
 14648              	.LLST81:
 14649 166f BA000000 		.4byte	.LVL184
ARM GAS  /tmp/ccqyZH0w.s 			page 258


 14650 1673 C4000000 		.4byte	.LVL185
 14651 1677 0200     		.2byte	0x2
 14652 1679 30       		.byte	0x30
 14653 167a 9F       		.byte	0x9f
 14654 167b C4000000 		.4byte	.LVL185
 14655 167f C4000000 		.4byte	.LVL185
 14656 1683 0800     		.2byte	0x8
 14657 1685 F3       		.byte	0xf3
 14658 1686 01       		.uleb128 0x1
 14659 1687 53       		.byte	0x53
 14660 1688 20       		.byte	0x20
 14661 1689 74       		.byte	0x74
 14662 168a 00       		.sleb128 0
 14663 168b 22       		.byte	0x22
 14664 168c 9F       		.byte	0x9f
 14665 168d C4000000 		.4byte	.LVL185
 14666 1691 CC000000 		.4byte	.LVL187
 14667 1695 0700     		.2byte	0x7
 14668 1697 74       		.byte	0x74
 14669 1698 00       		.sleb128 0
 14670 1699 F3       		.byte	0xf3
 14671 169a 01       		.uleb128 0x1
 14672 169b 53       		.byte	0x53
 14673 169c 1C       		.byte	0x1c
 14674 169d 9F       		.byte	0x9f
 14675 169e CC000000 		.4byte	.LVL187
 14676 16a2 DA000000 		.4byte	.LVL189
 14677 16a6 0800     		.2byte	0x8
 14678 16a8 F3       		.byte	0xf3
 14679 16a9 01       		.uleb128 0x1
 14680 16aa 53       		.byte	0x53
 14681 16ab 20       		.byte	0x20
 14682 16ac 74       		.byte	0x74
 14683 16ad 00       		.sleb128 0
 14684 16ae 22       		.byte	0x22
 14685 16af 9F       		.byte	0x9f
 14686 16b0 00000000 		.4byte	0
 14687 16b4 00000000 		.4byte	0
 14688              	.LVUS82:
 14689 16b8 03       		.uleb128 .LVU509
 14690 16b9 01       		.uleb128 .LVU529
 14691 16ba 01       		.uleb128 .LVU529
 14692 16bb 00       		.uleb128 .LVU552
 14693 16bc 00       		.uleb128 .LVU552
 14694 16bd 00       		.uleb128 0
 14695              	.LLST82:
 14696 16be 20000000 		.4byte	.LVL164
 14697 16c2 48000000 		.4byte	.LVL167
 14698 16c6 0100     		.2byte	0x1
 14699 16c8 57       		.byte	0x57
 14700 16c9 48000000 		.4byte	.LVL167
 14701 16cd 6E000000 		.4byte	.LVL173
 14702 16d1 0100     		.2byte	0x1
 14703 16d3 53       		.byte	0x53
 14704 16d4 6E000000 		.4byte	.LVL173
 14705 16d8 E8000000 		.4byte	.LFE14
 14706 16dc 0100     		.2byte	0x1
ARM GAS  /tmp/ccqyZH0w.s 			page 259


 14707 16de 57       		.byte	0x57
 14708 16df 00000000 		.4byte	0
 14709 16e3 00000000 		.4byte	0
 14710              	.LVUS83:
 14711 16e7 01       		.uleb128 .LVU517
 14712 16e8 07       		.uleb128 .LVU523
 14713              	.LLST83:
 14714 16e9 34000000 		.4byte	.LVL166
 14715 16ed 34000000 		.4byte	.LVL166
 14716 16f1 0600     		.2byte	0x6
 14717 16f3 73       		.byte	0x73
 14718 16f4 00       		.sleb128 0
 14719 16f5 7A       		.byte	0x7a
 14720 16f6 00       		.sleb128 0
 14721 16f7 22       		.byte	0x22
 14722 16f8 9F       		.byte	0x9f
 14723 16f9 00000000 		.4byte	0
 14724 16fd 00000000 		.4byte	0
 14725              	.LVUS84:
 14726 1701 05       		.uleb128 .LVU521
 14727 1702 07       		.uleb128 .LVU523
 14728              	.LLST84:
 14729 1703 34000000 		.4byte	.LVL166
 14730 1707 34000000 		.4byte	.LVL166
 14731 170b 0800     		.2byte	0x8
 14732 170d 73       		.byte	0x73
 14733 170e 00       		.sleb128 0
 14734 170f 7A       		.byte	0x7a
 14735 1710 00       		.sleb128 0
 14736 1711 22       		.byte	0x22
 14737 1712 36       		.byte	0x36
 14738 1713 25       		.byte	0x25
 14739 1714 9F       		.byte	0x9f
 14740 1715 00000000 		.4byte	0
 14741 1719 00000000 		.4byte	0
 14742              	.LVUS85:
 14743 171d 04       		.uleb128 .LVU520
 14744 171e 06       		.uleb128 .LVU522
 14745 171f 06       		.uleb128 .LVU522
 14746 1720 07       		.uleb128 .LVU523
 14747              	.LLST85:
 14748 1721 34000000 		.4byte	.LVL166
 14749 1725 34000000 		.4byte	.LVL166
 14750 1729 0200     		.2byte	0x2
 14751 172b 31       		.byte	0x31
 14752 172c 9F       		.byte	0x9f
 14753 172d 34000000 		.4byte	.LVL166
 14754 1731 34000000 		.4byte	.LVL166
 14755 1735 1300     		.2byte	0x13
 14756 1737 73       		.byte	0x73
 14757 1738 00       		.sleb128 0
 14758 1739 7A       		.byte	0x7a
 14759 173a 00       		.sleb128 0
 14760 173b 22       		.byte	0x22
 14761 173c 36       		.byte	0x36
 14762 173d 25       		.byte	0x25
 14763 173e 32       		.byte	0x32
ARM GAS  /tmp/ccqyZH0w.s 			page 260


 14764 173f 24       		.byte	0x24
 14765 1740 03       		.byte	0x3
 14766 1741 00000000 		.4byte	refArrayQuadrants
 14767 1745 22       		.byte	0x22
 14768 1746 06       		.byte	0x6
 14769 1747 30       		.byte	0x30
 14770 1748 2E       		.byte	0x2e
 14771 1749 9F       		.byte	0x9f
 14772 174a 00000000 		.4byte	0
 14773 174e 00000000 		.4byte	0
 14774              	.LVUS86:
 14775 1752 02       		.uleb128 .LVU530
 14776 1753 01       		.uleb128 .LVU547
 14777              	.LLST86:
 14778 1754 48000000 		.4byte	.LVL167
 14779 1758 66000000 		.4byte	.LVL171
 14780 175c 0100     		.2byte	0x1
 14781 175e 53       		.byte	0x53
 14782 175f 00000000 		.4byte	0
 14783 1763 00000000 		.4byte	0
 14784              	.LVUS87:
 14785 1767 02       		.uleb128 .LVU530
 14786 1768 01       		.uleb128 .LVU547
 14787              	.LLST87:
 14788 1769 48000000 		.4byte	.LVL167
 14789 176d 66000000 		.4byte	.LVL171
 14790 1771 0100     		.2byte	0x1
 14791 1773 56       		.byte	0x56
 14792 1774 00000000 		.4byte	0
 14793 1778 00000000 		.4byte	0
 14794              	.LVUS88:
 14795 177c 02       		.uleb128 .LVU530
 14796 177d 01       		.uleb128 .LVU547
 14797              	.LLST88:
 14798 177e 48000000 		.4byte	.LVL167
 14799 1782 66000000 		.4byte	.LVL171
 14800 1786 0100     		.2byte	0x1
 14801 1788 54       		.byte	0x54
 14802 1789 00000000 		.4byte	0
 14803 178d 00000000 		.4byte	0
 14804              	.LVUS89:
 14805 1791 04       		.uleb128 .LVU532
 14806 1792 00       		.uleb128 .LVU546
 14807              	.LLST89:
 14808 1793 48000000 		.4byte	.LVL167
 14809 1797 66000000 		.4byte	.LVL171
 14810 179b 0200     		.2byte	0x2
 14811 179d 30       		.byte	0x30
 14812 179e 9F       		.byte	0x9f
 14813 179f 00000000 		.4byte	0
 14814 17a3 00000000 		.4byte	0
 14815              	.LVUS90:
 14816 17a7 05       		.uleb128 .LVU533
 14817 17a8 00       		.uleb128 .LVU555
 14818              	.LLST90:
 14819 17a9 48000000 		.4byte	.LVL167
 14820 17ad 70000000 		.4byte	.LVL174
ARM GAS  /tmp/ccqyZH0w.s 			page 261


 14821 17b1 0200     		.2byte	0x2
 14822 17b3 38       		.byte	0x38
 14823 17b4 9F       		.byte	0x9f
 14824 17b5 00000000 		.4byte	0
 14825 17b9 00000000 		.4byte	0
 14826              	.LVUS91:
 14827 17bd 00       		.uleb128 .LVU538
 14828 17be 01       		.uleb128 .LVU547
 14829              	.LLST91:
 14830 17bf 52000000 		.4byte	.LVL168
 14831 17c3 66000000 		.4byte	.LVL171
 14832 17c7 0100     		.2byte	0x1
 14833 17c9 57       		.byte	0x57
 14834 17ca 00000000 		.4byte	0
 14835 17ce 00000000 		.4byte	0
 14836              	.LVUS92:
 14837 17d2 00       		.uleb128 .LVU540
 14838 17d3 00       		.uleb128 .LVU545
 14839 17d4 00       		.uleb128 .LVU545
 14840 17d5 01       		.uleb128 .LVU547
 14841              	.LLST92:
 14842 17d6 56000000 		.4byte	.LVL169
 14843 17da 62000000 		.4byte	.LVL170
 14844 17de 0100     		.2byte	0x1
 14845 17e0 52       		.byte	0x52
 14846 17e1 62000000 		.4byte	.LVL170
 14847 17e5 66000000 		.4byte	.LVL171
 14848 17e9 0500     		.2byte	0x5
 14849 17eb 73       		.byte	0x73
 14850 17ec 00       		.sleb128 0
 14851 17ed 37       		.byte	0x37
 14852 17ee 1A       		.byte	0x1a
 14853 17ef 9F       		.byte	0x9f
 14854 17f0 00000000 		.4byte	0
 14855 17f4 00000000 		.4byte	0
 14856              	.LVUS93:
 14857 17f8 02       		.uleb128 .LVU571
 14858 17f9 01       		.uleb128 .LVU575
 14859              	.LLST93:
 14860 17fa A0000000 		.4byte	.LVL179
 14861 17fe AA000000 		.4byte	.LVL180
 14862 1802 0100     		.2byte	0x1
 14863 1804 54       		.byte	0x54
 14864 1805 00000000 		.4byte	0
 14865 1809 00000000 		.4byte	0
 14866              	.LVUS94:
 14867 180d 02       		.uleb128 .LVU571
 14868 180e 00       		.uleb128 .LVU574
 14869 180f 00       		.uleb128 .LVU574
 14870 1810 01       		.uleb128 .LVU575
 14871              	.LLST94:
 14872 1811 A0000000 		.4byte	.LVL179
 14873 1815 A9000000 		.4byte	.LVL180-1
 14874 1819 0100     		.2byte	0x1
 14875 181b 50       		.byte	0x50
 14876 181c A9000000 		.4byte	.LVL180-1
 14877 1820 AA000000 		.4byte	.LVL180
ARM GAS  /tmp/ccqyZH0w.s 			page 262


 14878 1824 0200     		.2byte	0x2
 14879 1826 91       		.byte	0x91
 14880 1827 44       		.sleb128 -60
 14881 1828 00000000 		.4byte	0
 14882 182c 00000000 		.4byte	0
 14883              	.LVUS95:
 14884 1830 00       		.uleb128 .LVU574
 14885 1831 01       		.uleb128 .LVU575
 14886              	.LLST95:
 14887 1832 AA000000 		.4byte	.LVL180
 14888 1836 AA000000 		.4byte	.LVL180
 14889 183a 0100     		.2byte	0x1
 14890 183c 50       		.byte	0x50
 14891 183d 00000000 		.4byte	0
 14892 1841 00000000 		.4byte	0
 14893              	.LVUS96:
 14894 1845 01       		.uleb128 .LVU579
 14895 1846 00       		.uleb128 .LVU583
 14896 1847 00       		.uleb128 .LVU583
 14897 1848 00       		.uleb128 .LVU584
 14898 1849 00       		.uleb128 .LVU584
 14899 184a 01       		.uleb128 .LVU585
 14900              	.LLST96:
 14901 184b AE000000 		.4byte	.LVL181
 14902 184f B2000000 		.4byte	.LVL183
 14903 1853 0300     		.2byte	0x3
 14904 1855 91       		.byte	0x91
 14905 1856 4C       		.sleb128 -52
 14906 1857 9F       		.byte	0x9f
 14907 1858 B2000000 		.4byte	.LVL183
 14908 185c B9000000 		.4byte	.LVL184-1
 14909 1860 0100     		.2byte	0x1
 14910 1862 52       		.byte	0x52
 14911 1863 B9000000 		.4byte	.LVL184-1
 14912 1867 BA000000 		.4byte	.LVL184
 14913 186b 0300     		.2byte	0x3
 14914 186d 91       		.byte	0x91
 14915 186e 4C       		.sleb128 -52
 14916 186f 9F       		.byte	0x9f
 14917 1870 00000000 		.4byte	0
 14918 1874 00000000 		.4byte	0
 14919              	.LVUS97:
 14920 1878 01       		.uleb128 .LVU579
 14921 1879 01       		.uleb128 .LVU585
 14922              	.LLST97:
 14923 187a AE000000 		.4byte	.LVL181
 14924 187e BA000000 		.4byte	.LVL184
 14925 1882 0200     		.2byte	0x2
 14926 1884 91       		.byte	0x91
 14927 1885 44       		.sleb128 -60
 14928 1886 00000000 		.4byte	0
 14929 188a 00000000 		.4byte	0
 14930              	.LVUS98:
 14931 188e 00       		.uleb128 .LVU584
 14932 188f 01       		.uleb128 .LVU585
 14933              	.LLST98:
 14934 1890 BA000000 		.4byte	.LVL184
ARM GAS  /tmp/ccqyZH0w.s 			page 263


 14935 1894 BA000000 		.4byte	.LVL184
 14936 1898 0100     		.2byte	0x1
 14937 189a 50       		.byte	0x50
 14938 189b 00000000 		.4byte	0
 14939 189f 00000000 		.4byte	0
 14940              	.LVUS54:
 14941 18a3 00       		.uleb128 0
 14942 18a4 00       		.uleb128 .LVU393
 14943 18a5 00       		.uleb128 .LVU393
 14944 18a6 00       		.uleb128 0
 14945              	.LLST54:
 14946 18a7 00000000 		.4byte	.LVL131
 14947 18ab 12000000 		.4byte	.LVL133
 14948 18af 0100     		.2byte	0x1
 14949 18b1 50       		.byte	0x50
 14950 18b2 12000000 		.4byte	.LVL133
 14951 18b6 BC000000 		.4byte	.LFE11
 14952 18ba 0100     		.2byte	0x1
 14953 18bc 5B       		.byte	0x5b
 14954 18bd 00000000 		.4byte	0
 14955 18c1 00000000 		.4byte	0
 14956              	.LVUS55:
 14957 18c5 00       		.uleb128 0
 14958 18c6 00       		.uleb128 .LVU392
 14959 18c7 00       		.uleb128 .LVU392
 14960 18c8 00       		.uleb128 0
 14961              	.LLST55:
 14962 18c9 00000000 		.4byte	.LVL131
 14963 18cd 10000000 		.4byte	.LVL132
 14964 18d1 0100     		.2byte	0x1
 14965 18d3 51       		.byte	0x51
 14966 18d4 10000000 		.4byte	.LVL132
 14967 18d8 BC000000 		.4byte	.LFE11
 14968 18dc 0400     		.2byte	0x4
 14969 18de F3       		.byte	0xf3
 14970 18df 01       		.uleb128 0x1
 14971 18e0 51       		.byte	0x51
 14972 18e1 9F       		.byte	0x9f
 14973 18e2 00000000 		.4byte	0
 14974 18e6 00000000 		.4byte	0
 14975              	.LVUS56:
 14976 18ea 00       		.uleb128 0
 14977 18eb 00       		.uleb128 .LVU417
 14978 18ec 00       		.uleb128 .LVU417
 14979 18ed 00       		.uleb128 0
 14980              	.LLST56:
 14981 18ee 00000000 		.4byte	.LVL131
 14982 18f2 42000000 		.4byte	.LVL136
 14983 18f6 0100     		.2byte	0x1
 14984 18f8 52       		.byte	0x52
 14985 18f9 42000000 		.4byte	.LVL136
 14986 18fd BC000000 		.4byte	.LFE11
 14987 1901 0400     		.2byte	0x4
 14988 1903 F3       		.byte	0xf3
 14989 1904 01       		.uleb128 0x1
 14990 1905 52       		.byte	0x52
 14991 1906 9F       		.byte	0x9f
ARM GAS  /tmp/ccqyZH0w.s 			page 264


 14992 1907 00000000 		.4byte	0
 14993 190b 00000000 		.4byte	0
 14994              	.LVUS57:
 14995 190f 00       		.uleb128 0
 14996 1910 00       		.uleb128 .LVU469
 14997 1911 00       		.uleb128 .LVU469
 14998 1912 00       		.uleb128 0
 14999              	.LLST57:
 15000 1913 00000000 		.4byte	.LVL131
 15001 1917 A4000000 		.4byte	.LVL150
 15002 191b 0100     		.2byte	0x1
 15003 191d 53       		.byte	0x53
 15004 191e A4000000 		.4byte	.LVL150
 15005 1922 BC000000 		.4byte	.LFE11
 15006 1926 0400     		.2byte	0x4
 15007 1928 F3       		.byte	0xf3
 15008 1929 01       		.uleb128 0x1
 15009 192a 53       		.byte	0x53
 15010 192b 9F       		.byte	0x9f
 15011 192c 00000000 		.4byte	0
 15012 1930 00000000 		.4byte	0
 15013              	.LVUS58:
 15014 1934 00       		.uleb128 0
 15015 1935 00       		.uleb128 .LVU470
 15016 1936 00       		.uleb128 .LVU470
 15017 1937 00       		.uleb128 0
 15018              	.LLST58:
 15019 1938 00000000 		.4byte	.LVL131
 15020 193c B2000000 		.4byte	.LVL151
 15021 1940 0200     		.2byte	0x2
 15022 1942 91       		.byte	0x91
 15023 1943 00       		.sleb128 0
 15024 1944 B2000000 		.4byte	.LVL151
 15025 1948 BC000000 		.4byte	.LFE11
 15026 194c 0200     		.2byte	0x2
 15027 194e 91       		.byte	0x91
 15028 194f 00       		.sleb128 0
 15029 1950 00000000 		.4byte	0
 15030 1954 00000000 		.4byte	0
 15031              	.LVUS59:
 15032 1958 01       		.uleb128 .LVU397
 15033 1959 01       		.uleb128 .LVU410
 15034 195a 01       		.uleb128 .LVU410
 15035 195b 00       		.uleb128 .LVU471
 15036              	.LLST59:
 15037 195c 24000000 		.4byte	.LVL134
 15038 1960 32000000 		.4byte	.LVL135
 15039 1964 0200     		.2byte	0x2
 15040 1966 30       		.byte	0x30
 15041 1967 9F       		.byte	0x9f
 15042 1968 32000000 		.4byte	.LVL135
 15043 196c B5000000 		.4byte	.LVL152-1
 15044 1970 0100     		.2byte	0x1
 15045 1972 50       		.byte	0x50
 15046 1973 00000000 		.4byte	0
 15047 1977 00000000 		.4byte	0
 15048              	.LVUS60:
ARM GAS  /tmp/ccqyZH0w.s 			page 265


 15049 197b 09       		.uleb128 .LVU405
 15050 197c 00       		.uleb128 .LVU417
 15051 197d 00       		.uleb128 .LVU417
 15052 197e 00       		.uleb128 0
 15053              	.LLST60:
 15054 197f 24000000 		.4byte	.LVL134
 15055 1983 42000000 		.4byte	.LVL136
 15056 1987 0100     		.2byte	0x1
 15057 1989 51       		.byte	0x51
 15058 198a 42000000 		.4byte	.LVL136
 15059 198e BC000000 		.4byte	.LFE11
 15060 1992 0200     		.2byte	0x2
 15061 1994 91       		.byte	0x91
 15062 1995 4C       		.sleb128 -52
 15063 1996 00000000 		.4byte	0
 15064 199a 00000000 		.4byte	0
 15065              	.LVUS61:
 15066 199e 00       		.uleb128 .LVU409
 15067 199f 00       		.uleb128 0
 15068              	.LLST61:
 15069 19a0 32000000 		.4byte	.LVL135
 15070 19a4 BC000000 		.4byte	.LFE11
 15071 19a8 0100     		.2byte	0x1
 15072 19aa 59       		.byte	0x59
 15073 19ab 00000000 		.4byte	0
 15074 19af 00000000 		.4byte	0
 15075              	.LVUS62:
 15076 19b3 05       		.uleb128 .LVU401
 15077 19b4 00       		.uleb128 .LVU417
 15078 19b5 00       		.uleb128 .LVU417
 15079 19b6 00       		.uleb128 0
 15080              	.LLST62:
 15081 19b7 24000000 		.4byte	.LVL134
 15082 19bb 42000000 		.4byte	.LVL136
 15083 19bf 0200     		.2byte	0x2
 15084 19c1 30       		.byte	0x30
 15085 19c2 9F       		.byte	0x9f
 15086 19c3 42000000 		.4byte	.LVL136
 15087 19c7 BC000000 		.4byte	.LFE11
 15088 19cb 0100     		.2byte	0x1
 15089 19cd 57       		.byte	0x57
 15090 19ce 00000000 		.4byte	0
 15091 19d2 00000000 		.4byte	0
 15092              	.LVUS63:
 15093 19d6 06       		.uleb128 .LVU402
 15094 19d7 00       		.uleb128 .LVU417
 15095 19d8 01       		.uleb128 .LVU420
 15096 19d9 00       		.uleb128 .LVU422
 15097 19da 00       		.uleb128 .LVU422
 15098 19db 01       		.uleb128 .LVU438
 15099 19dc 01       		.uleb128 .LVU438
 15100 19dd 00       		.uleb128 .LVU441
 15101 19de 00       		.uleb128 .LVU441
 15102 19df 01       		.uleb128 .LVU448
 15103 19e0 01       		.uleb128 .LVU448
 15104 19e1 02       		.uleb128 .LVU456
 15105 19e2 02       		.uleb128 .LVU456
ARM GAS  /tmp/ccqyZH0w.s 			page 266


 15106 19e3 00       		.uleb128 .LVU458
 15107 19e4 00       		.uleb128 .LVU458
 15108 19e5 00       		.uleb128 .LVU465
 15109 19e6 00       		.uleb128 .LVU465
 15110 19e7 00       		.uleb128 .LVU471
 15111              	.LLST63:
 15112 19e8 24000000 		.4byte	.LVL134
 15113 19ec 42000000 		.4byte	.LVL136
 15114 19f0 0200     		.2byte	0x2
 15115 19f2 30       		.byte	0x30
 15116 19f3 9F       		.byte	0x9f
 15117 19f4 46000000 		.4byte	.LVL137
 15118 19f8 48000000 		.4byte	.LVL138
 15119 19fc 0200     		.2byte	0x2
 15120 19fe 30       		.byte	0x30
 15121 19ff 9F       		.byte	0x9f
 15122 1a00 48000000 		.4byte	.LVL138
 15123 1a04 66000000 		.4byte	.LVL140
 15124 1a08 0300     		.2byte	0x3
 15125 1a0a 71       		.byte	0x71
 15126 1a0b 7F       		.sleb128 -1
 15127 1a0c 9F       		.byte	0x9f
 15128 1a0d 66000000 		.4byte	.LVL140
 15129 1a11 6A000000 		.4byte	.LVL142
 15130 1a15 0100     		.2byte	0x1
 15131 1a17 51       		.byte	0x51
 15132 1a18 6A000000 		.4byte	.LVL142
 15133 1a1c 78000000 		.4byte	.LVL144
 15134 1a20 0300     		.2byte	0x3
 15135 1a22 71       		.byte	0x71
 15136 1a23 7F       		.sleb128 -1
 15137 1a24 9F       		.byte	0x9f
 15138 1a25 78000000 		.4byte	.LVL144
 15139 1a29 82000000 		.4byte	.LVL147
 15140 1a2d 0100     		.2byte	0x1
 15141 1a2f 51       		.byte	0x51
 15142 1a30 82000000 		.4byte	.LVL147
 15143 1a34 8E000000 		.4byte	.LVL148
 15144 1a38 0200     		.2byte	0x2
 15145 1a3a 30       		.byte	0x30
 15146 1a3b 9F       		.byte	0x9f
 15147 1a3c 8E000000 		.4byte	.LVL148
 15148 1a40 9C000000 		.4byte	.LVL149
 15149 1a44 0100     		.2byte	0x1
 15150 1a46 52       		.byte	0x52
 15151 1a47 9C000000 		.4byte	.LVL149
 15152 1a4b B5000000 		.4byte	.LVL152-1
 15153 1a4f 0100     		.2byte	0x1
 15154 1a51 51       		.byte	0x51
 15155 1a52 00000000 		.4byte	0
 15156 1a56 00000000 		.4byte	0
 15157              	.LVUS64:
 15158 1a5a 00       		.uleb128 .LVU419
 15159 1a5b 01       		.uleb128 .LVU455
 15160 1a5c 01       		.uleb128 .LVU455
 15161 1a5d 00       		.uleb128 .LVU458
 15162              	.LLST64:
ARM GAS  /tmp/ccqyZH0w.s 			page 267


 15163 1a5e 46000000 		.4byte	.LVL137
 15164 1a62 82000000 		.4byte	.LVL147
 15165 1a66 0100     		.2byte	0x1
 15166 1a68 52       		.byte	0x52
 15167 1a69 82000000 		.4byte	.LVL147
 15168 1a6d 8E000000 		.4byte	.LVL148
 15169 1a71 0600     		.2byte	0x6
 15170 1a73 7B       		.byte	0x7b
 15171 1a74 00       		.sleb128 0
 15172 1a75 91       		.byte	0x91
 15173 1a76 4C       		.sleb128 -52
 15174 1a77 06       		.byte	0x6
 15175 1a78 22       		.byte	0x22
 15176 1a79 00000000 		.4byte	0
 15177 1a7d 00000000 		.4byte	0
 15178              	.LVUS65:
 15179 1a81 08       		.uleb128 .LVU404
 15180 1a82 00       		.uleb128 .LVU417
 15181 1a83 00       		.uleb128 .LVU417
 15182 1a84 00       		.uleb128 .LVU445
 15183 1a85 00       		.uleb128 .LVU445
 15184 1a86 00       		.uleb128 .LVU450
 15185 1a87 00       		.uleb128 .LVU450
 15186 1a88 00       		.uleb128 0
 15187              	.LLST65:
 15188 1a89 24000000 		.4byte	.LVL134
 15189 1a8d 42000000 		.4byte	.LVL136
 15190 1a91 0200     		.2byte	0x2
 15191 1a93 30       		.byte	0x30
 15192 1a94 9F       		.byte	0x9f
 15193 1a95 42000000 		.4byte	.LVL136
 15194 1a99 76000000 		.4byte	.LVL143
 15195 1a9d 0100     		.2byte	0x1
 15196 1a9f 56       		.byte	0x56
 15197 1aa0 76000000 		.4byte	.LVL143
 15198 1aa4 7C000000 		.4byte	.LVL145
 15199 1aa8 0200     		.2byte	0x2
 15200 1aaa 31       		.byte	0x31
 15201 1aab 9F       		.byte	0x9f
 15202 1aac 7C000000 		.4byte	.LVL145
 15203 1ab0 BC000000 		.4byte	.LFE11
 15204 1ab4 0100     		.2byte	0x1
 15205 1ab6 56       		.byte	0x56
 15206 1ab7 00000000 		.4byte	0
 15207 1abb 00000000 		.4byte	0
 15208              	.LVUS35:
 15209 1abf 00       		.uleb128 0
 15210 1ac0 00       		.uleb128 .LVU310
 15211 1ac1 00       		.uleb128 .LVU310
 15212 1ac2 00       		.uleb128 0
 15213              	.LLST35:
 15214 1ac3 00000000 		.4byte	.LVL96
 15215 1ac7 26000000 		.4byte	.LVL101
 15216 1acb 0100     		.2byte	0x1
 15217 1acd 50       		.byte	0x50
 15218 1ace 26000000 		.4byte	.LVL101
 15219 1ad2 6C000000 		.4byte	.LFE8
ARM GAS  /tmp/ccqyZH0w.s 			page 268


 15220 1ad6 0400     		.2byte	0x4
 15221 1ad8 F3       		.byte	0xf3
 15222 1ad9 01       		.uleb128 0x1
 15223 1ada 50       		.byte	0x50
 15224 1adb 9F       		.byte	0x9f
 15225 1adc 00000000 		.4byte	0
 15226 1ae0 00000000 		.4byte	0
 15227              	.LVUS36:
 15228 1ae4 00       		.uleb128 0
 15229 1ae5 00       		.uleb128 .LVU343
 15230 1ae6 00       		.uleb128 .LVU343
 15231 1ae7 00       		.uleb128 0
 15232              	.LLST36:
 15233 1ae8 00000000 		.4byte	.LVL96
 15234 1aec 65000000 		.4byte	.LVL116-1
 15235 1af0 0100     		.2byte	0x1
 15236 1af2 51       		.byte	0x51
 15237 1af3 65000000 		.4byte	.LVL116-1
 15238 1af7 6C000000 		.4byte	.LFE8
 15239 1afb 0400     		.2byte	0x4
 15240 1afd F3       		.byte	0xf3
 15241 1afe 01       		.uleb128 0x1
 15242 1aff 51       		.byte	0x51
 15243 1b00 9F       		.byte	0x9f
 15244 1b01 00000000 		.4byte	0
 15245 1b05 00000000 		.4byte	0
 15246              	.LVUS37:
 15247 1b09 00       		.uleb128 0
 15248 1b0a 00       		.uleb128 .LVU310
 15249 1b0b 00       		.uleb128 .LVU310
 15250 1b0c 00       		.uleb128 0
 15251              	.LLST37:
 15252 1b0d 00000000 		.4byte	.LVL96
 15253 1b11 26000000 		.4byte	.LVL101
 15254 1b15 0100     		.2byte	0x1
 15255 1b17 52       		.byte	0x52
 15256 1b18 26000000 		.4byte	.LVL101
 15257 1b1c 6C000000 		.4byte	.LFE8
 15258 1b20 0400     		.2byte	0x4
 15259 1b22 F3       		.byte	0xf3
 15260 1b23 01       		.uleb128 0x1
 15261 1b24 52       		.byte	0x52
 15262 1b25 9F       		.byte	0x9f
 15263 1b26 00000000 		.4byte	0
 15264 1b2a 00000000 		.4byte	0
 15265              	.LVUS38:
 15266 1b2e 00       		.uleb128 0
 15267 1b2f 00       		.uleb128 .LVU334
 15268 1b30 00       		.uleb128 .LVU334
 15269 1b31 00       		.uleb128 .LVU335
 15270 1b32 00       		.uleb128 .LVU335
 15271 1b33 00       		.uleb128 .LVU342
 15272 1b34 00       		.uleb128 .LVU342
 15273 1b35 00       		.uleb128 0
 15274              	.LLST38:
 15275 1b36 00000000 		.4byte	.LVL96
 15276 1b3a 4E000000 		.4byte	.LVL111
ARM GAS  /tmp/ccqyZH0w.s 			page 269


 15277 1b3e 0100     		.2byte	0x1
 15278 1b40 53       		.byte	0x53
 15279 1b41 4E000000 		.4byte	.LVL111
 15280 1b45 5A000000 		.4byte	.LVL112
 15281 1b49 0400     		.2byte	0x4
 15282 1b4b F3       		.byte	0xf3
 15283 1b4c 01       		.uleb128 0x1
 15284 1b4d 53       		.byte	0x53
 15285 1b4e 9F       		.byte	0x9f
 15286 1b4f 5A000000 		.4byte	.LVL112
 15287 1b53 62000000 		.4byte	.LVL115
 15288 1b57 0100     		.2byte	0x1
 15289 1b59 53       		.byte	0x53
 15290 1b5a 62000000 		.4byte	.LVL115
 15291 1b5e 6C000000 		.4byte	.LFE8
 15292 1b62 0400     		.2byte	0x4
 15293 1b64 F3       		.byte	0xf3
 15294 1b65 01       		.uleb128 0x1
 15295 1b66 53       		.byte	0x53
 15296 1b67 9F       		.byte	0x9f
 15297 1b68 00000000 		.4byte	0
 15298 1b6c 00000000 		.4byte	0
 15299              	.LVUS39:
 15300 1b70 01       		.uleb128 .LVU304
 15301 1b71 00       		.uleb128 .LVU308
 15302 1b72 00       		.uleb128 .LVU308
 15303 1b73 00       		.uleb128 .LVU333
 15304 1b74 00       		.uleb128 .LVU333
 15305 1b75 00       		.uleb128 .LVU335
 15306 1b76 00       		.uleb128 .LVU335
 15307 1b77 00       		.uleb128 .LVU342
 15308 1b78 00       		.uleb128 .LVU342
 15309 1b79 00       		.uleb128 0
 15310              	.LLST39:
 15311 1b7a 18000000 		.4byte	.LVL98
 15312 1b7e 1C000000 		.4byte	.LVL99
 15313 1b82 0500     		.2byte	0x5
 15314 1b84 72       		.byte	0x72
 15315 1b85 00       		.sleb128 0
 15316 1b86 33       		.byte	0x33
 15317 1b87 25       		.byte	0x25
 15318 1b88 9F       		.byte	0x9f
 15319 1b89 1C000000 		.4byte	.LVL99
 15320 1b8d 4C000000 		.4byte	.LVL110
 15321 1b91 0100     		.2byte	0x1
 15322 1b93 56       		.byte	0x56
 15323 1b94 4C000000 		.4byte	.LVL110
 15324 1b98 5A000000 		.4byte	.LVL112
 15325 1b9c 0600     		.2byte	0x6
 15326 1b9e F3       		.byte	0xf3
 15327 1b9f 01       		.uleb128 0x1
 15328 1ba0 52       		.byte	0x52
 15329 1ba1 33       		.byte	0x33
 15330 1ba2 25       		.byte	0x25
 15331 1ba3 9F       		.byte	0x9f
 15332 1ba4 5A000000 		.4byte	.LVL112
 15333 1ba8 62000000 		.4byte	.LVL115
ARM GAS  /tmp/ccqyZH0w.s 			page 270


 15334 1bac 0100     		.2byte	0x1
 15335 1bae 56       		.byte	0x56
 15336 1baf 62000000 		.4byte	.LVL115
 15337 1bb3 6C000000 		.4byte	.LFE8
 15338 1bb7 0600     		.2byte	0x6
 15339 1bb9 F3       		.byte	0xf3
 15340 1bba 01       		.uleb128 0x1
 15341 1bbb 52       		.byte	0x52
 15342 1bbc 33       		.byte	0x33
 15343 1bbd 25       		.byte	0x25
 15344 1bbe 9F       		.byte	0x9f
 15345 1bbf 00000000 		.4byte	0
 15346 1bc3 00000000 		.4byte	0
 15347              	.LVUS40:
 15348 1bc7 02       		.uleb128 .LVU305
 15349 1bc8 00       		.uleb128 .LVU309
 15350 1bc9 00       		.uleb128 .LVU309
 15351 1bca 00       		.uleb128 .LVU333
 15352 1bcb 00       		.uleb128 .LVU333
 15353 1bcc 00       		.uleb128 .LVU335
 15354 1bcd 00       		.uleb128 .LVU335
 15355 1bce 00       		.uleb128 .LVU342
 15356 1bcf 00       		.uleb128 .LVU342
 15357 1bd0 00       		.uleb128 0
 15358              	.LLST40:
 15359 1bd1 18000000 		.4byte	.LVL98
 15360 1bd5 22000000 		.4byte	.LVL100
 15361 1bd9 0500     		.2byte	0x5
 15362 1bdb 72       		.byte	0x72
 15363 1bdc 00       		.sleb128 0
 15364 1bdd 37       		.byte	0x37
 15365 1bde 1A       		.byte	0x1a
 15366 1bdf 9F       		.byte	0x9f
 15367 1be0 22000000 		.4byte	.LVL100
 15368 1be4 4C000000 		.4byte	.LVL110
 15369 1be8 0100     		.2byte	0x1
 15370 1bea 57       		.byte	0x57
 15371 1beb 4C000000 		.4byte	.LVL110
 15372 1bef 5A000000 		.4byte	.LVL112
 15373 1bf3 0600     		.2byte	0x6
 15374 1bf5 F3       		.byte	0xf3
 15375 1bf6 01       		.uleb128 0x1
 15376 1bf7 52       		.byte	0x52
 15377 1bf8 37       		.byte	0x37
 15378 1bf9 1A       		.byte	0x1a
 15379 1bfa 9F       		.byte	0x9f
 15380 1bfb 5A000000 		.4byte	.LVL112
 15381 1bff 62000000 		.4byte	.LVL115
 15382 1c03 0100     		.2byte	0x1
 15383 1c05 57       		.byte	0x57
 15384 1c06 62000000 		.4byte	.LVL115
 15385 1c0a 6C000000 		.4byte	.LFE8
 15386 1c0e 0600     		.2byte	0x6
 15387 1c10 F3       		.byte	0xf3
 15388 1c11 01       		.uleb128 0x1
 15389 1c12 52       		.byte	0x52
 15390 1c13 37       		.byte	0x37
ARM GAS  /tmp/ccqyZH0w.s 			page 271


 15391 1c14 1A       		.byte	0x1a
 15392 1c15 9F       		.byte	0x9f
 15393 1c16 00000000 		.4byte	0
 15394 1c1a 00000000 		.4byte	0
 15395              	.LVUS41:
 15396 1c1e 03       		.uleb128 .LVU306
 15397 1c1f 00       		.uleb128 .LVU308
 15398 1c20 00       		.uleb128 .LVU308
 15399 1c21 00       		.uleb128 .LVU310
 15400 1c22 00       		.uleb128 .LVU310
 15401 1c23 01       		.uleb128 .LVU330
 15402 1c24 01       		.uleb128 .LVU330
 15403 1c25 00       		.uleb128 .LVU331
 15404 1c26 00       		.uleb128 .LVU331
 15405 1c27 00       		.uleb128 .LVU333
 15406 1c28 00       		.uleb128 .LVU335
 15407 1c29 02       		.uleb128 .LVU341
 15408 1c2a 02       		.uleb128 .LVU341
 15409 1c2b 00       		.uleb128 .LVU342
 15410              	.LLST41:
 15411 1c2c 18000000 		.4byte	.LVL98
 15412 1c30 1C000000 		.4byte	.LVL99
 15413 1c34 0500     		.2byte	0x5
 15414 1c36 72       		.byte	0x72
 15415 1c37 00       		.sleb128 0
 15416 1c38 33       		.byte	0x33
 15417 1c39 25       		.byte	0x25
 15418 1c3a 9F       		.byte	0x9f
 15419 1c3b 1C000000 		.4byte	.LVL99
 15420 1c3f 26000000 		.4byte	.LVL101
 15421 1c43 0100     		.2byte	0x1
 15422 1c45 56       		.byte	0x56
 15423 1c46 26000000 		.4byte	.LVL101
 15424 1c4a 46000000 		.4byte	.LVL108
 15425 1c4e 0100     		.2byte	0x1
 15426 1c50 54       		.byte	0x54
 15427 1c51 46000000 		.4byte	.LVL108
 15428 1c55 48000000 		.4byte	.LVL109
 15429 1c59 0300     		.2byte	0x3
 15430 1c5b 74       		.byte	0x74
 15431 1c5c 01       		.sleb128 1
 15432 1c5d 9F       		.byte	0x9f
 15433 1c5e 48000000 		.4byte	.LVL109
 15434 1c62 4C000000 		.4byte	.LVL110
 15435 1c66 0100     		.2byte	0x1
 15436 1c68 54       		.byte	0x54
 15437 1c69 5A000000 		.4byte	.LVL112
 15438 1c6d 60000000 		.4byte	.LVL114
 15439 1c71 0100     		.2byte	0x1
 15440 1c73 54       		.byte	0x54
 15441 1c74 60000000 		.4byte	.LVL114
 15442 1c78 62000000 		.4byte	.LVL115
 15443 1c7c 0300     		.2byte	0x3
 15444 1c7e 74       		.byte	0x74
 15445 1c7f 01       		.sleb128 1
 15446 1c80 9F       		.byte	0x9f
 15447 1c81 00000000 		.4byte	0
ARM GAS  /tmp/ccqyZH0w.s 			page 272


 15448 1c85 00000000 		.4byte	0
 15449              	.LVUS42:
 15450 1c89 01       		.uleb128 .LVU311
 15451 1c8a 01       		.uleb128 .LVU319
 15452 1c8b 01       		.uleb128 .LVU319
 15453 1c8c 00       		.uleb128 .LVU321
 15454 1c8d 00       		.uleb128 .LVU321
 15455 1c8e 00       		.uleb128 .LVU325
 15456 1c8f 00       		.uleb128 .LVU325
 15457 1c90 01       		.uleb128 .LVU328
 15458 1c91 01       		.uleb128 .LVU328
 15459 1c92 00       		.uleb128 .LVU333
 15460 1c93 00       		.uleb128 .LVU335
 15461 1c94 00       		.uleb128 .LVU338
 15462              	.LLST42:
 15463 1c95 26000000 		.4byte	.LVL101
 15464 1c99 32000000 		.4byte	.LVL104
 15465 1c9d 0200     		.2byte	0x2
 15466 1c9f 30       		.byte	0x30
 15467 1ca0 9F       		.byte	0x9f
 15468 1ca1 32000000 		.4byte	.LVL104
 15469 1ca5 36000000 		.4byte	.LVL105
 15470 1ca9 0100     		.2byte	0x1
 15471 1cab 57       		.byte	0x57
 15472 1cac 36000000 		.4byte	.LVL105
 15473 1cb0 3E000000 		.4byte	.LVL106
 15474 1cb4 0100     		.2byte	0x1
 15475 1cb6 52       		.byte	0x52
 15476 1cb7 3E000000 		.4byte	.LVL106
 15477 1cbb 44000000 		.4byte	.LVL107
 15478 1cbf 0300     		.2byte	0x3
 15479 1cc1 72       		.byte	0x72
 15480 1cc2 7F       		.sleb128 -1
 15481 1cc3 9F       		.byte	0x9f
 15482 1cc4 44000000 		.4byte	.LVL107
 15483 1cc8 4C000000 		.4byte	.LVL110
 15484 1ccc 0100     		.2byte	0x1
 15485 1cce 52       		.byte	0x52
 15486 1ccf 5A000000 		.4byte	.LVL112
 15487 1cd3 5E000000 		.4byte	.LVL113
 15488 1cd7 0100     		.2byte	0x1
 15489 1cd9 52       		.byte	0x52
 15490 1cda 00000000 		.4byte	0
 15491 1cde 00000000 		.4byte	0
 15492              	.LVUS43:
 15493 1ce2 00       		.uleb128 .LVU313
 15494 1ce3 00       		.uleb128 .LVU317
 15495 1ce4 00       		.uleb128 .LVU317
 15496 1ce5 00       		.uleb128 .LVU318
 15497 1ce6 00       		.uleb128 .LVU318
 15498 1ce7 00       		.uleb128 .LVU333
 15499 1ce8 00       		.uleb128 .LVU335
 15500 1ce9 00       		.uleb128 .LVU342
 15501              	.LLST43:
 15502 1cea 2A000000 		.4byte	.LVL102
 15503 1cee 30000000 		.4byte	.LVL103
 15504 1cf2 0100     		.2byte	0x1
ARM GAS  /tmp/ccqyZH0w.s 			page 273


 15505 1cf4 50       		.byte	0x50
 15506 1cf5 30000000 		.4byte	.LVL103
 15507 1cf9 32000000 		.4byte	.LVL104
 15508 1cfd 0200     		.2byte	0x2
 15509 1cff 75       		.byte	0x75
 15510 1d00 00       		.sleb128 0
 15511 1d01 32000000 		.4byte	.LVL104
 15512 1d05 4C000000 		.4byte	.LVL110
 15513 1d09 0100     		.2byte	0x1
 15514 1d0b 50       		.byte	0x50
 15515 1d0c 5A000000 		.4byte	.LVL112
 15516 1d10 62000000 		.4byte	.LVL115
 15517 1d14 0100     		.2byte	0x1
 15518 1d16 50       		.byte	0x50
 15519 1d17 00000000 		.4byte	0
 15520 1d1b 00000000 		.4byte	0
 15521              	.LVUS44:
 15522 1d1f 07       		.uleb128 .LVU301
 15523 1d20 00       		.uleb128 .LVU333
 15524 1d21 00       		.uleb128 .LVU335
 15525 1d22 01       		.uleb128 .LVU336
 15526 1d23 01       		.uleb128 .LVU336
 15527 1d24 00       		.uleb128 .LVU342
 15528              	.LLST44:
 15529 1d25 16000000 		.4byte	.LVL97
 15530 1d29 4C000000 		.4byte	.LVL110
 15531 1d2d 0200     		.2byte	0x2
 15532 1d2f 30       		.byte	0x30
 15533 1d30 9F       		.byte	0x9f
 15534 1d31 5A000000 		.4byte	.LVL112
 15535 1d35 5A000000 		.4byte	.LVL112
 15536 1d39 0200     		.2byte	0x2
 15537 1d3b 30       		.byte	0x30
 15538 1d3c 9F       		.byte	0x9f
 15539 1d3d 5A000000 		.4byte	.LVL112
 15540 1d41 62000000 		.4byte	.LVL115
 15541 1d45 0200     		.2byte	0x2
 15542 1d47 31       		.byte	0x31
 15543 1d48 9F       		.byte	0x9f
 15544 1d49 00000000 		.4byte	0
 15545 1d4d 00000000 		.4byte	0
 15546              	.LVUS32:
 15547 1d51 00       		.uleb128 0
 15548 1d52 00       		.uleb128 .LVU266
 15549 1d53 00       		.uleb128 .LVU266
 15550 1d54 00       		.uleb128 0
 15551              	.LLST32:
 15552 1d55 00000000 		.4byte	.LVL85
 15553 1d59 15000000 		.4byte	.LVL87-1
 15554 1d5d 0100     		.2byte	0x1
 15555 1d5f 50       		.byte	0x50
 15556 1d60 15000000 		.4byte	.LVL87-1
 15557 1d64 54000000 		.4byte	.LFE7
 15558 1d68 0100     		.2byte	0x1
 15559 1d6a 54       		.byte	0x54
 15560 1d6b 00000000 		.4byte	0
 15561 1d6f 00000000 		.4byte	0
ARM GAS  /tmp/ccqyZH0w.s 			page 274


 15562              	.LVUS33:
 15563 1d73 01       		.uleb128 .LVU261
 15564 1d74 00       		.uleb128 .LVU266
 15565 1d75 00       		.uleb128 .LVU266
 15566 1d76 00       		.uleb128 .LVU273
 15567 1d77 00       		.uleb128 .LVU274
 15568 1d78 00       		.uleb128 .LVU283
 15569 1d79 00       		.uleb128 .LVU284
 15570 1d7a 00       		.uleb128 .LVU288
 15571              	.LLST33:
 15572 1d7b 10000000 		.4byte	.LVL86
 15573 1d7f 16000000 		.4byte	.LVL87
 15574 1d83 0200     		.2byte	0x2
 15575 1d85 30       		.byte	0x30
 15576 1d86 9F       		.byte	0x9f
 15577 1d87 16000000 		.4byte	.LVL87
 15578 1d8b 2A000000 		.4byte	.LVL89
 15579 1d8f 0100     		.2byte	0x1
 15580 1d91 50       		.byte	0x50
 15581 1d92 2E000000 		.4byte	.LVL90
 15582 1d96 3E000000 		.4byte	.LVL92
 15583 1d9a 0100     		.2byte	0x1
 15584 1d9c 50       		.byte	0x50
 15585 1d9d 42000000 		.4byte	.LVL93
 15586 1da1 4D000000 		.4byte	.LVL95-1
 15587 1da5 0100     		.2byte	0x1
 15588 1da7 50       		.byte	0x50
 15589 1da8 00000000 		.4byte	0
 15590 1dac 00000000 		.4byte	0
 15591              	.LVUS34:
 15592 1db0 00       		.uleb128 .LVU281
 15593 1db1 00       		.uleb128 .LVU287
 15594              	.LLST34:
 15595 1db2 3A000000 		.4byte	.LVL91
 15596 1db6 4A000000 		.4byte	.LVL94
 15597 1dba 0100     		.2byte	0x1
 15598 1dbc 55       		.byte	0x55
 15599 1dbd 00000000 		.4byte	0
 15600 1dc1 00000000 		.4byte	0
 15601              	.LVUS28:
 15602 1dc5 00       		.uleb128 0
 15603 1dc6 00       		.uleb128 .LVU238
 15604 1dc7 00       		.uleb128 .LVU238
 15605 1dc8 00       		.uleb128 0
 15606              	.LLST28:
 15607 1dc9 00000000 		.4byte	.LVL73
 15608 1dcd 19000000 		.4byte	.LVL76-1
 15609 1dd1 0100     		.2byte	0x1
 15610 1dd3 50       		.byte	0x50
 15611 1dd4 19000000 		.4byte	.LVL76-1
 15612 1dd8 58000000 		.4byte	.LFE6
 15613 1ddc 0400     		.2byte	0x4
 15614 1dde F3       		.byte	0xf3
 15615 1ddf 01       		.uleb128 0x1
 15616 1de0 50       		.byte	0x50
 15617 1de1 9F       		.byte	0x9f
 15618 1de2 00000000 		.4byte	0
ARM GAS  /tmp/ccqyZH0w.s 			page 275


 15619 1de6 00000000 		.4byte	0
 15620              	.LVUS29:
 15621 1dea 00       		.uleb128 0
 15622 1deb 00       		.uleb128 .LVU231
 15623 1dec 00       		.uleb128 .LVU231
 15624 1ded 00       		.uleb128 0
 15625              	.LLST29:
 15626 1dee 00000000 		.4byte	.LVL73
 15627 1df2 0E000000 		.4byte	.LVL74
 15628 1df6 0100     		.2byte	0x1
 15629 1df8 51       		.byte	0x51
 15630 1df9 0E000000 		.4byte	.LVL74
 15631 1dfd 58000000 		.4byte	.LFE6
 15632 1e01 0100     		.2byte	0x1
 15633 1e03 54       		.byte	0x54
 15634 1e04 00000000 		.4byte	0
 15635 1e08 00000000 		.4byte	0
 15636              	.LVUS30:
 15637 1e0c 01       		.uleb128 .LVU233
 15638 1e0d 00       		.uleb128 .LVU238
 15639 1e0e 00       		.uleb128 .LVU238
 15640 1e0f 00       		.uleb128 .LVU255
 15641              	.LLST30:
 15642 1e10 16000000 		.4byte	.LVL75
 15643 1e14 1A000000 		.4byte	.LVL76
 15644 1e18 0200     		.2byte	0x2
 15645 1e1a 30       		.byte	0x30
 15646 1e1b 9F       		.byte	0x9f
 15647 1e1c 1A000000 		.4byte	.LVL76
 15648 1e20 53000000 		.4byte	.LVL84-1
 15649 1e24 0100     		.2byte	0x1
 15650 1e26 50       		.byte	0x50
 15651 1e27 00000000 		.4byte	0
 15652 1e2b 00000000 		.4byte	0
 15653              	.LVUS31:
 15654 1e2f 00       		.uleb128 .LVU242
 15655 1e30 00       		.uleb128 .LVU246
 15656 1e31 00       		.uleb128 .LVU246
 15657 1e32 00       		.uleb128 .LVU247
 15658 1e33 00       		.uleb128 .LVU247
 15659 1e34 00       		.uleb128 .LVU249
 15660 1e35 00       		.uleb128 .LVU251
 15661 1e36 00       		.uleb128 .LVU253
 15662 1e37 00       		.uleb128 .LVU253
 15663 1e38 00       		.uleb128 .LVU254
 15664              	.LLST31:
 15665 1e39 24000000 		.4byte	.LVL77
 15666 1e3d 2C000000 		.4byte	.LVL78
 15667 1e41 0100     		.2byte	0x1
 15668 1e43 53       		.byte	0x53
 15669 1e44 2C000000 		.4byte	.LVL78
 15670 1e48 34000000 		.4byte	.LVL79
 15671 1e4c 0400     		.2byte	0x4
 15672 1e4e 73       		.byte	0x73
 15673 1e4f 8020     		.sleb128 4096
 15674 1e51 9F       		.byte	0x9f
 15675 1e52 34000000 		.4byte	.LVL79
ARM GAS  /tmp/ccqyZH0w.s 			page 276


 15676 1e56 38000000 		.4byte	.LVL80
 15677 1e5a 0F00     		.2byte	0xf
 15678 1e5c 91       		.byte	0x91
 15679 1e5d 72       		.sleb128 -14
 15680 1e5e 94       		.byte	0x94
 15681 1e5f 02       		.byte	0x2
 15682 1e60 0A       		.byte	0xa
 15683 1e61 FFFF     		.2byte	0xffff
 15684 1e63 1A       		.byte	0x1a
 15685 1e64 09       		.byte	0x9
 15686 1e65 F8       		.byte	0xf8
 15687 1e66 24       		.byte	0x24
 15688 1e67 09       		.byte	0x9
 15689 1e68 F8       		.byte	0xf8
 15690 1e69 25       		.byte	0x25
 15691 1e6a 9F       		.byte	0x9f
 15692 1e6b 46000000 		.4byte	.LVL81
 15693 1e6f 4C000000 		.4byte	.LVL82
 15694 1e73 0100     		.2byte	0x1
 15695 1e75 53       		.byte	0x53
 15696 1e76 4C000000 		.4byte	.LVL82
 15697 1e7a 50000000 		.4byte	.LVL83
 15698 1e7e 0F00     		.2byte	0xf
 15699 1e80 91       		.byte	0x91
 15700 1e81 72       		.sleb128 -14
 15701 1e82 94       		.byte	0x94
 15702 1e83 02       		.byte	0x2
 15703 1e84 0A       		.byte	0xa
 15704 1e85 FFFF     		.2byte	0xffff
 15705 1e87 1A       		.byte	0x1a
 15706 1e88 09       		.byte	0x9
 15707 1e89 F8       		.byte	0xf8
 15708 1e8a 24       		.byte	0x24
 15709 1e8b 09       		.byte	0x9
 15710 1e8c F8       		.byte	0xf8
 15711 1e8d 25       		.byte	0x25
 15712 1e8e 9F       		.byte	0x9f
 15713 1e8f 00000000 		.4byte	0
 15714 1e93 00000000 		.4byte	0
 15715              	.LVUS26:
 15716 1e97 00       		.uleb128 0
 15717 1e98 00       		.uleb128 .LVU222
 15718 1e99 00       		.uleb128 .LVU222
 15719 1e9a 00       		.uleb128 .LVU222
 15720 1e9b 00       		.uleb128 .LVU222
 15721 1e9c 00       		.uleb128 .LVU226
 15722 1e9d 00       		.uleb128 .LVU226
 15723 1e9e 00       		.uleb128 0
 15724              	.LLST26:
 15725 1e9f 00000000 		.4byte	.LVL64
 15726 1ea3 39000000 		.4byte	.LVL69-1
 15727 1ea7 0100     		.2byte	0x1
 15728 1ea9 50       		.byte	0x50
 15729 1eaa 39000000 		.4byte	.LVL69-1
 15730 1eae 3A000000 		.4byte	.LVL69
 15731 1eb2 0400     		.2byte	0x4
 15732 1eb4 F3       		.byte	0xf3
ARM GAS  /tmp/ccqyZH0w.s 			page 277


 15733 1eb5 01       		.uleb128 0x1
 15734 1eb6 50       		.byte	0x50
 15735 1eb7 9F       		.byte	0x9f
 15736 1eb8 3A000000 		.4byte	.LVL69
 15737 1ebc 57000000 		.4byte	.LVL72-1
 15738 1ec0 0100     		.2byte	0x1
 15739 1ec2 50       		.byte	0x50
 15740 1ec3 57000000 		.4byte	.LVL72-1
 15741 1ec7 64000000 		.4byte	.LFE5
 15742 1ecb 0400     		.2byte	0x4
 15743 1ecd F3       		.byte	0xf3
 15744 1ece 01       		.uleb128 0x1
 15745 1ecf 50       		.byte	0x50
 15746 1ed0 9F       		.byte	0x9f
 15747 1ed1 00000000 		.4byte	0
 15748 1ed5 00000000 		.4byte	0
 15749              	.LVUS27:
 15750 1ed9 00       		.uleb128 0
 15751 1eda 00       		.uleb128 .LVU214
 15752 1edb 00       		.uleb128 .LVU216
 15753 1edc 00       		.uleb128 .LVU217
 15754 1edd 00       		.uleb128 .LVU222
 15755 1ede 00       		.uleb128 .LVU224
 15756 1edf 00       		.uleb128 .LVU224
 15757 1ee0 00       		.uleb128 .LVU225
 15758              	.LLST27:
 15759 1ee1 00000000 		.4byte	.LVL64
 15760 1ee5 1E000000 		.4byte	.LVL66
 15761 1ee9 0100     		.2byte	0x1
 15762 1eeb 51       		.byte	0x51
 15763 1eec 20000000 		.4byte	.LVL67
 15764 1ef0 24000000 		.4byte	.LVL68
 15765 1ef4 0100     		.2byte	0x1
 15766 1ef6 51       		.byte	0x51
 15767 1ef7 3A000000 		.4byte	.LVL69
 15768 1efb 44000000 		.4byte	.LVL70
 15769 1eff 0100     		.2byte	0x1
 15770 1f01 51       		.byte	0x51
 15771 1f02 44000000 		.4byte	.LVL70
 15772 1f06 54000000 		.4byte	.LVL71
 15773 1f0a 0400     		.2byte	0x4
 15774 1f0c F3       		.byte	0xf3
 15775 1f0d 01       		.uleb128 0x1
 15776 1f0e 51       		.byte	0x51
 15777 1f0f 9F       		.byte	0x9f
 15778 1f10 00000000 		.4byte	0
 15779 1f14 00000000 		.4byte	0
 15780              	.LVUS16:
 15781 1f18 00       		.uleb128 0
 15782 1f19 00       		.uleb128 .LVU123
 15783 1f1a 00       		.uleb128 .LVU123
 15784 1f1b 00       		.uleb128 .LVU125
 15785 1f1c 00       		.uleb128 .LVU125
 15786 1f1d 00       		.uleb128 .LVU129
 15787 1f1e 00       		.uleb128 .LVU129
 15788 1f1f 00       		.uleb128 .LVU196
 15789 1f20 00       		.uleb128 .LVU196
ARM GAS  /tmp/ccqyZH0w.s 			page 278


 15790 1f21 00       		.uleb128 0
 15791              	.LLST16:
 15792 1f22 00000000 		.4byte	.LVL36
 15793 1f26 16000000 		.4byte	.LVL38
 15794 1f2a 0100     		.2byte	0x1
 15795 1f2c 50       		.byte	0x50
 15796 1f2d 16000000 		.4byte	.LVL38
 15797 1f31 26000000 		.4byte	.LVL39
 15798 1f35 0400     		.2byte	0x4
 15799 1f37 F3       		.byte	0xf3
 15800 1f38 01       		.uleb128 0x1
 15801 1f39 50       		.byte	0x50
 15802 1f3a 9F       		.byte	0x9f
 15803 1f3b 26000000 		.4byte	.LVL39
 15804 1f3f 31000000 		.4byte	.LVL41-1
 15805 1f43 0100     		.2byte	0x1
 15806 1f45 50       		.byte	0x50
 15807 1f46 31000000 		.4byte	.LVL41-1
 15808 1f4a E6000000 		.4byte	.LVL62
 15809 1f4e 0100     		.2byte	0x1
 15810 1f50 54       		.byte	0x54
 15811 1f51 E6000000 		.4byte	.LVL62
 15812 1f55 F0000000 		.4byte	.LFE4
 15813 1f59 0400     		.2byte	0x4
 15814 1f5b F3       		.byte	0xf3
 15815 1f5c 01       		.uleb128 0x1
 15816 1f5d 50       		.byte	0x50
 15817 1f5e 9F       		.byte	0x9f
 15818 1f5f 00000000 		.4byte	0
 15819 1f63 00000000 		.4byte	0
 15820              	.LVUS17:
 15821 1f67 00       		.uleb128 0
 15822 1f68 00       		.uleb128 .LVU123
 15823 1f69 00       		.uleb128 .LVU123
 15824 1f6a 00       		.uleb128 .LVU125
 15825 1f6b 00       		.uleb128 .LVU125
 15826 1f6c 00       		.uleb128 .LVU128
 15827 1f6d 00       		.uleb128 .LVU128
 15828 1f6e 00       		.uleb128 .LVU177
 15829 1f6f 00       		.uleb128 .LVU177
 15830 1f70 00       		.uleb128 .LVU180
 15831 1f71 00       		.uleb128 .LVU180
 15832 1f72 00       		.uleb128 0
 15833              	.LLST17:
 15834 1f73 00000000 		.4byte	.LVL36
 15835 1f77 16000000 		.4byte	.LVL38
 15836 1f7b 0100     		.2byte	0x1
 15837 1f7d 51       		.byte	0x51
 15838 1f7e 16000000 		.4byte	.LVL38
 15839 1f82 26000000 		.4byte	.LVL39
 15840 1f86 0400     		.2byte	0x4
 15841 1f88 F3       		.byte	0xf3
 15842 1f89 01       		.uleb128 0x1
 15843 1f8a 51       		.byte	0x51
 15844 1f8b 9F       		.byte	0x9f
 15845 1f8c 26000000 		.4byte	.LVL39
 15846 1f90 2A000000 		.4byte	.LVL40
ARM GAS  /tmp/ccqyZH0w.s 			page 279


 15847 1f94 0100     		.2byte	0x1
 15848 1f96 51       		.byte	0x51
 15849 1f97 2A000000 		.4byte	.LVL40
 15850 1f9b B6000000 		.4byte	.LVL57
 15851 1f9f 0100     		.2byte	0x1
 15852 1fa1 55       		.byte	0x55
 15853 1fa2 B6000000 		.4byte	.LVL57
 15854 1fa6 C0000000 		.4byte	.LVL58
 15855 1faa 0500     		.2byte	0x5
 15856 1fac 75       		.byte	0x75
 15857 1fad 80807E   		.sleb128 -32768
 15858 1fb0 9F       		.byte	0x9f
 15859 1fb1 C0000000 		.4byte	.LVL58
 15860 1fb5 F0000000 		.4byte	.LFE4
 15861 1fb9 0400     		.2byte	0x4
 15862 1fbb F3       		.byte	0xf3
 15863 1fbc 01       		.uleb128 0x1
 15864 1fbd 51       		.byte	0x51
 15865 1fbe 9F       		.byte	0x9f
 15866 1fbf 00000000 		.4byte	0
 15867 1fc3 00000000 		.4byte	0
 15868              	.LVUS18:
 15869 1fc7 00       		.uleb128 0
 15870 1fc8 00       		.uleb128 .LVU123
 15871 1fc9 00       		.uleb128 .LVU123
 15872 1fca 00       		.uleb128 .LVU125
 15873 1fcb 00       		.uleb128 .LVU125
 15874 1fcc 00       		.uleb128 .LVU129
 15875 1fcd 00       		.uleb128 .LVU129
 15876 1fce 00       		.uleb128 .LVU196
 15877 1fcf 00       		.uleb128 .LVU196
 15878 1fd0 00       		.uleb128 0
 15879              	.LLST18:
 15880 1fd1 00000000 		.4byte	.LVL36
 15881 1fd5 16000000 		.4byte	.LVL38
 15882 1fd9 0100     		.2byte	0x1
 15883 1fdb 52       		.byte	0x52
 15884 1fdc 16000000 		.4byte	.LVL38
 15885 1fe0 26000000 		.4byte	.LVL39
 15886 1fe4 0400     		.2byte	0x4
 15887 1fe6 F3       		.byte	0xf3
 15888 1fe7 01       		.uleb128 0x1
 15889 1fe8 52       		.byte	0x52
 15890 1fe9 9F       		.byte	0x9f
 15891 1fea 26000000 		.4byte	.LVL39
 15892 1fee 31000000 		.4byte	.LVL41-1
 15893 1ff2 0100     		.2byte	0x1
 15894 1ff4 52       		.byte	0x52
 15895 1ff5 31000000 		.4byte	.LVL41-1
 15896 1ff9 E6000000 		.4byte	.LVL62
 15897 1ffd 0100     		.2byte	0x1
 15898 1fff 56       		.byte	0x56
 15899 2000 E6000000 		.4byte	.LVL62
 15900 2004 F0000000 		.4byte	.LFE4
 15901 2008 0400     		.2byte	0x4
 15902 200a F3       		.byte	0xf3
 15903 200b 01       		.uleb128 0x1
ARM GAS  /tmp/ccqyZH0w.s 			page 280


 15904 200c 52       		.byte	0x52
 15905 200d 9F       		.byte	0x9f
 15906 200e 00000000 		.4byte	0
 15907 2012 00000000 		.4byte	0
 15908              	.LVUS19:
 15909 2016 01       		.uleb128 .LVU112
 15910 2017 00       		.uleb128 .LVU123
 15911 2018 00       		.uleb128 .LVU123
 15912 2019 00       		.uleb128 .LVU125
 15913 201a 00       		.uleb128 .LVU125
 15914 201b 00       		.uleb128 .LVU129
 15915 201c 00       		.uleb128 .LVU129
 15916 201d 00       		.uleb128 .LVU133
 15917 201e 00       		.uleb128 .LVU134
 15918 201f 00       		.uleb128 .LVU138
 15919 2020 00       		.uleb128 .LVU139
 15920 2021 00       		.uleb128 .LVU143
 15921 2022 00       		.uleb128 .LVU144
 15922 2023 02       		.uleb128 .LVU156
 15923 2024 02       		.uleb128 .LVU156
 15924 2025 00       		.uleb128 .LVU161
 15925 2026 00       		.uleb128 .LVU161
 15926 2027 00       		.uleb128 .LVU165
 15927 2028 00       		.uleb128 .LVU166
 15928 2029 00       		.uleb128 .LVU188
 15929 202a 00       		.uleb128 .LVU188
 15930 202b 00       		.uleb128 .LVU194
 15931 202c 00       		.uleb128 .LVU195
 15932 202d 00       		.uleb128 .LVU197
 15933              	.LLST19:
 15934 202e 10000000 		.4byte	.LVL37
 15935 2032 16000000 		.4byte	.LVL38
 15936 2036 0200     		.2byte	0x2
 15937 2038 30       		.byte	0x30
 15938 2039 9F       		.byte	0x9f
 15939 203a 16000000 		.4byte	.LVL38
 15940 203e 26000000 		.4byte	.LVL39
 15941 2042 0100     		.2byte	0x1
 15942 2044 50       		.byte	0x50
 15943 2045 26000000 		.4byte	.LVL39
 15944 2049 32000000 		.4byte	.LVL41
 15945 204d 0200     		.2byte	0x2
 15946 204f 30       		.byte	0x30
 15947 2050 9F       		.byte	0x9f
 15948 2051 32000000 		.4byte	.LVL41
 15949 2055 3E000000 		.4byte	.LVL42
 15950 2059 0100     		.2byte	0x1
 15951 205b 50       		.byte	0x50
 15952 205c 42000000 		.4byte	.LVL43
 15953 2060 4C000000 		.4byte	.LVL44
 15954 2064 0100     		.2byte	0x1
 15955 2066 50       		.byte	0x50
 15956 2067 50000000 		.4byte	.LVL45
 15957 206b 5A000000 		.4byte	.LVL46
 15958 206f 0100     		.2byte	0x1
 15959 2071 50       		.byte	0x50
 15960 2072 5E000000 		.4byte	.LVL47
ARM GAS  /tmp/ccqyZH0w.s 			page 281


 15961 2076 7E000000 		.4byte	.LVL50
 15962 207a 0100     		.2byte	0x1
 15963 207c 50       		.byte	0x50
 15964 207d 7E000000 		.4byte	.LVL50
 15965 2081 8A000000 		.4byte	.LVL53
 15966 2085 0200     		.2byte	0x2
 15967 2087 30       		.byte	0x30
 15968 2088 9F       		.byte	0x9f
 15969 2089 8A000000 		.4byte	.LVL53
 15970 208d 98000000 		.4byte	.LVL54
 15971 2091 0100     		.2byte	0x1
 15972 2093 50       		.byte	0x50
 15973 2094 9A000000 		.4byte	.LVL55
 15974 2098 CE000000 		.4byte	.LVL59
 15975 209c 0200     		.2byte	0x2
 15976 209e 30       		.byte	0x30
 15977 209f 9F       		.byte	0x9f
 15978 20a0 CE000000 		.4byte	.LVL59
 15979 20a4 DE000000 		.4byte	.LVL60
 15980 20a8 0100     		.2byte	0x1
 15981 20aa 50       		.byte	0x50
 15982 20ab E4000000 		.4byte	.LVL61
 15983 20af E9000000 		.4byte	.LVL63-1
 15984 20b3 0100     		.2byte	0x1
 15985 20b5 50       		.byte	0x50
 15986 20b6 00000000 		.4byte	0
 15987 20ba 00000000 		.4byte	0
 15988              	.LVUS20:
 15989 20be 02       		.uleb128 .LVU113
 15990 20bf 00       		.uleb128 .LVU123
 15991 20c0 00       		.uleb128 .LVU125
 15992 20c1 00       		.uleb128 .LVU148
 15993 20c2 00       		.uleb128 .LVU148
 15994 20c3 00       		.uleb128 .LVU196
 15995              	.LLST20:
 15996 20c4 10000000 		.4byte	.LVL37
 15997 20c8 16000000 		.4byte	.LVL38
 15998 20cc 0200     		.2byte	0x2
 15999 20ce 30       		.byte	0x30
 16000 20cf 9F       		.byte	0x9f
 16001 20d0 26000000 		.4byte	.LVL39
 16002 20d4 6A000000 		.4byte	.LVL48
 16003 20d8 0200     		.2byte	0x2
 16004 20da 30       		.byte	0x30
 16005 20db 9F       		.byte	0x9f
 16006 20dc 6A000000 		.4byte	.LVL48
 16007 20e0 E6000000 		.4byte	.LVL62
 16008 20e4 0100     		.2byte	0x1
 16009 20e6 59       		.byte	0x59
 16010 20e7 00000000 		.4byte	0
 16011 20eb 00000000 		.4byte	0
 16012              	.LVUS21:
 16013 20ef 03       		.uleb128 .LVU114
 16014 20f0 00       		.uleb128 .LVU123
 16015 20f1 00       		.uleb128 .LVU125
 16016 20f2 00       		.uleb128 .LVU148
 16017 20f3 00       		.uleb128 .LVU148
ARM GAS  /tmp/ccqyZH0w.s 			page 282


 16018 20f4 00       		.uleb128 .LVU153
 16019 20f5 00       		.uleb128 .LVU153
 16020 20f6 01       		.uleb128 .LVU155
 16021 20f7 01       		.uleb128 .LVU155
 16022 20f8 00       		.uleb128 .LVU196
 16023              	.LLST21:
 16024 20f9 10000000 		.4byte	.LVL37
 16025 20fd 16000000 		.4byte	.LVL38
 16026 2101 0200     		.2byte	0x2
 16027 2103 30       		.byte	0x30
 16028 2104 9F       		.byte	0x9f
 16029 2105 26000000 		.4byte	.LVL39
 16030 2109 6A000000 		.4byte	.LVL48
 16031 210d 0200     		.2byte	0x2
 16032 210f 30       		.byte	0x30
 16033 2110 9F       		.byte	0x9f
 16034 2111 6A000000 		.4byte	.LVL48
 16035 2115 7A000000 		.4byte	.LVL49
 16036 2119 0100     		.2byte	0x1
 16037 211b 58       		.byte	0x58
 16038 211c 7A000000 		.4byte	.LVL49
 16039 2120 7E000000 		.4byte	.LVL50
 16040 2124 0300     		.2byte	0x3
 16041 2126 78       		.byte	0x78
 16042 2127 7F       		.sleb128 -1
 16043 2128 9F       		.byte	0x9f
 16044 2129 7E000000 		.4byte	.LVL50
 16045 212d E6000000 		.4byte	.LVL62
 16046 2131 0100     		.2byte	0x1
 16047 2133 58       		.byte	0x58
 16048 2134 00000000 		.4byte	0
 16049 2138 00000000 		.4byte	0
 16050              	.LVUS22:
 16051 213c 01       		.uleb128 .LVU170
 16052 213d 00       		.uleb128 .LVU196
 16053              	.LLST22:
 16054 213e A6000000 		.4byte	.LVL56
 16055 2142 E6000000 		.4byte	.LVL62
 16056 2146 1200     		.2byte	0x12
 16057 2148 79       		.byte	0x79
 16058 2149 00       		.sleb128 0
 16059 214a 0A       		.byte	0xa
 16060 214b FFFF     		.2byte	0xffff
 16061 214d 1A       		.byte	0x1a
 16062 214e 40       		.byte	0x40
 16063 214f 24       		.byte	0x24
 16064 2150 F7       		.byte	0xf7
 16065 2151 25       		.uleb128 0x25
 16066 2152 78       		.byte	0x78
 16067 2153 00       		.sleb128 0
 16068 2154 F7       		.byte	0xf7
 16069 2155 25       		.uleb128 0x25
 16070 2156 1B       		.byte	0x1b
 16071 2157 F7       		.byte	0xf7
 16072 2158 00       		.uleb128 0
 16073 2159 9F       		.byte	0x9f
 16074 215a 00000000 		.4byte	0
ARM GAS  /tmp/ccqyZH0w.s 			page 283


 16075 215e 00000000 		.4byte	0
 16076              	.LVUS23:
 16077 2162 02       		.uleb128 .LVU171
 16078 2163 00       		.uleb128 .LVU196
 16079              	.LLST23:
 16080 2164 A6000000 		.4byte	.LVL56
 16081 2168 E6000000 		.4byte	.LVL62
 16082 216c 1800     		.2byte	0x18
 16083 216e 79       		.byte	0x79
 16084 216f 00       		.sleb128 0
 16085 2170 0A       		.byte	0xa
 16086 2171 FFFF     		.2byte	0xffff
 16087 2173 1A       		.byte	0x1a
 16088 2174 40       		.byte	0x40
 16089 2175 24       		.byte	0x24
 16090 2176 F7       		.byte	0xf7
 16091 2177 25       		.uleb128 0x25
 16092 2178 78       		.byte	0x78
 16093 2179 00       		.sleb128 0
 16094 217a F7       		.byte	0xf7
 16095 217b 25       		.uleb128 0x25
 16096 217c 1B       		.byte	0x1b
 16097 217d F7       		.byte	0xf7
 16098 217e 00       		.uleb128 0
 16099 217f 23       		.byte	0x23
 16100 2180 808002   		.uleb128 0x8000
 16101 2183 40       		.byte	0x40
 16102 2184 25       		.byte	0x25
 16103 2185 9F       		.byte	0x9f
 16104 2186 00000000 		.4byte	0
 16105 218a 00000000 		.4byte	0
 16106              	.LVUS24:
 16107 218e 03       		.uleb128 .LVU172
 16108 218f 00       		.uleb128 .LVU177
 16109 2190 00       		.uleb128 .LVU177
 16110 2191 00       		.uleb128 .LVU180
 16111 2192 00       		.uleb128 .LVU180
 16112 2193 00       		.uleb128 .LVU196
 16113              	.LLST24:
 16114 2194 A6000000 		.4byte	.LVL56
 16115 2198 B6000000 		.4byte	.LVL57
 16116 219c 0700     		.2byte	0x7
 16117 219e 75       		.byte	0x75
 16118 219f 808002   		.sleb128 32768
 16119 21a2 40       		.byte	0x40
 16120 21a3 25       		.byte	0x25
 16121 21a4 9F       		.byte	0x9f
 16122 21a5 B6000000 		.4byte	.LVL57
 16123 21a9 C0000000 		.4byte	.LVL58
 16124 21ad 0500     		.2byte	0x5
 16125 21af 75       		.byte	0x75
 16126 21b0 00       		.sleb128 0
 16127 21b1 40       		.byte	0x40
 16128 21b2 25       		.byte	0x25
 16129 21b3 9F       		.byte	0x9f
 16130 21b4 C0000000 		.4byte	.LVL58
 16131 21b8 E6000000 		.4byte	.LVL62
ARM GAS  /tmp/ccqyZH0w.s 			page 284


 16132 21bc 0A00     		.2byte	0xa
 16133 21be F3       		.byte	0xf3
 16134 21bf 01       		.uleb128 0x1
 16135 21c0 51       		.byte	0x51
 16136 21c1 23       		.byte	0x23
 16137 21c2 808002   		.uleb128 0x8000
 16138 21c5 40       		.byte	0x40
 16139 21c6 25       		.byte	0x25
 16140 21c7 9F       		.byte	0x9f
 16141 21c8 00000000 		.4byte	0
 16142 21cc 00000000 		.4byte	0
 16143              	.LVUS25:
 16144 21d0 09       		.uleb128 .LVU120
 16145 21d1 00       		.uleb128 .LVU123
 16146 21d2 00       		.uleb128 .LVU125
 16147 21d3 00       		.uleb128 .LVU148
 16148 21d4 00       		.uleb128 .LVU148
 16149 21d5 02       		.uleb128 .LVU156
 16150 21d6 02       		.uleb128 .LVU156
 16151 21d7 00       		.uleb128 .LVU158
 16152 21d8 00       		.uleb128 .LVU158
 16153 21d9 00       		.uleb128 .LVU196
 16154              	.LLST25:
 16155 21da 10000000 		.4byte	.LVL37
 16156 21de 16000000 		.4byte	.LVL38
 16157 21e2 0200     		.2byte	0x2
 16158 21e4 30       		.byte	0x30
 16159 21e5 9F       		.byte	0x9f
 16160 21e6 26000000 		.4byte	.LVL39
 16161 21ea 6A000000 		.4byte	.LVL48
 16162 21ee 0200     		.2byte	0x2
 16163 21f0 30       		.byte	0x30
 16164 21f1 9F       		.byte	0x9f
 16165 21f2 6A000000 		.4byte	.LVL48
 16166 21f6 7E000000 		.4byte	.LVL50
 16167 21fa 0600     		.2byte	0x6
 16168 21fc 08       		.byte	0x8
 16169 21fd 32       		.byte	0x32
 16170 21fe 77       		.byte	0x77
 16171 21ff 00       		.sleb128 0
 16172 2200 1C       		.byte	0x1c
 16173 2201 9F       		.byte	0x9f
 16174 2202 7E000000 		.4byte	.LVL50
 16175 2206 80000000 		.4byte	.LVL51
 16176 220a 0600     		.2byte	0x6
 16177 220c 08       		.byte	0x8
 16178 220d 33       		.byte	0x33
 16179 220e 77       		.byte	0x77
 16180 220f 00       		.sleb128 0
 16181 2210 1C       		.byte	0x1c
 16182 2211 9F       		.byte	0x9f
 16183 2212 80000000 		.4byte	.LVL51
 16184 2216 E6000000 		.4byte	.LVL62
 16185 221a 0600     		.2byte	0x6
 16186 221c 08       		.byte	0x8
 16187 221d 32       		.byte	0x32
 16188 221e 77       		.byte	0x77
ARM GAS  /tmp/ccqyZH0w.s 			page 285


 16189 221f 00       		.sleb128 0
 16190 2220 1C       		.byte	0x1c
 16191 2221 9F       		.byte	0x9f
 16192 2222 00000000 		.4byte	0
 16193 2226 00000000 		.4byte	0
 16194              	.LVUS0:
 16195 222a 00       		.uleb128 0
 16196 222b 00       		.uleb128 .LVU20
 16197 222c 00       		.uleb128 .LVU20
 16198 222d 00       		.uleb128 .LVU22
 16199 222e 00       		.uleb128 .LVU22
 16200 222f 00       		.uleb128 .LVU26
 16201 2230 00       		.uleb128 .LVU26
 16202 2231 00       		.uleb128 .LVU106
 16203 2232 00       		.uleb128 .LVU106
 16204 2233 00       		.uleb128 0
 16205              	.LLST0:
 16206 2234 00000000 		.4byte	.LVL0
 16207 2238 16000000 		.4byte	.LVL2
 16208 223c 0100     		.2byte	0x1
 16209 223e 50       		.byte	0x50
 16210 223f 16000000 		.4byte	.LVL2
 16211 2243 26000000 		.4byte	.LVL3
 16212 2247 0400     		.2byte	0x4
 16213 2249 F3       		.byte	0xf3
 16214 224a 01       		.uleb128 0x1
 16215 224b 50       		.byte	0x50
 16216 224c 9F       		.byte	0x9f
 16217 224d 26000000 		.4byte	.LVL3
 16218 2251 31000000 		.4byte	.LVL5-1
 16219 2255 0100     		.2byte	0x1
 16220 2257 50       		.byte	0x50
 16221 2258 31000000 		.4byte	.LVL5-1
 16222 225c F0000000 		.4byte	.LVL34
 16223 2260 0100     		.2byte	0x1
 16224 2262 56       		.byte	0x56
 16225 2263 F0000000 		.4byte	.LVL34
 16226 2267 F8000000 		.4byte	.LFE3
 16227 226b 0400     		.2byte	0x4
 16228 226d F3       		.byte	0xf3
 16229 226e 01       		.uleb128 0x1
 16230 226f 50       		.byte	0x50
 16231 2270 9F       		.byte	0x9f
 16232 2271 00000000 		.4byte	0
 16233 2275 00000000 		.4byte	0
 16234              	.LVUS1:
 16235 2279 00       		.uleb128 0
 16236 227a 00       		.uleb128 .LVU20
 16237 227b 00       		.uleb128 .LVU20
 16238 227c 00       		.uleb128 .LVU22
 16239 227d 00       		.uleb128 .LVU22
 16240 227e 00       		.uleb128 .LVU25
 16241 227f 00       		.uleb128 .LVU25
 16242 2280 00       		.uleb128 .LVU106
 16243 2281 00       		.uleb128 .LVU106
 16244 2282 00       		.uleb128 0
 16245              	.LLST1:
ARM GAS  /tmp/ccqyZH0w.s 			page 286


 16246 2283 00000000 		.4byte	.LVL0
 16247 2287 16000000 		.4byte	.LVL2
 16248 228b 0100     		.2byte	0x1
 16249 228d 51       		.byte	0x51
 16250 228e 16000000 		.4byte	.LVL2
 16251 2292 26000000 		.4byte	.LVL3
 16252 2296 0400     		.2byte	0x4
 16253 2298 F3       		.byte	0xf3
 16254 2299 01       		.uleb128 0x1
 16255 229a 51       		.byte	0x51
 16256 229b 9F       		.byte	0x9f
 16257 229c 26000000 		.4byte	.LVL3
 16258 22a0 2A000000 		.4byte	.LVL4
 16259 22a4 0100     		.2byte	0x1
 16260 22a6 51       		.byte	0x51
 16261 22a7 2A000000 		.4byte	.LVL4
 16262 22ab F0000000 		.4byte	.LVL34
 16263 22af 0100     		.2byte	0x1
 16264 22b1 5A       		.byte	0x5a
 16265 22b2 F0000000 		.4byte	.LVL34
 16266 22b6 F8000000 		.4byte	.LFE3
 16267 22ba 0400     		.2byte	0x4
 16268 22bc F3       		.byte	0xf3
 16269 22bd 01       		.uleb128 0x1
 16270 22be 51       		.byte	0x51
 16271 22bf 9F       		.byte	0x9f
 16272 22c0 00000000 		.4byte	0
 16273 22c4 00000000 		.4byte	0
 16274              	.LVUS2:
 16275 22c8 00       		.uleb128 0
 16276 22c9 00       		.uleb128 .LVU20
 16277 22ca 00       		.uleb128 .LVU20
 16278 22cb 00       		.uleb128 .LVU22
 16279 22cc 00       		.uleb128 .LVU22
 16280 22cd 00       		.uleb128 .LVU26
 16281 22ce 00       		.uleb128 .LVU26
 16282 22cf 00       		.uleb128 .LVU106
 16283 22d0 00       		.uleb128 .LVU106
 16284 22d1 00       		.uleb128 0
 16285              	.LLST2:
 16286 22d2 00000000 		.4byte	.LVL0
 16287 22d6 16000000 		.4byte	.LVL2
 16288 22da 0100     		.2byte	0x1
 16289 22dc 52       		.byte	0x52
 16290 22dd 16000000 		.4byte	.LVL2
 16291 22e1 26000000 		.4byte	.LVL3
 16292 22e5 0400     		.2byte	0x4
 16293 22e7 F3       		.byte	0xf3
 16294 22e8 01       		.uleb128 0x1
 16295 22e9 52       		.byte	0x52
 16296 22ea 9F       		.byte	0x9f
 16297 22eb 26000000 		.4byte	.LVL3
 16298 22ef 31000000 		.4byte	.LVL5-1
 16299 22f3 0100     		.2byte	0x1
 16300 22f5 52       		.byte	0x52
 16301 22f6 31000000 		.4byte	.LVL5-1
 16302 22fa F0000000 		.4byte	.LVL34
ARM GAS  /tmp/ccqyZH0w.s 			page 287


 16303 22fe 0100     		.2byte	0x1
 16304 2300 5B       		.byte	0x5b
 16305 2301 F0000000 		.4byte	.LVL34
 16306 2305 F8000000 		.4byte	.LFE3
 16307 2309 0400     		.2byte	0x4
 16308 230b F3       		.byte	0xf3
 16309 230c 01       		.uleb128 0x1
 16310 230d 52       		.byte	0x52
 16311 230e 9F       		.byte	0x9f
 16312 230f 00000000 		.4byte	0
 16313 2313 00000000 		.4byte	0
 16314              	.LVUS3:
 16315 2317 01       		.uleb128 .LVU4
 16316 2318 00       		.uleb128 .LVU20
 16317 2319 00       		.uleb128 .LVU20
 16318 231a 00       		.uleb128 .LVU22
 16319 231b 00       		.uleb128 .LVU22
 16320 231c 00       		.uleb128 .LVU26
 16321 231d 00       		.uleb128 .LVU26
 16322 231e 00       		.uleb128 .LVU30
 16323 231f 00       		.uleb128 .LVU31
 16324 2320 03       		.uleb128 .LVU53
 16325 2321 03       		.uleb128 .LVU53
 16326 2322 00       		.uleb128 .LVU57
 16327 2323 00       		.uleb128 .LVU57
 16328 2324 00       		.uleb128 .LVU61
 16329 2325 00       		.uleb128 .LVU62
 16330 2326 00       		.uleb128 .LVU98
 16331 2327 00       		.uleb128 .LVU98
 16332 2328 00       		.uleb128 .LVU102
 16333 2329 00       		.uleb128 .LVU103
 16334 232a 00       		.uleb128 .LVU104
 16335 232b 00       		.uleb128 .LVU104
 16336 232c 00       		.uleb128 .LVU106
 16337 232d 00       		.uleb128 .LVU106
 16338 232e 00       		.uleb128 .LVU107
 16339              	.LLST3:
 16340 232f 10000000 		.4byte	.LVL1
 16341 2333 16000000 		.4byte	.LVL2
 16342 2337 0200     		.2byte	0x2
 16343 2339 30       		.byte	0x30
 16344 233a 9F       		.byte	0x9f
 16345 233b 16000000 		.4byte	.LVL2
 16346 233f 26000000 		.4byte	.LVL3
 16347 2343 0100     		.2byte	0x1
 16348 2345 50       		.byte	0x50
 16349 2346 26000000 		.4byte	.LVL3
 16350 234a 32000000 		.4byte	.LVL5
 16351 234e 0200     		.2byte	0x2
 16352 2350 30       		.byte	0x30
 16353 2351 9F       		.byte	0x9f
 16354 2352 32000000 		.4byte	.LVL5
 16355 2356 3C000000 		.4byte	.LVL6
 16356 235a 0100     		.2byte	0x1
 16357 235c 50       		.byte	0x50
 16358 235d 40000000 		.4byte	.LVL7
 16359 2361 70000000 		.4byte	.LVL13
ARM GAS  /tmp/ccqyZH0w.s 			page 288


 16360 2365 0100     		.2byte	0x1
 16361 2367 50       		.byte	0x50
 16362 2368 70000000 		.4byte	.LVL13
 16363 236c 80000000 		.4byte	.LVL16
 16364 2370 0200     		.2byte	0x2
 16365 2372 30       		.byte	0x30
 16366 2373 9F       		.byte	0x9f
 16367 2374 80000000 		.4byte	.LVL16
 16368 2378 8C000000 		.4byte	.LVL17
 16369 237c 0100     		.2byte	0x1
 16370 237e 50       		.byte	0x50
 16371 237f 8E000000 		.4byte	.LVL18
 16372 2383 DE000000 		.4byte	.LVL29
 16373 2387 0200     		.2byte	0x2
 16374 2389 30       		.byte	0x30
 16375 238a 9F       		.byte	0x9f
 16376 238b DE000000 		.4byte	.LVL29
 16377 238f E6000000 		.4byte	.LVL30
 16378 2393 0100     		.2byte	0x1
 16379 2395 50       		.byte	0x50
 16380 2396 EA000000 		.4byte	.LVL31
 16381 239a EC000000 		.4byte	.LVL32
 16382 239e 0100     		.2byte	0x1
 16383 23a0 50       		.byte	0x50
 16384 23a1 EC000000 		.4byte	.LVL32
 16385 23a5 F0000000 		.4byte	.LVL34
 16386 23a9 0200     		.2byte	0x2
 16387 23ab 30       		.byte	0x30
 16388 23ac 9F       		.byte	0x9f
 16389 23ad F0000000 		.4byte	.LVL34
 16390 23b1 F3000000 		.4byte	.LVL35-1
 16391 23b5 0100     		.2byte	0x1
 16392 23b7 50       		.byte	0x50
 16393 23b8 00000000 		.4byte	0
 16394 23bc 00000000 		.4byte	0
 16395              	.LVUS4:
 16396 23c0 02       		.uleb128 .LVU5
 16397 23c1 00       		.uleb128 .LVU20
 16398 23c2 00       		.uleb128 .LVU22
 16399 23c3 00       		.uleb128 .LVU37
 16400 23c4 00       		.uleb128 .LVU37
 16401 23c5 00       		.uleb128 .LVU44
 16402 23c6 00       		.uleb128 .LVU47
 16403 23c7 00       		.uleb128 .LVU80
 16404              	.LLST4:
 16405 23c8 10000000 		.4byte	.LVL1
 16406 23cc 16000000 		.4byte	.LVL2
 16407 23d0 0200     		.2byte	0x2
 16408 23d2 30       		.byte	0x30
 16409 23d3 9F       		.byte	0x9f
 16410 23d4 26000000 		.4byte	.LVL3
 16411 23d8 50000000 		.4byte	.LVL8
 16412 23dc 0200     		.2byte	0x2
 16413 23de 30       		.byte	0x30
 16414 23df 9F       		.byte	0x9f
 16415 23e0 50000000 		.4byte	.LVL8
 16416 23e4 62000000 		.4byte	.LVL9
ARM GAS  /tmp/ccqyZH0w.s 			page 289


 16417 23e8 0100     		.2byte	0x1
 16418 23ea 58       		.byte	0x58
 16419 23eb 6C000000 		.4byte	.LVL12
 16420 23ef B0000000 		.4byte	.LVL24
 16421 23f3 0100     		.2byte	0x1
 16422 23f5 58       		.byte	0x58
 16423 23f6 00000000 		.4byte	0
 16424 23fa 00000000 		.4byte	0
 16425              	.LVUS5:
 16426 23fe 03       		.uleb128 .LVU6
 16427 23ff 00       		.uleb128 .LVU20
 16428 2400 00       		.uleb128 .LVU22
 16429 2401 00       		.uleb128 .LVU37
 16430 2402 00       		.uleb128 .LVU37
 16431 2403 00       		.uleb128 .LVU45
 16432 2404 01       		.uleb128 .LVU51
 16433 2405 00       		.uleb128 .LVU75
 16434              	.LLST5:
 16435 2406 10000000 		.4byte	.LVL1
 16436 240a 16000000 		.4byte	.LVL2
 16437 240e 0200     		.2byte	0x2
 16438 2410 30       		.byte	0x30
 16439 2411 9F       		.byte	0x9f
 16440 2412 26000000 		.4byte	.LVL3
 16441 2416 50000000 		.4byte	.LVL8
 16442 241a 0200     		.2byte	0x2
 16443 241c 30       		.byte	0x30
 16444 241d 9F       		.byte	0x9f
 16445 241e 50000000 		.4byte	.LVL8
 16446 2422 66000000 		.4byte	.LVL10
 16447 2426 0100     		.2byte	0x1
 16448 2428 55       		.byte	0x55
 16449 2429 70000000 		.4byte	.LVL13
 16450 242d A2000000 		.4byte	.LVL21
 16451 2431 0100     		.2byte	0x1
 16452 2433 55       		.byte	0x55
 16453 2434 00000000 		.4byte	0
 16454 2438 00000000 		.4byte	0
 16455              	.LVUS6:
 16456 243c 04       		.uleb128 .LVU7
 16457 243d 00       		.uleb128 .LVU20
 16458 243e 00       		.uleb128 .LVU22
 16459 243f 00       		.uleb128 .LVU37
 16460 2440 00       		.uleb128 .LVU37
 16461 2441 00       		.uleb128 .LVU106
 16462              	.LLST6:
 16463 2442 10000000 		.4byte	.LVL1
 16464 2446 16000000 		.4byte	.LVL2
 16465 244a 0200     		.2byte	0x2
 16466 244c 30       		.byte	0x30
 16467 244d 9F       		.byte	0x9f
 16468 244e 26000000 		.4byte	.LVL3
 16469 2452 50000000 		.4byte	.LVL8
 16470 2456 0200     		.2byte	0x2
 16471 2458 30       		.byte	0x30
 16472 2459 9F       		.byte	0x9f
 16473 245a 50000000 		.4byte	.LVL8
ARM GAS  /tmp/ccqyZH0w.s 			page 290


 16474 245e F0000000 		.4byte	.LVL34
 16475 2462 0100     		.2byte	0x1
 16476 2464 59       		.byte	0x59
 16477 2465 00000000 		.4byte	0
 16478 2469 00000000 		.4byte	0
 16479              	.LVUS7:
 16480 246d 05       		.uleb128 .LVU8
 16481 246e 00       		.uleb128 .LVU20
 16482 246f 00       		.uleb128 .LVU22
 16483 2470 00       		.uleb128 .LVU37
 16484 2471 00       		.uleb128 .LVU37
 16485 2472 00       		.uleb128 .LVU46
 16486 2473 00       		.uleb128 .LVU46
 16487 2474 02       		.uleb128 .LVU52
 16488 2475 02       		.uleb128 .LVU52
 16489 2476 00       		.uleb128 .LVU106
 16490              	.LLST7:
 16491 2477 10000000 		.4byte	.LVL1
 16492 247b 16000000 		.4byte	.LVL2
 16493 247f 0200     		.2byte	0x2
 16494 2481 30       		.byte	0x30
 16495 2482 9F       		.byte	0x9f
 16496 2483 26000000 		.4byte	.LVL3
 16497 2487 50000000 		.4byte	.LVL8
 16498 248b 0200     		.2byte	0x2
 16499 248d 30       		.byte	0x30
 16500 248e 9F       		.byte	0x9f
 16501 248f 50000000 		.4byte	.LVL8
 16502 2493 68000000 		.4byte	.LVL11
 16503 2497 0100     		.2byte	0x1
 16504 2499 57       		.byte	0x57
 16505 249a 68000000 		.4byte	.LVL11
 16506 249e 70000000 		.4byte	.LVL13
 16507 24a2 0300     		.2byte	0x3
 16508 24a4 77       		.byte	0x77
 16509 24a5 7F       		.sleb128 -1
 16510 24a6 9F       		.byte	0x9f
 16511 24a7 70000000 		.4byte	.LVL13
 16512 24ab F0000000 		.4byte	.LVL34
 16513 24af 0100     		.2byte	0x1
 16514 24b1 57       		.byte	0x57
 16515 24b2 00000000 		.4byte	0
 16516 24b6 00000000 		.4byte	0
 16517              	.LVUS8:
 16518 24ba 06       		.uleb128 .LVU9
 16519 24bb 00       		.uleb128 .LVU20
 16520 24bc 00       		.uleb128 .LVU22
 16521 24bd 00       		.uleb128 .LVU37
 16522 24be 00       		.uleb128 .LVU37
 16523 24bf 03       		.uleb128 .LVU53
 16524 24c0 03       		.uleb128 .LVU53
 16525 24c1 00       		.uleb128 .LVU54
 16526 24c2 00       		.uleb128 .LVU55
 16527 24c3 00       		.uleb128 .LVU62
 16528              	.LLST8:
 16529 24c4 10000000 		.4byte	.LVL1
 16530 24c8 16000000 		.4byte	.LVL2
ARM GAS  /tmp/ccqyZH0w.s 			page 291


 16531 24cc 0200     		.2byte	0x2
 16532 24ce 30       		.byte	0x30
 16533 24cf 9F       		.byte	0x9f
 16534 24d0 26000000 		.4byte	.LVL3
 16535 24d4 50000000 		.4byte	.LVL8
 16536 24d8 0200     		.2byte	0x2
 16537 24da 30       		.byte	0x30
 16538 24db 9F       		.byte	0x9f
 16539 24dc 50000000 		.4byte	.LVL8
 16540 24e0 70000000 		.4byte	.LVL13
 16541 24e4 0600     		.2byte	0x6
 16542 24e6 08       		.byte	0x8
 16543 24e7 32       		.byte	0x32
 16544 24e8 74       		.byte	0x74
 16545 24e9 00       		.sleb128 0
 16546 24ea 1C       		.byte	0x1c
 16547 24eb 9F       		.byte	0x9f
 16548 24ec 70000000 		.4byte	.LVL13
 16549 24f0 72000000 		.4byte	.LVL14
 16550 24f4 0600     		.2byte	0x6
 16551 24f6 08       		.byte	0x8
 16552 24f7 33       		.byte	0x33
 16553 24f8 74       		.byte	0x74
 16554 24f9 00       		.sleb128 0
 16555 24fa 1C       		.byte	0x1c
 16556 24fb 9F       		.byte	0x9f
 16557 24fc 78000000 		.4byte	.LVL15
 16558 2500 8E000000 		.4byte	.LVL18
 16559 2504 0600     		.2byte	0x6
 16560 2506 08       		.byte	0x8
 16561 2507 32       		.byte	0x32
 16562 2508 74       		.byte	0x74
 16563 2509 00       		.sleb128 0
 16564 250a 1C       		.byte	0x1c
 16565 250b 9F       		.byte	0x9f
 16566 250c 00000000 		.4byte	0
 16567 2510 00000000 		.4byte	0
 16568              	.LVUS9:
 16569 2514 01       		.uleb128 .LVU66
 16570 2515 00       		.uleb128 .LVU86
 16571 2516 00       		.uleb128 .LVU86
 16572 2517 00       		.uleb128 .LVU88
 16573 2518 00       		.uleb128 .LVU88
 16574 2519 00       		.uleb128 .LVU106
 16575              	.LLST9:
 16576 251a 96000000 		.4byte	.LVL19
 16577 251e C0000000 		.4byte	.LVL25
 16578 2522 0C00     		.2byte	0xc
 16579 2524 79       		.byte	0x79
 16580 2525 00       		.sleb128 0
 16581 2526 F7       		.byte	0xf7
 16582 2527 25       		.uleb128 0x25
 16583 2528 77       		.byte	0x77
 16584 2529 00       		.sleb128 0
 16585 252a F7       		.byte	0xf7
 16586 252b 25       		.uleb128 0x25
 16587 252c 1B       		.byte	0x1b
ARM GAS  /tmp/ccqyZH0w.s 			page 292


 16588 252d F7       		.byte	0xf7
 16589 252e 00       		.uleb128 0
 16590 252f 9F       		.byte	0x9f
 16591 2530 C0000000 		.4byte	.LVL25
 16592 2534 C8000000 		.4byte	.LVL26
 16593 2538 0100     		.2byte	0x1
 16594 253a 51       		.byte	0x51
 16595 253b C8000000 		.4byte	.LVL26
 16596 253f F0000000 		.4byte	.LVL34
 16597 2543 0C00     		.2byte	0xc
 16598 2545 79       		.byte	0x79
 16599 2546 00       		.sleb128 0
 16600 2547 F7       		.byte	0xf7
 16601 2548 25       		.uleb128 0x25
 16602 2549 77       		.byte	0x77
 16603 254a 00       		.sleb128 0
 16604 254b F7       		.byte	0xf7
 16605 254c 25       		.uleb128 0x25
 16606 254d 1B       		.byte	0x1b
 16607 254e F7       		.byte	0xf7
 16608 254f 00       		.uleb128 0
 16609 2550 9F       		.byte	0x9f
 16610 2551 00000000 		.4byte	0
 16611 2555 00000000 		.4byte	0
 16612              	.LVUS10:
 16613 2559 02       		.uleb128 .LVU67
 16614 255a 00       		.uleb128 .LVU80
 16615              	.LLST10:
 16616 255b 96000000 		.4byte	.LVL19
 16617 255f B0000000 		.4byte	.LVL24
 16618 2563 1200     		.2byte	0x12
 16619 2565 78       		.byte	0x78
 16620 2566 00       		.sleb128 0
 16621 2567 0A       		.byte	0xa
 16622 2568 FFFF     		.2byte	0xffff
 16623 256a 1A       		.byte	0x1a
 16624 256b 40       		.byte	0x40
 16625 256c 24       		.byte	0x24
 16626 256d F7       		.byte	0xf7
 16627 256e 25       		.uleb128 0x25
 16628 256f 77       		.byte	0x77
 16629 2570 00       		.sleb128 0
 16630 2571 F7       		.byte	0xf7
 16631 2572 25       		.uleb128 0x25
 16632 2573 1B       		.byte	0x1b
 16633 2574 F7       		.byte	0xf7
 16634 2575 00       		.uleb128 0
 16635 2576 9F       		.byte	0x9f
 16636 2577 00000000 		.4byte	0
 16637 257b 00000000 		.4byte	0
 16638              	.LVUS11:
 16639 257f 03       		.uleb128 .LVU68
 16640 2580 00       		.uleb128 .LVU75
 16641              	.LLST11:
 16642 2581 96000000 		.4byte	.LVL19
 16643 2585 A2000000 		.4byte	.LVL21
 16644 2589 1200     		.2byte	0x12
ARM GAS  /tmp/ccqyZH0w.s 			page 293


 16645 258b 75       		.byte	0x75
 16646 258c 00       		.sleb128 0
 16647 258d 0A       		.byte	0xa
 16648 258e FFFF     		.2byte	0xffff
 16649 2590 1A       		.byte	0x1a
 16650 2591 40       		.byte	0x40
 16651 2592 24       		.byte	0x24
 16652 2593 F7       		.byte	0xf7
 16653 2594 25       		.uleb128 0x25
 16654 2595 77       		.byte	0x77
 16655 2596 00       		.sleb128 0
 16656 2597 F7       		.byte	0xf7
 16657 2598 25       		.uleb128 0x25
 16658 2599 1B       		.byte	0x1b
 16659 259a F7       		.byte	0xf7
 16660 259b 00       		.uleb128 0
 16661 259c 9F       		.byte	0x9f
 16662 259d 00000000 		.4byte	0
 16663 25a1 00000000 		.4byte	0
 16664              	.LVUS12:
 16665 25a5 00       		.uleb128 .LVU88
 16666 25a6 01       		.uleb128 .LVU89
 16667 25a7 01       		.uleb128 .LVU89
 16668 25a8 00       		.uleb128 .LVU92
 16669 25a9 00       		.uleb128 .LVU92
 16670 25aa 00       		.uleb128 .LVU93
 16671              	.LLST12:
 16672 25ab C8000000 		.4byte	.LVL26
 16673 25af C8000000 		.4byte	.LVL26
 16674 25b3 0100     		.2byte	0x1
 16675 25b5 51       		.byte	0x51
 16676 25b6 C8000000 		.4byte	.LVL26
 16677 25ba D0000000 		.4byte	.LVL27
 16678 25be 1700     		.2byte	0x17
 16679 25c0 40       		.byte	0x40
 16680 25c1 3C       		.byte	0x3c
 16681 25c2 24       		.byte	0x24
 16682 25c3 78       		.byte	0x78
 16683 25c4 00       		.sleb128 0
 16684 25c5 F7       		.byte	0xf7
 16685 25c6 25       		.uleb128 0x25
 16686 25c7 7A       		.byte	0x7a
 16687 25c8 808002   		.sleb128 32768
 16688 25cb 40       		.byte	0x40
 16689 25cc 25       		.byte	0x25
 16690 25cd F7       		.byte	0xf7
 16691 25ce 25       		.uleb128 0x25
 16692 25cf 1B       		.byte	0x1b
 16693 25d0 F7       		.byte	0xf7
 16694 25d1 00       		.uleb128 0
 16695 25d2 1C       		.byte	0x1c
 16696 25d3 71       		.byte	0x71
 16697 25d4 00       		.sleb128 0
 16698 25d5 1E       		.byte	0x1e
 16699 25d6 9F       		.byte	0x9f
 16700 25d7 D0000000 		.4byte	.LVL27
 16701 25db D2000000 		.4byte	.LVL28
ARM GAS  /tmp/ccqyZH0w.s 			page 294


 16702 25df 2900     		.2byte	0x29
 16703 25e1 40       		.byte	0x40
 16704 25e2 3C       		.byte	0x3c
 16705 25e3 24       		.byte	0x24
 16706 25e4 78       		.byte	0x78
 16707 25e5 00       		.sleb128 0
 16708 25e6 F7       		.byte	0xf7
 16709 25e7 25       		.uleb128 0x25
 16710 25e8 7A       		.byte	0x7a
 16711 25e9 808002   		.sleb128 32768
 16712 25ec 40       		.byte	0x40
 16713 25ed 25       		.byte	0x25
 16714 25ee F7       		.byte	0xf7
 16715 25ef 25       		.uleb128 0x25
 16716 25f0 1B       		.byte	0x1b
 16717 25f1 F7       		.byte	0xf7
 16718 25f2 00       		.uleb128 0
 16719 25f3 1C       		.byte	0x1c
 16720 25f4 79       		.byte	0x79
 16721 25f5 00       		.sleb128 0
 16722 25f6 F7       		.byte	0xf7
 16723 25f7 25       		.uleb128 0x25
 16724 25f8 77       		.byte	0x77
 16725 25f9 00       		.sleb128 0
 16726 25fa F7       		.byte	0xf7
 16727 25fb 25       		.uleb128 0x25
 16728 25fc 1B       		.byte	0x1b
 16729 25fd F7       		.byte	0xf7
 16730 25fe 00       		.uleb128 0
 16731 25ff F7       		.byte	0xf7
 16732 2600 25       		.uleb128 0x25
 16733 2601 75       		.byte	0x75
 16734 2602 00       		.sleb128 0
 16735 2603 F7       		.byte	0xf7
 16736 2604 25       		.uleb128 0x25
 16737 2605 1B       		.byte	0x1b
 16738 2606 F7       		.byte	0xf7
 16739 2607 00       		.uleb128 0
 16740 2608 1E       		.byte	0x1e
 16741 2609 9F       		.byte	0x9f
 16742 260a 00000000 		.4byte	0
 16743 260e 00000000 		.4byte	0
 16744              	.LVUS13:
 16745 2612 00       		.uleb128 .LVU72
 16746 2613 00       		.uleb128 .LVU75
 16747 2614 00       		.uleb128 .LVU75
 16748 2615 00       		.uleb128 .LVU93
 16749 2616 00       		.uleb128 .LVU104
 16750 2617 00       		.uleb128 .LVU105
 16751 2618 00       		.uleb128 .LVU105
 16752 2619 00       		.uleb128 .LVU106
 16753              	.LLST13:
 16754 261a A0000000 		.4byte	.LVL20
 16755 261e A2000000 		.4byte	.LVL21
 16756 2622 0500     		.2byte	0x5
 16757 2624 71       		.byte	0x71
 16758 2625 00       		.sleb128 0
ARM GAS  /tmp/ccqyZH0w.s 			page 295


 16759 2626 40       		.byte	0x40
 16760 2627 25       		.byte	0x25
 16761 2628 9F       		.byte	0x9f
 16762 2629 A2000000 		.4byte	.LVL21
 16763 262d D2000000 		.4byte	.LVL28
 16764 2631 0100     		.2byte	0x1
 16765 2633 55       		.byte	0x55
 16766 2634 EC000000 		.4byte	.LVL32
 16767 2638 EE000000 		.4byte	.LVL33
 16768 263c 0100     		.2byte	0x1
 16769 263e 55       		.byte	0x55
 16770 263f EE000000 		.4byte	.LVL33
 16771 2643 F0000000 		.4byte	.LVL34
 16772 2647 0500     		.2byte	0x5
 16773 2649 71       		.byte	0x71
 16774 264a 00       		.sleb128 0
 16775 264b 40       		.byte	0x40
 16776 264c 25       		.byte	0x25
 16777 264d 9F       		.byte	0x9f
 16778 264e 00000000 		.4byte	0
 16779 2652 00000000 		.4byte	0
 16780              	.LVUS14:
 16781 2656 01       		.uleb128 .LVU73
 16782 2657 00       		.uleb128 .LVU77
 16783 2658 00       		.uleb128 .LVU77
 16784 2659 00       		.uleb128 .LVU78
 16785 265a 00       		.uleb128 .LVU78
 16786 265b 00       		.uleb128 .LVU106
 16787              	.LLST14:
 16788 265c A0000000 		.4byte	.LVL20
 16789 2660 A8000000 		.4byte	.LVL22
 16790 2664 0700     		.2byte	0x7
 16791 2666 7A       		.byte	0x7a
 16792 2667 808002   		.sleb128 32768
 16793 266a 40       		.byte	0x40
 16794 266b 25       		.byte	0x25
 16795 266c 9F       		.byte	0x9f
 16796 266d A8000000 		.4byte	.LVL22
 16797 2671 AA000000 		.4byte	.LVL23
 16798 2675 0500     		.2byte	0x5
 16799 2677 73       		.byte	0x73
 16800 2678 00       		.sleb128 0
 16801 2679 40       		.byte	0x40
 16802 267a 25       		.byte	0x25
 16803 267b 9F       		.byte	0x9f
 16804 267c AA000000 		.4byte	.LVL23
 16805 2680 F0000000 		.4byte	.LVL34
 16806 2684 0700     		.2byte	0x7
 16807 2686 7A       		.byte	0x7a
 16808 2687 808002   		.sleb128 32768
 16809 268a 40       		.byte	0x40
 16810 268b 25       		.byte	0x25
 16811 268c 9F       		.byte	0x9f
 16812 268d 00000000 		.4byte	0
 16813 2691 00000000 		.4byte	0
 16814              	.LVUS15:
 16815 2695 00       		.uleb128 .LVU93
ARM GAS  /tmp/ccqyZH0w.s 			page 296


 16816 2696 00       		.uleb128 .LVU104
 16817              	.LLST15:
 16818 2697 D2000000 		.4byte	.LVL28
 16819 269b EC000000 		.4byte	.LVL32
 16820 269f 0100     		.2byte	0x1
 16821 26a1 55       		.byte	0x55
 16822 26a2 00000000 		.4byte	0
 16823 26a6 00000000 		.4byte	0
 16824              	.LVUS45:
 16825 26aa 00       		.uleb128 0
 16826 26ab 00       		.uleb128 .LVU349
 16827 26ac 00       		.uleb128 .LVU349
 16828 26ad 00       		.uleb128 0
 16829              	.LLST45:
 16830 26ae 00000000 		.4byte	.LVL117
 16831 26b2 08000000 		.4byte	.LVL118
 16832 26b6 0100     		.2byte	0x1
 16833 26b8 50       		.byte	0x50
 16834 26b9 08000000 		.4byte	.LVL118
 16835 26bd 38000000 		.4byte	.LFE9
 16836 26c1 0400     		.2byte	0x4
 16837 26c3 F3       		.byte	0xf3
 16838 26c4 01       		.uleb128 0x1
 16839 26c5 50       		.byte	0x50
 16840 26c6 9F       		.byte	0x9f
 16841 26c7 00000000 		.4byte	0
 16842 26cb 00000000 		.4byte	0
 16843              	.LVUS46:
 16844 26cf 03       		.uleb128 .LVU357
 16845 26d0 00       		.uleb128 0
 16846              	.LLST46:
 16847 26d1 1A000000 		.4byte	.LVL119
 16848 26d5 38000000 		.4byte	.LFE9
 16849 26d9 0600     		.2byte	0x6
 16850 26db F3       		.byte	0xf3
 16851 26dc 01       		.uleb128 0x1
 16852 26dd 50       		.byte	0x50
 16853 26de 36       		.byte	0x36
 16854 26df 25       		.byte	0x25
 16855 26e0 9F       		.byte	0x9f
 16856 26e1 00000000 		.4byte	0
 16857 26e5 00000000 		.4byte	0
 16858              	.LVUS47:
 16859 26e9 02       		.uleb128 .LVU356
 16860 26ea 04       		.uleb128 .LVU358
 16861 26eb 04       		.uleb128 .LVU358
 16862 26ec 00       		.uleb128 .LVU361
 16863              	.LLST47:
 16864 26ed 1A000000 		.4byte	.LVL119
 16865 26f1 1A000000 		.4byte	.LVL119
 16866 26f5 0200     		.2byte	0x2
 16867 26f7 31       		.byte	0x31
 16868 26f8 9F       		.byte	0x9f
 16869 26f9 1A000000 		.4byte	.LVL119
 16870 26fd 2F000000 		.4byte	.LVL120-1
 16871 2701 1100     		.2byte	0x11
 16872 2703 F3       		.byte	0xf3
ARM GAS  /tmp/ccqyZH0w.s 			page 297


 16873 2704 01       		.uleb128 0x1
 16874 2705 50       		.byte	0x50
 16875 2706 36       		.byte	0x36
 16876 2707 25       		.byte	0x25
 16877 2708 32       		.byte	0x32
 16878 2709 24       		.byte	0x24
 16879 270a 03       		.byte	0x3
 16880 270b 00000000 		.4byte	refArrayQuadrants
 16881 270f 22       		.byte	0x22
 16882 2710 06       		.byte	0x6
 16883 2711 30       		.byte	0x30
 16884 2712 2E       		.byte	0x2e
 16885 2713 9F       		.byte	0x9f
 16886 2714 00000000 		.4byte	0
 16887 2718 00000000 		.4byte	0
 16888              	.LVUS48:
 16889 271c 00       		.uleb128 0
 16890 271d 00       		.uleb128 .LVU381
 16891 271e 00       		.uleb128 .LVU381
 16892 271f 00       		.uleb128 .LVU383
 16893 2720 00       		.uleb128 .LVU383
 16894 2721 00       		.uleb128 .LVU384
 16895 2722 00       		.uleb128 .LVU384
 16896 2723 00       		.uleb128 0
 16897              	.LLST48:
 16898 2724 00000000 		.4byte	.LVL121
 16899 2728 26000000 		.4byte	.LVL126
 16900 272c 0100     		.2byte	0x1
 16901 272e 50       		.byte	0x50
 16902 272f 26000000 		.4byte	.LVL126
 16903 2733 34000000 		.4byte	.LVL127
 16904 2737 0400     		.2byte	0x4
 16905 2739 F3       		.byte	0xf3
 16906 273a 01       		.uleb128 0x1
 16907 273b 50       		.byte	0x50
 16908 273c 9F       		.byte	0x9f
 16909 273d 34000000 		.4byte	.LVL127
 16910 2741 38000000 		.4byte	.LVL128
 16911 2745 0100     		.2byte	0x1
 16912 2747 50       		.byte	0x50
 16913 2748 38000000 		.4byte	.LVL128
 16914 274c 44000000 		.4byte	.LFE10
 16915 2750 0400     		.2byte	0x4
 16916 2752 F3       		.byte	0xf3
 16917 2753 01       		.uleb128 0x1
 16918 2754 50       		.byte	0x50
 16919 2755 9F       		.byte	0x9f
 16920 2756 00000000 		.4byte	0
 16921 275a 00000000 		.4byte	0
 16922              	.LVUS49:
 16923 275e 00       		.uleb128 0
 16924 275f 00       		.uleb128 .LVU386
 16925 2760 00       		.uleb128 .LVU386
 16926 2761 00       		.uleb128 0
 16927              	.LLST49:
 16928 2762 00000000 		.4byte	.LVL121
 16929 2766 3D000000 		.4byte	.LVL130-1
ARM GAS  /tmp/ccqyZH0w.s 			page 298


 16930 276a 0100     		.2byte	0x1
 16931 276c 51       		.byte	0x51
 16932 276d 3D000000 		.4byte	.LVL130-1
 16933 2771 44000000 		.4byte	.LFE10
 16934 2775 0400     		.2byte	0x4
 16935 2777 F3       		.byte	0xf3
 16936 2778 01       		.uleb128 0x1
 16937 2779 51       		.byte	0x51
 16938 277a 9F       		.byte	0x9f
 16939 277b 00000000 		.4byte	0
 16940 277f 00000000 		.4byte	0
 16941              	.LVUS50:
 16942 2783 00       		.uleb128 0
 16943 2784 00       		.uleb128 .LVU378
 16944 2785 00       		.uleb128 .LVU378
 16945 2786 00       		.uleb128 .LVU383
 16946 2787 00       		.uleb128 .LVU383
 16947 2788 00       		.uleb128 .LVU385
 16948 2789 00       		.uleb128 .LVU385
 16949 278a 00       		.uleb128 0
 16950              	.LLST50:
 16951 278b 00000000 		.4byte	.LVL121
 16952 278f 1E000000 		.4byte	.LVL125
 16953 2793 0100     		.2byte	0x1
 16954 2795 52       		.byte	0x52
 16955 2796 1E000000 		.4byte	.LVL125
 16956 279a 34000000 		.4byte	.LVL127
 16957 279e 0400     		.2byte	0x4
 16958 27a0 F3       		.byte	0xf3
 16959 27a1 01       		.uleb128 0x1
 16960 27a2 52       		.byte	0x52
 16961 27a3 9F       		.byte	0x9f
 16962 27a4 34000000 		.4byte	.LVL127
 16963 27a8 3A000000 		.4byte	.LVL129
 16964 27ac 0100     		.2byte	0x1
 16965 27ae 52       		.byte	0x52
 16966 27af 3A000000 		.4byte	.LVL129
 16967 27b3 44000000 		.4byte	.LFE10
 16968 27b7 0400     		.2byte	0x4
 16969 27b9 F3       		.byte	0xf3
 16970 27ba 01       		.uleb128 0x1
 16971 27bb 52       		.byte	0x52
 16972 27bc 9F       		.byte	0x9f
 16973 27bd 00000000 		.4byte	0
 16974 27c1 00000000 		.4byte	0
 16975              	.LVUS51:
 16976 27c5 01       		.uleb128 .LVU367
 16977 27c6 00       		.uleb128 .LVU381
 16978 27c7 00       		.uleb128 .LVU381
 16979 27c8 00       		.uleb128 .LVU383
 16980 27c9 00       		.uleb128 .LVU383
 16981 27ca 00       		.uleb128 .LVU385
 16982 27cb 00       		.uleb128 .LVU385
 16983 27cc 00       		.uleb128 .LVU386
 16984              	.LLST51:
 16985 27cd 12000000 		.4byte	.LVL122
 16986 27d1 26000000 		.4byte	.LVL126
ARM GAS  /tmp/ccqyZH0w.s 			page 299


 16987 27d5 0200     		.2byte	0x2
 16988 27d7 30       		.byte	0x30
 16989 27d8 9F       		.byte	0x9f
 16990 27d9 26000000 		.4byte	.LVL126
 16991 27dd 34000000 		.4byte	.LVL127
 16992 27e1 0100     		.2byte	0x1
 16993 27e3 50       		.byte	0x50
 16994 27e4 34000000 		.4byte	.LVL127
 16995 27e8 3A000000 		.4byte	.LVL129
 16996 27ec 0200     		.2byte	0x2
 16997 27ee 30       		.byte	0x30
 16998 27ef 9F       		.byte	0x9f
 16999 27f0 3A000000 		.4byte	.LVL129
 17000 27f4 3D000000 		.4byte	.LVL130-1
 17001 27f8 0100     		.2byte	0x1
 17002 27fa 50       		.byte	0x50
 17003 27fb 00000000 		.4byte	0
 17004 27ff 00000000 		.4byte	0
 17005              	.LVUS52:
 17006 2803 05       		.uleb128 .LVU371
 17007 2804 00       		.uleb128 .LVU374
 17008 2805 00       		.uleb128 .LVU374
 17009 2806 00       		.uleb128 .LVU381
 17010 2807 00       		.uleb128 .LVU381
 17011 2808 00       		.uleb128 .LVU383
 17012 2809 00       		.uleb128 .LVU383
 17013 280a 00       		.uleb128 .LVU385
 17014 280b 00       		.uleb128 .LVU385
 17015 280c 00       		.uleb128 0
 17016              	.LLST52:
 17017 280d 12000000 		.4byte	.LVL122
 17018 2811 16000000 		.4byte	.LVL123
 17019 2815 0500     		.2byte	0x5
 17020 2817 72       		.byte	0x72
 17021 2818 00       		.sleb128 0
 17022 2819 33       		.byte	0x33
 17023 281a 25       		.byte	0x25
 17024 281b 9F       		.byte	0x9f
 17025 281c 16000000 		.4byte	.LVL123
 17026 2820 26000000 		.4byte	.LVL126
 17027 2824 0100     		.2byte	0x1
 17028 2826 54       		.byte	0x54
 17029 2827 26000000 		.4byte	.LVL126
 17030 282b 34000000 		.4byte	.LVL127
 17031 282f 0600     		.2byte	0x6
 17032 2831 F3       		.byte	0xf3
 17033 2832 01       		.uleb128 0x1
 17034 2833 52       		.byte	0x52
 17035 2834 33       		.byte	0x33
 17036 2835 25       		.byte	0x25
 17037 2836 9F       		.byte	0x9f
 17038 2837 34000000 		.4byte	.LVL127
 17039 283b 3A000000 		.4byte	.LVL129
 17040 283f 0500     		.2byte	0x5
 17041 2841 72       		.byte	0x72
 17042 2842 00       		.sleb128 0
 17043 2843 33       		.byte	0x33
ARM GAS  /tmp/ccqyZH0w.s 			page 300


 17044 2844 25       		.byte	0x25
 17045 2845 9F       		.byte	0x9f
 17046 2846 3A000000 		.4byte	.LVL129
 17047 284a 44000000 		.4byte	.LFE10
 17048 284e 0600     		.2byte	0x6
 17049 2850 F3       		.byte	0xf3
 17050 2851 01       		.uleb128 0x1
 17051 2852 52       		.byte	0x52
 17052 2853 33       		.byte	0x33
 17053 2854 25       		.byte	0x25
 17054 2855 9F       		.byte	0x9f
 17055 2856 00000000 		.4byte	0
 17056 285a 00000000 		.4byte	0
 17057              	.LVUS53:
 17058 285e 06       		.uleb128 .LVU372
 17059 285f 00       		.uleb128 .LVU375
 17060 2860 00       		.uleb128 .LVU375
 17061 2861 00       		.uleb128 .LVU381
 17062 2862 00       		.uleb128 .LVU381
 17063 2863 00       		.uleb128 .LVU383
 17064 2864 00       		.uleb128 .LVU383
 17065 2865 00       		.uleb128 .LVU385
 17066 2866 00       		.uleb128 .LVU385
 17067 2867 00       		.uleb128 0
 17068              	.LLST53:
 17069 2868 12000000 		.4byte	.LVL122
 17070 286c 1A000000 		.4byte	.LVL124
 17071 2870 0500     		.2byte	0x5
 17072 2872 72       		.byte	0x72
 17073 2873 00       		.sleb128 0
 17074 2874 37       		.byte	0x37
 17075 2875 1A       		.byte	0x1a
 17076 2876 9F       		.byte	0x9f
 17077 2877 1A000000 		.4byte	.LVL124
 17078 287b 26000000 		.4byte	.LVL126
 17079 287f 0100     		.2byte	0x1
 17080 2881 55       		.byte	0x55
 17081 2882 26000000 		.4byte	.LVL126
 17082 2886 34000000 		.4byte	.LVL127
 17083 288a 0600     		.2byte	0x6
 17084 288c F3       		.byte	0xf3
 17085 288d 01       		.uleb128 0x1
 17086 288e 52       		.byte	0x52
 17087 288f 37       		.byte	0x37
 17088 2890 1A       		.byte	0x1a
 17089 2891 9F       		.byte	0x9f
 17090 2892 34000000 		.4byte	.LVL127
 17091 2896 3A000000 		.4byte	.LVL129
 17092 289a 0500     		.2byte	0x5
 17093 289c 72       		.byte	0x72
 17094 289d 00       		.sleb128 0
 17095 289e 37       		.byte	0x37
 17096 289f 1A       		.byte	0x1a
 17097 28a0 9F       		.byte	0x9f
 17098 28a1 3A000000 		.4byte	.LVL129
 17099 28a5 44000000 		.4byte	.LFE10
 17100 28a9 0600     		.2byte	0x6
ARM GAS  /tmp/ccqyZH0w.s 			page 301


 17101 28ab F3       		.byte	0xf3
 17102 28ac 01       		.uleb128 0x1
 17103 28ad 52       		.byte	0x52
 17104 28ae 37       		.byte	0x37
 17105 28af 1A       		.byte	0x1a
 17106 28b0 9F       		.byte	0x9f
 17107 28b1 00000000 		.4byte	0
 17108 28b5 00000000 		.4byte	0
 17109              	.LVUS66:
 17110 28b9 00       		.uleb128 0
 17111 28ba 00       		.uleb128 .LVU482
 17112 28bb 00       		.uleb128 .LVU482
 17113 28bc 00       		.uleb128 .LVU482
 17114 28bd 00       		.uleb128 .LVU482
 17115 28be 00       		.uleb128 .LVU483
 17116 28bf 00       		.uleb128 .LVU483
 17117 28c0 00       		.uleb128 0
 17118              	.LLST66:
 17119 28c1 00000000 		.4byte	.LVL153
 17120 28c5 27000000 		.4byte	.LVL155-1
 17121 28c9 0100     		.2byte	0x1
 17122 28cb 50       		.byte	0x50
 17123 28cc 27000000 		.4byte	.LVL155-1
 17124 28d0 28000000 		.4byte	.LVL155
 17125 28d4 0400     		.2byte	0x4
 17126 28d6 F3       		.byte	0xf3
 17127 28d7 01       		.uleb128 0x1
 17128 28d8 50       		.byte	0x50
 17129 28d9 9F       		.byte	0x9f
 17130 28da 28000000 		.4byte	.LVL155
 17131 28de 2B000000 		.4byte	.LVL156-1
 17132 28e2 0100     		.2byte	0x1
 17133 28e4 50       		.byte	0x50
 17134 28e5 2B000000 		.4byte	.LVL156-1
 17135 28e9 30000000 		.4byte	.LFE12
 17136 28ed 0400     		.2byte	0x4
 17137 28ef F3       		.byte	0xf3
 17138 28f0 01       		.uleb128 0x1
 17139 28f1 50       		.byte	0x50
 17140 28f2 9F       		.byte	0x9f
 17141 28f3 00000000 		.4byte	0
 17142 28f7 00000000 		.4byte	0
 17143              	.LVUS67:
 17144 28fb 00       		.uleb128 0
 17145 28fc 00       		.uleb128 .LVU479
 17146 28fd 00       		.uleb128 .LVU479
 17147 28fe 00       		.uleb128 .LVU482
 17148 28ff 00       		.uleb128 .LVU482
 17149 2900 00       		.uleb128 .LVU482
 17150 2901 00       		.uleb128 .LVU482
 17151 2902 00       		.uleb128 .LVU483
 17152 2903 00       		.uleb128 .LVU483
 17153 2904 00       		.uleb128 0
 17154              	.LLST67:
 17155 2905 00000000 		.4byte	.LVL153
 17156 2909 18000000 		.4byte	.LVL154
 17157 290d 0100     		.2byte	0x1
ARM GAS  /tmp/ccqyZH0w.s 			page 302


 17158 290f 51       		.byte	0x51
 17159 2910 18000000 		.4byte	.LVL154
 17160 2914 27000000 		.4byte	.LVL155-1
 17161 2918 0100     		.2byte	0x1
 17162 291a 52       		.byte	0x52
 17163 291b 27000000 		.4byte	.LVL155-1
 17164 291f 28000000 		.4byte	.LVL155
 17165 2923 0400     		.2byte	0x4
 17166 2925 F3       		.byte	0xf3
 17167 2926 01       		.uleb128 0x1
 17168 2927 51       		.byte	0x51
 17169 2928 9F       		.byte	0x9f
 17170 2929 28000000 		.4byte	.LVL155
 17171 292d 2B000000 		.4byte	.LVL156-1
 17172 2931 0100     		.2byte	0x1
 17173 2933 52       		.byte	0x52
 17174 2934 2B000000 		.4byte	.LVL156-1
 17175 2938 30000000 		.4byte	.LFE12
 17176 293c 0400     		.2byte	0x4
 17177 293e F3       		.byte	0xf3
 17178 293f 01       		.uleb128 0x1
 17179 2940 51       		.byte	0x51
 17180 2941 9F       		.byte	0x9f
 17181 2942 00000000 		.4byte	0
 17182 2946 00000000 		.4byte	0
 17183              	.LVUS68:
 17184 294a 00       		.uleb128 0
 17185 294b 00       		.uleb128 .LVU494
 17186 294c 00       		.uleb128 .LVU494
 17187 294d 00       		.uleb128 .LVU494
 17188 294e 00       		.uleb128 .LVU494
 17189 294f 00       		.uleb128 .LVU495
 17190 2950 00       		.uleb128 .LVU495
 17191 2951 00       		.uleb128 0
 17192              	.LLST68:
 17193 2952 00000000 		.4byte	.LVL157
 17194 2956 27000000 		.4byte	.LVL159-1
 17195 295a 0100     		.2byte	0x1
 17196 295c 50       		.byte	0x50
 17197 295d 27000000 		.4byte	.LVL159-1
 17198 2961 28000000 		.4byte	.LVL159
 17199 2965 0400     		.2byte	0x4
 17200 2967 F3       		.byte	0xf3
 17201 2968 01       		.uleb128 0x1
 17202 2969 50       		.byte	0x50
 17203 296a 9F       		.byte	0x9f
 17204 296b 28000000 		.4byte	.LVL159
 17205 296f 2B000000 		.4byte	.LVL160-1
 17206 2973 0100     		.2byte	0x1
 17207 2975 50       		.byte	0x50
 17208 2976 2B000000 		.4byte	.LVL160-1
 17209 297a 30000000 		.4byte	.LFE13
 17210 297e 0400     		.2byte	0x4
 17211 2980 F3       		.byte	0xf3
 17212 2981 01       		.uleb128 0x1
 17213 2982 50       		.byte	0x50
 17214 2983 9F       		.byte	0x9f
ARM GAS  /tmp/ccqyZH0w.s 			page 303


 17215 2984 00000000 		.4byte	0
 17216 2988 00000000 		.4byte	0
 17217              	.LVUS69:
 17218 298c 00       		.uleb128 0
 17219 298d 00       		.uleb128 .LVU491
 17220 298e 00       		.uleb128 .LVU491
 17221 298f 00       		.uleb128 .LVU494
 17222 2990 00       		.uleb128 .LVU494
 17223 2991 00       		.uleb128 .LVU494
 17224 2992 00       		.uleb128 .LVU494
 17225 2993 00       		.uleb128 .LVU495
 17226 2994 00       		.uleb128 .LVU495
 17227 2995 00       		.uleb128 0
 17228              	.LLST69:
 17229 2996 00000000 		.4byte	.LVL157
 17230 299a 18000000 		.4byte	.LVL158
 17231 299e 0100     		.2byte	0x1
 17232 29a0 51       		.byte	0x51
 17233 29a1 18000000 		.4byte	.LVL158
 17234 29a5 27000000 		.4byte	.LVL159-1
 17235 29a9 0100     		.2byte	0x1
 17236 29ab 52       		.byte	0x52
 17237 29ac 27000000 		.4byte	.LVL159-1
 17238 29b0 28000000 		.4byte	.LVL159
 17239 29b4 0400     		.2byte	0x4
 17240 29b6 F3       		.byte	0xf3
 17241 29b7 01       		.uleb128 0x1
 17242 29b8 51       		.byte	0x51
 17243 29b9 9F       		.byte	0x9f
 17244 29ba 28000000 		.4byte	.LVL159
 17245 29be 2B000000 		.4byte	.LVL160-1
 17246 29c2 0100     		.2byte	0x1
 17247 29c4 52       		.byte	0x52
 17248 29c5 2B000000 		.4byte	.LVL160-1
 17249 29c9 30000000 		.4byte	.LFE13
 17250 29cd 0400     		.2byte	0x4
 17251 29cf F3       		.byte	0xf3
 17252 29d0 01       		.uleb128 0x1
 17253 29d1 51       		.byte	0x51
 17254 29d2 9F       		.byte	0x9f
 17255 29d3 00000000 		.4byte	0
 17256 29d7 00000000 		.4byte	0
 17257              	.LVUS120:
 17258 29db 00       		.uleb128 0
 17259 29dc 00       		.uleb128 .LVU811
 17260 29dd 00       		.uleb128 .LVU811
 17261 29de 00       		.uleb128 .LVU830
 17262 29df 00       		.uleb128 .LVU830
 17263 29e0 00       		.uleb128 .LVU831
 17264 29e1 00       		.uleb128 .LVU831
 17265 29e2 00       		.uleb128 .LVU831
 17266 29e3 00       		.uleb128 .LVU831
 17267 29e4 00       		.uleb128 0
 17268              	.LLST120:
 17269 29e5 00000000 		.4byte	.LVL247
 17270 29e9 19000000 		.4byte	.LVL250-1
 17271 29ed 0100     		.2byte	0x1
ARM GAS  /tmp/ccqyZH0w.s 			page 304


 17272 29ef 50       		.byte	0x50
 17273 29f0 19000000 		.4byte	.LVL250-1
 17274 29f4 5A000000 		.4byte	.LVL259
 17275 29f8 0100     		.2byte	0x1
 17276 29fa 54       		.byte	0x54
 17277 29fb 5A000000 		.4byte	.LVL259
 17278 29ff 5D000000 		.4byte	.LVL260-1
 17279 2a03 0100     		.2byte	0x1
 17280 2a05 50       		.byte	0x50
 17281 2a06 5D000000 		.4byte	.LVL260-1
 17282 2a0a 5E000000 		.4byte	.LVL260
 17283 2a0e 0400     		.2byte	0x4
 17284 2a10 F3       		.byte	0xf3
 17285 2a11 01       		.uleb128 0x1
 17286 2a12 50       		.byte	0x50
 17287 2a13 9F       		.byte	0x9f
 17288 2a14 5E000000 		.4byte	.LVL260
 17289 2a18 68000000 		.4byte	.LFE19
 17290 2a1c 0100     		.2byte	0x1
 17291 2a1e 54       		.byte	0x54
 17292 2a1f 00000000 		.4byte	0
 17293 2a23 00000000 		.4byte	0
 17294              	.LVUS121:
 17295 2a27 00       		.uleb128 0
 17296 2a28 00       		.uleb128 .LVU806
 17297 2a29 00       		.uleb128 .LVU806
 17298 2a2a 00       		.uleb128 0
 17299              	.LLST121:
 17300 2a2b 00000000 		.4byte	.LVL247
 17301 2a2f 0C000000 		.4byte	.LVL248
 17302 2a33 0100     		.2byte	0x1
 17303 2a35 51       		.byte	0x51
 17304 2a36 0C000000 		.4byte	.LVL248
 17305 2a3a 68000000 		.4byte	.LFE19
 17306 2a3e 0400     		.2byte	0x4
 17307 2a40 F3       		.byte	0xf3
 17308 2a41 01       		.uleb128 0x1
 17309 2a42 51       		.byte	0x51
 17310 2a43 9F       		.byte	0x9f
 17311 2a44 00000000 		.4byte	0
 17312 2a48 00000000 		.4byte	0
 17313              	.LVUS122:
 17314 2a4c 01       		.uleb128 .LVU808
 17315 2a4d 00       		.uleb128 .LVU811
 17316 2a4e 00       		.uleb128 .LVU811
 17317 2a4f 00       		.uleb128 .LVU813
 17318 2a50 00       		.uleb128 .LVU813
 17319 2a51 00       		.uleb128 .LVU815
 17320 2a52 00       		.uleb128 .LVU815
 17321 2a53 00       		.uleb128 .LVU817
 17322 2a54 00       		.uleb128 .LVU818
 17323 2a55 00       		.uleb128 .LVU822
 17324 2a56 00       		.uleb128 .LVU823
 17325 2a57 00       		.uleb128 .LVU828
 17326              	.LLST122:
 17327 2a58 16000000 		.4byte	.LVL249
 17328 2a5c 1A000000 		.4byte	.LVL250
ARM GAS  /tmp/ccqyZH0w.s 			page 305


 17329 2a60 0200     		.2byte	0x2
 17330 2a62 30       		.byte	0x30
 17331 2a63 9F       		.byte	0x9f
 17332 2a64 1A000000 		.4byte	.LVL250
 17333 2a68 1E000000 		.4byte	.LVL251
 17334 2a6c 0100     		.2byte	0x1
 17335 2a6e 50       		.byte	0x50
 17336 2a6f 1E000000 		.4byte	.LVL251
 17337 2a73 2E000000 		.4byte	.LVL252
 17338 2a77 0100     		.2byte	0x1
 17339 2a79 51       		.byte	0x51
 17340 2a7a 2E000000 		.4byte	.LVL252
 17341 2a7e 30000000 		.4byte	.LVL253
 17342 2a82 0100     		.2byte	0x1
 17343 2a84 50       		.byte	0x50
 17344 2a85 34000000 		.4byte	.LVL254
 17345 2a89 3C000000 		.4byte	.LVL255
 17346 2a8d 0100     		.2byte	0x1
 17347 2a8f 50       		.byte	0x50
 17348 2a90 40000000 		.4byte	.LVL256
 17349 2a94 52000000 		.4byte	.LVL258
 17350 2a98 0100     		.2byte	0x1
 17351 2a9a 50       		.byte	0x50
 17352 2a9b 00000000 		.4byte	0
 17353 2a9f 00000000 		.4byte	0
 17354              	.LVUS123:
 17355 2aa3 00       		.uleb128 .LVU825
 17356 2aa4 00       		.uleb128 .LVU830
 17357 2aa5 00       		.uleb128 .LVU830
 17358 2aa6 00       		.uleb128 .LVU831
 17359 2aa7 00       		.uleb128 .LVU831
 17360 2aa8 00       		.uleb128 .LVU831
 17361              	.LLST123:
 17362 2aa9 46000000 		.4byte	.LVL257
 17363 2aad 5A000000 		.4byte	.LVL259
 17364 2ab1 0100     		.2byte	0x1
 17365 2ab3 54       		.byte	0x54
 17366 2ab4 5A000000 		.4byte	.LVL259
 17367 2ab8 5D000000 		.4byte	.LVL260-1
 17368 2abc 0100     		.2byte	0x1
 17369 2abe 50       		.byte	0x50
 17370 2abf 5D000000 		.4byte	.LVL260-1
 17371 2ac3 5E000000 		.4byte	.LVL260
 17372 2ac7 0400     		.2byte	0x4
 17373 2ac9 F3       		.byte	0xf3
 17374 2aca 01       		.uleb128 0x1
 17375 2acb 50       		.byte	0x50
 17376 2acc 9F       		.byte	0x9f
 17377 2acd 00000000 		.4byte	0
 17378 2ad1 00000000 		.4byte	0
 17379              		.section	.debug_aranges,"",%progbits
 17380 0000 CC000000 		.4byte	0xcc
 17381 0004 0200     		.2byte	0x2
 17382 0006 00000000 		.4byte	.Ldebug_info0
 17383 000a 04       		.byte	0x4
 17384 000b 00       		.byte	0
 17385 000c 0000     		.2byte	0
ARM GAS  /tmp/ccqyZH0w.s 			page 306


 17386 000e 0000     		.2byte	0
 17387 0010 00000000 		.4byte	.LFB3
 17388 0014 F8000000 		.4byte	.LFE3-.LFB3
 17389 0018 00000000 		.4byte	.LFB4
 17390 001c F0000000 		.4byte	.LFE4-.LFB4
 17391 0020 00000000 		.4byte	.LFB5
 17392 0024 64000000 		.4byte	.LFE5-.LFB5
 17393 0028 00000000 		.4byte	.LFB6
 17394 002c 58000000 		.4byte	.LFE6-.LFB6
 17395 0030 00000000 		.4byte	.LFB7
 17396 0034 54000000 		.4byte	.LFE7-.LFB7
 17397 0038 00000000 		.4byte	.LFB8
 17398 003c 6C000000 		.4byte	.LFE8-.LFB8
 17399 0040 00000000 		.4byte	.LFB9
 17400 0044 38000000 		.4byte	.LFE9-.LFB9
 17401 0048 00000000 		.4byte	.LFB10
 17402 004c 44000000 		.4byte	.LFE10-.LFB10
 17403 0050 00000000 		.4byte	.LFB11
 17404 0054 BC000000 		.4byte	.LFE11-.LFB11
 17405 0058 00000000 		.4byte	.LFB12
 17406 005c 30000000 		.4byte	.LFE12-.LFB12
 17407 0060 00000000 		.4byte	.LFB13
 17408 0064 30000000 		.4byte	.LFE13-.LFB13
 17409 0068 00000000 		.4byte	.LFB14
 17410 006c E8000000 		.4byte	.LFE14-.LFB14
 17411 0070 00000000 		.4byte	.LFB15
 17412 0074 80000000 		.4byte	.LFE15-.LFB15
 17413 0078 00000000 		.4byte	.LFB17
 17414 007c CC000000 		.4byte	.LFE17-.LFB17
 17415 0080 00000000 		.4byte	.LFB18
 17416 0084 88000000 		.4byte	.LFE18-.LFB18
 17417 0088 00000000 		.4byte	.LFB19
 17418 008c 68000000 		.4byte	.LFE19-.LFB19
 17419 0090 00000000 		.4byte	.LFB20
 17420 0094 0C010000 		.4byte	.LFE20-.LFB20
 17421 0098 00000000 		.4byte	.LFB21
 17422 009c B4000000 		.4byte	.LFE21-.LFB21
 17423 00a0 00000000 		.4byte	.LFB22
 17424 00a4 A0000000 		.4byte	.LFE22-.LFB22
 17425 00a8 00000000 		.4byte	.LFB23
 17426 00ac 5C000000 		.4byte	.LFE23-.LFB23
 17427 00b0 00000000 		.4byte	.LFB16
 17428 00b4 A4020000 		.4byte	.LFE16-.LFB16
 17429 00b8 00000000 		.4byte	.LFB24
 17430 00bc 40000000 		.4byte	.LFE24-.LFB24
 17431 00c0 00000000 		.4byte	.LFB25
 17432 00c4 38000000 		.4byte	.LFE25-.LFB25
 17433 00c8 00000000 		.4byte	0
 17434 00cc 00000000 		.4byte	0
 17435              		.section	.debug_ranges,"",%progbits
 17436              	.Ldebug_ranges0:
 17437 0000 28000000 		.4byte	.LBB24
 17438 0004 30000000 		.4byte	.LBE24
 17439 0008 34000000 		.4byte	.LBB28
 17440 000c 34000000 		.4byte	.LBE28
 17441 0010 38000000 		.4byte	.LBB29
 17442 0014 3E000000 		.4byte	.LBE29
ARM GAS  /tmp/ccqyZH0w.s 			page 307


 17443 0018 00000000 		.4byte	0
 17444 001c 00000000 		.4byte	0
 17445 0020 9C000000 		.4byte	.LBB32
 17446 0024 9E000000 		.4byte	.LBE32
 17447 0028 A0000000 		.4byte	.LBB35
 17448 002c AA000000 		.4byte	.LBE35
 17449 0030 00000000 		.4byte	0
 17450 0034 00000000 		.4byte	0
 17451 0038 2A000000 		.4byte	.LBB38
 17452 003c 30000000 		.4byte	.LBE38
 17453 0040 74000000 		.4byte	.LBB42
 17454 0044 7A000000 		.4byte	.LBE42
 17455 0048 7C000000 		.4byte	.LBB43
 17456 004c 84000000 		.4byte	.LBE43
 17457 0050 00000000 		.4byte	0
 17458 0054 00000000 		.4byte	0
 17459 0058 46000000 		.4byte	.LBB48
 17460 005c 54000000 		.4byte	.LBE48
 17461 0060 5A000000 		.4byte	.LBB51
 17462 0064 5E000000 		.4byte	.LBE51
 17463 0068 00000000 		.4byte	0
 17464 006c 00000000 		.4byte	0
 17465 0070 08010000 		.4byte	.LBB52
 17466 0074 10010000 		.4byte	.LBE52
 17467 0078 1A010000 		.4byte	.LBB57
 17468 007c 1C010000 		.4byte	.LBE57
 17469 0080 22010000 		.4byte	.LBB58
 17470 0084 26010000 		.4byte	.LBE58
 17471 0088 28010000 		.4byte	.LBB59
 17472 008c 2E010000 		.4byte	.LBE59
 17473 0090 00000000 		.4byte	0
 17474 0094 00000000 		.4byte	0
 17475 0098 78010000 		.4byte	.LBB60
 17476 009c 7A010000 		.4byte	.LBE60
 17477 00a0 86010000 		.4byte	.LBB65
 17478 00a4 88010000 		.4byte	.LBE65
 17479 00a8 AE010000 		.4byte	.LBB70
 17480 00ac B0010000 		.4byte	.LBE70
 17481 00b0 B4010000 		.4byte	.LBB71
 17482 00b4 CA010000 		.4byte	.LBE71
 17483 00b8 00000000 		.4byte	0
 17484 00bc 00000000 		.4byte	0
 17485 00c0 98010000 		.4byte	.LBB66
 17486 00c4 98010000 		.4byte	.LBE66
 17487 00c8 9C010000 		.4byte	.LBB69
 17488 00cc AA010000 		.4byte	.LBE69
 17489 00d0 00000000 		.4byte	0
 17490 00d4 00000000 		.4byte	0
 17491 00d8 34020000 		.4byte	.LBB74
 17492 00dc 40020000 		.4byte	.LBE74
 17493 00e0 44020000 		.4byte	.LBB77
 17494 00e4 46020000 		.4byte	.LBE77
 17495 00e8 00000000 		.4byte	0
 17496 00ec 00000000 		.4byte	0
 17497 00f0 00000000 		.4byte	.LFB3
 17498 00f4 F8000000 		.4byte	.LFE3
 17499 00f8 00000000 		.4byte	.LFB4
ARM GAS  /tmp/ccqyZH0w.s 			page 308


 17500 00fc F0000000 		.4byte	.LFE4
 17501 0100 00000000 		.4byte	.LFB5
 17502 0104 64000000 		.4byte	.LFE5
 17503 0108 00000000 		.4byte	.LFB6
 17504 010c 58000000 		.4byte	.LFE6
 17505 0110 00000000 		.4byte	.LFB7
 17506 0114 54000000 		.4byte	.LFE7
 17507 0118 00000000 		.4byte	.LFB8
 17508 011c 6C000000 		.4byte	.LFE8
 17509 0120 00000000 		.4byte	.LFB9
 17510 0124 38000000 		.4byte	.LFE9
 17511 0128 00000000 		.4byte	.LFB10
 17512 012c 44000000 		.4byte	.LFE10
 17513 0130 00000000 		.4byte	.LFB11
 17514 0134 BC000000 		.4byte	.LFE11
 17515 0138 00000000 		.4byte	.LFB12
 17516 013c 30000000 		.4byte	.LFE12
 17517 0140 00000000 		.4byte	.LFB13
 17518 0144 30000000 		.4byte	.LFE13
 17519 0148 00000000 		.4byte	.LFB14
 17520 014c E8000000 		.4byte	.LFE14
 17521 0150 00000000 		.4byte	.LFB15
 17522 0154 80000000 		.4byte	.LFE15
 17523 0158 00000000 		.4byte	.LFB17
 17524 015c CC000000 		.4byte	.LFE17
 17525 0160 00000000 		.4byte	.LFB18
 17526 0164 88000000 		.4byte	.LFE18
 17527 0168 00000000 		.4byte	.LFB19
 17528 016c 68000000 		.4byte	.LFE19
 17529 0170 00000000 		.4byte	.LFB20
 17530 0174 0C010000 		.4byte	.LFE20
 17531 0178 00000000 		.4byte	.LFB21
 17532 017c B4000000 		.4byte	.LFE21
 17533 0180 00000000 		.4byte	.LFB22
 17534 0184 A0000000 		.4byte	.LFE22
 17535 0188 00000000 		.4byte	.LFB23
 17536 018c 5C000000 		.4byte	.LFE23
 17537 0190 00000000 		.4byte	.LFB16
 17538 0194 A4020000 		.4byte	.LFE16
 17539 0198 00000000 		.4byte	.LFB24
 17540 019c 40000000 		.4byte	.LFE24
 17541 01a0 00000000 		.4byte	.LFB25
 17542 01a4 38000000 		.4byte	.LFE25
 17543 01a8 00000000 		.4byte	0
 17544 01ac 00000000 		.4byte	0
 17545              		.section	.debug_line,"",%progbits
 17546              	.Ldebug_line0:
 17547 0000 F5150000 		.section	.debug_str,"MS",%progbits,1
 17547      0300CC01 
 17547      00000201 
 17547      FB0E0D00 
 17547      01010101 
 17548              	.LASF294:
 17549 0000 7365745F 		.ascii	"set_ref_spad_map\000"
 17549      7265665F 
 17549      73706164 
 17549      5F6D6170 
ARM GAS  /tmp/ccqyZH0w.s 			page 309


 17549      00
 17550              	.LASF356:
 17551 0011 564C3533 		.ascii	"VL53L0X_WrByte\000"
 17551      4C30585F 
 17551      57724279 
 17551      746500
 17552              	.LASF237:
 17553 0020 564C3533 		.ascii	"VL53L0X_perform_phase_calibration\000"
 17553      4C30585F 
 17553      70657266 
 17553      6F726D5F 
 17553      70686173 
 17554              	.LASF353:
 17555 0042 7369676E 		.ascii	"signalXTalkTotalPerSpad\000"
 17555      616C5854 
 17555      616C6B54 
 17555      6F74616C 
 17555      50657253 
 17556              	.LASF83:
 17557 005a 52656665 		.ascii	"ReferenceSpadType\000"
 17557      72656E63 
 17557      65537061 
 17557      64547970 
 17557      6500
 17558              	.LASF52:
 17559 006c 5369676E 		.ascii	"SignalRateRtnMegaCps\000"
 17559      616C5261 
 17559      74655274 
 17559      6E4D6567 
 17559      61437073 
 17560              	.LASF125:
 17561 0081 5F6D6178 		.ascii	"_maxwds\000"
 17561      77647300 
 17562              	.LASF86:
 17563 0089 50617274 		.ascii	"PartUIDLower\000"
 17563      5549444C 
 17563      6F776572 
 17563      00
 17564              	.LASF326:
 17565 0096 634D6178 		.ascii	"cMaxOffset\000"
 17565      4F666673 
 17565      657400
 17566              	.LASF23:
 17567 00a1 50726F64 		.ascii	"ProductRevisionMajor\000"
 17567      75637452 
 17567      65766973 
 17567      696F6E4D 
 17567      616A6F72 
 17568              	.LASF225:
 17569 00b6 564C3533 		.ascii	"VL53L0X_DEV\000"
 17569      4C30585F 
 17569      44455600 
 17570              	.LASF139:
 17571 00c2 5F6F6E5F 		.ascii	"_on_exit_args\000"
 17571      65786974 
 17571      5F617267 
 17571      7300
ARM GAS  /tmp/ccqyZH0w.s 			page 310


 17572              	.LASF32:
 17573 00d0 48697374 		.ascii	"HistogramMode\000"
 17573      6F677261 
 17573      6D4D6F64 
 17573      6500
 17574              	.LASF351:
 17575 00de 7854616C 		.ascii	"xTalkStoredMeanRange\000"
 17575      6B53746F 
 17575      7265644D 
 17575      65616E52 
 17575      616E6765 
 17576              	.LASF318:
 17577 00f3 64617461 		.ascii	"dataByte\000"
 17577      42797465 
 17577      00
 17578              	.LASF206:
 17579 00fc 5F776374 		.ascii	"_wctomb_state\000"
 17579      6F6D625F 
 17579      73746174 
 17579      6500
 17580              	.LASF222:
 17581 010a 44657669 		.ascii	"DeviceInfo\000"
 17581      6365496E 
 17581      666F00
 17582              	.LASF35:
 17583 0115 5854616C 		.ascii	"XTalkCompensationEnable\000"
 17583      6B436F6D 
 17583      70656E73 
 17583      6174696F 
 17583      6E456E61 
 17584              	.LASF75:
 17585 012d 50726552 		.ascii	"PreRangeVcselPulsePeriod\000"
 17585      616E6765 
 17585      56637365 
 17585      6C50756C 
 17585      73655065 
 17586              	.LASF203:
 17587 0146 5F723438 		.ascii	"_r48\000"
 17587      00
 17588              	.LASF333:
 17589 014b 564C3533 		.ascii	"VL53L0X_perform_offset_calibration\000"
 17589      4C30585F 
 17589      70657266 
 17589      6F726D5F 
 17589      6F666673 
 17590              	.LASF259:
 17591 016e 63757272 		.ascii	"currentSpadIndex\000"
 17591      656E7453 
 17591      70616449 
 17591      6E646578 
 17591      00
 17592              	.LASF130:
 17593 017f 5F5F746D 		.ascii	"__tm_sec\000"
 17593      5F736563 
 17593      00
 17594              	.LASF208:
 17595 0188 5F736967 		.ascii	"_signal_buf\000"
ARM GAS  /tmp/ccqyZH0w.s 			page 311


 17595      6E616C5F 
 17595      62756600 
 17596              	.LASF0:
 17597 0194 756E7369 		.ascii	"unsigned int\000"
 17597      676E6564 
 17597      20696E74 
 17597      00
 17598              	.LASF36:
 17599 01a1 5854616C 		.ascii	"XTalkCompensationRangeMilliMeter\000"
 17599      6B436F6D 
 17599      70656E73 
 17599      6174696F 
 17599      6E52616E 
 17600              	.LASF315:
 17601 01c2 6E657874 		.ascii	"next\000"
 17601      00
 17602              	.LASF230:
 17603 01c7 53746174 		.ascii	"Status\000"
 17603      757300
 17604              	.LASF243:
 17605 01ce 72656164 		.ascii	"read_not_write\000"
 17605      5F6E6F74 
 17605      5F777269 
 17605      746500
 17606              	.LASF30:
 17607 01dd 564C3533 		.ascii	"VL53L0X_PowerModes\000"
 17607      4C30585F 
 17607      506F7765 
 17607      724D6F64 
 17607      657300
 17608              	.LASF21:
 17609 01f0 50726F64 		.ascii	"ProductId\000"
 17609      75637449 
 17609      6400
 17610              	.LASF245:
 17611 01fa 70686173 		.ascii	"phase_enable\000"
 17611      655F656E 
 17611      61626C65 
 17611      00
 17612              	.LASF39:
 17613 0207 4C696D69 		.ascii	"LimitChecksEnable\000"
 17613      74436865 
 17613      636B7345 
 17613      6E61626C 
 17613      6500
 17614              	.LASF151:
 17615 0219 5F666C61 		.ascii	"_flags\000"
 17615      677300
 17616              	.LASF264:
 17617 0220 696E6465 		.ascii	"index\000"
 17617      7800
 17618              	.LASF64:
 17619 0226 4572726F 		.ascii	"ErrorStatus\000"
 17619      72537461 
 17619      74757300 
 17620              	.LASF53:
 17621 0232 416D6269 		.ascii	"AmbientRateRtnMegaCps\000"
ARM GAS  /tmp/ccqyZH0w.s 			page 312


 17621      656E7452 
 17621      61746552 
 17621      746E4D65 
 17621      67614370 
 17622              	.LASF168:
 17623 0248 5F657272 		.ascii	"_errno\000"
 17623      6E6F00
 17624              	.LASF114:
 17625 024f 5F6F6666 		.ascii	"_off_t\000"
 17625      5F7400
 17626              	.LASF335:
 17627 0256 704F6666 		.ascii	"pOffsetMicroMeter\000"
 17627      7365744D 
 17627      6963726F 
 17627      4D657465 
 17627      7200
 17628              	.LASF350:
 17629 0268 7854616C 		.ascii	"xTalkStoredMeanSignalRate\000"
 17629      6B53746F 
 17629      7265644D 
 17629      65616E53 
 17629      69676E61 
 17630              	.LASF239:
 17631 0282 56687653 		.ascii	"VhvSettingsint\000"
 17631      65747469 
 17631      6E677369 
 17631      6E7400
 17632              	.LASF367:
 17633 0291 564C3533 		.ascii	"VL53L0X_GetSequenceStepEnable\000"
 17633      4C30585F 
 17633      47657453 
 17633      65717565 
 17633      6E636553 
 17634              	.LASF376:
 17635 02af 2F686F6D 		.ascii	"/home/olof/Documents/MICRO-315/micro-315/tp4/lib/e-"
 17635      652F6F6C 
 17635      6F662F44 
 17635      6F63756D 
 17635      656E7473 
 17636 02e2 7075636B 		.ascii	"puck2_main-processor\000"
 17636      325F6D61 
 17636      696E2D70 
 17636      726F6365 
 17636      73736F72 
 17637              	.LASF295:
 17638 02f7 636F756E 		.ascii	"count_enabled_spads\000"
 17638      745F656E 
 17638      61626C65 
 17638      645F7370 
 17638      61647300 
 17639              	.LASF271:
 17640 030b 6E656564 		.ascii	"needAptSpads\000"
 17640      41707453 
 17640      70616473 
 17640      00
 17641              	.LASF328:
 17642 0318 564C3533 		.ascii	"VL53L0X_set_offset_calibration_data_micro_meter\000"
ARM GAS  /tmp/ccqyZH0w.s 			page 313


 17642      4C30585F 
 17642      7365745F 
 17642      6F666673 
 17642      65745F63 
 17643              	.LASF377:
 17644 0348 5F5F6C6F 		.ascii	"__locale_t\000"
 17644      63616C65 
 17644      5F7400
 17645              	.LASF122:
 17646 0353 5F4C4F43 		.ascii	"_LOCK_RECURSIVE_T\000"
 17646      4B5F5245 
 17646      43555253 
 17646      4956455F 
 17646      5400
 17647              	.LASF155:
 17648 0365 5F726561 		.ascii	"_read\000"
 17648      6400
 17649              	.LASF312:
 17650 036b 71756164 		.ascii	"quadrant\000"
 17650      72616E74 
 17650      00
 17651              	.LASF210:
 17652 0374 5F6D6272 		.ascii	"_mbrlen_state\000"
 17652      6C656E5F 
 17652      73746174 
 17652      6500
 17653              	.LASF224:
 17654 0382 564C3533 		.ascii	"VL53L0X_Dev_t\000"
 17654      4C30585F 
 17654      4465765F 
 17654      7400
 17655              	.LASF42:
 17656 0390 57726170 		.ascii	"WrapAroundCheckEnable\000"
 17656      41726F75 
 17656      6E644368 
 17656      65636B45 
 17656      6E61626C 
 17657              	.LASF100:
 17658 03a6 506F7765 		.ascii	"PowerMode\000"
 17658      724D6F64 
 17658      6500
 17659              	.LASF268:
 17660 03b0 6D696E69 		.ascii	"minimumSpadCount\000"
 17660      6D756D53 
 17660      70616443 
 17660      6F756E74 
 17660      00
 17661              	.LASF334:
 17662 03c1 43616C44 		.ascii	"CalDistanceMilliMeter\000"
 17662      69737461 
 17662      6E63654D 
 17662      696C6C69 
 17662      4D657465 
 17663              	.LASF40:
 17664 03d7 4C696D69 		.ascii	"LimitChecksStatus\000"
 17664      74436865 
 17664      636B7353 
ARM GAS  /tmp/ccqyZH0w.s 			page 314


 17664      74617475 
 17664      7300
 17665              	.LASF51:
 17666 03e9 52616E67 		.ascii	"RangeDMaxMilliMeter\000"
 17666      65444D61 
 17666      784D696C 
 17666      6C694D65 
 17666      74657200 
 17667              	.LASF299:
 17668 03fd 70497341 		.ascii	"pIsAperture\000"
 17668      70657274 
 17668      75726500 
 17669              	.LASF115:
 17670 0409 5F66706F 		.ascii	"_fpos_t\000"
 17670      735F7400 
 17671              	.LASF219:
 17672 0411 5F696D70 		.ascii	"_impure_ptr\000"
 17672      7572655F 
 17672      70747200 
 17673              	.LASF146:
 17674 041d 5F666E73 		.ascii	"_fns\000"
 17674      00
 17675              	.LASF81:
 17676 0422 52657669 		.ascii	"Revision\000"
 17676      73696F6E 
 17676      00
 17677              	.LASF154:
 17678 042b 5F636F6F 		.ascii	"_cookie\000"
 17678      6B696500 
 17679              	.LASF26:
 17680 0433 564C3533 		.ascii	"VL53L0X_DeviceInfo_t\000"
 17680      4C30585F 
 17680      44657669 
 17680      6365496E 
 17680      666F5F74 
 17681              	.LASF90:
 17682 0448 50617274 		.ascii	"Part2PartOffsetNVMMicroMeter\000"
 17682      32506172 
 17682      744F6666 
 17682      7365744E 
 17682      564D4D69 
 17683              	.LASF284:
 17684 0465 73706164 		.ascii	"spadArray\000"
 17684      41727261 
 17684      7900
 17685              	.LASF229:
 17686 046f 70506861 		.ascii	"pPhaseCal\000"
 17686      73654361 
 17686      6C00
 17687              	.LASF128:
 17688 0479 5F426967 		.ascii	"_Bigint\000"
 17688      696E7400 
 17689              	.LASF136:
 17690 0481 5F5F746D 		.ascii	"__tm_wday\000"
 17690      5F776461 
 17690      7900
 17691              	.LASF178:
ARM GAS  /tmp/ccqyZH0w.s 			page 315


 17692 048b 5F726573 		.ascii	"_result\000"
 17692      756C7400 
 17693              	.LASF16:
 17694 0493 46697850 		.ascii	"FixPoint1616_t\000"
 17694      6F696E74 
 17694      31363136 
 17694      5F7400
 17695              	.LASF88:
 17696 04a2 564C3533 		.ascii	"VL53L0X_DeviceSpecificParameters_t\000"
 17696      4C30585F 
 17696      44657669 
 17696      63655370 
 17696      65636966 
 17697              	.LASF12:
 17698 04c5 75696E74 		.ascii	"uint32_t\000"
 17698      33325F74 
 17698      00
 17699              	.LASF2:
 17700 04ce 696E7438 		.ascii	"int8_t\000"
 17700      5F7400
 17701              	.LASF132:
 17702 04d5 5F5F746D 		.ascii	"__tm_hour\000"
 17702      5F686F75 
 17702      7200
 17703              	.LASF370:
 17704 04df 564C3533 		.ascii	"VL53L0X_SetXTalkCompensationEnable\000"
 17704      4C30585F 
 17704      53657458 
 17704      54616C6B 
 17704      436F6D70 
 17705              	.LASF118:
 17706 0502 5F5F636F 		.ascii	"__count\000"
 17706      756E7400 
 17707              	.LASF359:
 17708 050a 564C3533 		.ascii	"VL53L0X_ReadMulti\000"
 17708      4C30585F 
 17708      52656164 
 17708      4D756C74 
 17708      6900
 17709              	.LASF338:
 17710 051c 52616E67 		.ascii	"RangingMeasurementData\000"
 17710      696E674D 
 17710      65617375 
 17710      72656D65 
 17710      6E744461 
 17711              	.LASF247:
 17712 0533 7668765F 		.ascii	"vhv_init_byte\000"
 17712      696E6974 
 17712      5F627974 
 17712      6500
 17713              	.LASF131:
 17714 0541 5F5F746D 		.ascii	"__tm_min\000"
 17714      5F6D696E 
 17714      00
 17715              	.LASF43:
 17716 054a 564C3533 		.ascii	"VL53L0X_DeviceParameters_t\000"
 17716      4C30585F 
ARM GAS  /tmp/ccqyZH0w.s 			page 316


 17716      44657669 
 17716      63655061 
 17716      72616D65 
 17717              	.LASF216:
 17718 0565 5F6E6578 		.ascii	"_nextf\000"
 17718      746600
 17719              	.LASF17:
 17720 056c 564C3533 		.ascii	"VL53L0X_DeviceError\000"
 17720      4C30585F 
 17720      44657669 
 17720      63654572 
 17720      726F7200 
 17721              	.LASF369:
 17722 0580 564C3533 		.ascii	"VL53L0X_SetLimitCheckEnable\000"
 17722      4C30585F 
 17722      5365744C 
 17722      696D6974 
 17722      43686563 
 17723              	.LASF102:
 17724 059c 74617267 		.ascii	"targetRefRate\000"
 17724      65745265 
 17724      66526174 
 17724      6500
 17725              	.LASF3:
 17726 05aa 696E7431 		.ascii	"int16_t\000"
 17726      365F7400 
 17727              	.LASF193:
 17728 05b2 5F72616E 		.ascii	"_rand48\000"
 17728      64343800 
 17729              	.LASF24:
 17730 05ba 50726F64 		.ascii	"ProductRevisionMinor\000"
 17730      75637452 
 17730      65766973 
 17730      696F6E4D 
 17730      696E6F72 
 17731              	.LASF342:
 17732 05cf 53657175 		.ascii	"SequenceStepEnabled\000"
 17732      656E6365 
 17732      53746570 
 17732      456E6162 
 17732      6C656400 
 17733              	.LASF257:
 17734 05e3 564C3533 		.ascii	"VL53L0X_set_reference_spads\000"
 17734      4C30585F 
 17734      7365745F 
 17734      72656665 
 17734      72656E63 
 17735              	.LASF179:
 17736 05ff 5F726573 		.ascii	"_result_k\000"
 17736      756C745F 
 17736      6B00
 17737              	.LASF91:
 17738 0609 50617274 		.ascii	"Part2PartOffsetAdjustmentNVMMicroMeter\000"
 17738      32506172 
 17738      744F6666 
 17738      73657441 
 17738      646A7573 
ARM GAS  /tmp/ccqyZH0w.s 			page 317


 17739              	.LASF14:
 17740 0630 6C6F6E67 		.ascii	"long long unsigned int\000"
 17740      206C6F6E 
 17740      6720756E 
 17740      7369676E 
 17740      65642069 
 17741              	.LASF45:
 17742 0647 416D6254 		.ascii	"AmbTuningWindowFactor_K\000"
 17742      756E696E 
 17742      6757696E 
 17742      646F7746 
 17742      6163746F 
 17743              	.LASF199:
 17744 065f 5F617363 		.ascii	"_asctime_buf\000"
 17744      74696D65 
 17744      5F627566 
 17744      00
 17745              	.LASF150:
 17746 066c 5F5F7346 		.ascii	"__sFILE\000"
 17746      494C4500 
 17747              	.LASF127:
 17748 0674 5F776473 		.ascii	"_wds\000"
 17748      00
 17749              	.LASF307:
 17750 0679 656E6162 		.ascii	"enable_spad_bit\000"
 17750      6C655F73 
 17750      7061645F 
 17750      62697400 
 17751              	.LASF317:
 17752 0689 66696E65 		.ascii	"fineOffset\000"
 17752      4F666673 
 17752      657400
 17753              	.LASF267:
 17754 0694 6C617374 		.ascii	"lastSpadArray\000"
 17754      53706164 
 17754      41727261 
 17754      7900
 17755              	.LASF69:
 17756 06a2 4F736346 		.ascii	"OscFrequencyMHz\000"
 17756      72657175 
 17756      656E6379 
 17756      4D487A00 
 17757              	.LASF304:
 17758 06b2 62697449 		.ascii	"bitIndex\000"
 17758      6E646578 
 17758      00
 17759              	.LASF189:
 17760 06bb 5F5F4649 		.ascii	"__FILE\000"
 17760      4C4500
 17761              	.LASF300:
 17762 06c2 63537061 		.ascii	"cSpadsPerByte\000"
 17762      64735065 
 17762      72427974 
 17762      6500
 17763              	.LASF162:
 17764 06d0 5F6F6666 		.ascii	"_offset\000"
 17764      73657400 
ARM GAS  /tmp/ccqyZH0w.s 			page 318


 17765              	.LASF316:
 17766 06d8 73746172 		.ascii	"startIndex\000"
 17766      74496E64 
 17766      657800
 17767              	.LASF311:
 17768 06e3 69735F61 		.ascii	"is_aperture\000"
 17768      70657274 
 17768      75726500 
 17769              	.LASF66:
 17770 06ef 52656653 		.ascii	"RefSpadEnables\000"
 17770      70616445 
 17770      6E61626C 
 17770      657300
 17771              	.LASF19:
 17772 06fe 4E616D65 		.ascii	"Name\000"
 17772      00
 17773              	.LASF107:
 17774 0703 55736549 		.ascii	"UseInternalTuningSettings\000"
 17774      6E746572 
 17774      6E616C54 
 17774      756E696E 
 17774      67536574 
 17775              	.LASF173:
 17776 071d 5F656D65 		.ascii	"_emergency\000"
 17776      7267656E 
 17776      637900
 17777              	.LASF233:
 17778 0728 564C3533 		.ascii	"VL53L0X_get_ref_calibration\000"
 17778      4C30585F 
 17778      6765745F 
 17778      7265665F 
 17778      63616C69 
 17779              	.LASF238:
 17780 0744 72657374 		.ascii	"restore_config\000"
 17780      6F72655F 
 17780      636F6E66 
 17780      696700
 17781              	.LASF108:
 17782 0753 4C696E65 		.ascii	"LinearityCorrectiveGain\000"
 17782      61726974 
 17782      79436F72 
 17782      72656374 
 17782      69766547 
 17783              	.LASF54:
 17784 076b 45666665 		.ascii	"EffectiveSpadRtnCount\000"
 17784      63746976 
 17784      65537061 
 17784      6452746E 
 17784      436F756E 
 17785              	.LASF364:
 17786 0781 564C3533 		.ascii	"VL53L0X_GetOffsetCalibrationDataMicroMeter\000"
 17786      4C30585F 
 17786      4765744F 
 17786      66667365 
 17786      7443616C 
 17787              	.LASF260:
 17788 07ac 73746172 		.ascii	"startSelect\000"
ARM GAS  /tmp/ccqyZH0w.s 			page 319


 17788      7453656C 
 17788      65637400 
 17789              	.LASF296:
 17790 07b8 62797465 		.ascii	"byteCount\000"
 17790      436F756E 
 17790      7400
 17791              	.LASF303:
 17792 07c2 62797465 		.ascii	"byteIndex\000"
 17792      496E6465 
 17792      7800
 17793              	.LASF96:
 17794 07cc 53706164 		.ascii	"SpadData\000"
 17794      44617461 
 17794      00
 17795              	.LASF287:
 17796 07d5 6F666673 		.ascii	"offset\000"
 17796      657400
 17797              	.LASF34:
 17798 07dc 496E7465 		.ascii	"InterMeasurementPeriodMilliSeconds\000"
 17798      724D6561 
 17798      73757265 
 17798      6D656E74 
 17798      50657269 
 17799              	.LASF82:
 17800 07ff 52656665 		.ascii	"ReferenceSpadCount\000"
 17800      72656E63 
 17800      65537061 
 17800      64436F75 
 17800      6E7400
 17801              	.LASF226:
 17802 0812 7375626F 		.ascii	"suboptarg\000"
 17802      70746172 
 17802      6700
 17803              	.LASF137:
 17804 081c 5F5F746D 		.ascii	"__tm_yday\000"
 17804      5F796461 
 17804      7900
 17805              	.LASF172:
 17806 0826 5F696E63 		.ascii	"_inc\000"
 17806      00
 17807              	.LASF145:
 17808 082b 5F696E64 		.ascii	"_ind\000"
 17808      00
 17809              	.LASF339:
 17810 0830 53746F72 		.ascii	"StoredMeanRange\000"
 17810      65644D65 
 17810      616E5261 
 17810      6E676500 
 17811              	.LASF80:
 17812 0840 4D6F6475 		.ascii	"ModuleId\000"
 17812      6C654964 
 17812      00
 17813              	.LASF59:
 17814 0849 48697374 		.ascii	"HistogramData\000"
 17814      6F677261 
 17814      6D446174 
 17814      6100
ARM GAS  /tmp/ccqyZH0w.s 			page 320


 17815              	.LASF41:
 17816 0857 4C696D69 		.ascii	"LimitChecksValue\000"
 17816      74436865 
 17816      636B7356 
 17816      616C7565 
 17816      00
 17817              	.LASF378:
 17818 0868 6765745F 		.ascii	"get_next_good_spad\000"
 17818      6E657874 
 17818      5F676F6F 
 17818      645F7370 
 17818      616400
 17819              	.LASF340:
 17820 087b 53746F72 		.ascii	"StoredMeanRangeAsInt\000"
 17820      65644D65 
 17820      616E5261 
 17820      6E676541 
 17820      73496E74 
 17821              	.LASF124:
 17822 0890 5F6E6578 		.ascii	"_next\000"
 17822      7400
 17823              	.LASF345:
 17824 0896 5854616C 		.ascii	"XTalkCalDistance\000"
 17824      6B43616C 
 17824      44697374 
 17824      616E6365 
 17824      00
 17825              	.LASF212:
 17826 08a7 5F6D6273 		.ascii	"_mbsrtowcs_state\000"
 17826      72746F77 
 17826      63735F73 
 17826      74617465 
 17826      00
 17827              	.LASF255:
 17828 08b8 73706164 		.ascii	"spadsEnabled\000"
 17828      73456E61 
 17828      626C6564 
 17828      00
 17829              	.LASF249:
 17830 08c5 70537061 		.ascii	"pSpadCount\000"
 17830      64436F75 
 17830      6E7400
 17831              	.LASF320:
 17832 08d0 564C3533 		.ascii	"VL53L0X_apply_offset_adjustment\000"
 17832      4C30585F 
 17832      6170706C 
 17832      795F6F66 
 17832      66736574 
 17833              	.LASF109:
 17834 08f0 446D6178 		.ascii	"DmaxCalRangeMilliMeter\000"
 17834      43616C52 
 17834      616E6765 
 17834      4D696C6C 
 17834      694D6574 
 17835              	.LASF274:
 17836 0907 636F6D70 		.ascii	"complete\000"
 17836      6C657465 
ARM GAS  /tmp/ccqyZH0w.s 			page 321


 17836      00
 17837              	.LASF119:
 17838 0910 5F5F7661 		.ascii	"__value\000"
 17838      6C756500 
 17839              	.LASF77:
 17840 0918 5369676D 		.ascii	"SigmaEstEffPulseWidth\000"
 17840      61457374 
 17840      45666650 
 17840      756C7365 
 17840      57696474 
 17841              	.LASF250:
 17842 092e 70497341 		.ascii	"pIsApertureSpads\000"
 17842      70657274 
 17842      75726553 
 17842      70616473 
 17842      00
 17843              	.LASF180:
 17844 093f 5F703573 		.ascii	"_p5s\000"
 17844      00
 17845              	.LASF258:
 17846 0944 636F756E 		.ascii	"count\000"
 17846      7400
 17847              	.LASF101:
 17848 094a 53746F70 		.ascii	"StopVariable\000"
 17848      56617269 
 17848      61626C65 
 17848      00
 17849              	.LASF310:
 17850 0957 66696E65 		.ascii	"fineIndex\000"
 17850      496E6465 
 17850      7800
 17851              	.LASF89:
 17852 0961 444D6178 		.ascii	"DMaxData\000"
 17852      44617461 
 17852      00
 17853              	.LASF49:
 17854 096a 4D656173 		.ascii	"MeasurementTimeUsec\000"
 17854      7572656D 
 17854      656E7454 
 17854      696D6555 
 17854      73656300 
 17855              	.LASF204:
 17856 097e 5F6D626C 		.ascii	"_mblen_state\000"
 17856      656E5F73 
 17856      74617465 
 17856      00
 17857              	.LASF373:
 17858 098b 564C3533 		.ascii	"VL53L0X_ClearInterruptMask\000"
 17858      4C30585F 
 17858      436C6561 
 17858      72496E74 
 17858      65727275 
 17859              	.LASF297:
 17860 09a6 6D617853 		.ascii	"maxSpads\000"
 17860      70616473 
 17860      00
 17861              	.LASF25:
ARM GAS  /tmp/ccqyZH0w.s 			page 322


 17862 09af 63686172 		.ascii	"char\000"
 17862      00
 17863              	.LASF133:
 17864 09b4 5F5F746D 		.ascii	"__tm_mday\000"
 17864      5F6D6461 
 17864      7900
 17865              	.LASF186:
 17866 09be 5F736967 		.ascii	"_sig_func\000"
 17866      5F66756E 
 17866      6300
 17867              	.LASF211:
 17868 09c8 5F6D6272 		.ascii	"_mbrtowc_state\000"
 17868      746F7763 
 17868      5F737461 
 17868      746500
 17869              	.LASF185:
 17870 09d7 5F617465 		.ascii	"_atexit0\000"
 17870      78697430 
 17870      00
 17871              	.LASF228:
 17872 09e0 70566876 		.ascii	"pVhvSettings\000"
 17872      53657474 
 17872      696E6773 
 17872      00
 17873              	.LASF79:
 17874 09ed 52656164 		.ascii	"ReadDataFromDeviceDone\000"
 17874      44617461 
 17874      46726F6D 
 17874      44657669 
 17874      6365446F 
 17875              	.LASF33:
 17876 0a04 4D656173 		.ascii	"MeasurementTimingBudgetMicroSeconds\000"
 17876      7572656D 
 17876      656E7454 
 17876      696D696E 
 17876      67427564 
 17877              	.LASF93:
 17878 0a28 4C617374 		.ascii	"LastRangeMeasure\000"
 17878      52616E67 
 17878      654D6561 
 17878      73757265 
 17878      00
 17879              	.LASF275:
 17880 0a39 72656653 		.ascii	"refSpadCount_int\000"
 17880      70616443 
 17880      6F756E74 
 17880      5F696E74 
 17880      00
 17881              	.LASF62:
 17882 0a4a 42756666 		.ascii	"BufferSize\000"
 17882      65725369 
 17882      7A6500
 17883              	.LASF282:
 17884 0a55 61706572 		.ascii	"apertureSpads\000"
 17884      74757265 
 17884      53706164 
 17884      7300
ARM GAS  /tmp/ccqyZH0w.s 			page 323


 17885              	.LASF266:
 17886 0a63 72656653 		.ascii	"refSpadCount\000"
 17886      70616443 
 17886      6F756E74 
 17886      00
 17887              	.LASF123:
 17888 0a70 5F666C6F 		.ascii	"_flock_t\000"
 17888      636B5F74 
 17888      00
 17889              	.LASF332:
 17890 0a79 656E636F 		.ascii	"encodedOffsetVal\000"
 17890      6465644F 
 17890      66667365 
 17890      7456616C 
 17890      00
 17891              	.LASF68:
 17892 0a8a 564C3533 		.ascii	"VL53L0X_SpadData_t\000"
 17892      4C30585F 
 17892      53706164 
 17892      44617461 
 17892      5F7400
 17893              	.LASF305:
 17894 0a9d 74656D70 		.ascii	"tempByte\000"
 17894      42797465 
 17894      00
 17895              	.LASF116:
 17896 0aa6 5F5F7763 		.ascii	"__wch\000"
 17896      6800
 17897              	.LASF192:
 17898 0aac 5F696F62 		.ascii	"_iobs\000"
 17898      7300
 17899              	.LASF8:
 17900 0ab2 75696E74 		.ascii	"uint8_t\000"
 17900      385F7400 
 17901              	.LASF279:
 17902 0aba 73746174 		.ascii	"status\000"
 17902      757300
 17903              	.LASF18:
 17904 0ac1 564C3533 		.ascii	"VL53L0X_GpioFunctionality\000"
 17904      4C30585F 
 17904      4770696F 
 17904      46756E63 
 17904      74696F6E 
 17905              	.LASF319:
 17906 0adb 73756363 		.ascii	"success\000"
 17906      65737300 
 17907              	.LASF232:
 17908 0ae3 50686173 		.ascii	"PhaseCal\000"
 17908      6543616C 
 17908      00
 17909              	.LASF158:
 17910 0aec 5F636C6F 		.ascii	"_close\000"
 17910      736500
 17911              	.LASF302:
 17912 0af3 6C617374 		.ascii	"lastBit\000"
 17912      42697400 
 17913              	.LASF176:
ARM GAS  /tmp/ccqyZH0w.s 			page 324


 17914 0afb 5F5F7364 		.ascii	"__sdidinit\000"
 17914      6964696E 
 17914      697400
 17915              	.LASF20:
 17916 0b06 54797065 		.ascii	"Type\000"
 17916      00
 17917              	.LASF329:
 17918 0b0b 4F666673 		.ascii	"OffsetCalibrationDataMicroMeter\000"
 17918      65744361 
 17918      6C696272 
 17918      6174696F 
 17918      6E446174 
 17919              	.LASF331:
 17920 0b2b 634D696E 		.ascii	"cMinOffsetMicroMeter\000"
 17920      4F666673 
 17920      65744D69 
 17920      63726F4D 
 17920      65746572 
 17921              	.LASF29:
 17922 0b40 564C3533 		.ascii	"VL53L0X_HistogramModes\000"
 17922      4C30585F 
 17922      48697374 
 17922      6F677261 
 17922      6D4D6F64 
 17923              	.LASF347:
 17924 0b57 73756D5F 		.ascii	"sum_spads\000"
 17924      73706164 
 17924      7300
 17925              	.LASF349:
 17926 0b61 7874616C 		.ascii	"xtalk_meas\000"
 17926      6B5F6D65 
 17926      617300
 17927              	.LASF169:
 17928 0b6c 5F737464 		.ascii	"_stdin\000"
 17928      696E00
 17929              	.LASF201:
 17930 0b73 5F67616D 		.ascii	"_gamma_signgam\000"
 17930      6D615F73 
 17930      69676E67 
 17930      616D00
 17931              	.LASF57:
 17932 0b82 52616E67 		.ascii	"RangeStatus\000"
 17932      65537461 
 17932      74757300 
 17933              	.LASF61:
 17934 0b8e 46697273 		.ascii	"FirstBin\000"
 17934      7442696E 
 17934      00
 17935              	.LASF7:
 17936 0b97 6C6F6E67 		.ascii	"long long int\000"
 17936      206C6F6E 
 17936      6720696E 
 17936      7400
 17937              	.LASF306:
 17938 0ba5 73706164 		.ascii	"spadTypeIdentified\000"
 17938      54797065 
 17938      4964656E 
ARM GAS  /tmp/ccqyZH0w.s 			page 325


 17938      74696669 
 17938      656400
 17939              	.LASF313:
 17940 0bb8 69734170 		.ascii	"isAperture\000"
 17940      65727475 
 17940      726500
 17941              	.LASF325:
 17942 0bc3 52616E67 		.ascii	"RangeOffsetRegister\000"
 17942      654F6666 
 17942      73657452 
 17942      65676973 
 17942      74657200 
 17943              	.LASF28:
 17944 0bd7 564C3533 		.ascii	"VL53L0X_DeviceModes\000"
 17944      4C30585F 
 17944      44657669 
 17944      63654D6F 
 17944      64657300 
 17945              	.LASF148:
 17946 0beb 5F626173 		.ascii	"_base\000"
 17946      6500
 17947              	.LASF181:
 17948 0bf1 5F667265 		.ascii	"_freelist\000"
 17948      656C6973 
 17948      7400
 17949              	.LASF355:
 17950 0bfb 7854616C 		.ascii	"xTalkCalDistanceAsInt\000"
 17950      6B43616C 
 17950      44697374 
 17950      616E6365 
 17950      4173496E 
 17951              	.LASF195:
 17952 0c11 5F6D756C 		.ascii	"_mult\000"
 17952      7400
 17953              	.LASF346:
 17954 0c17 70585461 		.ascii	"pXTalkCompensationRateMegaCps\000"
 17954      6C6B436F 
 17954      6D70656E 
 17954      73617469 
 17954      6F6E5261 
 17955              	.LASF121:
 17956 0c35 5F5F554C 		.ascii	"__ULong\000"
 17956      6F6E6700 
 17957              	.LASF84:
 17958 0c3d 52656653 		.ascii	"RefSpadsInitialised\000"
 17958      70616473 
 17958      496E6974 
 17958      69616C69 
 17958      73656400 
 17959              	.LASF213:
 17960 0c51 5F776372 		.ascii	"_wcrtomb_state\000"
 17960      746F6D62 
 17960      5F737461 
 17960      746500
 17961              	.LASF293:
 17962 0c60 6765745F 		.ascii	"get_ref_spad_map\000"
 17962      7265665F 
ARM GAS  /tmp/ccqyZH0w.s 			page 326


 17962      73706164 
 17962      5F6D6170 
 17962      00
 17963              	.LASF152:
 17964 0c71 5F66696C 		.ascii	"_file\000"
 17964      6500
 17965              	.LASF337:
 17966 0c77 746F7461 		.ascii	"total_count\000"
 17966      6C5F636F 
 17966      756E7400 
 17967              	.LASF341:
 17968 0c83 43616C44 		.ascii	"CalDistanceAsInt_mm\000"
 17968      69737461 
 17968      6E636541 
 17968      73496E74 
 17968      5F6D6D00 
 17969              	.LASF358:
 17970 0c97 564C3533 		.ascii	"VL53L0X_RdByte\000"
 17970      4C30585F 
 17970      52644279 
 17970      746500
 17971              	.LASF177:
 17972 0ca6 5F5F636C 		.ascii	"__cleanup\000"
 17972      65616E75 
 17972      7000
 17973              	.LASF120:
 17974 0cb0 5F6D6273 		.ascii	"_mbstate_t\000"
 17974      74617465 
 17974      5F7400
 17975              	.LASF362:
 17976 0cbb 564C3533 		.ascii	"VL53L0X_RdWord\000"
 17976      4C30585F 
 17976      5264576F 
 17976      726400
 17977              	.LASF285:
 17978 0cca 73697A65 		.ascii	"size\000"
 17978      00
 17979              	.LASF46:
 17980 0ccf 52657453 		.ascii	"RetSignalAt0mm\000"
 17980      69676E61 
 17980      6C417430 
 17980      6D6D00
 17981              	.LASF330:
 17982 0cde 634D6178 		.ascii	"cMaxOffsetMicroMeter\000"
 17982      4F666673 
 17982      65744D69 
 17982      63726F4D 
 17982      65746572 
 17983              	.LASF263:
 17984 0cf3 6C617374 		.ascii	"lastSpadIndex\000"
 17984      53706164 
 17984      496E6465 
 17984      7800
 17985              	.LASF138:
 17986 0d01 5F5F746D 		.ascii	"__tm_isdst\000"
 17986      5F697364 
 17986      737400
ARM GAS  /tmp/ccqyZH0w.s 			page 327


 17987              	.LASF227:
 17988 0d0c 72656641 		.ascii	"refArrayQuadrants\000"
 17988      72726179 
 17988      51756164 
 17988      72616E74 
 17988      7300
 17989              	.LASF323:
 17990 0d1e 564C3533 		.ascii	"VL53L0X_get_offset_calibration_data_micro_meter\000"
 17990      4C30585F 
 17990      6765745F 
 17990      6F666673 
 17990      65745F63 
 17991              	.LASF240:
 17992 0d4e 564C3533 		.ascii	"VL53L0X_perform_vhv_calibration\000"
 17992      4C30585F 
 17992      70657266 
 17992      6F726D5F 
 17992      7668765F 
 17993              	.LASF214:
 17994 0d6e 5F776373 		.ascii	"_wcsrtombs_state\000"
 17994      72746F6D 
 17994      62735F73 
 17994      74617465 
 17994      00
 17995              	.LASF286:
 17996 0d7f 73746172 		.ascii	"start\000"
 17996      7400
 17997              	.LASF321:
 17998 0d85 436F7272 		.ascii	"CorrectedOffsetMicroMeters\000"
 17998      65637465 
 17998      644F6666 
 17998      7365744D 
 17998      6963726F 
 17999              	.LASF278:
 18000 0da0 72656653 		.ascii	"refSignalRate\000"
 18000      69676E61 
 18000      6C526174 
 18000      6500
 18001              	.LASF215:
 18002 0dae 5F685F65 		.ascii	"_h_errno\000"
 18002      72726E6F 
 18002      00
 18003              	.LASF265:
 18004 0db7 564C3533 		.ascii	"VL53L0X_perform_ref_spad_management\000"
 18004      4C30585F 
 18004      70657266 
 18004      6F726D5F 
 18004      7265665F 
 18005              	.LASF246:
 18006 0ddb 50686173 		.ascii	"PhaseCalint\000"
 18006      6543616C 
 18006      696E7400 
 18007              	.LASF261:
 18008 0de7 73706164 		.ascii	"spadArraySize\000"
 18008      41727261 
 18008      7953697A 
 18008      6500
ARM GAS  /tmp/ccqyZH0w.s 			page 328


 18009              	.LASF44:
 18010 0df5 564C3533 		.ascii	"VL53L0X_State\000"
 18010      4C30585F 
 18010      53746174 
 18010      6500
 18011              	.LASF47:
 18012 0e03 564C3533 		.ascii	"VL53L0X_DMaxData_t\000"
 18012      4C30585F 
 18012      444D6178 
 18012      44617461 
 18012      5F7400
 18013              	.LASF254:
 18014 0e16 63537061 		.ascii	"cSpadArraySize\000"
 18014      64417272 
 18014      61795369 
 18014      7A6500
 18015              	.LASF256:
 18016 0e25 69734170 		.ascii	"isApertureSpads\000"
 18016      65727475 
 18016      72655370 
 18016      61647300 
 18017              	.LASF134:
 18018 0e35 5F5F746D 		.ascii	"__tm_mon\000"
 18018      5F6D6F6E 
 18018      00
 18019              	.LASF31:
 18020 0e3e 44657669 		.ascii	"DeviceMode\000"
 18020      63654D6F 
 18020      646500
 18021              	.LASF37:
 18022 0e49 5854616C 		.ascii	"XTalkCompensationRateMegaCps\000"
 18022      6B436F6D 
 18022      70656E73 
 18022      6174696F 
 18022      6E526174 
 18023              	.LASF15:
 18024 0e66 6C6F6E67 		.ascii	"long double\000"
 18024      20646F75 
 18024      626C6500 
 18025              	.LASF348:
 18026 0e72 73756D5F 		.ascii	"sum_signalRate\000"
 18026      7369676E 
 18026      616C5261 
 18026      746500
 18027              	.LASF10:
 18028 0e81 75696E74 		.ascii	"uint16_t\000"
 18028      31365F74 
 18028      00
 18029              	.LASF58:
 18030 0e8a 564C3533 		.ascii	"VL53L0X_RangingMeasurementData_t\000"
 18030      4C30585F 
 18030      52616E67 
 18030      696E674D 
 18030      65617375 
 18031              	.LASF156:
 18032 0eab 5F777269 		.ascii	"_write\000"
 18032      746500
ARM GAS  /tmp/ccqyZH0w.s 			page 329


 18033              	.LASF234:
 18034 0eb2 564C3533 		.ascii	"VL53L0X_set_ref_calibration\000"
 18034      4C30585F 
 18034      7365745F 
 18034      7265665F 
 18034      63616C69 
 18035              	.LASF363:
 18036 0ece 564C3533 		.ascii	"VL53L0X_get_info_from_device\000"
 18036      4C30585F 
 18036      6765745F 
 18036      696E666F 
 18036      5F66726F 
 18037              	.LASF366:
 18038 0eeb 564C3533 		.ascii	"VL53L0X_WrWord\000"
 18038      4C30585F 
 18038      5772576F 
 18038      726400
 18039              	.LASF97:
 18040 0efa 53657175 		.ascii	"SequenceConfig\000"
 18040      656E6365 
 18040      436F6E66 
 18040      696700
 18041              	.LASF144:
 18042 0f09 5F617465 		.ascii	"_atexit\000"
 18042      78697400 
 18043              	.LASF165:
 18044 0f11 5F6D6273 		.ascii	"_mbstate\000"
 18044      74617465 
 18044      00
 18045              	.LASF167:
 18046 0f1a 5F726565 		.ascii	"_reent\000"
 18046      6E7400
 18047              	.LASF292:
 18048 0f21 564C3533 		.ascii	"VL53L0X_perform_single_ref_calibration\000"
 18048      4C30585F 
 18048      70657266 
 18048      6F726D5F 
 18048      73696E67 
 18049              	.LASF244:
 18050 0f48 7668765F 		.ascii	"vhv_enable\000"
 18050      656E6162 
 18050      6C6500
 18051              	.LASF281:
 18052 0f53 656E6162 		.ascii	"enable_ref_spads\000"
 18052      6C655F72 
 18052      65665F73 
 18052      70616473 
 18052      00
 18053              	.LASF4:
 18054 0f64 73686F72 		.ascii	"short int\000"
 18054      7420696E 
 18054      7400
 18055              	.LASF277:
 18056 0f6e 70657266 		.ascii	"perform_ref_signal_measurement\000"
 18056      6F726D5F 
 18056      7265665F 
 18056      7369676E 
ARM GAS  /tmp/ccqyZH0w.s 			page 330


 18056      616C5F6D 
 18057              	.LASF301:
 18058 0f8d 6C617374 		.ascii	"lastByte\000"
 18058      42797465 
 18058      00
 18059              	.LASF314:
 18060 0f96 63757272 		.ascii	"curr\000"
 18060      00
 18061              	.LASF6:
 18062 0f9b 6C6F6E67 		.ascii	"long int\000"
 18062      20696E74 
 18062      00
 18063              	.LASF360:
 18064 0fa4 564C3533 		.ascii	"VL53L0X_WriteMulti\000"
 18064      4C30585F 
 18064      57726974 
 18064      654D756C 
 18064      746900
 18065              	.LASF357:
 18066 0fb7 564C3533 		.ascii	"VL53L0X_UpdateByte\000"
 18066      4C30585F 
 18066      55706461 
 18066      74654279 
 18066      746500
 18067              	.LASF85:
 18068 0fca 50617274 		.ascii	"PartUIDUpper\000"
 18068      55494455 
 18068      70706572 
 18068      00
 18069              	.LASF104:
 18070 0fd7 5369676E 		.ascii	"SignalEstimate\000"
 18070      616C4573 
 18070      74696D61 
 18070      746500
 18071              	.LASF379:
 18072 0fe6 5F5F7374 		.ascii	"__stack_chk_fail\000"
 18072      61636B5F 
 18072      63686B5F 
 18072      6661696C 
 18072      00
 18073              	.LASF223:
 18074 0ff7 49326344 		.ascii	"I2cDevAddr\000"
 18074      65764164 
 18074      647200
 18075              	.LASF188:
 18076 1002 5F5F7366 		.ascii	"__sf\000"
 18076      00
 18077              	.LASF126:
 18078 1007 5F736967 		.ascii	"_sign\000"
 18078      6E00
 18079              	.LASF322:
 18080 100d 43757272 		.ascii	"CurrentOffsetMicroMeters\000"
 18080      656E744F 
 18080      66667365 
 18080      744D6963 
 18080      726F4D65 
 18081              	.LASF336:
ARM GAS  /tmp/ccqyZH0w.s 			page 331


 18082 1026 73756D5F 		.ascii	"sum_ranging\000"
 18082      72616E67 
 18082      696E6700 
 18083              	.LASF365:
 18084 1032 564C3533 		.ascii	"VL53L0X_SetOffsetCalibrationDataMicroMeter\000"
 18084      4C30585F 
 18084      5365744F 
 18084      66667365 
 18084      7443616C 
 18085              	.LASF163:
 18086 105d 5F646174 		.ascii	"_data\000"
 18086      6100
 18087              	.LASF105:
 18088 1063 4C617374 		.ascii	"LastSignalRefMcps\000"
 18088      5369676E 
 18088      616C5265 
 18088      664D6370 
 18088      7300
 18089              	.LASF117:
 18090 1075 5F5F7763 		.ascii	"__wchb\000"
 18090      686200
 18091              	.LASF220:
 18092 107c 5F676C6F 		.ascii	"_global_impure_ptr\000"
 18092      62616C5F 
 18092      696D7075 
 18092      72655F70 
 18092      747200
 18093              	.LASF72:
 18094 108f 46696E61 		.ascii	"FinalRangeTimeoutMicroSecs\000"
 18094      6C52616E 
 18094      67655469 
 18094      6D656F75 
 18094      744D6963 
 18095              	.LASF135:
 18096 10aa 5F5F746D 		.ascii	"__tm_year\000"
 18096      5F796561 
 18096      7200
 18097              	.LASF55:
 18098 10b4 5A6F6E65 		.ascii	"ZoneId\000"
 18098      496400
 18099              	.LASF200:
 18100 10bb 5F6C6F63 		.ascii	"_localtime_buf\000"
 18100      616C7469 
 18100      6D655F62 
 18100      756600
 18101              	.LASF236:
 18102 10ca 6765745F 		.ascii	"get_data_enable\000"
 18102      64617461 
 18102      5F656E61 
 18102      626C6500 
 18103              	.LASF218:
 18104 10da 5F756E75 		.ascii	"_unused\000"
 18104      73656400 
 18105              	.LASF38:
 18106 10e2 52616E67 		.ascii	"RangeOffsetMicroMeters\000"
 18106      654F6666 
 18106      7365744D 
ARM GAS  /tmp/ccqyZH0w.s 			page 332


 18106      6963726F 
 18106      4D657465 
 18107              	.LASF231:
 18108 10f9 56687653 		.ascii	"VhvSettings\000"
 18108      65747469 
 18108      6E677300 
 18109              	.LASF242:
 18110 1105 564C3533 		.ascii	"VL53L0X_ref_calibration_io\000"
 18110      4C30585F 
 18110      7265665F 
 18110      63616C69 
 18110      62726174 
 18111              	.LASF184:
 18112 1120 5F6E6577 		.ascii	"_new\000"
 18112      00
 18113              	.LASF182:
 18114 1125 5F637674 		.ascii	"_cvtlen\000"
 18114      6C656E00 
 18115              	.LASF67:
 18116 112d 52656647 		.ascii	"RefGoodSpadMap\000"
 18116      6F6F6453 
 18116      7061644D 
 18116      617000
 18117              	.LASF207:
 18118 113c 5F6C3634 		.ascii	"_l64a_buf\000"
 18118      615F6275 
 18118      6600
 18119              	.LASF27:
 18120 1146 564C3533 		.ascii	"VL53L0X_Error\000"
 18120      4C30585F 
 18120      4572726F 
 18120      7200
 18121              	.LASF361:
 18122 1154 564C3533 		.ascii	"VL53L0X_PerformSingleRangingMeasurement\000"
 18122      4C30585F 
 18122      50657266 
 18122      6F726D53 
 18122      696E676C 
 18123              	.LASF368:
 18124 117c 564C3533 		.ascii	"VL53L0X_SetSequenceStepEnable\000"
 18124      4C30585F 
 18124      53657453 
 18124      65717565 
 18124      6E636553 
 18125              	.LASF352:
 18126 119a 7854616C 		.ascii	"xTalkStoredMeanRtnSpads\000"
 18126      6B53746F 
 18126      7265644D 
 18126      65616E52 
 18126      746E5370 
 18127              	.LASF298:
 18128 11b2 70546F74 		.ascii	"pTotalSpadsEnabled\000"
 18128      616C5370 
 18128      61647345 
 18128      6E61626C 
 18128      656400
 18129              	.LASF161:
ARM GAS  /tmp/ccqyZH0w.s 			page 333


 18130 11c5 5F626C6B 		.ascii	"_blksize\000"
 18130      73697A65 
 18130      00
 18131              	.LASF129:
 18132 11ce 5F5F746D 		.ascii	"__tm\000"
 18132      00
 18133              	.LASF164:
 18134 11d3 5F6C6F63 		.ascii	"_lock\000"
 18134      6B00
 18135              	.LASF262:
 18136 11d9 6D617853 		.ascii	"maxSpadCount\000"
 18136      70616443 
 18136      6F756E74 
 18136      00
 18137              	.LASF288:
 18138 11e6 73706164 		.ascii	"spadCount\000"
 18138      436F756E 
 18138      7400
 18139              	.LASF308:
 18140 11f0 73706164 		.ascii	"spadIndex\000"
 18140      496E6465 
 18140      7800
 18141              	.LASF92:
 18142 11fa 43757272 		.ascii	"CurrentParameters\000"
 18142      656E7450 
 18142      6172616D 
 18142      65746572 
 18142      7300
 18143              	.LASF13:
 18144 120c 6C6F6E67 		.ascii	"long unsigned int\000"
 18144      20756E73 
 18144      69676E65 
 18144      6420696E 
 18144      7400
 18145              	.LASF290:
 18146 121e 63757272 		.ascii	"currentSpad\000"
 18146      656E7453 
 18146      70616400 
 18147              	.LASF95:
 18148 122a 44657669 		.ascii	"DeviceSpecificParameters\000"
 18148      63655370 
 18148      65636966 
 18148      69635061 
 18148      72616D65 
 18149              	.LASF191:
 18150 1243 5F6E696F 		.ascii	"_niobs\000"
 18150      627300
 18151              	.LASF113:
 18152 124a 77696E74 		.ascii	"wint_t\000"
 18152      5F7400
 18153              	.LASF106:
 18154 1251 7054756E 		.ascii	"pTuningSettingsPointer\000"
 18154      696E6753 
 18154      65747469 
 18154      6E677350 
 18154      6F696E74 
 18155              	.LASF5:
ARM GAS  /tmp/ccqyZH0w.s 			page 334


 18156 1268 696E7433 		.ascii	"int32_t\000"
 18156      325F7400 
 18157              	.LASF141:
 18158 1270 5F64736F 		.ascii	"_dso_handle\000"
 18158      5F68616E 
 18158      646C6500 
 18159              	.LASF272:
 18160 127c 7369676E 		.ascii	"signalRateDiff\000"
 18160      616C5261 
 18160      74654469 
 18160      666600
 18161              	.LASF78:
 18162 128b 5369676D 		.ascii	"SigmaEstEffAmbWidth\000"
 18162      61457374 
 18162      45666641 
 18162      6D625769 
 18162      64746800 
 18163              	.LASF291:
 18164 129f 63686563 		.ascii	"checkSpadArray\000"
 18164      6B537061 
 18164      64417272 
 18164      617900
 18165              	.LASF269:
 18166 12ae 6E657874 		.ascii	"nextGoodSpad\000"
 18166      476F6F64 
 18166      53706164 
 18166      00
 18167              	.LASF170:
 18168 12bb 5F737464 		.ascii	"_stdout\000"
 18168      6F757400 
 18169              	.LASF183:
 18170 12c3 5F637674 		.ascii	"_cvtbuf\000"
 18170      62756600 
 18171              	.LASF252:
 18172 12cb 72656653 		.ascii	"refSpadArray\000"
 18172      70616441 
 18172      72726179 
 18172      00
 18173              	.LASF9:
 18174 12d8 756E7369 		.ascii	"unsigned char\000"
 18174      676E6564 
 18174      20636861 
 18174      7200
 18175              	.LASF63:
 18176 12e6 4E756D62 		.ascii	"NumberOfBins\000"
 18176      65724F66 
 18176      42696E73 
 18176      00
 18177              	.LASF74:
 18178 12f3 50726552 		.ascii	"PreRangeTimeoutMicroSecs\000"
 18178      616E6765 
 18178      54696D65 
 18178      6F75744D 
 18178      6963726F 
 18179              	.LASF60:
 18180 130c 48697374 		.ascii	"HistogramType\000"
 18180      6F677261 
ARM GAS  /tmp/ccqyZH0w.s 			page 335


 18180      6D547970 
 18180      6500
 18181              	.LASF110:
 18182 131a 446D6178 		.ascii	"DmaxCalSignalRateRtnMegaCps\000"
 18182      43616C53 
 18182      69676E61 
 18182      6C526174 
 18182      6552746E 
 18183              	.LASF73:
 18184 1336 46696E61 		.ascii	"FinalRangeVcselPulsePeriod\000"
 18184      6C52616E 
 18184      67655663 
 18184      73656C50 
 18184      756C7365 
 18185              	.LASF209:
 18186 1351 5F676574 		.ascii	"_getdate_err\000"
 18186      64617465 
 18186      5F657272 
 18186      00
 18187              	.LASF153:
 18188 135e 5F6C6266 		.ascii	"_lbfsize\000"
 18188      73697A65 
 18188      00
 18189              	.LASF273:
 18190 1367 6C617374 		.ascii	"lastSignalRateDiff\000"
 18190      5369676E 
 18190      616C5261 
 18190      74654469 
 18190      666600
 18191              	.LASF111:
 18192 137a 564C3533 		.ascii	"VL53L0X_DevData_t\000"
 18192      4C30585F 
 18192      44657644 
 18192      6174615F 
 18192      7400
 18193              	.LASF142:
 18194 138c 5F666E74 		.ascii	"_fntypes\000"
 18194      79706573 
 18194      00
 18195              	.LASF196:
 18196 1395 5F616464 		.ascii	"_add\000"
 18196      00
 18197              	.LASF270:
 18198 139a 7065616B 		.ascii	"peakSignalRateRef\000"
 18198      5369676E 
 18198      616C5261 
 18198      74655265 
 18198      6600
 18199              	.LASF251:
 18200 13ac 72656653 		.ascii	"refSpadsInitialised\000"
 18200      70616473 
 18200      496E6974 
 18200      69616C69 
 18200      73656400 
 18201              	.LASF22:
 18202 13c0 50726F64 		.ascii	"ProductType\000"
 18202      75637454 
ARM GAS  /tmp/ccqyZH0w.s 			page 336


 18202      79706500 
 18203              	.LASF276:
 18204 13cc 69734170 		.ascii	"isApertureSpads_int\000"
 18204      65727475 
 18204      72655370 
 18204      6164735F 
 18204      696E7400 
 18205              	.LASF147:
 18206 13e0 5F5F7362 		.ascii	"__sbuf\000"
 18206      756600
 18207              	.LASF375:
 18208 13e7 2E2F2F73 		.ascii	".//src/sensors/VL53L0X/Api/core/src/vl53l0x_api_cal"
 18208      72632F73 
 18208      656E736F 
 18208      72732F56 
 18208      4C35334C 
 18209 141a 69627261 		.ascii	"ibration.c\000"
 18209      74696F6E 
 18209      2E6300
 18210              	.LASF324:
 18211 1425 704F6666 		.ascii	"pOffsetCalibrationDataMicroMeter\000"
 18211      73657443 
 18211      616C6962 
 18211      72617469 
 18211      6F6E4461 
 18212              	.LASF71:
 18213 1446 50696E30 		.ascii	"Pin0GpioFunctionality\000"
 18213      4770696F 
 18213      46756E63 
 18213      74696F6E 
 18213      616C6974 
 18214              	.LASF190:
 18215 145c 5F676C75 		.ascii	"_glue\000"
 18215      6500
 18216              	.LASF327:
 18217 1462 634F6666 		.ascii	"cOffsetRange\000"
 18217      73657452 
 18217      616E6765 
 18217      00
 18218              	.LASF289:
 18219 146f 6C617374 		.ascii	"lastSpad\000"
 18219      53706164 
 18219      00
 18220              	.LASF187:
 18221 1478 5F5F7367 		.ascii	"__sglue\000"
 18221      6C756500 
 18222              	.LASF309:
 18223 1480 636F6172 		.ascii	"coarseIndex\000"
 18223      7365496E 
 18223      64657800 
 18224              	.LASF198:
 18225 148c 5F737472 		.ascii	"_strtok_last\000"
 18225      746F6B5F 
 18225      6C617374 
 18225      00
 18226              	.LASF205:
 18227 1499 5F6D6274 		.ascii	"_mbtowc_state\000"
ARM GAS  /tmp/ccqyZH0w.s 			page 337


 18227      6F77635F 
 18227      73746174 
 18227      6500
 18228              	.LASF241:
 18229 14a7 50686173 		.ascii	"PhaseCalInt\000"
 18229      6543616C 
 18229      496E7400 
 18230              	.LASF175:
 18231 14b3 5F6C6F63 		.ascii	"_locale\000"
 18231      616C6500 
 18232              	.LASF112:
 18233 14bb 564C3533 		.ascii	"VL53L0X_VcselPeriod\000"
 18233      4C30585F 
 18233      56637365 
 18233      6C506572 
 18233      696F6400 
 18234              	.LASF140:
 18235 14cf 5F666E61 		.ascii	"_fnargs\000"
 18235      72677300 
 18236              	.LASF1:
 18237 14d7 7369676E 		.ascii	"signed char\000"
 18237      65642063 
 18237      68617200 
 18238              	.LASF94:
 18239 14e3 4C617374 		.ascii	"LastHistogramMeasure\000"
 18239      48697374 
 18239      6F677261 
 18239      6D4D6561 
 18239      73757265 
 18240              	.LASF11:
 18241 14f8 73686F72 		.ascii	"short unsigned int\000"
 18241      7420756E 
 18241      7369676E 
 18241      65642069 
 18241      6E7400
 18242              	.LASF98:
 18243 150b 52616E67 		.ascii	"RangeFractionalEnable\000"
 18243      65467261 
 18243      6374696F 
 18243      6E616C45 
 18243      6E61626C 
 18244              	.LASF354:
 18245 1521 7854616C 		.ascii	"xTalkStoredMeanRtnSpadsAsInt\000"
 18245      6B53746F 
 18245      7265644D 
 18245      65616E52 
 18245      746E5370 
 18246              	.LASF50:
 18247 153e 52616E67 		.ascii	"RangeMilliMeter\000"
 18247      654D696C 
 18247      6C694D65 
 18247      74657200 
 18248              	.LASF103:
 18249 154e 5369676D 		.ascii	"SigmaEstimate\000"
 18249      61457374 
 18249      696D6174 
 18249      6500
ARM GAS  /tmp/ccqyZH0w.s 			page 338


 18250              	.LASF76:
 18251 155c 5369676D 		.ascii	"SigmaEstRefArray\000"
 18251      61457374 
 18251      52656641 
 18251      72726179 
 18251      00
 18252              	.LASF149:
 18253 156d 5F73697A 		.ascii	"_size\000"
 18253      6500
 18254              	.LASF56:
 18255 1573 52616E67 		.ascii	"RangeFractionalPart\000"
 18255      65467261 
 18255      6374696F 
 18255      6E616C50 
 18255      61727400 
 18256              	.LASF280:
 18257 1587 72616E67 		.ascii	"rangingMeasurementData\000"
 18257      696E674D 
 18257      65617375 
 18257      72656D65 
 18257      6E744461 
 18258              	.LASF343:
 18259 159e 6D656173 		.ascii	"meas\000"
 18259      00
 18260              	.LASF374:
 18261 15a3 474E5520 		.ascii	"GNU C17 9.2.1 20191025 (release) [ARM/arm-9-branch "
 18261      43313720 
 18261      392E322E 
 18261      31203230 
 18261      31393130 
 18262 15d6 72657669 		.ascii	"revision 277599] -mcpu=cortex-m4 -mfloat-abi=hard -"
 18262      73696F6E 
 18262      20323737 
 18262      3539395D 
 18262      202D6D63 
 18263 1609 6D667075 		.ascii	"mfpu=fpv4-sp-d16 -mno-thumb-interwork -mthumb -marc"
 18263      3D667076 
 18263      342D7370 
 18263      2D643136 
 18263      202D6D6E 
 18264 163c 683D6172 		.ascii	"h=armv7e-m+fp -ggdb -O2 -fomit-frame-pointer -falig"
 18264      6D763765 
 18264      2D6D2B66 
 18264      70202D67 
 18264      67646220 
 18265 166f 6E2D6675 		.ascii	"n-functions=16 -fno-strict-aliasing -fstack-protect"
 18265      6E637469 
 18265      6F6E733D 
 18265      3136202D 
 18265      666E6F2D 
 18266 16a2 6F722D61 		.ascii	"or-all -ffunction-sections -fdata-sections -fno-com"
 18266      6C6C202D 
 18266      6666756E 
 18266      6374696F 
 18266      6E2D7365 
 18267 16d5 6D6F6E20 		.ascii	"mon -fsingle-precision-constant\000"
 18267      2D667369 
ARM GAS  /tmp/ccqyZH0w.s 			page 339


 18267      6E676C65 
 18267      2D707265 
 18267      63697369 
 18268              	.LASF70:
 18269 16f5 4C617374 		.ascii	"LastEncodedTimeout\000"
 18269      456E636F 
 18269      64656454 
 18269      696D656F 
 18269      757400
 18270              	.LASF160:
 18271 1708 5F6E6275 		.ascii	"_nbuf\000"
 18271      6600
 18272              	.LASF197:
 18273 170e 5F756E75 		.ascii	"_unused_rand\000"
 18273      7365645F 
 18273      72616E64 
 18273      00
 18274              	.LASF248:
 18275 171b 564C3533 		.ascii	"VL53L0X_get_reference_spads\000"
 18275      4C30585F 
 18275      6765745F 
 18275      72656665 
 18275      72656E63 
 18276              	.LASF372:
 18277 1737 564C3533 		.ascii	"VL53L0X_measurement_poll_for_completion\000"
 18277      4C30585F 
 18277      6D656173 
 18277      7572656D 
 18277      656E745F 
 18278              	.LASF283:
 18279 175f 676F6F64 		.ascii	"goodSpadArray\000"
 18279      53706164 
 18279      41727261 
 18279      7900
 18280              	.LASF174:
 18281 176d 5F756E73 		.ascii	"_unspecified_locale_info\000"
 18281      70656369 
 18281      66696564 
 18281      5F6C6F63 
 18281      616C655F 
 18282              	.LASF166:
 18283 1786 5F666C61 		.ascii	"_flags2\000"
 18283      67733200 
 18284              	.LASF143:
 18285 178e 5F69735F 		.ascii	"_is_cxa\000"
 18285      63786100 
 18286              	.LASF371:
 18287 1796 564C3533 		.ascii	"VL53L0X_SetXTalkCompensationRateMegaCps\000"
 18287      4C30585F 
 18287      53657458 
 18287      54616C6B 
 18287      436F6D70 
 18288              	.LASF99:
 18289 17be 50616C53 		.ascii	"PalState\000"
 18289      74617465 
 18289      00
 18290              	.LASF48:
ARM GAS  /tmp/ccqyZH0w.s 			page 340


 18291 17c7 54696D65 		.ascii	"TimeStamp\000"
 18291      5374616D 
 18291      7000
 18292              	.LASF194:
 18293 17d1 5F736565 		.ascii	"_seed\000"
 18293      6400
 18294              	.LASF202:
 18295 17d7 5F72616E 		.ascii	"_rand_next\000"
 18295      645F6E65 
 18295      787400
 18296              	.LASF65:
 18297 17e2 564C3533 		.ascii	"VL53L0X_HistogramMeasurementData_t\000"
 18297      4C30585F 
 18297      48697374 
 18297      6F677261 
 18297      6D4D6561 
 18298              	.LASF221:
 18299 1805 44617461 		.ascii	"Data\000"
 18299      00
 18300              	.LASF157:
 18301 180a 5F736565 		.ascii	"_seek\000"
 18301      6B00
 18302              	.LASF253:
 18303 1810 634D6178 		.ascii	"cMaxSpadCount\000"
 18303      53706164 
 18303      436F756E 
 18303      7400
 18304              	.LASF171:
 18305 181e 5F737464 		.ascii	"_stderr\000"
 18305      65727200 
 18306              	.LASF217:
 18307 1826 5F6E6D61 		.ascii	"_nmalloc\000"
 18307      6C6C6F63 
 18307      00
 18308              	.LASF159:
 18309 182f 5F756275 		.ascii	"_ubuf\000"
 18309      6600
 18310              	.LASF344:
 18311 1835 564C3533 		.ascii	"VL53L0X_perform_xtalk_calibration\000"
 18311      4C30585F 
 18311      70657266 
 18311      6F726D5F 
 18311      7874616C 
 18312              	.LASF87:
 18313 1857 5369676E 		.ascii	"SignalRateMeasFixed400mm\000"
 18313      616C5261 
 18313      74654D65 
 18313      61734669 
 18313      78656434 
 18314              	.LASF235:
 18315 1870 564C3533 		.ascii	"VL53L0X_perform_ref_calibration\000"
 18315      4C30585F 
 18315      70657266 
 18315      6F726D5F 
 18315      7265665F 
 18316              		.ident	"GCC: (15:9-2019-q4-0ubuntu1) 9.2.1 20191025 (release) [ARM/arm-9-branch revision 277599]"
ARM GAS  /tmp/ccqyZH0w.s 			page 341


DEFINED SYMBOLS
                            *ABS*:0000000000000000 vl53l0x_api_calibration.c
     /tmp/ccqyZH0w.s:18     .rodata.VL53L0X_perform_xtalk_calibration.cst4:0000000000000000 $d
     /tmp/ccqyZH0w.s:22     .text.VL53L0X_perform_xtalk_calibration:0000000000000000 $t
     /tmp/ccqyZH0w.s:31     .text.VL53L0X_perform_xtalk_calibration:0000000000000000 VL53L0X_perform_xtalk_calibration
     /tmp/ccqyZH0w.s:301    .text.VL53L0X_perform_xtalk_calibration:00000000000000f4 $d
     /tmp/ccqyZH0w.s:306    .rodata.VL53L0X_perform_offset_calibration.cst4:0000000000000000 $d
     /tmp/ccqyZH0w.s:310    .text.VL53L0X_perform_offset_calibration:0000000000000000 $t
     /tmp/ccqyZH0w.s:318    .text.VL53L0X_perform_offset_calibration:0000000000000000 VL53L0X_perform_offset_calibration
     /tmp/ccqyZH0w.s:553    .text.VL53L0X_perform_offset_calibration:00000000000000ec $d
     /tmp/ccqyZH0w.s:558    .rodata.VL53L0X_set_offset_calibration_data_micro_meter.cst4:0000000000000000 $d
     /tmp/ccqyZH0w.s:562    .text.VL53L0X_set_offset_calibration_data_micro_meter:0000000000000000 $t
     /tmp/ccqyZH0w.s:570    .text.VL53L0X_set_offset_calibration_data_micro_meter:0000000000000000 VL53L0X_set_offset_calibration_data_micro_meter
     /tmp/ccqyZH0w.s:663    .text.VL53L0X_set_offset_calibration_data_micro_meter:0000000000000058 $d
     /tmp/ccqyZH0w.s:670    .rodata.VL53L0X_get_offset_calibration_data_micro_meter.cst4:0000000000000000 $d
     /tmp/ccqyZH0w.s:674    .text.VL53L0X_get_offset_calibration_data_micro_meter:0000000000000000 $t
     /tmp/ccqyZH0w.s:682    .text.VL53L0X_get_offset_calibration_data_micro_meter:0000000000000000 VL53L0X_get_offset_calibration_data_micro_meter
     /tmp/ccqyZH0w.s:774    .text.VL53L0X_get_offset_calibration_data_micro_meter:0000000000000054 $d
     /tmp/ccqyZH0w.s:779    .rodata.VL53L0X_apply_offset_adjustment.cst4:0000000000000000 $d
     /tmp/ccqyZH0w.s:783    .text.VL53L0X_apply_offset_adjustment:0000000000000000 $t
     /tmp/ccqyZH0w.s:791    .text.VL53L0X_apply_offset_adjustment:0000000000000000 VL53L0X_apply_offset_adjustment
     /tmp/ccqyZH0w.s:889    .text.VL53L0X_apply_offset_adjustment:0000000000000050 $d
     /tmp/ccqyZH0w.s:894    .rodata.get_next_good_spad.cst4:0000000000000000 $d
     /tmp/ccqyZH0w.s:898    .text.get_next_good_spad:0000000000000000 $t
     /tmp/ccqyZH0w.s:906    .text.get_next_good_spad:0000000000000000 get_next_good_spad
     /tmp/ccqyZH0w.s:1048   .text.get_next_good_spad:0000000000000068 $d
     /tmp/ccqyZH0w.s:1053   .rodata.is_aperture.cst4:0000000000000000 $d
     /tmp/ccqyZH0w.s:1057   .text.is_aperture:0000000000000000 $t
     /tmp/ccqyZH0w.s:1065   .text.is_aperture:0000000000000000 is_aperture
     /tmp/ccqyZH0w.s:1123   .text.is_aperture:0000000000000030 $d
     /tmp/ccqyZH0w.s:1129   .rodata.enable_spad_bit.cst4:0000000000000000 $d
     /tmp/ccqyZH0w.s:1133   .text.enable_spad_bit:0000000000000000 $t
     /tmp/ccqyZH0w.s:1141   .text.enable_spad_bit:0000000000000000 enable_spad_bit
     /tmp/ccqyZH0w.s:1222   .text.enable_spad_bit:0000000000000040 $d
     /tmp/ccqyZH0w.s:1227   .rodata.count_enabled_spads.cst4:0000000000000000 $d
     /tmp/ccqyZH0w.s:1231   .text.count_enabled_spads:0000000000000000 $t
     /tmp/ccqyZH0w.s:1239   .text.count_enabled_spads:0000000000000000 count_enabled_spads
     /tmp/ccqyZH0w.s:1450   .text.count_enabled_spads:00000000000000b8 $d
     /tmp/ccqyZH0w.s:1455   .rodata.set_ref_spad_map.cst4:0000000000000000 $d
     /tmp/ccqyZH0w.s:1459   .text.set_ref_spad_map:0000000000000000 $t
     /tmp/ccqyZH0w.s:1467   .text.set_ref_spad_map:0000000000000000 set_ref_spad_map
     /tmp/ccqyZH0w.s:1519   .text.set_ref_spad_map:000000000000002c $d
     /tmp/ccqyZH0w.s:1524   .rodata.get_ref_spad_map.cst4:0000000000000000 $d
     /tmp/ccqyZH0w.s:1528   .text.get_ref_spad_map:0000000000000000 $t
     /tmp/ccqyZH0w.s:1536   .text.get_ref_spad_map:0000000000000000 get_ref_spad_map
     /tmp/ccqyZH0w.s:1588   .text.get_ref_spad_map:000000000000002c $d
     /tmp/ccqyZH0w.s:1593   .rodata.enable_ref_spads.cst4:0000000000000000 $d
     /tmp/ccqyZH0w.s:1597   .text.enable_ref_spads:0000000000000000 $t
     /tmp/ccqyZH0w.s:1605   .text.enable_ref_spads:0000000000000000 enable_ref_spads
     /tmp/ccqyZH0w.s:1890   .text.enable_ref_spads:00000000000000e0 $d
     /tmp/ccqyZH0w.s:1896   .rodata.perform_ref_signal_measurement.cst4:0000000000000000 $d
     /tmp/ccqyZH0w.s:1900   .text.perform_ref_signal_measurement:0000000000000000 $t
     /tmp/ccqyZH0w.s:1908   .text.perform_ref_signal_measurement:0000000000000000 perform_ref_signal_measurement
     /tmp/ccqyZH0w.s:2044   .text.perform_ref_signal_measurement:000000000000007c $d
     /tmp/ccqyZH0w.s:2049   .rodata.VL53L0X_set_reference_spads.cst4:0000000000000000 $d
     /tmp/ccqyZH0w.s:2053   .text.VL53L0X_set_reference_spads:0000000000000000 $t
     /tmp/ccqyZH0w.s:2061   .text.VL53L0X_set_reference_spads:0000000000000000 VL53L0X_set_reference_spads
ARM GAS  /tmp/ccqyZH0w.s 			page 342


     /tmp/ccqyZH0w.s:2305   .text.VL53L0X_set_reference_spads:00000000000000c4 $d
     /tmp/ccqyZH0w.s:2311   .rodata.VL53L0X_get_reference_spads.cst4:0000000000000000 $d
     /tmp/ccqyZH0w.s:2315   .text.VL53L0X_get_reference_spads:0000000000000000 $t
     /tmp/ccqyZH0w.s:2323   .text.VL53L0X_get_reference_spads:0000000000000000 VL53L0X_get_reference_spads
     /tmp/ccqyZH0w.s:2472   .text.VL53L0X_get_reference_spads:0000000000000084 $d
     /tmp/ccqyZH0w.s:2477   .rodata.VL53L0X_perform_single_ref_calibration.cst4:0000000000000000 $d
     /tmp/ccqyZH0w.s:2481   .text.VL53L0X_perform_single_ref_calibration:0000000000000000 $t
     /tmp/ccqyZH0w.s:2489   .text.VL53L0X_perform_single_ref_calibration:0000000000000000 VL53L0X_perform_single_ref_calibration
     /tmp/ccqyZH0w.s:2610   .text.VL53L0X_perform_single_ref_calibration:0000000000000064 $d
     /tmp/ccqyZH0w.s:2615   .rodata.VL53L0X_ref_calibration_io.cst4:0000000000000000 $d
     /tmp/ccqyZH0w.s:2619   .text.VL53L0X_ref_calibration_io:0000000000000000 $t
     /tmp/ccqyZH0w.s:2627   .text.VL53L0X_ref_calibration_io:0000000000000000 VL53L0X_ref_calibration_io
     /tmp/ccqyZH0w.s:2866   .text.VL53L0X_ref_calibration_io:0000000000000108 $d
     /tmp/ccqyZH0w.s:2871   .rodata.VL53L0X_perform_vhv_calibration.cst4:0000000000000000 $d
     /tmp/ccqyZH0w.s:2875   .text.VL53L0X_perform_vhv_calibration:0000000000000000 $t
     /tmp/ccqyZH0w.s:2883   .text.VL53L0X_perform_vhv_calibration:0000000000000000 VL53L0X_perform_vhv_calibration
     /tmp/ccqyZH0w.s:3063   .text.VL53L0X_perform_vhv_calibration:00000000000000b0 $d
     /tmp/ccqyZH0w.s:3068   .rodata.VL53L0X_perform_phase_calibration.cst4:0000000000000000 $d
     /tmp/ccqyZH0w.s:3072   .text.VL53L0X_perform_phase_calibration:0000000000000000 $t
     /tmp/ccqyZH0w.s:3080   .text.VL53L0X_perform_phase_calibration:0000000000000000 VL53L0X_perform_phase_calibration
     /tmp/ccqyZH0w.s:3240   .text.VL53L0X_perform_phase_calibration:000000000000009c $d
     /tmp/ccqyZH0w.s:3245   .rodata.VL53L0X_perform_ref_calibration.cst4:0000000000000000 $d
     /tmp/ccqyZH0w.s:3249   .text.VL53L0X_perform_ref_calibration:0000000000000000 $t
     /tmp/ccqyZH0w.s:3257   .text.VL53L0X_perform_ref_calibration:0000000000000000 VL53L0X_perform_ref_calibration
     /tmp/ccqyZH0w.s:3359   .text.VL53L0X_perform_ref_calibration:0000000000000058 $d
     /tmp/ccqyZH0w.s:3364   .rodata.VL53L0X_perform_ref_spad_management.cst4:0000000000000000 $d
     /tmp/ccqyZH0w.s:3368   .text.VL53L0X_perform_ref_spad_management:0000000000000000 $t
     /tmp/ccqyZH0w.s:3376   .text.VL53L0X_perform_ref_spad_management:0000000000000000 VL53L0X_perform_ref_spad_management
     /tmp/ccqyZH0w.s:4128   .text.VL53L0X_perform_ref_spad_management:000000000000029c $d
     /tmp/ccqyZH0w.s:4134   .rodata.VL53L0X_set_ref_calibration.cst4:0000000000000000 $d
     /tmp/ccqyZH0w.s:4138   .text.VL53L0X_set_ref_calibration:0000000000000000 $t
     /tmp/ccqyZH0w.s:4146   .text.VL53L0X_set_ref_calibration:0000000000000000 VL53L0X_set_ref_calibration
     /tmp/ccqyZH0w.s:4209   .text.VL53L0X_set_ref_calibration:000000000000003c $d
     /tmp/ccqyZH0w.s:4214   .rodata.VL53L0X_get_ref_calibration.cst4:0000000000000000 $d
     /tmp/ccqyZH0w.s:4218   .text.VL53L0X_get_ref_calibration:0000000000000000 $t
     /tmp/ccqyZH0w.s:4226   .text.VL53L0X_get_ref_calibration:0000000000000000 VL53L0X_get_ref_calibration
     /tmp/ccqyZH0w.s:4286   .text.VL53L0X_get_ref_calibration:0000000000000034 $d
     /tmp/ccqyZH0w.s:4296   .data.refArrayQuadrants:0000000000000000 refArrayQuadrants
     /tmp/ccqyZH0w.s:4292   .data.refArrayQuadrants:0000000000000000 $d

UNDEFINED SYMBOLS
__stack_chk_guard
VL53L0X_SetXTalkCompensationEnable
VL53L0X_SetLimitCheckEnable
VL53L0X_PerformSingleRangingMeasurement
VL53L0X_SetXTalkCompensationRateMegaCps
__stack_chk_fail
VL53L0X_SetOffsetCalibrationDataMicroMeter
VL53L0X_GetSequenceStepEnable
VL53L0X_SetSequenceStepEnable
VL53L0X_WrWord
VL53L0X_RdWord
VL53L0X_get_info_from_device
VL53L0X_GetOffsetCalibrationDataMicroMeter
VL53L0X_WriteMulti
VL53L0X_ReadMulti
VL53L0X_WrByte
ARM GAS  /tmp/ccqyZH0w.s 			page 343


VL53L0X_measurement_poll_for_completion
VL53L0X_ClearInterruptMask
VL53L0X_UpdateByte
VL53L0X_RdByte
