ARM GAS  /tmp/ccUJrPmJ.s 			page 1


   1              		.cpu cortex-m4
   2              		.eabi_attribute 27, 1
   3              		.eabi_attribute 28, 1
   4              		.eabi_attribute 20, 1
   5              		.eabi_attribute 21, 1
   6              		.eabi_attribute 23, 3
   7              		.eabi_attribute 24, 1
   8              		.eabi_attribute 25, 1
   9              		.eabi_attribute 26, 1
  10              		.eabi_attribute 30, 2
  11              		.eabi_attribute 34, 1
  12              		.eabi_attribute 18, 4
  13              		.file	"vl53l0x_i2c_platform.c"
  14              		.text
  15              	.Ltext0:
  16              		.cfi_sections	.debug_frame
  17              		.section	.rodata.VL53L0X_write_multi.cst4,"aM",%progbits,4
  18              		.align	2
  19              	.LC0:
  20 0000 00000000 		.word	__stack_chk_guard
  21              		.section	.text.VL53L0X_write_multi,"ax",%progbits
  22              		.align	1
  23              		.p2align 4,,15
  24              		.global	VL53L0X_write_multi
  25              		.arch armv7e-m
  26              		.syntax unified
  27              		.thumb
  28              		.thumb_func
  29              		.fpu fpv4-sp-d16
  30              		.type	VL53L0X_write_multi, %function
  31              	VL53L0X_write_multi:
  32              	.LVL0:
  33              	.LFB256:
  34              		.file 1 ".//src/sensors/VL53L0X/Api/platform/src/vl53l0x_i2c_platform.c"
  35              		.loc 1 8 93 view -0
  36              		.cfi_startproc
  37              		@ args = 0, pretend = 0, frame = 48
  38              		@ frame_needed = 0, uses_anonymous_args = 0
  39              		.loc 1 8 93 is_stmt 0 view .LVU1
  40 0000 2DE9F041 		push	{r4, r5, r6, r7, r8, lr}
  41              		.cfi_def_cfa_offset 24
  42              		.cfi_offset 4, -24
  43              		.cfi_offset 5, -20
  44              		.cfi_offset 6, -16
  45              		.cfi_offset 7, -12
  46              		.cfi_offset 8, -8
  47              		.cfi_offset 14, -4
  48 0004 90B0     		sub	sp, sp, #64
  49              		.cfi_def_cfa_offset 88
  50              		.loc 1 15 11 view .LVU2
  51 0006 5D1C     		adds	r5, r3, #1
  52              		.loc 1 8 93 view .LVU3
  53 0008 1C46     		mov	r4, r3
  54 000a 214B     		ldr	r3, .L17
  55              	.LVL1:
  56              		.loc 1 17 13 view .LVU4
  57 000c 8DF81C10 		strb	r1, [sp, #28]
ARM GAS  /tmp/ccUJrPmJ.s 			page 2


  58              		.loc 1 8 93 view .LVU5
  59 0010 1B68     		ldr	r3, [r3]
  60 0012 0F93     		str	r3, [sp, #60]
  61 0014 4FF00003 		mov	r3,#0
  62 0018 0746     		mov	r7, r0
  63              		.loc 1 10 3 is_stmt 1 view .LVU6
  64              	.LVL2:
  65              		.loc 1 11 3 view .LVU7
  66              		.loc 1 13 3 view .LVU8
  67              		.loc 1 14 3 view .LVU9
  68              		.loc 1 15 3 view .LVU10
  69              		.loc 1 15 11 is_stmt 0 view .LVU11
  70 001a EBB2     		uxtb	r3, r5
  71              	.LVL3:
  72              		.loc 1 17 3 is_stmt 1 view .LVU12
  73              		.loc 1 19 3 view .LVU13
  74              		.loc 1 19 8 view .LVU14
  75 001c 0DF11C08 		add	r8, sp, #28
  76 0020 3CB1     		cbz	r4, .L2
  77 0022 1444     		add	r4, r4, r2
  78              	.LVL4:
  79              		.loc 1 19 8 is_stmt 0 view .LVU15
  80 0024 4544     		add	r5, r5, r8
  81              	.LVL5:
  82              	.L3:
  83              		.loc 1 20 5 is_stmt 1 view .LVU16
  84              		.loc 1 20 19 is_stmt 0 view .LVU17
  85 0026 14F8016D 		ldrb	r6, [r4, #-1]!	@ zero_extendqisi2
  86              	.LVL6:
  87              		.loc 1 20 19 view .LVU18
  88 002a 05F8016D 		strb	r6, [r5, #-1]!
  89              		.loc 1 21 5 is_stmt 1 view .LVU19
  90              	.LVL7:
  91              		.loc 1 19 8 view .LVU20
  92 002e 9442     		cmp	r4, r2
  93 0030 F9D1     		bne	.L3
  94              	.LVL8:
  95              	.L2:
  96              		.loc 1 23 3 view .LVU21
  97 0032 184D     		ldr	r5, .L17+4
  98 0034 0593     		str	r3, [sp, #20]
  99 0036 2846     		mov	r0, r5
 100              	.LVL9:
 101              		.loc 1 24 12 is_stmt 0 view .LVU22
 102 0038 3224     		movs	r4, #50
 103              		.loc 1 23 3 view .LVU23
 104 003a FFF7FEFF 		bl	i2cAcquireBus
 105              	.LVL10:
 106              		.loc 1 24 3 is_stmt 1 view .LVU24
 107              		.loc 1 24 12 is_stmt 0 view .LVU25
 108 003e 0026     		movs	r6, #0
 109 0040 0294     		str	r4, [sp, #8]
 110 0042 06AC     		add	r4, sp, #24
 111 0044 CDE90046 		strd	r4, r6, [sp]
 112 0048 059B     		ldr	r3, [sp, #20]
 113 004a 4246     		mov	r2, r8
 114 004c 7908     		lsrs	r1, r7, #1
ARM GAS  /tmp/ccUJrPmJ.s 			page 3


 115 004e 2846     		mov	r0, r5
 116 0050 FFF7FEFF 		bl	i2cMasterTransmitTimeout
 117              	.LVL11:
 118              		.loc 1 26 3 is_stmt 1 view .LVU26
 119              		.loc 1 26 6 is_stmt 0 view .LVU27
 120 0054 0446     		mov	r4, r0
 121 0056 58B9     		cbnz	r0, .L14
 122              		.loc 1 34 3 is_stmt 1 view .LVU28
 123 0058 2846     		mov	r0, r5
 124              	.LVL12:
 125              		.loc 1 34 3 is_stmt 0 view .LVU29
 126 005a FFF7FEFF 		bl	i2cReleaseBus
 127              	.LVL13:
 128              		.loc 1 35 3 is_stmt 1 view .LVU30
 129              	.L1:
 130              		.loc 1 36 1 is_stmt 0 view .LVU31
 131 005e 0C4B     		ldr	r3, .L17
 132 0060 1A68     		ldr	r2, [r3]
 133 0062 0F9B     		ldr	r3, [sp, #60]
 134 0064 5A40     		eors	r2, r3, r2
 135 0066 11D1     		bne	.L15
 136 0068 2046     		mov	r0, r4
 137 006a 10B0     		add	sp, sp, #64
 138              		.cfi_remember_state
 139              		.cfi_def_cfa_offset 24
 140              		@ sp needed
 141 006c BDE8F081 		pop	{r4, r5, r6, r7, r8, pc}
 142              	.LVL14:
 143              	.L14:
 144              		.cfi_restore_state
 145              	.LBB4:
 146              	.LBI4:
 147              		.loc 1 8 9 is_stmt 1 view .LVU32
 148              	.LBB5:
 149              		.loc 1 27 5 view .LVU33
 150              		.loc 1 27 7 is_stmt 0 view .LVU34
 151 0070 2B78     		ldrb	r3, [r5]	@ zero_extendqisi2
 152 0072 052B     		cmp	r3, #5
 153 0074 05D0     		beq	.L16
 154              	.LVL15:
 155              	.L5:
 156              		.loc 1 31 5 is_stmt 1 view .LVU35
 157 0076 0748     		ldr	r0, .L17+4
 158 0078 FFF7FEFF 		bl	i2cReleaseBus
 159              	.LVL16:
 160              		.loc 1 32 5 view .LVU36
 161              		.loc 1 31 5 is_stmt 0 view .LVU37
 162 007c 6FF01304 		mvn	r4, #19
 163              	.LVL17:
 164              		.loc 1 31 5 view .LVU38
 165 0080 EDE7     		b	.L1
 166              	.LVL18:
 167              	.L16:
 168              		.loc 1 28 7 is_stmt 1 view .LVU39
 169 0082 FFF7FEFF 		bl	i2c_stop
 170              	.LVL19:
 171              		.loc 1 29 7 view .LVU40
ARM GAS  /tmp/ccUJrPmJ.s 			page 4


 172 0086 FFF7FEFF 		bl	i2c_start
 173              	.LVL20:
 174 008a F4E7     		b	.L5
 175              	.LVL21:
 176              	.L15:
 177              		.loc 1 29 7 is_stmt 0 view .LVU41
 178              	.LBE5:
 179              	.LBE4:
 180              		.loc 1 36 1 view .LVU42
 181 008c FFF7FEFF 		bl	__stack_chk_fail
 182              	.LVL22:
 183              	.L18:
 184              		.align	2
 185              	.L17:
 186 0090 00000000 		.word	.LC0
 187 0094 00000000 		.word	I2CD1
 188              		.cfi_endproc
 189              	.LFE256:
 190              		.size	VL53L0X_write_multi, .-VL53L0X_write_multi
 191              		.section	.rodata.VL53L0X_read_multi.cst4,"aM",%progbits,4
 192              		.align	2
 193              	.LC1:
 194 0000 00000000 		.word	__stack_chk_guard
 195              		.section	.text.VL53L0X_read_multi,"ax",%progbits
 196              		.align	1
 197              		.p2align 4,,15
 198              		.global	VL53L0X_read_multi
 199              		.syntax unified
 200              		.thumb
 201              		.thumb_func
 202              		.fpu fpv4-sp-d16
 203              		.type	VL53L0X_read_multi, %function
 204              	VL53L0X_read_multi:
 205              	.LVL23:
 206              	.LFB257:
 207              		.loc 1 38 92 is_stmt 1 view -0
 208              		.cfi_startproc
 209              		@ args = 0, pretend = 0, frame = 8
 210              		@ frame_needed = 0, uses_anonymous_args = 0
 211              		.loc 1 38 92 is_stmt 0 view .LVU44
 212 0000 F0B5     		push	{r4, r5, r6, r7, lr}
 213              		.cfi_def_cfa_offset 20
 214              		.cfi_offset 4, -20
 215              		.cfi_offset 5, -16
 216              		.cfi_offset 6, -12
 217              		.cfi_offset 7, -8
 218              		.cfi_offset 14, -4
 219              		.loc 1 45 3 view .LVU45
 220 0002 1B4F     		ldr	r7, .L28
 221              		.loc 1 38 92 view .LVU46
 222 0004 1B4C     		ldr	r4, .L28+4
 223 0006 87B0     		sub	sp, sp, #28
 224              		.cfi_def_cfa_offset 48
 225              		.loc 1 38 92 view .LVU47
 226 0008 2468     		ldr	r4, [r4]
 227 000a 0594     		str	r4, [sp, #20]
 228 000c 4FF00004 		mov	r4,#0
ARM GAS  /tmp/ccUJrPmJ.s 			page 5


 229 0010 0446     		mov	r4, r0
 230              		.loc 1 45 3 view .LVU48
 231 0012 3846     		mov	r0, r7
 232              	.LVL24:
 233              		.loc 1 38 92 view .LVU49
 234 0014 1546     		mov	r5, r2
 235              		.loc 1 40 3 is_stmt 1 view .LVU50
 236              	.LVL25:
 237              		.loc 1 41 3 view .LVU51
 238              		.loc 1 43 3 view .LVU52
 239              		.loc 1 45 3 view .LVU53
 240              		.loc 1 38 92 is_stmt 0 view .LVU54
 241 0016 1E46     		mov	r6, r3
 242              		.loc 1 43 11 view .LVU55
 243 0018 8DF81010 		strb	r1, [sp, #16]
 244              		.loc 1 45 3 view .LVU56
 245 001c FFF7FEFF 		bl	i2cAcquireBus
 246              	.LVL26:
 247              		.loc 1 46 3 is_stmt 1 view .LVU57
 248              		.loc 1 46 12 is_stmt 0 view .LVU58
 249 0020 3223     		movs	r3, #50
 250 0022 0293     		str	r3, [sp, #8]
 251 0024 CDE90056 		strd	r5, r6, [sp]
 252 0028 6108     		lsrs	r1, r4, #1
 253 002a 3846     		mov	r0, r7
 254 002c 0123     		movs	r3, #1
 255 002e 04AA     		add	r2, sp, #16
 256 0030 FFF7FEFF 		bl	i2cMasterTransmitTimeout
 257              	.LVL27:
 258              		.loc 1 48 3 is_stmt 1 view .LVU59
 259              		.loc 1 48 6 is_stmt 0 view .LVU60
 260 0034 58B9     		cbnz	r0, .L25
 261 0036 0446     		mov	r4, r0
 262              		.loc 1 56 3 is_stmt 1 view .LVU61
 263 0038 3846     		mov	r0, r7
 264              	.LVL28:
 265              		.loc 1 56 3 is_stmt 0 view .LVU62
 266 003a FFF7FEFF 		bl	i2cReleaseBus
 267              	.LVL29:
 268              		.loc 1 57 3 is_stmt 1 view .LVU63
 269              	.L19:
 270              		.loc 1 58 1 is_stmt 0 view .LVU64
 271 003e 0D4B     		ldr	r3, .L28+4
 272 0040 1A68     		ldr	r2, [r3]
 273 0042 059B     		ldr	r3, [sp, #20]
 274 0044 5A40     		eors	r2, r3, r2
 275 0046 10D1     		bne	.L26
 276 0048 2046     		mov	r0, r4
 277 004a 07B0     		add	sp, sp, #28
 278              		.cfi_remember_state
 279              		.cfi_def_cfa_offset 20
 280              		@ sp needed
 281 004c F0BD     		pop	{r4, r5, r6, r7, pc}
 282              	.LVL30:
 283              	.L25:
 284              		.cfi_restore_state
 285              	.LBB8:
ARM GAS  /tmp/ccUJrPmJ.s 			page 6


 286              	.LBI8:
 287              		.loc 1 38 9 is_stmt 1 view .LVU65
 288              	.LBB9:
 289              		.loc 1 49 5 view .LVU66
 290              		.loc 1 49 7 is_stmt 0 view .LVU67
 291 004e 3B78     		ldrb	r3, [r7]	@ zero_extendqisi2
 292 0050 052B     		cmp	r3, #5
 293 0052 05D0     		beq	.L27
 294              	.LVL31:
 295              	.L21:
 296              		.loc 1 53 5 is_stmt 1 view .LVU68
 297 0054 0648     		ldr	r0, .L28
 298 0056 FFF7FEFF 		bl	i2cReleaseBus
 299              	.LVL32:
 300              		.loc 1 54 5 view .LVU69
 301              		.loc 1 53 5 is_stmt 0 view .LVU70
 302 005a 6FF01304 		mvn	r4, #19
 303 005e EEE7     		b	.L19
 304              	.LVL33:
 305              	.L27:
 306              		.loc 1 50 7 is_stmt 1 view .LVU71
 307 0060 FFF7FEFF 		bl	i2c_stop
 308              	.LVL34:
 309              		.loc 1 51 7 view .LVU72
 310 0064 FFF7FEFF 		bl	i2c_start
 311              	.LVL35:
 312 0068 F4E7     		b	.L21
 313              	.LVL36:
 314              	.L26:
 315              		.loc 1 51 7 is_stmt 0 view .LVU73
 316              	.LBE9:
 317              	.LBE8:
 318              		.loc 1 58 1 view .LVU74
 319 006a FFF7FEFF 		bl	__stack_chk_fail
 320              	.LVL37:
 321              	.L29:
 322 006e 00BF     		.align	2
 323              	.L28:
 324 0070 00000000 		.word	I2CD1
 325 0074 00000000 		.word	.LC1
 326              		.cfi_endproc
 327              	.LFE257:
 328              		.size	VL53L0X_read_multi, .-VL53L0X_read_multi
 329              		.section	.rodata.VL53L0X_write_byte.cst4,"aM",%progbits,4
 330              		.align	2
 331              	.LC2:
 332 0000 00000000 		.word	__stack_chk_guard
 333              		.section	.text.VL53L0X_write_byte,"ax",%progbits
 334              		.align	1
 335              		.p2align 4,,15
 336              		.global	VL53L0X_write_byte
 337              		.syntax unified
 338              		.thumb
 339              		.thumb_func
 340              		.fpu fpv4-sp-d16
 341              		.type	VL53L0X_write_byte, %function
 342              	VL53L0X_write_byte:
ARM GAS  /tmp/ccUJrPmJ.s 			page 7


 343              	.LVL38:
 344              	.LFB258:
 345              		.loc 1 60 74 is_stmt 1 view -0
 346              		.cfi_startproc
 347              		@ args = 0, pretend = 0, frame = 16
 348              		@ frame_needed = 0, uses_anonymous_args = 0
 349              		.loc 1 60 74 is_stmt 0 view .LVU76
 350 0000 10B5     		push	{r4, lr}
 351              		.cfi_def_cfa_offset 8
 352              		.cfi_offset 4, -8
 353              		.cfi_offset 14, -4
 354 0002 84B0     		sub	sp, sp, #16
 355              		.cfi_def_cfa_offset 24
 356              		.loc 1 60 74 view .LVU77
 357 0004 1446     		mov	r4, r2
 358 0006 8DF80740 		strb	r4, [sp, #7]
 359 000a 094C     		ldr	r4, .L34
 360              		.loc 1 61 10 view .LVU78
 361 000c 0123     		movs	r3, #1
 362 000e 0DF10702 		add	r2, sp, #7
 363              	.LVL39:
 364              		.loc 1 60 74 view .LVU79
 365 0012 2468     		ldr	r4, [r4]
 366 0014 0394     		str	r4, [sp, #12]
 367 0016 4FF00004 		mov	r4,#0
 368              		.loc 1 61 3 is_stmt 1 view .LVU80
 369              		.loc 1 61 10 is_stmt 0 view .LVU81
 370 001a FFF7FEFF 		bl	VL53L0X_write_multi
 371              	.LVL40:
 372              		.loc 1 62 1 view .LVU82
 373 001e 044B     		ldr	r3, .L34
 374 0020 1A68     		ldr	r2, [r3]
 375 0022 039B     		ldr	r3, [sp, #12]
 376 0024 5A40     		eors	r2, r3, r2
 377 0026 01D1     		bne	.L33
 378 0028 04B0     		add	sp, sp, #16
 379              		.cfi_remember_state
 380              		.cfi_def_cfa_offset 8
 381              		@ sp needed
 382 002a 10BD     		pop	{r4, pc}
 383              	.L33:
 384              		.cfi_restore_state
 385 002c FFF7FEFF 		bl	__stack_chk_fail
 386              	.LVL41:
 387              	.L35:
 388              		.align	2
 389              	.L34:
 390 0030 00000000 		.word	.LC2
 391              		.cfi_endproc
 392              	.LFE258:
 393              		.size	VL53L0X_write_byte, .-VL53L0X_write_byte
 394              		.section	.rodata.VL53L0X_write_word.cst4,"aM",%progbits,4
 395              		.align	2
 396              	.LC3:
 397 0000 00000000 		.word	__stack_chk_guard
 398              		.section	.text.VL53L0X_write_word,"ax",%progbits
 399              		.align	1
ARM GAS  /tmp/ccUJrPmJ.s 			page 8


 400              		.p2align 4,,15
 401              		.global	VL53L0X_write_word
 402              		.syntax unified
 403              		.thumb
 404              		.thumb_func
 405              		.fpu fpv4-sp-d16
 406              		.type	VL53L0X_write_word, %function
 407              	VL53L0X_write_word:
 408              	.LVL42:
 409              	.LFB259:
 410              		.loc 1 64 75 is_stmt 1 view -0
 411              		.cfi_startproc
 412              		@ args = 0, pretend = 0, frame = 8
 413              		@ frame_needed = 0, uses_anonymous_args = 0
 414              		.loc 1 64 75 is_stmt 0 view .LVU84
 415 0000 10B5     		push	{r4, lr}
 416              		.cfi_def_cfa_offset 8
 417              		.cfi_offset 4, -8
 418              		.cfi_offset 14, -4
 419 0002 82B0     		sub	sp, sp, #8
 420              		.cfi_def_cfa_offset 16
 421              		.loc 1 67 11 view .LVU85
 422 0004 54BA     		rev16	r4, r2
 423 0006 ADF80040 		strh	r4, [sp]	@ movhi
 424              		.loc 1 64 75 view .LVU86
 425 000a 094C     		ldr	r4, .L40
 426              		.loc 1 68 10 view .LVU87
 427 000c 0223     		movs	r3, #2
 428 000e 6A46     		mov	r2, sp
 429              	.LVL43:
 430              		.loc 1 64 75 view .LVU88
 431 0010 2468     		ldr	r4, [r4]
 432 0012 0194     		str	r4, [sp, #4]
 433 0014 4FF00004 		mov	r4,#0
 434              		.loc 1 65 3 is_stmt 1 view .LVU89
 435              		.loc 1 66 3 view .LVU90
 436              		.loc 1 67 3 view .LVU91
 437              		.loc 1 68 3 view .LVU92
 438              		.loc 1 68 10 is_stmt 0 view .LVU93
 439 0018 FFF7FEFF 		bl	VL53L0X_write_multi
 440              	.LVL44:
 441              		.loc 1 69 1 view .LVU94
 442 001c 044B     		ldr	r3, .L40
 443 001e 1A68     		ldr	r2, [r3]
 444 0020 019B     		ldr	r3, [sp, #4]
 445 0022 5A40     		eors	r2, r3, r2
 446 0024 01D1     		bne	.L39
 447 0026 02B0     		add	sp, sp, #8
 448              		.cfi_remember_state
 449              		.cfi_def_cfa_offset 8
 450              		@ sp needed
 451 0028 10BD     		pop	{r4, pc}
 452              	.L39:
 453              		.cfi_restore_state
 454 002a FFF7FEFF 		bl	__stack_chk_fail
 455              	.LVL45:
 456              	.L41:
ARM GAS  /tmp/ccUJrPmJ.s 			page 9


 457 002e 00BF     		.align	2
 458              	.L40:
 459 0030 00000000 		.word	.LC3
 460              		.cfi_endproc
 461              	.LFE259:
 462              		.size	VL53L0X_write_word, .-VL53L0X_write_word
 463              		.section	.rodata.VL53L0X_write_dword.cst4,"aM",%progbits,4
 464              		.align	2
 465              	.LC4:
 466 0000 00000000 		.word	__stack_chk_guard
 467              		.section	.text.VL53L0X_write_dword,"ax",%progbits
 468              		.align	1
 469              		.p2align 4,,15
 470              		.global	VL53L0X_write_dword
 471              		.syntax unified
 472              		.thumb
 473              		.thumb_func
 474              		.fpu fpv4-sp-d16
 475              		.type	VL53L0X_write_dword, %function
 476              	VL53L0X_write_dword:
 477              	.LVL46:
 478              	.LFB260:
 479              		.loc 1 71 76 is_stmt 1 view -0
 480              		.cfi_startproc
 481              		@ args = 0, pretend = 0, frame = 8
 482              		@ frame_needed = 0, uses_anonymous_args = 0
 483              		.loc 1 71 76 is_stmt 0 view .LVU96
 484 0000 10B5     		push	{r4, lr}
 485              		.cfi_def_cfa_offset 8
 486              		.cfi_offset 4, -8
 487              		.cfi_offset 14, -4
 488 0002 82B0     		sub	sp, sp, #8
 489              		.cfi_def_cfa_offset 16
 490 0004 14BA     		rev	r4, r2
 491              		.loc 1 77 11 view .LVU97
 492 0006 0094     		str	r4, [sp]
 493              		.loc 1 71 76 view .LVU98
 494 0008 084C     		ldr	r4, .L46
 495              		.loc 1 79 10 view .LVU99
 496 000a 0423     		movs	r3, #4
 497 000c 6A46     		mov	r2, sp
 498              	.LVL47:
 499              		.loc 1 71 76 view .LVU100
 500 000e 2468     		ldr	r4, [r4]
 501 0010 0194     		str	r4, [sp, #4]
 502 0012 4FF00004 		mov	r4,#0
 503              		.loc 1 72 3 is_stmt 1 view .LVU101
 504              		.loc 1 74 3 view .LVU102
 505              		.loc 1 75 3 view .LVU103
 506              		.loc 1 76 3 view .LVU104
 507              		.loc 1 77 3 view .LVU105
 508              		.loc 1 79 3 view .LVU106
 509              		.loc 1 79 10 is_stmt 0 view .LVU107
 510 0016 FFF7FEFF 		bl	VL53L0X_write_multi
 511              	.LVL48:
 512              		.loc 1 80 1 view .LVU108
 513 001a 044B     		ldr	r3, .L46
ARM GAS  /tmp/ccUJrPmJ.s 			page 10


 514 001c 1A68     		ldr	r2, [r3]
 515 001e 019B     		ldr	r3, [sp, #4]
 516 0020 5A40     		eors	r2, r3, r2
 517 0022 01D1     		bne	.L45
 518 0024 02B0     		add	sp, sp, #8
 519              		.cfi_remember_state
 520              		.cfi_def_cfa_offset 8
 521              		@ sp needed
 522 0026 10BD     		pop	{r4, pc}
 523              	.L45:
 524              		.cfi_restore_state
 525 0028 FFF7FEFF 		bl	__stack_chk_fail
 526              	.LVL49:
 527              	.L47:
 528              		.align	2
 529              	.L46:
 530 002c 00000000 		.word	.LC4
 531              		.cfi_endproc
 532              	.LFE260:
 533              		.size	VL53L0X_write_dword, .-VL53L0X_write_dword
 534              		.section	.rodata.VL53L0X_read_byte.cst4,"aM",%progbits,4
 535              		.align	2
 536              	.LC5:
 537 0000 00000000 		.word	__stack_chk_guard
 538              		.section	.text.VL53L0X_read_byte,"ax",%progbits
 539              		.align	1
 540              		.p2align 4,,15
 541              		.global	VL53L0X_read_byte
 542              		.syntax unified
 543              		.thumb
 544              		.thumb_func
 545              		.fpu fpv4-sp-d16
 546              		.type	VL53L0X_read_byte, %function
 547              	VL53L0X_read_byte:
 548              	.LVL50:
 549              	.LFB261:
 550              		.loc 1 82 74 is_stmt 1 view -0
 551              		.cfi_startproc
 552              		@ args = 0, pretend = 0, frame = 8
 553              		@ frame_needed = 0, uses_anonymous_args = 0
 554              		.loc 1 82 74 is_stmt 0 view .LVU110
 555 0000 00B5     		push	{lr}
 556              		.cfi_def_cfa_offset 4
 557              		.cfi_offset 14, -4
 558 0002 0A4B     		ldr	r3, .L53
 559 0004 83B0     		sub	sp, sp, #12
 560              		.cfi_def_cfa_offset 16
 561              		.loc 1 82 74 view .LVU111
 562 0006 1B68     		ldr	r3, [r3]
 563 0008 0193     		str	r3, [sp, #4]
 564 000a 4FF00003 		mov	r3,#0
 565              		.loc 1 83 3 is_stmt 1 view .LVU112
 566              		.loc 1 83 10 is_stmt 0 view .LVU113
 567 000e 074B     		ldr	r3, .L53
 568 0010 D3F800C0 		ldr	ip, [r3]
 569 0014 019B     		ldr	r3, [sp, #4]
 570 0016 93EA0C0C 		eors	ip, r3, ip
ARM GAS  /tmp/ccUJrPmJ.s 			page 11


 571 001a 05D1     		bne	.L52
 572 001c 0123     		movs	r3, #1
 573              		.loc 1 84 1 view .LVU114
 574 001e 03B0     		add	sp, sp, #12
 575              		.cfi_remember_state
 576              		.cfi_def_cfa_offset 4
 577              		@ sp needed
 578 0020 5DF804EB 		ldr	lr, [sp], #4
 579              		.cfi_restore 14
 580              		.cfi_def_cfa_offset 0
 581              		.loc 1 83 10 view .LVU115
 582 0024 FFF7FEBF 		b	VL53L0X_read_multi
 583              	.LVL51:
 584              	.L52:
 585              		.cfi_restore_state
 586              		.loc 1 83 10 view .LVU116
 587 0028 FFF7FEFF 		bl	__stack_chk_fail
 588              	.LVL52:
 589              	.L54:
 590              		.loc 1 83 10 view .LVU117
 591              		.align	2
 592              	.L53:
 593 002c 00000000 		.word	.LC5
 594              		.cfi_endproc
 595              	.LFE261:
 596              		.size	VL53L0X_read_byte, .-VL53L0X_read_byte
 597              		.section	.rodata.VL53L0X_read_word.cst4,"aM",%progbits,4
 598              		.align	2
 599              	.LC6:
 600 0000 00000000 		.word	__stack_chk_guard
 601              		.section	.text.VL53L0X_read_word,"ax",%progbits
 602              		.align	1
 603              		.p2align 4,,15
 604              		.global	VL53L0X_read_word
 605              		.syntax unified
 606              		.thumb
 607              		.thumb_func
 608              		.fpu fpv4-sp-d16
 609              		.type	VL53L0X_read_word, %function
 610              	VL53L0X_read_word:
 611              	.LVL53:
 612              	.LFB262:
 613              		.loc 1 86 75 is_stmt 1 view -0
 614              		.cfi_startproc
 615              		@ args = 0, pretend = 0, frame = 8
 616              		@ frame_needed = 0, uses_anonymous_args = 0
 617              		.loc 1 86 75 is_stmt 0 view .LVU119
 618 0000 10B5     		push	{r4, lr}
 619              		.cfi_def_cfa_offset 8
 620              		.cfi_offset 4, -8
 621              		.cfi_offset 14, -4
 622 0002 DFF834C0 		ldr	ip, .L59
 623 0006 82B0     		sub	sp, sp, #8
 624              		.cfi_def_cfa_offset 16
 625              		.loc 1 86 75 view .LVU120
 626 0008 1446     		mov	r4, r2
 627              		.loc 1 88 11 view .LVU121
ARM GAS  /tmp/ccUJrPmJ.s 			page 12


 628 000a 0223     		movs	r3, #2
 629 000c 6A46     		mov	r2, sp
 630              	.LVL54:
 631              		.loc 1 86 75 view .LVU122
 632 000e DCF800C0 		ldr	ip, [ip]
 633 0012 CDF804C0 		str	ip, [sp, #4]
 634 0016 4FF0000C 		mov	ip,#0
 635              		.loc 1 87 3 is_stmt 1 view .LVU123
 636              		.loc 1 88 3 view .LVU124
 637              		.loc 1 88 11 is_stmt 0 view .LVU125
 638 001a FFF7FEFF 		bl	VL53L0X_read_multi
 639              	.LVL55:
 640              		.loc 1 90 3 is_stmt 1 view .LVU126
 641              		.loc 1 91 3 view .LVU127
 642              		.loc 1 92 3 view .LVU128
 643              		.loc 1 93 3 view .LVU129
 644              		.loc 1 94 3 view .LVU130
 645              		.loc 1 94 9 is_stmt 0 view .LVU131
 646 001e BDF80030 		ldrh	r3, [sp]
 647 0022 5BBA     		rev16	r3, r3
 648 0024 2380     		strh	r3, [r4]	@ movhi
 649              		.loc 1 96 3 is_stmt 1 view .LVU132
 650              		.loc 1 97 1 is_stmt 0 view .LVU133
 651 0026 044B     		ldr	r3, .L59
 652 0028 1A68     		ldr	r2, [r3]
 653 002a 019B     		ldr	r3, [sp, #4]
 654 002c 5A40     		eors	r2, r3, r2
 655 002e 01D1     		bne	.L58
 656 0030 02B0     		add	sp, sp, #8
 657              		.cfi_remember_state
 658              		.cfi_def_cfa_offset 8
 659              	.LVL56:
 660              		.loc 1 97 1 view .LVU134
 661              		@ sp needed
 662 0032 10BD     		pop	{r4, pc}
 663              	.LVL57:
 664              	.L58:
 665              		.cfi_restore_state
 666              		.loc 1 97 1 view .LVU135
 667 0034 FFF7FEFF 		bl	__stack_chk_fail
 668              	.LVL58:
 669              	.L60:
 670              		.loc 1 97 1 view .LVU136
 671              		.align	2
 672              	.L59:
 673 0038 00000000 		.word	.LC6
 674              		.cfi_endproc
 675              	.LFE262:
 676              		.size	VL53L0X_read_word, .-VL53L0X_read_word
 677              		.section	.rodata.VL53L0X_read_dword.cst4,"aM",%progbits,4
 678              		.align	2
 679              	.LC7:
 680 0000 00000000 		.word	__stack_chk_guard
 681              		.section	.text.VL53L0X_read_dword,"ax",%progbits
 682              		.align	1
 683              		.p2align 4,,15
 684              		.global	VL53L0X_read_dword
ARM GAS  /tmp/ccUJrPmJ.s 			page 13


 685              		.syntax unified
 686              		.thumb
 687              		.thumb_func
 688              		.fpu fpv4-sp-d16
 689              		.type	VL53L0X_read_dword, %function
 690              	VL53L0X_read_dword:
 691              	.LVL59:
 692              	.LFB263:
 693              		.loc 1 99 76 is_stmt 1 view -0
 694              		.cfi_startproc
 695              		@ args = 0, pretend = 0, frame = 8
 696              		@ frame_needed = 0, uses_anonymous_args = 0
 697              		.loc 1 99 76 is_stmt 0 view .LVU138
 698 0000 10B5     		push	{r4, lr}
 699              		.cfi_def_cfa_offset 8
 700              		.cfi_offset 4, -8
 701              		.cfi_offset 14, -4
 702 0002 DFF848C0 		ldr	ip, .L65
 703 0006 82B0     		sub	sp, sp, #8
 704              		.cfi_def_cfa_offset 16
 705              		.loc 1 99 76 view .LVU139
 706 0008 1446     		mov	r4, r2
 707              		.loc 1 101 11 view .LVU140
 708 000a 0423     		movs	r3, #4
 709 000c 6A46     		mov	r2, sp
 710              	.LVL60:
 711              		.loc 1 99 76 view .LVU141
 712 000e DCF800C0 		ldr	ip, [ip]
 713 0012 CDF804C0 		str	ip, [sp, #4]
 714 0016 4FF0000C 		mov	ip,#0
 715              		.loc 1 100 3 is_stmt 1 view .LVU142
 716              		.loc 1 101 3 view .LVU143
 717              		.loc 1 101 11 is_stmt 0 view .LVU144
 718 001a FFF7FEFF 		bl	VL53L0X_read_multi
 719              	.LVL61:
 720              		.loc 1 103 3 is_stmt 1 view .LVU145
 721              		.loc 1 104 3 view .LVU146
 722              		.loc 1 105 3 view .LVU147
 723              		.loc 1 106 3 view .LVU148
 724 001e BDF80030 		ldrh	r3, [sp]
 725              		.loc 1 108 14 is_stmt 0 view .LVU149
 726 0022 9DF80210 		ldrb	r1, [sp, #2]	@ zero_extendqisi2
 727              		.loc 1 110 14 view .LVU150
 728 0026 9DF80320 		ldrb	r2, [sp, #3]	@ zero_extendqisi2
 729 002a 5BBA     		rev16	r3, r3
 730 002c 9BB2     		uxth	r3, r3
 731              	.LVL62:
 732              		.loc 1 107 3 is_stmt 1 view .LVU151
 733              		.loc 1 108 3 view .LVU152
 734              		.loc 1 108 7 is_stmt 0 view .LVU153
 735 002e 41EA0323 		orr	r3, r1, r3, lsl #8
 736              	.LVL63:
 737              		.loc 1 109 3 is_stmt 1 view .LVU154
 738              		.loc 1 110 3 view .LVU155
 739              		.loc 1 112 3 view .LVU156
 740              		.loc 1 110 7 is_stmt 0 view .LVU157
 741 0032 42EA0323 		orr	r3, r2, r3, lsl #8
ARM GAS  /tmp/ccUJrPmJ.s 			page 14


 742              	.LVL64:
 743              		.loc 1 112 9 view .LVU158
 744 0036 2360     		str	r3, [r4]
 745              		.loc 1 114 3 is_stmt 1 view .LVU159
 746              		.loc 1 115 1 is_stmt 0 view .LVU160
 747 0038 044B     		ldr	r3, .L65
 748              	.LVL65:
 749              		.loc 1 115 1 view .LVU161
 750 003a 1A68     		ldr	r2, [r3]
 751 003c 019B     		ldr	r3, [sp, #4]
 752 003e 5A40     		eors	r2, r3, r2
 753 0040 01D1     		bne	.L64
 754 0042 02B0     		add	sp, sp, #8
 755              		.cfi_remember_state
 756              		.cfi_def_cfa_offset 8
 757              		@ sp needed
 758 0044 10BD     		pop	{r4, pc}
 759              	.LVL66:
 760              	.L64:
 761              		.cfi_restore_state
 762              		.loc 1 115 1 view .LVU162
 763 0046 FFF7FEFF 		bl	__stack_chk_fail
 764              	.LVL67:
 765              	.L66:
 766              		.loc 1 115 1 view .LVU163
 767 004a 00BF     		.align	2
 768              	.L65:
 769 004c 00000000 		.word	.LC7
 770              		.cfi_endproc
 771              	.LFE263:
 772              		.size	VL53L0X_read_dword, .-VL53L0X_read_dword
 773              		.text
 774              	.Letext0:
 775              		.file 2 "/usr/lib/gcc/arm-none-eabi/9.2.1/include/stdint.h"
 776              		.file 3 "/usr/lib/gcc/arm-none-eabi/9.2.1/include/stddef.h"
 777              		.file 4 ".//src/sensors/VL53L0X/Api/platform/src/../inc/../../core/inc/vl53l0x_def.h"
 778              		.file 5 ".//ChibiOS//os/rt/ports/ARMCMx/compilers/GCC/chtypes.h"
 779              		.file 6 ".//ChibiOS//os/rt/include/chsystypes.h"
 780              		.file 7 ".//ChibiOS//os/rt/include/chschd.h"
 781              		.file 8 ".//ChibiOS//os/ext/CMSIS/include/core_cm4.h"
 782              		.file 9 ".//ChibiOS//os/ext/CMSIS/ST/system_stm32f4xx.h"
 783              		.file 10 ".//ChibiOS//os/ext/CMSIS/ST/stm32f407xx.h"
 784              		.file 11 ".//ChibiOS//os/rt/ports/ARMCMx/chcore.h"
 785              		.file 12 ".//ChibiOS//os/rt/ports/ARMCMx/chcore_v7m.h"
 786              		.file 13 ".//ChibiOS//os/rt/include/chdebug.h"
 787              		.file 14 ".//ChibiOS//os/rt/include/chtm.h"
 788              		.file 15 ".//ChibiOS//os/rt/include/chstats.h"
 789              		.file 16 ".//ChibiOS//os/rt/include/chsem.h"
 790              		.file 17 ".//ChibiOS//os/rt/include/chmtx.h"
 791              		.file 18 ".//ChibiOS//os/rt/include/chregistry.h"
 792              		.file 19 ".//ChibiOS//os/rt/include/chevents.h"
 793              		.file 20 ".//ChibiOS//os/rt/include/chqueues.h"
 794              		.file 21 ".//ChibiOS//os/hal/ports/STM32/STM32F4xx/stm32_dma.h"
 795              		.file 22 ".//ChibiOS//os/hal/include/hal_ioblock.h"
 796              		.file 23 ".//ChibiOS//os/hal/ports/STM32/LLD/GPIOv2/pal_lld.h"
 797              		.file 24 ".//ChibiOS//os/hal/include/adc.h"
 798              		.file 25 ".//ChibiOS//os/hal/ports/STM32/STM32F4xx/adc_lld.h"
ARM GAS  /tmp/ccUJrPmJ.s 			page 15


 799              		.file 26 ".//ChibiOS//os/hal/include/can.h"
 800              		.file 27 ".//ChibiOS//os/hal/ports/STM32/LLD/can_lld.h"
 801              		.file 28 ".//ChibiOS//os/hal/include/dac.h"
 802              		.file 29 ".//ChibiOS//os/hal/ports/STM32/LLD/DACv1/dac_lld.h"
 803              		.file 30 ".//ChibiOS//os/hal/include/ext.h"
 804              		.file 31 ".//ChibiOS//os/hal/ports/STM32/LLD/ext_lld.h"
 805              		.file 32 ".//ChibiOS//os/hal/include/gpt.h"
 806              		.file 33 ".//ChibiOS//os/hal/ports/STM32/LLD/TIMv1/gpt_lld.h"
 807              		.file 34 ".//ChibiOS//os/hal/ports/STM32/LLD/TIMv1/stm32_tim.h"
 808              		.file 35 ".//ChibiOS//os/hal/include/i2c.h"
 809              		.file 36 ".//ChibiOS//os/hal/ports/STM32/LLD/I2Cv1/i2c_lld.h"
 810              		.file 37 ".//ChibiOS//os/hal/include/i2s.h"
 811              		.file 38 ".//ChibiOS//os/hal/ports/STM32/LLD/SPIv1/i2s_lld.h"
 812              		.file 39 ".//ChibiOS//os/hal/include/pwm.h"
 813              		.file 40 ".//ChibiOS//os/hal/ports/STM32/LLD/TIMv1/pwm_lld.h"
 814              		.file 41 ".//ChibiOS//os/hal/include/serial.h"
 815              		.file 42 ".//ChibiOS//os/hal/ports/STM32/LLD/USARTv1/serial_lld.h"
 816              		.file 43 ".//ChibiOS//os/hal/include/sdc.h"
 817              		.file 44 ".//ChibiOS//os/hal/ports/STM32/LLD/sdc_lld.h"
 818              		.file 45 ".//ChibiOS//os/hal/include/spi.h"
 819              		.file 46 ".//ChibiOS//os/hal/ports/STM32/LLD/SPIv1/spi_lld.h"
 820              		.file 47 ".//ChibiOS//os/hal/include/usb.h"
 821              		.file 48 ".//ChibiOS//os/hal/ports/STM32/LLD/OTGv1/usb_lld.h"
 822              		.file 49 ".//ChibiOS//os/hal/ports/STM32/LLD/OTGv1/stm32_otg.h"
 823              		.file 50 ".//src/i2c_bus.h"