ARM GAS  /tmp/ccYpZsRp.s 			page 1


   1              		.cpu cortex-m4
   2              		.eabi_attribute 27, 1
   3              		.eabi_attribute 28, 1
   4              		.eabi_attribute 20, 1
   5              		.eabi_attribute 21, 1
   6              		.eabi_attribute 23, 3
   7              		.eabi_attribute 24, 1
   8              		.eabi_attribute 25, 1
   9              		.eabi_attribute 26, 1
  10              		.eabi_attribute 30, 2
  11              		.eabi_attribute 34, 1
  12              		.eabi_attribute 18, 4
  13              		.file	"vl53l0x_api_strings.c"
  14              		.text
  15              	.Ltext0:
  16              		.cfi_sections	.debug_frame
  17              		.section	.rodata.VL53L0X_check_part_used.cst4,"aM",%progbits,4
  18              		.align	2
  19              	.LC0:
  20 0000 00000000 		.word	__stack_chk_guard
  21              		.section	.text.VL53L0X_check_part_used,"ax",%progbits
  22              		.align	1
  23              		.p2align 4,,15
  24              		.global	VL53L0X_check_part_used
  25              		.arch armv7e-m
  26              		.syntax unified
  27              		.thumb
  28              		.thumb_func
  29              		.fpu fpv4-sp-d16
  30              		.type	VL53L0X_check_part_used, %function
  31              	VL53L0X_check_part_used:
  32              	.LVL0:
  33              	.LFB3:
  34              		.file 1 ".//src/sensors/VL53L0X/Api/core/src/vl53l0x_api_strings.c"
  35              		.loc 1 48 1 view -0
  36              		.cfi_startproc
  37              		@ args = 0, pretend = 0, frame = 8
  38              		@ frame_needed = 0, uses_anonymous_args = 0
  39              		.loc 1 48 1 is_stmt 0 view .LVU1
  40 0000 F0B5     		push	{r4, r5, r6, r7, lr}
  41              		.cfi_def_cfa_offset 20
  42              		.cfi_offset 4, -20
  43              		.cfi_offset 5, -16
  44              		.cfi_offset 6, -12
  45              		.cfi_offset 7, -8
  46              		.cfi_offset 14, -4
  47 0002 144B     		ldr	r3, .L8
  48 0004 83B0     		sub	sp, sp, #12
  49              		.cfi_def_cfa_offset 32
  50              		.loc 1 48 1 view .LVU2
  51 0006 0F46     		mov	r7, r1
  52              		.loc 1 55 11 view .LVU3
  53 0008 0221     		movs	r1, #2
  54              	.LVL1:
  55              		.loc 1 48 1 view .LVU4
  56 000a 1646     		mov	r6, r2
  57 000c 1B68     		ldr	r3, [r3]
ARM GAS  /tmp/ccYpZsRp.s 			page 2


  58 000e 0193     		str	r3, [sp, #4]
  59 0010 4FF00003 		mov	r3,#0
  60              		.loc 1 49 2 is_stmt 1 view .LVU5
  61              	.LVL2:
  62              		.loc 1 50 2 view .LVU6
  63              		.loc 1 51 2 view .LVU7
  64              		.loc 1 53 2 view .LVU8
  65              		.loc 1 55 2 view .LVU9
  66              		.loc 1 48 1 is_stmt 0 view .LVU10
  67 0014 0546     		mov	r5, r0
  68              		.loc 1 55 11 view .LVU11
  69 0016 FFF7FEFF 		bl	VL53L0X_get_info_from_device
  70              	.LVL3:
  71              		.loc 1 57 2 is_stmt 1 view .LVU12
  72              		.loc 1 57 5 is_stmt 0 view .LVU13
  73 001a 0446     		mov	r4, r0
  74 001c 28B9     		cbnz	r0, .L2
  75              		.loc 1 58 3 is_stmt 1 view .LVU14
  76              	.LVL4:
  77              		.loc 1 60 2 view .LVU15
  78              		.loc 1 60 5 is_stmt 0 view .LVU16
  79 001e 95F8F130 		ldrb	r3, [r5, #241]	@ zero_extendqisi2
  80 0022 53B9     		cbnz	r3, .L3
  81              	.LVL5:
  82              	.LBB4:
  83              	.LBI4:
  84              		.loc 1 45 15 is_stmt 1 view .LVU17
  85              	.LBB5:
  86              		.loc 1 61 3 view .LVU18
  87              		.loc 1 61 13 is_stmt 0 view .LVU19
  88 0024 3870     		strb	r0, [r7]
  89              	.LVL6:
  90              		.loc 1 62 3 is_stmt 1 view .LVU20
  91 0026 86F84000 		strb	r0, [r6, #64]
  92              	.LVL7:
  93              	.L2:
  94              		.loc 1 62 3 is_stmt 0 view .LVU21
  95              	.LBE5:
  96              	.LBE4:
  97              		.loc 1 71 2 is_stmt 1 view .LVU22
  98              		.loc 1 72 2 view .LVU23
  99              		.loc 1 73 1 is_stmt 0 view .LVU24
 100 002a 0A4B     		ldr	r3, .L8
 101 002c 1A68     		ldr	r2, [r3]
 102 002e 019B     		ldr	r3, [sp, #4]
 103 0030 5A40     		eors	r2, r3, r2
 104 0032 0CD1     		bne	.L7
 105 0034 2046     		mov	r0, r4
 106 0036 03B0     		add	sp, sp, #12
 107              		.cfi_remember_state
 108              		.cfi_def_cfa_offset 20
 109              		@ sp needed
 110 0038 F0BD     		pop	{r4, r5, r6, r7, pc}
 111              	.LVL8:
 112              	.L3:
 113              		.cfi_restore_state
 114              		.loc 1 64 3 is_stmt 1 view .LVU25
ARM GAS  /tmp/ccYpZsRp.s 			page 3


 115              		.loc 1 64 15 is_stmt 0 view .LVU26
 116 003a 95F8F230 		ldrb	r3, [r5, #242]	@ zero_extendqisi2
 117              		.loc 1 64 13 view .LVU27
 118 003e 3B70     		strb	r3, [r7]
 119              	.LVL9:
 120              		.loc 1 65 3 is_stmt 1 view .LVU28
 121              		.loc 1 67 3 view .LVU29
 122 0040 06F14000 		add	r0, r6, #64
 123              	.LVL10:
 124              		.loc 1 67 3 is_stmt 0 view .LVU30
 125 0044 05F1F301 		add	r1, r5, #243
 126 0048 FFF7FEFF 		bl	strcpy
 127              	.LVL11:
 128 004c EDE7     		b	.L2
 129              	.LVL12:
 130              	.L7:
 131              		.loc 1 73 1 view .LVU31
 132 004e FFF7FEFF 		bl	__stack_chk_fail
 133              	.LVL13:
 134              	.L9:
 135 0052 00BF     		.align	2
 136              	.L8:
 137 0054 00000000 		.word	.LC0
 138              		.cfi_endproc
 139              	.LFE3:
 140              		.size	VL53L0X_check_part_used, .-VL53L0X_check_part_used
 141              		.section	.rodata.VL53L0X_get_device_info.str1.4,"aMS",%progbits,1
 142              		.align	2
 143              	.LC1:
 144 0000 564C3533 		.ascii	"VL53L0X TS0\000"
 144      4C305820 
 144      54533000 
 145              		.align	2
 146              	.LC2:
 147 000c 564C3533 		.ascii	"VL53L0X TS1\000"
 147      4C305820 
 147      54533100 
 148              		.align	2
 149              	.LC3:
 150 0018 564C3533 		.ascii	"VL53L0X TS2\000"
 150      4C305820 
 150      54533200 
 151              		.align	2
 152              	.LC4:
 153 0024 564C3533 		.ascii	"VL53L0X ES1 or later\000"
 153      4C305820 
 153      45533120 
 153      6F72206C 
 153      61746572 
 154 0039 000000   		.align	2
 155              	.LC5:
 156 003c 564C3533 		.ascii	"VL53L0X\000"
 156      4C305800 
 157              		.section	.rodata.VL53L0X_get_device_info.cst4,"aM",%progbits,4
 158              		.align	2
 159              	.LC6:
 160 0000 00000000 		.word	__stack_chk_guard
ARM GAS  /tmp/ccYpZsRp.s 			page 4


 161              		.section	.text.VL53L0X_get_device_info,"ax",%progbits
 162              		.align	1
 163              		.p2align 4,,15
 164              		.global	VL53L0X_get_device_info
 165              		.syntax unified
 166              		.thumb
 167              		.thumb_func
 168              		.fpu fpv4-sp-d16
 169              		.type	VL53L0X_get_device_info, %function
 170              	VL53L0X_get_device_info:
 171              	.LVL14:
 172              	.LFB4:
 173              		.loc 1 78 1 is_stmt 1 view -0
 174              		.cfi_startproc
 175              		@ args = 0, pretend = 0, frame = 8
 176              		@ frame_needed = 0, uses_anonymous_args = 0
 177              		.loc 1 78 1 is_stmt 0 view .LVU33
 178 0000 F0B5     		push	{r4, r5, r6, r7, lr}
 179              		.cfi_def_cfa_offset 20
 180              		.cfi_offset 4, -20
 181              		.cfi_offset 5, -16
 182              		.cfi_offset 6, -12
 183              		.cfi_offset 7, -8
 184              		.cfi_offset 14, -4
 185 0002 2B4B     		ldr	r3, .L25
 186 0004 83B0     		sub	sp, sp, #12
 187              		.cfi_def_cfa_offset 32
 188              		.loc 1 78 1 view .LVU34
 189 0006 0C46     		mov	r4, r1
 190              		.loc 1 83 11 view .LVU35
 191 0008 0A46     		mov	r2, r1
 192 000a 0DF10301 		add	r1, sp, #3
 193              	.LVL15:
 194              		.loc 1 78 1 view .LVU36
 195 000e 1B68     		ldr	r3, [r3]
 196 0010 0193     		str	r3, [sp, #4]
 197 0012 4FF00003 		mov	r3,#0
 198              		.loc 1 79 2 is_stmt 1 view .LVU37
 199              	.LVL16:
 200              		.loc 1 80 2 view .LVU38
 201              		.loc 1 81 2 view .LVU39
 202              		.loc 1 83 2 view .LVU40
 203              		.loc 1 78 1 is_stmt 0 view .LVU41
 204 0016 0546     		mov	r5, r0
 205              		.loc 1 83 11 view .LVU42
 206 0018 FFF7FEFF 		bl	VL53L0X_check_part_used
 207              	.LVL17:
 208              		.loc 1 85 2 is_stmt 1 view .LVU43
 209              		.loc 1 85 5 is_stmt 0 view .LVU44
 210 001c 50BB     		cbnz	r0, .L11
 211              		.loc 1 86 3 is_stmt 1 view .LVU45
 212              		.loc 1 86 16 is_stmt 0 view .LVU46
 213 001e 9DF80330 		ldrb	r3, [sp, #3]	@ zero_extendqisi2
 214              		.loc 1 86 6 view .LVU47
 215 0022 002B     		cmp	r3, #0
 216 0024 35D0     		beq	.L22
 217              		.loc 1 89 10 is_stmt 1 view .LVU48
ARM GAS  /tmp/ccYpZsRp.s 			page 5


 218              		.loc 1 89 13 is_stmt 0 view .LVU49
 219 0026 222B     		cmp	r3, #34
 220 0028 2BD9     		bls	.L23
 221              		.loc 1 92 10 is_stmt 1 view .LVU50
 222              		.loc 1 92 13 is_stmt 0 view .LVU51
 223 002a 262B     		cmp	r3, #38
 224 002c 37D9     		bls	.L15
 225              		.loc 1 96 4 is_stmt 1 view .LVU52
 226 002e 214E     		ldr	r6, .L25+4
 227 0030 0FCE     		ldmia	r6!, {r0, r1, r2, r3}
 228              	.LVL18:
 229              		.loc 1 96 4 is_stmt 0 view .LVU53
 230 0032 3779     		ldrb	r7, [r6, #4]	@ zero_extendqisi2
 231 0034 2060     		str	r0, [r4]	@ unaligned
 232 0036 3068     		ldr	r0, [r6]
 233 0038 6160     		str	r1, [r4, #4]	@ unaligned
 234 003a A260     		str	r2, [r4, #8]	@ unaligned
 235 003c E360     		str	r3, [r4, #12]	@ unaligned
 236 003e 2061     		str	r0, [r4, #16]	@ unaligned
 237 0040 2775     		strb	r7, [r4, #20]
 238              	.L13:
 239              		.loc 1 100 3 is_stmt 1 view .LVU54
 240 0042 1D4B     		ldr	r3, .L25+8
 241 0044 03CB     		ldmia	r3!, {r0, r1}
 242              		.loc 1 106 12 is_stmt 0 view .LVU55
 243 0046 04F16002 		add	r2, r4, #96
 244              		.loc 1 100 3 view .LVU56
 245 004a 2062     		str	r0, [r4, #32]	@ unaligned
 246 004c 6162     		str	r1, [r4, #36]	@ unaligned
 247              		.loc 1 105 2 is_stmt 1 view .LVU57
 248              		.loc 1 106 3 view .LVU58
 249              		.loc 1 106 12 is_stmt 0 view .LVU59
 250 004e 2846     		mov	r0, r5
 251 0050 C021     		movs	r1, #192
 252 0052 FFF7FEFF 		bl	VL53L0X_RdByte
 253              	.LVL19:
 254              		.loc 1 110 2 is_stmt 1 view .LVU60
 255              		.loc 1 110 5 is_stmt 0 view .LVU61
 256 0056 68B9     		cbnz	r0, .L11
 257              		.loc 1 111 3 is_stmt 1 view .LVU62
 258              		.loc 1 111 12 is_stmt 0 view .LVU63
 259 0058 0DF10202 		add	r2, sp, #2
 260 005c 2846     		mov	r0, r5
 261              	.LVL20:
 262              		.loc 1 111 12 view .LVU64
 263 005e C221     		movs	r1, #194
 264 0060 FFF7FEFF 		bl	VL53L0X_RdByte
 265              	.LVL21:
 266              		.loc 1 116 27 view .LVU65
 267 0064 9DF80230 		ldrb	r3, [sp, #2]	@ zero_extendqisi2
 268              		.loc 1 114 45 view .LVU66
 269 0068 0122     		movs	r2, #1
 270              		.loc 1 116 27 view .LVU67
 271 006a 1B09     		lsrs	r3, r3, #4
 272              	.LVL22:
 273              		.loc 1 114 3 is_stmt 1 view .LVU68
 274              		.loc 1 115 45 is_stmt 0 view .LVU69
ARM GAS  /tmp/ccYpZsRp.s 			page 6


 275 006c 84F86230 		strb	r3, [r4, #98]
 276              		.loc 1 114 45 view .LVU70
 277 0070 84F86120 		strb	r2, [r4, #97]
 278              		.loc 1 115 3 is_stmt 1 view .LVU71
 279              	.L11:
 280              		.loc 1 119 2 view .LVU72
 281              		.loc 1 120 1 is_stmt 0 view .LVU73
 282 0074 0E4B     		ldr	r3, .L25
 283 0076 1A68     		ldr	r2, [r3]
 284 0078 019B     		ldr	r3, [sp, #4]
 285 007a 5A40     		eors	r2, r3, r2
 286 007c 15D1     		bne	.L24
 287              		.loc 1 120 1 view .LVU74
 288 007e 03B0     		add	sp, sp, #12
 289              		.cfi_remember_state
 290              		.cfi_def_cfa_offset 20
 291              		@ sp needed
 292 0080 F0BD     		pop	{r4, r5, r6, r7, pc}
 293              	.LVL23:
 294              	.L23:
 295              		.cfi_restore_state
 296              		.loc 1 89 31 discriminator 1 view .LVU75
 297 0082 202B     		cmp	r3, #32
 298 0084 0BD0     		beq	.L15
 299              		.loc 1 90 4 is_stmt 1 view .LVU76
 300 0086 0D4B     		ldr	r3, .L25+12
 301 0088 07CB     		ldmia	r3!, {r0, r1, r2}
 302              	.LVL24:
 303              		.loc 1 90 4 is_stmt 0 view .LVU77
 304 008a 2060     		str	r0, [r4]	@ unaligned
 305 008c 6160     		str	r1, [r4, #4]	@ unaligned
 306 008e A260     		str	r2, [r4, #8]	@ unaligned
 307 0090 D7E7     		b	.L13
 308              	.LVL25:
 309              	.L22:
 310              		.loc 1 87 4 is_stmt 1 view .LVU78
 311 0092 0B4B     		ldr	r3, .L25+16
 312 0094 07CB     		ldmia	r3!, {r0, r1, r2}
 313              	.LVL26:
 314              		.loc 1 87 4 is_stmt 0 view .LVU79
 315 0096 2060     		str	r0, [r4]	@ unaligned
 316 0098 6160     		str	r1, [r4, #4]	@ unaligned
 317 009a A260     		str	r2, [r4, #8]	@ unaligned
 318 009c D1E7     		b	.L13
 319              	.LVL27:
 320              	.L15:
 321              		.loc 1 93 4 is_stmt 1 view .LVU80
 322 009e 094B     		ldr	r3, .L25+20
 323 00a0 07CB     		ldmia	r3!, {r0, r1, r2}
 324              	.LVL28:
 325              		.loc 1 93 4 is_stmt 0 view .LVU81
 326 00a2 2060     		str	r0, [r4]	@ unaligned
 327 00a4 6160     		str	r1, [r4, #4]	@ unaligned
 328 00a6 A260     		str	r2, [r4, #8]	@ unaligned
 329 00a8 CBE7     		b	.L13
 330              	.LVL29:
 331              	.L24:
ARM GAS  /tmp/ccYpZsRp.s 			page 7


 332              		.loc 1 120 1 view .LVU82
 333 00aa FFF7FEFF 		bl	__stack_chk_fail
 334              	.LVL30:
 335              	.L26:
 336              		.loc 1 120 1 view .LVU83
 337 00ae 00BF     		.align	2
 338              	.L25:
 339 00b0 00000000 		.word	.LC6
 340 00b4 24000000 		.word	.LC4
 341 00b8 3C000000 		.word	.LC5
 342 00bc 0C000000 		.word	.LC2
 343 00c0 00000000 		.word	.LC1
 344 00c4 18000000 		.word	.LC3
 345              		.cfi_endproc
 346              	.LFE4:
 347              		.size	VL53L0X_get_device_info, .-VL53L0X_get_device_info
 348              		.section	.rodata.VL53L0X_get_device_error_string.str1.4,"aMS",%progbits,1
 349              		.align	2
 350              	.LC7:
 351 0000 4E6F2055 		.ascii	"No Update\000"
 351      70646174 
 351      6500
 352 000a 0000     		.align	2
 353              	.LC8:
 354 000c 56435345 		.ascii	"VCSEL Continuity Test Failure\000"
 354      4C20436F 
 354      6E74696E 
 354      75697479 
 354      20546573 
 355 002a 0000     		.align	2
 356              	.LC9:
 357 002c 56435345 		.ascii	"VCSEL Watchdog Test Failure\000"
 357      4C205761 
 357      74636864 
 357      6F672054 
 357      65737420 
 358              		.align	2
 359              	.LC10:
 360 0048 4E6F2056 		.ascii	"No VHV Value found\000"
 360      48562056 
 360      616C7565 
 360      20666F75 
 360      6E6400
 361 005b 00       		.align	2
 362              	.LC11:
 363 005c 4D535243 		.ascii	"MSRC No Target Error\000"
 363      204E6F20 
 363      54617267 
 363      65742045 
 363      72726F72 
 364 0071 000000   		.align	2
 365              	.LC12:
 366 0074 534E5220 		.ascii	"SNR Check Exit\000"
 366      43686563 
 366      6B204578 
 366      697400
 367 0083 00       		.align	2
ARM GAS  /tmp/ccYpZsRp.s 			page 8


 368              	.LC13:
 369 0084 52616E67 		.ascii	"Range Phase Check Error\000"
 369      65205068 
 369      61736520 
 369      43686563 
 369      6B204572 
 370              		.align	2
 371              	.LC14:
 372 009c 5369676D 		.ascii	"Sigma Threshold Check Error\000"
 372      61205468 
 372      72657368 
 372      6F6C6420 
 372      43686563 
 373              		.align	2
 374              	.LC15:
 375 00b8 54434320 		.ascii	"TCC Error\000"
 375      4572726F 
 375      7200
 376 00c2 0000     		.align	2
 377              	.LC16:
 378 00c4 50686173 		.ascii	"Phase Consistency Error\000"
 378      6520436F 
 378      6E736973 
 378      74656E63 
 378      79204572 
 379              		.align	2
 380              	.LC17:
 381 00dc 4D696E20 		.ascii	"Min Clip Error\000"
 381      436C6970 
 381      20457272 
 381      6F7200
 382 00eb 00       		.align	2
 383              	.LC18:
 384 00ec 52616E67 		.ascii	"Range Complete\000"
 384      6520436F 
 384      6D706C65 
 384      746500
 385 00fb 00       		.align	2
 386              	.LC19:
 387 00fc 52616E67 		.ascii	"Range Algo Underflow Error\000"
 387      6520416C 
 387      676F2055 
 387      6E646572 
 387      666C6F77 
 388 0117 00       		.align	2
 389              	.LC20:
 390 0118 52616E67 		.ascii	"Range Algo Overlow Error\000"
 390      6520416C 
 390      676F204F 
 390      7665726C 
 390      6F772045 
 391 0131 000000   		.align	2
 392              	.LC21:
 393 0134 52616E67 		.ascii	"Range Ignore Threshold Error\000"
 393      65204967 
 393      6E6F7265 
 393      20546872 
ARM GAS  /tmp/ccYpZsRp.s 			page 9


 393      6573686F 
 394 0151 000000   		.align	2
 395              	.LC22:
 396 0154 556E6B6E 		.ascii	"Unknown Error Code\000"
 396      6F776E20 
 396      4572726F 
 396      7220436F 
 396      646500
 397              		.section	.rodata.VL53L0X_get_device_error_string.cst4,"aM",%progbits,4
 398              		.align	2
 399              	.LC23:
 400 0000 00000000 		.word	__stack_chk_guard
 401              		.section	.text.VL53L0X_get_device_error_string,"ax",%progbits
 402              		.align	1
 403              		.p2align 4,,15
 404              		.global	VL53L0X_get_device_error_string
 405              		.syntax unified
 406              		.thumb
 407              		.thumb_func
 408              		.fpu fpv4-sp-d16
 409              		.type	VL53L0X_get_device_error_string, %function
 410              	VL53L0X_get_device_error_string:
 411              	.LVL31:
 412              	.LFB5:
 413              		.loc 1 125 1 is_stmt 1 view -0
 414              		.cfi_startproc
 415              		@ args = 0, pretend = 0, frame = 8
 416              		@ frame_needed = 0, uses_anonymous_args = 0
 417              		.loc 1 125 1 is_stmt 0 view .LVU85
 418 0000 70B5     		push	{r4, r5, r6, lr}
 419              		.cfi_def_cfa_offset 16
 420              		.cfi_offset 4, -16
 421              		.cfi_offset 5, -12
 422              		.cfi_offset 6, -8
 423              		.cfi_offset 14, -4
 424 0002 4C4B     		ldr	r3, .L54
 425 0004 82B0     		sub	sp, sp, #8
 426              		.cfi_def_cfa_offset 24
 427              		.loc 1 125 1 view .LVU86
 428 0006 0C46     		mov	r4, r1
 429 0008 1B68     		ldr	r3, [r3]
 430 000a 0193     		str	r3, [sp, #4]
 431 000c 4FF00003 		mov	r3,#0
 432              		.loc 1 126 2 is_stmt 1 view .LVU87
 433              	.LVL32:
 434              		.loc 1 128 2 view .LVU88
 435              		.loc 1 130 2 view .LVU89
 436 0010 0E28     		cmp	r0, #14
 437 0012 00F28D80 		bhi	.L28
 438 0016 DFE800F0 		tbb	[pc, r0]
 439              	.L30:
 440 001a 1C       		.byte	(.L44-.L30)/2
 441 001b 23       		.byte	(.L43-.L30)/2
 442 001c 30       		.byte	(.L42-.L30)/2
 443 001d 3B       		.byte	(.L41-.L30)/2
 444 001e 46       		.byte	(.L40-.L30)/2
 445 001f 51       		.byte	(.L39-.L30)/2
ARM GAS  /tmp/ccYpZsRp.s 			page 10


 446 0020 5B       		.byte	(.L38-.L30)/2
 447 0021 65       		.byte	(.L37-.L30)/2
 448 0022 67       		.byte	(.L36-.L30)/2
 449 0023 69       		.byte	(.L35-.L30)/2
 450 0024 6B       		.byte	(.L34-.L30)/2
 451 0025 6D       		.byte	(.L33-.L30)/2
 452 0026 6F       		.byte	(.L32-.L30)/2
 453 0027 7D       		.byte	(.L31-.L30)/2
 454 0028 08       		.byte	(.L29-.L30)/2
 455 0029 00       		.p2align 1
 456              	.L29:
 457              		.loc 1 188 3 view .LVU90
 458 002a 434D     		ldr	r5, .L54+4
 459 002c 0FCD     		ldmia	r5!, {r0, r1, r2, r3}
 460              	.LVL33:
 461              		.loc 1 188 3 is_stmt 0 view .LVU91
 462 002e 2060     		str	r0, [r4]	@ unaligned
 463 0030 6160     		str	r1, [r4, #4]	@ unaligned
 464 0032 A260     		str	r2, [r4, #8]	@ unaligned
 465 0034 07CD     		ldmia	r5!, {r0, r1, r2}
 466 0036 2D78     		ldrb	r5, [r5]	@ zero_extendqisi2
 467 0038 E360     		str	r3, [r4, #12]	@ unaligned
 468 003a 2577     		strb	r5, [r4, #28]
 469              		.loc 1 190 2 is_stmt 1 view .LVU92
 470              		.loc 1 188 3 is_stmt 0 view .LVU93
 471 003c 2061     		str	r0, [r4, #16]	@ unaligned
 472 003e 6161     		str	r1, [r4, #20]	@ unaligned
 473 0040 A261     		str	r2, [r4, #24]	@ unaligned
 474              	.L45:
 475              		.loc 1 198 2 is_stmt 1 view .LVU94
 476              		.loc 1 199 2 view .LVU95
 477              		.loc 1 200 1 is_stmt 0 view .LVU96
 478 0042 3C4B     		ldr	r3, .L54
 479 0044 1A68     		ldr	r2, [r3]
 480 0046 019B     		ldr	r3, [sp, #4]
 481 0048 5A40     		eors	r2, r3, r2
 482 004a 6FD1     		bne	.L53
 483 004c 0020     		movs	r0, #0
 484 004e 02B0     		add	sp, sp, #8
 485              		.cfi_remember_state
 486              		.cfi_def_cfa_offset 16
 487              		@ sp needed
 488 0050 70BD     		pop	{r4, r5, r6, pc}
 489              	.LVL34:
 490              	.L44:
 491              		.cfi_restore_state
 492              		.loc 1 132 3 is_stmt 1 view .LVU97
 493 0052 3A4B     		ldr	r3, .L54+8
 494              	.L48:
 495              		.loc 1 164 3 is_stmt 0 view .LVU98
 496 0054 03CB     		ldmia	r3!, {r0, r1}
 497              	.LVL35:
 498              		.loc 1 164 3 view .LVU99
 499 0056 1B88     		ldrh	r3, [r3]	@ unaligned
 500 0058 2381     		strh	r3, [r4, #8]	@ unaligned
 501              		.loc 1 166 2 is_stmt 1 view .LVU100
 502              		.loc 1 164 3 is_stmt 0 view .LVU101
ARM GAS  /tmp/ccYpZsRp.s 			page 11


 503 005a 2060     		str	r0, [r4]	@ unaligned
 504 005c 6160     		str	r1, [r4, #4]	@ unaligned
 505              		.loc 1 166 2 view .LVU102
 506 005e F0E7     		b	.L45
 507              	.LVL36:
 508              	.L43:
 509              		.loc 1 136 3 is_stmt 1 view .LVU103
 510 0060 374D     		ldr	r5, .L54+12
 511 0062 0FCD     		ldmia	r5!, {r0, r1, r2, r3}
 512              	.LVL37:
 513              		.loc 1 136 3 is_stmt 0 view .LVU104
 514 0064 2060     		str	r0, [r4]	@ unaligned
 515 0066 6160     		str	r1, [r4, #4]	@ unaligned
 516 0068 A260     		str	r2, [r4, #8]	@ unaligned
 517 006a 07CD     		ldmia	r5!, {r0, r1, r2}
 518 006c 2D88     		ldrh	r5, [r5]	@ unaligned
 519 006e E360     		str	r3, [r4, #12]	@ unaligned
 520 0070 A583     		strh	r5, [r4, #28]	@ unaligned
 521              		.loc 1 138 2 is_stmt 1 view .LVU105
 522              		.loc 1 136 3 is_stmt 0 view .LVU106
 523 0072 2061     		str	r0, [r4, #16]	@ unaligned
 524 0074 6161     		str	r1, [r4, #20]	@ unaligned
 525 0076 A261     		str	r2, [r4, #24]	@ unaligned
 526              		.loc 1 138 2 view .LVU107
 527 0078 E3E7     		b	.L45
 528              	.LVL38:
 529              	.L42:
 530              		.loc 1 140 3 is_stmt 1 view .LVU108
 531 007a 324D     		ldr	r5, .L54+16
 532              	.L49:
 533              		.loc 1 160 3 is_stmt 0 view .LVU109
 534 007c 0FCD     		ldmia	r5!, {r0, r1, r2, r3}
 535              	.LVL39:
 536              		.loc 1 160 3 view .LVU110
 537 007e 2060     		str	r0, [r4]	@ unaligned
 538 0080 6160     		str	r1, [r4, #4]	@ unaligned
 539 0082 A260     		str	r2, [r4, #8]	@ unaligned
 540 0084 07CD     		ldmia	r5!, {r0, r1, r2}
 541 0086 E360     		str	r3, [r4, #12]	@ unaligned
 542 0088 2061     		str	r0, [r4, #16]	@ unaligned
 543 008a 6161     		str	r1, [r4, #20]	@ unaligned
 544 008c A261     		str	r2, [r4, #24]	@ unaligned
 545              		.loc 1 162 2 is_stmt 1 view .LVU111
 546 008e D8E7     		b	.L45
 547              	.LVL40:
 548              	.L41:
 549              		.loc 1 144 3 view .LVU112
 550 0090 2D4D     		ldr	r5, .L54+20
 551              	.L50:
 552              		.loc 1 193 3 is_stmt 0 view .LVU113
 553 0092 0FCD     		ldmia	r5!, {r0, r1, r2, r3}
 554              	.LVL41:
 555              		.loc 1 193 3 view .LVU114
 556 0094 2E88     		ldrh	r6, [r5]	@ unaligned
 557 0096 AD78     		ldrb	r5, [r5, #2]	@ zero_extendqisi2
 558 0098 2060     		str	r0, [r4]	@ unaligned
 559 009a 6160     		str	r1, [r4, #4]	@ unaligned
ARM GAS  /tmp/ccYpZsRp.s 			page 12


 560 009c A260     		str	r2, [r4, #8]	@ unaligned
 561 009e E360     		str	r3, [r4, #12]	@ unaligned
 562 00a0 2682     		strh	r6, [r4, #16]	@ unaligned
 563 00a2 A574     		strb	r5, [r4, #18]
 564 00a4 CDE7     		b	.L45
 565              	.LVL42:
 566              	.L40:
 567              		.loc 1 148 3 is_stmt 1 view .LVU115
 568 00a6 294D     		ldr	r5, .L54+24
 569 00a8 0FCD     		ldmia	r5!, {r0, r1, r2, r3}
 570              	.LVL43:
 571              		.loc 1 148 3 is_stmt 0 view .LVU116
 572 00aa 2E79     		ldrb	r6, [r5, #4]	@ zero_extendqisi2
 573 00ac 2060     		str	r0, [r4]	@ unaligned
 574 00ae 2868     		ldr	r0, [r5]
 575 00b0 6160     		str	r1, [r4, #4]	@ unaligned
 576 00b2 A260     		str	r2, [r4, #8]	@ unaligned
 577 00b4 E360     		str	r3, [r4, #12]	@ unaligned
 578 00b6 2061     		str	r0, [r4, #16]	@ unaligned
 579 00b8 2675     		strb	r6, [r4, #20]
 580              		.loc 1 150 2 is_stmt 1 view .LVU117
 581 00ba C2E7     		b	.L45
 582              	.LVL44:
 583              	.L39:
 584              		.loc 1 152 3 view .LVU118
 585 00bc 244B     		ldr	r3, .L54+28
 586              	.L51:
 587              		.loc 1 172 3 is_stmt 0 view .LVU119
 588 00be 07CB     		ldmia	r3!, {r0, r1, r2}
 589              	.LVL45:
 590              		.loc 1 172 3 view .LVU120
 591 00c0 1D88     		ldrh	r5, [r3]	@ unaligned
 592 00c2 9B78     		ldrb	r3, [r3, #2]	@ zero_extendqisi2
 593 00c4 2060     		str	r0, [r4]	@ unaligned
 594 00c6 6160     		str	r1, [r4, #4]	@ unaligned
 595 00c8 A260     		str	r2, [r4, #8]	@ unaligned
 596 00ca A581     		strh	r5, [r4, #12]	@ unaligned
 597 00cc A373     		strb	r3, [r4, #14]
 598              		.loc 1 174 2 is_stmt 1 view .LVU121
 599 00ce B8E7     		b	.L45
 600              	.LVL46:
 601              	.L38:
 602              		.loc 1 156 3 view .LVU122
 603 00d0 204D     		ldr	r5, .L54+32
 604              	.L52:
 605              		.loc 1 168 3 is_stmt 0 view .LVU123
 606 00d2 0FCD     		ldmia	r5!, {r0, r1, r2, r3}
 607              	.LVL47:
 608              		.loc 1 168 3 view .LVU124
 609 00d4 2060     		str	r0, [r4]	@ unaligned
 610 00d6 6160     		str	r1, [r4, #4]	@ unaligned
 611 00d8 03CD     		ldmia	r5!, {r0, r1}
 612 00da A260     		str	r2, [r4, #8]	@ unaligned
 613 00dc E360     		str	r3, [r4, #12]	@ unaligned
 614 00de 2061     		str	r0, [r4, #16]	@ unaligned
 615 00e0 6161     		str	r1, [r4, #20]	@ unaligned
 616              		.loc 1 170 2 is_stmt 1 view .LVU125
ARM GAS  /tmp/ccYpZsRp.s 			page 13


 617 00e2 AEE7     		b	.L45
 618              	.LVL48:
 619              	.L37:
 620              		.loc 1 160 3 view .LVU126
 621 00e4 1C4D     		ldr	r5, .L54+36
 622 00e6 C9E7     		b	.L49
 623              	.L36:
 624              		.loc 1 164 3 view .LVU127
 625 00e8 1C4B     		ldr	r3, .L54+40
 626 00ea B3E7     		b	.L48
 627              	.L35:
 628              		.loc 1 168 3 view .LVU128
 629 00ec 1C4D     		ldr	r5, .L54+44
 630 00ee F0E7     		b	.L52
 631              	.L34:
 632              		.loc 1 172 3 view .LVU129
 633 00f0 1C4B     		ldr	r3, .L54+48
 634 00f2 E4E7     		b	.L51
 635              	.L33:
 636              		.loc 1 176 3 view .LVU130
 637 00f4 1C4B     		ldr	r3, .L54+52
 638 00f6 E2E7     		b	.L51
 639              	.L32:
 640              		.loc 1 180 3 view .LVU131
 641 00f8 1C4D     		ldr	r5, .L54+56
 642 00fa 0FCD     		ldmia	r5!, {r0, r1, r2, r3}
 643              	.LVL49:
 644              		.loc 1 180 3 is_stmt 0 view .LVU132
 645 00fc 2060     		str	r0, [r4]	@ unaligned
 646 00fe 6160     		str	r1, [r4, #4]	@ unaligned
 647 0100 03CD     		ldmia	r5!, {r0, r1}
 648 0102 2E88     		ldrh	r6, [r5]	@ unaligned
 649 0104 AD78     		ldrb	r5, [r5, #2]	@ zero_extendqisi2
 650 0106 A260     		str	r2, [r4, #8]	@ unaligned
 651 0108 E360     		str	r3, [r4, #12]	@ unaligned
 652 010a 2061     		str	r0, [r4, #16]	@ unaligned
 653 010c 6161     		str	r1, [r4, #20]	@ unaligned
 654 010e 2683     		strh	r6, [r4, #24]	@ unaligned
 655 0110 A576     		strb	r5, [r4, #26]
 656              		.loc 1 182 2 is_stmt 1 view .LVU133
 657 0112 96E7     		b	.L45
 658              	.LVL50:
 659              	.L31:
 660              		.loc 1 184 3 view .LVU134
 661 0114 164D     		ldr	r5, .L54+60
 662 0116 0FCD     		ldmia	r5!, {r0, r1, r2, r3}
 663              	.LVL51:
 664              		.loc 1 184 3 is_stmt 0 view .LVU135
 665 0118 2060     		str	r0, [r4]	@ unaligned
 666 011a 6160     		str	r1, [r4, #4]	@ unaligned
 667 011c 03CD     		ldmia	r5!, {r0, r1}
 668 011e 2D78     		ldrb	r5, [r5]	@ zero_extendqisi2
 669 0120 A260     		str	r2, [r4, #8]	@ unaligned
 670 0122 E360     		str	r3, [r4, #12]	@ unaligned
 671 0124 2576     		strb	r5, [r4, #24]
 672              		.loc 1 186 2 is_stmt 1 view .LVU136
 673              		.loc 1 184 3 is_stmt 0 view .LVU137
ARM GAS  /tmp/ccYpZsRp.s 			page 14


 674 0126 2061     		str	r0, [r4, #16]	@ unaligned
 675 0128 6161     		str	r1, [r4, #20]	@ unaligned
 676              		.loc 1 186 2 view .LVU138
 677 012a 8AE7     		b	.L45
 678              	.L53:
 679              		.loc 1 200 1 view .LVU139
 680 012c FFF7FEFF 		bl	__stack_chk_fail
 681              	.LVL52:
 682              	.L28:
 683              		.loc 1 193 3 is_stmt 1 view .LVU140
 684 0130 104D     		ldr	r5, .L54+64
 685 0132 AEE7     		b	.L50
 686              	.L55:
 687              		.align	2
 688              	.L54:
 689 0134 00000000 		.word	.LC23
 690 0138 34010000 		.word	.LC21
 691 013c 00000000 		.word	.LC7
 692 0140 0C000000 		.word	.LC8
 693 0144 2C000000 		.word	.LC9
 694 0148 48000000 		.word	.LC10
 695 014c 5C000000 		.word	.LC11
 696 0150 74000000 		.word	.LC12
 697 0154 84000000 		.word	.LC13
 698 0158 9C000000 		.word	.LC14
 699 015c B8000000 		.word	.LC15
 700 0160 C4000000 		.word	.LC16
 701 0164 DC000000 		.word	.LC17
 702 0168 EC000000 		.word	.LC18
 703 016c FC000000 		.word	.LC19
 704 0170 18010000 		.word	.LC20
 705 0174 54010000 		.word	.LC22
 706              		.cfi_endproc
 707              	.LFE5:
 708              		.size	VL53L0X_get_device_error_string, .-VL53L0X_get_device_error_string
 709              		.section	.rodata.VL53L0X_get_range_status_string.str1.4,"aMS",%progbits,1
 710              		.align	2
 711              	.LC24:
 712 0000 52616E67 		.ascii	"Range Valid\000"
 712      65205661 
 712      6C696400 
 713              		.align	2
 714              	.LC25:
 715 000c 5369676D 		.ascii	"Sigma Fail\000"
 715      61204661 
 715      696C00
 716 0017 00       		.align	2
 717              	.LC26:
 718 0018 5369676E 		.ascii	"Signal Fail\000"
 718      616C2046 
 718      61696C00 
 719              		.align	2
 720              	.LC27:
 721 0024 4D696E20 		.ascii	"Min Range Fail\000"
 721      52616E67 
 721      65204661 
 721      696C00
ARM GAS  /tmp/ccYpZsRp.s 			page 15


 722 0033 00       		.align	2
 723              	.LC28:
 724 0034 50686173 		.ascii	"Phase Fail\000"
 724      65204661 
 724      696C00
 725 003f 00       		.align	2
 726              	.LC29:
 727 0040 48617264 		.ascii	"Hardware Fail\000"
 727      77617265 
 727      20466169 
 727      6C00
 728              		.section	.rodata.VL53L0X_get_range_status_string.cst4,"aM",%progbits,4
 729              		.align	2
 730              	.LC30:
 731 0000 00000000 		.word	__stack_chk_guard
 732              		.section	.text.VL53L0X_get_range_status_string,"ax",%progbits
 733              		.align	1
 734              		.p2align 4,,15
 735              		.global	VL53L0X_get_range_status_string
 736              		.syntax unified
 737              		.thumb
 738              		.thumb_func
 739              		.fpu fpv4-sp-d16
 740              		.type	VL53L0X_get_range_status_string, %function
 741              	VL53L0X_get_range_status_string:
 742              	.LVL53:
 743              	.LFB6:
 744              		.loc 1 204 1 view -0
 745              		.cfi_startproc
 746              		@ args = 0, pretend = 0, frame = 8
 747              		@ frame_needed = 0, uses_anonymous_args = 0
 748              		.loc 1 204 1 is_stmt 0 view .LVU142
 749 0000 30B5     		push	{r4, r5, lr}
 750              		.cfi_def_cfa_offset 12
 751              		.cfi_offset 4, -12
 752              		.cfi_offset 5, -8
 753              		.cfi_offset 14, -4
 754 0002 234A     		ldr	r2, .L70
 755 0004 83B0     		sub	sp, sp, #12
 756              		.cfi_def_cfa_offset 24
 757              		.loc 1 204 1 view .LVU143
 758 0006 0B46     		mov	r3, r1
 759 0008 1268     		ldr	r2, [r2]
 760 000a 0192     		str	r2, [sp, #4]
 761 000c 4FF00002 		mov	r2,#0
 762              		.loc 1 205 2 is_stmt 1 view .LVU144
 763              	.LVL54:
 764              		.loc 1 207 2 view .LVU145
 765              		.loc 1 209 2 view .LVU146
 766 0010 0528     		cmp	r0, #5
 767 0012 36D8     		bhi	.L57
 768 0014 DFE800F0 		tbb	[pc, r0]
 769              	.L59:
 770 0018 12       		.byte	(.L64-.L59)/2
 771 0019 18       		.byte	(.L63-.L59)/2
 772 001a 21       		.byte	(.L62-.L59)/2
 773 001b 27       		.byte	(.L61-.L59)/2
ARM GAS  /tmp/ccYpZsRp.s 			page 16


 774 001c 31       		.byte	(.L60-.L59)/2
 775 001d 03       		.byte	(.L58-.L59)/2
 776              		.p2align 1
 777              	.L58:
 778              		.loc 1 231 3 view .LVU147
 779 001e 1D4C     		ldr	r4, .L70+4
 780 0020 07CC     		ldmia	r4!, {r0, r1, r2}
 781              	.LVL55:
 782              		.loc 1 231 3 is_stmt 0 view .LVU148
 783 0022 2488     		ldrh	r4, [r4]	@ unaligned
 784 0024 9C81     		strh	r4, [r3, #12]	@ unaligned
 785              		.loc 1 233 2 is_stmt 1 view .LVU149
 786              		.loc 1 231 3 is_stmt 0 view .LVU150
 787 0026 1860     		str	r0, [r3]	@ unaligned
 788 0028 5960     		str	r1, [r3, #4]	@ unaligned
 789 002a 9A60     		str	r2, [r3, #8]	@ unaligned
 790              	.L65:
 791              		.loc 1 240 2 is_stmt 1 view .LVU151
 792              		.loc 1 241 2 view .LVU152
 793              		.loc 1 242 1 is_stmt 0 view .LVU153
 794 002c 184B     		ldr	r3, .L70
 795              	.LVL56:
 796              		.loc 1 242 1 view .LVU154
 797 002e 1A68     		ldr	r2, [r3]
 798 0030 019B     		ldr	r3, [sp, #4]
 799 0032 5A40     		eors	r2, r3, r2
 800 0034 23D1     		bne	.L69
 801 0036 0020     		movs	r0, #0
 802 0038 03B0     		add	sp, sp, #12
 803              		.cfi_remember_state
 804              		.cfi_def_cfa_offset 12
 805              		@ sp needed
 806 003a 30BD     		pop	{r4, r5, pc}
 807              	.LVL57:
 808              	.L64:
 809              		.cfi_restore_state
 810              		.loc 1 211 3 is_stmt 1 view .LVU155
 811 003c 164C     		ldr	r4, .L70+8
 812 003e 07CC     		ldmia	r4!, {r0, r1, r2}
 813              	.LVL58:
 814              		.loc 1 211 3 is_stmt 0 view .LVU156
 815 0040 1860     		str	r0, [r3]	@ unaligned
 816 0042 5960     		str	r1, [r3, #4]	@ unaligned
 817 0044 9A60     		str	r2, [r3, #8]	@ unaligned
 818              		.loc 1 213 2 is_stmt 1 view .LVU157
 819 0046 F1E7     		b	.L65
 820              	.LVL59:
 821              	.L63:
 822              		.loc 1 215 3 view .LVU158
 823 0048 144A     		ldr	r2, .L70+12
 824              	.L68:
 825              		.loc 1 227 3 is_stmt 0 view .LVU159
 826 004a 03CA     		ldmia	r2!, {r0, r1}
 827              	.LVL60:
 828              		.loc 1 227 3 view .LVU160
 829 004c 1488     		ldrh	r4, [r2]	@ unaligned
 830 004e 9278     		ldrb	r2, [r2, #2]	@ zero_extendqisi2
ARM GAS  /tmp/ccYpZsRp.s 			page 17


 831 0050 1860     		str	r0, [r3]	@ unaligned
 832 0052 5960     		str	r1, [r3, #4]	@ unaligned
 833 0054 1C81     		strh	r4, [r3, #8]	@ unaligned
 834 0056 9A72     		strb	r2, [r3, #10]
 835              		.loc 1 229 2 is_stmt 1 view .LVU161
 836 0058 E8E7     		b	.L65
 837              	.LVL61:
 838              	.L62:
 839              		.loc 1 219 3 view .LVU162
 840 005a 114C     		ldr	r4, .L70+16
 841 005c 07CC     		ldmia	r4!, {r0, r1, r2}
 842              	.LVL62:
 843              		.loc 1 219 3 is_stmt 0 view .LVU163
 844 005e 1860     		str	r0, [r3]	@ unaligned
 845 0060 5960     		str	r1, [r3, #4]	@ unaligned
 846 0062 9A60     		str	r2, [r3, #8]	@ unaligned
 847              		.loc 1 221 2 is_stmt 1 view .LVU164
 848 0064 E2E7     		b	.L65
 849              	.LVL63:
 850              	.L61:
 851              		.loc 1 223 3 view .LVU165
 852 0066 0F4C     		ldr	r4, .L70+20
 853 0068 07CC     		ldmia	r4!, {r0, r1, r2}
 854              	.LVL64:
 855              		.loc 1 223 3 is_stmt 0 view .LVU166
 856 006a 2588     		ldrh	r5, [r4]	@ unaligned
 857 006c A478     		ldrb	r4, [r4, #2]	@ zero_extendqisi2
 858 006e 1860     		str	r0, [r3]	@ unaligned
 859 0070 5960     		str	r1, [r3, #4]	@ unaligned
 860 0072 9A60     		str	r2, [r3, #8]	@ unaligned
 861 0074 9D81     		strh	r5, [r3, #12]	@ unaligned
 862 0076 9C73     		strb	r4, [r3, #14]
 863              		.loc 1 225 2 is_stmt 1 view .LVU167
 864 0078 D8E7     		b	.L65
 865              	.LVL65:
 866              	.L60:
 867              		.loc 1 227 3 view .LVU168
 868 007a 0B4A     		ldr	r2, .L70+24
 869 007c E5E7     		b	.L68
 870              	.LVL66:
 871              	.L69:
 872              		.loc 1 242 1 is_stmt 0 view .LVU169
 873 007e FFF7FEFF 		bl	__stack_chk_fail
 874              	.LVL67:
 875              	.L57:
 876              		.loc 1 236 3 is_stmt 1 view .LVU170
 877 0082 0A4A     		ldr	r2, .L70+28
 878 0084 03CA     		ldmia	r2!, {r0, r1}
 879              	.LVL68:
 880              		.loc 1 236 3 is_stmt 0 view .LVU171
 881 0086 1288     		ldrh	r2, [r2]	@ unaligned
 882 0088 1A81     		strh	r2, [r3, #8]	@ unaligned
 883 008a 1860     		str	r0, [r3]	@ unaligned
 884 008c 5960     		str	r1, [r3, #4]	@ unaligned
 885 008e CDE7     		b	.L65
 886              	.L71:
 887              		.align	2
ARM GAS  /tmp/ccYpZsRp.s 			page 18


 888              	.L70:
 889 0090 00000000 		.word	.LC30
 890 0094 40000000 		.word	.LC29
 891 0098 00000000 		.word	.LC24
 892 009c 0C000000 		.word	.LC25
 893 00a0 18000000 		.word	.LC26
 894 00a4 24000000 		.word	.LC27
 895 00a8 34000000 		.word	.LC28
 896 00ac 00000000 		.word	.LC7
 897              		.cfi_endproc
 898              	.LFE6:
 899              		.size	VL53L0X_get_range_status_string, .-VL53L0X_get_range_status_string
 900              		.section	.rodata.VL53L0X_get_pal_error_string.str1.4,"aMS",%progbits,1
 901              		.align	2
 902              	.LC31:
 903 0000 4E6F2045 		.ascii	"No Error\000"
 903      72726F72 
 903      00
 904 0009 000000   		.align	2
 905              	.LC32:
 906 000c 43616C69 		.ascii	"Calibration Warning Error\000"
 906      62726174 
 906      696F6E20 
 906      5761726E 
 906      696E6720 
 907 0026 0000     		.align	2
 908              	.LC33:
 909 0028 4D696E20 		.ascii	"Min clipped error\000"
 909      636C6970 
 909      70656420 
 909      6572726F 
 909      7200
 910 003a 0000     		.align	2
 911              	.LC34:
 912 003c 556E6465 		.ascii	"Undefined error\000"
 912      66696E65 
 912      64206572 
 912      726F7200 
 913              		.align	2
 914              	.LC35:
 915 004c 496E7661 		.ascii	"Invalid parameters error\000"
 915      6C696420 
 915      70617261 
 915      6D657465 
 915      72732065 
 916 0065 000000   		.align	2
 917              	.LC36:
 918 0068 4E6F7420 		.ascii	"Not supported error\000"
 918      73757070 
 918      6F727465 
 918      64206572 
 918      726F7200 
 919              		.align	2
 920              	.LC37:
 921 007c 496E7465 		.ascii	"Interrupt not Cleared\000"
 921      72727570 
 921      74206E6F 
ARM GAS  /tmp/ccYpZsRp.s 			page 19


 921      7420436C 
 921      65617265 
 922 0092 0000     		.align	2
 923              	.LC38:
 924 0094 52616E67 		.ascii	"Range error\000"
 924      65206572 
 924      726F7200 
 925              		.align	2
 926              	.LC39:
 927 00a0 54696D65 		.ascii	"Time out error\000"
 927      206F7574 
 927      20657272 
 927      6F7200
 928 00af 00       		.align	2
 929              	.LC40:
 930 00b0 4D6F6465 		.ascii	"Mode not supported error\000"
 930      206E6F74 
 930      20737570 
 930      706F7274 
 930      65642065 
 931 00c9 000000   		.align	2
 932              	.LC41:
 933 00cc 42756666 		.ascii	"Buffer too small\000"
 933      65722074 
 933      6F6F2073 
 933      6D616C6C 
 933      00
 934 00dd 000000   		.align	2
 935              	.LC42:
 936 00e0 4750494F 		.ascii	"GPIO not existing\000"
 936      206E6F74 
 936      20657869 
 936      7374696E 
 936      6700
 937 00f2 0000     		.align	2
 938              	.LC43:
 939 00f4 4750494F 		.ascii	"GPIO funct not supported\000"
 939      2066756E 
 939      6374206E 
 939      6F742073 
 939      7570706F 
 940 010d 000000   		.align	2
 941              	.LC44:
 942 0110 436F6E74 		.ascii	"Control Interface Error\000"
 942      726F6C20 
 942      496E7465 
 942      72666163 
 942      65204572 
 943              		.align	2
 944              	.LC45:
 945 0128 496E7661 		.ascii	"Invalid Command Error\000"
 945      6C696420 
 945      436F6D6D 
 945      616E6420 
 945      4572726F 
 946 013e 0000     		.align	2
 947              	.LC46:
ARM GAS  /tmp/ccYpZsRp.s 			page 20


 948 0140 44697669 		.ascii	"Division by zero Error\000"
 948      73696F6E 
 948      20627920 
 948      7A65726F 
 948      20457272 
 949 0157 00       		.align	2
 950              	.LC47:
 951 0158 52656665 		.ascii	"Reference Spad Init Error\000"
 951      72656E63 
 951      65205370 
 951      61642049 
 951      6E697420 
 952 0172 0000     		.align	2
 953              	.LC48:
 954 0174 4E6F7420 		.ascii	"Not implemented error\000"
 954      696D706C 
 954      656D656E 
 954      74656420 
 954      6572726F 
 955              		.section	.rodata.VL53L0X_get_pal_error_string.cst4,"aM",%progbits,4
 956              		.align	2
 957              	.LC49:
 958 0000 00000000 		.word	__stack_chk_guard
 959              		.section	.text.VL53L0X_get_pal_error_string,"ax",%progbits
 960              		.align	1
 961              		.p2align 4,,15
 962              		.global	VL53L0X_get_pal_error_string
 963              		.syntax unified
 964              		.thumb
 965              		.thumb_func
 966              		.fpu fpv4-sp-d16
 967              		.type	VL53L0X_get_pal_error_string, %function
 968              	VL53L0X_get_pal_error_string:
 969              	.LVL69:
 970              	.LFB7:
 971              		.loc 1 246 1 is_stmt 1 view -0
 972              		.cfi_startproc
 973              		@ args = 0, pretend = 0, frame = 8
 974              		@ frame_needed = 0, uses_anonymous_args = 0
 975              		.loc 1 246 1 is_stmt 0 view .LVU173
 976 0000 70B5     		push	{r4, r5, r6, lr}
 977              		.cfi_def_cfa_offset 16
 978              		.cfi_offset 4, -16
 979              		.cfi_offset 5, -12
 980              		.cfi_offset 6, -8
 981              		.cfi_offset 14, -4
 982 0002 694B     		ldr	r3, .L101
 983 0004 82B0     		sub	sp, sp, #8
 984              		.cfi_def_cfa_offset 24
 985 0006 6330     		adds	r0, r0, #99
 986              	.LVL70:
 987              		.loc 1 246 1 view .LVU174
 988 0008 0C46     		mov	r4, r1
 989 000a 1B68     		ldr	r3, [r3]
 990 000c 0193     		str	r3, [sp, #4]
 991 000e 4FF00003 		mov	r3,#0
 992              		.loc 1 247 2 is_stmt 1 view .LVU175
ARM GAS  /tmp/ccYpZsRp.s 			page 21


 993              	.LVL71:
 994              		.loc 1 249 2 view .LVU176
 995              		.loc 1 251 2 view .LVU177
 996 0012 6328     		cmp	r0, #99
 997 0014 33D8     		bhi	.L73
 998 0016 DFE800F0 		tbb	[pc, r0]
 999              	.L75:
 1000 001a 45       		.byte	(.L92-.L75)/2
 1001 001b 32       		.byte	(.L73-.L75)/2
 1002 001c 32       		.byte	(.L73-.L75)/2
 1003 001d 32       		.byte	(.L73-.L75)/2
 1004 001e 32       		.byte	(.L73-.L75)/2
 1005 001f 32       		.byte	(.L73-.L75)/2
 1006 0020 32       		.byte	(.L73-.L75)/2
 1007 0021 32       		.byte	(.L73-.L75)/2
 1008 0022 32       		.byte	(.L73-.L75)/2
 1009 0023 32       		.byte	(.L73-.L75)/2
 1010 0024 32       		.byte	(.L73-.L75)/2
 1011 0025 32       		.byte	(.L73-.L75)/2
 1012 0026 32       		.byte	(.L73-.L75)/2
 1013 0027 32       		.byte	(.L73-.L75)/2
 1014 0028 32       		.byte	(.L73-.L75)/2
 1015 0029 32       		.byte	(.L73-.L75)/2
 1016 002a 32       		.byte	(.L73-.L75)/2
 1017 002b 32       		.byte	(.L73-.L75)/2
 1018 002c 32       		.byte	(.L73-.L75)/2
 1019 002d 32       		.byte	(.L73-.L75)/2
 1020 002e 32       		.byte	(.L73-.L75)/2
 1021 002f 32       		.byte	(.L73-.L75)/2
 1022 0030 32       		.byte	(.L73-.L75)/2
 1023 0031 32       		.byte	(.L73-.L75)/2
 1024 0032 32       		.byte	(.L73-.L75)/2
 1025 0033 32       		.byte	(.L73-.L75)/2
 1026 0034 32       		.byte	(.L73-.L75)/2
 1027 0035 32       		.byte	(.L73-.L75)/2
 1028 0036 32       		.byte	(.L73-.L75)/2
 1029 0037 32       		.byte	(.L73-.L75)/2
 1030 0038 32       		.byte	(.L73-.L75)/2
 1031 0039 32       		.byte	(.L73-.L75)/2
 1032 003a 32       		.byte	(.L73-.L75)/2
 1033 003b 32       		.byte	(.L73-.L75)/2
 1034 003c 32       		.byte	(.L73-.L75)/2
 1035 003d 32       		.byte	(.L73-.L75)/2
 1036 003e 32       		.byte	(.L73-.L75)/2
 1037 003f 32       		.byte	(.L73-.L75)/2
 1038 0040 32       		.byte	(.L73-.L75)/2
 1039 0041 32       		.byte	(.L73-.L75)/2
 1040 0042 32       		.byte	(.L73-.L75)/2
 1041 0043 32       		.byte	(.L73-.L75)/2
 1042 0044 32       		.byte	(.L73-.L75)/2
 1043 0045 32       		.byte	(.L73-.L75)/2
 1044 0046 32       		.byte	(.L73-.L75)/2
 1045 0047 32       		.byte	(.L73-.L75)/2
 1046 0048 32       		.byte	(.L73-.L75)/2
 1047 0049 32       		.byte	(.L73-.L75)/2
 1048 004a 32       		.byte	(.L73-.L75)/2
 1049 004b 50       		.byte	(.L91-.L75)/2
ARM GAS  /tmp/ccYpZsRp.s 			page 22


 1050 004c 32       		.byte	(.L73-.L75)/2
 1051 004d 32       		.byte	(.L73-.L75)/2
 1052 004e 32       		.byte	(.L73-.L75)/2
 1053 004f 32       		.byte	(.L73-.L75)/2
 1054 0050 32       		.byte	(.L73-.L75)/2
 1055 0051 32       		.byte	(.L73-.L75)/2
 1056 0052 32       		.byte	(.L73-.L75)/2
 1057 0053 32       		.byte	(.L73-.L75)/2
 1058 0054 32       		.byte	(.L73-.L75)/2
 1059 0055 5C       		.byte	(.L90-.L75)/2
 1060 0056 32       		.byte	(.L73-.L75)/2
 1061 0057 32       		.byte	(.L73-.L75)/2
 1062 0058 32       		.byte	(.L73-.L75)/2
 1063 0059 32       		.byte	(.L73-.L75)/2
 1064 005a 32       		.byte	(.L73-.L75)/2
 1065 005b 32       		.byte	(.L73-.L75)/2
 1066 005c 32       		.byte	(.L73-.L75)/2
 1067 005d 32       		.byte	(.L73-.L75)/2
 1068 005e 32       		.byte	(.L73-.L75)/2
 1069 005f 69       		.byte	(.L89-.L75)/2
 1070 0060 32       		.byte	(.L73-.L75)/2
 1071 0061 32       		.byte	(.L73-.L75)/2
 1072 0062 32       		.byte	(.L73-.L75)/2
 1073 0063 32       		.byte	(.L73-.L75)/2
 1074 0064 32       		.byte	(.L73-.L75)/2
 1075 0065 32       		.byte	(.L73-.L75)/2
 1076 0066 32       		.byte	(.L73-.L75)/2
 1077 0067 32       		.byte	(.L73-.L75)/2
 1078 0068 32       		.byte	(.L73-.L75)/2
 1079 0069 6B       		.byte	(.L88-.L75)/2
 1080 006a 32       		.byte	(.L73-.L75)/2
 1081 006b 32       		.byte	(.L73-.L75)/2
 1082 006c 32       		.byte	(.L73-.L75)/2
 1083 006d 32       		.byte	(.L73-.L75)/2
 1084 006e 32       		.byte	(.L73-.L75)/2
 1085 006f 32       		.byte	(.L73-.L75)/2
 1086 0070 32       		.byte	(.L73-.L75)/2
 1087 0071 75       		.byte	(.L87-.L75)/2
 1088 0072 77       		.byte	(.L86-.L75)/2
 1089 0073 83       		.byte	(.L85-.L75)/2
 1090 0074 8C       		.byte	(.L84-.L75)/2
 1091 0075 95       		.byte	(.L83-.L75)/2
 1092 0076 97       		.byte	(.L82-.L75)/2
 1093 0077 A1       		.byte	(.L81-.L75)/2
 1094 0078 A7       		.byte	(.L80-.L75)/2
 1095 0079 B0       		.byte	(.L79-.L75)/2
 1096 007a B2       		.byte	(.L78-.L75)/2
 1097 007b B9       		.byte	(.L77-.L75)/2
 1098 007c BB       		.byte	(.L76-.L75)/2
 1099 007d BD       		.byte	(.L74-.L75)/2
 1100              		.p2align 1
 1101              	.L73:
 1102              		.loc 1 326 3 view .LVU178
 1103 007e 4B4D     		ldr	r5, .L101+4
 1104 0080 0FCD     		ldmia	r5!, {r0, r1, r2, r3}
 1105              	.LVL72:
 1106              		.loc 1 326 3 is_stmt 0 view .LVU179
ARM GAS  /tmp/ccYpZsRp.s 			page 23


 1107 0082 2E88     		ldrh	r6, [r5]	@ unaligned
 1108 0084 AD78     		ldrb	r5, [r5, #2]	@ zero_extendqisi2
 1109 0086 2060     		str	r0, [r4]	@ unaligned
 1110 0088 6160     		str	r1, [r4, #4]	@ unaligned
 1111 008a A260     		str	r2, [r4, #8]	@ unaligned
 1112 008c E360     		str	r3, [r4, #12]	@ unaligned
 1113 008e 2682     		strh	r6, [r4, #16]	@ unaligned
 1114 0090 A574     		strb	r5, [r4, #18]
 1115              	.L93:
 1116              		.loc 1 330 2 is_stmt 1 view .LVU180
 1117              		.loc 1 331 2 view .LVU181
 1118              		.loc 1 332 1 is_stmt 0 view .LVU182
 1119 0092 454B     		ldr	r3, .L101
 1120 0094 1A68     		ldr	r2, [r3]
 1121 0096 019B     		ldr	r3, [sp, #4]
 1122 0098 5A40     		eors	r2, r3, r2
 1123 009a 40F08280 		bne	.L100
 1124 009e 0020     		movs	r0, #0
 1125 00a0 02B0     		add	sp, sp, #8
 1126              		.cfi_remember_state
 1127              		.cfi_def_cfa_offset 16
 1128              		@ sp needed
 1129 00a2 70BD     		pop	{r4, r5, r6, pc}
 1130              	.LVL73:
 1131              	.L92:
 1132              		.cfi_restore_state
 1133              		.loc 1 321 3 is_stmt 1 view .LVU183
 1134 00a4 424D     		ldr	r5, .L101+8
 1135              	.L99:
 1136 00a6 0FCD     		ldmia	r5!, {r0, r1, r2, r3}
 1137              	.LVL74:
 1138              		.loc 1 321 3 is_stmt 0 view .LVU184
 1139 00a8 AE88     		ldrh	r6, [r5, #4]	@ unaligned
 1140 00aa 2060     		str	r0, [r4]	@ unaligned
 1141 00ac 2868     		ldr	r0, [r5]
 1142 00ae 6160     		str	r1, [r4, #4]	@ unaligned
 1143 00b0 A260     		str	r2, [r4, #8]	@ unaligned
 1144 00b2 E360     		str	r3, [r4, #12]	@ unaligned
 1145 00b4 2061     		str	r0, [r4, #16]	@ unaligned
 1146 00b6 A682     		strh	r6, [r4, #20]	@ unaligned
 1147              		.loc 1 323 2 is_stmt 1 view .LVU185
 1148 00b8 EBE7     		b	.L93
 1149              	.LVL75:
 1150              	.L91:
 1151              		.loc 1 317 3 view .LVU186
 1152 00ba 3E4D     		ldr	r5, .L101+12
 1153              	.L96:
 1154 00bc 0FCD     		ldmia	r5!, {r0, r1, r2, r3}
 1155              	.LVL76:
 1156              		.loc 1 317 3 is_stmt 0 view .LVU187
 1157 00be 2060     		str	r0, [r4]	@ unaligned
 1158 00c0 6160     		str	r1, [r4, #4]	@ unaligned
 1159 00c2 03CD     		ldmia	r5!, {r0, r1}
 1160 00c4 2D88     		ldrh	r5, [r5]	@ unaligned
 1161 00c6 A260     		str	r2, [r4, #8]	@ unaligned
 1162 00c8 E360     		str	r3, [r4, #12]	@ unaligned
 1163 00ca 2583     		strh	r5, [r4, #24]	@ unaligned
ARM GAS  /tmp/ccYpZsRp.s 			page 24


 1164              		.loc 1 319 2 is_stmt 1 view .LVU188
 1165              		.loc 1 317 3 is_stmt 0 view .LVU189
 1166 00cc 2061     		str	r0, [r4, #16]	@ unaligned
 1167 00ce 6161     		str	r1, [r4, #20]	@ unaligned
 1168              		.loc 1 319 2 view .LVU190
 1169 00d0 DFE7     		b	.L93
 1170              	.LVL77:
 1171              	.L90:
 1172              		.loc 1 313 3 is_stmt 1 view .LVU191
 1173 00d2 394D     		ldr	r5, .L101+16
 1174 00d4 0FCD     		ldmia	r5!, {r0, r1, r2, r3}
 1175              	.LVL78:
 1176              		.loc 1 313 3 is_stmt 0 view .LVU192
 1177 00d6 AE88     		ldrh	r6, [r5, #4]	@ unaligned
 1178 00d8 2060     		str	r0, [r4]	@ unaligned
 1179 00da 2868     		ldr	r0, [r5]
 1180 00dc AD79     		ldrb	r5, [r5, #6]	@ zero_extendqisi2
 1181 00de 6160     		str	r1, [r4, #4]	@ unaligned
 1182 00e0 A260     		str	r2, [r4, #8]	@ unaligned
 1183 00e2 E360     		str	r3, [r4, #12]	@ unaligned
 1184 00e4 2061     		str	r0, [r4, #16]	@ unaligned
 1185 00e6 A682     		strh	r6, [r4, #20]	@ unaligned
 1186 00e8 A575     		strb	r5, [r4, #22]
 1187              		.loc 1 315 2 is_stmt 1 view .LVU193
 1188 00ea D2E7     		b	.L93
 1189              	.LVL79:
 1190              	.L89:
 1191              		.loc 1 309 3 view .LVU194
 1192 00ec 334D     		ldr	r5, .L101+20
 1193 00ee DAE7     		b	.L99
 1194              	.L88:
 1195              		.loc 1 305 3 view .LVU195
 1196 00f0 334D     		ldr	r5, .L101+24
 1197 00f2 0FCD     		ldmia	r5!, {r0, r1, r2, r3}
 1198              	.LVL80:
 1199              		.loc 1 305 3 is_stmt 0 view .LVU196
 1200 00f4 2060     		str	r0, [r4]	@ unaligned
 1201 00f6 6160     		str	r1, [r4, #4]	@ unaligned
 1202 00f8 03CD     		ldmia	r5!, {r0, r1}
 1203 00fa A260     		str	r2, [r4, #8]	@ unaligned
 1204 00fc E360     		str	r3, [r4, #12]	@ unaligned
 1205 00fe 2061     		str	r0, [r4, #16]	@ unaligned
 1206 0100 6161     		str	r1, [r4, #20]	@ unaligned
 1207              		.loc 1 307 2 is_stmt 1 view .LVU197
 1208 0102 C6E7     		b	.L93
 1209              	.LVL81:
 1210              	.L87:
 1211              		.loc 1 277 3 view .LVU198
 1212 0104 2F4D     		ldr	r5, .L101+28
 1213 0106 CEE7     		b	.L99
 1214              	.L86:
 1215              		.loc 1 301 3 view .LVU199
 1216 0108 2F4D     		ldr	r5, .L101+32
 1217              	.L98:
 1218              		.loc 1 289 3 is_stmt 0 view .LVU200
 1219 010a 0FCD     		ldmia	r5!, {r0, r1, r2, r3}
 1220              	.LVL82:
ARM GAS  /tmp/ccYpZsRp.s 			page 25


 1221              		.loc 1 289 3 view .LVU201
 1222 010c 2060     		str	r0, [r4]	@ unaligned
 1223 010e 6160     		str	r1, [r4, #4]	@ unaligned
 1224 0110 03CD     		ldmia	r5!, {r0, r1}
 1225 0112 2D78     		ldrb	r5, [r5]	@ zero_extendqisi2
 1226 0114 A260     		str	r2, [r4, #8]	@ unaligned
 1227 0116 E360     		str	r3, [r4, #12]	@ unaligned
 1228 0118 2576     		strb	r5, [r4, #24]
 1229              		.loc 1 291 2 is_stmt 1 view .LVU202
 1230              		.loc 1 289 3 is_stmt 0 view .LVU203
 1231 011a 2061     		str	r0, [r4, #16]	@ unaligned
 1232 011c 6161     		str	r1, [r4, #20]	@ unaligned
 1233              		.loc 1 291 2 view .LVU204
 1234 011e B8E7     		b	.L93
 1235              	.LVL83:
 1236              	.L85:
 1237              		.loc 1 297 3 is_stmt 1 view .LVU205
 1238 0120 2A4D     		ldr	r5, .L101+36
 1239              	.L97:
 1240 0122 0FCD     		ldmia	r5!, {r0, r1, r2, r3}
 1241              	.LVL84:
 1242              		.loc 1 297 3 is_stmt 0 view .LVU206
 1243 0124 2D88     		ldrh	r5, [r5]	@ unaligned
 1244 0126 2582     		strh	r5, [r4, #16]	@ unaligned
 1245              		.loc 1 299 2 is_stmt 1 view .LVU207
 1246              		.loc 1 297 3 is_stmt 0 view .LVU208
 1247 0128 2060     		str	r0, [r4]	@ unaligned
 1248 012a 6160     		str	r1, [r4, #4]	@ unaligned
 1249 012c A260     		str	r2, [r4, #8]	@ unaligned
 1250 012e E360     		str	r3, [r4, #12]	@ unaligned
 1251              		.loc 1 299 2 view .LVU209
 1252 0130 AFE7     		b	.L93
 1253              	.LVL85:
 1254              	.L84:
 1255              		.loc 1 293 3 is_stmt 1 view .LVU210
 1256 0132 274D     		ldr	r5, .L101+40
 1257 0134 0FCD     		ldmia	r5!, {r0, r1, r2, r3}
 1258              	.LVL86:
 1259              		.loc 1 293 3 is_stmt 0 view .LVU211
 1260 0136 2D78     		ldrb	r5, [r5]	@ zero_extendqisi2
 1261 0138 2574     		strb	r5, [r4, #16]
 1262              		.loc 1 295 2 is_stmt 1 view .LVU212
 1263              		.loc 1 293 3 is_stmt 0 view .LVU213
 1264 013a 2060     		str	r0, [r4]	@ unaligned
 1265 013c 6160     		str	r1, [r4, #4]	@ unaligned
 1266 013e A260     		str	r2, [r4, #8]	@ unaligned
 1267 0140 E360     		str	r3, [r4, #12]	@ unaligned
 1268              		.loc 1 295 2 view .LVU214
 1269 0142 A6E7     		b	.L93
 1270              	.LVL87:
 1271              	.L83:
 1272              		.loc 1 289 3 is_stmt 1 view .LVU215
 1273 0144 234D     		ldr	r5, .L101+44
 1274 0146 E0E7     		b	.L98
 1275              	.L82:
 1276              		.loc 1 285 3 view .LVU216
 1277 0148 234B     		ldr	r3, .L101+48
ARM GAS  /tmp/ccYpZsRp.s 			page 26


 1278 014a 07CB     		ldmia	r3!, {r0, r1, r2}
 1279              	.LVL88:
 1280              		.loc 1 285 3 is_stmt 0 view .LVU217
 1281 014c 1D88     		ldrh	r5, [r3]	@ unaligned
 1282 014e 9B78     		ldrb	r3, [r3, #2]	@ zero_extendqisi2
 1283 0150 2060     		str	r0, [r4]	@ unaligned
 1284 0152 6160     		str	r1, [r4, #4]	@ unaligned
 1285 0154 A260     		str	r2, [r4, #8]	@ unaligned
 1286 0156 A581     		strh	r5, [r4, #12]	@ unaligned
 1287 0158 A373     		strb	r3, [r4, #14]
 1288              		.loc 1 287 2 is_stmt 1 view .LVU218
 1289 015a 9AE7     		b	.L93
 1290              	.LVL89:
 1291              	.L81:
 1292              		.loc 1 281 3 view .LVU219
 1293 015c 1F4B     		ldr	r3, .L101+52
 1294 015e 07CB     		ldmia	r3!, {r0, r1, r2}
 1295              	.LVL90:
 1296              		.loc 1 281 3 is_stmt 0 view .LVU220
 1297 0160 2060     		str	r0, [r4]	@ unaligned
 1298 0162 6160     		str	r1, [r4, #4]	@ unaligned
 1299 0164 A260     		str	r2, [r4, #8]	@ unaligned
 1300              		.loc 1 283 2 is_stmt 1 view .LVU221
 1301 0166 94E7     		b	.L93
 1302              	.LVL91:
 1303              	.L80:
 1304              		.loc 1 273 3 view .LVU222
 1305 0168 1D4D     		ldr	r5, .L101+56
 1306 016a 0FCD     		ldmia	r5!, {r0, r1, r2, r3}
 1307              	.LVL92:
 1308              		.loc 1 273 3 is_stmt 0 view .LVU223
 1309 016c 2060     		str	r0, [r4]	@ unaligned
 1310 016e 2868     		ldr	r0, [r5]
 1311 0170 2061     		str	r0, [r4, #16]	@ unaligned
 1312              		.loc 1 275 2 is_stmt 1 view .LVU224
 1313              		.loc 1 273 3 is_stmt 0 view .LVU225
 1314 0172 6160     		str	r1, [r4, #4]	@ unaligned
 1315 0174 A260     		str	r2, [r4, #8]	@ unaligned
 1316 0176 E360     		str	r3, [r4, #12]	@ unaligned
 1317              		.loc 1 275 2 view .LVU226
 1318 0178 8BE7     		b	.L93
 1319              	.LVL93:
 1320              	.L79:
 1321              		.loc 1 269 3 is_stmt 1 view .LVU227
 1322 017a 1A4D     		ldr	r5, .L101+60
 1323 017c C5E7     		b	.L98
 1324              	.L78:
 1325              		.loc 1 265 3 view .LVU228
 1326 017e 1A4D     		ldr	r5, .L101+64
 1327 0180 0FCD     		ldmia	r5!, {r0, r1, r2, r3}
 1328              	.LVL94:
 1329              		.loc 1 265 3 is_stmt 0 view .LVU229
 1330 0182 2060     		str	r0, [r4]	@ unaligned
 1331 0184 6160     		str	r1, [r4, #4]	@ unaligned
 1332 0186 A260     		str	r2, [r4, #8]	@ unaligned
 1333 0188 E360     		str	r3, [r4, #12]	@ unaligned
 1334              		.loc 1 267 2 is_stmt 1 view .LVU230
ARM GAS  /tmp/ccYpZsRp.s 			page 27


 1335 018a 82E7     		b	.L93
 1336              	.LVL95:
 1337              	.L77:
 1338              		.loc 1 261 3 view .LVU231
 1339 018c 174D     		ldr	r5, .L101+68
 1340 018e C8E7     		b	.L97
 1341              	.L76:
 1342              		.loc 1 257 3 view .LVU232
 1343 0190 174D     		ldr	r5, .L101+72
 1344 0192 93E7     		b	.L96
 1345              	.L74:
 1346              		.loc 1 253 3 view .LVU233
 1347 0194 174B     		ldr	r3, .L101+76
 1348 0196 03CB     		ldmia	r3!, {r0, r1}
 1349              	.LVL96:
 1350              		.loc 1 253 3 is_stmt 0 view .LVU234
 1351 0198 1B78     		ldrb	r3, [r3]	@ zero_extendqisi2
 1352 019a 2372     		strb	r3, [r4, #8]
 1353              		.loc 1 255 2 is_stmt 1 view .LVU235
 1354              		.loc 1 253 3 is_stmt 0 view .LVU236
 1355 019c 2060     		str	r0, [r4]	@ unaligned
 1356 019e 6160     		str	r1, [r4, #4]	@ unaligned
 1357              		.loc 1 255 2 view .LVU237
 1358 01a0 77E7     		b	.L93
 1359              	.L100:
 1360              		.loc 1 332 1 view .LVU238
 1361 01a2 FFF7FEFF 		bl	__stack_chk_fail
 1362              	.LVL97:
 1363              	.L102:
 1364 01a6 00BF     		.align	2
 1365              	.L101:
 1366 01a8 00000000 		.word	.LC49
 1367 01ac 54010000 		.word	.LC22
 1368 01b0 74010000 		.word	.LC48
 1369 01b4 58010000 		.word	.LC47
 1370 01b8 40010000 		.word	.LC46
 1371 01bc 28010000 		.word	.LC45
 1372 01c0 10010000 		.word	.LC44
 1373 01c4 7C000000 		.word	.LC37
 1374 01c8 F4000000 		.word	.LC43
 1375 01cc E0000000 		.word	.LC42
 1376 01d0 CC000000 		.word	.LC41
 1377 01d4 B0000000 		.word	.LC40
 1378 01d8 A0000000 		.word	.LC39
 1379 01dc 94000000 		.word	.LC38
 1380 01e0 68000000 		.word	.LC36
 1381 01e4 4C000000 		.word	.LC35
 1382 01e8 3C000000 		.word	.LC34
 1383 01ec 28000000 		.word	.LC33
 1384 01f0 0C000000 		.word	.LC32
 1385 01f4 00000000 		.word	.LC31
 1386              		.cfi_endproc
 1387              	.LFE7:
 1388              		.size	VL53L0X_get_pal_error_string, .-VL53L0X_get_pal_error_string
 1389              		.section	.rodata.VL53L0X_get_pal_state_string.str1.4,"aMS",%progbits,1
 1390              		.align	2
 1391              	.LC50:
ARM GAS  /tmp/ccYpZsRp.s 			page 28


 1392 0000 504F5745 		.ascii	"POWERDOWN State\000"
 1392      52444F57 
 1392      4E205374 
 1392      61746500 
 1393              		.align	2
 1394              	.LC51:
 1395 0010 57616974 		.ascii	"Wait for staticinit State\000"
 1395      20666F72 
 1395      20737461 
 1395      74696369 
 1395      6E697420 
 1396 002a 0000     		.align	2
 1397              	.LC52:
 1398 002c 5354414E 		.ascii	"STANDBY State\000"
 1398      44425920 
 1398      53746174 
 1398      6500
 1399 003a 0000     		.align	2
 1400              	.LC53:
 1401 003c 49444C45 		.ascii	"IDLE State\000"
 1401      20537461 
 1401      746500
 1402 0047 00       		.align	2
 1403              	.LC54:
 1404 0048 52554E4E 		.ascii	"RUNNING State\000"
 1404      494E4720 
 1404      53746174 
 1404      6500
 1405 0056 0000     		.align	2
 1406              	.LC55:
 1407 0058 554E4B4E 		.ascii	"UNKNOWN State\000"
 1407      4F574E20 
 1407      53746174 
 1407      6500
 1408 0066 0000     		.align	2
 1409              	.LC56:
 1410 0068 4552524F 		.ascii	"ERROR State\000"
 1410      52205374 
 1410      61746500 
 1411              		.section	.rodata.VL53L0X_get_pal_state_string.cst4,"aM",%progbits,4
 1412              		.align	2
 1413              	.LC57:
 1414 0000 00000000 		.word	__stack_chk_guard
 1415              		.section	.text.VL53L0X_get_pal_state_string,"ax",%progbits
 1416              		.align	1
 1417              		.p2align 4,,15
 1418              		.global	VL53L0X_get_pal_state_string
 1419              		.syntax unified
 1420              		.thumb
 1421              		.thumb_func
 1422              		.fpu fpv4-sp-d16
 1423              		.type	VL53L0X_get_pal_state_string, %function
 1424              	VL53L0X_get_pal_state_string:
 1425              	.LVL98:
 1426              	.LFB8:
 1427              		.loc 1 336 1 is_stmt 1 view -0
 1428              		.cfi_startproc
ARM GAS  /tmp/ccYpZsRp.s 			page 29


 1429              		@ args = 0, pretend = 0, frame = 8
 1430              		@ frame_needed = 0, uses_anonymous_args = 0
 1431              		.loc 1 336 1 is_stmt 0 view .LVU240
 1432 0000 30B5     		push	{r4, r5, lr}
 1433              		.cfi_def_cfa_offset 12
 1434              		.cfi_offset 4, -12
 1435              		.cfi_offset 5, -8
 1436              		.cfi_offset 14, -4
 1437 0002 244B     		ldr	r3, .L120
 1438 0004 83B0     		sub	sp, sp, #12
 1439              		.cfi_def_cfa_offset 24
 1440              		.loc 1 341 2 view .LVU241
 1441 0006 0428     		cmp	r0, #4
 1442              		.loc 1 336 1 view .LVU242
 1443 0008 0C46     		mov	r4, r1
 1444 000a 1B68     		ldr	r3, [r3]
 1445 000c 0193     		str	r3, [sp, #4]
 1446 000e 4FF00003 		mov	r3,#0
 1447              		.loc 1 337 2 is_stmt 1 view .LVU243
 1448              	.LVL99:
 1449              		.loc 1 339 2 view .LVU244
 1450              		.loc 1 341 2 view .LVU245
 1451 0012 06D8     		bhi	.L104
 1452 0014 0138     		subs	r0, r0, #1
 1453              	.LVL100:
 1454              		.loc 1 341 2 is_stmt 0 view .LVU246
 1455 0016 0328     		cmp	r0, #3
 1456 0018 35D8     		bhi	.L105
 1457 001a DFE800F0 		tbb	[pc, r0]
 1458              	.L107:
 1459 001e 24       		.byte	(.L110-.L107)/2
 1460 001f 30       		.byte	(.L109-.L107)/2
 1461 0020 19       		.byte	(.L108-.L107)/2
 1462 0021 22       		.byte	(.L106-.L107)/2
 1463              	.LVL101:
 1464              		.p2align 1
 1465              	.L104:
 1466              		.loc 1 341 2 view .LVU247
 1467 0022 6328     		cmp	r0, #99
 1468 0024 0CD1     		bne	.L118
 1469              		.loc 1 367 3 is_stmt 1 view .LVU248
 1470 0026 1C4B     		ldr	r3, .L120+4
 1471 0028 07CB     		ldmia	r3!, {r0, r1, r2}
 1472              	.LVL102:
 1473              		.loc 1 367 3 is_stmt 0 view .LVU249
 1474 002a 2060     		str	r0, [r4]	@ unaligned
 1475 002c 6160     		str	r1, [r4, #4]	@ unaligned
 1476 002e A260     		str	r2, [r4, #8]	@ unaligned
 1477              		.loc 1 369 2 is_stmt 1 view .LVU250
 1478              	.L113:
 1479              		.loc 1 376 2 view .LVU251
 1480              		.loc 1 377 2 view .LVU252
 1481              		.loc 1 378 1 is_stmt 0 view .LVU253
 1482 0030 184B     		ldr	r3, .L120
 1483 0032 1A68     		ldr	r2, [r3]
 1484 0034 019B     		ldr	r3, [sp, #4]
 1485 0036 5A40     		eors	r2, r3, r2
ARM GAS  /tmp/ccYpZsRp.s 			page 30


 1486 0038 23D1     		bne	.L119
 1487 003a 0020     		movs	r0, #0
 1488 003c 03B0     		add	sp, sp, #12
 1489              		.cfi_remember_state
 1490              		.cfi_def_cfa_offset 12
 1491              		@ sp needed
 1492 003e 30BD     		pop	{r4, r5, pc}
 1493              	.LVL103:
 1494              	.L118:
 1495              		.cfi_restore_state
 1496              		.loc 1 363 3 is_stmt 1 view .LVU254
 1497 0040 164B     		ldr	r3, .L120+8
 1498              	.LVL104:
 1499              	.L117:
 1500              		.loc 1 359 3 is_stmt 0 view .LVU255
 1501 0042 07CB     		ldmia	r3!, {r0, r1, r2}
 1502              	.LVL105:
 1503              		.loc 1 359 3 view .LVU256
 1504 0044 1B88     		ldrh	r3, [r3]	@ unaligned
 1505 0046 A381     		strh	r3, [r4, #12]	@ unaligned
 1506              		.loc 1 361 2 is_stmt 1 view .LVU257
 1507              		.loc 1 359 3 is_stmt 0 view .LVU258
 1508 0048 2060     		str	r0, [r4]	@ unaligned
 1509 004a 6160     		str	r1, [r4, #4]	@ unaligned
 1510 004c A260     		str	r2, [r4, #8]	@ unaligned
 1511              		.loc 1 361 2 view .LVU259
 1512 004e EFE7     		b	.L113
 1513              	.LVL106:
 1514              	.L108:
 1515              		.loc 1 355 3 is_stmt 1 view .LVU260
 1516 0050 134B     		ldr	r3, .L120+12
 1517 0052 03CB     		ldmia	r3!, {r0, r1}
 1518              	.LVL107:
 1519              		.loc 1 355 3 is_stmt 0 view .LVU261
 1520 0054 1A88     		ldrh	r2, [r3]	@ unaligned
 1521 0056 9B78     		ldrb	r3, [r3, #2]	@ zero_extendqisi2
 1522 0058 2060     		str	r0, [r4]	@ unaligned
 1523 005a 6160     		str	r1, [r4, #4]	@ unaligned
 1524 005c 2281     		strh	r2, [r4, #8]	@ unaligned
 1525 005e A372     		strb	r3, [r4, #10]
 1526              		.loc 1 357 2 is_stmt 1 view .LVU262
 1527 0060 E6E7     		b	.L113
 1528              	.LVL108:
 1529              	.L106:
 1530              		.loc 1 359 3 view .LVU263
 1531 0062 104B     		ldr	r3, .L120+16
 1532 0064 EDE7     		b	.L117
 1533              	.L110:
 1534              		.loc 1 347 3 view .LVU264
 1535 0066 104D     		ldr	r5, .L120+20
 1536 0068 0FCD     		ldmia	r5!, {r0, r1, r2, r3}
 1537              	.LVL109:
 1538              		.loc 1 347 3 is_stmt 0 view .LVU265
 1539 006a 2060     		str	r0, [r4]	@ unaligned
 1540 006c 6160     		str	r1, [r4, #4]	@ unaligned
 1541 006e 03CD     		ldmia	r5!, {r0, r1}
 1542 0070 2D88     		ldrh	r5, [r5]	@ unaligned
ARM GAS  /tmp/ccYpZsRp.s 			page 31


 1543 0072 A260     		str	r2, [r4, #8]	@ unaligned
 1544 0074 E360     		str	r3, [r4, #12]	@ unaligned
 1545 0076 2583     		strh	r5, [r4, #24]	@ unaligned
 1546              		.loc 1 349 2 is_stmt 1 view .LVU266
 1547              		.loc 1 347 3 is_stmt 0 view .LVU267
 1548 0078 2061     		str	r0, [r4, #16]	@ unaligned
 1549 007a 6161     		str	r1, [r4, #20]	@ unaligned
 1550              		.loc 1 349 2 view .LVU268
 1551 007c D8E7     		b	.L113
 1552              	.LVL110:
 1553              	.L109:
 1554              		.loc 1 351 3 is_stmt 1 view .LVU269
 1555 007e 0B4B     		ldr	r3, .L120+24
 1556 0080 DFE7     		b	.L117
 1557              	.LVL111:
 1558              	.L119:
 1559              		.loc 1 378 1 is_stmt 0 view .LVU270
 1560 0082 FFF7FEFF 		bl	__stack_chk_fail
 1561              	.LVL112:
 1562              	.L105:
 1563              		.loc 1 343 3 is_stmt 1 view .LVU271
 1564 0086 0A4D     		ldr	r5, .L120+28
 1565 0088 0FCD     		ldmia	r5!, {r0, r1, r2, r3}
 1566              	.LVL113:
 1567              		.loc 1 343 3 is_stmt 0 view .LVU272
 1568 008a 2060     		str	r0, [r4]	@ unaligned
 1569 008c 6160     		str	r1, [r4, #4]	@ unaligned
 1570 008e A260     		str	r2, [r4, #8]	@ unaligned
 1571 0090 E360     		str	r3, [r4, #12]	@ unaligned
 1572              		.loc 1 345 2 is_stmt 1 view .LVU273
 1573 0092 CDE7     		b	.L113
 1574              	.L121:
 1575              		.align	2
 1576              	.L120:
 1577 0094 00000000 		.word	.LC57
 1578 0098 68000000 		.word	.LC56
 1579 009c 58000000 		.word	.LC55
 1580 00a0 3C000000 		.word	.LC53
 1581 00a4 48000000 		.word	.LC54
 1582 00a8 10000000 		.word	.LC51
 1583 00ac 2C000000 		.word	.LC52
 1584 00b0 00000000 		.word	.LC50
 1585              		.cfi_endproc
 1586              	.LFE8:
 1587              		.size	VL53L0X_get_pal_state_string, .-VL53L0X_get_pal_state_string
 1588              		.section	.rodata.VL53L0X_get_sequence_steps_info.str1.4,"aMS",%progbits,1
 1589              		.align	2
 1590              	.LC58:
 1591 0000 54434300 		.ascii	"TCC\000"
 1592              		.align	2
 1593              	.LC59:
 1594 0004 44535300 		.ascii	"DSS\000"
 1595              		.align	2
 1596              	.LC60:
 1597 0008 4D535243 		.ascii	"MSRC\000"
 1597      00
 1598 000d 000000   		.align	2
ARM GAS  /tmp/ccYpZsRp.s 			page 32


 1599              	.LC61:
 1600 0010 50524520 		.ascii	"PRE RANGE\000"
 1600      52414E47 
 1600      4500
 1601 001a 0000     		.align	2
 1602              	.LC62:
 1603 001c 46494E41 		.ascii	"FINAL RANGE\000"
 1603      4C205241 
 1603      4E474500 
 1604              		.section	.rodata.VL53L0X_get_sequence_steps_info.cst4,"aM",%progbits,4
 1605              		.align	2
 1606              	.LC63:
 1607 0000 00000000 		.word	__stack_chk_guard
 1608              		.section	.text.VL53L0X_get_sequence_steps_info,"ax",%progbits
 1609              		.align	1
 1610              		.p2align 4,,15
 1611              		.global	VL53L0X_get_sequence_steps_info
 1612              		.syntax unified
 1613              		.thumb
 1614              		.thumb_func
 1615              		.fpu fpv4-sp-d16
 1616              		.type	VL53L0X_get_sequence_steps_info, %function
 1617              	VL53L0X_get_sequence_steps_info:
 1618              	.LVL114:
 1619              	.LFB9:
 1620              		.loc 1 383 1 view -0
 1621              		.cfi_startproc
 1622              		@ args = 0, pretend = 0, frame = 8
 1623              		@ frame_needed = 0, uses_anonymous_args = 0
 1624              		.loc 1 383 1 is_stmt 0 view .LVU275
 1625 0000 10B5     		push	{r4, lr}
 1626              		.cfi_def_cfa_offset 8
 1627              		.cfi_offset 4, -8
 1628              		.cfi_offset 14, -4
 1629 0002 1D4A     		ldr	r2, .L134
 1630 0004 82B0     		sub	sp, sp, #8
 1631              		.cfi_def_cfa_offset 16
 1632              		.loc 1 383 1 view .LVU276
 1633 0006 0B46     		mov	r3, r1
 1634 0008 1268     		ldr	r2, [r2]
 1635 000a 0192     		str	r2, [sp, #4]
 1636 000c 4FF00002 		mov	r2,#0
 1637              		.loc 1 384 2 is_stmt 1 view .LVU277
 1638              	.LVL115:
 1639              		.loc 1 385 2 view .LVU278
 1640              		.loc 1 387 2 view .LVU279
 1641 0010 0428     		cmp	r0, #4
 1642 0012 2DD8     		bhi	.L131
 1643 0014 DFE800F0 		tbb	[pc, r0]
 1644              	.L125:
 1645 0018 11       		.byte	(.L129-.L125)/2
 1646 0019 16       		.byte	(.L128-.L125)/2
 1647 001a 1B       		.byte	(.L127-.L125)/2
 1648 001b 22       		.byte	(.L126-.L125)/2
 1649 001c 03       		.byte	(.L124-.L125)/2
 1650 001d 00       		.p2align 1
 1651              	.L124:
ARM GAS  /tmp/ccYpZsRp.s 			page 33


 1652              		.loc 1 405 3 view .LVU280
 1653 001e 174C     		ldr	r4, .L134+4
 1654 0020 07CC     		ldmia	r4!, {r0, r1, r2}
 1655              	.LVL116:
 1656              		.loc 1 384 16 is_stmt 0 view .LVU281
 1657 0022 0024     		movs	r4, #0
 1658              		.loc 1 405 3 view .LVU282
 1659 0024 1860     		str	r0, [r3]	@ unaligned
 1660 0026 5960     		str	r1, [r3, #4]	@ unaligned
 1661 0028 9A60     		str	r2, [r3, #8]	@ unaligned
 1662              		.loc 1 407 2 is_stmt 1 view .LVU283
 1663              	.L123:
 1664              	.LVL117:
 1665              		.loc 1 413 2 view .LVU284
 1666              		.loc 1 415 2 view .LVU285
 1667              		.loc 1 416 1 is_stmt 0 view .LVU286
 1668 002a 134B     		ldr	r3, .L134
 1669              	.LVL118:
 1670              		.loc 1 416 1 view .LVU287
 1671 002c 1A68     		ldr	r2, [r3]
 1672 002e 019B     		ldr	r3, [sp, #4]
 1673 0030 5A40     		eors	r2, r3, r2
 1674 0032 1BD1     		bne	.L133
 1675 0034 2046     		mov	r0, r4
 1676 0036 02B0     		add	sp, sp, #8
 1677              		.cfi_remember_state
 1678              		.cfi_def_cfa_offset 8
 1679              		@ sp needed
 1680 0038 10BD     		pop	{r4, pc}
 1681              	.LVL119:
 1682              	.L129:
 1683              		.cfi_restore_state
 1684              		.loc 1 389 3 is_stmt 1 view .LVU288
 1685 003a 114A     		ldr	r2, .L134+8
 1686 003c 1068     		ldr	r0, [r2]
 1687              	.LVL120:
 1688              		.loc 1 389 3 is_stmt 0 view .LVU289
 1689 003e 0860     		str	r0, [r1]	@ unaligned
 1690              		.loc 1 391 2 is_stmt 1 view .LVU290
 1691              		.loc 1 384 16 is_stmt 0 view .LVU291
 1692 0040 0024     		movs	r4, #0
 1693              		.loc 1 391 2 view .LVU292
 1694 0042 F2E7     		b	.L123
 1695              	.LVL121:
 1696              	.L128:
 1697              		.loc 1 393 3 is_stmt 1 view .LVU293
 1698 0044 0F4A     		ldr	r2, .L134+12
 1699 0046 1068     		ldr	r0, [r2]
 1700              	.LVL122:
 1701              		.loc 1 393 3 is_stmt 0 view .LVU294
 1702 0048 0860     		str	r0, [r1]	@ unaligned
 1703              		.loc 1 395 2 is_stmt 1 view .LVU295
 1704              		.loc 1 384 16 is_stmt 0 view .LVU296
 1705 004a 0024     		movs	r4, #0
 1706              		.loc 1 395 2 view .LVU297
 1707 004c EDE7     		b	.L123
 1708              	.LVL123:
ARM GAS  /tmp/ccYpZsRp.s 			page 34


 1709              	.L127:
 1710              		.loc 1 397 3 is_stmt 1 view .LVU298
 1711 004e 0E4A     		ldr	r2, .L134+16
 1712 0050 1068     		ldr	r0, [r2]
 1713              	.LVL124:
 1714              		.loc 1 397 3 is_stmt 0 view .LVU299
 1715 0052 1279     		ldrb	r2, [r2, #4]	@ zero_extendqisi2
 1716 0054 0860     		str	r0, [r1]	@ unaligned
 1717 0056 0A71     		strb	r2, [r1, #4]
 1718              		.loc 1 399 2 is_stmt 1 view .LVU300
 1719              		.loc 1 384 16 is_stmt 0 view .LVU301
 1720 0058 0024     		movs	r4, #0
 1721              		.loc 1 399 2 view .LVU302
 1722 005a E6E7     		b	.L123
 1723              	.LVL125:
 1724              	.L126:
 1725              		.loc 1 401 3 is_stmt 1 view .LVU303
 1726 005c 0B4A     		ldr	r2, .L134+20
 1727 005e 03CA     		ldmia	r2!, {r0, r1}
 1728              	.LVL126:
 1729              		.loc 1 401 3 is_stmt 0 view .LVU304
 1730 0060 1288     		ldrh	r2, [r2]	@ unaligned
 1731 0062 1A81     		strh	r2, [r3, #8]	@ unaligned
 1732              		.loc 1 403 2 is_stmt 1 view .LVU305
 1733              		.loc 1 401 3 is_stmt 0 view .LVU306
 1734 0064 1860     		str	r0, [r3]	@ unaligned
 1735 0066 5960     		str	r1, [r3, #4]	@ unaligned
 1736              		.loc 1 384 16 view .LVU307
 1737 0068 0024     		movs	r4, #0
 1738              		.loc 1 403 2 view .LVU308
 1739 006a DEE7     		b	.L123
 1740              	.LVL127:
 1741              	.L133:
 1742              		.loc 1 416 1 view .LVU309
 1743 006c FFF7FEFF 		bl	__stack_chk_fail
 1744              	.LVL128:
 1745              	.L131:
 1746              		.loc 1 384 16 view .LVU310
 1747 0070 6FF00304 		mvn	r4, #3
 1748 0074 D9E7     		b	.L123
 1749              	.L135:
 1750 0076 00BF     		.align	2
 1751              	.L134:
 1752 0078 00000000 		.word	.LC63
 1753 007c 1C000000 		.word	.LC62
 1754 0080 00000000 		.word	.LC58
 1755 0084 04000000 		.word	.LC59
 1756 0088 08000000 		.word	.LC60
 1757 008c 10000000 		.word	.LC61
 1758              		.cfi_endproc
 1759              	.LFE9:
 1760              		.size	VL53L0X_get_sequence_steps_info, .-VL53L0X_get_sequence_steps_info
 1761              		.section	.rodata.VL53L0X_get_limit_check_info.str1.4,"aMS",%progbits,1
 1762              		.align	2
 1763              	.LC64:
 1764 0000 5349474D 		.ascii	"SIGMA FINAL RANGE\000"
 1764      41204649 
ARM GAS  /tmp/ccYpZsRp.s 			page 35


 1764      4E414C20 
 1764      52414E47 
 1764      4500
 1765 0012 0000     		.align	2
 1766              	.LC65:
 1767 0014 5349474E 		.ascii	"SIGNAL RATE FINAL RANGE\000"
 1767      414C2052 
 1767      41544520 
 1767      46494E41 
 1767      4C205241 
 1768              		.align	2
 1769              	.LC66:
 1770 002c 5349474E 		.ascii	"SIGNAL REF CLIP\000"
 1770      414C2052 
 1770      45462043 
 1770      4C495000 
 1771              		.align	2
 1772              	.LC67:
 1773 003c 52414E47 		.ascii	"RANGE IGNORE THRESHOLD\000"
 1773      45204947 
 1773      4E4F5245 
 1773      20544852 
 1773      4553484F 
 1774 0053 00       		.align	2
 1775              	.LC68:
 1776 0054 5349474E 		.ascii	"SIGNAL RATE MSRC\000"
 1776      414C2052 
 1776      41544520 
 1776      4D535243 
 1776      00
 1777 0065 000000   		.align	2
 1778              	.LC69:
 1779 0068 5349474E 		.ascii	"SIGNAL RATE PRE RANGE\000"
 1779      414C2052 
 1779      41544520 
 1779      50524520 
 1779      52414E47 
 1780              		.section	.rodata.VL53L0X_get_limit_check_info.cst4,"aM",%progbits,4
 1781              		.align	2
 1782              	.LC70:
 1783 0000 00000000 		.word	__stack_chk_guard
 1784              		.section	.text.VL53L0X_get_limit_check_info,"ax",%progbits
 1785              		.align	1
 1786              		.p2align 4,,15
 1787              		.global	VL53L0X_get_limit_check_info
 1788              		.syntax unified
 1789              		.thumb
 1790              		.thumb_func
 1791              		.fpu fpv4-sp-d16
 1792              		.type	VL53L0X_get_limit_check_info, %function
 1793              	VL53L0X_get_limit_check_info:
 1794              	.LVL129:
 1795              	.LFB10:
 1796              		.loc 1 421 1 is_stmt 1 view -0
 1797              		.cfi_startproc
 1798              		@ args = 0, pretend = 0, frame = 8
 1799              		@ frame_needed = 0, uses_anonymous_args = 0
ARM GAS  /tmp/ccYpZsRp.s 			page 36


 1800              		.loc 1 421 1 is_stmt 0 view .LVU312
 1801 0000 70B5     		push	{r4, r5, r6, lr}
 1802              		.cfi_def_cfa_offset 16
 1803              		.cfi_offset 4, -16
 1804              		.cfi_offset 5, -12
 1805              		.cfi_offset 6, -8
 1806              		.cfi_offset 14, -4
 1807 0002 2E4B     		ldr	r3, .L149
 1808 0004 82B0     		sub	sp, sp, #8
 1809              		.cfi_def_cfa_offset 24
 1810              		.loc 1 421 1 view .LVU313
 1811 0006 1446     		mov	r4, r2
 1812 0008 1B68     		ldr	r3, [r3]
 1813 000a 0193     		str	r3, [sp, #4]
 1814 000c 4FF00003 		mov	r3,#0
 1815              		.loc 1 422 2 is_stmt 1 view .LVU314
 1816              		.loc 1 423 2 view .LVU315
 1817              	.LVL130:
 1818              		.loc 1 425 2 view .LVU316
 1819              		.loc 1 427 2 view .LVU317
 1820 0010 0529     		cmp	r1, #5
 1821 0012 48D8     		bhi	.L137
 1822 0014 DFE801F0 		tbb	[pc, r1]
 1823              	.L139:
 1824 0018 15       		.byte	(.L144-.L139)/2
 1825 0019 1E       		.byte	(.L143-.L139)/2
 1826 001a 28       		.byte	(.L142-.L139)/2
 1827 001b 2F       		.byte	(.L141-.L139)/2
 1828 001c 3C       		.byte	(.L140-.L139)/2
 1829 001d 03       		.byte	(.L138-.L139)/2
 1830              		.p2align 1
 1831              	.L138:
 1832              		.loc 1 451 3 view .LVU318
 1833 001e 284D     		ldr	r5, .L149+4
 1834 0020 0FCD     		ldmia	r5!, {r0, r1, r2, r3}
 1835              	.LVL131:
 1836              		.loc 1 451 3 is_stmt 0 view .LVU319
 1837 0022 AE88     		ldrh	r6, [r5, #4]	@ unaligned
 1838 0024 2060     		str	r0, [r4]	@ unaligned
 1839 0026 2868     		ldr	r0, [r5]
 1840 0028 6160     		str	r1, [r4, #4]	@ unaligned
 1841 002a A260     		str	r2, [r4, #8]	@ unaligned
 1842 002c E360     		str	r3, [r4, #12]	@ unaligned
 1843 002e 2061     		str	r0, [r4, #16]	@ unaligned
 1844 0030 A682     		strh	r6, [r4, #20]	@ unaligned
 1845              		.loc 1 453 2 is_stmt 1 view .LVU320
 1846              	.L145:
 1847              		.loc 1 461 2 view .LVU321
 1848              		.loc 1 462 2 view .LVU322
 1849              		.loc 1 463 1 is_stmt 0 view .LVU323
 1850 0032 224B     		ldr	r3, .L149
 1851 0034 1A68     		ldr	r2, [r3]
 1852 0036 019B     		ldr	r3, [sp, #4]
 1853 0038 5A40     		eors	r2, r3, r2
 1854 003a 32D1     		bne	.L148
 1855 003c 0020     		movs	r0, #0
 1856 003e 02B0     		add	sp, sp, #8
ARM GAS  /tmp/ccYpZsRp.s 			page 37


 1857              		.cfi_remember_state
 1858              		.cfi_def_cfa_offset 16
 1859              		@ sp needed
 1860 0040 70BD     		pop	{r4, r5, r6, pc}
 1861              	.LVL132:
 1862              	.L144:
 1863              		.cfi_restore_state
 1864              		.loc 1 429 3 is_stmt 1 view .LVU324
 1865 0042 204D     		ldr	r5, .L149+8
 1866 0044 0FCD     		ldmia	r5!, {r0, r1, r2, r3}
 1867              	.LVL133:
 1868              		.loc 1 429 3 is_stmt 0 view .LVU325
 1869 0046 2D88     		ldrh	r5, [r5]	@ unaligned
 1870 0048 2582     		strh	r5, [r4, #16]	@ unaligned
 1871              		.loc 1 431 2 is_stmt 1 view .LVU326
 1872              		.loc 1 429 3 is_stmt 0 view .LVU327
 1873 004a 2060     		str	r0, [r4]	@ unaligned
 1874 004c 6160     		str	r1, [r4, #4]	@ unaligned
 1875 004e A260     		str	r2, [r4, #8]	@ unaligned
 1876 0050 E360     		str	r3, [r4, #12]	@ unaligned
 1877              		.loc 1 431 2 view .LVU328
 1878 0052 EEE7     		b	.L145
 1879              	.LVL134:
 1880              	.L143:
 1881              		.loc 1 433 3 is_stmt 1 view .LVU329
 1882 0054 1C4D     		ldr	r5, .L149+12
 1883 0056 0FCD     		ldmia	r5!, {r0, r1, r2, r3}
 1884              	.LVL135:
 1885              		.loc 1 433 3 is_stmt 0 view .LVU330
 1886 0058 2060     		str	r0, [r4]	@ unaligned
 1887 005a 6160     		str	r1, [r4, #4]	@ unaligned
 1888 005c 03CD     		ldmia	r5!, {r0, r1}
 1889 005e A260     		str	r2, [r4, #8]	@ unaligned
 1890 0060 E360     		str	r3, [r4, #12]	@ unaligned
 1891 0062 2061     		str	r0, [r4, #16]	@ unaligned
 1892 0064 6161     		str	r1, [r4, #20]	@ unaligned
 1893              		.loc 1 435 2 is_stmt 1 view .LVU331
 1894 0066 E4E7     		b	.L145
 1895              	.LVL136:
 1896              	.L142:
 1897              		.loc 1 437 3 view .LVU332
 1898 0068 184D     		ldr	r5, .L149+16
 1899 006a 0FCD     		ldmia	r5!, {r0, r1, r2, r3}
 1900              	.LVL137:
 1901              		.loc 1 437 3 is_stmt 0 view .LVU333
 1902 006c 2060     		str	r0, [r4]	@ unaligned
 1903 006e 6160     		str	r1, [r4, #4]	@ unaligned
 1904 0070 A260     		str	r2, [r4, #8]	@ unaligned
 1905 0072 E360     		str	r3, [r4, #12]	@ unaligned
 1906              		.loc 1 439 2 is_stmt 1 view .LVU334
 1907 0074 DDE7     		b	.L145
 1908              	.LVL138:
 1909              	.L141:
 1910              		.loc 1 441 3 view .LVU335
 1911 0076 164D     		ldr	r5, .L149+20
 1912 0078 0FCD     		ldmia	r5!, {r0, r1, r2, r3}
 1913              	.LVL139:
ARM GAS  /tmp/ccYpZsRp.s 			page 38


 1914              		.loc 1 441 3 is_stmt 0 view .LVU336
 1915 007a AE88     		ldrh	r6, [r5, #4]	@ unaligned
 1916 007c 2060     		str	r0, [r4]	@ unaligned
 1917 007e 2868     		ldr	r0, [r5]
 1918 0080 AD79     		ldrb	r5, [r5, #6]	@ zero_extendqisi2
 1919 0082 6160     		str	r1, [r4, #4]	@ unaligned
 1920 0084 A260     		str	r2, [r4, #8]	@ unaligned
 1921 0086 E360     		str	r3, [r4, #12]	@ unaligned
 1922 0088 2061     		str	r0, [r4, #16]	@ unaligned
 1923 008a A682     		strh	r6, [r4, #20]	@ unaligned
 1924 008c A575     		strb	r5, [r4, #22]
 1925              		.loc 1 443 2 is_stmt 1 view .LVU337
 1926 008e D0E7     		b	.L145
 1927              	.LVL140:
 1928              	.L140:
 1929              		.loc 1 446 3 view .LVU338
 1930 0090 104D     		ldr	r5, .L149+24
 1931 0092 0FCD     		ldmia	r5!, {r0, r1, r2, r3}
 1932              	.LVL141:
 1933              		.loc 1 446 3 is_stmt 0 view .LVU339
 1934 0094 2D78     		ldrb	r5, [r5]	@ zero_extendqisi2
 1935 0096 2574     		strb	r5, [r4, #16]
 1936              		.loc 1 448 2 is_stmt 1 view .LVU340
 1937              		.loc 1 446 3 is_stmt 0 view .LVU341
 1938 0098 2060     		str	r0, [r4]	@ unaligned
 1939 009a 6160     		str	r1, [r4, #4]	@ unaligned
 1940 009c A260     		str	r2, [r4, #8]	@ unaligned
 1941 009e E360     		str	r3, [r4, #12]	@ unaligned
 1942              		.loc 1 448 2 view .LVU342
 1943 00a0 C7E7     		b	.L145
 1944              	.L148:
 1945              		.loc 1 463 1 view .LVU343
 1946 00a2 FFF7FEFF 		bl	__stack_chk_fail
 1947              	.LVL142:
 1948              	.L137:
 1949              		.loc 1 456 3 is_stmt 1 view .LVU344
 1950 00a6 0C4D     		ldr	r5, .L149+28
 1951 00a8 0FCD     		ldmia	r5!, {r0, r1, r2, r3}
 1952              	.LVL143:
 1953              		.loc 1 456 3 is_stmt 0 view .LVU345
 1954 00aa 2E88     		ldrh	r6, [r5]	@ unaligned
 1955 00ac AD78     		ldrb	r5, [r5, #2]	@ zero_extendqisi2
 1956 00ae 2060     		str	r0, [r4]	@ unaligned
 1957 00b0 6160     		str	r1, [r4, #4]	@ unaligned
 1958 00b2 A260     		str	r2, [r4, #8]	@ unaligned
 1959 00b4 E360     		str	r3, [r4, #12]	@ unaligned
 1960 00b6 2682     		strh	r6, [r4, #16]	@ unaligned
 1961 00b8 A574     		strb	r5, [r4, #18]
 1962 00ba BAE7     		b	.L145
 1963              	.L150:
 1964              		.align	2
 1965              	.L149:
 1966 00bc 00000000 		.word	.LC70
 1967 00c0 68000000 		.word	.LC69
 1968 00c4 00000000 		.word	.LC64
 1969 00c8 14000000 		.word	.LC65
 1970 00cc 2C000000 		.word	.LC66
ARM GAS  /tmp/ccYpZsRp.s 			page 39


 1971 00d0 3C000000 		.word	.LC67
 1972 00d4 54000000 		.word	.LC68
 1973 00d8 54010000 		.word	.LC22
 1974              		.cfi_endproc
 1975              	.LFE10:
 1976              		.size	VL53L0X_get_limit_check_info, .-VL53L0X_get_limit_check_info
 1977              		.text
 1978              	.Letext0:
 1979              		.file 2 "/usr/lib/gcc/arm-none-eabi/9.2.1/include/stdint.h"
 1980              		.file 3 ".//src/sensors/VL53L0X/Api/core/src/../inc/vl53l0x_types.h"
 1981              		.file 4 ".//src/sensors/VL53L0X/Api/core/src/../inc/vl53l0x_device.h"
 1982              		.file 5 ".//src/sensors/VL53L0X/Api/core/src/../inc/vl53l0x_def.h"
 1983              		.file 6 "/usr/lib/gcc/arm-none-eabi/9.2.1/include/stddef.h"
 1984              		.file 7 "/usr/include/newlib/sys/_types.h"
 1985              		.file 8 "/usr/include/newlib/sys/reent.h"
 1986              		.file 9 "/usr/include/newlib/sys/lock.h"
 1987              		.file 10 ".//src/sensors/VL53L0X/Api/core/src/../inc/../../platform/inc/vl53l0x_platform.h"
 1988              		.file 11 "/usr/include/newlib/stdlib.h"
 1989              		.file 12 ".//src/sensors/VL53L0X/Api/core/src/../inc/vl53l0x_api_core.h"
 1990              		.file 13 "/usr/include/newlib/string.h"