ARM GAS  /tmp/cclXoGh5.s 			page 1


   1              		.cpu cortex-m4
   2              		.eabi_attribute 27, 1
   3              		.eabi_attribute 28, 1
   4              		.eabi_attribute 20, 1
   5              		.eabi_attribute 21, 1
   6              		.eabi_attribute 23, 3
   7              		.eabi_attribute 24, 1
   8              		.eabi_attribute 25, 1
   9              		.eabi_attribute 26, 1
  10              		.eabi_attribute 30, 2
  11              		.eabi_attribute 34, 1
  12              		.eabi_attribute 18, 4
  13              		.file	"vm.c"
  14              		.text
  15              	.Ltext0:
  16              		.cfi_sections	.debug_frame
  17              		.section	.rodata.AsebaVMDoBinaryOperation.cst4,"aM",%progbits,4
  18              		.align	2
  19              	.LC0:
  20 0000 00000000 		.word	__stack_chk_guard
  21              		.section	.text.AsebaVMDoBinaryOperation,"ax",%progbits
  22              		.align	1
  23              		.p2align 4,,15
  24              		.arch armv7e-m
  25              		.syntax unified
  26              		.thumb
  27              		.thumb_func
  28              		.fpu fpv4-sp-d16
  29              		.type	AsebaVMDoBinaryOperation, %function
  30              	AsebaVMDoBinaryOperation:
  31              	.LVL0:
  32              	.LFB3:
  33              		.file 1 ".//aseba/vm/vm.c"
  34              		.loc 1 91 1 view -0
  35              		.cfi_startproc
  36              		@ args = 0, pretend = 0, frame = 16
  37              		@ frame_needed = 0, uses_anonymous_args = 0
  38              		.loc 1 91 1 is_stmt 0 view .LVU1
  39 0000 00B5     		push	{lr}
  40              		.cfi_def_cfa_offset 4
  41              		.cfi_offset 14, -4
  42 0002 DFF800C1 		ldr	ip, .L38
  43 0006 85B0     		sub	sp, sp, #20
  44              		.cfi_def_cfa_offset 24
  45              		.loc 1 91 1 view .LVU2
  46 0008 DCF800C0 		ldr	ip, [ip]
  47 000c CDF80CC0 		str	ip, [sp, #12]
  48 0010 4FF0000C 		mov	ip,#0
  49              		.loc 1 92 2 is_stmt 1 view .LVU3
  50 0014 112B     		cmp	r3, #17
  51 0016 38D8     		bhi	.L28
  52 0018 DFE803F0 		tbb	[pc, r3]
  53              	.L4:
  54 001c 0E       		.byte	(.L21-.L4)/2
  55 001d 19       		.byte	(.L20-.L4)/2
  56 001e 1C       		.byte	(.L19-.L4)/2
  57 001f 1F       		.byte	(.L18-.L4)/2
ARM GAS  /tmp/cclXoGh5.s 			page 2


  58 0020 22       		.byte	(.L17-.L4)/2
  59 0021 26       		.byte	(.L16-.L4)/2
  60 0022 39       		.byte	(.L15-.L4)/2
  61 0023 41       		.byte	(.L14-.L4)/2
  62 0024 44       		.byte	(.L13-.L4)/2
  63 0025 47       		.byte	(.L12-.L4)/2
  64 0026 4A       		.byte	(.L11-.L4)/2
  65 0027 4F       		.byte	(.L10-.L4)/2
  66 0028 53       		.byte	(.L9-.L4)/2
  67 0029 58       		.byte	(.L8-.L4)/2
  68 002a 5D       		.byte	(.L7-.L4)/2
  69 002b 62       		.byte	(.L6-.L4)/2
  70 002c 67       		.byte	(.L5-.L4)/2
  71 002d 09       		.byte	(.L3-.L4)/2
  72              		.p2align 1
  73              	.L3:
  74              		.loc 1 140 22 view .LVU4
  75              		.loc 1 140 38 is_stmt 0 view .LVU5
  76 002e 61B3     		cbz	r1, .L28
  77 0030 101E     		subs	r0, r2, #0
  78              	.LVL1:
  79              		.loc 1 140 38 view .LVU6
  80 0032 18BF     		it	ne
  81 0034 0120     		movne	r0, #1
  82 0036 02E0     		b	.L2
  83              	.LVL2:
  84              	.L21:
  85              		.loc 1 94 29 is_stmt 1 view .LVU7
  86              		.loc 1 94 45 is_stmt 0 view .LVU8
  87 0038 01FA02F2 		lsl	r2, r1, r2
  88              	.LVL3:
  89              		.loc 1 94 45 view .LVU9
  90 003c 10B2     		sxth	r0, r2
  91              	.LVL4:
  92              	.L2:
  93              		.loc 1 148 1 view .LVU10
  94 003e 314B     		ldr	r3, .L38
  95 0040 1A68     		ldr	r2, [r3]
  96 0042 039B     		ldr	r3, [sp, #12]
  97 0044 5A40     		eors	r2, r3, r2
  98 0046 5AD1     		bne	.L37
  99 0048 05B0     		add	sp, sp, #20
 100              		.cfi_remember_state
 101              		.cfi_def_cfa_offset 4
 102              		@ sp needed
 103 004a 5DF804FB 		ldr	pc, [sp], #4
 104              	.LVL5:
 105              	.L20:
 106              		.cfi_restore_state
 107              		.loc 1 95 30 is_stmt 1 view .LVU11
 108              		.loc 1 95 46 is_stmt 0 view .LVU12
 109 004e 41FA02F0 		asr	r0, r1, r2
 110              	.LVL6:
 111              		.loc 1 95 46 view .LVU13
 112 0052 F4E7     		b	.L2
 113              	.LVL7:
 114              	.L19:
ARM GAS  /tmp/cclXoGh5.s 			page 3


 115              		.loc 1 96 22 is_stmt 1 view .LVU14
 116              		.loc 1 96 38 is_stmt 0 view .LVU15
 117 0054 0A44     		add	r2, r2, r1
 118              	.LVL8:
 119              		.loc 1 96 38 view .LVU16
 120 0056 10B2     		sxth	r0, r2
 121              	.LVL9:
 122              		.loc 1 96 38 view .LVU17
 123 0058 F1E7     		b	.L2
 124              	.LVL10:
 125              	.L18:
 126              		.loc 1 97 22 is_stmt 1 view .LVU18
 127              		.loc 1 97 38 is_stmt 0 view .LVU19
 128 005a 8A1A     		subs	r2, r1, r2
 129              	.LVL11:
 130              		.loc 1 97 38 view .LVU20
 131 005c 10B2     		sxth	r0, r2
 132              	.LVL12:
 133              		.loc 1 97 38 view .LVU21
 134 005e EEE7     		b	.L2
 135              	.LVL13:
 136              	.L17:
 137              		.loc 1 98 23 is_stmt 1 view .LVU22
 138              		.loc 1 98 39 is_stmt 0 view .LVU23
 139 0060 11FB02F2 		smulbb	r2, r1, r2
 140              	.LVL14:
 141              		.loc 1 98 39 view .LVU24
 142 0064 10B2     		sxth	r0, r2
 143              	.LVL15:
 144              		.loc 1 98 39 view .LVU25
 145 0066 EAE7     		b	.L2
 146              	.LVL16:
 147              	.L16:
 148              		.loc 1 101 4 is_stmt 1 view .LVU26
 149              		.loc 1 101 7 is_stmt 0 view .LVU27
 150 0068 002A     		cmp	r2, #0
 151 006a 44D1     		bne	.L22
 152              	.L34:
 153              		.loc 1 103 5 is_stmt 1 view .LVU28
 154              		.loc 1 103 7 is_stmt 0 view .LVU29
 155 006c 264B     		ldr	r3, .L38+4
 156              	.LVL17:
 157              		.loc 1 103 7 view .LVU30
 158 006e 23B1     		cbz	r3, .L23
 159              		.loc 1 104 6 is_stmt 1 view .LVU31
 160 0070 0021     		movs	r1, #0
 161              	.LVL18:
 162              		.loc 1 104 6 is_stmt 0 view .LVU32
 163 0072 0190     		str	r0, [sp, #4]
 164 0074 FFF7FEFF 		bl	AsebaVMErrorCB
 165              	.LVL19:
 166              		.loc 1 104 6 view .LVU33
 167 0078 0198     		ldr	r0, [sp, #4]
 168              	.LVL20:
 169              	.L23:
 170              		.loc 1 105 5 is_stmt 1 view .LVU34
 171              		.loc 1 105 15 is_stmt 0 view .LVU35
ARM GAS  /tmp/cclXoGh5.s 			page 4


 172 007a 0223     		movs	r3, #2
 173 007c 0383     		strh	r3, [r0, #24]	@ movhi
 174              		.loc 1 106 5 is_stmt 1 view .LVU36
 175 007e 00F11A02 		add	r2, r0, #26
 176 0082 49F20701 		movw	r1, #36871
 177 0086 FFF7FEFF 		bl	AsebaSendMessage
 178              	.LVL21:
 179              		.loc 1 107 5 view .LVU37
 180              	.L28:
 181              		.loc 1 107 12 is_stmt 0 view .LVU38
 182 008a 0020     		movs	r0, #0
 183 008c D7E7     		b	.L2
 184              	.LVL22:
 185              	.L15:
 186              		.loc 1 115 4 is_stmt 1 view .LVU39
 187              		.loc 1 115 7 is_stmt 0 view .LVU40
 188 008e 002A     		cmp	r2, #0
 189 0090 ECD0     		beq	.L34
 190              		.loc 1 125 5 is_stmt 1 view .LVU41
 191              		.loc 1 125 21 is_stmt 0 view .LVU42
 192 0092 91FBF2F0 		sdiv	r0, r1, r2
 193              	.LVL23:
 194              		.loc 1 125 21 view .LVU43
 195 0096 02FB1012 		mls	r2, r2, r0, r1
 196              	.LVL24:
 197              		.loc 1 125 21 view .LVU44
 198 009a 10B2     		sxth	r0, r2
 199 009c CFE7     		b	.L2
 200              	.LVL25:
 201              	.L14:
 202              		.loc 1 128 25 is_stmt 1 view .LVU45
 203              		.loc 1 128 41 is_stmt 0 view .LVU46
 204 009e 41EA0200 		orr	r0, r1, r2
 205              	.LVL26:
 206              		.loc 1 128 41 view .LVU47
 207 00a2 CCE7     		b	.L2
 208              	.LVL27:
 209              	.L13:
 210              		.loc 1 129 26 is_stmt 1 view .LVU48
 211              		.loc 1 129 42 is_stmt 0 view .LVU49
 212 00a4 81EA0200 		eor	r0, r1, r2
 213              	.LVL28:
 214              		.loc 1 129 42 view .LVU50
 215 00a8 C9E7     		b	.L2
 216              	.LVL29:
 217              	.L12:
 218              		.loc 1 130 26 is_stmt 1 view .LVU51
 219              		.loc 1 130 42 is_stmt 0 view .LVU52
 220 00aa 01EA0200 		and	r0, r1, r2
 221              	.LVL30:
 222              		.loc 1 130 42 view .LVU53
 223 00ae C6E7     		b	.L2
 224              	.LVL31:
 225              	.L11:
 226              		.loc 1 132 24 is_stmt 1 view .LVU54
 227              		.loc 1 132 40 is_stmt 0 view .LVU55
 228 00b0 881A     		subs	r0, r1, r2
ARM GAS  /tmp/cclXoGh5.s 			page 5


 229              	.LVL32:
 230              		.loc 1 132 40 view .LVU56
 231 00b2 B0FA80F0 		clz	r0, r0
 232 00b6 4009     		lsrs	r0, r0, #5
 233 00b8 C1E7     		b	.L2
 234              	.LVL33:
 235              	.L10:
 236              		.loc 1 133 28 is_stmt 1 view .LVU57
 237              		.loc 1 133 44 is_stmt 0 view .LVU58
 238 00ba 881A     		subs	r0, r1, r2
 239              	.LVL34:
 240              		.loc 1 133 44 view .LVU59
 241 00bc 18BF     		it	ne
 242 00be 0120     		movne	r0, #1
 243 00c0 BDE7     		b	.L2
 244              	.LVL35:
 245              	.L9:
 246              		.loc 1 134 30 is_stmt 1 view .LVU60
 247              		.loc 1 134 46 is_stmt 0 view .LVU61
 248 00c2 9142     		cmp	r1, r2
 249 00c4 D4BF     		ite	le
 250 00c6 0020     		movle	r0, #0
 251              	.LVL36:
 252              		.loc 1 134 46 view .LVU62
 253 00c8 0120     		movgt	r0, #1
 254 00ca B8E7     		b	.L2
 255              	.LVL37:
 256              	.L8:
 257              		.loc 1 135 36 is_stmt 1 view .LVU63
 258              		.loc 1 135 52 is_stmt 0 view .LVU64
 259 00cc 9142     		cmp	r1, r2
 260 00ce B4BF     		ite	lt
 261 00d0 0020     		movlt	r0, #0
 262              	.LVL38:
 263              		.loc 1 135 52 view .LVU65
 264 00d2 0120     		movge	r0, #1
 265 00d4 B3E7     		b	.L2
 266              	.LVL39:
 267              	.L7:
 268              		.loc 1 136 31 is_stmt 1 view .LVU66
 269              		.loc 1 136 47 is_stmt 0 view .LVU67
 270 00d6 9142     		cmp	r1, r2
 271 00d8 ACBF     		ite	ge
 272 00da 0020     		movge	r0, #0
 273              	.LVL40:
 274              		.loc 1 136 47 view .LVU68
 275 00dc 0120     		movlt	r0, #1
 276 00de AEE7     		b	.L2
 277              	.LVL41:
 278              	.L6:
 279              		.loc 1 137 37 is_stmt 1 view .LVU69
 280              		.loc 1 137 53 is_stmt 0 view .LVU70
 281 00e0 9142     		cmp	r1, r2
 282 00e2 CCBF     		ite	gt
 283 00e4 0020     		movgt	r0, #0
 284              	.LVL42:
 285              		.loc 1 137 53 view .LVU71
ARM GAS  /tmp/cclXoGh5.s 			page 6


 286 00e6 0120     		movle	r0, #1
 287 00e8 A9E7     		b	.L2
 288              	.LVL43:
 289              	.L5:
 290              		.loc 1 139 21 is_stmt 1 view .LVU72
 291              		.loc 1 139 37 is_stmt 0 view .LVU73
 292 00ea 51EA0203 		orrs	r3, r1, r2
 293              	.LVL44:
 294              		.loc 1 139 37 view .LVU74
 295 00ee 14BF     		ite	ne
 296 00f0 0120     		movne	r0, #1
 297              	.LVL45:
 298              		.loc 1 139 37 view .LVU75
 299 00f2 0020     		moveq	r0, #0
 300 00f4 A3E7     		b	.L2
 301              	.LVL46:
 302              	.L22:
 303              		.loc 1 111 5 is_stmt 1 view .LVU76
 304              		.loc 1 111 21 is_stmt 0 view .LVU77
 305 00f6 91FBF2F2 		sdiv	r2, r1, r2
 306              	.LVL47:
 307              		.loc 1 111 21 view .LVU78
 308 00fa 10B2     		sxth	r0, r2
 309              	.LVL48:
 310              		.loc 1 111 21 view .LVU79
 311 00fc 9FE7     		b	.L2
 312              	.LVL49:
 313              	.L37:
 314              		.loc 1 148 1 view .LVU80
 315 00fe FFF7FEFF 		bl	__stack_chk_fail
 316              	.LVL50:
 317              	.L39:
 318 0102 00BF     		.align	2
 319              	.L38:
 320 0104 00000000 		.word	.LC0
 321 0108 00000000 		.word	AsebaVMErrorCB
 322              		.cfi_endproc
 323              	.LFE3:
 324              		.size	AsebaVMDoBinaryOperation, .-AsebaVMDoBinaryOperation
 325              		.section	.rodata.AsebaVMInit.cst4,"aM",%progbits,4
 326              		.align	2
 327              	.LC1:
 328 0000 00000000 		.word	__stack_chk_guard
 329              		.section	.text.AsebaVMInit,"ax",%progbits
 330              		.align	1
 331              		.p2align 4,,15
 332              		.global	AsebaVMInit
 333              		.syntax unified
 334              		.thumb
 335              		.thumb_func
 336              		.fpu fpv4-sp-d16
 337              		.type	AsebaVMInit, %function
 338              	AsebaVMInit:
 339              	.LVL51:
 340              	.LFB0:
 341              		.loc 1 45 1 is_stmt 1 view -0
 342              		.cfi_startproc
ARM GAS  /tmp/cclXoGh5.s 			page 7


 343              		@ args = 0, pretend = 0, frame = 8
 344              		@ frame_needed = 0, uses_anonymous_args = 0
 345              		.loc 1 45 1 is_stmt 0 view .LVU82
 346 0000 00B5     		push	{lr}
 347              		.cfi_def_cfa_offset 4
 348              		.cfi_offset 14, -4
 349 0002 0E4A     		ldr	r2, .L45
 350              		.loc 1 51 4 view .LVU83
 351 0004 4368     		ldr	r3, [r0, #4]
 352              		.loc 1 47 12 view .LVU84
 353 0006 0021     		movs	r1, #0
 354              		.loc 1 45 1 view .LVU85
 355 0008 83B0     		sub	sp, sp, #12
 356              		.cfi_def_cfa_offset 16
 357              		.loc 1 45 1 view .LVU86
 358 000a 1268     		ldr	r2, [r2]
 359 000c 0192     		str	r2, [sp, #4]
 360 000e 4FF00002 		mov	r2,#0
 361              		.loc 1 46 2 is_stmt 1 view .LVU87
 362              		.loc 1 47 2 view .LVU88
 363              		.loc 1 47 12 is_stmt 0 view .LVU89
 364 0012 8161     		str	r1, [r0, #24]
 365              		.loc 1 48 2 is_stmt 1 view .LVU90
 366              		.loc 1 48 23 is_stmt 0 view .LVU91
 367 0014 C187     		strh	r1, [r0, #62]	@ movhi
 368              		.loc 1 51 2 is_stmt 1 view .LVU92
 369              		.loc 1 51 18 is_stmt 0 view .LVU93
 370 0016 1980     		strh	r1, [r3]	@ movhi
 371              		.loc 1 52 2 is_stmt 1 view .LVU94
 372 0018 084B     		ldr	r3, .L45
 373              		.loc 1 52 29 is_stmt 0 view .LVU95
 374 001a 0289     		ldrh	r2, [r0, #8]
 375              		.loc 1 52 2 view .LVU96
 376 001c C068     		ldr	r0, [r0, #12]
 377              	.LVL52:
 378              		.loc 1 52 2 view .LVU97
 379 001e D3F800C0 		ldr	ip, [r3]
 380 0022 019B     		ldr	r3, [sp, #4]
 381 0024 93EA0C0C 		eors	ip, r3, ip
 382 0028 05D1     		bne	.L44
 383 002a 5200     		lsls	r2, r2, #1
 384              		.loc 1 53 1 view .LVU98
 385 002c 03B0     		add	sp, sp, #12
 386              		.cfi_remember_state
 387              		.cfi_def_cfa_offset 4
 388              		@ sp needed
 389 002e 5DF804EB 		ldr	lr, [sp], #4
 390              		.cfi_restore 14
 391              		.cfi_def_cfa_offset 0
 392              		.loc 1 52 2 view .LVU99
 393 0032 FFF7FEBF 		b	memset
 394              	.LVL53:
 395              	.L44:
 396              		.cfi_restore_state
 397 0036 FFF7FEFF 		bl	__stack_chk_fail
 398              	.LVL54:
 399              	.L46:
ARM GAS  /tmp/cclXoGh5.s 			page 8


 400 003a 00BF     		.align	2
 401              	.L45:
 402 003c 00000000 		.word	.LC1
 403              		.cfi_endproc
 404              	.LFE0:
 405              		.size	AsebaVMInit, .-AsebaVMInit
 406              		.section	.rodata.AsebaVMGetEventAddress.cst4,"aM",%progbits,4
 407              		.align	2
 408              	.LC2:
 409 0000 00000000 		.word	__stack_chk_guard
 410              		.section	.text.AsebaVMGetEventAddress,"ax",%progbits
 411              		.align	1
 412              		.p2align 4,,15
 413              		.global	AsebaVMGetEventAddress
 414              		.syntax unified
 415              		.thumb
 416              		.thumb_func
 417              		.fpu fpv4-sp-d16
 418              		.type	AsebaVMGetEventAddress, %function
 419              	AsebaVMGetEventAddress:
 420              	.LVL55:
 421              	.LFB1:
 422              		.loc 1 56 1 is_stmt 1 view -0
 423              		.cfi_startproc
 424              		@ args = 0, pretend = 0, frame = 8
 425              		@ frame_needed = 0, uses_anonymous_args = 0
 426              		.loc 1 56 1 is_stmt 0 view .LVU101
 427 0000 10B5     		push	{r4, lr}
 428              		.cfi_def_cfa_offset 8
 429              		.cfi_offset 4, -8
 430              		.cfi_offset 14, -4
 431              		.loc 1 57 29 view .LVU102
 432 0002 4068     		ldr	r0, [r0, #4]
 433              	.LVL56:
 434              		.loc 1 56 1 view .LVU103
 435 0004 104B     		ldr	r3, .L56
 436              		.loc 1 57 9 view .LVU104
 437 0006 0488     		ldrh	r4, [r0]
 438              		.loc 1 56 1 view .LVU105
 439 0008 82B0     		sub	sp, sp, #8
 440              		.cfi_def_cfa_offset 16
 441              		.loc 1 61 2 view .LVU106
 442 000a 012C     		cmp	r4, #1
 443              		.loc 1 56 1 view .LVU107
 444 000c 1B68     		ldr	r3, [r3]
 445 000e 0193     		str	r3, [sp, #4]
 446 0010 4FF00003 		mov	r3,#0
 447              		.loc 1 57 2 is_stmt 1 view .LVU108
 448              	.LVL57:
 449              		.loc 1 58 2 view .LVU109
 450              		.loc 1 61 2 view .LVU110
 451              		.loc 1 61 14 view .LVU111
 452              		.loc 1 61 2 is_stmt 0 view .LVU112
 453 0014 0DD9     		bls	.L52
 454 0016 0123     		movs	r3, #1
 455 0018 03E0     		b	.L50
 456              	.LVL58:
ARM GAS  /tmp/cclXoGh5.s 			page 9


 457              	.L49:
 458              		.loc 1 61 35 is_stmt 1 discriminator 2 view .LVU113
 459              		.loc 1 61 14 discriminator 2 view .LVU114
 460 001a 0233     		adds	r3, r3, #2
 461              	.LVL59:
 462              		.loc 1 61 2 is_stmt 0 discriminator 2 view .LVU115
 463 001c 9AB2     		uxth	r2, r3
 464 001e 9442     		cmp	r4, r2
 465 0020 07D9     		bls	.L52
 466              	.L50:
 467              	.LVL60:
 468              		.loc 1 62 3 is_stmt 1 view .LVU116
 469              		.loc 1 62 6 is_stmt 0 view .LVU117
 470 0022 30F81320 		ldrh	r2, [r0, r3, lsl #1]
 471 0026 8A42     		cmp	r2, r1
 472 0028 F7D1     		bne	.L49
 473              		.loc 1 63 4 is_stmt 1 view .LVU118
 474              		.loc 1 63 23 is_stmt 0 view .LVU119
 475 002a 0133     		adds	r3, r3, #1
 476              	.LVL61:
 477              		.loc 1 63 23 view .LVU120
 478 002c 30F81300 		ldrh	r0, [r0, r3, lsl #1]
 479 0030 00E0     		b	.L48
 480              	.L52:
 481              		.loc 1 64 9 view .LVU121
 482 0032 0020     		movs	r0, #0
 483              	.L48:
 484              		.loc 1 65 1 view .LVU122
 485 0034 044B     		ldr	r3, .L56
 486 0036 1A68     		ldr	r2, [r3]
 487 0038 019B     		ldr	r3, [sp, #4]
 488 003a 5A40     		eors	r2, r3, r2
 489 003c 01D1     		bne	.L55
 490 003e 02B0     		add	sp, sp, #8
 491              		.cfi_remember_state
 492              		.cfi_def_cfa_offset 8
 493              		@ sp needed
 494 0040 10BD     		pop	{r4, pc}
 495              	.LVL62:
 496              	.L55:
 497              		.cfi_restore_state
 498              		.loc 1 65 1 view .LVU123
 499 0042 FFF7FEFF 		bl	__stack_chk_fail
 500              	.LVL63:
 501              	.L57:
 502              		.loc 1 65 1 view .LVU124
 503 0046 00BF     		.align	2
 504              	.L56:
 505 0048 00000000 		.word	.LC2
 506              		.cfi_endproc
 507              	.LFE1:
 508              		.size	AsebaVMGetEventAddress, .-AsebaVMGetEventAddress
 509              		.section	.rodata.AsebaVMSetupEvent.cst4,"aM",%progbits,4
 510              		.align	2
 511              	.LC3:
 512 0000 00000000 		.word	__stack_chk_guard
 513              		.section	.text.AsebaVMSetupEvent,"ax",%progbits
ARM GAS  /tmp/cclXoGh5.s 			page 10


 514              		.align	1
 515              		.p2align 4,,15
 516              		.global	AsebaVMSetupEvent
 517              		.syntax unified
 518              		.thumb
 519              		.thumb_func
 520              		.fpu fpv4-sp-d16
 521              		.type	AsebaVMSetupEvent, %function
 522              	AsebaVMSetupEvent:
 523              	.LVL64:
 524              	.LFB2:
 525              		.loc 1 69 1 is_stmt 1 view -0
 526              		.cfi_startproc
 527              		@ args = 0, pretend = 0, frame = 8
 528              		@ frame_needed = 0, uses_anonymous_args = 0
 529              		.loc 1 69 1 is_stmt 0 view .LVU126
 530 0000 70B5     		push	{r4, r5, r6, lr}
 531              		.cfi_def_cfa_offset 16
 532              		.cfi_offset 4, -16
 533              		.cfi_offset 5, -12
 534              		.cfi_offset 6, -8
 535              		.cfi_offset 14, -4
 536              	.LBB61:
 537              	.LBB62:
 538              		.loc 1 57 29 view .LVU127
 539 0002 4468     		ldr	r4, [r0, #4]
 540              	.LBE62:
 541              	.LBE61:
 542              		.loc 1 69 1 view .LVU128
 543 0004 224B     		ldr	r3, .L77
 544              	.LBB67:
 545              	.LBB63:
 546              		.loc 1 57 9 view .LVU129
 547 0006 2588     		ldrh	r5, [r4]
 548              	.LBE63:
 549              	.LBE67:
 550              		.loc 1 69 1 view .LVU130
 551 0008 82B0     		sub	sp, sp, #8
 552              		.cfi_def_cfa_offset 24
 553              	.LBB68:
 554              	.LBB64:
 555              		.loc 1 61 2 view .LVU131
 556 000a 012D     		cmp	r5, #1
 557              	.LBE64:
 558              	.LBE68:
 559              		.loc 1 69 1 view .LVU132
 560 000c 1B68     		ldr	r3, [r3]
 561 000e 0193     		str	r3, [sp, #4]
 562 0010 4FF00003 		mov	r3,#0
 563              		.loc 1 70 2 is_stmt 1 view .LVU133
 564              	.LVL65:
 565              	.LBB69:
 566              	.LBI61:
 567              		.loc 1 55 8 view .LVU134
 568              	.LBB65:
 569              		.loc 1 57 2 view .LVU135
 570              		.loc 1 58 2 view .LVU136
ARM GAS  /tmp/cclXoGh5.s 			page 11


 571              		.loc 1 61 2 view .LVU137
 572              		.loc 1 61 14 view .LVU138
 573              		.loc 1 61 2 is_stmt 0 view .LVU139
 574 0014 22D9     		bls	.L65
 575 0016 0646     		mov	r6, r0
 576 0018 0123     		movs	r3, #1
 577 001a 03E0     		b	.L62
 578              	.LVL66:
 579              	.L60:
 580              		.loc 1 61 35 is_stmt 1 view .LVU140
 581              		.loc 1 61 14 view .LVU141
 582 001c 0233     		adds	r3, r3, #2
 583              	.LVL67:
 584              		.loc 1 61 2 is_stmt 0 view .LVU142
 585 001e 9AB2     		uxth	r2, r3
 586 0020 9542     		cmp	r5, r2
 587 0022 1BD9     		bls	.L65
 588              	.L62:
 589              	.LVL68:
 590              		.loc 1 62 3 is_stmt 1 view .LVU143
 591              		.loc 1 62 6 is_stmt 0 view .LVU144
 592 0024 34F81320 		ldrh	r2, [r4, r3, lsl #1]
 593 0028 8A42     		cmp	r2, r1
 594 002a F7D1     		bne	.L60
 595              		.loc 1 63 4 is_stmt 1 view .LVU145
 596              		.loc 1 63 23 is_stmt 0 view .LVU146
 597 002c 0133     		adds	r3, r3, #1
 598              	.LVL69:
 599              		.loc 1 63 23 view .LVU147
 600 002e 34F81340 		ldrh	r4, [r4, r3, lsl #1]
 601              	.LVL70:
 602              		.loc 1 63 23 view .LVU148
 603              	.LBE65:
 604              	.LBE69:
 605              		.loc 1 71 2 is_stmt 1 view .LVU149
 606              		.loc 1 71 5 is_stmt 0 view .LVU150
 607 0032 5CB1     		cbz	r4, .L59
 608              		.loc 1 74 3 is_stmt 1 view .LVU151
 609              		.loc 1 74 7 is_stmt 0 view .LVU152
 610 0034 338B     		ldrh	r3, [r6, #24]
 611              		.loc 1 74 6 view .LVU153
 612 0036 DA07     		lsls	r2, r3, #31
 613 0038 1ED4     		bmi	.L74
 614              	.LVL71:
 615              	.L63:
 616              		.loc 1 79 3 is_stmt 1 view .LVU154
 617              		.loc 1 81 3 is_stmt 0 view .LVU155
 618 003a 43F00105 		orr	r5, r3, #1
 619              		.loc 1 80 10 view .LVU156
 620 003e 4FF6FF72 		movw	r2, #65535
 621              		.loc 1 84 6 view .LVU157
 622 0042 9B07     		lsls	r3, r3, #30
 623              		.loc 1 79 10 view .LVU158
 624 0044 7483     		strh	r4, [r6, #26]	@ movhi
 625              		.loc 1 80 3 is_stmt 1 view .LVU159
 626              		.loc 1 80 10 is_stmt 0 view .LVU160
 627 0046 B283     		strh	r2, [r6, #28]	@ movhi
ARM GAS  /tmp/cclXoGh5.s 			page 12


 628              		.loc 1 81 3 is_stmt 1 view .LVU161
 629 0048 3583     		strh	r5, [r6, #24]	@ movhi
 630              		.loc 1 84 3 view .LVU162
 631              		.loc 1 84 6 is_stmt 0 view .LVU163
 632 004a 09D4     		bmi	.L75
 633              	.LVL72:
 634              	.L59:
 635              		.loc 1 87 2 is_stmt 1 view .LVU164
 636              		.loc 1 88 1 is_stmt 0 view .LVU165
 637 004c 104B     		ldr	r3, .L77
 638 004e 1A68     		ldr	r2, [r3]
 639 0050 019B     		ldr	r3, [sp, #4]
 640 0052 5A40     		eors	r2, r3, r2
 641 0054 1AD1     		bne	.L76
 642 0056 2046     		mov	r0, r4
 643 0058 02B0     		add	sp, sp, #8
 644              		.cfi_remember_state
 645              		.cfi_def_cfa_offset 16
 646              		@ sp needed
 647 005a 70BD     		pop	{r4, r5, r6, pc}
 648              	.LVL73:
 649              	.L65:
 650              		.cfi_restore_state
 651              	.LBB70:
 652              	.LBB66:
 653              		.loc 1 64 9 view .LVU166
 654 005c 0024     		movs	r4, #0
 655 005e F5E7     		b	.L59
 656              	.LVL74:
 657              	.L75:
 658              		.loc 1 64 9 view .LVU167
 659              	.LBE66:
 660              	.LBE70:
 661              		.loc 1 85 4 is_stmt 1 view .LVU168
 662              	.LBB71:
 663              	.LBI71:
 664              		.loc 1 714 6 view .LVU169
 665              	.LBB72:
 666              		.loc 1 716 2 view .LVU170
 667              		.loc 1 717 2 view .LVU171
 668              		.loc 1 719 2 is_stmt 0 view .LVU172
 669 0060 3046     		mov	r0, r6
 670 0062 0423     		movs	r3, #4
 671 0064 6A46     		mov	r2, sp
 672 0066 49F20A01 		movw	r1, #36874
 673              		.loc 1 717 12 view .LVU173
 674 006a ADF80040 		strh	r4, [sp]	@ movhi
 675              		.loc 1 718 2 is_stmt 1 view .LVU174
 676              		.loc 1 718 12 is_stmt 0 view .LVU175
 677 006e ADF80250 		strh	r5, [sp, #2]	@ movhi
 678              		.loc 1 719 2 is_stmt 1 view .LVU176
 679 0072 FFF7FEFF 		bl	AsebaSendMessage
 680              	.LVL75:
 681              		.loc 1 720 1 is_stmt 0 view .LVU177
 682 0076 E9E7     		b	.L59
 683              	.LVL76:
 684              	.L74:
ARM GAS  /tmp/cclXoGh5.s 			page 13


 685              		.loc 1 720 1 view .LVU178
 686              	.LBE72:
 687              	.LBE71:
 688              		.loc 1 76 4 is_stmt 1 view .LVU179
 689 0078 0223     		movs	r3, #2
 690 007a 06F11A02 		add	r2, r6, #26
 691 007e 49F20801 		movw	r1, #36872
 692              	.LVL77:
 693              		.loc 1 76 4 is_stmt 0 view .LVU180
 694 0082 3046     		mov	r0, r6
 695              	.LVL78:
 696              		.loc 1 76 4 view .LVU181
 697 0084 FFF7FEFF 		bl	AsebaSendMessage
 698              	.LVL79:
 699 0088 338B     		ldrh	r3, [r6, #24]
 700 008a D6E7     		b	.L63
 701              	.LVL80:
 702              	.L76:
 703              		.loc 1 88 1 view .LVU182
 704 008c FFF7FEFF 		bl	__stack_chk_fail
 705              	.LVL81:
 706              	.L78:
 707              		.align	2
 708              	.L77:
 709 0090 00000000 		.word	.LC3
 710              		.cfi_endproc
 711              	.LFE2:
 712              		.size	AsebaVMSetupEvent, .-AsebaVMSetupEvent
 713              		.section	.rodata.AsebaVMStep.cst4,"aM",%progbits,4
 714              		.align	2
 715              	.LC4:
 716 0000 00000000 		.word	__stack_chk_guard
 717              		.section	.text.AsebaVMStep,"ax",%progbits
 718              		.align	1
 719              		.p2align 4,,15
 720              		.global	AsebaVMStep
 721              		.syntax unified
 722              		.thumb
 723              		.thumb_func
 724              		.fpu fpv4-sp-d16
 725              		.type	AsebaVMStep, %function
 726              	AsebaVMStep:
 727              	.LVL82:
 728              	.LFB5:
 729              		.loc 1 170 1 is_stmt 1 view -0
 730              		.cfi_startproc
 731              		@ args = 0, pretend = 0, frame = 16
 732              		@ frame_needed = 0, uses_anonymous_args = 0
 733              		.loc 1 170 1 is_stmt 0 view .LVU184
 734 0000 F0B5     		push	{r4, r5, r6, r7, lr}
 735              		.cfi_def_cfa_offset 20
 736              		.cfi_offset 4, -20
 737              		.cfi_offset 5, -16
 738              		.cfi_offset 6, -12
 739              		.cfi_offset 7, -8
 740              		.cfi_offset 14, -4
 741              		.loc 1 171 22 view .LVU185
ARM GAS  /tmp/cclXoGh5.s 			page 14


 742 0002 4268     		ldr	r2, [r0, #4]
 743              		.loc 1 171 35 view .LVU186
 744 0004 418B     		ldrh	r1, [r0, #26]
 745              		.loc 1 170 1 view .LVU187
 746 0006 A84B     		ldr	r3, .L122
 747              		.loc 1 171 9 view .LVU188
 748 0008 32F81150 		ldrh	r5, [r2, r1, lsl #1]
 749              		.loc 1 170 1 view .LVU189
 750 000c 85B0     		sub	sp, sp, #20
 751              		.cfi_def_cfa_offset 40
 752              		.loc 1 170 1 view .LVU190
 753 000e 1B68     		ldr	r3, [r3]
 754 0010 0393     		str	r3, [sp, #12]
 755 0012 4FF00003 		mov	r3,#0
 756              		.loc 1 171 2 is_stmt 1 view .LVU191
 757              	.LVL83:
 758              		.loc 1 178 2 view .LVU192
 759 0016 2B0B     		lsrs	r3, r5, #12
 760              		.loc 1 170 1 is_stmt 0 view .LVU193
 761 0018 0446     		mov	r4, r0
 762              		.loc 1 171 32 view .LVU194
 763 001a 4800     		lsls	r0, r1, #1
 764              	.LVL84:
 765              		.loc 1 171 32 view .LVU195
 766 001c 0E2B     		cmp	r3, #14
 767 001e 31D8     		bhi	.L79
 768 0020 DFE813F0 		tbh	[pc, r3, lsl #1]
 769              	.L82:
 770 0024 4100     		.2byte	(.L96-.L82)/2
 771 0026 4600     		.2byte	(.L95-.L82)/2
 772 0028 5300     		.2byte	(.L94-.L82)/2
 773 002a 6000     		.2byte	(.L93-.L82)/2
 774 002c 7000     		.2byte	(.L92-.L82)/2
 775 002e 8000     		.2byte	(.L91-.L82)/2
 776 0030 0F00     		.2byte	(.L90-.L82)/2
 777 0032 9500     		.2byte	(.L89-.L82)/2
 778 0034 AB00     		.2byte	(.L88-.L82)/2
 779 0036 C400     		.2byte	(.L87-.L82)/2
 780 0038 C900     		.2byte	(.L86-.L82)/2
 781 003a EB00     		.2byte	(.L85-.L82)/2
 782 003c FC00     		.2byte	(.L84-.L82)/2
 783 003e 0501     		.2byte	(.L83-.L82)/2
 784 0040 3800     		.2byte	(.L81-.L82)/2
 785              		.p2align 1
 786              	.L90:
 787              	.LBB73:
 788              		.loc 1 308 4 is_stmt 1 view .LVU196
 789              		.loc 1 309 4 view .LVU197
 790              		.loc 1 310 4 view .LVU198
 791              		.loc 1 311 4 view .LVU199
 792              		.loc 1 320 4 view .LVU200
 793              	.LVL85:
 794              		.loc 1 321 4 view .LVU201
 795              		.loc 1 323 37 is_stmt 0 view .LVU202
 796 0042 B4F91C30 		ldrsh	r3, [r4, #28]
 797              		.loc 1 321 14 view .LVU203
 798 0046 0244     		add	r2, r2, r0
ARM GAS  /tmp/cclXoGh5.s 			page 15


 799              		.loc 1 322 22 view .LVU204
 800 0048 6069     		ldr	r0, [r4, #20]
 801              		.loc 1 321 14 view .LVU205
 802 004a 5788     		ldrh	r7, [r2, #2]
 803              	.LVL86:
 804              		.loc 1 322 4 is_stmt 1 view .LVU206
 805              		.loc 1 323 4 view .LVU207
 806              		.loc 1 323 18 is_stmt 0 view .LVU208
 807 004c 30F81360 		ldrh	r6, [r0, r3, lsl #1]
 808              	.LVL87:
 809              		.loc 1 326 4 is_stmt 1 view .LVU209
 810              		.loc 1 326 7 is_stmt 0 view .LVU210
 811 0050 B742     		cmp	r7, r6
 812              		.loc 1 323 37 view .LVU211
 813 0052 4FEA4303 		lsl	r3, r3, #1
 814              	.LVL88:
 815              		.loc 1 326 7 view .LVU212
 816 0056 00F2F680 		bhi	.L99
 817              	.LVL89:
 818              	.L119:
 819              	.LBB74:
 820              		.loc 1 328 5 is_stmt 1 view .LVU213
 821              		.loc 1 329 5 view .LVU214
 822              		.loc 1 332 15 is_stmt 0 view .LVU215
 823 005a 0223     		movs	r3, #2
 824 005c 2383     		strh	r3, [r4, #24]	@ movhi
 825              		.loc 1 333 5 view .LVU216
 826 005e 01AA     		add	r2, sp, #4
 827 0060 0623     		movs	r3, #6
 828              		.loc 1 329 15 view .LVU217
 829 0062 ADF80410 		strh	r1, [sp, #4]	@ movhi
 830              		.loc 1 330 5 is_stmt 1 view .LVU218
 831              		.loc 1 333 5 is_stmt 0 view .LVU219
 832 0066 2046     		mov	r0, r4
 833 0068 49F20601 		movw	r1, #36870
 834              		.loc 1 330 15 view .LVU220
 835 006c ADF80670 		strh	r7, [sp, #6]	@ movhi
 836              		.loc 1 331 5 is_stmt 1 view .LVU221
 837              		.loc 1 331 15 is_stmt 0 view .LVU222
 838 0070 ADF80860 		strh	r6, [sp, #8]	@ movhi
 839              		.loc 1 332 5 is_stmt 1 view .LVU223
 840              		.loc 1 333 5 view .LVU224
 841 0074 FFF7FEFF 		bl	AsebaSendMessage
 842              	.LVL90:
 843              		.loc 1 334 5 view .LVU225
 844              		.loc 1 334 7 is_stmt 0 view .LVU226
 845 0078 8C4B     		ldr	r3, .L122+4
 846 007a 1BB1     		cbz	r3, .L79
 847              		.loc 1 335 6 is_stmt 1 view .LVU227
 848 007c 2046     		mov	r0, r4
 849 007e 0021     		movs	r1, #0
 850 0080 FFF7FEFF 		bl	AsebaVMErrorCB
 851              	.LVL91:
 852              		.loc 1 336 5 view .LVU228
 853              	.L79:
 854              		.loc 1 336 5 is_stmt 0 view .LVU229
 855              	.LBE74:
ARM GAS  /tmp/cclXoGh5.s 			page 16


 856              	.LBE73:
 857              		.loc 1 532 1 view .LVU230
 858 0084 884B     		ldr	r3, .L122
 859 0086 1A68     		ldr	r2, [r3]
 860 0088 039B     		ldr	r3, [sp, #12]
 861 008a 5A40     		eors	r2, r3, r2
 862 008c 40F00A81 		bne	.L120
 863 0090 05B0     		add	sp, sp, #20
 864              		.cfi_remember_state
 865              		.cfi_def_cfa_offset 20
 866              		@ sp needed
 867 0092 F0BD     		pop	{r4, r5, r6, r7, pc}
 868              	.LVL92:
 869              	.L81:
 870              		.cfi_restore_state
 871              		.loc 1 522 4 is_stmt 1 view .LVU231
 872              		.loc 1 522 25 is_stmt 0 view .LVU232
 873 0094 B4F91C30 		ldrsh	r3, [r4, #28]
 874              		.loc 1 522 15 view .LVU233
 875 0098 6269     		ldr	r2, [r4, #20]
 876              		.loc 1 522 29 view .LVU234
 877 009a 591E     		subs	r1, r3, #1
 878 009c A183     		strh	r1, [r4, #28]	@ movhi
 879              		.loc 1 522 11 view .LVU235
 880 009e 32F81330 		ldrh	r3, [r2, r3, lsl #1]
 881 00a2 6383     		strh	r3, [r4, #26]	@ movhi
 882              		.loc 1 524 3 is_stmt 1 view .LVU236
 883              		.loc 1 532 1 is_stmt 0 view .LVU237
 884 00a4 EEE7     		b	.L79
 885              	.L96:
 886              		.loc 1 183 4 is_stmt 1 view .LVU238
 887 00a6 238B     		ldrh	r3, [r4, #24]
 888 00a8 23F00103 		bic	r3, r3, #1
 889 00ac 2383     		strh	r3, [r4, #24]	@ movhi
 890              		.loc 1 185 3 view .LVU239
 891 00ae E9E7     		b	.L79
 892              	.L95:
 893              	.LBB75:
 894              		.loc 1 190 4 view .LVU240
 895              	.LVL93:
 896              		.loc 1 199 4 view .LVU241
 897              		.loc 1 199 14 is_stmt 0 view .LVU242
 898 00b0 A38B     		ldrh	r3, [r4, #28]
 899              		.loc 1 199 6 view .LVU243
 900 00b2 6269     		ldr	r2, [r4, #20]
 901              		.loc 1 199 14 view .LVU244
 902 00b4 0133     		adds	r3, r3, #1
 903 00b6 1BB2     		sxth	r3, r3
 904              		.loc 1 190 11 view .LVU245
 905 00b8 45F30B05 		sbfx	r5, r5, #0, #12
 906              	.LVL94:
 907              		.loc 1 199 24 view .LVU246
 908 00bc A383     		strh	r3, [r4, #28]	@ movhi
 909              	.LVL95:
 910              		.loc 1 199 24 view .LVU247
 911 00be 22F81350 		strh	r5, [r2, r3, lsl #1]	@ movhi
 912              		.loc 1 202 4 is_stmt 1 view .LVU248
ARM GAS  /tmp/cclXoGh5.s 			page 17


 913              		.loc 1 202 11 is_stmt 0 view .LVU249
 914 00c2 638B     		ldrh	r3, [r4, #26]
 915 00c4 0133     		adds	r3, r3, #1
 916 00c6 6383     		strh	r3, [r4, #26]	@ movhi
 917              	.LBE75:
 918              		.loc 1 204 3 is_stmt 1 view .LVU250
 919 00c8 DCE7     		b	.L79
 920              	.LVL96:
 921              	.L94:
 922              		.loc 1 216 4 view .LVU251
 923              		.loc 1 216 14 is_stmt 0 view .LVU252
 924 00ca A38B     		ldrh	r3, [r4, #28]
 925              		.loc 1 216 6 view .LVU253
 926 00cc 6169     		ldr	r1, [r4, #20]
 927              		.loc 1 216 38 view .LVU254
 928 00ce 0244     		add	r2, r2, r0
 929              		.loc 1 216 14 view .LVU255
 930 00d0 0133     		adds	r3, r3, #1
 931 00d2 1BB2     		sxth	r3, r3
 932              		.loc 1 216 38 view .LVU256
 933 00d4 5288     		ldrh	r2, [r2, #2]
 934              		.loc 1 216 24 view .LVU257
 935 00d6 A383     		strh	r3, [r4, #28]	@ movhi
 936 00d8 21F81320 		strh	r2, [r1, r3, lsl #1]	@ movhi
 937              		.loc 1 219 4 is_stmt 1 view .LVU258
 938              		.loc 1 219 11 is_stmt 0 view .LVU259
 939 00dc 638B     		ldrh	r3, [r4, #26]
 940 00de 0233     		adds	r3, r3, #2
 941 00e0 6383     		strh	r3, [r4, #26]	@ movhi
 942              		.loc 1 221 3 is_stmt 1 view .LVU260
 943 00e2 CFE7     		b	.L79
 944              	.L93:
 945              	.LBB76:
 946              		.loc 1 226 4 view .LVU261
 947              	.LVL97:
 948              		.loc 1 237 4 view .LVU262
 949              		.loc 1 237 14 is_stmt 0 view .LVU263
 950 00e4 A38B     		ldrh	r3, [r4, #28]
 951              		.loc 1 237 39 view .LVU264
 952 00e6 E168     		ldr	r1, [r4, #12]
 953              		.loc 1 237 6 view .LVU265
 954 00e8 6269     		ldr	r2, [r4, #20]
 955              		.loc 1 237 14 view .LVU266
 956 00ea 0133     		adds	r3, r3, #1
 957 00ec 1BB2     		sxth	r3, r3
 958              		.loc 1 237 39 view .LVU267
 959 00ee C5F30B05 		ubfx	r5, r5, #0, #12
 960              	.LVL98:
 961              		.loc 1 237 24 view .LVU268
 962 00f2 A383     		strh	r3, [r4, #28]	@ movhi
 963              	.LVL99:
 964              		.loc 1 237 39 view .LVU269
 965 00f4 31F91510 		ldrsh	r1, [r1, r5, lsl #1]
 966              		.loc 1 237 24 view .LVU270
 967 00f8 22F81310 		strh	r1, [r2, r3, lsl #1]	@ movhi
 968              		.loc 1 240 4 is_stmt 1 view .LVU271
 969              		.loc 1 240 11 is_stmt 0 view .LVU272
ARM GAS  /tmp/cclXoGh5.s 			page 18


 970 00fc 638B     		ldrh	r3, [r4, #26]
 971 00fe 0133     		adds	r3, r3, #1
 972 0100 6383     		strh	r3, [r4, #26]	@ movhi
 973              	.LBE76:
 974              		.loc 1 242 3 is_stmt 1 view .LVU273
 975 0102 BFE7     		b	.L79
 976              	.LVL100:
 977              	.L92:
 978              	.LBB77:
 979              		.loc 1 247 4 view .LVU274
 980              		.loc 1 258 4 view .LVU275
 981              		.loc 1 258 47 is_stmt 0 view .LVU276
 982 0104 B4F91C30 		ldrsh	r3, [r4, #28]
 983              		.loc 1 258 37 view .LVU277
 984 0108 6169     		ldr	r1, [r4, #20]
 985              		.loc 1 258 33 view .LVU278
 986 010a E268     		ldr	r2, [r4, #12]
 987              		.loc 1 258 51 view .LVU279
 988 010c 581E     		subs	r0, r3, #1
 989 010e A083     		strh	r0, [r4, #28]	@ movhi
 990              		.loc 1 258 17 view .LVU280
 991 0110 C5F30B05 		ubfx	r5, r5, #0, #12
 992              	.LVL101:
 993              		.loc 1 258 44 view .LVU281
 994 0114 31F91330 		ldrsh	r3, [r1, r3, lsl #1]
 995              		.loc 1 258 33 view .LVU282
 996 0118 22F81530 		strh	r3, [r2, r5, lsl #1]	@ movhi
 997              		.loc 1 261 4 is_stmt 1 view .LVU283
 998              		.loc 1 261 11 is_stmt 0 view .LVU284
 999 011c 638B     		ldrh	r3, [r4, #26]
 1000 011e 0133     		adds	r3, r3, #1
 1001 0120 6383     		strh	r3, [r4, #26]	@ movhi
 1002              	.LBE77:
 1003              		.loc 1 263 3 is_stmt 1 view .LVU285
 1004 0122 AFE7     		b	.L79
 1005              	.LVL102:
 1006              	.L91:
 1007              	.LBB78:
 1008              		.loc 1 268 4 view .LVU286
 1009              		.loc 1 269 4 view .LVU287
 1010              		.loc 1 270 4 view .LVU288
 1011              		.loc 1 279 4 view .LVU289
 1012              		.loc 1 280 4 view .LVU290
 1013              		.loc 1 280 14 is_stmt 0 view .LVU291
 1014 0124 0244     		add	r2, r2, r0
 1015              		.loc 1 281 29 view .LVU292
 1016 0126 6369     		ldr	r3, [r4, #20]
 1017 0128 B4F91C00 		ldrsh	r0, [r4, #28]
 1018              		.loc 1 280 14 view .LVU293
 1019 012c 5788     		ldrh	r7, [r2, #2]
 1020              	.LVL103:
 1021              		.loc 1 281 4 is_stmt 1 view .LVU294
 1022              		.loc 1 281 18 is_stmt 0 view .LVU295
 1023 012e 33F81060 		ldrh	r6, [r3, r0, lsl #1]
 1024              	.LVL104:
 1025              		.loc 1 284 4 is_stmt 1 view .LVU296
 1026              		.loc 1 284 7 is_stmt 0 view .LVU297
ARM GAS  /tmp/cclXoGh5.s 			page 19


 1027 0132 B742     		cmp	r7, r6
 1028 0134 91D9     		bls	.L119
 1029              		.loc 1 298 4 is_stmt 1 view .LVU298
 1030              		.loc 1 298 49 is_stmt 0 view .LVU299
 1031 0136 C5F30B05 		ubfx	r5, r5, #0, #12
 1032              	.LVL105:
 1033              		.loc 1 298 37 view .LVU300
 1034 013a E268     		ldr	r2, [r4, #12]
 1035 013c 2E44     		add	r6, r6, r5
 1036              	.LVL106:
 1037              		.loc 1 298 37 view .LVU301
 1038 013e 32F91620 		ldrsh	r2, [r2, r6, lsl #1]
 1039              		.loc 1 298 22 view .LVU302
 1040 0142 23F81020 		strh	r2, [r3, r0, lsl #1]	@ movhi
 1041              	.LVL107:
 1042              		.loc 1 301 4 is_stmt 1 view .LVU303
 1043              		.loc 1 301 11 is_stmt 0 view .LVU304
 1044 0146 638B     		ldrh	r3, [r4, #26]
 1045 0148 0233     		adds	r3, r3, #2
 1046 014a 6383     		strh	r3, [r4, #26]	@ movhi
 1047              	.LBE78:
 1048              		.loc 1 303 3 is_stmt 1 view .LVU305
 1049 014c 9AE7     		b	.L79
 1050              	.LVL108:
 1051              	.L89:
 1052              	.LBB79:
 1053              		.loc 1 351 4 view .LVU306
 1054              		.loc 1 360 4 view .LVU307
 1055              		.loc 1 360 21 is_stmt 0 view .LVU308
 1056 014e B4F91C10 		ldrsh	r1, [r4, #28]
 1057 0152 6269     		ldr	r2, [r4, #20]
 1058              		.loc 1 363 15 view .LVU309
 1059 0154 EDB2     		uxtb	r5, r5
 1060              	.LVL109:
 1061              	.LBB80:
 1062              	.LBB81:
 1063              		.loc 1 153 2 view .LVU310
 1064 0156 012D     		cmp	r5, #1
 1065              	.LBE81:
 1066              	.LBE80:
 1067              		.loc 1 360 10 view .LVU311
 1068 0158 32F91130 		ldrsh	r3, [r2, r1, lsl #1]
 1069              	.LVL110:
 1070              		.loc 1 363 4 is_stmt 1 view .LVU312
 1071              	.LBB84:
 1072              	.LBI80:
 1073              		.loc 1 150 15 view .LVU313
 1074              	.LBB82:
 1075              		.loc 1 152 2 view .LVU314
 1076              		.loc 1 152 18 view .LVU315
 1077              		.loc 1 153 2 view .LVU316
 1078 015c 00F09780 		beq	.L101
 1079 0160 022D     		cmp	r5, #2
 1080 0162 00F09280 		beq	.L102
 1081 0166 002D     		cmp	r5, #0
 1082 0168 00F08C80 		beq	.L121
 1083 016c 0023     		movs	r3, #0
ARM GAS  /tmp/cclXoGh5.s 			page 20


 1084              	.LVL111:
 1085              	.L103:
 1086              		.loc 1 153 2 is_stmt 0 view .LVU317
 1087              	.LBE82:
 1088              	.LBE84:
 1089              		.loc 1 366 4 is_stmt 1 view .LVU318
 1090              		.loc 1 366 22 is_stmt 0 view .LVU319
 1091 016e 22F81130 		strh	r3, [r2, r1, lsl #1]	@ movhi
 1092              	.LVL112:
 1093              		.loc 1 369 4 is_stmt 1 view .LVU320
 1094              		.loc 1 369 11 is_stmt 0 view .LVU321
 1095 0172 638B     		ldrh	r3, [r4, #26]
 1096              	.LVL113:
 1097              		.loc 1 369 11 view .LVU322
 1098 0174 0133     		adds	r3, r3, #1
 1099 0176 6383     		strh	r3, [r4, #26]	@ movhi
 1100              	.LVL114:
 1101              		.loc 1 369 11 view .LVU323
 1102              	.LBE79:
 1103              		.loc 1 371 3 is_stmt 1 view .LVU324
 1104 0178 84E7     		b	.L79
 1105              	.LVL115:
 1106              	.L88:
 1107              	.LBB86:
 1108              		.loc 1 376 4 view .LVU325
 1109              		.loc 1 385 4 view .LVU326
 1110              		.loc 1 385 24 is_stmt 0 view .LVU327
 1111 017a B4F91C60 		ldrsh	r6, [r4, #28]
 1112              		.loc 1 385 17 view .LVU328
 1113 017e 6069     		ldr	r0, [r4, #20]
 1114              	.LVL116:
 1115              		.loc 1 386 4 is_stmt 1 view .LVU329
 1116              		.loc 1 389 4 view .LVU330
 1117              		.loc 1 386 13 is_stmt 0 view .LVU331
 1118 0180 06F10042 		add	r2, r6, #-2147483648
 1119 0184 013A     		subs	r2, r2, #1
 1120              		.loc 1 389 15 view .LVU332
 1121 0186 EBB2     		uxtb	r3, r5
 1122 0188 30F91210 		ldrsh	r1, [r0, r2, lsl #1]
 1123 018c 30F91620 		ldrsh	r2, [r0, r6, lsl #1]
 1124 0190 2046     		mov	r0, r4
 1125              	.LVL117:
 1126              		.loc 1 389 15 view .LVU333
 1127 0192 FFF7FEFF 		bl	AsebaVMDoBinaryOperation
 1128              	.LVL118:
 1129              		.loc 1 392 4 is_stmt 1 view .LVU334
 1130              		.loc 1 392 10 is_stmt 0 view .LVU335
 1131 0196 A38B     		ldrh	r3, [r4, #28]
 1132              		.loc 1 393 22 view .LVU336
 1133 0198 6269     		ldr	r2, [r4, #20]
 1134              		.loc 1 392 10 view .LVU337
 1135 019a 013B     		subs	r3, r3, #1
 1136 019c 1BB2     		sxth	r3, r3
 1137 019e A383     		strh	r3, [r4, #28]	@ movhi
 1138              		.loc 1 393 4 is_stmt 1 view .LVU338
 1139              		.loc 1 393 22 is_stmt 0 view .LVU339
 1140 01a0 22F81300 		strh	r0, [r2, r3, lsl #1]	@ movhi
ARM GAS  /tmp/cclXoGh5.s 			page 21


 1141              		.loc 1 396 4 is_stmt 1 view .LVU340
 1142              		.loc 1 396 11 is_stmt 0 view .LVU341
 1143 01a4 638B     		ldrh	r3, [r4, #26]
 1144 01a6 0133     		adds	r3, r3, #1
 1145 01a8 6383     		strh	r3, [r4, #26]	@ movhi
 1146              	.LBE86:
 1147              		.loc 1 398 3 is_stmt 1 view .LVU342
 1148 01aa 6BE7     		b	.L79
 1149              	.LVL119:
 1150              	.L87:
 1151              	.LBB87:
 1152              		.loc 1 403 4 view .LVU343
 1153              		.loc 1 412 4 view .LVU344
 1154              		.loc 1 403 11 is_stmt 0 view .LVU345
 1155 01ac 45F30B05 		sbfx	r5, r5, #0, #12
 1156              	.LVL120:
 1157              		.loc 1 412 11 view .LVU346
 1158 01b0 2944     		add	r1, r1, r5
 1159              	.LVL121:
 1160              		.loc 1 412 11 view .LVU347
 1161 01b2 6183     		strh	r1, [r4, #26]	@ movhi
 1162              	.LVL122:
 1163              		.loc 1 412 11 view .LVU348
 1164              	.LBE87:
 1165              		.loc 1 414 3 is_stmt 1 view .LVU349
 1166 01b4 66E7     		b	.L79
 1167              	.LVL123:
 1168              	.L86:
 1169              	.LBB88:
 1170              		.loc 1 419 4 view .LVU350
 1171              		.loc 1 420 4 view .LVU351
 1172              		.loc 1 421 4 view .LVU352
 1173              		.loc 1 430 4 view .LVU353
 1174              		.loc 1 430 24 is_stmt 0 view .LVU354
 1175 01b6 B4F91C20 		ldrsh	r2, [r4, #28]
 1176              		.loc 1 430 17 view .LVU355
 1177 01ba 6169     		ldr	r1, [r4, #20]
 1178              	.LVL124:
 1179              		.loc 1 431 4 is_stmt 1 view .LVU356
 1180              		.loc 1 432 4 view .LVU357
 1181              		.loc 1 431 13 is_stmt 0 view .LVU358
 1182 01bc 02F10043 		add	r3, r2, #-2147483648
 1183 01c0 013B     		subs	r3, r3, #1
 1184              		.loc 1 432 22 view .LVU359
 1185 01c2 31F91220 		ldrsh	r2, [r1, r2, lsl #1]
 1186              	.LVL125:
 1187              		.loc 1 432 22 view .LVU360
 1188 01c6 31F91310 		ldrsh	r1, [r1, r3, lsl #1]
 1189              	.LVL126:
 1190              		.loc 1 432 22 view .LVU361
 1191 01ca 2046     		mov	r0, r4
 1192 01cc EBB2     		uxtb	r3, r5
 1193              	.LVL127:
 1194              		.loc 1 432 22 view .LVU362
 1195 01ce FFF7FEFF 		bl	AsebaVMDoBinaryOperation
 1196              	.LVL128:
 1197              		.loc 1 433 4 is_stmt 1 view .LVU363
ARM GAS  /tmp/cclXoGh5.s 			page 22


 1198              		.loc 1 433 11 is_stmt 0 view .LVU364
 1199 01d2 A38B     		ldrh	r3, [r4, #28]
 1200 01d4 023B     		subs	r3, r3, #2
 1201 01d6 A383     		strh	r3, [r4, #28]	@ movhi
 1202              		.loc 1 436 4 is_stmt 1 view .LVU365
 1203              		.loc 1 436 7 is_stmt 0 view .LVU366
 1204 01d8 0028     		cmp	r0, #0
 1205 01da 44D0     		beq	.L104
 1206              		.loc 1 436 27 discriminator 1 view .LVU367
 1207 01dc 05F44075 		and	r5, r5, #768
 1208              	.LVL129:
 1209              		.loc 1 436 27 discriminator 1 view .LVU368
 1210 01e0 B5F5407F 		cmp	r5, #768
 1211 01e4 58D0     		beq	.L105
 1212 01e6 6168     		ldr	r1, [r4, #4]
 1213 01e8 608B     		ldrh	r0, [r4, #26]
 1214              	.LVL130:
 1215              		.loc 1 436 27 view .LVU369
 1216 01ea 0223     		movs	r3, #2
 1217              	.L106:
 1218              		.loc 1 449 5 is_stmt 1 view .LVU370
 1219 01ec 31F81020 		ldrh	r2, [r1, r0, lsl #1]
 1220 01f0 42F40072 		orr	r2, r2, #512
 1221 01f4 21F81020 		strh	r2, [r1, r0, lsl #1]	@ movhi
 1222 01f8 40E0     		b	.L107
 1223              	.LVL131:
 1224              	.L85:
 1225              		.loc 1 449 5 is_stmt 0 view .LVU371
 1226              	.LBE88:
 1227              	.LBB89:
 1228              		.loc 1 468 4 is_stmt 1 view .LVU372
 1229              		.loc 1 469 4 view .LVU373
 1230              		.loc 1 475 4 view .LVU374
 1231              		.loc 1 469 11 is_stmt 0 view .LVU375
 1232 01fa 1318     		adds	r3, r2, r0
 1233              		.loc 1 475 4 view .LVU376
 1234 01fc E268     		ldr	r2, [r4, #12]
 1235              	.LVL132:
 1236              		.loc 1 475 4 view .LVU377
 1237 01fe 9988     		ldrh	r1, [r3, #4]
 1238 0200 5888     		ldrh	r0, [r3, #2]
 1239              	.LVL133:
 1240              		.loc 1 475 4 view .LVU378
 1241 0202 4B00     		lsls	r3, r1, #1
 1242 0204 9BB2     		uxth	r3, r3
 1243 0206 02EB4002 		add	r2, r2, r0, lsl #1
 1244 020a C5F30B01 		ubfx	r1, r5, #0, #12
 1245 020e 2046     		mov	r0, r4
 1246 0210 FFF7FEFF 		bl	AsebaSendMessage
 1247              	.LVL134:
 1248              		.loc 1 478 4 is_stmt 1 view .LVU379
 1249              		.loc 1 478 11 is_stmt 0 view .LVU380
 1250 0214 638B     		ldrh	r3, [r4, #26]
 1251 0216 0333     		adds	r3, r3, #3
 1252 0218 6383     		strh	r3, [r4, #26]	@ movhi
 1253              	.LBE89:
 1254              		.loc 1 480 3 is_stmt 1 view .LVU381
ARM GAS  /tmp/cclXoGh5.s 			page 23


 1255 021a 33E7     		b	.L79
 1256              	.L84:
 1257              		.loc 1 486 4 view .LVU382
 1258 021c C5F30B01 		ubfx	r1, r5, #0, #12
 1259 0220 2046     		mov	r0, r4
 1260 0222 FFF7FEFF 		bl	AsebaNativeFunction
 1261              	.LVL135:
 1262              		.loc 1 489 4 view .LVU383
 1263              		.loc 1 489 11 is_stmt 0 view .LVU384
 1264 0226 638B     		ldrh	r3, [r4, #26]
 1265 0228 0133     		adds	r3, r3, #1
 1266 022a 6383     		strh	r3, [r4, #26]	@ movhi
 1267              		.loc 1 491 3 is_stmt 1 view .LVU385
 1268 022c 2AE7     		b	.L79
 1269              	.L83:
 1270              	.LBB90:
 1271              		.loc 1 496 4 view .LVU386
 1272              	.LVL136:
 1273              		.loc 1 505 4 view .LVU387
 1274              		.loc 1 505 14 is_stmt 0 view .LVU388
 1275 022e A38B     		ldrh	r3, [r4, #28]
 1276              		.loc 1 505 6 view .LVU389
 1277 0230 6269     		ldr	r2, [r4, #20]
 1278              		.loc 1 505 14 view .LVU390
 1279 0232 0133     		adds	r3, r3, #1
 1280 0234 1BB2     		sxth	r3, r3
 1281              		.loc 1 505 33 view .LVU391
 1282 0236 0131     		adds	r1, r1, #1
 1283              		.loc 1 496 11 view .LVU392
 1284 0238 C5F30B05 		ubfx	r5, r5, #0, #12
 1285              	.LVL137:
 1286              		.loc 1 505 24 view .LVU393
 1287 023c A383     		strh	r3, [r4, #28]	@ movhi
 1288              	.LVL138:
 1289              		.loc 1 505 24 view .LVU394
 1290 023e 22F81310 		strh	r1, [r2, r3, lsl #1]	@ movhi
 1291              		.loc 1 508 4 is_stmt 1 view .LVU395
 1292              		.loc 1 508 11 is_stmt 0 view .LVU396
 1293 0242 6583     		strh	r5, [r4, #26]	@ movhi
 1294              	.LBE90:
 1295              		.loc 1 510 3 is_stmt 1 view .LVU397
 1296 0244 1EE7     		b	.L79
 1297              	.LVL139:
 1298              	.L99:
 1299              	.LBB91:
 1300              		.loc 1 322 18 is_stmt 0 view .LVU398
 1301 0246 0344     		add	r3, r3, r0
 1302              		.loc 1 340 29 view .LVU399
 1303 0248 C5F30B05 		ubfx	r5, r5, #0, #12
 1304              	.LVL140:
 1305              		.loc 1 340 46 view .LVU400
 1306 024c E268     		ldr	r2, [r4, #12]
 1307              		.loc 1 322 18 view .LVU401
 1308 024e 33F9023C 		ldrsh	r3, [r3, #-2]
 1309              		.loc 1 340 4 is_stmt 1 view .LVU402
 1310              		.loc 1 340 17 is_stmt 0 view .LVU403
 1311 0252 2E44     		add	r6, r6, r5
ARM GAS  /tmp/cclXoGh5.s 			page 24


 1312              	.LVL141:
 1313              		.loc 1 340 46 view .LVU404
 1314 0254 22F81630 		strh	r3, [r2, r6, lsl #1]	@ movhi
 1315              	.LVL142:
 1316              		.loc 1 341 4 is_stmt 1 view .LVU405
 1317              		.loc 1 341 11 is_stmt 0 view .LVU406
 1318 0258 A28B     		ldrh	r2, [r4, #28]
 1319              		.loc 1 344 11 view .LVU407
 1320 025a 638B     		ldrh	r3, [r4, #26]
 1321              		.loc 1 341 11 view .LVU408
 1322 025c 023A     		subs	r2, r2, #2
 1323              		.loc 1 344 11 view .LVU409
 1324 025e 0233     		adds	r3, r3, #2
 1325              		.loc 1 341 11 view .LVU410
 1326 0260 A283     		strh	r2, [r4, #28]	@ movhi
 1327              		.loc 1 344 4 is_stmt 1 view .LVU411
 1328              		.loc 1 344 11 is_stmt 0 view .LVU412
 1329 0262 6383     		strh	r3, [r4, #26]	@ movhi
 1330              	.LBE91:
 1331              		.loc 1 346 3 is_stmt 1 view .LVU413
 1332 0264 0EE7     		b	.L79
 1333              	.LVL143:
 1334              	.L104:
 1335              	.LBB92:
 1336              		.loc 1 444 5 view .LVU414
 1337              		.loc 1 444 32 is_stmt 0 view .LVU415
 1338 0266 638B     		ldrh	r3, [r4, #26]
 1339              		.loc 1 444 22 view .LVU416
 1340 0268 6168     		ldr	r1, [r4, #4]
 1341              		.loc 1 444 32 view .LVU417
 1342 026a 0133     		adds	r3, r3, #1
 1343 026c 5A00     		lsls	r2, r3, #1
 1344              		.loc 1 451 5 view .LVU418
 1345 026e 023A     		subs	r2, r2, #2
 1346              		.loc 1 444 32 view .LVU419
 1347 0270 31F81330 		ldrh	r3, [r1, r3, lsl #1]
 1348              	.LVL144:
 1349              		.loc 1 448 4 is_stmt 1 view .LVU420
 1350              		.loc 1 451 5 view .LVU421
 1351 0274 885A     		ldrh	r0, [r1, r2]
 1352              	.LVL145:
 1353              		.loc 1 451 5 is_stmt 0 view .LVU422
 1354 0276 20F40070 		bic	r0, r0, #512
 1355 027a 8852     		strh	r0, [r1, r2]	@ movhi
 1356              	.LVL146:
 1357              	.L107:
 1358              		.loc 1 460 4 is_stmt 1 view .LVU423
 1359              		.loc 1 460 11 is_stmt 0 view .LVU424
 1360 027c 628B     		ldrh	r2, [r4, #26]
 1361 027e 1344     		add	r3, r3, r2
 1362 0280 6383     		strh	r3, [r4, #26]	@ movhi
 1363              	.LBE92:
 1364              		.loc 1 462 3 is_stmt 1 view .LVU425
 1365 0282 FFE6     		b	.L79
 1366              	.LVL147:
 1367              	.L121:
 1368              	.LBB93:
ARM GAS  /tmp/cclXoGh5.s 			page 25


 1369              	.LBB85:
 1370              	.LBB83:
 1371              		.loc 1 155 28 view .LVU426
 1372              		.loc 1 155 35 is_stmt 0 view .LVU427
 1373 0284 5B42     		rsbs	r3, r3, #0
 1374              	.LVL148:
 1375              		.loc 1 155 35 view .LVU428
 1376 0286 1BB2     		sxth	r3, r3
 1377              	.LVL149:
 1378              		.loc 1 155 35 view .LVU429
 1379 0288 71E7     		b	.L103
 1380              	.LVL150:
 1381              	.L102:
 1382              		.loc 1 157 32 is_stmt 1 view .LVU430
 1383              		.loc 1 157 39 is_stmt 0 view .LVU431
 1384 028a DB43     		mvns	r3, r3
 1385              	.LVL151:
 1386              		.loc 1 157 39 view .LVU432
 1387 028c 6FE7     		b	.L103
 1388              	.LVL152:
 1389              	.L101:
 1390              		.loc 1 156 28 is_stmt 1 view .LVU433
 1391              		.loc 1 156 54 is_stmt 0 view .LVU434
 1392 028e 002B     		cmp	r3, #0
 1393 0290 B8BF     		it	lt
 1394 0292 5B42     		rsblt	r3, r3, #0
 1395              	.LVL153:
 1396              		.loc 1 156 54 view .LVU435
 1397 0294 1BB2     		sxth	r3, r3
 1398 0296 6AE7     		b	.L103
 1399              	.LVL154:
 1400              	.L105:
 1401              		.loc 1 156 54 view .LVU436
 1402              	.LBE83:
 1403              	.LBE85:
 1404              	.LBE93:
 1405              	.LBB94:
 1406              		.loc 1 444 5 is_stmt 1 view .LVU437
 1407              		.loc 1 444 32 is_stmt 0 view .LVU438
 1408 0298 608B     		ldrh	r0, [r4, #26]
 1409              	.LVL155:
 1410              		.loc 1 444 22 view .LVU439
 1411 029a 6168     		ldr	r1, [r4, #4]
 1412              		.loc 1 444 32 view .LVU440
 1413 029c 431C     		adds	r3, r0, #1
 1414 029e 31F81330 		ldrh	r3, [r1, r3, lsl #1]
 1415              	.LVL156:
 1416              		.loc 1 448 4 is_stmt 1 view .LVU441
 1417 02a2 A3E7     		b	.L106
 1418              	.LVL157:
 1419              	.L120:
 1420              		.loc 1 448 4 is_stmt 0 view .LVU442
 1421              	.LBE94:
 1422              		.loc 1 532 1 view .LVU443
 1423 02a4 FFF7FEFF 		bl	__stack_chk_fail
 1424              	.LVL158:
 1425              	.L123:
ARM GAS  /tmp/cclXoGh5.s 			page 26


 1426              		.align	2
 1427              	.L122:
 1428 02a8 00000000 		.word	.LC4
 1429 02ac 00000000 		.word	AsebaVMErrorCB
 1430              		.cfi_endproc
 1431              	.LFE5:
 1432              		.size	AsebaVMStep, .-AsebaVMStep
 1433              		.section	.rodata.AsebaVMEmitNodeSpecificError.cst4,"aM",%progbits,4
 1434              		.align	2
 1435              	.LC5:
 1436 0000 00000000 		.word	__stack_chk_guard
 1437              		.section	.text.AsebaVMEmitNodeSpecificError,"ax",%progbits
 1438              		.align	1
 1439              		.p2align 4,,15
 1440              		.global	AsebaVMEmitNodeSpecificError
 1441              		.syntax unified
 1442              		.thumb
 1443              		.thumb_func
 1444              		.fpu fpv4-sp-d16
 1445              		.type	AsebaVMEmitNodeSpecificError, %function
 1446              	AsebaVMEmitNodeSpecificError:
 1447              	.LVL159:
 1448              	.LFB6:
 1449              		.loc 1 535 1 is_stmt 1 view -0
 1450              		.cfi_startproc
 1451              		@ args = 0, pretend = 0, frame = 16
 1452              		@ frame_needed = 1, uses_anonymous_args = 0
 1453              		.loc 1 535 1 is_stmt 0 view .LVU445
 1454 0000 2DE9F043 		push	{r4, r5, r6, r7, r8, r9, lr}
 1455              		.cfi_def_cfa_offset 28
 1456              		.cfi_offset 4, -28
 1457              		.cfi_offset 5, -24
 1458              		.cfi_offset 6, -20
 1459              		.cfi_offset 7, -16
 1460              		.cfi_offset 8, -12
 1461              		.cfi_offset 9, -8
 1462              		.cfi_offset 14, -4
 1463 0004 85B0     		sub	sp, sp, #20
 1464              		.cfi_def_cfa_offset 48
 1465 0006 00AF     		add	r7, sp, #0
 1466              		.cfi_def_cfa_register 7
 1467              		.loc 1 535 1 view .LVU446
 1468 0008 1C4B     		ldr	r3, .L132
 1469              		.loc 1 536 18 view .LVU447
 1470 000a 7960     		str	r1, [r7, #4]
 1471              		.loc 1 535 1 view .LVU448
 1472 000c 0446     		mov	r4, r0
 1473              		.loc 1 536 18 view .LVU449
 1474 000e 0846     		mov	r0, r1
 1475              	.LVL160:
 1476              		.loc 1 535 1 view .LVU450
 1477 0010 1B68     		ldr	r3, [r3]
 1478 0012 FB60     		str	r3, [r7, #12]
 1479 0014 4FF00003 		mov	r3,#0
 1480              		.loc 1 536 2 is_stmt 1 view .LVU451
 1481              		.loc 1 536 18 is_stmt 0 view .LVU452
 1482 0018 FFF7FEFF 		bl	strlen
ARM GAS  /tmp/cclXoGh5.s 			page 27


 1483              	.LVL161:
 1484              		.loc 1 536 18 view .LVU453
 1485 001c 1FFA80F9 		uxth	r9, r0
 1486              		.loc 1 538 8 view .LVU454
 1487 0020 09F10A03 		add	r3, r9, #10
 1488 0024 6946     		mov	r1, sp
 1489 0026 DB08     		lsrs	r3, r3, #3
 1490 0028 A1EBC303 		sub	r3, r1, r3, lsl #3
 1491              		.loc 1 545 5 view .LVU455
 1492 002c 144A     		ldr	r2, .L132+4
 1493 002e 7968     		ldr	r1, [r7, #4]
 1494              		.loc 1 538 8 view .LVU456
 1495 0030 9D46     		mov	sp, r3
 1496              	.LVL162:
 1497              		.loc 1 536 18 view .LVU457
 1498 0032 0546     		mov	r5, r0
 1499              		.loc 1 538 8 view .LVU458
 1500 0034 6E46     		mov	r6, sp
 1501              		.loc 1 536 9 view .LVU459
 1502 0036 C846     		mov	r8, r9
 1503              	.LVL163:
 1504              		.loc 1 538 2 is_stmt 1 view .LVU460
 1505              		.loc 1 545 2 view .LVU461
 1506              		.loc 1 545 5 is_stmt 0 view .LVU462
 1507 0038 1AB1     		cbz	r2, .L125
 1508              		.loc 1 546 3 is_stmt 1 view .LVU463
 1509 003a 2046     		mov	r0, r4
 1510 003c FFF7FEFF 		bl	AsebaVMErrorCB
 1511              	.LVL164:
 1512              		.loc 1 546 3 is_stmt 0 view .LVU464
 1513 0040 7968     		ldr	r1, [r7, #4]
 1514              	.L125:
 1515              		.loc 1 548 2 is_stmt 1 view .LVU465
 1516              		.loc 1 551 14 is_stmt 0 view .LVU466
 1517 0042 B570     		strb	r5, [r6, #2]
 1518              		.loc 1 548 12 view .LVU467
 1519 0044 0223     		movs	r3, #2
 1520 0046 2383     		strh	r3, [r4, #24]	@ movhi
 1521              		.loc 1 550 2 is_stmt 1 view .LVU468
 1522              		.loc 1 550 23 is_stmt 0 view .LVU469
 1523 0048 638B     		ldrh	r3, [r4, #26]
 1524 004a 3380     		strh	r3, [r6]	@ movhi
 1525              		.loc 1 551 2 is_stmt 1 view .LVU470
 1526              		.loc 1 552 2 view .LVU471
 1527 004c 4A46     		mov	r2, r9
 1528 004e F01C     		adds	r0, r6, #3
 1529 0050 FFF7FEFF 		bl	memcpy
 1530              	.LVL165:
 1531              		.loc 1 554 2 view .LVU472
 1532 0054 08F10303 		add	r3, r8, #3
 1533 0058 9BB2     		uxth	r3, r3
 1534 005a 3246     		mov	r2, r6
 1535 005c 2046     		mov	r0, r4
 1536 005e 49F20901 		movw	r1, #36873
 1537 0062 FFF7FEFF 		bl	AsebaSendMessage
 1538              	.LVL166:
 1539              		.loc 1 555 1 is_stmt 0 view .LVU473
ARM GAS  /tmp/cclXoGh5.s 			page 28


 1540 0066 054B     		ldr	r3, .L132
 1541 0068 1A68     		ldr	r2, [r3]
 1542 006a FB68     		ldr	r3, [r7, #12]
 1543 006c 5A40     		eors	r2, r3, r2
 1544 006e 03D1     		bne	.L131
 1545 0070 1437     		adds	r7, r7, #20
 1546              		.cfi_remember_state
 1547              		.cfi_def_cfa_offset 28
 1548              	.LVL167:
 1549              		.loc 1 555 1 view .LVU474
 1550 0072 BD46     		mov	sp, r7
 1551              		.cfi_def_cfa_register 13
 1552              		@ sp needed
 1553 0074 BDE8F083 		pop	{r4, r5, r6, r7, r8, r9, pc}
 1554              	.LVL168:
 1555              	.L131:
 1556              		.cfi_restore_state
 1557              		.loc 1 555 1 view .LVU475
 1558 0078 FFF7FEFF 		bl	__stack_chk_fail
 1559              	.LVL169:
 1560              	.L133:
 1561              		.align	2
 1562              	.L132:
 1563 007c 00000000 		.word	.LC5
 1564 0080 00000000 		.word	AsebaVMErrorCB
 1565              		.cfi_endproc
 1566              	.LFE6:
 1567              		.size	AsebaVMEmitNodeSpecificError, .-AsebaVMEmitNodeSpecificError
 1568              		.section	.rodata.AsebaVMCheckBreakpoint.cst4,"aM",%progbits,4
 1569              		.align	2
 1570              	.LC6:
 1571 0000 00000000 		.word	__stack_chk_guard
 1572              		.section	.text.AsebaVMCheckBreakpoint,"ax",%progbits
 1573              		.align	1
 1574              		.p2align 4,,15
 1575              		.global	AsebaVMCheckBreakpoint
 1576              		.syntax unified
 1577              		.thumb
 1578              		.thumb_func
 1579              		.fpu fpv4-sp-d16
 1580              		.type	AsebaVMCheckBreakpoint, %function
 1581              	AsebaVMCheckBreakpoint:
 1582              	.LVL170:
 1583              	.LFB7:
 1584              		.loc 1 561 1 is_stmt 1 view -0
 1585              		.cfi_startproc
 1586              		@ args = 0, pretend = 0, frame = 8
 1587              		@ frame_needed = 0, uses_anonymous_args = 0
 1588              		.loc 1 561 1 is_stmt 0 view .LVU477
 1589 0000 30B5     		push	{r4, r5, lr}
 1590              		.cfi_def_cfa_offset 12
 1591              		.cfi_offset 4, -12
 1592              		.cfi_offset 5, -8
 1593              		.cfi_offset 14, -4
 1594 0002 144B     		ldr	r3, .L146
 1595 0004 0546     		mov	r5, r0
 1596              		.loc 1 563 20 view .LVU478
ARM GAS  /tmp/cclXoGh5.s 			page 29


 1597 0006 C08F     		ldrh	r0, [r0, #62]
 1598              	.LVL171:
 1599              		.loc 1 561 1 view .LVU479
 1600 0008 83B0     		sub	sp, sp, #12
 1601              		.cfi_def_cfa_offset 24
 1602              		.loc 1 561 1 view .LVU480
 1603 000a 1B68     		ldr	r3, [r3]
 1604 000c 0193     		str	r3, [sp, #4]
 1605 000e 4FF00003 		mov	r3,#0
 1606              		.loc 1 562 2 is_stmt 1 view .LVU481
 1607              		.loc 1 563 2 view .LVU482
 1608              	.LVL172:
 1609              		.loc 1 563 14 view .LVU483
 1610              		.loc 1 563 2 is_stmt 0 view .LVU484
 1611 0012 A0B1     		cbz	r0, .L135
 1612 0014 411E     		subs	r1, r0, #1
 1613 0016 8BB2     		uxth	r3, r1
 1614 0018 05F11E01 		add	r1, r5, #30
 1615 001c 01EB4301 		add	r1, r1, r3, lsl #1
 1616              		.loc 1 565 31 view .LVU485
 1617 0020 6C8B     		ldrh	r4, [r5, #26]
 1618 0022 05F11C03 		add	r3, r5, #28
 1619 0026 01E0     		b	.L137
 1620              	.LVL173:
 1621              	.L136:
 1622              		.loc 1 563 40 is_stmt 1 discriminator 2 view .LVU486
 1623              		.loc 1 563 14 discriminator 2 view .LVU487
 1624              		.loc 1 563 2 is_stmt 0 discriminator 2 view .LVU488
 1625 0028 8B42     		cmp	r3, r1
 1626 002a 0FD0     		beq	.L144
 1627              	.L137:
 1628              		.loc 1 565 3 is_stmt 1 view .LVU489
 1629              		.loc 1 565 6 is_stmt 0 view .LVU490
 1630 002c 33F8022F 		ldrh	r2, [r3, #2]!
 1631 0030 A242     		cmp	r2, r4
 1632 0032 F9D1     		bne	.L136
 1633              		.loc 1 567 4 is_stmt 1 view .LVU491
 1634 0034 2B8B     		ldrh	r3, [r5, #24]
 1635 0036 43F00203 		orr	r3, r3, #2
 1636 003a 2B83     		strh	r3, [r5, #24]	@ movhi
 1637              		.loc 1 568 4 view .LVU492
 1638              		.loc 1 568 11 is_stmt 0 view .LVU493
 1639 003c 0120     		movs	r0, #1
 1640              	.L135:
 1641              		.loc 1 573 1 view .LVU494
 1642 003e 054B     		ldr	r3, .L146
 1643 0040 1A68     		ldr	r2, [r3]
 1644 0042 019B     		ldr	r3, [sp, #4]
 1645 0044 5A40     		eors	r2, r3, r2
 1646 0046 03D1     		bne	.L145
 1647 0048 03B0     		add	sp, sp, #12
 1648              		.cfi_remember_state
 1649              		.cfi_def_cfa_offset 12
 1650              		@ sp needed
 1651 004a 30BD     		pop	{r4, r5, pc}
 1652              	.LVL174:
 1653              	.L144:
ARM GAS  /tmp/cclXoGh5.s 			page 30


 1654              		.cfi_restore_state
 1655              		.loc 1 572 9 view .LVU495
 1656 004c 0020     		movs	r0, #0
 1657 004e F6E7     		b	.L135
 1658              	.L145:
 1659              		.loc 1 573 1 view .LVU496
 1660 0050 FFF7FEFF 		bl	__stack_chk_fail
 1661              	.LVL175:
 1662              	.L147:
 1663              		.align	2
 1664              	.L146:
 1665 0054 00000000 		.word	.LC6
 1666              		.cfi_endproc
 1667              	.LFE7:
 1668              		.size	AsebaVMCheckBreakpoint, .-AsebaVMCheckBreakpoint
 1669              		.section	.rodata.AsebaDebugBareRun.cst4,"aM",%progbits,4
 1670              		.align	2
 1671              	.LC7:
 1672 0000 00000000 		.word	__stack_chk_guard
 1673              		.section	.text.AsebaDebugBareRun,"ax",%progbits
 1674              		.align	1
 1675              		.p2align 4,,15
 1676              		.global	AsebaDebugBareRun
 1677              		.syntax unified
 1678              		.thumb
 1679              		.thumb_func
 1680              		.fpu fpv4-sp-d16
 1681              		.type	AsebaDebugBareRun, %function
 1682              	AsebaDebugBareRun:
 1683              	.LVL176:
 1684              	.LFB8:
 1685              		.loc 1 578 1 is_stmt 1 view -0
 1686              		.cfi_startproc
 1687              		@ args = 0, pretend = 0, frame = 8
 1688              		@ frame_needed = 0, uses_anonymous_args = 0
 1689              		.loc 1 578 1 is_stmt 0 view .LVU498
 1690 0000 30B5     		push	{r4, r5, lr}
 1691              		.cfi_def_cfa_offset 12
 1692              		.cfi_offset 4, -12
 1693              		.cfi_offset 5, -8
 1694              		.cfi_offset 14, -4
 1695 0002 1D4B     		ldr	r3, .L162
 1696              		.loc 1 579 2 view .LVU499
 1697 0004 028B     		ldrh	r2, [r0, #24]
 1698              		.loc 1 578 1 view .LVU500
 1699 0006 83B0     		sub	sp, sp, #12
 1700              		.cfi_def_cfa_offset 24
 1701              		.loc 1 578 1 view .LVU501
 1702 0008 1B68     		ldr	r3, [r3]
 1703 000a 0193     		str	r3, [sp, #4]
 1704 000c 4FF00003 		mov	r3,#0
 1705              		.loc 1 579 2 is_stmt 1 view .LVU502
 1706 0010 42F00403 		orr	r3, r2, #4
 1707              		.loc 1 578 1 is_stmt 0 view .LVU503
 1708 0014 0546     		mov	r5, r0
 1709              		.loc 1 579 2 view .LVU504
 1710 0016 0383     		strh	r3, [r0, #24]	@ movhi
ARM GAS  /tmp/cclXoGh5.s 			page 31


 1711              		.loc 1 581 2 is_stmt 1 view .LVU505
 1712              		.loc 1 581 5 is_stmt 0 view .LVU506
 1713 0018 B9B9     		cbnz	r1, .L149
 1714              		.loc 1 597 9 is_stmt 1 view .LVU507
 1715 001a 02F00502 		and	r2, r2, #5
 1716 001e 42F00402 		orr	r2, r2, #4
 1717 0022 052A     		cmp	r2, #5
 1718 0024 07D1     		bne	.L151
 1719              	.LVL177:
 1720              	.L150:
 1721              		.loc 1 600 4 view .LVU508
 1722 0026 2846     		mov	r0, r5
 1723 0028 FFF7FEFF 		bl	AsebaVMStep
 1724              	.LVL178:
 1725              		.loc 1 597 9 view .LVU509
 1726              		.loc 1 597 10 is_stmt 0 view .LVU510
 1727 002c 2B8B     		ldrh	r3, [r5, #24]
 1728              		.loc 1 597 9 view .LVU511
 1729 002e 03F00502 		and	r2, r3, #5
 1730 0032 052A     		cmp	r2, #5
 1731 0034 F7D0     		beq	.L150
 1732              	.LVL179:
 1733              	.L151:
 1734              		.loc 1 603 2 is_stmt 1 view .LVU512
 1735 0036 23F00403 		bic	r3, r3, #4
 1736 003a 2B83     		strh	r3, [r5, #24]	@ movhi
 1737              		.loc 1 604 1 is_stmt 0 view .LVU513
 1738 003c 0E4B     		ldr	r3, .L162
 1739 003e 1A68     		ldr	r2, [r3]
 1740 0040 019B     		ldr	r3, [sp, #4]
 1741 0042 5A40     		eors	r2, r3, r2
 1742 0044 16D1     		bne	.L160
 1743 0046 03B0     		add	sp, sp, #12
 1744              		.cfi_remember_state
 1745              		.cfi_def_cfa_offset 12
 1746              		@ sp needed
 1747 0048 30BD     		pop	{r4, r5, pc}
 1748              	.LVL180:
 1749              	.L149:
 1750              		.cfi_restore_state
 1751              		.loc 1 584 9 view .LVU514
 1752 004a 02F00502 		and	r2, r2, #5
 1753 004e 42F00402 		orr	r2, r2, #4
 1754 0052 052A     		cmp	r2, #5
 1755 0054 0C46     		mov	r4, r1
 1756              	.LVL181:
 1757              		.loc 1 584 9 is_stmt 1 view .LVU515
 1758 0056 02D0     		beq	.L152
 1759 0058 EDE7     		b	.L151
 1760              	.LVL182:
 1761              	.L161:
 1762              		.loc 1 585 59 is_stmt 0 view .LVU516
 1763 005a 002C     		cmp	r4, #0
 1764 005c EBD0     		beq	.L151
 1765              	.L152:
 1766              		.loc 1 589 4 is_stmt 1 view .LVU517
 1767 005e 2846     		mov	r0, r5
ARM GAS  /tmp/cclXoGh5.s 			page 32


 1768 0060 FFF7FEFF 		bl	AsebaVMStep
 1769              	.LVL183:
 1770              		.loc 1 590 4 view .LVU518
 1771              		.loc 1 584 10 is_stmt 0 view .LVU519
 1772 0064 2B8B     		ldrh	r3, [r5, #24]
 1773              		.loc 1 584 9 view .LVU520
 1774 0066 03F00502 		and	r2, r3, #5
 1775              		.loc 1 590 14 view .LVU521
 1776 006a 013C     		subs	r4, r4, #1
 1777              	.LVL184:
 1778              		.loc 1 584 9 view .LVU522
 1779 006c 052A     		cmp	r2, #5
 1780              		.loc 1 590 14 view .LVU523
 1781 006e A4B2     		uxth	r4, r4
 1782              	.LVL185:
 1783              		.loc 1 584 9 is_stmt 1 view .LVU524
 1784 0070 F3D0     		beq	.L161
 1785 0072 E0E7     		b	.L151
 1786              	.LVL186:
 1787              	.L160:
 1788              		.loc 1 604 1 is_stmt 0 view .LVU525
 1789 0074 FFF7FEFF 		bl	__stack_chk_fail
 1790              	.LVL187:
 1791              	.L163:
 1792              		.align	2
 1793              	.L162:
 1794 0078 00000000 		.word	.LC7
 1795              		.cfi_endproc
 1796              	.LFE8:
 1797              		.size	AsebaDebugBareRun, .-AsebaDebugBareRun
 1798              		.section	.rodata.AsebaDebugBreakpointRun.cst4,"aM",%progbits,4
 1799              		.align	2
 1800              	.LC8:
 1801 0000 00000000 		.word	__stack_chk_guard
 1802              		.section	.text.AsebaDebugBreakpointRun,"ax",%progbits
 1803              		.align	1
 1804              		.p2align 4,,15
 1805              		.global	AsebaDebugBreakpointRun
 1806              		.syntax unified
 1807              		.thumb
 1808              		.thumb_func
 1809              		.fpu fpv4-sp-d16
 1810              		.type	AsebaDebugBreakpointRun, %function
 1811              	AsebaDebugBreakpointRun:
 1812              	.LVL188:
 1813              	.LFB9:
 1814              		.loc 1 609 1 is_stmt 1 view -0
 1815              		.cfi_startproc
 1816              		@ args = 0, pretend = 0, frame = 8
 1817              		@ frame_needed = 0, uses_anonymous_args = 0
 1818              		.loc 1 609 1 is_stmt 0 view .LVU527
 1819 0000 2DE9F041 		push	{r4, r5, r6, r7, r8, lr}
 1820              		.cfi_def_cfa_offset 24
 1821              		.cfi_offset 4, -24
 1822              		.cfi_offset 5, -20
 1823              		.cfi_offset 6, -16
 1824              		.cfi_offset 7, -12
ARM GAS  /tmp/cclXoGh5.s 			page 33


 1825              		.cfi_offset 8, -8
 1826              		.cfi_offset 14, -4
 1827              		.loc 1 610 2 view .LVU528
 1828 0004 038B     		ldrh	r3, [r0, #24]
 1829              		.loc 1 609 1 view .LVU529
 1830 0006 354A     		ldr	r2, .L189
 1831              		.loc 1 610 2 view .LVU530
 1832 0008 43F00405 		orr	r5, r3, #4
 1833              		.loc 1 609 1 view .LVU531
 1834 000c 82B0     		sub	sp, sp, #8
 1835              		.cfi_def_cfa_offset 32
 1836              		.loc 1 615 9 view .LVU532
 1837 000e 03F00503 		and	r3, r3, #5
 1838              		.loc 1 609 1 view .LVU533
 1839 0012 1268     		ldr	r2, [r2]
 1840 0014 0192     		str	r2, [sp, #4]
 1841 0016 4FF00002 		mov	r2,#0
 1842              		.loc 1 610 2 is_stmt 1 view .LVU534
 1843              		.loc 1 609 1 is_stmt 0 view .LVU535
 1844 001a 0446     		mov	r4, r0
 1845              		.loc 1 610 2 view .LVU536
 1846 001c 0583     		strh	r5, [r0, #24]	@ movhi
 1847              		.loc 1 612 2 is_stmt 1 view .LVU537
 1848              		.loc 1 615 9 is_stmt 0 view .LVU538
 1849 001e 43F00403 		orr	r3, r3, #4
 1850              		.loc 1 612 5 view .LVU539
 1851 0022 51BB     		cbnz	r1, .L165
 1852              		.loc 1 634 9 is_stmt 1 view .LVU540
 1853 0024 052B     		cmp	r3, #5
 1854 0026 46D1     		bne	.L167
 1855 0028 00F11E07 		add	r7, r0, #30
 1856              	.LVL189:
 1857              	.L166:
 1858              	.LBB95:
 1859              	.LBB96:
 1860              		.loc 1 563 14 view .LVU541
 1861              		.loc 1 563 20 is_stmt 0 view .LVU542
 1862 002c E18F     		ldrh	r1, [r4, #62]
 1863              		.loc 1 563 2 view .LVU543
 1864 002e 0029     		cmp	r1, #0
 1865 0030 39D0     		beq	.L177
 1866 0032 0139     		subs	r1, r1, #1
 1867 0034 89B2     		uxth	r1, r1
 1868              		.loc 1 565 31 view .LVU544
 1869 0036 668B     		ldrh	r6, [r4, #26]
 1870 0038 07EB4101 		add	r1, r7, r1, lsl #1
 1871 003c 04F11C03 		add	r3, r4, #28
 1872 0040 01E0     		b	.L175
 1873              	.LVL190:
 1874              	.L174:
 1875              		.loc 1 563 40 is_stmt 1 view .LVU545
 1876              		.loc 1 563 14 view .LVU546
 1877              		.loc 1 563 2 is_stmt 0 view .LVU547
 1878 0042 8B42     		cmp	r3, r1
 1879 0044 2FD0     		beq	.L177
 1880              	.L175:
 1881              		.loc 1 565 3 is_stmt 1 view .LVU548
ARM GAS  /tmp/cclXoGh5.s 			page 34


 1882              		.loc 1 565 6 is_stmt 0 view .LVU549
 1883 0046 33F8022F 		ldrh	r2, [r3, #2]!
 1884 004a B242     		cmp	r2, r6
 1885 004c F9D1     		bne	.L174
 1886              	.LVL191:
 1887              	.L187:
 1888              		.loc 1 567 4 is_stmt 1 view .LVU550
 1889 004e 45F00205 		orr	r5, r5, #2
 1890 0052 2583     		strh	r5, [r4, #24]	@ movhi
 1891              		.loc 1 568 4 view .LVU551
 1892              	.LBE96:
 1893              	.LBE95:
 1894              		.loc 1 640 5 view .LVU552
 1895              		.loc 1 641 5 view .LVU553
 1896              	.LVL192:
 1897              	.LBB97:
 1898              	.LBI97:
 1899              		.loc 1 714 6 view .LVU554
 1900              	.LBB98:
 1901              		.loc 1 716 2 view .LVU555
 1902              		.loc 1 717 2 view .LVU556
 1903              		.loc 1 719 2 is_stmt 0 view .LVU557
 1904 0054 2046     		mov	r0, r4
 1905 0056 0423     		movs	r3, #4
 1906 0058 6A46     		mov	r2, sp
 1907 005a 49F20A01 		movw	r1, #36874
 1908              		.loc 1 718 12 view .LVU558
 1909 005e ADF80250 		strh	r5, [sp, #2]	@ movhi
 1910              		.loc 1 717 12 view .LVU559
 1911 0062 ADF80060 		strh	r6, [sp]	@ movhi
 1912              		.loc 1 718 2 is_stmt 1 view .LVU560
 1913              		.loc 1 719 2 view .LVU561
 1914 0066 FFF7FEFF 		bl	AsebaSendMessage
 1915              	.LVL193:
 1916              		.loc 1 719 2 is_stmt 0 view .LVU562
 1917              	.LBE98:
 1918              	.LBE97:
 1919              		.loc 1 642 5 is_stmt 1 view .LVU563
 1920              	.L164:
 1921              		.loc 1 649 1 is_stmt 0 view .LVU564
 1922 006a 1C4B     		ldr	r3, .L189
 1923 006c 1A68     		ldr	r2, [r3]
 1924 006e 019B     		ldr	r3, [sp, #4]
 1925 0070 5A40     		eors	r2, r3, r2
 1926 0072 31D1     		bne	.L188
 1927 0074 02B0     		add	sp, sp, #8
 1928              		.cfi_remember_state
 1929              		.cfi_def_cfa_offset 24
 1930              		@ sp needed
 1931 0076 BDE8F081 		pop	{r4, r5, r6, r7, r8, pc}
 1932              	.LVL194:
 1933              	.L165:
 1934              		.cfi_restore_state
 1935              		.loc 1 615 9 is_stmt 1 view .LVU565
 1936 007a 052B     		cmp	r3, #5
 1937 007c 1BD1     		bne	.L167
 1938 007e 0F46     		mov	r7, r1
ARM GAS  /tmp/cclXoGh5.s 			page 35


 1939 0080 00F11E08 		add	r8, r0, #30
 1940              	.LVL195:
 1941              	.L168:
 1942              	.LBB99:
 1943              	.LBB100:
 1944              		.loc 1 563 14 view .LVU566
 1945              		.loc 1 563 20 is_stmt 0 view .LVU567
 1946 0084 E08F     		ldrh	r0, [r4, #62]
 1947              		.loc 1 563 2 view .LVU568
 1948 0086 D0B1     		cbz	r0, .L173
 1949 0088 0138     		subs	r0, r0, #1
 1950 008a 80B2     		uxth	r0, r0
 1951              		.loc 1 565 31 view .LVU569
 1952 008c 668B     		ldrh	r6, [r4, #26]
 1953 008e 08EB4000 		add	r0, r8, r0, lsl #1
 1954 0092 04F11C03 		add	r3, r4, #28
 1955 0096 01E0     		b	.L171
 1956              	.LVL196:
 1957              	.L169:
 1958              		.loc 1 563 40 is_stmt 1 view .LVU570
 1959              		.loc 1 563 14 view .LVU571
 1960              		.loc 1 563 2 is_stmt 0 view .LVU572
 1961 0098 8342     		cmp	r3, r0
 1962 009a 10D0     		beq	.L173
 1963              	.L171:
 1964              		.loc 1 565 3 is_stmt 1 view .LVU573
 1965              		.loc 1 565 6 is_stmt 0 view .LVU574
 1966 009c 33F8022F 		ldrh	r2, [r3, #2]!
 1967 00a0 B242     		cmp	r2, r6
 1968 00a2 F9D1     		bne	.L169
 1969 00a4 D3E7     		b	.L187
 1970              	.LVL197:
 1971              	.L177:
 1972              		.loc 1 565 6 view .LVU575
 1973              	.LBE100:
 1974              	.LBE99:
 1975              		.loc 1 644 4 is_stmt 1 view .LVU576
 1976 00a6 2046     		mov	r0, r4
 1977 00a8 FFF7FEFF 		bl	AsebaVMStep
 1978              	.LVL198:
 1979              		.loc 1 634 9 view .LVU577
 1980              		.loc 1 634 10 is_stmt 0 view .LVU578
 1981 00ac 258B     		ldrh	r5, [r4, #24]
 1982              		.loc 1 634 9 view .LVU579
 1983 00ae 05F00503 		and	r3, r5, #5
 1984 00b2 052B     		cmp	r3, #5
 1985 00b4 BAD0     		beq	.L166
 1986              	.LVL199:
 1987              	.L167:
 1988              		.loc 1 648 2 is_stmt 1 view .LVU580
 1989 00b6 25F00405 		bic	r5, r5, #4
 1990 00ba 2583     		strh	r5, [r4, #24]	@ movhi
 1991 00bc D5E7     		b	.L164
 1992              	.LVL200:
 1993              	.L173:
 1994              		.loc 1 626 4 view .LVU581
 1995 00be 2046     		mov	r0, r4
ARM GAS  /tmp/cclXoGh5.s 			page 36


 1996 00c0 FFF7FEFF 		bl	AsebaVMStep
 1997              	.LVL201:
 1998              		.loc 1 627 4 view .LVU582
 1999              		.loc 1 615 10 is_stmt 0 view .LVU583
 2000 00c4 258B     		ldrh	r5, [r4, #24]
 2001              		.loc 1 615 9 view .LVU584
 2002 00c6 05F00503 		and	r3, r5, #5
 2003              		.loc 1 627 14 view .LVU585
 2004 00ca 013F     		subs	r7, r7, #1
 2005              	.LVL202:
 2006              		.loc 1 615 9 view .LVU586
 2007 00cc 052B     		cmp	r3, #5
 2008              		.loc 1 627 14 view .LVU587
 2009 00ce BFB2     		uxth	r7, r7
 2010              	.LVL203:
 2011              		.loc 1 615 9 is_stmt 1 view .LVU588
 2012 00d0 F1D1     		bne	.L167
 2013              		.loc 1 616 59 is_stmt 0 view .LVU589
 2014 00d2 002F     		cmp	r7, #0
 2015 00d4 D6D1     		bne	.L168
 2016 00d6 EEE7     		b	.L167
 2017              	.LVL204:
 2018              	.L188:
 2019              		.loc 1 649 1 view .LVU590
 2020 00d8 FFF7FEFF 		bl	__stack_chk_fail
 2021              	.LVL205:
 2022              	.L190:
 2023              		.align	2
 2024              	.L189:
 2025 00dc 00000000 		.word	.LC8
 2026              		.cfi_endproc
 2027              	.LFE9:
 2028              		.size	AsebaDebugBreakpointRun, .-AsebaDebugBreakpointRun
 2029              		.section	.rodata.AsebaVMRun.cst4,"aM",%progbits,4
 2030              		.align	2
 2031              	.LC9:
 2032 0000 00000000 		.word	__stack_chk_guard
 2033              		.section	.text.AsebaVMRun,"ax",%progbits
 2034              		.align	1
 2035              		.p2align 4,,15
 2036              		.global	AsebaVMRun
 2037              		.syntax unified
 2038              		.thumb
 2039              		.thumb_func
 2040              		.fpu fpv4-sp-d16
 2041              		.type	AsebaVMRun, %function
 2042              	AsebaVMRun:
 2043              	.LVL206:
 2044              	.LFB10:
 2045              		.loc 1 652 1 is_stmt 1 view -0
 2046              		.cfi_startproc
 2047              		@ args = 0, pretend = 0, frame = 8
 2048              		@ frame_needed = 0, uses_anonymous_args = 0
 2049              		.loc 1 652 1 is_stmt 0 view .LVU592
 2050 0000 10B5     		push	{r4, lr}
 2051              		.cfi_def_cfa_offset 8
 2052              		.cfi_offset 4, -8
ARM GAS  /tmp/cclXoGh5.s 			page 37


 2053              		.cfi_offset 14, -4
 2054 0002 0F4A     		ldr	r2, .L201
 2055 0004 82B0     		sub	sp, sp, #8
 2056              		.cfi_def_cfa_offset 16
 2057              		.loc 1 652 1 view .LVU593
 2058 0006 1268     		ldr	r2, [r2]
 2059 0008 0192     		str	r2, [sp, #4]
 2060 000a 4FF00002 		mov	r2,#0
 2061              		.loc 1 654 2 is_stmt 1 view .LVU594
 2062              		.loc 1 654 6 is_stmt 0 view .LVU595
 2063 000e 028B     		ldrh	r2, [r0, #24]
 2064              		.loc 1 654 5 view .LVU596
 2065 0010 12F00104 		ands	r4, r2, #1
 2066 0014 05D0     		beq	.L192
 2067              		.loc 1 658 2 is_stmt 1 view .LVU597
 2068              		.loc 1 658 5 is_stmt 0 view .LVU598
 2069 0016 9307     		lsls	r3, r2, #30
 2070 0018 0BD4     		bmi	.L195
 2071              		.loc 1 662 2 is_stmt 1 view .LVU599
 2072              		.loc 1 662 5 is_stmt 0 view .LVU600
 2073 001a C38F     		ldrh	r3, [r0, #62]
 2074 001c 5BB1     		cbz	r3, .L193
 2075              		.loc 1 663 3 is_stmt 1 view .LVU601
 2076 001e FFF7FEFF 		bl	AsebaDebugBreakpointRun
 2077              	.LVL207:
 2078              	.L192:
 2079              		.loc 1 668 1 is_stmt 0 view .LVU602
 2080 0022 074B     		ldr	r3, .L201
 2081 0024 1A68     		ldr	r2, [r3]
 2082 0026 019B     		ldr	r3, [sp, #4]
 2083 0028 5A40     		eors	r2, r3, r2
 2084 002a 07D1     		bne	.L200
 2085 002c 2046     		mov	r0, r4
 2086 002e 02B0     		add	sp, sp, #8
 2087              		.cfi_remember_state
 2088              		.cfi_def_cfa_offset 8
 2089              		@ sp needed
 2090 0030 10BD     		pop	{r4, pc}
 2091              	.LVL208:
 2092              	.L195:
 2093              		.cfi_restore_state
 2094              		.loc 1 655 10 view .LVU603
 2095 0032 0024     		movs	r4, #0
 2096 0034 F5E7     		b	.L192
 2097              	.L193:
 2098              		.loc 1 665 3 is_stmt 1 view .LVU604
 2099 0036 FFF7FEFF 		bl	AsebaDebugBareRun
 2100              	.LVL209:
 2101              		.loc 1 665 3 is_stmt 0 view .LVU605
 2102 003a F2E7     		b	.L192
 2103              	.L200:
 2104              		.loc 1 668 1 view .LVU606
 2105 003c FFF7FEFF 		bl	__stack_chk_fail
 2106              	.LVL210:
 2107              	.L202:
 2108              		.align	2
 2109              	.L201:
ARM GAS  /tmp/cclXoGh5.s 			page 38


 2110 0040 00000000 		.word	.LC9
 2111              		.cfi_endproc
 2112              	.LFE10:
 2113              		.size	AsebaVMRun, .-AsebaVMRun
 2114              		.section	.rodata.AsebaVMSetBreakpoint.cst4,"aM",%progbits,4
 2115              		.align	2
 2116              	.LC10:
 2117 0000 00000000 		.word	__stack_chk_guard
 2118              		.section	.text.AsebaVMSetBreakpoint,"ax",%progbits
 2119              		.align	1
 2120              		.p2align 4,,15
 2121              		.global	AsebaVMSetBreakpoint
 2122              		.syntax unified
 2123              		.thumb
 2124              		.thumb_func
 2125              		.fpu fpv4-sp-d16
 2126              		.type	AsebaVMSetBreakpoint, %function
 2127              	AsebaVMSetBreakpoint:
 2128              	.LVL211:
 2129              	.LFB11:
 2130              		.loc 1 673 1 is_stmt 1 view -0
 2131              		.cfi_startproc
 2132              		@ args = 0, pretend = 0, frame = 8
 2133              		@ frame_needed = 0, uses_anonymous_args = 0
 2134              		.loc 1 673 1 is_stmt 0 view .LVU608
 2135 0000 00B5     		push	{lr}
 2136              		.cfi_def_cfa_offset 4
 2137              		.cfi_offset 14, -4
 2138              		.loc 1 679 8 view .LVU609
 2139 0002 C38F     		ldrh	r3, [r0, #62]
 2140              		.loc 1 673 1 view .LVU610
 2141 0004 0C4A     		ldr	r2, .L209
 2142 0006 83B0     		sub	sp, sp, #12
 2143              		.cfi_def_cfa_offset 16
 2144              		.loc 1 679 5 view .LVU611
 2145 0008 0F2B     		cmp	r3, #15
 2146              		.loc 1 673 1 view .LVU612
 2147 000a 1268     		ldr	r2, [r2]
 2148 000c 0192     		str	r2, [sp, #4]
 2149 000e 4FF00002 		mov	r2,#0
 2150              		.loc 1 679 2 is_stmt 1 view .LVU613
 2151              		.loc 1 679 5 is_stmt 0 view .LVU614
 2152 0012 0DD8     		bhi	.L206
 2153              		.loc 1 681 3 is_stmt 1 view .LVU615
 2154              		.loc 1 681 43 is_stmt 0 view .LVU616
 2155 0014 00EB4302 		add	r2, r0, r3, lsl #1
 2156              		.loc 1 681 39 view .LVU617
 2157 0018 0133     		adds	r3, r3, #1
 2158 001a C387     		strh	r3, [r0, #62]	@ movhi
 2159              		.loc 1 682 10 view .LVU618
 2160 001c 0120     		movs	r0, #1
 2161              	.LVL212:
 2162              		.loc 1 681 43 view .LVU619
 2163 001e D183     		strh	r1, [r2, #30]	@ movhi
 2164              		.loc 1 682 3 is_stmt 1 view .LVU620
 2165              	.L204:
 2166              		.loc 1 686 1 is_stmt 0 view .LVU621
ARM GAS  /tmp/cclXoGh5.s 			page 39


 2167 0020 054B     		ldr	r3, .L209
 2168 0022 1A68     		ldr	r2, [r3]
 2169 0024 019B     		ldr	r3, [sp, #4]
 2170 0026 5A40     		eors	r2, r3, r2
 2171 0028 04D1     		bne	.L208
 2172 002a 03B0     		add	sp, sp, #12
 2173              		.cfi_remember_state
 2174              		.cfi_def_cfa_offset 4
 2175              		@ sp needed
 2176 002c 5DF804FB 		ldr	pc, [sp], #4
 2177              	.LVL213:
 2178              	.L206:
 2179              		.cfi_restore_state
 2180              		.loc 1 685 10 view .LVU622
 2181 0030 0020     		movs	r0, #0
 2182              	.LVL214:
 2183              		.loc 1 685 10 view .LVU623
 2184 0032 F5E7     		b	.L204
 2185              	.L208:
 2186              		.loc 1 686 1 view .LVU624
 2187 0034 FFF7FEFF 		bl	__stack_chk_fail
 2188              	.LVL215:
 2189              	.L210:
 2190              		.loc 1 686 1 view .LVU625
 2191              		.align	2
 2192              	.L209:
 2193 0038 00000000 		.word	.LC10
 2194              		.cfi_endproc
 2195              	.LFE11:
 2196              		.size	AsebaVMSetBreakpoint, .-AsebaVMSetBreakpoint
 2197              		.section	.rodata.AsebaVMClearBreakpoint.cst4,"aM",%progbits,4
 2198              		.align	2
 2199              	.LC11:
 2200 0000 00000000 		.word	__stack_chk_guard
 2201              		.section	.text.AsebaVMClearBreakpoint,"ax",%progbits
 2202              		.align	1
 2203              		.p2align 4,,15
 2204              		.global	AsebaVMClearBreakpoint
 2205              		.syntax unified
 2206              		.thumb
 2207              		.thumb_func
 2208              		.fpu fpv4-sp-d16
 2209              		.type	AsebaVMClearBreakpoint, %function
 2210              	AsebaVMClearBreakpoint:
 2211              	.LVL216:
 2212              	.LFB12:
 2213              		.loc 1 690 1 is_stmt 1 view -0
 2214              		.cfi_startproc
 2215              		@ args = 0, pretend = 0, frame = 8
 2216              		@ frame_needed = 0, uses_anonymous_args = 0
 2217              		.loc 1 690 1 is_stmt 0 view .LVU627
 2218 0000 70B5     		push	{r4, r5, r6, lr}
 2219              		.cfi_def_cfa_offset 16
 2220              		.cfi_offset 4, -16
 2221              		.cfi_offset 5, -12
 2222              		.cfi_offset 6, -8
 2223              		.cfi_offset 14, -4
ARM GAS  /tmp/cclXoGh5.s 			page 40


 2224 0002 1B4B     		ldr	r3, .L227
 2225              		.loc 1 692 20 view .LVU628
 2226 0004 C68F     		ldrh	r6, [r0, #62]
 2227              		.loc 1 690 1 view .LVU629
 2228 0006 82B0     		sub	sp, sp, #8
 2229              		.cfi_def_cfa_offset 24
 2230              		.loc 1 690 1 view .LVU630
 2231 0008 1B68     		ldr	r3, [r3]
 2232 000a 0193     		str	r3, [sp, #4]
 2233 000c 4FF00003 		mov	r3,#0
 2234              		.loc 1 691 2 is_stmt 1 view .LVU631
 2235              		.loc 1 692 2 view .LVU632
 2236              	.LVL217:
 2237              		.loc 1 692 14 view .LVU633
 2238              		.loc 1 692 2 is_stmt 0 view .LVU634
 2239 0010 16B3     		cbz	r6, .L212
 2240 0012 0023     		movs	r3, #0
 2241 0014 1C46     		mov	r4, r3
 2242 0016 00F11C02 		add	r2, r0, #28
 2243 001a 03E0     		b	.L217
 2244              	.LVL218:
 2245              	.L213:
 2246              		.loc 1 692 40 is_stmt 1 discriminator 2 view .LVU635
 2247              		.loc 1 692 14 discriminator 2 view .LVU636
 2248 001c 0133     		adds	r3, r3, #1
 2249              	.LVL219:
 2250              		.loc 1 692 2 is_stmt 0 discriminator 2 view .LVU637
 2251 001e 9CB2     		uxth	r4, r3
 2252 0020 A642     		cmp	r6, r4
 2253 0022 21D9     		bls	.L225
 2254              	.L217:
 2255              		.loc 1 694 3 is_stmt 1 view .LVU638
 2256              		.loc 1 694 6 is_stmt 0 view .LVU639
 2257 0024 32F8025F 		ldrh	r5, [r2, #2]!
 2258 0028 8D42     		cmp	r5, r1
 2259 002a F7D1     		bne	.L213
 2260              	.LBB101:
 2261              		.loc 1 696 4 is_stmt 1 view .LVU640
 2262              		.loc 1 698 4 view .LVU641
 2263              		.loc 1 698 24 is_stmt 0 view .LVU642
 2264 002c 721E     		subs	r2, r6, #1
 2265 002e 92B2     		uxth	r2, r2
 2266              		.loc 1 699 4 view .LVU643
 2267 0030 A242     		cmp	r2, r4
 2268              		.loc 1 698 24 view .LVU644
 2269 0032 C287     		strh	r2, [r0, #62]	@ movhi
 2270              		.loc 1 699 4 is_stmt 1 view .LVU645
 2271              	.LVL220:
 2272              		.loc 1 699 16 view .LVU646
 2273              		.loc 1 699 4 is_stmt 0 view .LVU647
 2274 0034 0FD9     		bls	.L216
 2275 0036 023E     		subs	r6, r6, #2
 2276 0038 341B     		subs	r4, r6, r4
 2277              	.LVL221:
 2278              		.loc 1 699 4 view .LVU648
 2279 003a 13FA84F4 		uxtah	r4, r3, r4
 2280 003e 00F12002 		add	r2, r0, #32
ARM GAS  /tmp/cclXoGh5.s 			page 41


 2281 0042 0F33     		adds	r3, r3, #15
 2282 0044 00EB4303 		add	r3, r0, r3, lsl #1
 2283 0048 02EB4404 		add	r4, r2, r4, lsl #1
 2284              	.L215:
 2285              		.loc 1 700 5 is_stmt 1 discriminator 3 view .LVU649
 2286              		.loc 1 700 24 is_stmt 0 discriminator 3 view .LVU650
 2287 004c 5A88     		ldrh	r2, [r3, #2]
 2288 004e 23F8022B 		strh	r2, [r3], #2	@ movhi
 2289              		.loc 1 699 42 is_stmt 1 discriminator 3 view .LVU651
 2290              		.loc 1 699 16 discriminator 3 view .LVU652
 2291              		.loc 1 699 4 is_stmt 0 discriminator 3 view .LVU653
 2292 0052 A342     		cmp	r3, r4
 2293 0054 FAD1     		bne	.L215
 2294              	.L216:
 2295              		.loc 1 701 11 view .LVU654
 2296 0056 0126     		movs	r6, #1
 2297              	.L212:
 2298              		.loc 1 701 11 view .LVU655
 2299              	.LBE101:
 2300              		.loc 1 705 1 view .LVU656
 2301 0058 054B     		ldr	r3, .L227
 2302 005a 1A68     		ldr	r2, [r3]
 2303 005c 019B     		ldr	r3, [sp, #4]
 2304 005e 5A40     		eors	r2, r3, r2
 2305 0060 04D1     		bne	.L226
 2306 0062 3046     		mov	r0, r6
 2307              	.LVL222:
 2308              		.loc 1 705 1 view .LVU657
 2309 0064 02B0     		add	sp, sp, #8
 2310              		.cfi_remember_state
 2311              		.cfi_def_cfa_offset 16
 2312              		@ sp needed
 2313 0066 70BD     		pop	{r4, r5, r6, pc}
 2314              	.LVL223:
 2315              	.L225:
 2316              		.cfi_restore_state
 2317              		.loc 1 704 9 view .LVU658
 2318 0068 0026     		movs	r6, #0
 2319 006a F5E7     		b	.L212
 2320              	.L226:
 2321              		.loc 1 705 1 view .LVU659
 2322 006c FFF7FEFF 		bl	__stack_chk_fail
 2323              	.LVL224:
 2324              	.L228:
 2325              		.loc 1 705 1 view .LVU660
 2326              		.align	2
 2327              	.L227:
 2328 0070 00000000 		.word	.LC11
 2329              		.cfi_endproc
 2330              	.LFE12:
 2331              		.size	AsebaVMClearBreakpoint, .-AsebaVMClearBreakpoint
 2332              		.section	.rodata.AsebaVMClearBreakpoints.cst4,"aM",%progbits,4
 2333              		.align	2
 2334              	.LC12:
 2335 0000 00000000 		.word	__stack_chk_guard
 2336              		.section	.text.AsebaVMClearBreakpoints,"ax",%progbits
 2337              		.align	1
ARM GAS  /tmp/cclXoGh5.s 			page 42


 2338              		.p2align 4,,15
 2339              		.global	AsebaVMClearBreakpoints
 2340              		.syntax unified
 2341              		.thumb
 2342              		.thumb_func
 2343              		.fpu fpv4-sp-d16
 2344              		.type	AsebaVMClearBreakpoints, %function
 2345              	AsebaVMClearBreakpoints:
 2346              	.LVL225:
 2347              	.LFB13:
 2348              		.loc 1 709 1 is_stmt 1 view -0
 2349              		.cfi_startproc
 2350              		@ args = 0, pretend = 0, frame = 8
 2351              		@ frame_needed = 0, uses_anonymous_args = 0
 2352              		.loc 1 709 1 is_stmt 0 view .LVU662
 2353 0000 00B5     		push	{lr}
 2354              		.cfi_def_cfa_offset 4
 2355              		.cfi_offset 14, -4
 2356 0002 094A     		ldr	r2, .L233
 2357 0004 83B0     		sub	sp, sp, #12
 2358              		.cfi_def_cfa_offset 16
 2359              		.loc 1 710 23 view .LVU663
 2360 0006 0023     		movs	r3, #0
 2361              		.loc 1 709 1 view .LVU664
 2362 0008 1268     		ldr	r2, [r2]
 2363 000a 0192     		str	r2, [sp, #4]
 2364 000c 4FF00002 		mov	r2,#0
 2365              		.loc 1 710 2 is_stmt 1 view .LVU665
 2366              		.loc 1 710 23 is_stmt 0 view .LVU666
 2367 0010 C387     		strh	r3, [r0, #62]	@ movhi
 2368              		.loc 1 711 1 view .LVU667
 2369 0012 054B     		ldr	r3, .L233
 2370 0014 1A68     		ldr	r2, [r3]
 2371 0016 019B     		ldr	r3, [sp, #4]
 2372 0018 5A40     		eors	r2, r3, r2
 2373 001a 02D1     		bne	.L232
 2374 001c 03B0     		add	sp, sp, #12
 2375              		.cfi_remember_state
 2376              		.cfi_def_cfa_offset 4
 2377              		@ sp needed
 2378 001e 5DF804FB 		ldr	pc, [sp], #4
 2379              	.L232:
 2380              		.cfi_restore_state
 2381 0022 FFF7FEFF 		bl	__stack_chk_fail
 2382              	.LVL226:
 2383              	.L234:
 2384              		.loc 1 711 1 view .LVU668
 2385 0026 00BF     		.align	2
 2386              	.L233:
 2387 0028 00000000 		.word	.LC12
 2388              		.cfi_endproc
 2389              	.LFE13:
 2390              		.size	AsebaVMClearBreakpoints, .-AsebaVMClearBreakpoints
 2391              		.section	.rodata.AsebaVMSendExecutionStateChanged.cst4,"aM",%progbits,4
 2392              		.align	2
 2393              	.LC13:
 2394 0000 00000000 		.word	__stack_chk_guard
ARM GAS  /tmp/cclXoGh5.s 			page 43


 2395              		.section	.text.AsebaVMSendExecutionStateChanged,"ax",%progbits
 2396              		.align	1
 2397              		.p2align 4,,15
 2398              		.global	AsebaVMSendExecutionStateChanged
 2399              		.syntax unified
 2400              		.thumb
 2401              		.thumb_func
 2402              		.fpu fpv4-sp-d16
 2403              		.type	AsebaVMSendExecutionStateChanged, %function
 2404              	AsebaVMSendExecutionStateChanged:
 2405              	.LVL227:
 2406              	.LFB14:
 2407              		.loc 1 715 1 is_stmt 1 view -0
 2408              		.cfi_startproc
 2409              		@ args = 0, pretend = 0, frame = 8
 2410              		@ frame_needed = 0, uses_anonymous_args = 0
 2411              		.loc 1 715 1 is_stmt 0 view .LVU670
 2412 0000 30B5     		push	{r4, r5, lr}
 2413              		.cfi_def_cfa_offset 12
 2414              		.cfi_offset 4, -12
 2415              		.cfi_offset 5, -8
 2416              		.cfi_offset 14, -4
 2417 0002 0D4A     		ldr	r2, .L239
 2418              		.loc 1 717 12 view .LVU671
 2419 0004 458B     		ldrh	r5, [r0, #26]
 2420              		.loc 1 718 12 view .LVU672
 2421 0006 048B     		ldrh	r4, [r0, #24]
 2422              		.loc 1 715 1 view .LVU673
 2423 0008 83B0     		sub	sp, sp, #12
 2424              		.cfi_def_cfa_offset 24
 2425              		.loc 1 715 1 view .LVU674
 2426 000a 1268     		ldr	r2, [r2]
 2427 000c 0192     		str	r2, [sp, #4]
 2428 000e 4FF00002 		mov	r2,#0
 2429              		.loc 1 716 2 is_stmt 1 view .LVU675
 2430              		.loc 1 717 2 view .LVU676
 2431              		.loc 1 719 2 is_stmt 0 view .LVU677
 2432 0012 0423     		movs	r3, #4
 2433 0014 6A46     		mov	r2, sp
 2434 0016 49F20A01 		movw	r1, #36874
 2435              		.loc 1 717 12 view .LVU678
 2436 001a ADF80050 		strh	r5, [sp]	@ movhi
 2437              		.loc 1 718 2 is_stmt 1 view .LVU679
 2438              		.loc 1 718 12 is_stmt 0 view .LVU680
 2439 001e ADF80240 		strh	r4, [sp, #2]	@ movhi
 2440              		.loc 1 719 2 is_stmt 1 view .LVU681
 2441 0022 FFF7FEFF 		bl	AsebaSendMessage
 2442              	.LVL228:
 2443              		.loc 1 720 1 is_stmt 0 view .LVU682
 2444 0026 044B     		ldr	r3, .L239
 2445 0028 1A68     		ldr	r2, [r3]
 2446 002a 019B     		ldr	r3, [sp, #4]
 2447 002c 5A40     		eors	r2, r3, r2
 2448 002e 01D1     		bne	.L238
 2449 0030 03B0     		add	sp, sp, #12
 2450              		.cfi_remember_state
 2451              		.cfi_def_cfa_offset 12
ARM GAS  /tmp/cclXoGh5.s 			page 44


 2452              		@ sp needed
 2453 0032 30BD     		pop	{r4, r5, pc}
 2454              	.L238:
 2455              		.cfi_restore_state
 2456 0034 FFF7FEFF 		bl	__stack_chk_fail
 2457              	.LVL229:
 2458              	.L240:
 2459              		.align	2
 2460              	.L239:
 2461 0038 00000000 		.word	.LC13
 2462              		.cfi_endproc
 2463              	.LFE14:
 2464              		.size	AsebaVMSendExecutionStateChanged, .-AsebaVMSendExecutionStateChanged
 2465              		.section	.rodata.AsebaVMDebugMessage.cst4,"aM",%progbits,4
 2466              		.align	2
 2467              	.LC14:
 2468 0000 00000000 		.word	__stack_chk_guard
 2469              		.section	.text.AsebaVMDebugMessage,"ax",%progbits
 2470              		.align	1
 2471              		.p2align 4,,15
 2472              		.global	AsebaVMDebugMessage
 2473              		.syntax unified
 2474              		.thumb
 2475              		.thumb_func
 2476              		.fpu fpv4-sp-d16
 2477              		.type	AsebaVMDebugMessage, %function
 2478              	AsebaVMDebugMessage:
 2479              	.LVL230:
 2480              	.LFB16:
 2481              		.loc 1 735 1 is_stmt 1 view -0
 2482              		.cfi_startproc
 2483              		@ args = 0, pretend = 0, frame = 16
 2484              		@ frame_needed = 0, uses_anonymous_args = 0
 2485              		.loc 1 735 1 is_stmt 0 view .LVU684
 2486 0000 70B5     		push	{r4, r5, r6, lr}
 2487              		.cfi_def_cfa_offset 16
 2488              		.cfi_offset 4, -16
 2489              		.cfi_offset 5, -12
 2490              		.cfi_offset 6, -8
 2491              		.cfi_offset 14, -4
 2492 0002 1546     		mov	r5, r2
 2493 0004 944A     		ldr	r2, .L307
 2494              	.LVL231:
 2495              		.loc 1 735 1 view .LVU685
 2496 0006 84B0     		sub	sp, sp, #16
 2497              		.cfi_def_cfa_offset 32
 2498              		.loc 1 737 5 view .LVU686
 2499 0008 B1F5204F 		cmp	r1, #40960
 2500              		.loc 1 735 1 view .LVU687
 2501 000c 1268     		ldr	r2, [r2]
 2502 000e 0392     		str	r2, [sp, #12]
 2503 0010 4FF00002 		mov	r2,#0
 2504              		.loc 1 737 2 is_stmt 1 view .LVU688
 2505              		.loc 1 737 5 is_stmt 0 view .LVU689
 2506 0014 69D0     		beq	.L304
 2507              		.loc 1 746 2 is_stmt 1 view .LVU690
 2508              		.loc 1 746 5 is_stmt 0 view .LVU691
ARM GAS  /tmp/cclXoGh5.s 			page 45


 2509 0016 4AF21102 		movw	r2, #40977
 2510 001a 9142     		cmp	r1, r2
 2511 001c 6BD0     		beq	.L305
 2512              		.loc 1 754 2 is_stmt 1 view .LVU692
 2513              		.loc 1 754 5 is_stmt 0 view .LVU693
 2514 001e 002B     		cmp	r3, #0
 2515 0020 5BD0     		beq	.L241
 2516 0022 0446     		mov	r4, r0
 2517              		.loc 1 758 2 is_stmt 1 view .LVU694
 2518              		.loc 1 758 5 is_stmt 0 view .LVU695
 2519 0024 2888     		ldrh	r0, [r5]
 2520              	.LVL232:
 2521              		.loc 1 758 5 view .LVU696
 2522 0026 2288     		ldrh	r2, [r4]
 2523 0028 9042     		cmp	r0, r2
 2524 002a 56D1     		bne	.L241
 2525              		.loc 1 761 2 is_stmt 1 view .LVU697
 2526 002c A1F52041 		sub	r1, r1, #40960
 2527              	.LVL233:
 2528              		.loc 1 761 2 is_stmt 0 view .LVU698
 2529 0030 0139     		subs	r1, r1, #1
 2530              		.loc 1 761 6 view .LVU699
 2531 0032 AA1C     		adds	r2, r5, #2
 2532              	.LVL234:
 2533              		.loc 1 762 2 is_stmt 1 view .LVU700
 2534              		.loc 1 764 2 view .LVU701
 2535 0034 0F29     		cmp	r1, #15
 2536 0036 50D8     		bhi	.L241
 2537 0038 DFE811F0 		tbh	[pc, r1, lsl #1]
 2538              	.L248:
 2539 003c 1000     		.2byte	(.L263-.L248)/2
 2540 003e 2200     		.2byte	(.L262-.L248)/2
 2541 0040 C500     		.2byte	(.L261-.L248)/2
 2542 0042 DE00     		.2byte	(.L260-.L248)/2
 2543 0044 E600     		.2byte	(.L259-.L248)/2
 2544 0046 EE00     		.2byte	(.L258-.L248)/2
 2545 0048 4200     		.2byte	(.L303-.L248)/2
 2546 004a 6B00     		.2byte	(.L256-.L248)/2
 2547 004c 9A00     		.2byte	(.L255-.L248)/2
 2548 004e 6800     		.2byte	(.L254-.L248)/2
 2549 0050 0301     		.2byte	(.L253-.L248)/2
 2550 0052 8200     		.2byte	(.L252-.L248)/2
 2551 0054 C100     		.2byte	(.L251-.L248)/2
 2552 0056 9600     		.2byte	(.L250-.L248)/2
 2553 0058 FD00     		.2byte	(.L249-.L248)/2
 2554 005a 0101     		.2byte	(.L247-.L248)/2
 2555              		.p2align 1
 2556              	.L263:
 2557              	.LBB102:
 2558              		.loc 1 768 4 view .LVU702
 2559              		.loc 1 775 4 is_stmt 0 view .LVU703
 2560 005c 022B     		cmp	r3, #2
 2561              		.loc 1 768 11 view .LVU704
 2562 005e 6988     		ldrh	r1, [r5, #2]
 2563              	.LVL235:
 2564              		.loc 1 769 4 is_stmt 1 view .LVU705
 2565              		.loc 1 770 4 view .LVU706
ARM GAS  /tmp/cclXoGh5.s 			page 46


 2566              		.loc 1 775 4 view .LVU707
 2567              		.loc 1 775 16 view .LVU708
 2568              		.loc 1 775 4 is_stmt 0 view .LVU709
 2569 0060 0ED0     		beq	.L262
 2570 0062 033B     		subs	r3, r3, #3
 2571              	.LVL236:
 2572              		.loc 1 775 4 view .LVU710
 2573 0064 C5EB4101 		rsb	r1, r5, r1, lsl #1
 2574              	.LVL237:
 2575              		.loc 1 775 4 view .LVU711
 2576 0068 9BB2     		uxth	r3, r3
 2577 006a 0435     		adds	r5, r5, #4
 2578              	.LVL238:
 2579              		.loc 1 775 4 view .LVU712
 2580 006c 8E1E     		subs	r6, r1, #2
 2581 006e 05EB4305 		add	r5, r5, r3, lsl #1
 2582              	.LVL239:
 2583              	.L265:
 2584              		.loc 1 776 5 is_stmt 1 discriminator 3 view .LVU713
 2585              		.loc 1 776 17 is_stmt 0 discriminator 3 view .LVU714
 2586 0072 B318     		adds	r3, r6, r2
 2587              		.loc 1 776 29 discriminator 3 view .LVU715
 2588 0074 32F8020F 		ldrh	r0, [r2, #2]!
 2589              		.loc 1 776 17 discriminator 3 view .LVU716
 2590 0078 6168     		ldr	r1, [r4, #4]
 2591              		.loc 1 775 4 discriminator 3 view .LVU717
 2592 007a 9542     		cmp	r5, r2
 2593              		.loc 1 776 27 discriminator 3 view .LVU718
 2594 007c C852     		strh	r0, [r1, r3]	@ movhi
 2595              		.loc 1 775 28 is_stmt 1 discriminator 3 view .LVU719
 2596              		.loc 1 775 16 discriminator 3 view .LVU720
 2597              		.loc 1 775 4 is_stmt 0 discriminator 3 view .LVU721
 2598 007e F8D1     		bne	.L265
 2599              	.LVL240:
 2600              	.L262:
 2601              		.loc 1 775 4 discriminator 3 view .LVU722
 2602              	.LBE102:
 2603              		.loc 1 781 3 is_stmt 1 view .LVU723
 2604              	.LBB103:
 2605              	.LBB104:
 2606              		.loc 1 726 2 is_stmt 0 view .LVU724
 2607 0080 6688     		ldrh	r6, [r4, #2]
 2608              	.LBE104:
 2609              	.LBE103:
 2610              		.loc 1 781 13 view .LVU725
 2611 0082 0223     		movs	r3, #2
 2612 0084 2383     		strh	r3, [r4, #24]	@ movhi
 2613              		.loc 1 782 3 is_stmt 1 view .LVU726
 2614              	.LBB107:
 2615              	.LBI103:
 2616              		.loc 1 723 13 view .LVU727
 2617              	.LVL241:
 2618              	.LBB106:
 2619              		.loc 1 726 14 view .LVU728
 2620              		.loc 1 726 2 is_stmt 0 view .LVU729
 2621 0086 0023     		movs	r3, #0
 2622 0088 7EB1     		cbz	r6, .L271
ARM GAS  /tmp/cclXoGh5.s 			page 47


 2623              	.LVL242:
 2624              	.L267:
 2625              	.LBB105:
 2626              		.loc 1 728 3 is_stmt 1 view .LVU730
 2627              		.loc 1 728 33 is_stmt 0 view .LVU731
 2628 008a 6168     		ldr	r1, [r4, #4]
 2629 008c 98B2     		uxth	r0, r3
 2630              		.loc 1 728 10 view .LVU732
 2631 008e 31F81020 		ldrh	r2, [r1, r0, lsl #1]
 2632              	.LVL243:
 2633              		.loc 1 729 3 is_stmt 1 view .LVU733
 2634              		.loc 1 729 6 is_stmt 0 view .LVU734
 2635 0092 150B     		lsrs	r5, r2, #12
 2636 0094 0A2D     		cmp	r5, #10
 2637 0096 04D1     		bne	.L270
 2638              		.loc 1 730 4 is_stmt 1 view .LVU735
 2639 0098 22F40072 		bic	r2, r2, #512
 2640              	.LVL244:
 2641              		.loc 1 730 4 is_stmt 0 view .LVU736
 2642 009c 21F81020 		strh	r2, [r1, r0, lsl #1]	@ movhi
 2643              	.LVL245:
 2644              		.loc 1 730 4 view .LVU737
 2645 00a0 6688     		ldrh	r6, [r4, #2]
 2646              	.L270:
 2647              	.LBE105:
 2648              		.loc 1 726 36 is_stmt 1 view .LVU738
 2649              	.LVL246:
 2650              		.loc 1 726 14 view .LVU739
 2651 00a2 0133     		adds	r3, r3, #1
 2652              	.LVL247:
 2653              		.loc 1 726 2 is_stmt 0 view .LVU740
 2654 00a4 9AB2     		uxth	r2, r3
 2655 00a6 9642     		cmp	r6, r2
 2656 00a8 EFD8     		bhi	.L267
 2657              	.LVL248:
 2658              	.L271:
 2659              		.loc 1 726 2 view .LVU741
 2660              	.LBE106:
 2661              	.LBE107:
 2662              		.loc 1 783 3 is_stmt 1 view .LVU742
 2663              		.loc 1 783 6 is_stmt 0 view .LVU743
 2664 00aa 6C4B     		ldr	r3, .L307+4
 2665 00ac 13B1     		cbz	r3, .L269
 2666              		.loc 1 784 4 is_stmt 1 view .LVU744
 2667 00ae 2046     		mov	r0, r4
 2668 00b0 FFF7FEFF 		bl	AsebaVMResetCB
 2669              	.LVL249:
 2670              	.L269:
 2671              		.loc 1 786 3 view .LVU745
 2672              		.loc 1 786 7 is_stmt 0 view .LVU746
 2673 00b4 4FF6FF71 		movw	r1, #65535
 2674 00b8 2046     		mov	r0, r4
 2675 00ba FFF7FEFF 		bl	AsebaVMSetupEvent
 2676              	.LVL250:
 2677              		.loc 1 786 6 view .LVU747
 2678 00be 60B9     		cbnz	r0, .L241
 2679              	.LVL251:
ARM GAS  /tmp/cclXoGh5.s 			page 48


 2680              	.L303:
 2681              		.loc 1 806 4 is_stmt 1 view .LVU748
 2682              	.LBB108:
 2683              	.LBI108:
 2684              		.loc 1 714 6 view .LVU749
 2685              	.LBB109:
 2686              		.loc 1 716 2 view .LVU750
 2687              		.loc 1 717 2 view .LVU751
 2688              		.loc 1 717 12 is_stmt 0 view .LVU752
 2689 00c0 638B     		ldrh	r3, [r4, #26]
 2690              		.loc 1 718 12 view .LVU753
 2691 00c2 258B     		ldrh	r5, [r4, #24]
 2692              		.loc 1 717 12 view .LVU754
 2693 00c4 ADF80830 		strh	r3, [sp, #8]	@ movhi
 2694              		.loc 1 718 2 is_stmt 1 view .LVU755
 2695              	.LVL252:
 2696              	.L302:
 2697              		.loc 1 718 2 is_stmt 0 view .LVU756
 2698              	.LBE109:
 2699              	.LBE108:
 2700              		.loc 1 799 3 is_stmt 1 view .LVU757
 2701              	.LBB110:
 2702              	.LBI110:
 2703              		.loc 1 714 6 view .LVU758
 2704              	.LBB111:
 2705              		.loc 1 716 2 view .LVU759
 2706              		.loc 1 717 2 view .LVU760
 2707              		.loc 1 718 2 view .LVU761
 2708              		.loc 1 719 2 is_stmt 0 view .LVU762
 2709 00c8 2046     		mov	r0, r4
 2710 00ca 0423     		movs	r3, #4
 2711 00cc 02AA     		add	r2, sp, #8
 2712 00ce 49F20A01 		movw	r1, #36874
 2713              		.loc 1 718 12 view .LVU763
 2714 00d2 ADF80A50 		strh	r5, [sp, #10]	@ movhi
 2715              		.loc 1 719 2 is_stmt 1 view .LVU764
 2716 00d6 FFF7FEFF 		bl	AsebaSendMessage
 2717              	.LVL253:
 2718              	.L241:
 2719              		.loc 1 719 2 is_stmt 0 view .LVU765
 2720              	.LBE111:
 2721              	.LBE110:
 2722              		.loc 1 881 1 view .LVU766
 2723 00da 5F4B     		ldr	r3, .L307
 2724 00dc 1A68     		ldr	r2, [r3]
 2725 00de 039B     		ldr	r3, [sp, #12]
 2726 00e0 5A40     		eors	r2, r3, r2
 2727 00e2 40F0B680 		bne	.L306
 2728 00e6 04B0     		add	sp, sp, #16
 2729              		.cfi_remember_state
 2730              		.cfi_def_cfa_offset 16
 2731              		@ sp needed
 2732 00e8 70BD     		pop	{r4, r5, r6, pc}
 2733              	.LVL254:
 2734              	.L304:
 2735              		.cfi_restore_state
 2736              	.LBB113:
ARM GAS  /tmp/cclXoGh5.s 			page 49


 2737              		.loc 1 739 3 is_stmt 1 view .LVU767
 2738              		.loc 1 741 3 view .LVU768
 2739              		.loc 1 741 6 is_stmt 0 view .LVU769
 2740 00ea 2B88     		ldrh	r3, [r5]
 2741              	.LVL255:
 2742              		.loc 1 741 6 view .LVU770
 2743 00ec 042B     		cmp	r3, #4
 2744 00ee F4D8     		bhi	.L241
 2745              	.LVL256:
 2746              	.L301:
 2747              		.loc 1 741 6 view .LVU771
 2748              	.LBE113:
 2749              		.loc 1 875 3 view .LVU772
 2750 00f0 FFF7FEFF 		bl	AsebaSendDescription
 2751              	.LVL257:
 2752              		.loc 1 876 3 is_stmt 1 view .LVU773
 2753 00f4 F1E7     		b	.L241
 2754              	.LVL258:
 2755              	.L305:
 2756              	.LBB114:
 2757              		.loc 1 748 3 view .LVU774
 2758              		.loc 1 748 16 is_stmt 0 view .LVU775
 2759 00f6 0524     		movs	r4, #5
 2760              		.loc 1 749 3 view .LVU776
 2761 00f8 0223     		movs	r3, #2
 2762              	.LVL259:
 2763              		.loc 1 749 3 view .LVU777
 2764 00fa 0DF10602 		add	r2, sp, #6
 2765 00fe 49F20C01 		movw	r1, #36876
 2766              	.LVL260:
 2767              		.loc 1 748 16 view .LVU778
 2768 0102 ADF80640 		strh	r4, [sp, #6]	@ movhi
 2769              		.loc 1 749 3 is_stmt 1 view .LVU779
 2770 0106 FFF7FEFF 		bl	AsebaSendMessage
 2771              	.LVL261:
 2772              		.loc 1 750 3 view .LVU780
 2773 010a E6E7     		b	.L241
 2774              	.LVL262:
 2775              	.L254:
 2776              		.loc 1 750 3 is_stmt 0 view .LVU781
 2777              	.LBE114:
 2778              		.loc 1 833 3 is_stmt 1 view .LVU782
 2779              	.LBB115:
 2780              	.LBI115:
 2781              		.loc 1 708 6 view .LVU783
 2782              	.LBB116:
 2783              		.loc 1 710 2 view .LVU784
 2784              		.loc 1 710 23 is_stmt 0 view .LVU785
 2785 010c 0023     		movs	r3, #0
 2786              	.LVL263:
 2787              		.loc 1 710 23 view .LVU786
 2788 010e E387     		strh	r3, [r4, #62]	@ movhi
 2789              		.loc 1 711 1 view .LVU787
 2790 0110 E3E7     		b	.L241
 2791              	.LVL264:
 2792              	.L256:
 2793              		.loc 1 711 1 view .LVU788
ARM GAS  /tmp/cclXoGh5.s 			page 50


 2794              	.LBE116:
 2795              	.LBE115:
 2796              	.LBB117:
 2797              		.loc 1 821 4 is_stmt 1 discriminator 5 view .LVU789
 2798              		.loc 1 822 4 discriminator 5 view .LVU790
 2799              	.LBB118:
 2800              	.LBB119:
 2801              		.loc 1 679 8 is_stmt 0 discriminator 5 view .LVU791
 2802 0112 E38F     		ldrh	r3, [r4, #62]
 2803              	.LVL265:
 2804              		.loc 1 679 8 discriminator 5 view .LVU792
 2805              	.LBE119:
 2806              	.LBE118:
 2807              		.loc 1 822 16 discriminator 5 view .LVU793
 2808 0114 6A88     		ldrh	r2, [r5, #2]
 2809              	.LVL266:
 2810              		.loc 1 822 14 discriminator 5 view .LVU794
 2811 0116 ADF80820 		strh	r2, [sp, #8]	@ movhi
 2812              		.loc 1 823 4 is_stmt 1 discriminator 5 view .LVU795
 2813              	.LVL267:
 2814              	.LBB122:
 2815              	.LBI118:
 2816              		.loc 1 672 7 discriminator 5 view .LVU796
 2817              	.LBB120:
 2818              		.loc 1 679 2 discriminator 5 view .LVU797
 2819              		.loc 1 679 5 is_stmt 0 discriminator 5 view .LVU798
 2820 011a 0F2B     		cmp	r3, #15
 2821 011c 00F29780 		bhi	.L279
 2822              		.loc 1 681 3 is_stmt 1 view .LVU799
 2823              		.loc 1 681 43 is_stmt 0 view .LVU800
 2824 0120 04EB4301 		add	r1, r4, r3, lsl #1
 2825              		.loc 1 681 39 view .LVU801
 2826 0124 0133     		adds	r3, r3, #1
 2827 0126 E387     		strh	r3, [r4, #62]	@ movhi
 2828              		.loc 1 682 10 view .LVU802
 2829 0128 0125     		movs	r5, #1
 2830              	.LVL268:
 2831              		.loc 1 681 43 view .LVU803
 2832 012a CA83     		strh	r2, [r1, #30]	@ movhi
 2833              		.loc 1 682 3 is_stmt 1 view .LVU804
 2834              	.L272:
 2835              	.LVL269:
 2836              		.loc 1 682 3 is_stmt 0 view .LVU805
 2837              	.LBE120:
 2838              	.LBE122:
 2839              		.loc 1 824 4 view .LVU806
 2840 012c 2046     		mov	r0, r4
 2841 012e 0423     		movs	r3, #4
 2842 0130 02AA     		add	r2, sp, #8
 2843 0132 49F20B01 		movw	r1, #36875
 2844              		.loc 1 823 14 view .LVU807
 2845 0136 ADF80A50 		strh	r5, [sp, #10]	@ movhi
 2846              		.loc 1 824 4 is_stmt 1 view .LVU808
 2847 013a FFF7FEFF 		bl	AsebaSendMessage
 2848              	.LVL270:
 2849              	.LBE117:
 2850              		.loc 1 826 3 view .LVU809
ARM GAS  /tmp/cclXoGh5.s 			page 51


 2851 013e CCE7     		b	.L241
 2852              	.LVL271:
 2853              	.L252:
 2854              	.LBB124:
 2855              		.loc 1 850 4 view .LVU810
 2856              		.loc 1 857 4 is_stmt 0 view .LVU811
 2857 0140 022B     		cmp	r3, #2
 2858              		.loc 1 850 11 view .LVU812
 2859 0142 6988     		ldrh	r1, [r5, #2]
 2860              	.LVL272:
 2861              		.loc 1 851 4 is_stmt 1 view .LVU813
 2862              		.loc 1 852 4 view .LVU814
 2863              		.loc 1 857 4 view .LVU815
 2864              		.loc 1 857 16 view .LVU816
 2865              		.loc 1 857 4 is_stmt 0 view .LVU817
 2866 0144 C9D0     		beq	.L241
 2867 0146 033B     		subs	r3, r3, #3
 2868              	.LVL273:
 2869              		.loc 1 857 4 view .LVU818
 2870 0148 281D     		adds	r0, r5, #4
 2871 014a 9BB2     		uxth	r3, r3
 2872 014c C5EB4105 		rsb	r5, r5, r1, lsl #1
 2873 0150 00EB4300 		add	r0, r0, r3, lsl #1
 2874              	.LVL274:
 2875              	.L276:
 2876              		.loc 1 858 5 is_stmt 1 discriminator 3 view .LVU819
 2877              		.loc 1 858 28 is_stmt 0 discriminator 3 view .LVU820
 2878 0154 E368     		ldr	r3, [r4, #12]
 2879 0156 2B44     		add	r3, r3, r5
 2880 0158 1344     		add	r3, r3, r2
 2881 015a 32F8021F 		ldrh	r1, [r2, #2]!
 2882 015e 23F8021C 		strh	r1, [r3, #-2]	@ movhi
 2883              		.loc 1 857 28 is_stmt 1 discriminator 3 view .LVU821
 2884              		.loc 1 857 16 discriminator 3 view .LVU822
 2885              		.loc 1 857 4 is_stmt 0 discriminator 3 view .LVU823
 2886 0162 8242     		cmp	r2, r0
 2887 0164 F6D1     		bne	.L276
 2888 0166 B8E7     		b	.L241
 2889              	.LVL275:
 2890              	.L250:
 2891              		.loc 1 857 4 discriminator 3 view .LVU824
 2892              	.LBE124:
 2893              		.loc 1 867 3 is_stmt 1 view .LVU825
 2894 0168 2046     		mov	r0, r4
 2895 016a FFF7FEFF 		bl	AsebaResetIntoBootloader
 2896              	.LVL276:
 2897              		.loc 1 868 3 view .LVU826
 2898 016e B4E7     		b	.L241
 2899              	.LVL277:
 2900              	.L255:
 2901              		.loc 1 829 3 view .LVU827
 2902              	.LBB125:
 2903              	.LBB126:
 2904              		.loc 1 692 20 is_stmt 0 view .LVU828
 2905 0170 E68F     		ldrh	r6, [r4, #62]
 2906              	.LBE126:
 2907              	.LBE125:
ARM GAS  /tmp/cclXoGh5.s 			page 52


 2908              		.loc 1 829 3 view .LVU829
 2909 0172 6D88     		ldrh	r5, [r5, #2]
 2910              	.LVL278:
 2911              	.LBB129:
 2912              	.LBI125:
 2913              		.loc 1 689 8 is_stmt 1 view .LVU830
 2914              	.LBB128:
 2915              		.loc 1 691 2 view .LVU831
 2916              		.loc 1 692 2 view .LVU832
 2917              		.loc 1 692 14 view .LVU833
 2918              		.loc 1 692 2 is_stmt 0 view .LVU834
 2919 0174 002E     		cmp	r6, #0
 2920 0176 B0D0     		beq	.L241
 2921 0178 0023     		movs	r3, #0
 2922              	.LVL279:
 2923              		.loc 1 692 2 view .LVU835
 2924 017a 1946     		mov	r1, r3
 2925 017c 04F11C02 		add	r2, r4, #28
 2926              	.LVL280:
 2927              		.loc 1 692 2 view .LVU836
 2928 0180 03E0     		b	.L275
 2929              	.LVL281:
 2930              	.L273:
 2931              		.loc 1 692 40 is_stmt 1 view .LVU837
 2932              		.loc 1 692 14 view .LVU838
 2933 0182 0133     		adds	r3, r3, #1
 2934              	.LVL282:
 2935              		.loc 1 692 2 is_stmt 0 view .LVU839
 2936 0184 99B2     		uxth	r1, r3
 2937 0186 8E42     		cmp	r6, r1
 2938 0188 A7D9     		bls	.L241
 2939              	.L275:
 2940              		.loc 1 694 3 is_stmt 1 view .LVU840
 2941              		.loc 1 694 6 is_stmt 0 view .LVU841
 2942 018a 32F8020F 		ldrh	r0, [r2, #2]!
 2943 018e A842     		cmp	r0, r5
 2944 0190 F7D1     		bne	.L273
 2945              	.LBB127:
 2946              		.loc 1 696 4 is_stmt 1 view .LVU842
 2947              		.loc 1 698 4 view .LVU843
 2948              		.loc 1 698 24 is_stmt 0 view .LVU844
 2949 0192 721E     		subs	r2, r6, #1
 2950 0194 92B2     		uxth	r2, r2
 2951              		.loc 1 699 4 view .LVU845
 2952 0196 8A42     		cmp	r2, r1
 2953              		.loc 1 698 24 view .LVU846
 2954 0198 E287     		strh	r2, [r4, #62]	@ movhi
 2955              		.loc 1 699 4 is_stmt 1 view .LVU847
 2956              	.LVL283:
 2957              		.loc 1 699 16 view .LVU848
 2958              		.loc 1 699 4 is_stmt 0 view .LVU849
 2959 019a 9ED9     		bls	.L241
 2960 019c B21E     		subs	r2, r6, #2
 2961 019e 521A     		subs	r2, r2, r1
 2962 01a0 13FA82F2 		uxtah	r2, r3, r2
 2963 01a4 04F12001 		add	r1, r4, #32
 2964              	.LVL284:
ARM GAS  /tmp/cclXoGh5.s 			page 53


 2965              		.loc 1 699 4 view .LVU850
 2966 01a8 0F33     		adds	r3, r3, #15
 2967 01aa 04EB4304 		add	r4, r4, r3, lsl #1
 2968              	.LVL285:
 2969              		.loc 1 699 4 view .LVU851
 2970 01ae 01EB4202 		add	r2, r1, r2, lsl #1
 2971              	.L274:
 2972              		.loc 1 700 5 is_stmt 1 view .LVU852
 2973              		.loc 1 700 24 is_stmt 0 view .LVU853
 2974 01b2 6388     		ldrh	r3, [r4, #2]
 2975 01b4 24F8023B 		strh	r3, [r4], #2	@ movhi
 2976              		.loc 1 699 42 is_stmt 1 view .LVU854
 2977              		.loc 1 699 16 view .LVU855
 2978              		.loc 1 699 4 is_stmt 0 view .LVU856
 2979 01b8 A242     		cmp	r2, r4
 2980 01ba FAD1     		bne	.L274
 2981 01bc 8DE7     		b	.L241
 2982              	.LVL286:
 2983              	.L251:
 2984              		.loc 1 699 4 view .LVU857
 2985              	.LBE127:
 2986              	.LBE128:
 2987              	.LBE129:
 2988              		.loc 1 863 3 is_stmt 1 view .LVU858
 2989 01be 2046     		mov	r0, r4
 2990 01c0 FFF7FEFF 		bl	AsebaWriteBytecode
 2991              	.LVL287:
 2992              		.loc 1 864 3 view .LVU859
 2993 01c4 89E7     		b	.L241
 2994              	.LVL288:
 2995              	.L261:
 2996              		.loc 1 791 3 view .LVU860
 2997 01c6 258B     		ldrh	r5, [r4, #24]
 2998              	.LBB130:
 2999              	.LBB131:
 3000              		.loc 1 717 12 is_stmt 0 view .LVU861
 3001 01c8 638B     		ldrh	r3, [r4, #26]
 3002              	.LVL289:
 3003              		.loc 1 717 12 view .LVU862
 3004 01ca ADF80830 		strh	r3, [sp, #8]	@ movhi
 3005              	.LBE131:
 3006              	.LBE130:
 3007              		.loc 1 791 3 view .LVU863
 3008 01ce 25F00205 		bic	r5, r5, #2
 3009 01d2 ADB2     		uxth	r5, r5
 3010              	.LBB134:
 3011              	.LBB132:
 3012              		.loc 1 719 2 view .LVU864
 3013 01d4 0423     		movs	r3, #4
 3014              	.LBE132:
 3015              	.LBE134:
 3016              		.loc 1 791 3 view .LVU865
 3017 01d6 2583     		strh	r5, [r4, #24]	@ movhi
 3018              		.loc 1 792 3 is_stmt 1 view .LVU866
 3019              	.LVL290:
 3020              	.LBB135:
 3021              	.LBI130:
ARM GAS  /tmp/cclXoGh5.s 			page 54


 3022              		.loc 1 714 6 view .LVU867
 3023              	.LBB133:
 3024              		.loc 1 716 2 view .LVU868
 3025              		.loc 1 717 2 view .LVU869
 3026              		.loc 1 718 2 view .LVU870
 3027              		.loc 1 719 2 is_stmt 0 view .LVU871
 3028 01d8 02AA     		add	r2, sp, #8
 3029              	.LVL291:
 3030              		.loc 1 719 2 view .LVU872
 3031 01da 49F20A01 		movw	r1, #36874
 3032 01de 2046     		mov	r0, r4
 3033              		.loc 1 718 12 view .LVU873
 3034 01e0 ADF80A50 		strh	r5, [sp, #10]	@ movhi
 3035              		.loc 1 719 2 is_stmt 1 view .LVU874
 3036 01e4 FFF7FEFF 		bl	AsebaSendMessage
 3037              	.LVL292:
 3038              		.loc 1 719 2 is_stmt 0 view .LVU875
 3039              	.LBE133:
 3040              	.LBE135:
 3041              		.loc 1 793 3 is_stmt 1 view .LVU876
 3042              		.loc 1 793 6 is_stmt 0 view .LVU877
 3043 01e8 1D4B     		ldr	r3, .L307+8
 3044 01ea 002B     		cmp	r3, #0
 3045 01ec 3FF475AF 		beq	.L241
 3046              		.loc 1 794 4 is_stmt 1 view .LVU878
 3047 01f0 2046     		mov	r0, r4
 3048 01f2 FFF7FEFF 		bl	AsebaVMRunCB
 3049              	.LVL293:
 3050 01f6 70E7     		b	.L241
 3051              	.LVL294:
 3052              	.L260:
 3053              		.loc 1 798 3 view .LVU879
 3054 01f8 258B     		ldrh	r5, [r4, #24]
 3055              	.LBB136:
 3056              	.LBB112:
 3057              		.loc 1 717 12 is_stmt 0 view .LVU880
 3058 01fa 638B     		ldrh	r3, [r4, #26]
 3059              	.LVL295:
 3060              		.loc 1 717 12 view .LVU881
 3061 01fc ADF80830 		strh	r3, [sp, #8]	@ movhi
 3062              	.LBE112:
 3063              	.LBE136:
 3064              		.loc 1 798 3 view .LVU882
 3065 0200 45F00205 		orr	r5, r5, #2
 3066 0204 2583     		strh	r5, [r4, #24]	@ movhi
 3067 0206 5FE7     		b	.L302
 3068              	.LVL296:
 3069              	.L259:
 3070              		.loc 1 803 3 is_stmt 1 view .LVU883
 3071              		.loc 1 803 6 is_stmt 0 view .LVU884
 3072 0208 238B     		ldrh	r3, [r4, #24]
 3073              	.LVL297:
 3074              		.loc 1 803 6 view .LVU885
 3075 020a DB07     		lsls	r3, r3, #31
 3076 020c 7FF565AF 		bpl	.L241
 3077              		.loc 1 805 4 is_stmt 1 view .LVU886
 3078 0210 2046     		mov	r0, r4
ARM GAS  /tmp/cclXoGh5.s 			page 55


 3079 0212 FFF7FEFF 		bl	AsebaVMStep
 3080              	.LVL298:
 3081              		.loc 1 805 4 is_stmt 0 view .LVU887
 3082 0216 53E7     		b	.L303
 3083              	.LVL299:
 3084              	.L258:
 3085              		.loc 1 811 3 is_stmt 1 view .LVU888
 3086              		.loc 1 811 13 is_stmt 0 view .LVU889
 3087 0218 0223     		movs	r3, #2
 3088              	.LVL300:
 3089              	.LBB137:
 3090              	.LBB138:
 3091              		.loc 1 717 12 view .LVU890
 3092 021a 658B     		ldrh	r5, [r4, #26]
 3093              	.LBE138:
 3094              	.LBE137:
 3095              		.loc 1 811 13 view .LVU891
 3096 021c 2383     		strh	r3, [r4, #24]	@ movhi
 3097              		.loc 1 812 3 is_stmt 1 view .LVU892
 3098              	.LVL301:
 3099              	.LBB140:
 3100              	.LBI137:
 3101              		.loc 1 714 6 view .LVU893
 3102              	.LBB139:
 3103              		.loc 1 716 2 view .LVU894
 3104              		.loc 1 717 2 view .LVU895
 3105              		.loc 1 718 12 is_stmt 0 view .LVU896
 3106 021e ADF80A30 		strh	r3, [sp, #10]	@ movhi
 3107              		.loc 1 719 2 view .LVU897
 3108 0222 2046     		mov	r0, r4
 3109 0224 0423     		movs	r3, #4
 3110 0226 02AA     		add	r2, sp, #8
 3111              	.LVL302:
 3112              		.loc 1 719 2 view .LVU898
 3113 0228 49F20A01 		movw	r1, #36874
 3114              		.loc 1 717 12 view .LVU899
 3115 022c ADF80850 		strh	r5, [sp, #8]	@ movhi
 3116              		.loc 1 718 2 is_stmt 1 view .LVU900
 3117              		.loc 1 719 2 view .LVU901
 3118 0230 FFF7FEFF 		bl	AsebaSendMessage
 3119              	.LVL303:
 3120              		.loc 1 720 1 is_stmt 0 view .LVU902
 3121 0234 51E7     		b	.L241
 3122              	.LVL304:
 3123              	.L249:
 3124              		.loc 1 720 1 view .LVU903
 3125              	.LBE139:
 3126              	.LBE140:
 3127              		.loc 1 871 3 is_stmt 1 view .LVU904
 3128 0236 2046     		mov	r0, r4
 3129 0238 FFF7FEFF 		bl	AsebaPutVmToSleep
 3130              	.LVL305:
 3131              		.loc 1 872 3 view .LVU905
 3132 023c 4DE7     		b	.L241
 3133              	.LVL306:
 3134              	.L247:
 3135              		.loc 1 875 3 view .LVU906
ARM GAS  /tmp/cclXoGh5.s 			page 56


 3136 023e 2046     		mov	r0, r4
 3137 0240 56E7     		b	.L301
 3138              	.L253:
 3139              	.LBB141:
 3140              		.loc 1 838 4 view .LVU907
 3141              	.LVL307:
 3142              		.loc 1 839 4 view .LVU908
 3143              		.loc 1 844 4 view .LVU909
 3144 0242 AA88     		ldrh	r2, [r5, #4]
 3145              	.LVL308:
 3146              		.loc 1 844 4 is_stmt 0 view .LVU910
 3147 0244 6988     		ldrh	r1, [r5, #2]
 3148 0246 2046     		mov	r0, r4
 3149 0248 FFF7FEFF 		bl	AsebaSendVariables
 3150              	.LVL309:
 3151              		.loc 1 844 4 view .LVU911
 3152              	.LBE141:
 3153              		.loc 1 846 3 is_stmt 1 view .LVU912
 3154 024c 45E7     		b	.L241
 3155              	.LVL310:
 3156              	.L279:
 3157              	.LBB142:
 3158              	.LBB123:
 3159              	.LBB121:
 3160              		.loc 1 846 3 is_stmt 0 view .LVU913
 3161 024e 0025     		movs	r5, #0
 3162              	.LVL311:
 3163              		.loc 1 846 3 view .LVU914
 3164 0250 6CE7     		b	.L272
 3165              	.LVL312:
 3166              	.L306:
 3167              		.loc 1 846 3 view .LVU915
 3168              	.LBE121:
 3169              	.LBE123:
 3170              	.LBE142:
 3171              		.loc 1 881 1 view .LVU916
 3172 0252 FFF7FEFF 		bl	__stack_chk_fail
 3173              	.LVL313:
 3174              	.L308:
 3175 0256 00BF     		.align	2
 3176              	.L307:
 3177 0258 00000000 		.word	.LC14
 3178 025c 00000000 		.word	AsebaVMResetCB
 3179 0260 00000000 		.word	AsebaVMRunCB
 3180              		.cfi_endproc
 3181              	.LFE16:
 3182              		.size	AsebaVMDebugMessage, .-AsebaVMDebugMessage
 3183              		.section	.rodata.AsebaVMShouldDropPacket.cst4,"aM",%progbits,4
 3184              		.align	2
 3185              	.LC15:
 3186 0000 00000000 		.word	__stack_chk_guard
 3187              		.section	.text.AsebaVMShouldDropPacket,"ax",%progbits
 3188              		.align	1
 3189              		.p2align 4,,15
 3190              		.global	AsebaVMShouldDropPacket
 3191              		.syntax unified
 3192              		.thumb
ARM GAS  /tmp/cclXoGh5.s 			page 57


 3193              		.thumb_func
 3194              		.fpu fpv4-sp-d16
 3195              		.type	AsebaVMShouldDropPacket, %function
 3196              	AsebaVMShouldDropPacket:
 3197              	.LVL314:
 3198              	.LFB17:
 3199              		.loc 1 884 1 is_stmt 1 view -0
 3200              		.cfi_startproc
 3201              		@ args = 0, pretend = 0, frame = 8
 3202              		@ frame_needed = 0, uses_anonymous_args = 0
 3203              		.loc 1 884 1 is_stmt 0 view .LVU918
 3204 0000 10B5     		push	{r4, lr}
 3205              		.cfi_def_cfa_offset 8
 3206              		.cfi_offset 4, -8
 3207              		.cfi_offset 14, -4
 3208              		.loc 1 887 5 view .LVU919
 3209 0002 B2F90030 		ldrsh	r3, [r2]
 3210              		.loc 1 884 1 view .LVU920
 3211 0006 1C49     		ldr	r1, .L325
 3212              	.LVL315:
 3213              		.loc 1 884 1 view .LVU921
 3214 0008 82B0     		sub	sp, sp, #8
 3215              		.cfi_def_cfa_offset 16
 3216              		.loc 1 887 5 view .LVU922
 3217 000a 002B     		cmp	r3, #0
 3218              		.loc 1 884 1 view .LVU923
 3219 000c 0968     		ldr	r1, [r1]
 3220 000e 0191     		str	r1, [sp, #4]
 3221 0010 4FF00001 		mov	r1,#0
 3222              		.loc 1 885 2 is_stmt 1 view .LVU924
 3223              		.loc 1 885 22 view .LVU925
 3224              		.loc 1 886 2 view .LVU926
 3225              		.loc 1 886 9 is_stmt 0 view .LVU927
 3226 0014 1188     		ldrh	r1, [r2]
 3227              	.LVL316:
 3228              		.loc 1 887 2 is_stmt 1 view .LVU928
 3229              		.loc 1 887 5 is_stmt 0 view .LVU929
 3230 0016 15DA     		bge	.L322
 3231              		.loc 1 892 7 is_stmt 1 view .LVU930
 3232              		.loc 1 892 10 is_stmt 0 view .LVU931
 3233 0018 B1F5204F 		cmp	r1, #40960
 3234 001c 07D2     		bcs	.L323
 3235              	.LVL317:
 3236              	.L317:
 3237              		.loc 1 903 9 view .LVU932
 3238 001e 0120     		movs	r0, #1
 3239              	.L314:
 3240              		.loc 1 904 1 view .LVU933
 3241 0020 154B     		ldr	r3, .L325
 3242 0022 1A68     		ldr	r2, [r3]
 3243 0024 019B     		ldr	r3, [sp, #4]
 3244 0026 5A40     		eors	r2, r3, r2
 3245 0028 23D1     		bne	.L324
 3246 002a 02B0     		add	sp, sp, #8
 3247              		.cfi_remember_state
 3248              		.cfi_def_cfa_offset 8
 3249              		@ sp needed
ARM GAS  /tmp/cclXoGh5.s 			page 58


 3250 002c 10BD     		pop	{r4, pc}
 3251              	.LVL318:
 3252              	.L323:
 3253              		.cfi_restore_state
 3254              	.LBB143:
 3255              		.loc 1 895 3 is_stmt 1 view .LVU934
 3256              		.loc 1 896 3 view .LVU935
 3257              		.loc 1 896 6 is_stmt 0 view .LVU936
 3258 002e 1ED0     		beq	.L319
 3259              		.loc 1 896 47 discriminator 1 view .LVU937
 3260 0030 4AF21103 		movw	r3, #40977
 3261 0034 9942     		cmp	r1, r3
 3262 0036 1AD0     		beq	.L319
 3263              		.loc 1 901 3 is_stmt 1 view .LVU938
 3264              		.loc 1 901 15 is_stmt 0 view .LVU939
 3265 0038 0088     		ldrh	r0, [r0]
 3266              	.LVL319:
 3267              		.loc 1 901 15 view .LVU940
 3268 003a 5388     		ldrh	r3, [r2, #2]
 3269 003c C01A     		subs	r0, r0, r3
 3270 003e 18BF     		it	ne
 3271 0040 0120     		movne	r0, #1
 3272 0042 EDE7     		b	.L314
 3273              	.LVL320:
 3274              	.L322:
 3275              		.loc 1 901 15 view .LVU941
 3276              	.LBE143:
 3277              		.loc 1 890 3 is_stmt 1 view .LVU942
 3278              	.LBB144:
 3279              	.LBI144:
 3280              		.loc 1 55 8 view .LVU943
 3281              	.LBB145:
 3282              		.loc 1 57 2 view .LVU944
 3283              		.loc 1 57 29 is_stmt 0 view .LVU945
 3284 0044 4068     		ldr	r0, [r0, #4]
 3285              	.LVL321:
 3286              		.loc 1 57 9 view .LVU946
 3287 0046 0488     		ldrh	r4, [r0]
 3288              	.LVL322:
 3289              		.loc 1 58 2 is_stmt 1 view .LVU947
 3290              		.loc 1 61 2 view .LVU948
 3291              		.loc 1 61 14 view .LVU949
 3292              		.loc 1 61 2 is_stmt 0 view .LVU950
 3293 0048 012C     		cmp	r4, #1
 3294 004a E8D9     		bls	.L317
 3295 004c 0123     		movs	r3, #1
 3296 004e 03E0     		b	.L313
 3297              	.LVL323:
 3298              	.L312:
 3299              		.loc 1 61 35 is_stmt 1 view .LVU951
 3300              		.loc 1 61 14 view .LVU952
 3301 0050 0233     		adds	r3, r3, #2
 3302              	.LVL324:
 3303              		.loc 1 61 2 is_stmt 0 view .LVU953
 3304 0052 9AB2     		uxth	r2, r3
 3305 0054 9442     		cmp	r4, r2
 3306 0056 E2D9     		bls	.L317
ARM GAS  /tmp/cclXoGh5.s 			page 59


 3307              	.L313:
 3308              	.LVL325:
 3309              		.loc 1 62 3 is_stmt 1 view .LVU954
 3310              		.loc 1 62 6 is_stmt 0 view .LVU955
 3311 0058 30F81320 		ldrh	r2, [r0, r3, lsl #1]
 3312 005c 8A42     		cmp	r2, r1
 3313 005e F7D1     		bne	.L312
 3314              		.loc 1 63 4 is_stmt 1 view .LVU956
 3315              		.loc 1 63 23 is_stmt 0 view .LVU957
 3316 0060 0133     		adds	r3, r3, #1
 3317              	.LVL326:
 3318              		.loc 1 63 23 view .LVU958
 3319 0062 30F81300 		ldrh	r0, [r0, r3, lsl #1]
 3320 0066 B0FA80F0 		clz	r0, r0
 3321 006a 4009     		lsrs	r0, r0, #5
 3322 006c D8E7     		b	.L314
 3323              	.LVL327:
 3324              	.L319:
 3325              		.loc 1 63 23 view .LVU959
 3326              	.LBE145:
 3327              	.LBE144:
 3328              	.LBB146:
 3329              		.loc 1 898 11 view .LVU960
 3330 006e 0020     		movs	r0, #0
 3331              	.LVL328:
 3332              		.loc 1 898 11 view .LVU961
 3333 0070 D6E7     		b	.L314
 3334              	.LVL329:
 3335              	.L324:
 3336              		.loc 1 898 11 view .LVU962
 3337              	.LBE146:
 3338              		.loc 1 904 1 view .LVU963
 3339 0072 FFF7FEFF 		bl	__stack_chk_fail
 3340              	.LVL330:
 3341              	.L326:
 3342              		.loc 1 904 1 view .LVU964
 3343 0076 00BF     		.align	2
 3344              	.L325:
 3345 0078 00000000 		.word	.LC15
 3346              		.cfi_endproc
 3347              	.LFE17:
 3348              		.size	AsebaVMShouldDropPacket, .-AsebaVMShouldDropPacket
 3349              		.weak	AsebaVMRunCB
 3350              		.weak	AsebaVMResetCB
 3351              		.weak	AsebaVMErrorCB
 3352              		.text
 3353              	.Letext0:
 3354              		.file 2 ".//aseba/vm/../common/consts.h"
 3355              		.file 3 "/usr/lib/gcc/arm-none-eabi/9.2.1/include/stddef.h"
 3356              		.file 4 "/usr/include/newlib/sys/_types.h"
 3357              		.file 5 "/usr/include/newlib/sys/reent.h"
 3358              		.file 6 "/usr/include/newlib/sys/lock.h"
 3359              		.file 7 "/usr/include/newlib/stdlib.h"
 3360              		.file 8 ".//aseba/vm/../common/types.h"
 3361              		.file 9 ".//aseba/vm/vm.h"
 3362              		.file 10 "/usr/include/newlib/string.h"
 3363              		.file 11 "<built-in>"
ARM GAS  /tmp/cclXoGh5.s 			page 60


 3364              		.section	.debug_info,"",%progbits
 3365              	.Ldebug_info0:
 3366 0000 F81E0000 		.4byte	0x1ef8
 3367 0004 0400     		.2byte	0x4
 3368 0006 00000000 		.4byte	.Ldebug_abbrev0
 3369 000a 04       		.byte	0x4
 3370 000b 01       		.uleb128 0x1
 3371 000c BF090000 		.4byte	.LASF271
 3372 0010 0C       		.byte	0xc
 3373 0011 280F0000 		.4byte	.LASF272
 3374 0015 90060000 		.4byte	.LASF273
 3375 0019 70010000 		.4byte	.Ldebug_ranges0+0x170
 3376 001d 00000000 		.4byte	0
 3377 0021 00000000 		.4byte	.Ldebug_line0
 3378 0025 02       		.uleb128 0x2
 3379 0026 07       		.byte	0x7
 3380 0027 01       		.byte	0x1
 3381 0028 8E000000 		.4byte	0x8e
 3382 002c 02       		.byte	0x2
 3383 002d 38       		.byte	0x38
 3384 002e 01       		.byte	0x1
 3385 002f 8E000000 		.4byte	0x8e
 3386 0033 03       		.uleb128 0x3
 3387 0034 210E0000 		.4byte	.LASF0
 3388 0038 00       		.byte	0
 3389 0039 03       		.uleb128 0x3
 3390 003a EA020000 		.4byte	.LASF1
 3391 003e 01       		.byte	0x1
 3392 003f 03       		.uleb128 0x3
 3393 0040 ED040000 		.4byte	.LASF2
 3394 0044 02       		.byte	0x2
 3395 0045 03       		.uleb128 0x3
 3396 0046 29090000 		.4byte	.LASF3
 3397 004a 03       		.byte	0x3
 3398 004b 03       		.uleb128 0x3
 3399 004c 5C080000 		.4byte	.LASF4
 3400 0050 04       		.byte	0x4
 3401 0051 03       		.uleb128 0x3
 3402 0052 980B0000 		.4byte	.LASF5
 3403 0056 05       		.byte	0x5
 3404 0057 03       		.uleb128 0x3
 3405 0058 4C0F0000 		.4byte	.LASF6
 3406 005c 06       		.byte	0x6
 3407 005d 03       		.uleb128 0x3
 3408 005e 280D0000 		.4byte	.LASF7
 3409 0062 07       		.byte	0x7
 3410 0063 03       		.uleb128 0x3
 3411 0064 3B0B0000 		.4byte	.LASF8
 3412 0068 08       		.byte	0x8
 3413 0069 03       		.uleb128 0x3
 3414 006a BE040000 		.4byte	.LASF9
 3415 006e 09       		.byte	0x9
 3416 006f 03       		.uleb128 0x3
 3417 0070 D8060000 		.4byte	.LASF10
 3418 0074 0A       		.byte	0xa
 3419 0075 03       		.uleb128 0x3
 3420 0076 9E0E0000 		.4byte	.LASF11
ARM GAS  /tmp/cclXoGh5.s 			page 61


 3421 007a 0B       		.byte	0xb
 3422 007b 03       		.uleb128 0x3
 3423 007c D2040000 		.4byte	.LASF12
 3424 0080 0C       		.byte	0xc
 3425 0081 03       		.uleb128 0x3
 3426 0082 2A070000 		.4byte	.LASF13
 3427 0086 0D       		.byte	0xd
 3428 0087 03       		.uleb128 0x3
 3429 0088 07040000 		.4byte	.LASF14
 3430 008c 0E       		.byte	0xe
 3431 008d 00       		.byte	0
 3432 008e 04       		.uleb128 0x4
 3433 008f 01       		.byte	0x1
 3434 0090 08       		.byte	0x8
 3435 0091 8E0C0000 		.4byte	.LASF42
 3436 0095 02       		.uleb128 0x2
 3437 0096 07       		.byte	0x7
 3438 0097 01       		.byte	0x1
 3439 0098 8E000000 		.4byte	0x8e
 3440 009c 02       		.byte	0x2
 3441 009d 4C       		.byte	0x4c
 3442 009e 01       		.byte	0x1
 3443 009f 10010000 		.4byte	0x110
 3444 00a3 03       		.uleb128 0x3
 3445 00a4 23050000 		.4byte	.LASF15
 3446 00a8 00       		.byte	0
 3447 00a9 03       		.uleb128 0x3
 3448 00aa 3A0C0000 		.4byte	.LASF16
 3449 00ae 01       		.byte	0x1
 3450 00af 03       		.uleb128 0x3
 3451 00b0 0A0C0000 		.4byte	.LASF17
 3452 00b4 02       		.byte	0x2
 3453 00b5 03       		.uleb128 0x3
 3454 00b6 8B0B0000 		.4byte	.LASF18
 3455 00ba 03       		.byte	0x3
 3456 00bb 03       		.uleb128 0x3
 3457 00bc 04110000 		.4byte	.LASF19
 3458 00c0 04       		.byte	0x4
 3459 00c1 03       		.uleb128 0x3
 3460 00c2 C60E0000 		.4byte	.LASF20
 3461 00c6 05       		.byte	0x5
 3462 00c7 03       		.uleb128 0x3
 3463 00c8 9C100000 		.4byte	.LASF21
 3464 00cc 06       		.byte	0x6
 3465 00cd 03       		.uleb128 0x3
 3466 00ce 840E0000 		.4byte	.LASF22
 3467 00d2 07       		.byte	0x7
 3468 00d3 03       		.uleb128 0x3
 3469 00d4 07120000 		.4byte	.LASF23
 3470 00d8 08       		.byte	0x8
 3471 00d9 03       		.uleb128 0x3
 3472 00da F6110000 		.4byte	.LASF24
 3473 00de 09       		.byte	0x9
 3474 00df 03       		.uleb128 0x3
 3475 00e0 58000000 		.4byte	.LASF25
 3476 00e4 0A       		.byte	0xa
 3477 00e5 03       		.uleb128 0x3
ARM GAS  /tmp/cclXoGh5.s 			page 62


 3478 00e6 26100000 		.4byte	.LASF26
 3479 00ea 0B       		.byte	0xb
 3480 00eb 03       		.uleb128 0x3
 3481 00ec 4F0C0000 		.4byte	.LASF27
 3482 00f0 0C       		.byte	0xc
 3483 00f1 03       		.uleb128 0x3
 3484 00f2 3D000000 		.4byte	.LASF28
 3485 00f6 0D       		.byte	0xd
 3486 00f7 03       		.uleb128 0x3
 3487 00f8 01070000 		.4byte	.LASF29
 3488 00fc 0E       		.byte	0xe
 3489 00fd 03       		.uleb128 0x3
 3490 00fe 7B100000 		.4byte	.LASF30
 3491 0102 0F       		.byte	0xf
 3492 0103 03       		.uleb128 0x3
 3493 0104 66110000 		.4byte	.LASF31
 3494 0108 10       		.byte	0x10
 3495 0109 03       		.uleb128 0x3
 3496 010a 32110000 		.4byte	.LASF32
 3497 010e 11       		.byte	0x11
 3498 010f 00       		.byte	0
 3499 0110 02       		.uleb128 0x2
 3500 0111 07       		.byte	0x7
 3501 0112 01       		.byte	0x1
 3502 0113 8E000000 		.4byte	0x8e
 3503 0117 02       		.byte	0x2
 3504 0118 6A       		.byte	0x6a
 3505 0119 01       		.byte	0x1
 3506 011a 37010000 		.4byte	0x137
 3507 011e 03       		.uleb128 0x3
 3508 011f FA000000 		.4byte	.LASF33
 3509 0123 00       		.byte	0
 3510 0124 03       		.uleb128 0x3
 3511 0125 06100000 		.4byte	.LASF34
 3512 0129 01       		.byte	0x1
 3513 012a 03       		.uleb128 0x3
 3514 012b 20000000 		.4byte	.LASF35
 3515 012f 02       		.byte	0x2
 3516 0130 03       		.uleb128 0x3
 3517 0131 DB030000 		.4byte	.LASF36
 3518 0135 03       		.byte	0x3
 3519 0136 00       		.byte	0
 3520 0137 02       		.uleb128 0x2
 3521 0138 07       		.byte	0x7
 3522 0139 01       		.byte	0x1
 3523 013a 8E000000 		.4byte	0x8e
 3524 013e 02       		.byte	0x2
 3525 013f 7B       		.byte	0x7b
 3526 0140 01       		.byte	0x1
 3527 0141 58010000 		.4byte	0x158
 3528 0145 03       		.uleb128 0x3
 3529 0146 A3040000 		.4byte	.LASF37
 3530 014a 01       		.byte	0x1
 3531 014b 03       		.uleb128 0x3
 3532 014c DF000000 		.4byte	.LASF38
 3533 0150 02       		.byte	0x2
 3534 0151 03       		.uleb128 0x3
ARM GAS  /tmp/cclXoGh5.s 			page 63


 3535 0152 8C080000 		.4byte	.LASF39
 3536 0156 04       		.byte	0x4
 3537 0157 00       		.byte	0
 3538 0158 02       		.uleb128 0x2
 3539 0159 07       		.byte	0x7
 3540 015a 02       		.byte	0x2
 3541 015b 75010000 		.4byte	0x175
 3542 015f 02       		.byte	0x2
 3543 0160 86       		.byte	0x86
 3544 0161 01       		.byte	0x1
 3545 0162 75010000 		.4byte	0x175
 3546 0166 05       		.uleb128 0x5
 3547 0167 5E030000 		.4byte	.LASF40
 3548 016b FFFF     		.2byte	0xffff
 3549 016d 05       		.uleb128 0x5
 3550 016e A00D0000 		.4byte	.LASF41
 3551 0172 FEFF     		.2byte	0xfffe
 3552 0174 00       		.byte	0
 3553 0175 04       		.uleb128 0x4
 3554 0176 02       		.byte	0x2
 3555 0177 07       		.byte	0x7
 3556 0178 17070000 		.4byte	.LASF43
 3557 017c 02       		.uleb128 0x2
 3558 017d 07       		.byte	0x7
 3559 017e 02       		.byte	0x2
 3560 017f 75010000 		.4byte	0x175
 3561 0183 02       		.byte	0x2
 3562 0184 90       		.byte	0x90
 3563 0185 01       		.byte	0x1
 3564 0186 9C020000 		.4byte	0x29c
 3565 018a 05       		.uleb128 0x5
 3566 018b 67070000 		.4byte	.LASF44
 3567 018f 0080     		.2byte	0x8000
 3568 0191 05       		.uleb128 0x5
 3569 0192 050D0000 		.4byte	.LASF45
 3570 0196 0180     		.2byte	0x8001
 3571 0198 05       		.uleb128 0x5
 3572 0199 98050000 		.4byte	.LASF46
 3573 019d 0280     		.2byte	0x8002
 3574 019f 05       		.uleb128 0x5
 3575 01a0 B5020000 		.4byte	.LASF47
 3576 01a4 0380     		.2byte	0x8003
 3577 01a6 05       		.uleb128 0x5
 3578 01a7 90020000 		.4byte	.LASF48
 3579 01ab 0480     		.2byte	0x8004
 3580 01ad 05       		.uleb128 0x5
 3581 01ae E1050000 		.4byte	.LASF49
 3582 01b2 0580     		.2byte	0x8005
 3583 01b4 05       		.uleb128 0x5
 3584 01b5 D7100000 		.4byte	.LASF50
 3585 01b9 0680     		.2byte	0x8006
 3586 01bb 05       		.uleb128 0x5
 3587 01bc 2E040000 		.4byte	.LASF51
 3588 01c0 0090     		.2byte	0x9000
 3589 01c2 05       		.uleb128 0x5
 3590 01c3 3B0E0000 		.4byte	.LASF52
 3591 01c7 0190     		.2byte	0x9001
ARM GAS  /tmp/cclXoGh5.s 			page 64


 3592 01c9 05       		.uleb128 0x5
 3593 01ca 6D090000 		.4byte	.LASF53
 3594 01ce 0290     		.2byte	0x9002
 3595 01d0 05       		.uleb128 0x5
 3596 01d1 640C0000 		.4byte	.LASF54
 3597 01d5 0390     		.2byte	0x9003
 3598 01d7 05       		.uleb128 0x5
 3599 01d8 8E070000 		.4byte	.LASF55
 3600 01dc 0490     		.2byte	0x9004
 3601 01de 05       		.uleb128 0x5
 3602 01df F0070000 		.4byte	.LASF56
 3603 01e3 0590     		.2byte	0x9005
 3604 01e5 05       		.uleb128 0x5
 3605 01e6 3D090000 		.4byte	.LASF57
 3606 01ea 0690     		.2byte	0x9006
 3607 01ec 05       		.uleb128 0x5
 3608 01ed 3F110000 		.4byte	.LASF58
 3609 01f1 0790     		.2byte	0x9007
 3610 01f3 05       		.uleb128 0x5
 3611 01f4 E00B0000 		.4byte	.LASF59
 3612 01f8 0890     		.2byte	0x9008
 3613 01fa 05       		.uleb128 0x5
 3614 01fb A5010000 		.4byte	.LASF60
 3615 01ff 0990     		.2byte	0x9009
 3616 0201 05       		.uleb128 0x5
 3617 0202 1C020000 		.4byte	.LASF61
 3618 0206 0A90     		.2byte	0x900a
 3619 0208 05       		.uleb128 0x5
 3620 0209 6F050000 		.4byte	.LASF62
 3621 020d 0B90     		.2byte	0x900b
 3622 020f 05       		.uleb128 0x5
 3623 0210 44060000 		.4byte	.LASF63
 3624 0214 0C90     		.2byte	0x900c
 3625 0216 05       		.uleb128 0x5
 3626 0217 40030000 		.4byte	.LASF64
 3627 021b 00A0     		.2byte	0xa000
 3628 021d 05       		.uleb128 0x5
 3629 021e 71080000 		.4byte	.LASF65
 3630 0222 01A0     		.2byte	0xa001
 3631 0224 05       		.uleb128 0x5
 3632 0225 67000000 		.4byte	.LASF66
 3633 0229 02A0     		.2byte	0xa002
 3634 022b 05       		.uleb128 0x5
 3635 022c 15030000 		.4byte	.LASF67
 3636 0230 03A0     		.2byte	0xa003
 3637 0232 05       		.uleb128 0x5
 3638 0233 F10C0000 		.4byte	.LASF68
 3639 0237 04A0     		.2byte	0xa004
 3640 0239 05       		.uleb128 0x5
 3641 023a B1080000 		.4byte	.LASF69
 3642 023e 05A0     		.2byte	0xa005
 3643 0240 05       		.uleb128 0x5
 3644 0241 6A0F0000 		.4byte	.LASF70
 3645 0245 06A0     		.2byte	0xa006
 3646 0247 05       		.uleb128 0x5
 3647 0248 CF0C0000 		.4byte	.LASF71
 3648 024c 07A0     		.2byte	0xa007
ARM GAS  /tmp/cclXoGh5.s 			page 65


 3649 024e 05       		.uleb128 0x5
 3650 024f B0110000 		.4byte	.LASF72
 3651 0253 08A0     		.2byte	0xa008
 3652 0255 05       		.uleb128 0x5
 3653 0256 7D0F0000 		.4byte	.LASF73
 3654 025a 09A0     		.2byte	0xa009
 3655 025c 05       		.uleb128 0x5
 3656 025d 110B0000 		.4byte	.LASF74
 3657 0261 0AA0     		.2byte	0xa00a
 3658 0263 05       		.uleb128 0x5
 3659 0264 53040000 		.4byte	.LASF75
 3660 0268 0BA0     		.2byte	0xa00b
 3661 026a 05       		.uleb128 0x5
 3662 026b B7070000 		.4byte	.LASF76
 3663 026f 0CA0     		.2byte	0xa00c
 3664 0271 05       		.uleb128 0x5
 3665 0272 72110000 		.4byte	.LASF77
 3666 0276 0DA0     		.2byte	0xa00d
 3667 0278 05       		.uleb128 0x5
 3668 0279 7B060000 		.4byte	.LASF78
 3669 027d 0EA0     		.2byte	0xa00e
 3670 027f 05       		.uleb128 0x5
 3671 0280 33010000 		.4byte	.LASF79
 3672 0284 0FA0     		.2byte	0xa00f
 3673 0286 05       		.uleb128 0x5
 3674 0287 EC080000 		.4byte	.LASF80
 3675 028b 10A0     		.2byte	0xa010
 3676 028d 05       		.uleb128 0x5
 3677 028e 0F0F0000 		.4byte	.LASF81
 3678 0292 11A0     		.2byte	0xa011
 3679 0294 05       		.uleb128 0x5
 3680 0295 17080000 		.4byte	.LASF82
 3681 0299 FFFF     		.2byte	0xffff
 3682 029b 00       		.byte	0
 3683 029c 04       		.uleb128 0x4
 3684 029d 04       		.byte	0x4
 3685 029e 07       		.byte	0x7
 3686 029f BC050000 		.4byte	.LASF83
 3687 02a3 06       		.uleb128 0x6
 3688 02a4 04       		.byte	0x4
 3689 02a5 05       		.byte	0x5
 3690 02a6 696E7400 		.ascii	"int\000"
 3691 02aa 04       		.uleb128 0x4
 3692 02ab 08       		.byte	0x8
 3693 02ac 05       		.byte	0x5
 3694 02ad EE030000 		.4byte	.LASF84
 3695 02b1 04       		.uleb128 0x4
 3696 02b2 08       		.byte	0x8
 3697 02b3 04       		.byte	0x4
 3698 02b4 0F090000 		.4byte	.LASF85
 3699 02b8 07       		.uleb128 0x7
 3700 02b9 B0070000 		.4byte	.LASF91
 3701 02bd 03       		.byte	0x3
 3702 02be 5E01     		.2byte	0x15e
 3703 02c0 17       		.byte	0x17
 3704 02c1 9C020000 		.4byte	0x29c
 3705 02c5 04       		.uleb128 0x4
ARM GAS  /tmp/cclXoGh5.s 			page 66


 3706 02c6 01       		.byte	0x1
 3707 02c7 06       		.byte	0x6
 3708 02c8 DE020000 		.4byte	.LASF86
 3709 02cc 04       		.uleb128 0x4
 3710 02cd 02       		.byte	0x2
 3711 02ce 05       		.byte	0x5
 3712 02cf 510D0000 		.4byte	.LASF87
 3713 02d3 04       		.uleb128 0x4
 3714 02d4 04       		.byte	0x4
 3715 02d5 05       		.byte	0x5
 3716 02d6 95030000 		.4byte	.LASF88
 3717 02da 04       		.uleb128 0x4
 3718 02db 04       		.byte	0x4
 3719 02dc 07       		.byte	0x7
 3720 02dd 32060000 		.4byte	.LASF89
 3721 02e1 04       		.uleb128 0x4
 3722 02e2 08       		.byte	0x8
 3723 02e3 07       		.byte	0x7
 3724 02e4 72010000 		.4byte	.LASF90
 3725 02e8 08       		.uleb128 0x8
 3726 02e9 340B0000 		.4byte	.LASF92
 3727 02ed 04       		.byte	0x4
 3728 02ee 2E       		.byte	0x2e
 3729 02ef 0E       		.byte	0xe
 3730 02f0 D3020000 		.4byte	0x2d3
 3731 02f4 08       		.uleb128 0x8
 3732 02f5 B20E0000 		.4byte	.LASF93
 3733 02f9 04       		.byte	0x4
 3734 02fa 74       		.byte	0x74
 3735 02fb 0E       		.byte	0xe
 3736 02fc D3020000 		.4byte	0x2d3
 3737 0300 09       		.uleb128 0x9
 3738 0301 04       		.byte	0x4
 3739 0302 04       		.byte	0x4
 3740 0303 A5       		.byte	0xa5
 3741 0304 03       		.byte	0x3
 3742 0305 22030000 		.4byte	0x322
 3743 0309 0A       		.uleb128 0xa
 3744 030a 27030000 		.4byte	.LASF94
 3745 030e 04       		.byte	0x4
 3746 030f A7       		.byte	0xa7
 3747 0310 0C       		.byte	0xc
 3748 0311 B8020000 		.4byte	0x2b8
 3749 0315 0A       		.uleb128 0xa
 3750 0316 C9050000 		.4byte	.LASF95
 3751 031a 04       		.byte	0x4
 3752 031b A8       		.byte	0xa8
 3753 031c 13       		.byte	0x13
 3754 031d 22030000 		.4byte	0x322
 3755 0321 00       		.byte	0
 3756 0322 0B       		.uleb128 0xb
 3757 0323 8E000000 		.4byte	0x8e
 3758 0327 32030000 		.4byte	0x332
 3759 032b 0C       		.uleb128 0xc
 3760 032c 9C020000 		.4byte	0x29c
 3761 0330 03       		.byte	0x3
 3762 0331 00       		.byte	0
ARM GAS  /tmp/cclXoGh5.s 			page 67


 3763 0332 0D       		.uleb128 0xd
 3764 0333 08       		.byte	0x8
 3765 0334 04       		.byte	0x4
 3766 0335 A2       		.byte	0xa2
 3767 0336 09       		.byte	0x9
 3768 0337 56030000 		.4byte	0x356
 3769 033b 0E       		.uleb128 0xe
 3770 033c 640E0000 		.4byte	.LASF96
 3771 0340 04       		.byte	0x4
 3772 0341 A4       		.byte	0xa4
 3773 0342 07       		.byte	0x7
 3774 0343 A3020000 		.4byte	0x2a3
 3775 0347 00       		.byte	0
 3776 0348 0E       		.uleb128 0xe
 3777 0349 6C0E0000 		.4byte	.LASF97
 3778 034d 04       		.byte	0x4
 3779 034e A9       		.byte	0xa9
 3780 034f 05       		.byte	0x5
 3781 0350 00030000 		.4byte	0x300
 3782 0354 04       		.byte	0x4
 3783 0355 00       		.byte	0
 3784 0356 08       		.uleb128 0x8
 3785 0357 790D0000 		.4byte	.LASF98
 3786 035b 04       		.byte	0x4
 3787 035c AA       		.byte	0xaa
 3788 035d 03       		.byte	0x3
 3789 035e 32030000 		.4byte	0x332
 3790 0362 0F       		.uleb128 0xf
 3791 0363 04       		.byte	0x4
 3792 0364 08       		.uleb128 0x8
 3793 0365 B60F0000 		.4byte	.LASF99
 3794 0369 05       		.byte	0x5
 3795 036a 16       		.byte	0x16
 3796 036b 19       		.byte	0x19
 3797 036c DA020000 		.4byte	0x2da
 3798 0370 08       		.uleb128 0x8
 3799 0371 170C0000 		.4byte	.LASF100
 3800 0375 06       		.byte	0x6
 3801 0376 0C       		.byte	0xc
 3802 0377 0D       		.byte	0xd
 3803 0378 A3020000 		.4byte	0x2a3
 3804 037c 08       		.uleb128 0x8
 3805 037d 37050000 		.4byte	.LASF101
 3806 0381 05       		.byte	0x5
 3807 0382 23       		.byte	0x23
 3808 0383 1B       		.byte	0x1b
 3809 0384 70030000 		.4byte	0x370
 3810 0388 10       		.uleb128 0x10
 3811 0389 48050000 		.4byte	.LASF106
 3812 038d 18       		.byte	0x18
 3813 038e 05       		.byte	0x5
 3814 038f 34       		.byte	0x34
 3815 0390 08       		.byte	0x8
 3816 0391 E2030000 		.4byte	0x3e2
 3817 0395 0E       		.uleb128 0xe
 3818 0396 460F0000 		.4byte	.LASF102
 3819 039a 05       		.byte	0x5
ARM GAS  /tmp/cclXoGh5.s 			page 68


 3820 039b 36       		.byte	0x36
 3821 039c 13       		.byte	0x13
 3822 039d E2030000 		.4byte	0x3e2
 3823 03a1 00       		.byte	0
 3824 03a2 11       		.uleb128 0x11
 3825 03a3 5F6B00   		.ascii	"_k\000"
 3826 03a6 05       		.byte	0x5
 3827 03a7 37       		.byte	0x37
 3828 03a8 07       		.byte	0x7
 3829 03a9 A3020000 		.4byte	0x2a3
 3830 03ad 04       		.byte	0x4
 3831 03ae 0E       		.uleb128 0xe
 3832 03af 120E0000 		.4byte	.LASF103
 3833 03b3 05       		.byte	0x5
 3834 03b4 37       		.byte	0x37
 3835 03b5 0B       		.byte	0xb
 3836 03b6 A3020000 		.4byte	0x2a3
 3837 03ba 08       		.byte	0x8
 3838 03bb 0E       		.uleb128 0xe
 3839 03bc 1D050000 		.4byte	.LASF104
 3840 03c0 05       		.byte	0x5
 3841 03c1 37       		.byte	0x37
 3842 03c2 14       		.byte	0x14
 3843 03c3 A3020000 		.4byte	0x2a3
 3844 03c7 0C       		.byte	0xc
 3845 03c8 0E       		.uleb128 0xe
 3846 03c9 97100000 		.4byte	.LASF105
 3847 03cd 05       		.byte	0x5
 3848 03ce 37       		.byte	0x37
 3849 03cf 1B       		.byte	0x1b
 3850 03d0 A3020000 		.4byte	0x2a3
 3851 03d4 10       		.byte	0x10
 3852 03d5 11       		.uleb128 0x11
 3853 03d6 5F7800   		.ascii	"_x\000"
 3854 03d9 05       		.byte	0x5
 3855 03da 38       		.byte	0x38
 3856 03db 0B       		.byte	0xb
 3857 03dc E8030000 		.4byte	0x3e8
 3858 03e0 14       		.byte	0x14
 3859 03e1 00       		.byte	0
 3860 03e2 12       		.uleb128 0x12
 3861 03e3 04       		.byte	0x4
 3862 03e4 88030000 		.4byte	0x388
 3863 03e8 0B       		.uleb128 0xb
 3864 03e9 64030000 		.4byte	0x364
 3865 03ed F8030000 		.4byte	0x3f8
 3866 03f1 0C       		.uleb128 0xc
 3867 03f2 9C020000 		.4byte	0x29c
 3868 03f6 00       		.byte	0
 3869 03f7 00       		.byte	0
 3870 03f8 10       		.uleb128 0x10
 3871 03f9 93050000 		.4byte	.LASF107
 3872 03fd 24       		.byte	0x24
 3873 03fe 05       		.byte	0x5
 3874 03ff 3C       		.byte	0x3c
 3875 0400 08       		.byte	0x8
 3876 0401 7B040000 		.4byte	0x47b
ARM GAS  /tmp/cclXoGh5.s 			page 69


 3877 0405 0E       		.uleb128 0xe
 3878 0406 87020000 		.4byte	.LASF108
 3879 040a 05       		.byte	0x5
 3880 040b 3E       		.byte	0x3e
 3881 040c 09       		.byte	0x9
 3882 040d A3020000 		.4byte	0x2a3
 3883 0411 00       		.byte	0
 3884 0412 0E       		.uleb128 0xe
 3885 0413 D30E0000 		.4byte	.LASF109
 3886 0417 05       		.byte	0x5
 3887 0418 3F       		.byte	0x3f
 3888 0419 09       		.byte	0x9
 3889 041a A3020000 		.4byte	0x2a3
 3890 041e 04       		.byte	0x4
 3891 041f 0E       		.uleb128 0xe
 3892 0420 740E0000 		.4byte	.LASF110
 3893 0424 05       		.byte	0x5
 3894 0425 40       		.byte	0x40
 3895 0426 09       		.byte	0x9
 3896 0427 A3020000 		.4byte	0x2a3
 3897 042b 08       		.byte	0x8
 3898 042c 0E       		.uleb128 0xe
 3899 042d 18120000 		.4byte	.LASF111
 3900 0431 05       		.byte	0x5
 3901 0432 41       		.byte	0x41
 3902 0433 09       		.byte	0x9
 3903 0434 A3020000 		.4byte	0x2a3
 3904 0438 0C       		.byte	0xc
 3905 0439 0E       		.uleb128 0xe
 3906 043a 9B090000 		.4byte	.LASF112
 3907 043e 05       		.byte	0x5
 3908 043f 42       		.byte	0x42
 3909 0440 09       		.byte	0x9
 3910 0441 A3020000 		.4byte	0x2a3
 3911 0445 10       		.byte	0x10
 3912 0446 0E       		.uleb128 0xe
 3913 0447 3B080000 		.4byte	.LASF113
 3914 044b 05       		.byte	0x5
 3915 044c 43       		.byte	0x43
 3916 044d 09       		.byte	0x9
 3917 044e A3020000 		.4byte	0x2a3
 3918 0452 14       		.byte	0x14
 3919 0453 0E       		.uleb128 0xe
 3920 0454 940E0000 		.4byte	.LASF114
 3921 0458 05       		.byte	0x5
 3922 0459 44       		.byte	0x44
 3923 045a 09       		.byte	0x9
 3924 045b A3020000 		.4byte	0x2a3
 3925 045f 18       		.byte	0x18
 3926 0460 0E       		.uleb128 0xe
 3927 0461 5B0D0000 		.4byte	.LASF115
 3928 0465 05       		.byte	0x5
 3929 0466 45       		.byte	0x45
 3930 0467 09       		.byte	0x9
 3931 0468 A3020000 		.4byte	0x2a3
 3932 046c 1C       		.byte	0x1c
 3933 046d 0E       		.uleb128 0xe
ARM GAS  /tmp/cclXoGh5.s 			page 70


 3934 046e 8F110000 		.4byte	.LASF116
 3935 0472 05       		.byte	0x5
 3936 0473 46       		.byte	0x46
 3937 0474 09       		.byte	0x9
 3938 0475 A3020000 		.4byte	0x2a3
 3939 0479 20       		.byte	0x20
 3940 047a 00       		.byte	0
 3941 047b 13       		.uleb128 0x13
 3942 047c 32030000 		.4byte	.LASF117
 3943 0480 0801     		.2byte	0x108
 3944 0482 05       		.byte	0x5
 3945 0483 4F       		.byte	0x4f
 3946 0484 08       		.byte	0x8
 3947 0485 C0040000 		.4byte	0x4c0
 3948 0489 0E       		.uleb128 0xe
 3949 048a 8A040000 		.4byte	.LASF118
 3950 048e 05       		.byte	0x5
 3951 048f 50       		.byte	0x50
 3952 0490 0A       		.byte	0xa
 3953 0491 C0040000 		.4byte	0x4c0
 3954 0495 00       		.byte	0
 3955 0496 0E       		.uleb128 0xe
 3956 0497 00000000 		.4byte	.LASF119
 3957 049b 05       		.byte	0x5
 3958 049c 51       		.byte	0x51
 3959 049d 09       		.byte	0x9
 3960 049e C0040000 		.4byte	0x4c0
 3961 04a2 80       		.byte	0x80
 3962 04a3 14       		.uleb128 0x14
 3963 04a4 9C0F0000 		.4byte	.LASF120
 3964 04a8 05       		.byte	0x5
 3965 04a9 53       		.byte	0x53
 3966 04aa 0A       		.byte	0xa
 3967 04ab 64030000 		.4byte	0x364
 3968 04af 0001     		.2byte	0x100
 3969 04b1 14       		.uleb128 0x14
 3970 04b2 BD030000 		.4byte	.LASF121
 3971 04b6 05       		.byte	0x5
 3972 04b7 56       		.byte	0x56
 3973 04b8 0A       		.byte	0xa
 3974 04b9 64030000 		.4byte	0x364
 3975 04bd 0401     		.2byte	0x104
 3976 04bf 00       		.byte	0
 3977 04c0 0B       		.uleb128 0xb
 3978 04c1 62030000 		.4byte	0x362
 3979 04c5 D0040000 		.4byte	0x4d0
 3980 04c9 0C       		.uleb128 0xc
 3981 04ca 9C020000 		.4byte	0x29c
 3982 04ce 1F       		.byte	0x1f
 3983 04cf 00       		.byte	0
 3984 04d0 13       		.uleb128 0x13
 3985 04d1 AD090000 		.4byte	.LASF122
 3986 04d5 9001     		.2byte	0x190
 3987 04d7 05       		.byte	0x5
 3988 04d8 62       		.byte	0x62
 3989 04d9 08       		.byte	0x8
 3990 04da 13050000 		.4byte	0x513
ARM GAS  /tmp/cclXoGh5.s 			page 71


 3991 04de 0E       		.uleb128 0xe
 3992 04df 460F0000 		.4byte	.LASF102
 3993 04e3 05       		.byte	0x5
 3994 04e4 63       		.byte	0x63
 3995 04e5 12       		.byte	0x12
 3996 04e6 13050000 		.4byte	0x513
 3997 04ea 00       		.byte	0
 3998 04eb 0E       		.uleb128 0xe
 3999 04ec D10D0000 		.4byte	.LASF123
 4000 04f0 05       		.byte	0x5
 4001 04f1 64       		.byte	0x64
 4002 04f2 06       		.byte	0x6
 4003 04f3 A3020000 		.4byte	0x2a3
 4004 04f7 04       		.byte	0x4
 4005 04f8 0E       		.uleb128 0xe
 4006 04f9 0C050000 		.4byte	.LASF124
 4007 04fd 05       		.byte	0x5
 4008 04fe 66       		.byte	0x66
 4009 04ff 09       		.byte	0x9
 4010 0500 19050000 		.4byte	0x519
 4011 0504 08       		.byte	0x8
 4012 0505 0E       		.uleb128 0xe
 4013 0506 32030000 		.4byte	.LASF117
 4014 050a 05       		.byte	0x5
 4015 050b 67       		.byte	0x67
 4016 050c 1E       		.byte	0x1e
 4017 050d 7B040000 		.4byte	0x47b
 4018 0511 88       		.byte	0x88
 4019 0512 00       		.byte	0
 4020 0513 12       		.uleb128 0x12
 4021 0514 04       		.byte	0x4
 4022 0515 D0040000 		.4byte	0x4d0
 4023 0519 0B       		.uleb128 0xb
 4024 051a 29050000 		.4byte	0x529
 4025 051e 29050000 		.4byte	0x529
 4026 0522 0C       		.uleb128 0xc
 4027 0523 9C020000 		.4byte	0x29c
 4028 0527 1F       		.byte	0x1f
 4029 0528 00       		.byte	0
 4030 0529 12       		.uleb128 0x12
 4031 052a 04       		.byte	0x4
 4032 052b 2F050000 		.4byte	0x52f
 4033 052f 15       		.uleb128 0x15
 4034 0530 10       		.uleb128 0x10
 4035 0531 650D0000 		.4byte	.LASF125
 4036 0535 08       		.byte	0x8
 4037 0536 05       		.byte	0x5
 4038 0537 7A       		.byte	0x7a
 4039 0538 08       		.byte	0x8
 4040 0539 58050000 		.4byte	0x558
 4041 053d 0E       		.uleb128 0xe
 4042 053e 0F030000 		.4byte	.LASF126
 4043 0542 05       		.byte	0x5
 4044 0543 7B       		.byte	0x7b
 4045 0544 11       		.byte	0x11
 4046 0545 58050000 		.4byte	0x558
 4047 0549 00       		.byte	0
ARM GAS  /tmp/cclXoGh5.s 			page 72


 4048 054a 0E       		.uleb128 0xe
 4049 054b 23090000 		.4byte	.LASF127
 4050 054f 05       		.byte	0x5
 4051 0550 7C       		.byte	0x7c
 4052 0551 06       		.byte	0x6
 4053 0552 A3020000 		.4byte	0x2a3
 4054 0556 04       		.byte	0x4
 4055 0557 00       		.byte	0
 4056 0558 12       		.uleb128 0x12
 4057 0559 04       		.byte	0x4
 4058 055a 8E000000 		.4byte	0x8e
 4059 055e 10       		.uleb128 0x10
 4060 055f 840D0000 		.4byte	.LASF128
 4061 0563 68       		.byte	0x68
 4062 0564 05       		.byte	0x5
 4063 0565 BA       		.byte	0xba
 4064 0566 08       		.byte	0x8
 4065 0567 A1060000 		.4byte	0x6a1
 4066 056b 11       		.uleb128 0x11
 4067 056c 5F7000   		.ascii	"_p\000"
 4068 056f 05       		.byte	0x5
 4069 0570 BB       		.byte	0xbb
 4070 0571 12       		.byte	0x12
 4071 0572 58050000 		.4byte	0x558
 4072 0576 00       		.byte	0
 4073 0577 11       		.uleb128 0x11
 4074 0578 5F7200   		.ascii	"_r\000"
 4075 057b 05       		.byte	0x5
 4076 057c BC       		.byte	0xbc
 4077 057d 07       		.byte	0x7
 4078 057e A3020000 		.4byte	0x2a3
 4079 0582 04       		.byte	0x4
 4080 0583 11       		.uleb128 0x11
 4081 0584 5F7700   		.ascii	"_w\000"
 4082 0587 05       		.byte	0x5
 4083 0588 BD       		.byte	0xbd
 4084 0589 07       		.byte	0x7
 4085 058a A3020000 		.4byte	0x2a3
 4086 058e 08       		.byte	0x8
 4087 058f 0E       		.uleb128 0xe
 4088 0590 B6030000 		.4byte	.LASF129
 4089 0594 05       		.byte	0x5
 4090 0595 BE       		.byte	0xbe
 4091 0596 09       		.byte	0x9
 4092 0597 CC020000 		.4byte	0x2cc
 4093 059b 0C       		.byte	0xc
 4094 059c 0E       		.uleb128 0xe
 4095 059d 5F060000 		.4byte	.LASF130
 4096 05a1 05       		.byte	0x5
 4097 05a2 BF       		.byte	0xbf
 4098 05a3 09       		.byte	0x9
 4099 05a4 CC020000 		.4byte	0x2cc
 4100 05a8 0E       		.byte	0xe
 4101 05a9 11       		.uleb128 0x11
 4102 05aa 5F626600 		.ascii	"_bf\000"
 4103 05ae 05       		.byte	0x5
 4104 05af C0       		.byte	0xc0
ARM GAS  /tmp/cclXoGh5.s 			page 73


 4105 05b0 11       		.byte	0x11
 4106 05b1 30050000 		.4byte	0x530
 4107 05b5 10       		.byte	0x10
 4108 05b6 0E       		.uleb128 0xe
 4109 05b7 A4090000 		.4byte	.LASF131
 4110 05bb 05       		.byte	0x5
 4111 05bc C1       		.byte	0xc1
 4112 05bd 07       		.byte	0x7
 4113 05be A3020000 		.4byte	0x2a3
 4114 05c2 18       		.byte	0x18
 4115 05c3 0E       		.uleb128 0xe
 4116 05c4 6F030000 		.4byte	.LASF132
 4117 05c8 05       		.byte	0x5
 4118 05c9 C8       		.byte	0xc8
 4119 05ca 0A       		.byte	0xa
 4120 05cb 62030000 		.4byte	0x362
 4121 05cf 1C       		.byte	0x1c
 4122 05d0 0E       		.uleb128 0xe
 4123 05d1 5F050000 		.4byte	.LASF133
 4124 05d5 05       		.byte	0x5
 4125 05d6 CA       		.byte	0xca
 4126 05d7 1D       		.byte	0x1d
 4127 05d8 25080000 		.4byte	0x825
 4128 05dc 20       		.byte	0x20
 4129 05dd 0E       		.uleb128 0xe
 4130 05de 34080000 		.4byte	.LASF134
 4131 05e2 05       		.byte	0x5
 4132 05e3 CC       		.byte	0xcc
 4133 05e4 1D       		.byte	0x1d
 4134 05e5 4F080000 		.4byte	0x84f
 4135 05e9 24       		.byte	0x24
 4136 05ea 0E       		.uleb128 0xe
 4137 05eb 7E0E0000 		.4byte	.LASF135
 4138 05ef 05       		.byte	0x5
 4139 05f0 CF       		.byte	0xcf
 4140 05f1 0D       		.byte	0xd
 4141 05f2 73080000 		.4byte	0x873
 4142 05f6 28       		.byte	0x28
 4143 05f7 0E       		.uleb128 0xe
 4144 05f8 A9110000 		.4byte	.LASF136
 4145 05fc 05       		.byte	0x5
 4146 05fd D0       		.byte	0xd0
 4147 05fe 09       		.byte	0x9
 4148 05ff 8D080000 		.4byte	0x88d
 4149 0603 2C       		.byte	0x2c
 4150 0604 11       		.uleb128 0x11
 4151 0605 5F756200 		.ascii	"_ub\000"
 4152 0609 05       		.byte	0x5
 4153 060a D3       		.byte	0xd3
 4154 060b 11       		.byte	0x11
 4155 060c 30050000 		.4byte	0x530
 4156 0610 30       		.byte	0x30
 4157 0611 11       		.uleb128 0x11
 4158 0612 5F757000 		.ascii	"_up\000"
 4159 0616 05       		.byte	0x5
 4160 0617 D4       		.byte	0xd4
 4161 0618 12       		.byte	0x12
ARM GAS  /tmp/cclXoGh5.s 			page 74


 4162 0619 58050000 		.4byte	0x558
 4163 061d 38       		.byte	0x38
 4164 061e 11       		.uleb128 0x11
 4165 061f 5F757200 		.ascii	"_ur\000"
 4166 0623 05       		.byte	0x5
 4167 0624 D5       		.byte	0xd5
 4168 0625 07       		.byte	0x7
 4169 0626 A3020000 		.4byte	0x2a3
 4170 062a 3C       		.byte	0x3c
 4171 062b 0E       		.uleb128 0xe
 4172 062c 09030000 		.4byte	.LASF137
 4173 0630 05       		.byte	0x5
 4174 0631 D8       		.byte	0xd8
 4175 0632 11       		.byte	0x11
 4176 0633 93080000 		.4byte	0x893
 4177 0637 40       		.byte	0x40
 4178 0638 0E       		.uleb128 0xe
 4179 0639 11080000 		.4byte	.LASF138
 4180 063d 05       		.byte	0x5
 4181 063e D9       		.byte	0xd9
 4182 063f 11       		.byte	0x11
 4183 0640 A3080000 		.4byte	0x8a3
 4184 0644 43       		.byte	0x43
 4185 0645 11       		.uleb128 0x11
 4186 0646 5F6C6200 		.ascii	"_lb\000"
 4187 064a 05       		.byte	0x5
 4188 064b DC       		.byte	0xdc
 4189 064c 11       		.byte	0x11
 4190 064d 30050000 		.4byte	0x530
 4191 0651 44       		.byte	0x44
 4192 0652 0E       		.uleb128 0xe
 4193 0653 CC030000 		.4byte	.LASF139
 4194 0657 05       		.byte	0x5
 4195 0658 DF       		.byte	0xdf
 4196 0659 07       		.byte	0x7
 4197 065a A3020000 		.4byte	0x2a3
 4198 065e 4C       		.byte	0x4c
 4199 065f 0E       		.uleb128 0xe
 4200 0660 26040000 		.4byte	.LASF140
 4201 0664 05       		.byte	0x5
 4202 0665 E0       		.byte	0xe0
 4203 0666 0A       		.byte	0xa
 4204 0667 E8020000 		.4byte	0x2e8
 4205 066b 50       		.byte	0x50
 4206 066c 0E       		.uleb128 0xe
 4207 066d D9000000 		.4byte	.LASF141
 4208 0671 05       		.byte	0x5
 4209 0672 E3       		.byte	0xe3
 4210 0673 12       		.byte	0x12
 4211 0674 BF060000 		.4byte	0x6bf
 4212 0678 54       		.byte	0x54
 4213 0679 0E       		.uleb128 0xe
 4214 067a D3070000 		.4byte	.LASF142
 4215 067e 05       		.byte	0x5
 4216 067f E7       		.byte	0xe7
 4217 0680 0C       		.byte	0xc
 4218 0681 7C030000 		.4byte	0x37c
ARM GAS  /tmp/cclXoGh5.s 			page 75


 4219 0685 58       		.byte	0x58
 4220 0686 0E       		.uleb128 0xe
 4221 0687 8C0D0000 		.4byte	.LASF143
 4222 068b 05       		.byte	0x5
 4223 068c E9       		.byte	0xe9
 4224 068d 0E       		.byte	0xe
 4225 068e 56030000 		.4byte	0x356
 4226 0692 5C       		.byte	0x5c
 4227 0693 0E       		.uleb128 0xe
 4228 0694 E8070000 		.4byte	.LASF144
 4229 0698 05       		.byte	0x5
 4230 0699 EA       		.byte	0xea
 4231 069a 09       		.byte	0x9
 4232 069b A3020000 		.4byte	0x2a3
 4233 069f 64       		.byte	0x64
 4234 06a0 00       		.byte	0
 4235 06a1 16       		.uleb128 0x16
 4236 06a2 A3020000 		.4byte	0x2a3
 4237 06a6 BF060000 		.4byte	0x6bf
 4238 06aa 17       		.uleb128 0x17
 4239 06ab BF060000 		.4byte	0x6bf
 4240 06af 17       		.uleb128 0x17
 4241 06b0 62030000 		.4byte	0x362
 4242 06b4 17       		.uleb128 0x17
 4243 06b5 13080000 		.4byte	0x813
 4244 06b9 17       		.uleb128 0x17
 4245 06ba A3020000 		.4byte	0x2a3
 4246 06be 00       		.byte	0
 4247 06bf 12       		.uleb128 0x12
 4248 06c0 04       		.byte	0x4
 4249 06c1 CA060000 		.4byte	0x6ca
 4250 06c5 18       		.uleb128 0x18
 4251 06c6 BF060000 		.4byte	0x6bf
 4252 06ca 19       		.uleb128 0x19
 4253 06cb 1A0E0000 		.4byte	.LASF145
 4254 06cf 2804     		.2byte	0x428
 4255 06d1 05       		.byte	0x5
 4256 06d2 6502     		.2byte	0x265
 4257 06d4 08       		.byte	0x8
 4258 06d5 13080000 		.4byte	0x813
 4259 06d9 1A       		.uleb128 0x1a
 4260 06da BF0E0000 		.4byte	.LASF146
 4261 06de 05       		.byte	0x5
 4262 06df 6702     		.2byte	0x267
 4263 06e1 07       		.byte	0x7
 4264 06e2 A3020000 		.4byte	0x2a3
 4265 06e6 00       		.byte	0
 4266 06e7 1A       		.uleb128 0x1a
 4267 06e8 C5030000 		.4byte	.LASF147
 4268 06ec 05       		.byte	0x5
 4269 06ed 6C02     		.2byte	0x26c
 4270 06ef 0B       		.byte	0xb
 4271 06f0 FF080000 		.4byte	0x8ff
 4272 06f4 04       		.byte	0x4
 4273 06f5 1A       		.uleb128 0x1a
 4274 06f6 09060000 		.4byte	.LASF148
 4275 06fa 05       		.byte	0x5
ARM GAS  /tmp/cclXoGh5.s 			page 76


 4276 06fb 6C02     		.2byte	0x26c
 4277 06fd 14       		.byte	0x14
 4278 06fe FF080000 		.4byte	0x8ff
 4279 0702 08       		.byte	0x8
 4280 0703 1A       		.uleb128 0x1a
 4281 0704 40050000 		.4byte	.LASF149
 4282 0708 05       		.byte	0x5
 4283 0709 6C02     		.2byte	0x26c
 4284 070b 1E       		.byte	0x1e
 4285 070c FF080000 		.4byte	0x8ff
 4286 0710 0C       		.byte	0xc
 4287 0711 1A       		.uleb128 0x1a
 4288 0712 CC0D0000 		.4byte	.LASF150
 4289 0716 05       		.byte	0x5
 4290 0717 6E02     		.2byte	0x26e
 4291 0719 08       		.byte	0x8
 4292 071a A3020000 		.4byte	0x2a3
 4293 071e 10       		.byte	0x10
 4294 071f 1A       		.uleb128 0x1a
 4295 0720 8D000000 		.4byte	.LASF151
 4296 0724 05       		.byte	0x5
 4297 0725 6F02     		.2byte	0x26f
 4298 0727 08       		.byte	0x8
 4299 0728 FF0A0000 		.4byte	0xaff
 4300 072c 14       		.byte	0x14
 4301 072d 1A       		.uleb128 0x1a
 4302 072e E80D0000 		.4byte	.LASF152
 4303 0732 05       		.byte	0x5
 4304 0733 7202     		.2byte	0x272
 4305 0735 07       		.byte	0x7
 4306 0736 A3020000 		.4byte	0x2a3
 4307 073a 30       		.byte	0x30
 4308 073b 1A       		.uleb128 0x1a
 4309 073c D60D0000 		.4byte	.LASF153
 4310 0740 05       		.byte	0x5
 4311 0741 7302     		.2byte	0x273
 4312 0743 16       		.byte	0x16
 4313 0744 140B0000 		.4byte	0xb14
 4314 0748 34       		.byte	0x34
 4315 0749 1A       		.uleb128 0x1a
 4316 074a FC030000 		.4byte	.LASF154
 4317 074e 05       		.byte	0x5
 4318 074f 7502     		.2byte	0x275
 4319 0751 07       		.byte	0x7
 4320 0752 A3020000 		.4byte	0x2a3
 4321 0756 38       		.byte	0x38
 4322 0757 1A       		.uleb128 0x1a
 4323 0758 DE0D0000 		.4byte	.LASF155
 4324 075c 05       		.byte	0x5
 4325 075d 7702     		.2byte	0x277
 4326 075f 0A       		.byte	0xa
 4327 0760 250B0000 		.4byte	0xb25
 4328 0764 3C       		.byte	0x3c
 4329 0765 1A       		.uleb128 0x1a
 4330 0766 86070000 		.4byte	.LASF156
 4331 076a 05       		.byte	0x5
 4332 076b 7A02     		.2byte	0x27a
ARM GAS  /tmp/cclXoGh5.s 			page 77


 4333 076d 13       		.byte	0x13
 4334 076e E2030000 		.4byte	0x3e2
 4335 0772 40       		.byte	0x40
 4336 0773 1A       		.uleb128 0x1a
 4337 0774 65050000 		.4byte	.LASF157
 4338 0778 05       		.byte	0x5
 4339 0779 7B02     		.2byte	0x27b
 4340 077b 07       		.byte	0x7
 4341 077c A3020000 		.4byte	0x2a3
 4342 0780 44       		.byte	0x44
 4343 0781 1A       		.uleb128 0x1a
 4344 0782 E6110000 		.4byte	.LASF158
 4345 0786 05       		.byte	0x5
 4346 0787 7C02     		.2byte	0x27c
 4347 0789 13       		.byte	0x13
 4348 078a E2030000 		.4byte	0x3e2
 4349 078e 48       		.byte	0x48
 4350 078f 1A       		.uleb128 0x1a
 4351 0790 C40B0000 		.4byte	.LASF159
 4352 0794 05       		.byte	0x5
 4353 0795 7D02     		.2byte	0x27d
 4354 0797 14       		.byte	0x14
 4355 0798 2B0B0000 		.4byte	0xb2b
 4356 079c 4C       		.byte	0x4c
 4357 079d 1A       		.uleb128 0x1a
 4358 079e 2A060000 		.4byte	.LASF160
 4359 07a2 05       		.byte	0x5
 4360 07a3 8002     		.2byte	0x280
 4361 07a5 07       		.byte	0x7
 4362 07a6 A3020000 		.4byte	0x2a3
 4363 07aa 50       		.byte	0x50
 4364 07ab 1A       		.uleb128 0x1a
 4365 07ac 1E040000 		.4byte	.LASF161
 4366 07b0 05       		.byte	0x5
 4367 07b1 8102     		.2byte	0x281
 4368 07b3 09       		.byte	0x9
 4369 07b4 13080000 		.4byte	0x813
 4370 07b8 54       		.byte	0x54
 4371 07b9 1A       		.uleb128 0x1a
 4372 07ba AD0C0000 		.4byte	.LASF162
 4373 07be 05       		.byte	0x5
 4374 07bf A402     		.2byte	0x2a4
 4375 07c1 07       		.byte	0x7
 4376 07c2 DA0A0000 		.4byte	0xada
 4377 07c6 58       		.byte	0x58
 4378 07c7 1B       		.uleb128 0x1b
 4379 07c8 AD090000 		.4byte	.LASF122
 4380 07cc 05       		.byte	0x5
 4381 07cd A802     		.2byte	0x2a8
 4382 07cf 13       		.byte	0x13
 4383 07d0 13050000 		.4byte	0x513
 4384 07d4 4801     		.2byte	0x148
 4385 07d6 1B       		.uleb128 0x1b
 4386 07d7 BC000000 		.4byte	.LASF163
 4387 07db 05       		.byte	0x5
 4388 07dc A902     		.2byte	0x2a9
 4389 07de 12       		.byte	0x12
ARM GAS  /tmp/cclXoGh5.s 			page 78


 4390 07df D0040000 		.4byte	0x4d0
 4391 07e3 4C01     		.2byte	0x14c
 4392 07e5 1B       		.uleb128 0x1b
 4393 07e6 12110000 		.4byte	.LASF164
 4394 07ea 05       		.byte	0x5
 4395 07eb AD02     		.2byte	0x2ad
 4396 07ed 0C       		.byte	0xc
 4397 07ee 3C0B0000 		.4byte	0xb3c
 4398 07f2 DC02     		.2byte	0x2dc
 4399 07f4 1B       		.uleb128 0x1b
 4400 07f5 8D030000 		.4byte	.LASF165
 4401 07f9 05       		.byte	0x5
 4402 07fa B202     		.2byte	0x2b2
 4403 07fc 10       		.byte	0x10
 4404 07fd C0080000 		.4byte	0x8c0
 4405 0801 E002     		.2byte	0x2e0
 4406 0803 1B       		.uleb128 0x1b
 4407 0804 2D030000 		.4byte	.LASF166
 4408 0808 05       		.byte	0x5
 4409 0809 B402     		.2byte	0x2b4
 4410 080b 0A       		.byte	0xa
 4411 080c 480B0000 		.4byte	0xb48
 4412 0810 EC02     		.2byte	0x2ec
 4413 0812 00       		.byte	0
 4414 0813 12       		.uleb128 0x12
 4415 0814 04       		.byte	0x4
 4416 0815 19080000 		.4byte	0x819
 4417 0819 04       		.uleb128 0x4
 4418 081a 01       		.byte	0x1
 4419 081b 08       		.byte	0x8
 4420 081c BA0E0000 		.4byte	.LASF167
 4421 0820 18       		.uleb128 0x18
 4422 0821 19080000 		.4byte	0x819
 4423 0825 12       		.uleb128 0x12
 4424 0826 04       		.byte	0x4
 4425 0827 A1060000 		.4byte	0x6a1
 4426 082b 16       		.uleb128 0x16
 4427 082c A3020000 		.4byte	0x2a3
 4428 0830 49080000 		.4byte	0x849
 4429 0834 17       		.uleb128 0x17
 4430 0835 BF060000 		.4byte	0x6bf
 4431 0839 17       		.uleb128 0x17
 4432 083a 62030000 		.4byte	0x362
 4433 083e 17       		.uleb128 0x17
 4434 083f 49080000 		.4byte	0x849
 4435 0843 17       		.uleb128 0x17
 4436 0844 A3020000 		.4byte	0x2a3
 4437 0848 00       		.byte	0
 4438 0849 12       		.uleb128 0x12
 4439 084a 04       		.byte	0x4
 4440 084b 20080000 		.4byte	0x820
 4441 084f 12       		.uleb128 0x12
 4442 0850 04       		.byte	0x4
 4443 0851 2B080000 		.4byte	0x82b
 4444 0855 16       		.uleb128 0x16
 4445 0856 F4020000 		.4byte	0x2f4
 4446 085a 73080000 		.4byte	0x873
ARM GAS  /tmp/cclXoGh5.s 			page 79


 4447 085e 17       		.uleb128 0x17
 4448 085f BF060000 		.4byte	0x6bf
 4449 0863 17       		.uleb128 0x17
 4450 0864 62030000 		.4byte	0x362
 4451 0868 17       		.uleb128 0x17
 4452 0869 F4020000 		.4byte	0x2f4
 4453 086d 17       		.uleb128 0x17
 4454 086e A3020000 		.4byte	0x2a3
 4455 0872 00       		.byte	0
 4456 0873 12       		.uleb128 0x12
 4457 0874 04       		.byte	0x4
 4458 0875 55080000 		.4byte	0x855
 4459 0879 16       		.uleb128 0x16
 4460 087a A3020000 		.4byte	0x2a3
 4461 087e 8D080000 		.4byte	0x88d
 4462 0882 17       		.uleb128 0x17
 4463 0883 BF060000 		.4byte	0x6bf
 4464 0887 17       		.uleb128 0x17
 4465 0888 62030000 		.4byte	0x362
 4466 088c 00       		.byte	0
 4467 088d 12       		.uleb128 0x12
 4468 088e 04       		.byte	0x4
 4469 088f 79080000 		.4byte	0x879
 4470 0893 0B       		.uleb128 0xb
 4471 0894 8E000000 		.4byte	0x8e
 4472 0898 A3080000 		.4byte	0x8a3
 4473 089c 0C       		.uleb128 0xc
 4474 089d 9C020000 		.4byte	0x29c
 4475 08a1 02       		.byte	0x2
 4476 08a2 00       		.byte	0
 4477 08a3 0B       		.uleb128 0xb
 4478 08a4 8E000000 		.4byte	0x8e
 4479 08a8 B3080000 		.4byte	0x8b3
 4480 08ac 0C       		.uleb128 0xc
 4481 08ad 9C020000 		.4byte	0x29c
 4482 08b1 00       		.byte	0
 4483 08b2 00       		.byte	0
 4484 08b3 07       		.uleb128 0x7
 4485 08b4 720D0000 		.4byte	.LASF168
 4486 08b8 05       		.byte	0x5
 4487 08b9 2401     		.2byte	0x124
 4488 08bb 1A       		.byte	0x1a
 4489 08bc 5E050000 		.4byte	0x55e
 4490 08c0 1C       		.uleb128 0x1c
 4491 08c1 A9100000 		.4byte	.LASF169
 4492 08c5 0C       		.byte	0xc
 4493 08c6 05       		.byte	0x5
 4494 08c7 2801     		.2byte	0x128
 4495 08c9 08       		.byte	0x8
 4496 08ca F9080000 		.4byte	0x8f9
 4497 08ce 1A       		.uleb128 0x1a
 4498 08cf 460F0000 		.4byte	.LASF102
 4499 08d3 05       		.byte	0x5
 4500 08d4 2A01     		.2byte	0x12a
 4501 08d6 11       		.byte	0x11
 4502 08d7 F9080000 		.4byte	0x8f9
 4503 08db 00       		.byte	0
ARM GAS  /tmp/cclXoGh5.s 			page 80


 4504 08dc 1A       		.uleb128 0x1a
 4505 08dd FA060000 		.4byte	.LASF170
 4506 08e1 05       		.byte	0x5
 4507 08e2 2B01     		.2byte	0x12b
 4508 08e4 07       		.byte	0x7
 4509 08e5 A3020000 		.4byte	0x2a3
 4510 08e9 04       		.byte	0x4
 4511 08ea 1A       		.uleb128 0x1a
 4512 08eb 6C0D0000 		.4byte	.LASF171
 4513 08ef 05       		.byte	0x5
 4514 08f0 2C01     		.2byte	0x12c
 4515 08f2 0B       		.byte	0xb
 4516 08f3 FF080000 		.4byte	0x8ff
 4517 08f7 08       		.byte	0x8
 4518 08f8 00       		.byte	0
 4519 08f9 12       		.uleb128 0x12
 4520 08fa 04       		.byte	0x4
 4521 08fb C0080000 		.4byte	0x8c0
 4522 08ff 12       		.uleb128 0x12
 4523 0900 04       		.byte	0x4
 4524 0901 B3080000 		.4byte	0x8b3
 4525 0905 1C       		.uleb128 0x1c
 4526 0906 85000000 		.4byte	.LASF172
 4527 090a 0E       		.byte	0xe
 4528 090b 05       		.byte	0x5
 4529 090c 4401     		.2byte	0x144
 4530 090e 08       		.byte	0x8
 4531 090f 3E090000 		.4byte	0x93e
 4532 0913 1A       		.uleb128 0x1a
 4533 0914 350E0000 		.4byte	.LASF173
 4534 0918 05       		.byte	0x5
 4535 0919 4501     		.2byte	0x145
 4536 091b 12       		.byte	0x12
 4537 091c 3E090000 		.4byte	0x93e
 4538 0920 00       		.byte	0
 4539 0921 1A       		.uleb128 0x1a
 4540 0922 400F0000 		.4byte	.LASF174
 4541 0926 05       		.byte	0x5
 4542 0927 4601     		.2byte	0x146
 4543 0929 12       		.byte	0x12
 4544 092a 3E090000 		.4byte	0x93e
 4545 092e 06       		.byte	0x6
 4546 092f 1A       		.uleb128 0x1a
 4547 0930 B10F0000 		.4byte	.LASF175
 4548 0934 05       		.byte	0x5
 4549 0935 4701     		.2byte	0x147
 4550 0937 12       		.byte	0x12
 4551 0938 75010000 		.4byte	0x175
 4552 093c 0C       		.byte	0xc
 4553 093d 00       		.byte	0
 4554 093e 0B       		.uleb128 0xb
 4555 093f 75010000 		.4byte	0x175
 4556 0943 4E090000 		.4byte	0x94e
 4557 0947 0C       		.uleb128 0xc
 4558 0948 9C020000 		.4byte	0x29c
 4559 094c 02       		.byte	0x2
 4560 094d 00       		.byte	0
ARM GAS  /tmp/cclXoGh5.s 			page 81


 4561 094e 1D       		.uleb128 0x1d
 4562 094f D0       		.byte	0xd0
 4563 0950 05       		.byte	0x5
 4564 0951 8502     		.2byte	0x285
 4565 0953 07       		.byte	0x7
 4566 0954 630A0000 		.4byte	0xa63
 4567 0958 1A       		.uleb128 0x1a
 4568 0959 40100000 		.4byte	.LASF176
 4569 095d 05       		.byte	0x5
 4570 095e 8702     		.2byte	0x287
 4571 0960 18       		.byte	0x18
 4572 0961 9C020000 		.4byte	0x29c
 4573 0965 00       		.byte	0
 4574 0966 1A       		.uleb128 0x1a
 4575 0967 6F040000 		.4byte	.LASF177
 4576 096b 05       		.byte	0x5
 4577 096c 8802     		.2byte	0x288
 4578 096e 12       		.byte	0x12
 4579 096f 13080000 		.4byte	0x813
 4580 0973 04       		.byte	0x4
 4581 0974 1A       		.uleb128 0x1a
 4582 0975 4E070000 		.4byte	.LASF178
 4583 0979 05       		.byte	0x5
 4584 097a 8902     		.2byte	0x289
 4585 097c 10       		.byte	0x10
 4586 097d 630A0000 		.4byte	0xa63
 4587 0981 08       		.byte	0x8
 4588 0982 1A       		.uleb128 0x1a
 4589 0983 9A110000 		.4byte	.LASF179
 4590 0987 05       		.byte	0x5
 4591 0988 8A02     		.2byte	0x28a
 4592 098a 17       		.byte	0x17
 4593 098b F8030000 		.4byte	0x3f8
 4594 098f 24       		.byte	0x24
 4595 0990 1A       		.uleb128 0x1a
 4596 0991 50050000 		.4byte	.LASF180
 4597 0995 05       		.byte	0x5
 4598 0996 8B02     		.2byte	0x28b
 4599 0998 0F       		.byte	0xf
 4600 0999 A3020000 		.4byte	0x2a3
 4601 099d 48       		.byte	0x48
 4602 099e 1A       		.uleb128 0x1a
 4603 099f 950D0000 		.4byte	.LASF181
 4604 09a3 05       		.byte	0x5
 4605 09a4 8C02     		.2byte	0x28c
 4606 09a6 2C       		.byte	0x2c
 4607 09a7 E1020000 		.4byte	0x2e1
 4608 09ab 50       		.byte	0x50
 4609 09ac 1A       		.uleb128 0x1a
 4610 09ad CD110000 		.4byte	.LASF182
 4611 09b1 05       		.byte	0x5
 4612 09b2 8D02     		.2byte	0x28d
 4613 09b4 1A       		.byte	0x1a
 4614 09b5 05090000 		.4byte	0x905
 4615 09b9 58       		.byte	0x58
 4616 09ba 1A       		.uleb128 0x1a
 4617 09bb BF0D0000 		.4byte	.LASF183
ARM GAS  /tmp/cclXoGh5.s 			page 82


 4618 09bf 05       		.byte	0x5
 4619 09c0 8E02     		.2byte	0x28e
 4620 09c2 16       		.byte	0x16
 4621 09c3 56030000 		.4byte	0x356
 4622 09c7 68       		.byte	0x68
 4623 09c8 1A       		.uleb128 0x1a
 4624 09c9 D8110000 		.4byte	.LASF184
 4625 09cd 05       		.byte	0x5
 4626 09ce 8F02     		.2byte	0x28f
 4627 09d0 16       		.byte	0x16
 4628 09d1 56030000 		.4byte	0x356
 4629 09d5 70       		.byte	0x70
 4630 09d6 1A       		.uleb128 0x1a
 4631 09d7 79020000 		.4byte	.LASF185
 4632 09db 05       		.byte	0x5
 4633 09dc 9002     		.2byte	0x290
 4634 09de 16       		.byte	0x16
 4635 09df 56030000 		.4byte	0x356
 4636 09e3 78       		.byte	0x78
 4637 09e4 1A       		.uleb128 0x1a
 4638 09e5 F4100000 		.4byte	.LASF186
 4639 09e9 05       		.byte	0x5
 4640 09ea 9102     		.2byte	0x291
 4641 09ec 10       		.byte	0x10
 4642 09ed 730A0000 		.4byte	0xa73
 4643 09f1 80       		.byte	0x80
 4644 09f2 1A       		.uleb128 0x1a
 4645 09f3 42070000 		.4byte	.LASF187
 4646 09f7 05       		.byte	0x5
 4647 09f8 9202     		.2byte	0x292
 4648 09fa 10       		.byte	0x10
 4649 09fb 830A0000 		.4byte	0xa83
 4650 09ff 88       		.byte	0x88
 4651 0a00 1A       		.uleb128 0x1a
 4652 0a01 BE0F0000 		.4byte	.LASF188
 4653 0a05 05       		.byte	0x5
 4654 0a06 9302     		.2byte	0x293
 4655 0a08 0F       		.byte	0xf
 4656 0a09 A3020000 		.4byte	0x2a3
 4657 0a0d A0       		.byte	0xa0
 4658 0a0e 1A       		.uleb128 0x1a
 4659 0a0f 7C040000 		.4byte	.LASF189
 4660 0a13 05       		.byte	0x5
 4661 0a14 9402     		.2byte	0x294
 4662 0a16 16       		.byte	0x16
 4663 0a17 56030000 		.4byte	0x356
 4664 0a1b A4       		.byte	0xa4
 4665 0a1c 1A       		.uleb128 0x1a
 4666 0a1d 42020000 		.4byte	.LASF190
 4667 0a21 05       		.byte	0x5
 4668 0a22 9502     		.2byte	0x295
 4669 0a24 16       		.byte	0x16
 4670 0a25 56030000 		.4byte	0x356
 4671 0a29 AC       		.byte	0xac
 4672 0a2a 1A       		.uleb128 0x1a
 4673 0a2b 92040000 		.4byte	.LASF191
 4674 0a2f 05       		.byte	0x5
ARM GAS  /tmp/cclXoGh5.s 			page 83


 4675 0a30 9602     		.2byte	0x296
 4676 0a32 16       		.byte	0x16
 4677 0a33 56030000 		.4byte	0x356
 4678 0a37 B4       		.byte	0xb4
 4679 0a38 1A       		.uleb128 0x1a
 4680 0a39 0D010000 		.4byte	.LASF192
 4681 0a3d 05       		.byte	0x5
 4682 0a3e 9702     		.2byte	0x297
 4683 0a40 16       		.byte	0x16
 4684 0a41 56030000 		.4byte	0x356
 4685 0a45 BC       		.byte	0xbc
 4686 0a46 1A       		.uleb128 0x1a
 4687 0a47 D0050000 		.4byte	.LASF193
 4688 0a4b 05       		.byte	0x5
 4689 0a4c 9802     		.2byte	0x298
 4690 0a4e 16       		.byte	0x16
 4691 0a4f 56030000 		.4byte	0x356
 4692 0a53 C4       		.byte	0xc4
 4693 0a54 1A       		.uleb128 0x1a
 4694 0a55 480D0000 		.4byte	.LASF194
 4695 0a59 05       		.byte	0x5
 4696 0a5a 9902     		.2byte	0x299
 4697 0a5c 08       		.byte	0x8
 4698 0a5d A3020000 		.4byte	0x2a3
 4699 0a61 CC       		.byte	0xcc
 4700 0a62 00       		.byte	0
 4701 0a63 0B       		.uleb128 0xb
 4702 0a64 19080000 		.4byte	0x819
 4703 0a68 730A0000 		.4byte	0xa73
 4704 0a6c 0C       		.uleb128 0xc
 4705 0a6d 9C020000 		.4byte	0x29c
 4706 0a71 19       		.byte	0x19
 4707 0a72 00       		.byte	0
 4708 0a73 0B       		.uleb128 0xb
 4709 0a74 19080000 		.4byte	0x819
 4710 0a78 830A0000 		.4byte	0xa83
 4711 0a7c 0C       		.uleb128 0xc
 4712 0a7d 9C020000 		.4byte	0x29c
 4713 0a81 07       		.byte	0x7
 4714 0a82 00       		.byte	0
 4715 0a83 0B       		.uleb128 0xb
 4716 0a84 19080000 		.4byte	0x819
 4717 0a88 930A0000 		.4byte	0xa93
 4718 0a8c 0C       		.uleb128 0xc
 4719 0a8d 9C020000 		.4byte	0x29c
 4720 0a91 17       		.byte	0x17
 4721 0a92 00       		.byte	0
 4722 0a93 1D       		.uleb128 0x1d
 4723 0a94 F0       		.byte	0xf0
 4724 0a95 05       		.byte	0x5
 4725 0a96 9E02     		.2byte	0x29e
 4726 0a98 07       		.byte	0x7
 4727 0a99 BA0A0000 		.4byte	0xaba
 4728 0a9d 1A       		.uleb128 0x1a
 4729 0a9e 66090000 		.4byte	.LASF195
 4730 0aa2 05       		.byte	0x5
 4731 0aa3 A102     		.2byte	0x2a1
ARM GAS  /tmp/cclXoGh5.s 			page 84


 4732 0aa5 1B       		.byte	0x1b
 4733 0aa6 BA0A0000 		.4byte	0xaba
 4734 0aaa 00       		.byte	0
 4735 0aab 1A       		.uleb128 0x1a
 4736 0aac A8080000 		.4byte	.LASF196
 4737 0ab0 05       		.byte	0x5
 4738 0ab1 A202     		.2byte	0x2a2
 4739 0ab3 18       		.byte	0x18
 4740 0ab4 CA0A0000 		.4byte	0xaca
 4741 0ab8 78       		.byte	0x78
 4742 0ab9 00       		.byte	0
 4743 0aba 0B       		.uleb128 0xb
 4744 0abb 58050000 		.4byte	0x558
 4745 0abf CA0A0000 		.4byte	0xaca
 4746 0ac3 0C       		.uleb128 0xc
 4747 0ac4 9C020000 		.4byte	0x29c
 4748 0ac8 1D       		.byte	0x1d
 4749 0ac9 00       		.byte	0
 4750 0aca 0B       		.uleb128 0xb
 4751 0acb 9C020000 		.4byte	0x29c
 4752 0acf DA0A0000 		.4byte	0xada
 4753 0ad3 0C       		.uleb128 0xc
 4754 0ad4 9C020000 		.4byte	0x29c
 4755 0ad8 1D       		.byte	0x1d
 4756 0ad9 00       		.byte	0
 4757 0ada 1E       		.uleb128 0x1e
 4758 0adb F0       		.byte	0xf0
 4759 0adc 05       		.byte	0x5
 4760 0add 8302     		.2byte	0x283
 4761 0adf 03       		.byte	0x3
 4762 0ae0 FF0A0000 		.4byte	0xaff
 4763 0ae4 1F       		.uleb128 0x1f
 4764 0ae5 1A0E0000 		.4byte	.LASF145
 4765 0ae9 05       		.byte	0x5
 4766 0aea 9A02     		.2byte	0x29a
 4767 0aec 0B       		.byte	0xb
 4768 0aed 4E090000 		.4byte	0x94e
 4769 0af1 1F       		.uleb128 0x1f
 4770 0af2 5E110000 		.4byte	.LASF197
 4771 0af6 05       		.byte	0x5
 4772 0af7 A302     		.2byte	0x2a3
 4773 0af9 0B       		.byte	0xb
 4774 0afa 930A0000 		.4byte	0xa93
 4775 0afe 00       		.byte	0
 4776 0aff 0B       		.uleb128 0xb
 4777 0b00 19080000 		.4byte	0x819
 4778 0b04 0F0B0000 		.4byte	0xb0f
 4779 0b08 0C       		.uleb128 0xc
 4780 0b09 9C020000 		.4byte	0x29c
 4781 0b0d 18       		.byte	0x18
 4782 0b0e 00       		.byte	0
 4783 0b0f 20       		.uleb128 0x20
 4784 0b10 EB010000 		.4byte	.LASF274
 4785 0b14 12       		.uleb128 0x12
 4786 0b15 04       		.byte	0x4
 4787 0b16 0F0B0000 		.4byte	0xb0f
 4788 0b1a 21       		.uleb128 0x21
ARM GAS  /tmp/cclXoGh5.s 			page 85


 4789 0b1b 250B0000 		.4byte	0xb25
 4790 0b1f 17       		.uleb128 0x17
 4791 0b20 BF060000 		.4byte	0x6bf
 4792 0b24 00       		.byte	0
 4793 0b25 12       		.uleb128 0x12
 4794 0b26 04       		.byte	0x4
 4795 0b27 1A0B0000 		.4byte	0xb1a
 4796 0b2b 12       		.uleb128 0x12
 4797 0b2c 04       		.byte	0x4
 4798 0b2d E2030000 		.4byte	0x3e2
 4799 0b31 21       		.uleb128 0x21
 4800 0b32 3C0B0000 		.4byte	0xb3c
 4801 0b36 17       		.uleb128 0x17
 4802 0b37 A3020000 		.4byte	0x2a3
 4803 0b3b 00       		.byte	0
 4804 0b3c 12       		.uleb128 0x12
 4805 0b3d 04       		.byte	0x4
 4806 0b3e 420B0000 		.4byte	0xb42
 4807 0b42 12       		.uleb128 0x12
 4808 0b43 04       		.byte	0x4
 4809 0b44 310B0000 		.4byte	0xb31
 4810 0b48 0B       		.uleb128 0xb
 4811 0b49 B3080000 		.4byte	0x8b3
 4812 0b4d 580B0000 		.4byte	0xb58
 4813 0b51 0C       		.uleb128 0xc
 4814 0b52 9C020000 		.4byte	0x29c
 4815 0b56 02       		.byte	0x2
 4816 0b57 00       		.byte	0
 4817 0b58 22       		.uleb128 0x22
 4818 0b59 9E030000 		.4byte	.LASF198
 4819 0b5d 05       		.byte	0x5
 4820 0b5e 3303     		.2byte	0x333
 4821 0b60 17       		.byte	0x17
 4822 0b61 BF060000 		.4byte	0x6bf
 4823 0b65 22       		.uleb128 0x22
 4824 0b66 F30F0000 		.4byte	.LASF199
 4825 0b6a 05       		.byte	0x5
 4826 0b6b 3403     		.2byte	0x334
 4827 0b6d 1D       		.byte	0x1d
 4828 0b6e C5060000 		.4byte	0x6c5
 4829 0b72 23       		.uleb128 0x23
 4830 0b73 B5090000 		.4byte	.LASF200
 4831 0b77 07       		.byte	0x7
 4832 0b78 67       		.byte	0x67
 4833 0b79 0E       		.byte	0xe
 4834 0b7a 13080000 		.4byte	0x813
 4835 0b7e 08       		.uleb128 0x8
 4836 0b7f 2D080000 		.4byte	.LASF201
 4837 0b83 08       		.byte	0x8
 4838 0b84 23       		.byte	0x23
 4839 0b85 16       		.byte	0x16
 4840 0b86 CC020000 		.4byte	0x2cc
 4841 0b8a 08       		.uleb128 0x8
 4842 0b8b 19000000 		.4byte	.LASF202
 4843 0b8f 08       		.byte	0x8
 4844 0b90 24       		.byte	0x24
 4845 0b91 18       		.byte	0x18
ARM GAS  /tmp/cclXoGh5.s 			page 86


 4846 0b92 75010000 		.4byte	0x175
 4847 0b96 18       		.uleb128 0x18
 4848 0b97 8A0B0000 		.4byte	0xb8a
 4849 0b9b 08       		.uleb128 0x8
 4850 0b9c D5030000 		.4byte	.LASF203
 4851 0ba0 08       		.byte	0x8
 4852 0ba1 26       		.byte	0x26
 4853 0ba2 17       		.byte	0x17
 4854 0ba3 8E000000 		.4byte	0x8e
 4855 0ba7 18       		.uleb128 0x18
 4856 0ba8 9B0B0000 		.4byte	0xb9b
 4857 0bac 02       		.uleb128 0x2
 4858 0bad 07       		.byte	0x7
 4859 0bae 01       		.byte	0x1
 4860 0baf 8E000000 		.4byte	0x8e
 4861 0bb3 09       		.byte	0x9
 4862 0bb4 37       		.byte	0x37
 4863 0bb5 01       		.byte	0x1
 4864 0bb6 C10B0000 		.4byte	0xbc1
 4865 0bba 03       		.uleb128 0x3
 4866 0bbb 77030000 		.4byte	.LASF204
 4867 0bbf 10       		.byte	0x10
 4868 0bc0 00       		.byte	0
 4869 0bc1 0D       		.uleb128 0xd
 4870 0bc2 40       		.byte	0x40
 4871 0bc3 09       		.byte	0x9
 4872 0bc4 45       		.byte	0x45
 4873 0bc5 09       		.byte	0x9
 4874 0bc6 650C0000 		.4byte	0xc65
 4875 0bca 0E       		.uleb128 0xe
 4876 0bcb 11050000 		.4byte	.LASF205
 4877 0bcf 09       		.byte	0x9
 4878 0bd0 48       		.byte	0x48
 4879 0bd1 09       		.byte	0x9
 4880 0bd2 8A0B0000 		.4byte	0xb8a
 4881 0bd6 00       		.byte	0
 4882 0bd7 0E       		.uleb128 0xe
 4883 0bd8 0C000000 		.4byte	.LASF206
 4884 0bdc 09       		.byte	0x9
 4885 0bdd 4B       		.byte	0x4b
 4886 0bde 09       		.byte	0x9
 4887 0bdf 8A0B0000 		.4byte	0xb8a
 4888 0be3 02       		.byte	0x2
 4889 0be4 0E       		.uleb128 0xe
 4890 0be5 08080000 		.4byte	.LASF207
 4891 0be9 09       		.byte	0x9
 4892 0bea 4C       		.byte	0x4c
 4893 0beb 0B       		.byte	0xb
 4894 0bec 650C0000 		.4byte	0xc65
 4895 0bf0 04       		.byte	0x4
 4896 0bf1 0E       		.uleb128 0xe
 4897 0bf2 64010000 		.4byte	.LASF208
 4898 0bf6 09       		.byte	0x9
 4899 0bf7 4F       		.byte	0x4f
 4900 0bf8 09       		.byte	0x9
 4901 0bf9 8A0B0000 		.4byte	0xb8a
 4902 0bfd 08       		.byte	0x8
ARM GAS  /tmp/cclXoGh5.s 			page 87


 4903 0bfe 0E       		.uleb128 0xe
 4904 0bff 7B000000 		.4byte	.LASF209
 4905 0c03 09       		.byte	0x9
 4906 0c04 50       		.byte	0x50
 4907 0c05 0B       		.byte	0xb
 4908 0c06 6B0C0000 		.4byte	0xc6b
 4909 0c0a 0C       		.byte	0xc
 4910 0c0b 0E       		.uleb128 0xe
 4911 0c0c DC0E0000 		.4byte	.LASF210
 4912 0c10 09       		.byte	0x9
 4913 0c11 53       		.byte	0x53
 4914 0c12 09       		.byte	0x9
 4915 0c13 8A0B0000 		.4byte	0xb8a
 4916 0c17 10       		.byte	0x10
 4917 0c18 0E       		.uleb128 0xe
 4918 0c19 1C110000 		.4byte	.LASF211
 4919 0c1d 09       		.byte	0x9
 4920 0c1e 54       		.byte	0x54
 4921 0c1f 0B       		.byte	0xb
 4922 0c20 6B0C0000 		.4byte	0xc6b
 4923 0c24 14       		.byte	0x14
 4924 0c25 0E       		.uleb128 0xe
 4925 0c26 FE100000 		.4byte	.LASF212
 4926 0c2a 09       		.byte	0x9
 4927 0c2b 57       		.byte	0x57
 4928 0c2c 09       		.byte	0x9
 4929 0c2d 8A0B0000 		.4byte	0xb8a
 4930 0c31 18       		.byte	0x18
 4931 0c32 11       		.uleb128 0x11
 4932 0c33 706300   		.ascii	"pc\000"
 4933 0c36 09       		.byte	0x9
 4934 0c37 58       		.byte	0x58
 4935 0c38 09       		.byte	0x9
 4936 0c39 8A0B0000 		.4byte	0xb8a
 4937 0c3d 1A       		.byte	0x1a
 4938 0c3e 11       		.uleb128 0x11
 4939 0c3f 737000   		.ascii	"sp\000"
 4940 0c42 09       		.byte	0x9
 4941 0c43 59       		.byte	0x59
 4942 0c44 09       		.byte	0x9
 4943 0c45 7E0B0000 		.4byte	0xb7e
 4944 0c49 1C       		.byte	0x1c
 4945 0c4a 0E       		.uleb128 0xe
 4946 0c4b AA030000 		.4byte	.LASF213
 4947 0c4f 09       		.byte	0x9
 4948 0c50 5C       		.byte	0x5c
 4949 0c51 09       		.byte	0x9
 4950 0c52 710C0000 		.4byte	0xc71
 4951 0c56 1E       		.byte	0x1e
 4952 0c57 0E       		.uleb128 0xe
 4953 0c58 290C0000 		.4byte	.LASF214
 4954 0c5c 09       		.byte	0x9
 4955 0c5d 5D       		.byte	0x5d
 4956 0c5e 09       		.byte	0x9
 4957 0c5f 8A0B0000 		.4byte	0xb8a
 4958 0c63 3E       		.byte	0x3e
 4959 0c64 00       		.byte	0
ARM GAS  /tmp/cclXoGh5.s 			page 88


 4960 0c65 12       		.uleb128 0x12
 4961 0c66 04       		.byte	0x4
 4962 0c67 8A0B0000 		.4byte	0xb8a
 4963 0c6b 12       		.uleb128 0x12
 4964 0c6c 04       		.byte	0x4
 4965 0c6d 7E0B0000 		.4byte	0xb7e
 4966 0c71 0B       		.uleb128 0xb
 4967 0c72 8A0B0000 		.4byte	0xb8a
 4968 0c76 810C0000 		.4byte	0xc81
 4969 0c7a 0C       		.uleb128 0xc
 4970 0c7b 9C020000 		.4byte	0x29c
 4971 0c7f 0F       		.byte	0xf
 4972 0c80 00       		.byte	0
 4973 0c81 08       		.uleb128 0x8
 4974 0c82 CB080000 		.4byte	.LASF215
 4975 0c86 09       		.byte	0x9
 4976 0c87 5E       		.byte	0x5e
 4977 0c88 03       		.byte	0x3
 4978 0c89 C10B0000 		.4byte	0xbc1
 4979 0c8d 24       		.uleb128 0x24
 4980 0c8e F6010000 		.4byte	.LASF229
 4981 0c92 01       		.byte	0x1
 4982 0c93 7303     		.2byte	0x373
 4983 0c95 08       		.byte	0x8
 4984 0c96 8A0B0000 		.4byte	0xb8a
 4985 0c9a 00000000 		.4byte	.LFB17
 4986 0c9e 7C000000 		.4byte	.LFE17-.LFB17
 4987 0ca2 01       		.uleb128 0x1
 4988 0ca3 9C       		.byte	0x9c
 4989 0ca4 740D0000 		.4byte	0xd74
 4990 0ca8 25       		.uleb128 0x25
 4991 0ca9 766D00   		.ascii	"vm\000"
 4992 0cac 01       		.byte	0x1
 4993 0cad 7303     		.2byte	0x373
 4994 0caf 2E       		.byte	0x2e
 4995 0cb0 740D0000 		.4byte	0xd74
 4996 0cb4 10000000 		.4byte	.LLST97
 4997 0cb8 00000000 		.4byte	.LVUS97
 4998 0cbc 26       		.uleb128 0x26
 4999 0cbd C4080000 		.4byte	.LASF216
 5000 0cc1 01       		.byte	0x1
 5001 0cc2 7303     		.2byte	0x373
 5002 0cc4 39       		.byte	0x39
 5003 0cc5 8A0B0000 		.4byte	0xb8a
 5004 0cc9 80000000 		.4byte	.LLST98
 5005 0ccd 7C000000 		.4byte	.LVUS98
 5006 0cd1 26       		.uleb128 0x26
 5007 0cd2 C7010000 		.4byte	.LASF217
 5008 0cd6 01       		.byte	0x1
 5009 0cd7 7303     		.2byte	0x373
 5010 0cd9 4E       		.byte	0x4e
 5011 0cda 7A0D0000 		.4byte	0xd7a
 5012 0cde AD000000 		.4byte	.LLST99
 5013 0ce2 A1000000 		.4byte	.LVUS99
 5014 0ce6 27       		.uleb128 0x27
 5015 0ce7 62070000 		.4byte	.LASF218
 5016 0ceb 01       		.byte	0x1
ARM GAS  /tmp/cclXoGh5.s 			page 89


 5017 0cec 7603     		.2byte	0x376
 5018 0cee 09       		.byte	0x9
 5019 0cef 8A0B0000 		.4byte	0xb8a
 5020 0cf3 02010000 		.4byte	.LLST100
 5021 0cf7 00010000 		.4byte	.LVUS100
 5022 0cfb 28       		.uleb128 0x28
 5023 0cfc 58010000 		.4byte	.Ldebug_ranges0+0x158
 5024 0d00 1A0D0000 		.4byte	0xd1a
 5025 0d04 27       		.uleb128 0x27
 5026 0d05 050C0000 		.4byte	.LASF219
 5027 0d09 01       		.byte	0x1
 5028 0d0a 7F03     		.2byte	0x37f
 5029 0d0c 0A       		.byte	0xa
 5030 0d0d 8A0B0000 		.4byte	0xb8a
 5031 0d11 19010000 		.4byte	.LLST101
 5032 0d15 15010000 		.4byte	.LVUS101
 5033 0d19 00       		.byte	0
 5034 0d1a 29       		.uleb128 0x29
 5035 0d1b 2E1C0000 		.4byte	0x1c2e
 5036 0d1f 44000000 		.4byte	.LBI144
 5037 0d23 0200     		.2byte	.LVU943
 5038 0d25 44000000 		.4byte	.LBB144
 5039 0d29 2A000000 		.4byte	.LBE144-.LBB144
 5040 0d2d 01       		.byte	0x1
 5041 0d2e 7A03     		.2byte	0x37a
 5042 0d30 0B       		.byte	0xb
 5043 0d31 6A0D0000 		.4byte	0xd6a
 5044 0d35 2A       		.uleb128 0x2a
 5045 0d36 4A1C0000 		.4byte	0x1c4a
 5046 0d3a 3B010000 		.4byte	.LLST102
 5047 0d3e 39010000 		.4byte	.LVUS102
 5048 0d42 2A       		.uleb128 0x2a
 5049 0d43 3F1C0000 		.4byte	0x1c3f
 5050 0d47 52010000 		.4byte	.LLST103
 5051 0d4b 4E010000 		.4byte	.LVUS103
 5052 0d4f 2B       		.uleb128 0x2b
 5053 0d50 561C0000 		.4byte	0x1c56
 5054 0d54 75010000 		.4byte	.LLST104
 5055 0d58 73010000 		.4byte	.LVUS104
 5056 0d5c 2B       		.uleb128 0x2b
 5057 0d5d 621C0000 		.4byte	0x1c62
 5058 0d61 90010000 		.4byte	.LLST105
 5059 0d65 88010000 		.4byte	.LVUS105
 5060 0d69 00       		.byte	0
 5061 0d6a 2C       		.uleb128 0x2c
 5062 0d6b 76000000 		.4byte	.LVL330
 5063 0d6f 581E0000 		.4byte	0x1e58
 5064 0d73 00       		.byte	0
 5065 0d74 12       		.uleb128 0x12
 5066 0d75 04       		.byte	0x4
 5067 0d76 810C0000 		.4byte	0xc81
 5068 0d7a 12       		.uleb128 0x12
 5069 0d7b 04       		.byte	0x4
 5070 0d7c A70B0000 		.4byte	0xba7
 5071 0d80 2D       		.uleb128 0x2d
 5072 0d81 C5000000 		.4byte	.LASF232
 5073 0d85 01       		.byte	0x1
ARM GAS  /tmp/cclXoGh5.s 			page 90


 5074 0d86 DE02     		.2byte	0x2de
 5075 0d88 06       		.byte	0x6
 5076 0d89 00000000 		.4byte	.LFB16
 5077 0d8d 64020000 		.4byte	.LFE16-.LFB16
 5078 0d91 01       		.uleb128 0x1
 5079 0d92 9C       		.byte	0x9c
 5080 0d93 50120000 		.4byte	0x1250
 5081 0d97 25       		.uleb128 0x25
 5082 0d98 766D00   		.ascii	"vm\000"
 5083 0d9b 01       		.byte	0x1
 5084 0d9c DE02     		.2byte	0x2de
 5085 0d9e 28       		.byte	0x28
 5086 0d9f 740D0000 		.4byte	0xd74
 5087 0da3 DD010000 		.4byte	.LLST69
 5088 0da7 C7010000 		.4byte	.LVUS69
 5089 0dab 25       		.uleb128 0x25
 5090 0dac 696400   		.ascii	"id\000"
 5091 0daf 01       		.byte	0x1
 5092 0db0 DE02     		.2byte	0x2de
 5093 0db2 33       		.byte	0x33
 5094 0db3 8A0B0000 		.4byte	0xb8a
 5095 0db7 78020000 		.4byte	.LLST70
 5096 0dbb 6C020000 		.4byte	.LVUS70
 5097 0dbf 26       		.uleb128 0x26
 5098 0dc0 C7010000 		.4byte	.LASF217
 5099 0dc4 01       		.byte	0x1
 5100 0dc5 DE02     		.2byte	0x2de
 5101 0dc7 3F       		.byte	0x3f
 5102 0dc8 650C0000 		.4byte	0xc65
 5103 0dcc 03030000 		.4byte	.LLST71
 5104 0dd0 CB020000 		.4byte	.LVUS71
 5105 0dd4 26       		.uleb128 0x26
 5106 0dd5 48040000 		.4byte	.LASF220
 5107 0dd9 01       		.byte	0x1
 5108 0dda DE02     		.2byte	0x2de
 5109 0ddc 4C       		.byte	0x4c
 5110 0ddd 8A0B0000 		.4byte	0xb8a
 5111 0de1 AC040000 		.4byte	.LLST72
 5112 0de5 6E040000 		.4byte	.LVUS72
 5113 0de9 2E       		.uleb128 0x2e
 5114 0dea EA000000 		.4byte	.LBB113
 5115 0dee 06000000 		.4byte	.LBE113-.LBB113
 5116 0df2 0C0E0000 		.4byte	0xe0c
 5117 0df6 27       		.uleb128 0x27
 5118 0df7 51020000 		.4byte	.LASF221
 5119 0dfb 01       		.byte	0x1
 5120 0dfc E302     		.2byte	0x2e3
 5121 0dfe 10       		.byte	0x10
 5122 0dff 960B0000 		.4byte	0xb96
 5123 0e03 6C060000 		.4byte	.LLST82
 5124 0e07 6A060000 		.4byte	.LVUS82
 5125 0e0b 00       		.byte	0
 5126 0e0c 2E       		.uleb128 0x2e
 5127 0e0d F6000000 		.4byte	.LBB114
 5128 0e11 16000000 		.4byte	.LBE114-.LBB114
 5129 0e15 460E0000 		.4byte	0xe46
 5130 0e19 2F       		.uleb128 0x2f
ARM GAS  /tmp/cclXoGh5.s 			page 91


 5131 0e1a 51020000 		.4byte	.LASF221
 5132 0e1e 01       		.byte	0x1
 5133 0e1f EC02     		.2byte	0x2ec
 5134 0e21 10       		.byte	0x10
 5135 0e22 960B0000 		.4byte	0xb96
 5136 0e26 02       		.uleb128 0x2
 5137 0e27 91       		.byte	0x91
 5138 0e28 66       		.sleb128 -26
 5139 0e29 30       		.uleb128 0x30
 5140 0e2a 0A010000 		.4byte	.LVL261
 5141 0e2e 611E0000 		.4byte	0x1e61
 5142 0e32 31       		.uleb128 0x31
 5143 0e33 01       		.uleb128 0x1
 5144 0e34 51       		.byte	0x51
 5145 0e35 03       		.uleb128 0x3
 5146 0e36 0B       		.byte	0xb
 5147 0e37 0C90     		.2byte	0x900c
 5148 0e39 31       		.uleb128 0x31
 5149 0e3a 01       		.uleb128 0x1
 5150 0e3b 52       		.byte	0x52
 5151 0e3c 02       		.uleb128 0x2
 5152 0e3d 91       		.byte	0x91
 5153 0e3e 66       		.sleb128 -26
 5154 0e3f 31       		.uleb128 0x31
 5155 0e40 01       		.uleb128 0x1
 5156 0e41 53       		.byte	0x53
 5157 0e42 01       		.uleb128 0x1
 5158 0e43 32       		.byte	0x32
 5159 0e44 00       		.byte	0
 5160 0e45 00       		.byte	0
 5161 0e46 2E       		.uleb128 0x2e
 5162 0e47 5C000000 		.4byte	.LBB102
 5163 0e4b 24000000 		.4byte	.LBE102-.LBB102
 5164 0e4f 910E0000 		.4byte	0xe91
 5165 0e53 27       		.uleb128 0x27
 5166 0e54 D2110000 		.4byte	.LASF222
 5167 0e58 01       		.byte	0x1
 5168 0e59 0003     		.2byte	0x300
 5169 0e5b 0B       		.byte	0xb
 5170 0e5c 8A0B0000 		.4byte	0xb8a
 5171 0e60 86060000 		.4byte	.LLST73
 5172 0e64 80060000 		.4byte	.LVUS73
 5173 0e68 27       		.uleb128 0x27
 5174 0e69 22110000 		.4byte	.LASF223
 5175 0e6d 01       		.byte	0x1
 5176 0e6e 0103     		.2byte	0x301
 5177 0e70 0B       		.byte	0xb
 5178 0e71 8A0B0000 		.4byte	0xb8a
 5179 0e75 B5060000 		.4byte	.LLST74
 5180 0e79 B1060000 		.4byte	.LVUS74
 5181 0e7d 32       		.uleb128 0x32
 5182 0e7e 6900     		.ascii	"i\000"
 5183 0e80 01       		.byte	0x1
 5184 0e81 0203     		.2byte	0x302
 5185 0e83 0B       		.byte	0xb
 5186 0e84 8A0B0000 		.4byte	0xb8a
 5187 0e88 DC060000 		.4byte	.LLST75
ARM GAS  /tmp/cclXoGh5.s 			page 92


 5188 0e8c DA060000 		.4byte	.LVUS75
 5189 0e90 00       		.byte	0
 5190 0e91 28       		.uleb128 0x28
 5191 0e92 D0000000 		.4byte	.Ldebug_ranges0+0xd0
 5192 0e96 FF0E0000 		.4byte	0xeff
 5193 0e9a 2F       		.uleb128 0x2f
 5194 0e9b 390F0000 		.4byte	.LASF224
 5195 0e9f 01       		.byte	0x1
 5196 0ea0 3503     		.2byte	0x335
 5197 0ea2 0B       		.byte	0xb
 5198 0ea3 50120000 		.4byte	0x1250
 5199 0ea7 02       		.uleb128 0x2
 5200 0ea8 91       		.byte	0x91
 5201 0ea9 68       		.sleb128 -24
 5202 0eaa 33       		.uleb128 0x33
 5203 0eab 1B130000 		.4byte	0x131b
 5204 0eaf 1A010000 		.4byte	.LBI118
 5205 0eb3 0100     		.2byte	.LVU796
 5206 0eb5 E8000000 		.4byte	.Ldebug_ranges0+0xe8
 5207 0eb9 01       		.byte	0x1
 5208 0eba 3703     		.2byte	0x337
 5209 0ebc 10       		.byte	0x10
 5210 0ebd DC0E0000 		.4byte	0xedc
 5211 0ec1 2A       		.uleb128 0x2a
 5212 0ec2 39130000 		.4byte	0x1339
 5213 0ec6 F4060000 		.4byte	.LLST84
 5214 0eca F0060000 		.4byte	.LVUS84
 5215 0ece 2A       		.uleb128 0x2a
 5216 0ecf 2D130000 		.4byte	0x132d
 5217 0ed3 16070000 		.4byte	.LLST85
 5218 0ed7 12070000 		.4byte	.LVUS85
 5219 0edb 00       		.byte	0
 5220 0edc 30       		.uleb128 0x30
 5221 0edd 3E010000 		.4byte	.LVL270
 5222 0ee1 611E0000 		.4byte	0x1e61
 5223 0ee5 31       		.uleb128 0x31
 5224 0ee6 01       		.uleb128 0x1
 5225 0ee7 50       		.byte	0x50
 5226 0ee8 02       		.uleb128 0x2
 5227 0ee9 74       		.byte	0x74
 5228 0eea 00       		.sleb128 0
 5229 0eeb 31       		.uleb128 0x31
 5230 0eec 01       		.uleb128 0x1
 5231 0eed 51       		.byte	0x51
 5232 0eee 03       		.uleb128 0x3
 5233 0eef 0B       		.byte	0xb
 5234 0ef0 0B90     		.2byte	0x900b
 5235 0ef2 31       		.uleb128 0x31
 5236 0ef3 01       		.uleb128 0x1
 5237 0ef4 52       		.byte	0x52
 5238 0ef5 02       		.uleb128 0x2
 5239 0ef6 91       		.byte	0x91
 5240 0ef7 68       		.sleb128 -24
 5241 0ef8 31       		.uleb128 0x31
 5242 0ef9 01       		.uleb128 0x1
 5243 0efa 53       		.byte	0x53
 5244 0efb 01       		.uleb128 0x1
ARM GAS  /tmp/cclXoGh5.s 			page 93


 5245 0efc 34       		.byte	0x34
 5246 0efd 00       		.byte	0
 5247 0efe 00       		.byte	0
 5248 0eff 2E       		.uleb128 0x2e
 5249 0f00 42020000 		.4byte	.LBB141
 5250 0f04 0A000000 		.4byte	.LBE141-.LBB141
 5251 0f08 470F0000 		.4byte	0xf47
 5252 0f0c 27       		.uleb128 0x27
 5253 0f0d D2110000 		.4byte	.LASF222
 5254 0f11 01       		.byte	0x1
 5255 0f12 4603     		.2byte	0x346
 5256 0f14 0B       		.byte	0xb
 5257 0f15 8A0B0000 		.4byte	0xb8a
 5258 0f19 36070000 		.4byte	.LLST95
 5259 0f1d 34070000 		.4byte	.LVUS95
 5260 0f21 27       		.uleb128 0x27
 5261 0f22 22110000 		.4byte	.LASF223
 5262 0f26 01       		.byte	0x1
 5263 0f27 4703     		.2byte	0x347
 5264 0f29 0B       		.byte	0xb
 5265 0f2a 8A0B0000 		.4byte	0xb8a
 5266 0f2e 4C070000 		.4byte	.LLST96
 5267 0f32 4A070000 		.4byte	.LVUS96
 5268 0f36 30       		.uleb128 0x30
 5269 0f37 4C020000 		.4byte	.LVL309
 5270 0f3b 6D1E0000 		.4byte	0x1e6d
 5271 0f3f 31       		.uleb128 0x31
 5272 0f40 01       		.uleb128 0x1
 5273 0f41 50       		.byte	0x50
 5274 0f42 02       		.uleb128 0x2
 5275 0f43 74       		.byte	0x74
 5276 0f44 00       		.sleb128 0
 5277 0f45 00       		.byte	0
 5278 0f46 00       		.byte	0
 5279 0f47 2E       		.uleb128 0x2e
 5280 0f48 40010000 		.4byte	.LBB124
 5281 0f4c 28000000 		.4byte	.LBE124-.LBB124
 5282 0f50 920F0000 		.4byte	0xf92
 5283 0f54 27       		.uleb128 0x27
 5284 0f55 D2110000 		.4byte	.LASF222
 5285 0f59 01       		.byte	0x1
 5286 0f5a 5203     		.2byte	0x352
 5287 0f5c 0B       		.byte	0xb
 5288 0f5d 8A0B0000 		.4byte	0xb8a
 5289 0f61 62070000 		.4byte	.LLST86
 5290 0f65 60070000 		.4byte	.LVUS86
 5291 0f69 27       		.uleb128 0x27
 5292 0f6a 22110000 		.4byte	.LASF223
 5293 0f6e 01       		.byte	0x1
 5294 0f6f 5303     		.2byte	0x353
 5295 0f71 0B       		.byte	0xb
 5296 0f72 8A0B0000 		.4byte	0xb8a
 5297 0f76 79070000 		.4byte	.LLST87
 5298 0f7a 75070000 		.4byte	.LVUS87
 5299 0f7e 32       		.uleb128 0x32
 5300 0f7f 6900     		.ascii	"i\000"
 5301 0f81 01       		.byte	0x1
ARM GAS  /tmp/cclXoGh5.s 			page 94


 5302 0f82 5403     		.2byte	0x354
 5303 0f84 0B       		.byte	0xb
 5304 0f85 8A0B0000 		.4byte	0xb8a
 5305 0f89 A0070000 		.4byte	.LLST88
 5306 0f8d 9E070000 		.4byte	.LVUS88
 5307 0f91 00       		.byte	0
 5308 0f92 33       		.uleb128 0x33
 5309 0f93 60120000 		.4byte	0x1260
 5310 0f97 86000000 		.4byte	.LBI103
 5311 0f9b 0100     		.2byte	.LVU727
 5312 0f9d A0000000 		.4byte	.Ldebug_ranges0+0xa0
 5313 0fa1 01       		.byte	0x1
 5314 0fa2 0E03     		.2byte	0x30e
 5315 0fa4 03       		.byte	0x3
 5316 0fa5 F20F0000 		.4byte	0xff2
 5317 0fa9 2A       		.uleb128 0x2a
 5318 0faa 6E120000 		.4byte	0x126e
 5319 0fae B6070000 		.4byte	.LLST76
 5320 0fb2 B4070000 		.4byte	.LVUS76
 5321 0fb6 2A       		.uleb128 0x2a
 5322 0fb7 6E120000 		.4byte	0x126e
 5323 0fbb B6070000 		.4byte	.LLST76
 5324 0fbf B4070000 		.4byte	.LVUS76
 5325 0fc3 34       		.uleb128 0x34
 5326 0fc4 A0000000 		.4byte	.Ldebug_ranges0+0xa0
 5327 0fc8 2B       		.uleb128 0x2b
 5328 0fc9 7A120000 		.4byte	0x127a
 5329 0fcd D1070000 		.4byte	.LLST78
 5330 0fd1 C9070000 		.4byte	.LVUS78
 5331 0fd5 35       		.uleb128 0x35
 5332 0fd6 85120000 		.4byte	0x1285
 5333 0fda 8A000000 		.4byte	.LBB105
 5334 0fde 18000000 		.4byte	.LBE105-.LBB105
 5335 0fe2 2B       		.uleb128 0x2b
 5336 0fe3 86120000 		.4byte	0x1286
 5337 0fe7 0E080000 		.4byte	.LLST79
 5338 0feb 0A080000 		.4byte	.LVUS79
 5339 0fef 00       		.byte	0
 5340 0ff0 00       		.byte	0
 5341 0ff1 00       		.byte	0
 5342 0ff2 29       		.uleb128 0x29
 5343 0ff3 95120000 		.4byte	0x1295
 5344 0ff7 C0000000 		.4byte	.LBI108
 5345 0ffb 0100     		.2byte	.LVU749
 5346 0ffd C0000000 		.4byte	.LBB108
 5347 1001 08000000 		.4byte	.LBE108-.LBB108
 5348 1005 01       		.byte	0x1
 5349 1006 2603     		.2byte	0x326
 5350 1008 04       		.byte	0x4
 5351 1009 23100000 		.4byte	0x1023
 5352 100d 2A       		.uleb128 0x2a
 5353 100e A3120000 		.4byte	0x12a3
 5354 1012 34080000 		.4byte	.LLST80
 5355 1016 32080000 		.4byte	.LVUS80
 5356 101a 36       		.uleb128 0x36
 5357 101b AF120000 		.4byte	0x12af
 5358 101f 02       		.uleb128 0x2
ARM GAS  /tmp/cclXoGh5.s 			page 95


 5359 1020 91       		.byte	0x91
 5360 1021 68       		.sleb128 -24
 5361 1022 00       		.byte	0
 5362 1023 33       		.uleb128 0x33
 5363 1024 95120000 		.4byte	0x1295
 5364 1028 C8000000 		.4byte	.LBI110
 5365 102c 0300     		.2byte	.LVU758
 5366 102e B8000000 		.4byte	.Ldebug_ranges0+0xb8
 5367 1032 01       		.byte	0x1
 5368 1033 1F03     		.2byte	0x31f
 5369 1035 03       		.byte	0x3
 5370 1036 78100000 		.4byte	0x1078
 5371 103a 2A       		.uleb128 0x2a
 5372 103b A3120000 		.4byte	0x12a3
 5373 103f 49080000 		.4byte	.LLST81
 5374 1043 47080000 		.4byte	.LVUS81
 5375 1047 34       		.uleb128 0x34
 5376 1048 B8000000 		.4byte	.Ldebug_ranges0+0xb8
 5377 104c 36       		.uleb128 0x36
 5378 104d AF120000 		.4byte	0x12af
 5379 1051 02       		.uleb128 0x2
 5380 1052 91       		.byte	0x91
 5381 1053 68       		.sleb128 -24
 5382 1054 30       		.uleb128 0x30
 5383 1055 DA000000 		.4byte	.LVL253
 5384 1059 611E0000 		.4byte	0x1e61
 5385 105d 31       		.uleb128 0x31
 5386 105e 01       		.uleb128 0x1
 5387 105f 50       		.byte	0x50
 5388 1060 02       		.uleb128 0x2
 5389 1061 74       		.byte	0x74
 5390 1062 00       		.sleb128 0
 5391 1063 31       		.uleb128 0x31
 5392 1064 01       		.uleb128 0x1
 5393 1065 51       		.byte	0x51
 5394 1066 03       		.uleb128 0x3
 5395 1067 0B       		.byte	0xb
 5396 1068 0A90     		.2byte	0x900a
 5397 106a 31       		.uleb128 0x31
 5398 106b 01       		.uleb128 0x1
 5399 106c 52       		.byte	0x52
 5400 106d 02       		.uleb128 0x2
 5401 106e 91       		.byte	0x91
 5402 106f 68       		.sleb128 -24
 5403 1070 31       		.uleb128 0x31
 5404 1071 01       		.uleb128 0x1
 5405 1072 53       		.byte	0x53
 5406 1073 01       		.uleb128 0x1
 5407 1074 34       		.byte	0x34
 5408 1075 00       		.byte	0
 5409 1076 00       		.byte	0
 5410 1077 00       		.byte	0
 5411 1078 29       		.uleb128 0x29
 5412 1079 BD120000 		.4byte	0x12bd
 5413 107d 0C010000 		.4byte	.LBI115
 5414 1081 0200     		.2byte	.LVU783
 5415 1083 0C010000 		.4byte	.LBB115
ARM GAS  /tmp/cclXoGh5.s 			page 96


 5416 1087 06000000 		.4byte	.LBE115-.LBB115
 5417 108b 01       		.byte	0x1
 5418 108c 4103     		.2byte	0x341
 5419 108e 03       		.byte	0x3
 5420 108f A1100000 		.4byte	0x10a1
 5421 1093 2A       		.uleb128 0x2a
 5422 1094 CB120000 		.4byte	0x12cb
 5423 1098 5E080000 		.4byte	.LLST83
 5424 109c 5C080000 		.4byte	.LVUS83
 5425 10a0 00       		.byte	0
 5426 10a1 33       		.uleb128 0x33
 5427 10a2 D8120000 		.4byte	0x12d8
 5428 10a6 74010000 		.4byte	.LBI125
 5429 10aa 0000     		.2byte	.LVU830
 5430 10ac 08010000 		.4byte	.Ldebug_ranges0+0x108
 5431 10b0 01       		.byte	0x1
 5432 10b1 3D03     		.2byte	0x33d
 5433 10b3 03       		.byte	0x3
 5434 10b4 01110000 		.4byte	0x1101
 5435 10b8 2A       		.uleb128 0x2a
 5436 10b9 F6120000 		.4byte	0x12f6
 5437 10bd 73080000 		.4byte	.LLST89
 5438 10c1 71080000 		.4byte	.LVUS89
 5439 10c5 2A       		.uleb128 0x2a
 5440 10c6 EA120000 		.4byte	0x12ea
 5441 10ca 8A080000 		.4byte	.LLST90
 5442 10ce 86080000 		.4byte	.LVUS90
 5443 10d2 34       		.uleb128 0x34
 5444 10d3 08010000 		.4byte	.Ldebug_ranges0+0x108
 5445 10d7 2B       		.uleb128 0x2b
 5446 10d8 02130000 		.4byte	0x1302
 5447 10dc AE080000 		.4byte	.LLST91
 5448 10e0 AA080000 		.4byte	.LVUS91
 5449 10e4 35       		.uleb128 0x35
 5450 10e5 0D130000 		.4byte	0x130d
 5451 10e9 92010000 		.4byte	.LBB127
 5452 10ed 2C000000 		.4byte	.LBE127-.LBB127
 5453 10f1 2B       		.uleb128 0x2b
 5454 10f2 0E130000 		.4byte	0x130e
 5455 10f6 D1080000 		.4byte	.LLST92
 5456 10fa CF080000 		.4byte	.LVUS92
 5457 10fe 00       		.byte	0
 5458 10ff 00       		.byte	0
 5459 1100 00       		.byte	0
 5460 1101 33       		.uleb128 0x33
 5461 1102 95120000 		.4byte	0x1295
 5462 1106 D8010000 		.4byte	.LBI130
 5463 110a 0100     		.2byte	.LVU867
 5464 110c 20010000 		.4byte	.Ldebug_ranges0+0x120
 5465 1110 01       		.byte	0x1
 5466 1111 1803     		.2byte	0x318
 5467 1113 03       		.byte	0x3
 5468 1114 56110000 		.4byte	0x1156
 5469 1118 2A       		.uleb128 0x2a
 5470 1119 A3120000 		.4byte	0x12a3
 5471 111d E6080000 		.4byte	.LLST93
 5472 1121 E4080000 		.4byte	.LVUS93
ARM GAS  /tmp/cclXoGh5.s 			page 97


 5473 1125 34       		.uleb128 0x34
 5474 1126 20010000 		.4byte	.Ldebug_ranges0+0x120
 5475 112a 36       		.uleb128 0x36
 5476 112b AF120000 		.4byte	0x12af
 5477 112f 02       		.uleb128 0x2
 5478 1130 91       		.byte	0x91
 5479 1131 68       		.sleb128 -24
 5480 1132 30       		.uleb128 0x30
 5481 1133 E8010000 		.4byte	.LVL292
 5482 1137 611E0000 		.4byte	0x1e61
 5483 113b 31       		.uleb128 0x31
 5484 113c 01       		.uleb128 0x1
 5485 113d 50       		.byte	0x50
 5486 113e 02       		.uleb128 0x2
 5487 113f 74       		.byte	0x74
 5488 1140 00       		.sleb128 0
 5489 1141 31       		.uleb128 0x31
 5490 1142 01       		.uleb128 0x1
 5491 1143 51       		.byte	0x51
 5492 1144 03       		.uleb128 0x3
 5493 1145 0B       		.byte	0xb
 5494 1146 0A90     		.2byte	0x900a
 5495 1148 31       		.uleb128 0x31
 5496 1149 01       		.uleb128 0x1
 5497 114a 52       		.byte	0x52
 5498 114b 02       		.uleb128 0x2
 5499 114c 91       		.byte	0x91
 5500 114d 68       		.sleb128 -24
 5501 114e 31       		.uleb128 0x31
 5502 114f 01       		.uleb128 0x1
 5503 1150 53       		.byte	0x53
 5504 1151 01       		.uleb128 0x1
 5505 1152 34       		.byte	0x34
 5506 1153 00       		.byte	0
 5507 1154 00       		.byte	0
 5508 1155 00       		.byte	0
 5509 1156 33       		.uleb128 0x33
 5510 1157 95120000 		.4byte	0x1295
 5511 115b 1E020000 		.4byte	.LBI137
 5512 115f 0100     		.2byte	.LVU893
 5513 1161 40010000 		.4byte	.Ldebug_ranges0+0x140
 5514 1165 01       		.byte	0x1
 5515 1166 2C03     		.2byte	0x32c
 5516 1168 03       		.byte	0x3
 5517 1169 AB110000 		.4byte	0x11ab
 5518 116d 2A       		.uleb128 0x2a
 5519 116e A3120000 		.4byte	0x12a3
 5520 1172 FB080000 		.4byte	.LLST94
 5521 1176 F9080000 		.4byte	.LVUS94
 5522 117a 34       		.uleb128 0x34
 5523 117b 40010000 		.4byte	.Ldebug_ranges0+0x140
 5524 117f 36       		.uleb128 0x36
 5525 1180 AF120000 		.4byte	0x12af
 5526 1184 02       		.uleb128 0x2
 5527 1185 91       		.byte	0x91
 5528 1186 68       		.sleb128 -24
 5529 1187 30       		.uleb128 0x30
ARM GAS  /tmp/cclXoGh5.s 			page 98


 5530 1188 34020000 		.4byte	.LVL303
 5531 118c 611E0000 		.4byte	0x1e61
 5532 1190 31       		.uleb128 0x31
 5533 1191 01       		.uleb128 0x1
 5534 1192 50       		.byte	0x50
 5535 1193 02       		.uleb128 0x2
 5536 1194 74       		.byte	0x74
 5537 1195 00       		.sleb128 0
 5538 1196 31       		.uleb128 0x31
 5539 1197 01       		.uleb128 0x1
 5540 1198 51       		.byte	0x51
 5541 1199 03       		.uleb128 0x3
 5542 119a 0B       		.byte	0xb
 5543 119b 0A90     		.2byte	0x900a
 5544 119d 31       		.uleb128 0x31
 5545 119e 01       		.uleb128 0x1
 5546 119f 52       		.byte	0x52
 5547 11a0 02       		.uleb128 0x2
 5548 11a1 91       		.byte	0x91
 5549 11a2 68       		.sleb128 -24
 5550 11a3 31       		.uleb128 0x31
 5551 11a4 01       		.uleb128 0x1
 5552 11a5 53       		.byte	0x53
 5553 11a6 01       		.uleb128 0x1
 5554 11a7 34       		.byte	0x34
 5555 11a8 00       		.byte	0
 5556 11a9 00       		.byte	0
 5557 11aa 00       		.byte	0
 5558 11ab 37       		.uleb128 0x37
 5559 11ac B4000000 		.4byte	.LVL249
 5560 11b0 791E0000 		.4byte	0x1e79
 5561 11b4 BF110000 		.4byte	0x11bf
 5562 11b8 31       		.uleb128 0x31
 5563 11b9 01       		.uleb128 0x1
 5564 11ba 50       		.byte	0x50
 5565 11bb 02       		.uleb128 0x2
 5566 11bc 74       		.byte	0x74
 5567 11bd 00       		.sleb128 0
 5568 11be 00       		.byte	0
 5569 11bf 37       		.uleb128 0x37
 5570 11c0 BE000000 		.4byte	.LVL250
 5571 11c4 061B0000 		.4byte	0x1b06
 5572 11c8 D9110000 		.4byte	0x11d9
 5573 11cc 31       		.uleb128 0x31
 5574 11cd 01       		.uleb128 0x1
 5575 11ce 50       		.byte	0x50
 5576 11cf 02       		.uleb128 0x2
 5577 11d0 74       		.byte	0x74
 5578 11d1 00       		.sleb128 0
 5579 11d2 31       		.uleb128 0x31
 5580 11d3 01       		.uleb128 0x1
 5581 11d4 51       		.byte	0x51
 5582 11d5 02       		.uleb128 0x2
 5583 11d6 09       		.byte	0x9
 5584 11d7 FF       		.byte	0xff
 5585 11d8 00       		.byte	0
 5586 11d9 2C       		.uleb128 0x2c
ARM GAS  /tmp/cclXoGh5.s 			page 99


 5587 11da F4000000 		.4byte	.LVL257
 5588 11de 851E0000 		.4byte	0x1e85
 5589 11e2 37       		.uleb128 0x37
 5590 11e3 6E010000 		.4byte	.LVL276
 5591 11e7 911E0000 		.4byte	0x1e91
 5592 11eb F6110000 		.4byte	0x11f6
 5593 11ef 31       		.uleb128 0x31
 5594 11f0 01       		.uleb128 0x1
 5595 11f1 50       		.byte	0x50
 5596 11f2 02       		.uleb128 0x2
 5597 11f3 74       		.byte	0x74
 5598 11f4 00       		.sleb128 0
 5599 11f5 00       		.byte	0
 5600 11f6 37       		.uleb128 0x37
 5601 11f7 C4010000 		.4byte	.LVL287
 5602 11fb 9D1E0000 		.4byte	0x1e9d
 5603 11ff 0A120000 		.4byte	0x120a
 5604 1203 31       		.uleb128 0x31
 5605 1204 01       		.uleb128 0x1
 5606 1205 50       		.byte	0x50
 5607 1206 02       		.uleb128 0x2
 5608 1207 74       		.byte	0x74
 5609 1208 00       		.sleb128 0
 5610 1209 00       		.byte	0
 5611 120a 37       		.uleb128 0x37
 5612 120b F6010000 		.4byte	.LVL293
 5613 120f A91E0000 		.4byte	0x1ea9
 5614 1213 1E120000 		.4byte	0x121e
 5615 1217 31       		.uleb128 0x31
 5616 1218 01       		.uleb128 0x1
 5617 1219 50       		.byte	0x50
 5618 121a 02       		.uleb128 0x2
 5619 121b 74       		.byte	0x74
 5620 121c 00       		.sleb128 0
 5621 121d 00       		.byte	0
 5622 121e 37       		.uleb128 0x37
 5623 121f 16020000 		.4byte	.LVL298
 5624 1223 5A160000 		.4byte	0x165a
 5625 1227 32120000 		.4byte	0x1232
 5626 122b 31       		.uleb128 0x31
 5627 122c 01       		.uleb128 0x1
 5628 122d 50       		.byte	0x50
 5629 122e 02       		.uleb128 0x2
 5630 122f 74       		.byte	0x74
 5631 1230 00       		.sleb128 0
 5632 1231 00       		.byte	0
 5633 1232 37       		.uleb128 0x37
 5634 1233 3C020000 		.4byte	.LVL305
 5635 1237 B51E0000 		.4byte	0x1eb5
 5636 123b 46120000 		.4byte	0x1246
 5637 123f 31       		.uleb128 0x31
 5638 1240 01       		.uleb128 0x1
 5639 1241 50       		.byte	0x50
 5640 1242 02       		.uleb128 0x2
 5641 1243 74       		.byte	0x74
 5642 1244 00       		.sleb128 0
 5643 1245 00       		.byte	0
ARM GAS  /tmp/cclXoGh5.s 			page 100


 5644 1246 2C       		.uleb128 0x2c
 5645 1247 56020000 		.4byte	.LVL313
 5646 124b 581E0000 		.4byte	0x1e58
 5647 124f 00       		.byte	0
 5648 1250 0B       		.uleb128 0xb
 5649 1251 8A0B0000 		.4byte	0xb8a
 5650 1255 60120000 		.4byte	0x1260
 5651 1259 0C       		.uleb128 0xc
 5652 125a 9C020000 		.4byte	0x29c
 5653 125e 01       		.byte	0x1
 5654 125f 00       		.byte	0
 5655 1260 38       		.uleb128 0x38
 5656 1261 65060000 		.4byte	.LASF275
 5657 1265 01       		.byte	0x1
 5658 1266 D302     		.2byte	0x2d3
 5659 1268 0D       		.byte	0xd
 5660 1269 01       		.byte	0x1
 5661 126a 95120000 		.4byte	0x1295
 5662 126e 39       		.uleb128 0x39
 5663 126f 766D00   		.ascii	"vm\000"
 5664 1272 01       		.byte	0x1
 5665 1273 D302     		.2byte	0x2d3
 5666 1275 31       		.byte	0x31
 5667 1276 740D0000 		.4byte	0xd74
 5668 127a 3A       		.uleb128 0x3a
 5669 127b 6900     		.ascii	"i\000"
 5670 127d 01       		.byte	0x1
 5671 127e D502     		.2byte	0x2d5
 5672 1280 09       		.byte	0x9
 5673 1281 8A0B0000 		.4byte	0xb8a
 5674 1285 3B       		.uleb128 0x3b
 5675 1286 3C       		.uleb128 0x3c
 5676 1287 08080000 		.4byte	.LASF207
 5677 128b 01       		.byte	0x1
 5678 128c D802     		.2byte	0x2d8
 5679 128e 0A       		.byte	0xa
 5680 128f 8A0B0000 		.4byte	0xb8a
 5681 1293 00       		.byte	0
 5682 1294 00       		.byte	0
 5683 1295 3D       		.uleb128 0x3d
 5684 1296 6A0B0000 		.4byte	.LASF225
 5685 129a 01       		.byte	0x1
 5686 129b CA02     		.2byte	0x2ca
 5687 129d 06       		.byte	0x6
 5688 129e 01       		.byte	0x1
 5689 129f BD120000 		.4byte	0x12bd
 5690 12a3 39       		.uleb128 0x39
 5691 12a4 766D00   		.ascii	"vm\000"
 5692 12a7 01       		.byte	0x1
 5693 12a8 CA02     		.2byte	0x2ca
 5694 12aa 35       		.byte	0x35
 5695 12ab 740D0000 		.4byte	0xd74
 5696 12af 3C       		.uleb128 0x3c
 5697 12b0 390F0000 		.4byte	.LASF224
 5698 12b4 01       		.byte	0x1
 5699 12b5 CC02     		.2byte	0x2cc
 5700 12b7 09       		.byte	0x9
ARM GAS  /tmp/cclXoGh5.s 			page 101


 5701 12b8 50120000 		.4byte	0x1250
 5702 12bc 00       		.byte	0
 5703 12bd 3D       		.uleb128 0x3d
 5704 12be DB0F0000 		.4byte	.LASF226
 5705 12c2 01       		.byte	0x1
 5706 12c3 C402     		.2byte	0x2c4
 5707 12c5 06       		.byte	0x6
 5708 12c6 01       		.byte	0x1
 5709 12c7 D8120000 		.4byte	0x12d8
 5710 12cb 39       		.uleb128 0x39
 5711 12cc 766D00   		.ascii	"vm\000"
 5712 12cf 01       		.byte	0x1
 5713 12d0 C402     		.2byte	0x2c4
 5714 12d2 2C       		.byte	0x2c
 5715 12d3 740D0000 		.4byte	0xd74
 5716 12d7 00       		.byte	0
 5717 12d8 3E       		.uleb128 0x3e
 5718 12d9 45080000 		.4byte	.LASF227
 5719 12dd 01       		.byte	0x1
 5720 12de B102     		.2byte	0x2b1
 5721 12e0 08       		.byte	0x8
 5722 12e1 8A0B0000 		.4byte	0xb8a
 5723 12e5 01       		.byte	0x1
 5724 12e6 1B130000 		.4byte	0x131b
 5725 12ea 39       		.uleb128 0x39
 5726 12eb 766D00   		.ascii	"vm\000"
 5727 12ee 01       		.byte	0x1
 5728 12ef B102     		.2byte	0x2b1
 5729 12f1 2D       		.byte	0x2d
 5730 12f2 740D0000 		.4byte	0xd74
 5731 12f6 39       		.uleb128 0x39
 5732 12f7 706300   		.ascii	"pc\000"
 5733 12fa 01       		.byte	0x1
 5734 12fb B102     		.2byte	0x2b1
 5735 12fd 38       		.byte	0x38
 5736 12fe 8A0B0000 		.4byte	0xb8a
 5737 1302 3A       		.uleb128 0x3a
 5738 1303 6900     		.ascii	"i\000"
 5739 1305 01       		.byte	0x1
 5740 1306 B302     		.2byte	0x2b3
 5741 1308 09       		.byte	0x9
 5742 1309 8A0B0000 		.4byte	0xb8a
 5743 130d 3B       		.uleb128 0x3b
 5744 130e 3A       		.uleb128 0x3a
 5745 130f 6A00     		.ascii	"j\000"
 5746 1311 01       		.byte	0x1
 5747 1312 B802     		.2byte	0x2b8
 5748 1314 0B       		.byte	0xb
 5749 1315 8A0B0000 		.4byte	0xb8a
 5750 1319 00       		.byte	0
 5751 131a 00       		.byte	0
 5752 131b 3E       		.uleb128 0x3e
 5753 131c 66100000 		.4byte	.LASF228
 5754 1320 01       		.byte	0x1
 5755 1321 A002     		.2byte	0x2a0
 5756 1323 07       		.byte	0x7
 5757 1324 9B0B0000 		.4byte	0xb9b
ARM GAS  /tmp/cclXoGh5.s 			page 102


 5758 1328 01       		.byte	0x1
 5759 1329 46130000 		.4byte	0x1346
 5760 132d 39       		.uleb128 0x39
 5761 132e 766D00   		.ascii	"vm\000"
 5762 1331 01       		.byte	0x1
 5763 1332 A002     		.2byte	0x2a0
 5764 1334 2A       		.byte	0x2a
 5765 1335 740D0000 		.4byte	0xd74
 5766 1339 39       		.uleb128 0x39
 5767 133a 706300   		.ascii	"pc\000"
 5768 133d 01       		.byte	0x1
 5769 133e A002     		.2byte	0x2a0
 5770 1340 35       		.byte	0x35
 5771 1341 8A0B0000 		.4byte	0xb8a
 5772 1345 00       		.byte	0
 5773 1346 24       		.uleb128 0x24
 5774 1347 EB110000 		.4byte	.LASF230
 5775 134b 01       		.byte	0x1
 5776 134c 8B02     		.2byte	0x28b
 5777 134e 08       		.byte	0x8
 5778 134f 8A0B0000 		.4byte	0xb8a
 5779 1353 00000000 		.4byte	.LFB10
 5780 1357 44000000 		.4byte	.LFE10-.LFB10
 5781 135b 01       		.uleb128 0x1
 5782 135c 9C       		.byte	0x9c
 5783 135d B2130000 		.4byte	0x13b2
 5784 1361 25       		.uleb128 0x25
 5785 1362 766D00   		.ascii	"vm\000"
 5786 1365 01       		.byte	0x1
 5787 1366 8B02     		.2byte	0x28b
 5788 1368 21       		.byte	0x21
 5789 1369 740D0000 		.4byte	0xd74
 5790 136d 16090000 		.4byte	.LLST59
 5791 1371 0E090000 		.4byte	.LVUS59
 5792 1375 26       		.uleb128 0x26
 5793 1376 E1080000 		.4byte	.LASF231
 5794 137a 01       		.byte	0x1
 5795 137b 8B02     		.2byte	0x28b
 5796 137d 2C       		.byte	0x2c
 5797 137e 8A0B0000 		.4byte	0xb8a
 5798 1382 58090000 		.4byte	.LLST60
 5799 1386 50090000 		.4byte	.LVUS60
 5800 138a 37       		.uleb128 0x37
 5801 138b 22000000 		.4byte	.LVL207
 5802 138f B2130000 		.4byte	0x13b2
 5803 1393 9F130000 		.4byte	0x139f
 5804 1397 31       		.uleb128 0x31
 5805 1398 01       		.uleb128 0x1
 5806 1399 50       		.byte	0x50
 5807 139a 03       		.uleb128 0x3
 5808 139b F3       		.byte	0xf3
 5809 139c 01       		.uleb128 0x1
 5810 139d 50       		.byte	0x50
 5811 139e 00       		.byte	0
 5812 139f 2C       		.uleb128 0x2c
 5813 13a0 3A000000 		.4byte	.LVL209
 5814 13a4 C7140000 		.4byte	0x14c7
ARM GAS  /tmp/cclXoGh5.s 			page 103


 5815 13a8 2C       		.uleb128 0x2c
 5816 13a9 40000000 		.4byte	.LVL210
 5817 13ad 581E0000 		.4byte	0x1e58
 5818 13b1 00       		.byte	0
 5819 13b2 2D       		.uleb128 0x2d
 5820 13b3 AF100000 		.4byte	.LASF233
 5821 13b7 01       		.byte	0x1
 5822 13b8 6002     		.2byte	0x260
 5823 13ba 06       		.byte	0x6
 5824 13bb 00000000 		.4byte	.LFB9
 5825 13bf E0000000 		.4byte	.LFE9-.LFB9
 5826 13c3 01       		.uleb128 0x1
 5827 13c4 9C       		.byte	0x9c
 5828 13c5 C7140000 		.4byte	0x14c7
 5829 13c9 25       		.uleb128 0x25
 5830 13ca 766D00   		.ascii	"vm\000"
 5831 13cd 01       		.byte	0x1
 5832 13ce 6002     		.2byte	0x260
 5833 13d0 2C       		.byte	0x2c
 5834 13d1 740D0000 		.4byte	0xd74
 5835 13d5 9A090000 		.4byte	.LLST54
 5836 13d9 92090000 		.4byte	.LVUS54
 5837 13dd 26       		.uleb128 0x26
 5838 13de E1080000 		.4byte	.LASF231
 5839 13e2 01       		.byte	0x1
 5840 13e3 6002     		.2byte	0x260
 5841 13e5 37       		.byte	0x37
 5842 13e6 8A0B0000 		.4byte	0xb8a
 5843 13ea DC090000 		.4byte	.LLST55
 5844 13ee CE090000 		.4byte	.LVUS55
 5845 13f2 3F       		.uleb128 0x3f
 5846 13f3 39150000 		.4byte	0x1539
 5847 13f7 2C000000 		.4byte	.LBB95
 5848 13fb 28000000 		.4byte	.LBE95-.LBB95
 5849 13ff 01       		.byte	0x1
 5850 1400 7E02     		.2byte	0x27e
 5851 1402 08       		.byte	0x8
 5852 1403 1A140000 		.4byte	0x141a
 5853 1407 40       		.uleb128 0x40
 5854 1408 4B150000 		.4byte	0x154b
 5855 140c 2B       		.uleb128 0x2b
 5856 140d 57150000 		.4byte	0x1557
 5857 1411 390A0000 		.4byte	.LLST56
 5858 1415 370A0000 		.4byte	.LVUS56
 5859 1419 00       		.byte	0
 5860 141a 29       		.uleb128 0x29
 5861 141b 95120000 		.4byte	0x1295
 5862 141f 54000000 		.4byte	.LBI97
 5863 1423 0300     		.2byte	.LVU554
 5864 1425 54000000 		.4byte	.LBB97
 5865 1429 16000000 		.4byte	.LBE97-.LBB97
 5866 142d 01       		.byte	0x1
 5867 142e 8102     		.2byte	0x281
 5868 1430 05       		.byte	0x5
 5869 1431 6D140000 		.4byte	0x146d
 5870 1435 2A       		.uleb128 0x2a
 5871 1436 A3120000 		.4byte	0x12a3
ARM GAS  /tmp/cclXoGh5.s 			page 104


 5872 143a 4F0A0000 		.4byte	.LLST57
 5873 143e 4D0A0000 		.4byte	.LVUS57
 5874 1442 36       		.uleb128 0x36
 5875 1443 AF120000 		.4byte	0x12af
 5876 1447 02       		.uleb128 0x2
 5877 1448 91       		.byte	0x91
 5878 1449 60       		.sleb128 -32
 5879 144a 30       		.uleb128 0x30
 5880 144b 6A000000 		.4byte	.LVL193
 5881 144f 611E0000 		.4byte	0x1e61
 5882 1453 31       		.uleb128 0x31
 5883 1454 01       		.uleb128 0x1
 5884 1455 50       		.byte	0x50
 5885 1456 02       		.uleb128 0x2
 5886 1457 74       		.byte	0x74
 5887 1458 00       		.sleb128 0
 5888 1459 31       		.uleb128 0x31
 5889 145a 01       		.uleb128 0x1
 5890 145b 51       		.byte	0x51
 5891 145c 03       		.uleb128 0x3
 5892 145d 0B       		.byte	0xb
 5893 145e 0A90     		.2byte	0x900a
 5894 1460 31       		.uleb128 0x31
 5895 1461 01       		.uleb128 0x1
 5896 1462 52       		.byte	0x52
 5897 1463 02       		.uleb128 0x2
 5898 1464 7D       		.byte	0x7d
 5899 1465 00       		.sleb128 0
 5900 1466 31       		.uleb128 0x31
 5901 1467 01       		.uleb128 0x1
 5902 1468 53       		.byte	0x53
 5903 1469 01       		.uleb128 0x1
 5904 146a 34       		.byte	0x34
 5905 146b 00       		.byte	0
 5906 146c 00       		.byte	0
 5907 146d 3F       		.uleb128 0x3f
 5908 146e 39150000 		.4byte	0x1539
 5909 1472 84000000 		.4byte	.LBB99
 5910 1476 22000000 		.4byte	.LBE99-.LBB99
 5911 147a 01       		.byte	0x1
 5912 147b 6C02     		.2byte	0x26c
 5913 147d 08       		.byte	0x8
 5914 147e 95140000 		.4byte	0x1495
 5915 1482 40       		.uleb128 0x40
 5916 1483 4B150000 		.4byte	0x154b
 5917 1487 2B       		.uleb128 0x2b
 5918 1488 57150000 		.4byte	0x1557
 5919 148c 640A0000 		.4byte	.LLST58
 5920 1490 620A0000 		.4byte	.LVUS58
 5921 1494 00       		.byte	0
 5922 1495 37       		.uleb128 0x37
 5923 1496 AC000000 		.4byte	.LVL198
 5924 149a 5A160000 		.4byte	0x165a
 5925 149e A9140000 		.4byte	0x14a9
 5926 14a2 31       		.uleb128 0x31
 5927 14a3 01       		.uleb128 0x1
 5928 14a4 50       		.byte	0x50
ARM GAS  /tmp/cclXoGh5.s 			page 105


 5929 14a5 02       		.uleb128 0x2
 5930 14a6 74       		.byte	0x74
 5931 14a7 00       		.sleb128 0
 5932 14a8 00       		.byte	0
 5933 14a9 37       		.uleb128 0x37
 5934 14aa C4000000 		.4byte	.LVL201
 5935 14ae 5A160000 		.4byte	0x165a
 5936 14b2 BD140000 		.4byte	0x14bd
 5937 14b6 31       		.uleb128 0x31
 5938 14b7 01       		.uleb128 0x1
 5939 14b8 50       		.byte	0x50
 5940 14b9 02       		.uleb128 0x2
 5941 14ba 74       		.byte	0x74
 5942 14bb 00       		.sleb128 0
 5943 14bc 00       		.byte	0
 5944 14bd 2C       		.uleb128 0x2c
 5945 14be DC000000 		.4byte	.LVL205
 5946 14c2 581E0000 		.4byte	0x1e58
 5947 14c6 00       		.byte	0
 5948 14c7 2D       		.uleb128 0x2d
 5949 14c8 67020000 		.4byte	.LASF234
 5950 14cc 01       		.byte	0x1
 5951 14cd 4102     		.2byte	0x241
 5952 14cf 06       		.byte	0x6
 5953 14d0 00000000 		.4byte	.LFB8
 5954 14d4 7C000000 		.4byte	.LFE8-.LFB8
 5955 14d8 01       		.uleb128 0x1
 5956 14d9 9C       		.byte	0x9c
 5957 14da 39150000 		.4byte	0x1539
 5958 14de 25       		.uleb128 0x25
 5959 14df 766D00   		.ascii	"vm\000"
 5960 14e2 01       		.byte	0x1
 5961 14e3 4102     		.2byte	0x241
 5962 14e5 26       		.byte	0x26
 5963 14e6 740D0000 		.4byte	0xd74
 5964 14ea 800A0000 		.4byte	.LLST52
 5965 14ee 780A0000 		.4byte	.LVUS52
 5966 14f2 26       		.uleb128 0x26
 5967 14f3 E1080000 		.4byte	.LASF231
 5968 14f7 01       		.byte	0x1
 5969 14f8 4102     		.2byte	0x241
 5970 14fa 31       		.byte	0x31
 5971 14fb 8A0B0000 		.4byte	0xb8a
 5972 14ff BE0A0000 		.4byte	.LLST53
 5973 1503 B40A0000 		.4byte	.LVUS53
 5974 1507 37       		.uleb128 0x37
 5975 1508 2C000000 		.4byte	.LVL178
 5976 150c 5A160000 		.4byte	0x165a
 5977 1510 1B150000 		.4byte	0x151b
 5978 1514 31       		.uleb128 0x31
 5979 1515 01       		.uleb128 0x1
 5980 1516 50       		.byte	0x50
 5981 1517 02       		.uleb128 0x2
 5982 1518 75       		.byte	0x75
 5983 1519 00       		.sleb128 0
 5984 151a 00       		.byte	0
 5985 151b 37       		.uleb128 0x37
ARM GAS  /tmp/cclXoGh5.s 			page 106


 5986 151c 64000000 		.4byte	.LVL183
 5987 1520 5A160000 		.4byte	0x165a
 5988 1524 2F150000 		.4byte	0x152f
 5989 1528 31       		.uleb128 0x31
 5990 1529 01       		.uleb128 0x1
 5991 152a 50       		.byte	0x50
 5992 152b 02       		.uleb128 0x2
 5993 152c 75       		.byte	0x75
 5994 152d 00       		.sleb128 0
 5995 152e 00       		.byte	0
 5996 152f 2C       		.uleb128 0x2c
 5997 1530 78000000 		.4byte	.LVL187
 5998 1534 581E0000 		.4byte	0x1e58
 5999 1538 00       		.byte	0
 6000 1539 3E       		.uleb128 0x3e
 6001 153a 1C010000 		.4byte	.LASF235
 6002 153e 01       		.byte	0x1
 6003 153f 3002     		.2byte	0x230
 6004 1541 08       		.byte	0x8
 6005 1542 8A0B0000 		.4byte	0xb8a
 6006 1546 01       		.byte	0x1
 6007 1547 63150000 		.4byte	0x1563
 6008 154b 39       		.uleb128 0x39
 6009 154c 766D00   		.ascii	"vm\000"
 6010 154f 01       		.byte	0x1
 6011 1550 3002     		.2byte	0x230
 6012 1552 2D       		.byte	0x2d
 6013 1553 740D0000 		.4byte	0xd74
 6014 1557 3A       		.uleb128 0x3a
 6015 1558 6900     		.ascii	"i\000"
 6016 155a 01       		.byte	0x1
 6017 155b 3202     		.2byte	0x232
 6018 155d 09       		.byte	0x9
 6019 155e 8A0B0000 		.4byte	0xb8a
 6020 1562 00       		.byte	0
 6021 1563 2D       		.uleb128 0x2d
 6022 1564 B20C0000 		.4byte	.LASF236
 6023 1568 01       		.byte	0x1
 6024 1569 1602     		.2byte	0x216
 6025 156b 06       		.byte	0x6
 6026 156c 00000000 		.4byte	.LFB6
 6027 1570 84000000 		.4byte	.LFE6-.LFB6
 6028 1574 01       		.uleb128 0x1
 6029 1575 9C       		.byte	0x9c
 6030 1576 48160000 		.4byte	0x1648
 6031 157a 25       		.uleb128 0x25
 6032 157b 766D00   		.ascii	"vm\000"
 6033 157e 01       		.byte	0x1
 6034 157f 1602     		.2byte	0x216
 6035 1581 31       		.byte	0x31
 6036 1582 740D0000 		.4byte	0xd74
 6037 1586 040B0000 		.4byte	.LLST46
 6038 158a 000B0000 		.4byte	.LVUS46
 6039 158e 26       		.uleb128 0x26
 6040 158f 93090000 		.4byte	.LASF237
 6041 1593 01       		.byte	0x1
 6042 1594 1602     		.2byte	0x216
ARM GAS  /tmp/cclXoGh5.s 			page 107


 6043 1596 41       		.byte	0x41
 6044 1597 49080000 		.4byte	0x849
 6045 159b 2C0B0000 		.4byte	.LLST47
 6046 159f 220B0000 		.4byte	.LVUS47
 6047 15a3 27       		.uleb128 0x27
 6048 15a4 CB0F0000 		.4byte	.LASF238
 6049 15a8 01       		.byte	0x1
 6050 15a9 1802     		.2byte	0x218
 6051 15ab 09       		.byte	0x9
 6052 15ac 8A0B0000 		.4byte	0xb8a
 6053 15b0 700B0000 		.4byte	.LLST48
 6054 15b4 6E0B0000 		.4byte	.LVUS48
 6055 15b8 27       		.uleb128 0x27
 6056 15b9 390F0000 		.4byte	.LASF224
 6057 15bd 01       		.byte	0x1
 6058 15be 1A02     		.2byte	0x21a
 6059 15c0 08       		.byte	0x8
 6060 15c1 48160000 		.4byte	0x1648
 6061 15c5 870B0000 		.4byte	.LLST49
 6062 15c9 830B0000 		.4byte	.LVUS49
 6063 15cd 37       		.uleb128 0x37
 6064 15ce 1C000000 		.4byte	.LVL161
 6065 15d2 C11E0000 		.4byte	0x1ec1
 6066 15d6 E2150000 		.4byte	0x15e2
 6067 15da 31       		.uleb128 0x31
 6068 15db 01       		.uleb128 0x1
 6069 15dc 50       		.byte	0x50
 6070 15dd 03       		.uleb128 0x3
 6071 15de 7D       		.byte	0x7d
 6072 15df 24       		.sleb128 36
 6073 15e0 06       		.byte	0x6
 6074 15e1 00       		.byte	0
 6075 15e2 37       		.uleb128 0x37
 6076 15e3 40000000 		.4byte	.LVL164
 6077 15e7 CD1E0000 		.4byte	0x1ecd
 6078 15eb FD150000 		.4byte	0x15fd
 6079 15ef 31       		.uleb128 0x31
 6080 15f0 01       		.uleb128 0x1
 6081 15f1 50       		.byte	0x50
 6082 15f2 02       		.uleb128 0x2
 6083 15f3 74       		.byte	0x74
 6084 15f4 00       		.sleb128 0
 6085 15f5 31       		.uleb128 0x31
 6086 15f6 01       		.uleb128 0x1
 6087 15f7 51       		.byte	0x51
 6088 15f8 03       		.uleb128 0x3
 6089 15f9 77       		.byte	0x77
 6090 15fa 24       		.sleb128 36
 6091 15fb 06       		.byte	0x6
 6092 15fc 00       		.byte	0
 6093 15fd 37       		.uleb128 0x37
 6094 15fe 54000000 		.4byte	.LVL165
 6095 1602 D91E0000 		.4byte	0x1ed9
 6096 1606 17160000 		.4byte	0x1617
 6097 160a 31       		.uleb128 0x31
 6098 160b 01       		.uleb128 0x1
 6099 160c 50       		.byte	0x50
ARM GAS  /tmp/cclXoGh5.s 			page 108


 6100 160d 02       		.uleb128 0x2
 6101 160e 76       		.byte	0x76
 6102 160f 03       		.sleb128 3
 6103 1610 31       		.uleb128 0x31
 6104 1611 01       		.uleb128 0x1
 6105 1612 52       		.byte	0x52
 6106 1613 02       		.uleb128 0x2
 6107 1614 78       		.byte	0x78
 6108 1615 00       		.sleb128 0
 6109 1616 00       		.byte	0
 6110 1617 37       		.uleb128 0x37
 6111 1618 66000000 		.4byte	.LVL166
 6112 161c 611E0000 		.4byte	0x1e61
 6113 1620 3E160000 		.4byte	0x163e
 6114 1624 31       		.uleb128 0x31
 6115 1625 01       		.uleb128 0x1
 6116 1626 50       		.byte	0x50
 6117 1627 02       		.uleb128 0x2
 6118 1628 74       		.byte	0x74
 6119 1629 00       		.sleb128 0
 6120 162a 31       		.uleb128 0x31
 6121 162b 01       		.uleb128 0x1
 6122 162c 51       		.byte	0x51
 6123 162d 03       		.uleb128 0x3
 6124 162e 0B       		.byte	0xb
 6125 162f 0990     		.2byte	0x9009
 6126 1631 31       		.uleb128 0x31
 6127 1632 01       		.uleb128 0x1
 6128 1633 52       		.byte	0x52
 6129 1634 02       		.uleb128 0x2
 6130 1635 76       		.byte	0x76
 6131 1636 00       		.sleb128 0
 6132 1637 31       		.uleb128 0x31
 6133 1638 01       		.uleb128 0x1
 6134 1639 53       		.byte	0x53
 6135 163a 02       		.uleb128 0x2
 6136 163b 78       		.byte	0x78
 6137 163c 03       		.sleb128 3
 6138 163d 00       		.byte	0
 6139 163e 2C       		.uleb128 0x2c
 6140 163f 7C000000 		.4byte	.LVL169
 6141 1643 581E0000 		.4byte	0x1e58
 6142 1647 00       		.byte	0
 6143 1648 0B       		.uleb128 0xb
 6144 1649 9B0B0000 		.4byte	0xb9b
 6145 164d 5A160000 		.4byte	0x165a
 6146 1651 41       		.uleb128 0x41
 6147 1652 9C020000 		.4byte	0x29c
 6148 1656 02       		.uleb128 0x2
 6149 1657 78       		.byte	0x78
 6150 1658 02       		.sleb128 2
 6151 1659 00       		.byte	0
 6152 165a 42       		.uleb128 0x42
 6153 165b DF010000 		.4byte	.LASF239
 6154 165f 01       		.byte	0x1
 6155 1660 A9       		.byte	0xa9
 6156 1661 06       		.byte	0x6
ARM GAS  /tmp/cclXoGh5.s 			page 109


 6157 1662 00000000 		.4byte	.LFB5
 6158 1666 B0020000 		.4byte	.LFE5-.LFB5
 6159 166a 01       		.uleb128 0x1
 6160 166b 9C       		.byte	0x9c
 6161 166c 1C1A0000 		.4byte	0x1a1c
 6162 1670 43       		.uleb128 0x43
 6163 1671 766D00   		.ascii	"vm\000"
 6164 1674 01       		.byte	0x1
 6165 1675 A9       		.byte	0xa9
 6166 1676 20       		.byte	0x20
 6167 1677 740D0000 		.4byte	0xd74
 6168 167b AB0B0000 		.4byte	.LLST17
 6169 167f A70B0000 		.4byte	.LVUS17
 6170 1683 44       		.uleb128 0x44
 6171 1684 08080000 		.4byte	.LASF207
 6172 1688 01       		.byte	0x1
 6173 1689 AB       		.byte	0xab
 6174 168a 09       		.byte	0x9
 6175 168b 8A0B0000 		.4byte	0xb8a
 6176 168f F10B0000 		.4byte	.LLST18
 6177 1693 C90B0000 		.4byte	.LVUS18
 6178 1697 2E       		.uleb128 0x2e
 6179 1698 B0000000 		.4byte	.LBB75
 6180 169c 18000000 		.4byte	.LBE75-.LBB75
 6181 16a0 B9160000 		.4byte	0x16b9
 6182 16a4 44       		.uleb128 0x44
 6183 16a5 37000000 		.4byte	.LASF240
 6184 16a9 01       		.byte	0x1
 6185 16aa BE       		.byte	0xbe
 6186 16ab 0B       		.byte	0xb
 6187 16ac 7E0B0000 		.4byte	0xb7e
 6188 16b0 2E0D0000 		.4byte	.LLST23
 6189 16b4 2A0D0000 		.4byte	.LVUS23
 6190 16b8 00       		.byte	0
 6191 16b9 2E       		.uleb128 0x2e
 6192 16ba E4000000 		.4byte	.LBB76
 6193 16be 1E000000 		.4byte	.LBE76-.LBB76
 6194 16c2 DB160000 		.4byte	0x16db
 6195 16c6 44       		.uleb128 0x44
 6196 16c7 5C0B0000 		.4byte	.LASF241
 6197 16cb 01       		.byte	0x1
 6198 16cc E2       		.byte	0xe2
 6199 16cd 0B       		.byte	0xb
 6200 16ce 8A0B0000 		.4byte	0xb8a
 6201 16d2 640D0000 		.4byte	.LLST24
 6202 16d6 600D0000 		.4byte	.LVUS24
 6203 16da 00       		.byte	0
 6204 16db 2E       		.uleb128 0x2e
 6205 16dc 04010000 		.4byte	.LBB77
 6206 16e0 1E000000 		.4byte	.LBE77-.LBB77
 6207 16e4 FD160000 		.4byte	0x16fd
 6208 16e8 44       		.uleb128 0x44
 6209 16e9 5C0B0000 		.4byte	.LASF241
 6210 16ed 01       		.byte	0x1
 6211 16ee F7       		.byte	0xf7
 6212 16ef 0B       		.byte	0xb
 6213 16f0 8A0B0000 		.4byte	0xb8a
ARM GAS  /tmp/cclXoGh5.s 			page 110


 6214 16f4 9E0D0000 		.4byte	.LLST25
 6215 16f8 9C0D0000 		.4byte	.LVUS25
 6216 16fc 00       		.byte	0
 6217 16fd 2E       		.uleb128 0x2e
 6218 16fe 24010000 		.4byte	.LBB78
 6219 1702 28000000 		.4byte	.LBE78-.LBB78
 6220 1706 59170000 		.4byte	0x1759
 6221 170a 27       		.uleb128 0x27
 6222 170b 9A010000 		.4byte	.LASF242
 6223 170f 01       		.byte	0x1
 6224 1710 0C01     		.2byte	0x10c
 6225 1712 0B       		.byte	0xb
 6226 1713 8A0B0000 		.4byte	0xb8a
 6227 1717 BB0D0000 		.4byte	.LLST26
 6228 171b B70D0000 		.4byte	.LVUS26
 6229 171f 27       		.uleb128 0x27
 6230 1720 22120000 		.4byte	.LASF243
 6231 1724 01       		.byte	0x1
 6232 1725 0D01     		.2byte	0x10d
 6233 1727 0B       		.byte	0xb
 6234 1728 8A0B0000 		.4byte	0xb8a
 6235 172c EF0D0000 		.4byte	.LLST27
 6236 1730 ED0D0000 		.4byte	.LVUS27
 6237 1734 27       		.uleb128 0x27
 6238 1735 5C0B0000 		.4byte	.LASF241
 6239 1739 01       		.byte	0x1
 6240 173a 0E01     		.2byte	0x10e
 6241 173c 0B       		.byte	0xb
 6242 173d 8A0B0000 		.4byte	0xb8a
 6243 1741 060E0000 		.4byte	.LLST28
 6244 1745 020E0000 		.4byte	.LVUS28
 6245 1749 3B       		.uleb128 0x3b
 6246 174a 3C       		.uleb128 0x3c
 6247 174b 390F0000 		.4byte	.LASF224
 6248 174f 01       		.byte	0x1
 6249 1750 1E01     		.2byte	0x11e
 6250 1752 0C       		.byte	0xc
 6251 1753 1C1A0000 		.4byte	0x1a1c
 6252 1757 00       		.byte	0
 6253 1758 00       		.byte	0
 6254 1759 28       		.uleb128 0x28
 6255 175a 30000000 		.4byte	.Ldebug_ranges0+0x30
 6256 175e 0C180000 		.4byte	0x180c
 6257 1762 27       		.uleb128 0x27
 6258 1763 9A010000 		.4byte	.LASF242
 6259 1767 01       		.byte	0x1
 6260 1768 3401     		.2byte	0x134
 6261 176a 0B       		.byte	0xb
 6262 176b 8A0B0000 		.4byte	0xb8a
 6263 176f 300E0000 		.4byte	.LLST19
 6264 1773 2A0E0000 		.4byte	.LVUS19
 6265 1777 27       		.uleb128 0x27
 6266 1778 22120000 		.4byte	.LASF243
 6267 177c 01       		.byte	0x1
 6268 177d 3501     		.2byte	0x135
 6269 177f 0B       		.byte	0xb
 6270 1780 8A0B0000 		.4byte	0xb8a
ARM GAS  /tmp/cclXoGh5.s 			page 111


 6271 1784 770E0000 		.4byte	.LLST20
 6272 1788 730E0000 		.4byte	.LVUS20
 6273 178c 27       		.uleb128 0x27
 6274 178d 5C0B0000 		.4byte	.LASF241
 6275 1791 01       		.byte	0x1
 6276 1792 3601     		.2byte	0x136
 6277 1794 0B       		.byte	0xb
 6278 1795 8A0B0000 		.4byte	0xb8a
 6279 1799 9B0E0000 		.4byte	.LLST21
 6280 179d 950E0000 		.4byte	.LVUS21
 6281 17a1 27       		.uleb128 0x27
 6282 17a2 0E020000 		.4byte	.LASF244
 6283 17a6 01       		.byte	0x1
 6284 17a7 3701     		.2byte	0x137
 6285 17a9 0B       		.byte	0xb
 6286 17aa 7E0B0000 		.4byte	0xb7e
 6287 17ae D60E0000 		.4byte	.LLST22
 6288 17b2 D00E0000 		.4byte	.LVUS22
 6289 17b6 45       		.uleb128 0x45
 6290 17b7 5A000000 		.4byte	.LBB74
 6291 17bb 2A000000 		.4byte	.LBE74-.LBB74
 6292 17bf 2F       		.uleb128 0x2f
 6293 17c0 390F0000 		.4byte	.LASF224
 6294 17c4 01       		.byte	0x1
 6295 17c5 4801     		.2byte	0x148
 6296 17c7 0C       		.byte	0xc
 6297 17c8 1C1A0000 		.4byte	0x1a1c
 6298 17cc 02       		.uleb128 0x2
 6299 17cd 91       		.byte	0x91
 6300 17ce 5C       		.sleb128 -36
 6301 17cf 37       		.uleb128 0x37
 6302 17d0 78000000 		.4byte	.LVL90
 6303 17d4 611E0000 		.4byte	0x1e61
 6304 17d8 F5170000 		.4byte	0x17f5
 6305 17dc 31       		.uleb128 0x31
 6306 17dd 01       		.uleb128 0x1
 6307 17de 50       		.byte	0x50
 6308 17df 02       		.uleb128 0x2
 6309 17e0 74       		.byte	0x74
 6310 17e1 00       		.sleb128 0
 6311 17e2 31       		.uleb128 0x31
 6312 17e3 01       		.uleb128 0x1
 6313 17e4 51       		.byte	0x51
 6314 17e5 03       		.uleb128 0x3
 6315 17e6 0B       		.byte	0xb
 6316 17e7 0690     		.2byte	0x9006
 6317 17e9 31       		.uleb128 0x31
 6318 17ea 01       		.uleb128 0x1
 6319 17eb 52       		.byte	0x52
 6320 17ec 02       		.uleb128 0x2
 6321 17ed 91       		.byte	0x91
 6322 17ee 5C       		.sleb128 -36
 6323 17ef 31       		.uleb128 0x31
 6324 17f0 01       		.uleb128 0x1
 6325 17f1 53       		.byte	0x53
 6326 17f2 01       		.uleb128 0x1
 6327 17f3 36       		.byte	0x36
ARM GAS  /tmp/cclXoGh5.s 			page 112


 6328 17f4 00       		.byte	0
 6329 17f5 30       		.uleb128 0x30
 6330 17f6 84000000 		.4byte	.LVL91
 6331 17fa CD1E0000 		.4byte	0x1ecd
 6332 17fe 31       		.uleb128 0x31
 6333 17ff 01       		.uleb128 0x1
 6334 1800 50       		.byte	0x50
 6335 1801 02       		.uleb128 0x2
 6336 1802 74       		.byte	0x74
 6337 1803 00       		.sleb128 0
 6338 1804 31       		.uleb128 0x31
 6339 1805 01       		.uleb128 0x1
 6340 1806 51       		.byte	0x51
 6341 1807 01       		.uleb128 0x1
 6342 1808 30       		.byte	0x30
 6343 1809 00       		.byte	0
 6344 180a 00       		.byte	0
 6345 180b 00       		.byte	0
 6346 180c 28       		.uleb128 0x28
 6347 180d 48000000 		.4byte	.Ldebug_ranges0+0x48
 6348 1811 7B180000 		.4byte	0x187b
 6349 1815 27       		.uleb128 0x27
 6350 1816 37000000 		.4byte	.LASF240
 6351 181a 01       		.byte	0x1
 6352 181b 5F01     		.2byte	0x15f
 6353 181d 0B       		.byte	0xb
 6354 181e 7E0B0000 		.4byte	0xb7e
 6355 1822 3F0F0000 		.4byte	.LLST29
 6356 1826 2D0F0000 		.4byte	.LVUS29
 6357 182a 27       		.uleb128 0x27
 6358 182b D20F0000 		.4byte	.LASF245
 6359 182f 01       		.byte	0x1
 6360 1830 5F01     		.2byte	0x15f
 6361 1832 12       		.byte	0x12
 6362 1833 7E0B0000 		.4byte	0xb7e
 6363 1837 C60F0000 		.4byte	.LLST30
 6364 183b C20F0000 		.4byte	.LVUS30
 6365 183f 46       		.uleb128 0x46
 6366 1840 2C1A0000 		.4byte	0x1a2c
 6367 1844 5C010000 		.4byte	.LBI80
 6368 1848 0100     		.2byte	.LVU313
 6369 184a 60000000 		.4byte	.Ldebug_ranges0+0x60
 6370 184e 01       		.byte	0x1
 6371 184f 6B01     		.2byte	0x16b
 6372 1851 0F       		.byte	0xf
 6373 1852 2A       		.uleb128 0x2a
 6374 1853 3D1A0000 		.4byte	0x1a3d
 6375 1857 EE0F0000 		.4byte	.LLST31
 6376 185b EA0F0000 		.4byte	.LVUS31
 6377 185f 2A       		.uleb128 0x2a
 6378 1860 541A0000 		.4byte	0x1a54
 6379 1864 10100000 		.4byte	.LLST32
 6380 1868 0C100000 		.4byte	.LVUS32
 6381 186c 2A       		.uleb128 0x2a
 6382 186d 481A0000 		.4byte	0x1a48
 6383 1871 3E100000 		.4byte	.LLST33
 6384 1875 2E100000 		.4byte	.LVUS33
ARM GAS  /tmp/cclXoGh5.s 			page 113


 6385 1879 00       		.byte	0
 6386 187a 00       		.byte	0
 6387 187b 2E       		.uleb128 0x2e
 6388 187c 7A010000 		.4byte	.LBB86
 6389 1880 30000000 		.4byte	.LBE86-.LBB86
 6390 1884 E1180000 		.4byte	0x18e1
 6391 1888 27       		.uleb128 0x27
 6392 1889 29110000 		.4byte	.LASF246
 6393 188d 01       		.byte	0x1
 6394 188e 7801     		.2byte	0x178
 6395 1890 0B       		.byte	0xb
 6396 1891 7E0B0000 		.4byte	0xb7e
 6397 1895 B4100000 		.4byte	.LLST34
 6398 1899 B0100000 		.4byte	.LVUS34
 6399 189d 27       		.uleb128 0x27
 6400 189e D8080000 		.4byte	.LASF247
 6401 18a2 01       		.byte	0x1
 6402 18a3 7801     		.2byte	0x178
 6403 18a5 15       		.byte	0x15
 6404 18a6 7E0B0000 		.4byte	0xb7e
 6405 18aa EB100000 		.4byte	.LLST35
 6406 18ae E7100000 		.4byte	.LVUS35
 6407 18b2 27       		.uleb128 0x27
 6408 18b3 D20F0000 		.4byte	.LASF245
 6409 18b7 01       		.byte	0x1
 6410 18b8 7801     		.2byte	0x178
 6411 18ba 1F       		.byte	0x1f
 6412 18bb 7E0B0000 		.4byte	0xb7e
 6413 18bf 24110000 		.4byte	.LLST36
 6414 18c3 22110000 		.4byte	.LVUS36
 6415 18c7 30       		.uleb128 0x30
 6416 18c8 96010000 		.4byte	.LVL118
 6417 18cc 601A0000 		.4byte	0x1a60
 6418 18d0 31       		.uleb128 0x31
 6419 18d1 01       		.uleb128 0x1
 6420 18d2 50       		.byte	0x50
 6421 18d3 02       		.uleb128 0x2
 6422 18d4 74       		.byte	0x74
 6423 18d5 00       		.sleb128 0
 6424 18d6 31       		.uleb128 0x31
 6425 18d7 01       		.uleb128 0x1
 6426 18d8 53       		.byte	0x53
 6427 18d9 05       		.uleb128 0x5
 6428 18da 75       		.byte	0x75
 6429 18db 00       		.sleb128 0
 6430 18dc 08       		.byte	0x8
 6431 18dd FF       		.byte	0xff
 6432 18de 1A       		.byte	0x1a
 6433 18df 00       		.byte	0
 6434 18e0 00       		.byte	0
 6435 18e1 2E       		.uleb128 0x2e
 6436 18e2 AC010000 		.4byte	.LBB87
 6437 18e6 08000000 		.4byte	.LBE87-.LBB87
 6438 18ea 04190000 		.4byte	0x1904
 6439 18ee 27       		.uleb128 0x27
 6440 18ef 18050000 		.4byte	.LASF248
 6441 18f3 01       		.byte	0x1
ARM GAS  /tmp/cclXoGh5.s 			page 114


 6442 18f4 9301     		.2byte	0x193
 6443 18f6 0B       		.byte	0xb
 6444 18f7 7E0B0000 		.4byte	0xb7e
 6445 18fb 3D110000 		.4byte	.LLST37
 6446 18ff 37110000 		.4byte	.LVUS37
 6447 1903 00       		.byte	0
 6448 1904 28       		.uleb128 0x28
 6449 1905 80000000 		.4byte	.Ldebug_ranges0+0x80
 6450 1909 7B190000 		.4byte	0x197b
 6451 190d 27       		.uleb128 0x27
 6452 190e C7100000 		.4byte	.LASF249
 6453 1912 01       		.byte	0x1
 6454 1913 A301     		.2byte	0x1a3
 6455 1915 0B       		.byte	0xb
 6456 1916 7E0B0000 		.4byte	0xb7e
 6457 191a 92110000 		.4byte	.LLST38
 6458 191e 8C110000 		.4byte	.LVUS38
 6459 1922 27       		.uleb128 0x27
 6460 1923 29110000 		.4byte	.LASF246
 6461 1927 01       		.byte	0x1
 6462 1928 A401     		.2byte	0x1a4
 6463 192a 0B       		.byte	0xb
 6464 192b 7E0B0000 		.4byte	0xb7e
 6465 192f C3110000 		.4byte	.LLST39
 6466 1933 BB110000 		.4byte	.LVUS39
 6467 1937 27       		.uleb128 0x27
 6468 1938 D8080000 		.4byte	.LASF247
 6469 193c 01       		.byte	0x1
 6470 193d A401     		.2byte	0x1a4
 6471 193f 15       		.byte	0x15
 6472 1940 7E0B0000 		.4byte	0xb7e
 6473 1944 29120000 		.4byte	.LLST40
 6474 1948 21120000 		.4byte	.LVUS40
 6475 194c 27       		.uleb128 0x27
 6476 194d 18050000 		.4byte	.LASF248
 6477 1951 01       		.byte	0x1
 6478 1952 A501     		.2byte	0x1a5
 6479 1954 0B       		.byte	0xb
 6480 1955 7E0B0000 		.4byte	0xb7e
 6481 1959 93120000 		.4byte	.LLST41
 6482 195d 8F120000 		.4byte	.LVUS41
 6483 1961 30       		.uleb128 0x30
 6484 1962 D2010000 		.4byte	.LVL128
 6485 1966 601A0000 		.4byte	0x1a60
 6486 196a 31       		.uleb128 0x31
 6487 196b 01       		.uleb128 0x1
 6488 196c 50       		.byte	0x50
 6489 196d 02       		.uleb128 0x2
 6490 196e 74       		.byte	0x74
 6491 196f 00       		.sleb128 0
 6492 1970 31       		.uleb128 0x31
 6493 1971 01       		.uleb128 0x1
 6494 1972 53       		.byte	0x53
 6495 1973 05       		.uleb128 0x5
 6496 1974 75       		.byte	0x75
 6497 1975 00       		.sleb128 0
 6498 1976 08       		.byte	0x8
ARM GAS  /tmp/cclXoGh5.s 			page 115


 6499 1977 FF       		.byte	0xff
 6500 1978 1A       		.byte	0x1a
 6501 1979 00       		.byte	0
 6502 197a 00       		.byte	0
 6503 197b 2E       		.uleb128 0x2e
 6504 197c FA010000 		.4byte	.LBB89
 6505 1980 20000000 		.4byte	.LBE89-.LBB89
 6506 1984 CF190000 		.4byte	0x19cf
 6507 1988 27       		.uleb128 0x27
 6508 1989 D2110000 		.4byte	.LASF222
 6509 198d 01       		.byte	0x1
 6510 198e D401     		.2byte	0x1d4
 6511 1990 0B       		.byte	0xb
 6512 1991 8A0B0000 		.4byte	0xb8a
 6513 1995 B7120000 		.4byte	.LLST42
 6514 1999 B1120000 		.4byte	.LVUS42
 6515 199d 27       		.uleb128 0x27
 6516 199e 22110000 		.4byte	.LASF223
 6517 19a2 01       		.byte	0x1
 6518 19a3 D501     		.2byte	0x1d5
 6519 19a5 0B       		.byte	0xb
 6520 19a6 8A0B0000 		.4byte	0xb8a
 6521 19aa 02130000 		.4byte	.LLST43
 6522 19ae FC120000 		.4byte	.LVUS43
 6523 19b2 30       		.uleb128 0x30
 6524 19b3 14020000 		.4byte	.LVL134
 6525 19b7 611E0000 		.4byte	0x1e61
 6526 19bb 31       		.uleb128 0x31
 6527 19bc 01       		.uleb128 0x1
 6528 19bd 50       		.byte	0x50
 6529 19be 02       		.uleb128 0x2
 6530 19bf 74       		.byte	0x74
 6531 19c0 00       		.sleb128 0
 6532 19c1 31       		.uleb128 0x31
 6533 19c2 01       		.uleb128 0x1
 6534 19c3 51       		.byte	0x51
 6535 19c4 08       		.uleb128 0x8
 6536 19c5 75       		.byte	0x75
 6537 19c6 00       		.sleb128 0
 6538 19c7 09       		.byte	0x9
 6539 19c8 F8       		.byte	0xf8
 6540 19c9 24       		.byte	0x24
 6541 19ca 09       		.byte	0x9
 6542 19cb F8       		.byte	0xf8
 6543 19cc 25       		.byte	0x25
 6544 19cd 00       		.byte	0
 6545 19ce 00       		.byte	0
 6546 19cf 2E       		.uleb128 0x2e
 6547 19d0 2E020000 		.4byte	.LBB90
 6548 19d4 16000000 		.4byte	.LBE90-.LBB90
 6549 19d8 F2190000 		.4byte	0x19f2
 6550 19dc 27       		.uleb128 0x27
 6551 19dd 050C0000 		.4byte	.LASF219
 6552 19e1 01       		.byte	0x1
 6553 19e2 F001     		.2byte	0x1f0
 6554 19e4 0B       		.byte	0xb
 6555 19e5 8A0B0000 		.4byte	0xb8a
ARM GAS  /tmp/cclXoGh5.s 			page 116


 6556 19e9 4B130000 		.4byte	.LLST44
 6557 19ed 47130000 		.4byte	.LVUS44
 6558 19f1 00       		.byte	0
 6559 19f2 37       		.uleb128 0x37
 6560 19f3 26020000 		.4byte	.LVL135
 6561 19f7 E41E0000 		.4byte	0x1ee4
 6562 19fb 121A0000 		.4byte	0x1a12
 6563 19ff 31       		.uleb128 0x31
 6564 1a00 01       		.uleb128 0x1
 6565 1a01 50       		.byte	0x50
 6566 1a02 02       		.uleb128 0x2
 6567 1a03 74       		.byte	0x74
 6568 1a04 00       		.sleb128 0
 6569 1a05 31       		.uleb128 0x31
 6570 1a06 01       		.uleb128 0x1
 6571 1a07 51       		.byte	0x51
 6572 1a08 08       		.uleb128 0x8
 6573 1a09 75       		.byte	0x75
 6574 1a0a 00       		.sleb128 0
 6575 1a0b 09       		.byte	0x9
 6576 1a0c F8       		.byte	0xf8
 6577 1a0d 24       		.byte	0x24
 6578 1a0e 09       		.byte	0x9
 6579 1a0f F8       		.byte	0xf8
 6580 1a10 25       		.byte	0x25
 6581 1a11 00       		.byte	0
 6582 1a12 2C       		.uleb128 0x2c
 6583 1a13 A8020000 		.4byte	.LVL158
 6584 1a17 581E0000 		.4byte	0x1e58
 6585 1a1b 00       		.byte	0
 6586 1a1c 0B       		.uleb128 0xb
 6587 1a1d 8A0B0000 		.4byte	0xb8a
 6588 1a21 2C1A0000 		.4byte	0x1a2c
 6589 1a25 0C       		.uleb128 0xc
 6590 1a26 9C020000 		.4byte	0x29c
 6591 1a2a 02       		.byte	0x2
 6592 1a2b 00       		.byte	0
 6593 1a2c 47       		.uleb128 0x47
 6594 1a2d 2C120000 		.4byte	.LASF276
 6595 1a31 01       		.byte	0x1
 6596 1a32 96       		.byte	0x96
 6597 1a33 0F       		.byte	0xf
 6598 1a34 7E0B0000 		.4byte	0xb7e
 6599 1a38 01       		.byte	0x1
 6600 1a39 601A0000 		.4byte	0x1a60
 6601 1a3d 48       		.uleb128 0x48
 6602 1a3e 766D00   		.ascii	"vm\000"
 6603 1a41 01       		.byte	0x1
 6604 1a42 96       		.byte	0x96
 6605 1a43 35       		.byte	0x35
 6606 1a44 740D0000 		.4byte	0xd74
 6607 1a48 49       		.uleb128 0x49
 6608 1a49 37000000 		.4byte	.LASF240
 6609 1a4d 01       		.byte	0x1
 6610 1a4e 96       		.byte	0x96
 6611 1a4f 40       		.byte	0x40
 6612 1a50 7E0B0000 		.4byte	0xb7e
ARM GAS  /tmp/cclXoGh5.s 			page 117


 6613 1a54 48       		.uleb128 0x48
 6614 1a55 6F7000   		.ascii	"op\000"
 6615 1a58 01       		.byte	0x1
 6616 1a59 96       		.byte	0x96
 6617 1a5a 4E       		.byte	0x4e
 6618 1a5b 8A0B0000 		.4byte	0xb8a
 6619 1a5f 00       		.byte	0
 6620 1a60 4A       		.uleb128 0x4a
 6621 1a61 4D100000 		.4byte	.LASF277
 6622 1a65 01       		.byte	0x1
 6623 1a66 5A       		.byte	0x5a
 6624 1a67 0F       		.byte	0xf
 6625 1a68 7E0B0000 		.4byte	0xb7e
 6626 1a6c 00000000 		.4byte	.LFB3
 6627 1a70 0C010000 		.4byte	.LFE3-.LFB3
 6628 1a74 01       		.uleb128 0x1
 6629 1a75 9C       		.byte	0x9c
 6630 1a76 061B0000 		.4byte	0x1b06
 6631 1a7a 43       		.uleb128 0x43
 6632 1a7b 766D00   		.ascii	"vm\000"
 6633 1a7e 01       		.byte	0x1
 6634 1a7f 5A       		.byte	0x5a
 6635 1a80 36       		.byte	0x36
 6636 1a81 740D0000 		.4byte	0xd74
 6637 1a85 CB130000 		.4byte	.LLST0
 6638 1a89 7D130000 		.4byte	.LVUS0
 6639 1a8d 4B       		.uleb128 0x4b
 6640 1a8e 29110000 		.4byte	.LASF246
 6641 1a92 01       		.byte	0x1
 6642 1a93 5A       		.byte	0x5a
 6643 1a94 41       		.byte	0x41
 6644 1a95 7E0B0000 		.4byte	0xb7e
 6645 1a99 C6150000 		.4byte	.LLST1
 6646 1a9d BA150000 		.4byte	.LVUS1
 6647 1aa1 4B       		.uleb128 0x4b
 6648 1aa2 D8080000 		.4byte	.LASF247
 6649 1aa6 01       		.byte	0x1
 6650 1aa7 5A       		.byte	0x5a
 6651 1aa8 52       		.byte	0x52
 6652 1aa9 7E0B0000 		.4byte	0xb7e
 6653 1aad 35160000 		.4byte	.LLST2
 6654 1ab1 19160000 		.4byte	.LVUS2
 6655 1ab5 43       		.uleb128 0x43
 6656 1ab6 6F7000   		.ascii	"op\000"
 6657 1ab9 01       		.byte	0x1
 6658 1aba 5A       		.byte	0x5a
 6659 1abb 63       		.byte	0x63
 6660 1abc 8A0B0000 		.4byte	0xb8a
 6661 1ac0 FC160000 		.4byte	.LLST3
 6662 1ac4 EC160000 		.4byte	.LVUS3
 6663 1ac8 37       		.uleb128 0x37
 6664 1ac9 78000000 		.4byte	.LVL19
 6665 1acd CD1E0000 		.4byte	0x1ecd
 6666 1ad1 E21A0000 		.4byte	0x1ae2
 6667 1ad5 31       		.uleb128 0x31
 6668 1ad6 01       		.uleb128 0x1
 6669 1ad7 50       		.byte	0x50
ARM GAS  /tmp/cclXoGh5.s 			page 118


 6670 1ad8 03       		.uleb128 0x3
 6671 1ad9 91       		.byte	0x91
 6672 1ada 6C       		.sleb128 -20
 6673 1adb 06       		.byte	0x6
 6674 1adc 31       		.uleb128 0x31
 6675 1add 01       		.uleb128 0x1
 6676 1ade 51       		.byte	0x51
 6677 1adf 01       		.uleb128 0x1
 6678 1ae0 30       		.byte	0x30
 6679 1ae1 00       		.byte	0
 6680 1ae2 37       		.uleb128 0x37
 6681 1ae3 8A000000 		.4byte	.LVL21
 6682 1ae7 611E0000 		.4byte	0x1e61
 6683 1aeb FC1A0000 		.4byte	0x1afc
 6684 1aef 31       		.uleb128 0x31
 6685 1af0 01       		.uleb128 0x1
 6686 1af1 51       		.byte	0x51
 6687 1af2 03       		.uleb128 0x3
 6688 1af3 0B       		.byte	0xb
 6689 1af4 0790     		.2byte	0x9007
 6690 1af6 31       		.uleb128 0x31
 6691 1af7 01       		.uleb128 0x1
 6692 1af8 53       		.byte	0x53
 6693 1af9 01       		.uleb128 0x1
 6694 1afa 32       		.byte	0x32
 6695 1afb 00       		.byte	0
 6696 1afc 2C       		.uleb128 0x2c
 6697 1afd 02010000 		.4byte	.LVL50
 6698 1b01 581E0000 		.4byte	0x1e58
 6699 1b05 00       		.byte	0
 6700 1b06 4C       		.uleb128 0x4c
 6701 1b07 E60E0000 		.4byte	.LASF250
 6702 1b0b 01       		.byte	0x1
 6703 1b0c 44       		.byte	0x44
 6704 1b0d 08       		.byte	0x8
 6705 1b0e 8A0B0000 		.4byte	0xb8a
 6706 1b12 00000000 		.4byte	.LFB2
 6707 1b16 94000000 		.4byte	.LFE2-.LFB2
 6708 1b1a 01       		.uleb128 0x1
 6709 1b1b 9C       		.byte	0x9c
 6710 1b1c 2E1C0000 		.4byte	0x1c2e
 6711 1b20 43       		.uleb128 0x43
 6712 1b21 766D00   		.ascii	"vm\000"
 6713 1b24 01       		.byte	0x1
 6714 1b25 44       		.byte	0x44
 6715 1b26 28       		.byte	0x28
 6716 1b27 740D0000 		.4byte	0xd74
 6717 1b2b 78170000 		.4byte	.LLST9
 6718 1b2f 68170000 		.4byte	.LVUS9
 6719 1b33 4B       		.uleb128 0x4b
 6720 1b34 61020000 		.4byte	.LASF251
 6721 1b38 01       		.byte	0x1
 6722 1b39 44       		.byte	0x44
 6723 1b3a 33       		.byte	0x33
 6724 1b3b 8A0B0000 		.4byte	0xb8a
 6725 1b3f EA170000 		.4byte	.LLST10
 6726 1b43 DE170000 		.4byte	.LVUS10
ARM GAS  /tmp/cclXoGh5.s 			page 119


 6727 1b47 44       		.uleb128 0x44
 6728 1b48 1B090000 		.4byte	.LASF252
 6729 1b4c 01       		.byte	0x1
 6730 1b4d 46       		.byte	0x46
 6731 1b4e 09       		.byte	0x9
 6732 1b4f 8A0B0000 		.4byte	0xb8a
 6733 1b53 41180000 		.4byte	.LLST11
 6734 1b57 3D180000 		.4byte	.LVUS11
 6735 1b5b 4D       		.uleb128 0x4d
 6736 1b5c 2E1C0000 		.4byte	0x1c2e
 6737 1b60 14000000 		.4byte	.LBI61
 6738 1b64 0100     		.2byte	.LVU134
 6739 1b66 00000000 		.4byte	.Ldebug_ranges0+0
 6740 1b6a 01       		.byte	0x1
 6741 1b6b 46       		.byte	0x46
 6742 1b6c 13       		.byte	0x13
 6743 1b6d AC1B0000 		.4byte	0x1bac
 6744 1b71 2A       		.uleb128 0x2a
 6745 1b72 4A1C0000 		.4byte	0x1c4a
 6746 1b76 63180000 		.4byte	.LLST12
 6747 1b7a 5F180000 		.4byte	.LVUS12
 6748 1b7e 2A       		.uleb128 0x2a
 6749 1b7f 3F1C0000 		.4byte	0x1c3f
 6750 1b83 85180000 		.4byte	.LLST13
 6751 1b87 81180000 		.4byte	.LVUS13
 6752 1b8b 34       		.uleb128 0x34
 6753 1b8c 00000000 		.4byte	.Ldebug_ranges0+0
 6754 1b90 2B       		.uleb128 0x2b
 6755 1b91 561C0000 		.4byte	0x1c56
 6756 1b95 A7180000 		.4byte	.LLST14
 6757 1b99 A3180000 		.4byte	.LVUS14
 6758 1b9d 2B       		.uleb128 0x2b
 6759 1b9e 621C0000 		.4byte	0x1c62
 6760 1ba2 CD180000 		.4byte	.LLST15
 6761 1ba6 C5180000 		.4byte	.LVUS15
 6762 1baa 00       		.byte	0
 6763 1bab 00       		.byte	0
 6764 1bac 4E       		.uleb128 0x4e
 6765 1bad 95120000 		.4byte	0x1295
 6766 1bb1 60000000 		.4byte	.LBI71
 6767 1bb5 0200     		.2byte	.LVU169
 6768 1bb7 60000000 		.4byte	.LBB71
 6769 1bbb 18000000 		.4byte	.LBE71-.LBB71
 6770 1bbf 01       		.byte	0x1
 6771 1bc0 55       		.byte	0x55
 6772 1bc1 04       		.byte	0x4
 6773 1bc2 FE1B0000 		.4byte	0x1bfe
 6774 1bc6 2A       		.uleb128 0x2a
 6775 1bc7 A3120000 		.4byte	0x12a3
 6776 1bcb 06190000 		.4byte	.LLST16
 6777 1bcf 04190000 		.4byte	.LVUS16
 6778 1bd3 36       		.uleb128 0x36
 6779 1bd4 AF120000 		.4byte	0x12af
 6780 1bd8 02       		.uleb128 0x2
 6781 1bd9 91       		.byte	0x91
 6782 1bda 68       		.sleb128 -24
 6783 1bdb 30       		.uleb128 0x30
ARM GAS  /tmp/cclXoGh5.s 			page 120


 6784 1bdc 76000000 		.4byte	.LVL75
 6785 1be0 611E0000 		.4byte	0x1e61
 6786 1be4 31       		.uleb128 0x31
 6787 1be5 01       		.uleb128 0x1
 6788 1be6 50       		.byte	0x50
 6789 1be7 02       		.uleb128 0x2
 6790 1be8 76       		.byte	0x76
 6791 1be9 00       		.sleb128 0
 6792 1bea 31       		.uleb128 0x31
 6793 1beb 01       		.uleb128 0x1
 6794 1bec 51       		.byte	0x51
 6795 1bed 03       		.uleb128 0x3
 6796 1bee 0B       		.byte	0xb
 6797 1bef 0A90     		.2byte	0x900a
 6798 1bf1 31       		.uleb128 0x31
 6799 1bf2 01       		.uleb128 0x1
 6800 1bf3 52       		.byte	0x52
 6801 1bf4 02       		.uleb128 0x2
 6802 1bf5 7D       		.byte	0x7d
 6803 1bf6 00       		.sleb128 0
 6804 1bf7 31       		.uleb128 0x31
 6805 1bf8 01       		.uleb128 0x1
 6806 1bf9 53       		.byte	0x53
 6807 1bfa 01       		.uleb128 0x1
 6808 1bfb 34       		.byte	0x34
 6809 1bfc 00       		.byte	0
 6810 1bfd 00       		.byte	0
 6811 1bfe 37       		.uleb128 0x37
 6812 1bff 88000000 		.4byte	.LVL79
 6813 1c03 611E0000 		.4byte	0x1e61
 6814 1c07 241C0000 		.4byte	0x1c24
 6815 1c0b 31       		.uleb128 0x31
 6816 1c0c 01       		.uleb128 0x1
 6817 1c0d 50       		.byte	0x50
 6818 1c0e 02       		.uleb128 0x2
 6819 1c0f 76       		.byte	0x76
 6820 1c10 00       		.sleb128 0
 6821 1c11 31       		.uleb128 0x31
 6822 1c12 01       		.uleb128 0x1
 6823 1c13 51       		.byte	0x51
 6824 1c14 03       		.uleb128 0x3
 6825 1c15 0B       		.byte	0xb
 6826 1c16 0890     		.2byte	0x9008
 6827 1c18 31       		.uleb128 0x31
 6828 1c19 01       		.uleb128 0x1
 6829 1c1a 52       		.byte	0x52
 6830 1c1b 02       		.uleb128 0x2
 6831 1c1c 76       		.byte	0x76
 6832 1c1d 1A       		.sleb128 26
 6833 1c1e 31       		.uleb128 0x31
 6834 1c1f 01       		.uleb128 0x1
 6835 1c20 53       		.byte	0x53
 6836 1c21 01       		.uleb128 0x1
 6837 1c22 32       		.byte	0x32
 6838 1c23 00       		.byte	0
 6839 1c24 2C       		.uleb128 0x2c
 6840 1c25 90000000 		.4byte	.LVL81
ARM GAS  /tmp/cclXoGh5.s 			page 121


 6841 1c29 581E0000 		.4byte	0x1e58
 6842 1c2d 00       		.byte	0
 6843 1c2e 4F       		.uleb128 0x4f
 6844 1c2f F80E0000 		.4byte	.LASF253
 6845 1c33 01       		.byte	0x1
 6846 1c34 37       		.byte	0x37
 6847 1c35 08       		.byte	0x8
 6848 1c36 8A0B0000 		.4byte	0xb8a
 6849 1c3a 01       		.byte	0x1
 6850 1c3b 6D1C0000 		.4byte	0x1c6d
 6851 1c3f 48       		.uleb128 0x48
 6852 1c40 766D00   		.ascii	"vm\000"
 6853 1c43 01       		.byte	0x1
 6854 1c44 37       		.byte	0x37
 6855 1c45 2D       		.byte	0x2d
 6856 1c46 740D0000 		.4byte	0xd74
 6857 1c4a 49       		.uleb128 0x49
 6858 1c4b 61020000 		.4byte	.LASF251
 6859 1c4f 01       		.byte	0x1
 6860 1c50 37       		.byte	0x37
 6861 1c51 38       		.byte	0x38
 6862 1c52 8A0B0000 		.4byte	0xb8a
 6863 1c56 50       		.uleb128 0x50
 6864 1c57 59120000 		.4byte	.LASF254
 6865 1c5b 01       		.byte	0x1
 6866 1c5c 39       		.byte	0x39
 6867 1c5d 09       		.byte	0x9
 6868 1c5e 8A0B0000 		.4byte	0xb8a
 6869 1c62 51       		.uleb128 0x51
 6870 1c63 6900     		.ascii	"i\000"
 6871 1c65 01       		.byte	0x1
 6872 1c66 3A       		.byte	0x3a
 6873 1c67 09       		.byte	0x9
 6874 1c68 8A0B0000 		.4byte	0xb8a
 6875 1c6c 00       		.byte	0
 6876 1c6d 42       		.uleb128 0x42
 6877 1c6e A50F0000 		.4byte	.LASF255
 6878 1c72 01       		.byte	0x1
 6879 1c73 2C       		.byte	0x2c
 6880 1c74 06       		.byte	0x6
 6881 1c75 00000000 		.4byte	.LFB0
 6882 1c79 40000000 		.4byte	.LFE0-.LFB0
 6883 1c7d 01       		.uleb128 0x1
 6884 1c7e 9C       		.byte	0x9c
 6885 1c7f B31C0000 		.4byte	0x1cb3
 6886 1c83 43       		.uleb128 0x43
 6887 1c84 766D00   		.ascii	"vm\000"
 6888 1c87 01       		.byte	0x1
 6889 1c88 2C       		.byte	0x2c
 6890 1c89 20       		.byte	0x20
 6891 1c8a 740D0000 		.4byte	0xd74
 6892 1c8e 1D190000 		.4byte	.LLST4
 6893 1c92 19190000 		.4byte	.LVUS4
 6894 1c96 52       		.uleb128 0x52
 6895 1c97 36000000 		.4byte	.LVL53
 6896 1c9b F01E0000 		.4byte	0x1ef0
 6897 1c9f A91C0000 		.4byte	0x1ca9
ARM GAS  /tmp/cclXoGh5.s 			page 122


 6898 1ca3 31       		.uleb128 0x31
 6899 1ca4 01       		.uleb128 0x1
 6900 1ca5 51       		.byte	0x51
 6901 1ca6 01       		.uleb128 0x1
 6902 1ca7 30       		.byte	0x30
 6903 1ca8 00       		.byte	0
 6904 1ca9 2C       		.uleb128 0x2c
 6905 1caa 3A000000 		.4byte	.LVL54
 6906 1cae 581E0000 		.4byte	0x1e58
 6907 1cb2 00       		.byte	0
 6908 1cb3 53       		.uleb128 0x53
 6909 1cb4 2E1C0000 		.4byte	0x1c2e
 6910 1cb8 00000000 		.4byte	.LFB1
 6911 1cbc 4C000000 		.4byte	.LFE1-.LFB1
 6912 1cc0 01       		.uleb128 0x1
 6913 1cc1 9C       		.byte	0x9c
 6914 1cc2 041D0000 		.4byte	0x1d04
 6915 1cc6 2A       		.uleb128 0x2a
 6916 1cc7 3F1C0000 		.4byte	0x1c3f
 6917 1ccb 42190000 		.4byte	.LLST5
 6918 1ccf 3E190000 		.4byte	.LVUS5
 6919 1cd3 2A       		.uleb128 0x2a
 6920 1cd4 4A1C0000 		.4byte	0x1c4a
 6921 1cd8 67190000 		.4byte	.LLST6
 6922 1cdc 63190000 		.4byte	.LVUS6
 6923 1ce0 2B       		.uleb128 0x2b
 6924 1ce1 561C0000 		.4byte	0x1c56
 6925 1ce5 8A190000 		.4byte	.LLST7
 6926 1ce9 88190000 		.4byte	.LVUS7
 6927 1ced 2B       		.uleb128 0x2b
 6928 1cee 621C0000 		.4byte	0x1c62
 6929 1cf2 A5190000 		.4byte	.LLST8
 6930 1cf6 9D190000 		.4byte	.LVUS8
 6931 1cfa 2C       		.uleb128 0x2c
 6932 1cfb 46000000 		.4byte	.LVL63
 6933 1cff 581E0000 		.4byte	0x1e58
 6934 1d03 00       		.byte	0
 6935 1d04 53       		.uleb128 0x53
 6936 1d05 39150000 		.4byte	0x1539
 6937 1d09 00000000 		.4byte	.LFB7
 6938 1d0d 58000000 		.4byte	.LFE7-.LFB7
 6939 1d11 01       		.uleb128 0x1
 6940 1d12 9C       		.byte	0x9c
 6941 1d13 3B1D0000 		.4byte	0x1d3b
 6942 1d17 2A       		.uleb128 0x2a
 6943 1d18 4B150000 		.4byte	0x154b
 6944 1d1c E0190000 		.4byte	.LLST50
 6945 1d20 DC190000 		.4byte	.LVUS50
 6946 1d24 2B       		.uleb128 0x2b
 6947 1d25 57150000 		.4byte	0x1557
 6948 1d29 001A0000 		.4byte	.LLST51
 6949 1d2d FE190000 		.4byte	.LVUS51
 6950 1d31 2C       		.uleb128 0x2c
 6951 1d32 54000000 		.4byte	.LVL175
 6952 1d36 581E0000 		.4byte	0x1e58
 6953 1d3a 00       		.byte	0
 6954 1d3b 53       		.uleb128 0x53
ARM GAS  /tmp/cclXoGh5.s 			page 123


 6955 1d3c 1B130000 		.4byte	0x131b
 6956 1d40 00000000 		.4byte	.LFB11
 6957 1d44 3C000000 		.4byte	.LFE11-.LFB11
 6958 1d48 01       		.uleb128 0x1
 6959 1d49 9C       		.byte	0x9c
 6960 1d4a 721D0000 		.4byte	0x1d72
 6961 1d4e 2A       		.uleb128 0x2a
 6962 1d4f 2D130000 		.4byte	0x132d
 6963 1d53 1C1A0000 		.4byte	.LLST61
 6964 1d57 141A0000 		.4byte	.LVUS61
 6965 1d5b 2A       		.uleb128 0x2a
 6966 1d5c 39130000 		.4byte	0x1339
 6967 1d60 5A1A0000 		.4byte	.LLST62
 6968 1d64 561A0000 		.4byte	.LVUS62
 6969 1d68 2C       		.uleb128 0x2c
 6970 1d69 38000000 		.4byte	.LVL215
 6971 1d6d 581E0000 		.4byte	0x1e58
 6972 1d71 00       		.byte	0
 6973 1d72 53       		.uleb128 0x53
 6974 1d73 D8120000 		.4byte	0x12d8
 6975 1d77 00000000 		.4byte	.LFB12
 6976 1d7b 74000000 		.4byte	.LFE12-.LFB12
 6977 1d7f 01       		.uleb128 0x1
 6978 1d80 9C       		.byte	0x9c
 6979 1d81 D51D0000 		.4byte	0x1dd5
 6980 1d85 2A       		.uleb128 0x2a
 6981 1d86 EA120000 		.4byte	0x12ea
 6982 1d8a 831A0000 		.4byte	.LLST63
 6983 1d8e 7B1A0000 		.4byte	.LVUS63
 6984 1d92 2A       		.uleb128 0x2a
 6985 1d93 F6120000 		.4byte	0x12f6
 6986 1d97 C11A0000 		.4byte	.LLST64
 6987 1d9b BD1A0000 		.4byte	.LVUS64
 6988 1d9f 2B       		.uleb128 0x2b
 6989 1da0 02130000 		.4byte	0x1302
 6990 1da4 E61A0000 		.4byte	.LLST65
 6991 1da8 E21A0000 		.4byte	.LVUS65
 6992 1dac 54       		.uleb128 0x54
 6993 1dad 0D130000 		.4byte	0x130d
 6994 1db1 2C000000 		.4byte	.LBB101
 6995 1db5 2C000000 		.4byte	.LBE101-.LBB101
 6996 1db9 CB1D0000 		.4byte	0x1dcb
 6997 1dbd 2B       		.uleb128 0x2b
 6998 1dbe 0E130000 		.4byte	0x130e
 6999 1dc2 091B0000 		.4byte	.LLST66
 7000 1dc6 071B0000 		.4byte	.LVUS66
 7001 1dca 00       		.byte	0
 7002 1dcb 2C       		.uleb128 0x2c
 7003 1dcc 70000000 		.4byte	.LVL224
 7004 1dd0 581E0000 		.4byte	0x1e58
 7005 1dd4 00       		.byte	0
 7006 1dd5 53       		.uleb128 0x53
 7007 1dd6 BD120000 		.4byte	0x12bd
 7008 1dda 00000000 		.4byte	.LFB13
 7009 1dde 2C000000 		.4byte	.LFE13-.LFB13
 7010 1de2 01       		.uleb128 0x1
 7011 1de3 9C       		.byte	0x9c
ARM GAS  /tmp/cclXoGh5.s 			page 124


 7012 1de4 FF1D0000 		.4byte	0x1dff
 7013 1de8 2A       		.uleb128 0x2a
 7014 1de9 CB120000 		.4byte	0x12cb
 7015 1ded 201B0000 		.4byte	.LLST67
 7016 1df1 1C1B0000 		.4byte	.LVUS67
 7017 1df5 2C       		.uleb128 0x2c
 7018 1df6 26000000 		.4byte	.LVL226
 7019 1dfa 581E0000 		.4byte	0x1e58
 7020 1dfe 00       		.byte	0
 7021 1dff 53       		.uleb128 0x53
 7022 1e00 95120000 		.4byte	0x1295
 7023 1e04 00000000 		.4byte	.LFB14
 7024 1e08 3C000000 		.4byte	.LFE14-.LFB14
 7025 1e0c 01       		.uleb128 0x1
 7026 1e0d 9C       		.byte	0x9c
 7027 1e0e 581E0000 		.4byte	0x1e58
 7028 1e12 2A       		.uleb128 0x2a
 7029 1e13 A3120000 		.4byte	0x12a3
 7030 1e17 451B0000 		.4byte	.LLST68
 7031 1e1b 411B0000 		.4byte	.LVUS68
 7032 1e1f 36       		.uleb128 0x36
 7033 1e20 AF120000 		.4byte	0x12af
 7034 1e24 02       		.uleb128 0x2
 7035 1e25 91       		.byte	0x91
 7036 1e26 68       		.sleb128 -24
 7037 1e27 37       		.uleb128 0x37
 7038 1e28 26000000 		.4byte	.LVL228
 7039 1e2c 611E0000 		.4byte	0x1e61
 7040 1e30 4E1E0000 		.4byte	0x1e4e
 7041 1e34 31       		.uleb128 0x31
 7042 1e35 01       		.uleb128 0x1
 7043 1e36 50       		.byte	0x50
 7044 1e37 03       		.uleb128 0x3
 7045 1e38 F3       		.byte	0xf3
 7046 1e39 01       		.uleb128 0x1
 7047 1e3a 50       		.byte	0x50
 7048 1e3b 31       		.uleb128 0x31
 7049 1e3c 01       		.uleb128 0x1
 7050 1e3d 51       		.byte	0x51
 7051 1e3e 03       		.uleb128 0x3
 7052 1e3f 0B       		.byte	0xb
 7053 1e40 0A90     		.2byte	0x900a
 7054 1e42 31       		.uleb128 0x31
 7055 1e43 01       		.uleb128 0x1
 7056 1e44 52       		.byte	0x52
 7057 1e45 02       		.uleb128 0x2
 7058 1e46 7D       		.byte	0x7d
 7059 1e47 00       		.sleb128 0
 7060 1e48 31       		.uleb128 0x31
 7061 1e49 01       		.uleb128 0x1
 7062 1e4a 53       		.byte	0x53
 7063 1e4b 01       		.uleb128 0x1
 7064 1e4c 34       		.byte	0x34
 7065 1e4d 00       		.byte	0
 7066 1e4e 2C       		.uleb128 0x2c
 7067 1e4f 38000000 		.4byte	.LVL229
 7068 1e53 581E0000 		.4byte	0x1e58
ARM GAS  /tmp/cclXoGh5.s 			page 125


 7069 1e57 00       		.byte	0
 7070 1e58 55       		.uleb128 0x55
 7071 1e59 010E0000 		.4byte	.LASF278
 7072 1e5d 010E0000 		.4byte	.LASF278
 7073 1e61 56       		.uleb128 0x56
 7074 1e62 98000000 		.4byte	.LASF256
 7075 1e66 98000000 		.4byte	.LASF256
 7076 1e6a 09       		.byte	0x9
 7077 1e6b 92       		.byte	0x92
 7078 1e6c 06       		.byte	0x6
 7079 1e6d 56       		.uleb128 0x56
 7080 1e6e A9000000 		.4byte	.LASF257
 7081 1e72 A9000000 		.4byte	.LASF257
 7082 1e76 09       		.byte	0x9
 7083 1e77 9D       		.byte	0x9d
 7084 1e78 06       		.byte	0x6
 7085 1e79 56       		.uleb128 0x56
 7086 1e7a D9070000 		.4byte	.LASF258
 7087 1e7e D9070000 		.4byte	.LASF258
 7088 1e82 09       		.byte	0x9
 7089 1e83 B9       		.byte	0xb9
 7090 1e84 1C       		.byte	0x1c
 7091 1e85 56       		.uleb128 0x56
 7092 1e86 44120000 		.4byte	.LASF259
 7093 1e8a 44120000 		.4byte	.LASF259
 7094 1e8e 09       		.byte	0x9
 7095 1e8f A0       		.byte	0xa0
 7096 1e90 06       		.byte	0x6
 7097 1e91 56       		.uleb128 0x56
 7098 1e92 11060000 		.4byte	.LASF260
 7099 1e96 11060000 		.4byte	.LASF260
 7100 1e9a 09       		.byte	0x9
 7101 1e9b A9       		.byte	0xa9
 7102 1e9c 06       		.byte	0x6
 7103 1e9d 56       		.uleb128 0x56
 7104 1e9e CC010000 		.4byte	.LASF261
 7105 1ea2 CC010000 		.4byte	.LASF261
 7106 1ea6 09       		.byte	0x9
 7107 1ea7 A6       		.byte	0xa6
 7108 1ea8 06       		.byte	0x6
 7109 1ea9 56       		.uleb128 0x56
 7110 1eaa 19100000 		.4byte	.LASF262
 7111 1eae 19100000 		.4byte	.LASF262
 7112 1eb2 09       		.byte	0x9
 7113 1eb3 B2       		.byte	0xb2
 7114 1eb4 1C       		.byte	0x1c
 7115 1eb5 56       		.uleb128 0x56
 7116 1eb6 CE0B0000 		.4byte	.LASF263
 7117 1eba CE0B0000 		.4byte	.LASF263
 7118 1ebe 09       		.byte	0x9
 7119 1ebf AC       		.byte	0xac
 7120 1ec0 06       		.byte	0x6
 7121 1ec1 56       		.uleb128 0x56
 7122 1ec2 5B070000 		.4byte	.LASF264
 7123 1ec6 5B070000 		.4byte	.LASF264
 7124 1eca 0A       		.byte	0xa
 7125 1ecb 29       		.byte	0x29
ARM GAS  /tmp/cclXoGh5.s 			page 126


 7126 1ecc 09       		.byte	0x9
 7127 1ecd 56       		.uleb128 0x56
 7128 1ece B50B0000 		.4byte	.LASF265
 7129 1ed2 B50B0000 		.4byte	.LASF265
 7130 1ed6 09       		.byte	0x9
 7131 1ed7 C1       		.byte	0xc1
 7132 1ed8 1C       		.byte	0x1c
 7133 1ed9 57       		.uleb128 0x57
 7134 1eda A9070000 		.4byte	.LASF267
 7135 1ede 9C0C0000 		.4byte	.LASF269
 7136 1ee2 0B       		.byte	0xb
 7137 1ee3 00       		.byte	0
 7138 1ee4 56       		.uleb128 0x56
 7139 1ee5 50010000 		.4byte	.LASF266
 7140 1ee9 50010000 		.4byte	.LASF266
 7141 1eed 09       		.byte	0x9
 7142 1eee A3       		.byte	0xa3
 7143 1eef 06       		.byte	0x6
 7144 1ef0 57       		.uleb128 0x57
 7145 1ef1 39100000 		.4byte	.LASF268
 7146 1ef5 89010000 		.4byte	.LASF270
 7147 1ef9 0B       		.byte	0xb
 7148 1efa 00       		.byte	0
 7149 1efb 00       		.byte	0
 7150              		.section	.debug_abbrev,"",%progbits
 7151              	.Ldebug_abbrev0:
 7152 0000 01       		.uleb128 0x1
 7153 0001 11       		.uleb128 0x11
 7154 0002 01       		.byte	0x1
 7155 0003 25       		.uleb128 0x25
 7156 0004 0E       		.uleb128 0xe
 7157 0005 13       		.uleb128 0x13
 7158 0006 0B       		.uleb128 0xb
 7159 0007 03       		.uleb128 0x3
 7160 0008 0E       		.uleb128 0xe
 7161 0009 1B       		.uleb128 0x1b
 7162 000a 0E       		.uleb128 0xe
 7163 000b 55       		.uleb128 0x55
 7164 000c 17       		.uleb128 0x17
 7165 000d 11       		.uleb128 0x11
 7166 000e 01       		.uleb128 0x1
 7167 000f 10       		.uleb128 0x10
 7168 0010 17       		.uleb128 0x17
 7169 0011 00       		.byte	0
 7170 0012 00       		.byte	0
 7171 0013 02       		.uleb128 0x2
 7172 0014 04       		.uleb128 0x4
 7173 0015 01       		.byte	0x1
 7174 0016 3E       		.uleb128 0x3e
 7175 0017 0B       		.uleb128 0xb
 7176 0018 0B       		.uleb128 0xb
 7177 0019 0B       		.uleb128 0xb
 7178 001a 49       		.uleb128 0x49
 7179 001b 13       		.uleb128 0x13
 7180 001c 3A       		.uleb128 0x3a
 7181 001d 0B       		.uleb128 0xb
 7182 001e 3B       		.uleb128 0x3b
ARM GAS  /tmp/cclXoGh5.s 			page 127


 7183 001f 0B       		.uleb128 0xb
 7184 0020 39       		.uleb128 0x39
 7185 0021 0B       		.uleb128 0xb
 7186 0022 01       		.uleb128 0x1
 7187 0023 13       		.uleb128 0x13
 7188 0024 00       		.byte	0
 7189 0025 00       		.byte	0
 7190 0026 03       		.uleb128 0x3
 7191 0027 28       		.uleb128 0x28
 7192 0028 00       		.byte	0
 7193 0029 03       		.uleb128 0x3
 7194 002a 0E       		.uleb128 0xe
 7195 002b 1C       		.uleb128 0x1c
 7196 002c 0B       		.uleb128 0xb
 7197 002d 00       		.byte	0
 7198 002e 00       		.byte	0
 7199 002f 04       		.uleb128 0x4
 7200 0030 24       		.uleb128 0x24
 7201 0031 00       		.byte	0
 7202 0032 0B       		.uleb128 0xb
 7203 0033 0B       		.uleb128 0xb
 7204 0034 3E       		.uleb128 0x3e
 7205 0035 0B       		.uleb128 0xb
 7206 0036 03       		.uleb128 0x3
 7207 0037 0E       		.uleb128 0xe
 7208 0038 00       		.byte	0
 7209 0039 00       		.byte	0
 7210 003a 05       		.uleb128 0x5
 7211 003b 28       		.uleb128 0x28
 7212 003c 00       		.byte	0
 7213 003d 03       		.uleb128 0x3
 7214 003e 0E       		.uleb128 0xe
 7215 003f 1C       		.uleb128 0x1c
 7216 0040 05       		.uleb128 0x5
 7217 0041 00       		.byte	0
 7218 0042 00       		.byte	0
 7219 0043 06       		.uleb128 0x6
 7220 0044 24       		.uleb128 0x24
 7221 0045 00       		.byte	0
 7222 0046 0B       		.uleb128 0xb
 7223 0047 0B       		.uleb128 0xb
 7224 0048 3E       		.uleb128 0x3e
 7225 0049 0B       		.uleb128 0xb
 7226 004a 03       		.uleb128 0x3
 7227 004b 08       		.uleb128 0x8
 7228 004c 00       		.byte	0
 7229 004d 00       		.byte	0
 7230 004e 07       		.uleb128 0x7
 7231 004f 16       		.uleb128 0x16
 7232 0050 00       		.byte	0
 7233 0051 03       		.uleb128 0x3
 7234 0052 0E       		.uleb128 0xe
 7235 0053 3A       		.uleb128 0x3a
 7236 0054 0B       		.uleb128 0xb
 7237 0055 3B       		.uleb128 0x3b
 7238 0056 05       		.uleb128 0x5
 7239 0057 39       		.uleb128 0x39
ARM GAS  /tmp/cclXoGh5.s 			page 128


 7240 0058 0B       		.uleb128 0xb
 7241 0059 49       		.uleb128 0x49
 7242 005a 13       		.uleb128 0x13
 7243 005b 00       		.byte	0
 7244 005c 00       		.byte	0
 7245 005d 08       		.uleb128 0x8
 7246 005e 16       		.uleb128 0x16
 7247 005f 00       		.byte	0
 7248 0060 03       		.uleb128 0x3
 7249 0061 0E       		.uleb128 0xe
 7250 0062 3A       		.uleb128 0x3a
 7251 0063 0B       		.uleb128 0xb
 7252 0064 3B       		.uleb128 0x3b
 7253 0065 0B       		.uleb128 0xb
 7254 0066 39       		.uleb128 0x39
 7255 0067 0B       		.uleb128 0xb
 7256 0068 49       		.uleb128 0x49
 7257 0069 13       		.uleb128 0x13
 7258 006a 00       		.byte	0
 7259 006b 00       		.byte	0
 7260 006c 09       		.uleb128 0x9
 7261 006d 17       		.uleb128 0x17
 7262 006e 01       		.byte	0x1
 7263 006f 0B       		.uleb128 0xb
 7264 0070 0B       		.uleb128 0xb
 7265 0071 3A       		.uleb128 0x3a
 7266 0072 0B       		.uleb128 0xb
 7267 0073 3B       		.uleb128 0x3b
 7268 0074 0B       		.uleb128 0xb
 7269 0075 39       		.uleb128 0x39
 7270 0076 0B       		.uleb128 0xb
 7271 0077 01       		.uleb128 0x1
 7272 0078 13       		.uleb128 0x13
 7273 0079 00       		.byte	0
 7274 007a 00       		.byte	0
 7275 007b 0A       		.uleb128 0xa
 7276 007c 0D       		.uleb128 0xd
 7277 007d 00       		.byte	0
 7278 007e 03       		.uleb128 0x3
 7279 007f 0E       		.uleb128 0xe
 7280 0080 3A       		.uleb128 0x3a
 7281 0081 0B       		.uleb128 0xb
 7282 0082 3B       		.uleb128 0x3b
 7283 0083 0B       		.uleb128 0xb
 7284 0084 39       		.uleb128 0x39
 7285 0085 0B       		.uleb128 0xb
 7286 0086 49       		.uleb128 0x49
 7287 0087 13       		.uleb128 0x13
 7288 0088 00       		.byte	0
 7289 0089 00       		.byte	0
 7290 008a 0B       		.uleb128 0xb
 7291 008b 01       		.uleb128 0x1
 7292 008c 01       		.byte	0x1
 7293 008d 49       		.uleb128 0x49
 7294 008e 13       		.uleb128 0x13
 7295 008f 01       		.uleb128 0x1
 7296 0090 13       		.uleb128 0x13
ARM GAS  /tmp/cclXoGh5.s 			page 129


 7297 0091 00       		.byte	0
 7298 0092 00       		.byte	0
 7299 0093 0C       		.uleb128 0xc
 7300 0094 21       		.uleb128 0x21
 7301 0095 00       		.byte	0
 7302 0096 49       		.uleb128 0x49
 7303 0097 13       		.uleb128 0x13
 7304 0098 2F       		.uleb128 0x2f
 7305 0099 0B       		.uleb128 0xb
 7306 009a 00       		.byte	0
 7307 009b 00       		.byte	0
 7308 009c 0D       		.uleb128 0xd
 7309 009d 13       		.uleb128 0x13
 7310 009e 01       		.byte	0x1
 7311 009f 0B       		.uleb128 0xb
 7312 00a0 0B       		.uleb128 0xb
 7313 00a1 3A       		.uleb128 0x3a
 7314 00a2 0B       		.uleb128 0xb
 7315 00a3 3B       		.uleb128 0x3b
 7316 00a4 0B       		.uleb128 0xb
 7317 00a5 39       		.uleb128 0x39
 7318 00a6 0B       		.uleb128 0xb
 7319 00a7 01       		.uleb128 0x1
 7320 00a8 13       		.uleb128 0x13
 7321 00a9 00       		.byte	0
 7322 00aa 00       		.byte	0
 7323 00ab 0E       		.uleb128 0xe
 7324 00ac 0D       		.uleb128 0xd
 7325 00ad 00       		.byte	0
 7326 00ae 03       		.uleb128 0x3
 7327 00af 0E       		.uleb128 0xe
 7328 00b0 3A       		.uleb128 0x3a
 7329 00b1 0B       		.uleb128 0xb
 7330 00b2 3B       		.uleb128 0x3b
 7331 00b3 0B       		.uleb128 0xb
 7332 00b4 39       		.uleb128 0x39
 7333 00b5 0B       		.uleb128 0xb
 7334 00b6 49       		.uleb128 0x49
 7335 00b7 13       		.uleb128 0x13
 7336 00b8 38       		.uleb128 0x38
 7337 00b9 0B       		.uleb128 0xb
 7338 00ba 00       		.byte	0
 7339 00bb 00       		.byte	0
 7340 00bc 0F       		.uleb128 0xf
 7341 00bd 0F       		.uleb128 0xf
 7342 00be 00       		.byte	0
 7343 00bf 0B       		.uleb128 0xb
 7344 00c0 0B       		.uleb128 0xb
 7345 00c1 00       		.byte	0
 7346 00c2 00       		.byte	0
 7347 00c3 10       		.uleb128 0x10
 7348 00c4 13       		.uleb128 0x13
 7349 00c5 01       		.byte	0x1
 7350 00c6 03       		.uleb128 0x3
 7351 00c7 0E       		.uleb128 0xe
 7352 00c8 0B       		.uleb128 0xb
 7353 00c9 0B       		.uleb128 0xb
ARM GAS  /tmp/cclXoGh5.s 			page 130


 7354 00ca 3A       		.uleb128 0x3a
 7355 00cb 0B       		.uleb128 0xb
 7356 00cc 3B       		.uleb128 0x3b
 7357 00cd 0B       		.uleb128 0xb
 7358 00ce 39       		.uleb128 0x39
 7359 00cf 0B       		.uleb128 0xb
 7360 00d0 01       		.uleb128 0x1
 7361 00d1 13       		.uleb128 0x13
 7362 00d2 00       		.byte	0
 7363 00d3 00       		.byte	0
 7364 00d4 11       		.uleb128 0x11
 7365 00d5 0D       		.uleb128 0xd
 7366 00d6 00       		.byte	0
 7367 00d7 03       		.uleb128 0x3
 7368 00d8 08       		.uleb128 0x8
 7369 00d9 3A       		.uleb128 0x3a
 7370 00da 0B       		.uleb128 0xb
 7371 00db 3B       		.uleb128 0x3b
 7372 00dc 0B       		.uleb128 0xb
 7373 00dd 39       		.uleb128 0x39
 7374 00de 0B       		.uleb128 0xb
 7375 00df 49       		.uleb128 0x49
 7376 00e0 13       		.uleb128 0x13
 7377 00e1 38       		.uleb128 0x38
 7378 00e2 0B       		.uleb128 0xb
 7379 00e3 00       		.byte	0
 7380 00e4 00       		.byte	0
 7381 00e5 12       		.uleb128 0x12
 7382 00e6 0F       		.uleb128 0xf
 7383 00e7 00       		.byte	0
 7384 00e8 0B       		.uleb128 0xb
 7385 00e9 0B       		.uleb128 0xb
 7386 00ea 49       		.uleb128 0x49
 7387 00eb 13       		.uleb128 0x13
 7388 00ec 00       		.byte	0
 7389 00ed 00       		.byte	0
 7390 00ee 13       		.uleb128 0x13
 7391 00ef 13       		.uleb128 0x13
 7392 00f0 01       		.byte	0x1
 7393 00f1 03       		.uleb128 0x3
 7394 00f2 0E       		.uleb128 0xe
 7395 00f3 0B       		.uleb128 0xb
 7396 00f4 05       		.uleb128 0x5
 7397 00f5 3A       		.uleb128 0x3a
 7398 00f6 0B       		.uleb128 0xb
 7399 00f7 3B       		.uleb128 0x3b
 7400 00f8 0B       		.uleb128 0xb
 7401 00f9 39       		.uleb128 0x39
 7402 00fa 0B       		.uleb128 0xb
 7403 00fb 01       		.uleb128 0x1
 7404 00fc 13       		.uleb128 0x13
 7405 00fd 00       		.byte	0
 7406 00fe 00       		.byte	0
 7407 00ff 14       		.uleb128 0x14
 7408 0100 0D       		.uleb128 0xd
 7409 0101 00       		.byte	0
 7410 0102 03       		.uleb128 0x3
ARM GAS  /tmp/cclXoGh5.s 			page 131


 7411 0103 0E       		.uleb128 0xe
 7412 0104 3A       		.uleb128 0x3a
 7413 0105 0B       		.uleb128 0xb
 7414 0106 3B       		.uleb128 0x3b
 7415 0107 0B       		.uleb128 0xb
 7416 0108 39       		.uleb128 0x39
 7417 0109 0B       		.uleb128 0xb
 7418 010a 49       		.uleb128 0x49
 7419 010b 13       		.uleb128 0x13
 7420 010c 38       		.uleb128 0x38
 7421 010d 05       		.uleb128 0x5
 7422 010e 00       		.byte	0
 7423 010f 00       		.byte	0
 7424 0110 15       		.uleb128 0x15
 7425 0111 15       		.uleb128 0x15
 7426 0112 00       		.byte	0
 7427 0113 27       		.uleb128 0x27
 7428 0114 19       		.uleb128 0x19
 7429 0115 00       		.byte	0
 7430 0116 00       		.byte	0
 7431 0117 16       		.uleb128 0x16
 7432 0118 15       		.uleb128 0x15
 7433 0119 01       		.byte	0x1
 7434 011a 27       		.uleb128 0x27
 7435 011b 19       		.uleb128 0x19
 7436 011c 49       		.uleb128 0x49
 7437 011d 13       		.uleb128 0x13
 7438 011e 01       		.uleb128 0x1
 7439 011f 13       		.uleb128 0x13
 7440 0120 00       		.byte	0
 7441 0121 00       		.byte	0
 7442 0122 17       		.uleb128 0x17
 7443 0123 05       		.uleb128 0x5
 7444 0124 00       		.byte	0
 7445 0125 49       		.uleb128 0x49
 7446 0126 13       		.uleb128 0x13
 7447 0127 00       		.byte	0
 7448 0128 00       		.byte	0
 7449 0129 18       		.uleb128 0x18
 7450 012a 26       		.uleb128 0x26
 7451 012b 00       		.byte	0
 7452 012c 49       		.uleb128 0x49
 7453 012d 13       		.uleb128 0x13
 7454 012e 00       		.byte	0
 7455 012f 00       		.byte	0
 7456 0130 19       		.uleb128 0x19
 7457 0131 13       		.uleb128 0x13
 7458 0132 01       		.byte	0x1
 7459 0133 03       		.uleb128 0x3
 7460 0134 0E       		.uleb128 0xe
 7461 0135 0B       		.uleb128 0xb
 7462 0136 05       		.uleb128 0x5
 7463 0137 3A       		.uleb128 0x3a
 7464 0138 0B       		.uleb128 0xb
 7465 0139 3B       		.uleb128 0x3b
 7466 013a 05       		.uleb128 0x5
 7467 013b 39       		.uleb128 0x39
ARM GAS  /tmp/cclXoGh5.s 			page 132


 7468 013c 0B       		.uleb128 0xb
 7469 013d 01       		.uleb128 0x1
 7470 013e 13       		.uleb128 0x13
 7471 013f 00       		.byte	0
 7472 0140 00       		.byte	0
 7473 0141 1A       		.uleb128 0x1a
 7474 0142 0D       		.uleb128 0xd
 7475 0143 00       		.byte	0
 7476 0144 03       		.uleb128 0x3
 7477 0145 0E       		.uleb128 0xe
 7478 0146 3A       		.uleb128 0x3a
 7479 0147 0B       		.uleb128 0xb
 7480 0148 3B       		.uleb128 0x3b
 7481 0149 05       		.uleb128 0x5
 7482 014a 39       		.uleb128 0x39
 7483 014b 0B       		.uleb128 0xb
 7484 014c 49       		.uleb128 0x49
 7485 014d 13       		.uleb128 0x13
 7486 014e 38       		.uleb128 0x38
 7487 014f 0B       		.uleb128 0xb
 7488 0150 00       		.byte	0
 7489 0151 00       		.byte	0
 7490 0152 1B       		.uleb128 0x1b
 7491 0153 0D       		.uleb128 0xd
 7492 0154 00       		.byte	0
 7493 0155 03       		.uleb128 0x3
 7494 0156 0E       		.uleb128 0xe
 7495 0157 3A       		.uleb128 0x3a
 7496 0158 0B       		.uleb128 0xb
 7497 0159 3B       		.uleb128 0x3b
 7498 015a 05       		.uleb128 0x5
 7499 015b 39       		.uleb128 0x39
 7500 015c 0B       		.uleb128 0xb
 7501 015d 49       		.uleb128 0x49
 7502 015e 13       		.uleb128 0x13
 7503 015f 38       		.uleb128 0x38
 7504 0160 05       		.uleb128 0x5
 7505 0161 00       		.byte	0
 7506 0162 00       		.byte	0
 7507 0163 1C       		.uleb128 0x1c
 7508 0164 13       		.uleb128 0x13
 7509 0165 01       		.byte	0x1
 7510 0166 03       		.uleb128 0x3
 7511 0167 0E       		.uleb128 0xe
 7512 0168 0B       		.uleb128 0xb
 7513 0169 0B       		.uleb128 0xb
 7514 016a 3A       		.uleb128 0x3a
 7515 016b 0B       		.uleb128 0xb
 7516 016c 3B       		.uleb128 0x3b
 7517 016d 05       		.uleb128 0x5
 7518 016e 39       		.uleb128 0x39
 7519 016f 0B       		.uleb128 0xb
 7520 0170 01       		.uleb128 0x1
 7521 0171 13       		.uleb128 0x13
 7522 0172 00       		.byte	0
 7523 0173 00       		.byte	0
 7524 0174 1D       		.uleb128 0x1d
ARM GAS  /tmp/cclXoGh5.s 			page 133


 7525 0175 13       		.uleb128 0x13
 7526 0176 01       		.byte	0x1
 7527 0177 0B       		.uleb128 0xb
 7528 0178 0B       		.uleb128 0xb
 7529 0179 3A       		.uleb128 0x3a
 7530 017a 0B       		.uleb128 0xb
 7531 017b 3B       		.uleb128 0x3b
 7532 017c 05       		.uleb128 0x5
 7533 017d 39       		.uleb128 0x39
 7534 017e 0B       		.uleb128 0xb
 7535 017f 01       		.uleb128 0x1
 7536 0180 13       		.uleb128 0x13
 7537 0181 00       		.byte	0
 7538 0182 00       		.byte	0
 7539 0183 1E       		.uleb128 0x1e
 7540 0184 17       		.uleb128 0x17
 7541 0185 01       		.byte	0x1
 7542 0186 0B       		.uleb128 0xb
 7543 0187 0B       		.uleb128 0xb
 7544 0188 3A       		.uleb128 0x3a
 7545 0189 0B       		.uleb128 0xb
 7546 018a 3B       		.uleb128 0x3b
 7547 018b 05       		.uleb128 0x5
 7548 018c 39       		.uleb128 0x39
 7549 018d 0B       		.uleb128 0xb
 7550 018e 01       		.uleb128 0x1
 7551 018f 13       		.uleb128 0x13
 7552 0190 00       		.byte	0
 7553 0191 00       		.byte	0
 7554 0192 1F       		.uleb128 0x1f
 7555 0193 0D       		.uleb128 0xd
 7556 0194 00       		.byte	0
 7557 0195 03       		.uleb128 0x3
 7558 0196 0E       		.uleb128 0xe
 7559 0197 3A       		.uleb128 0x3a
 7560 0198 0B       		.uleb128 0xb
 7561 0199 3B       		.uleb128 0x3b
 7562 019a 05       		.uleb128 0x5
 7563 019b 39       		.uleb128 0x39
 7564 019c 0B       		.uleb128 0xb
 7565 019d 49       		.uleb128 0x49
 7566 019e 13       		.uleb128 0x13
 7567 019f 00       		.byte	0
 7568 01a0 00       		.byte	0
 7569 01a1 20       		.uleb128 0x20
 7570 01a2 13       		.uleb128 0x13
 7571 01a3 00       		.byte	0
 7572 01a4 03       		.uleb128 0x3
 7573 01a5 0E       		.uleb128 0xe
 7574 01a6 3C       		.uleb128 0x3c
 7575 01a7 19       		.uleb128 0x19
 7576 01a8 00       		.byte	0
 7577 01a9 00       		.byte	0
 7578 01aa 21       		.uleb128 0x21
 7579 01ab 15       		.uleb128 0x15
 7580 01ac 01       		.byte	0x1
 7581 01ad 27       		.uleb128 0x27
ARM GAS  /tmp/cclXoGh5.s 			page 134


 7582 01ae 19       		.uleb128 0x19
 7583 01af 01       		.uleb128 0x1
 7584 01b0 13       		.uleb128 0x13
 7585 01b1 00       		.byte	0
 7586 01b2 00       		.byte	0
 7587 01b3 22       		.uleb128 0x22
 7588 01b4 34       		.uleb128 0x34
 7589 01b5 00       		.byte	0
 7590 01b6 03       		.uleb128 0x3
 7591 01b7 0E       		.uleb128 0xe
 7592 01b8 3A       		.uleb128 0x3a
 7593 01b9 0B       		.uleb128 0xb
 7594 01ba 3B       		.uleb128 0x3b
 7595 01bb 05       		.uleb128 0x5
 7596 01bc 39       		.uleb128 0x39
 7597 01bd 0B       		.uleb128 0xb
 7598 01be 49       		.uleb128 0x49
 7599 01bf 13       		.uleb128 0x13
 7600 01c0 3F       		.uleb128 0x3f
 7601 01c1 19       		.uleb128 0x19
 7602 01c2 3C       		.uleb128 0x3c
 7603 01c3 19       		.uleb128 0x19
 7604 01c4 00       		.byte	0
 7605 01c5 00       		.byte	0
 7606 01c6 23       		.uleb128 0x23
 7607 01c7 34       		.uleb128 0x34
 7608 01c8 00       		.byte	0
 7609 01c9 03       		.uleb128 0x3
 7610 01ca 0E       		.uleb128 0xe
 7611 01cb 3A       		.uleb128 0x3a
 7612 01cc 0B       		.uleb128 0xb
 7613 01cd 3B       		.uleb128 0x3b
 7614 01ce 0B       		.uleb128 0xb
 7615 01cf 39       		.uleb128 0x39
 7616 01d0 0B       		.uleb128 0xb
 7617 01d1 49       		.uleb128 0x49
 7618 01d2 13       		.uleb128 0x13
 7619 01d3 3F       		.uleb128 0x3f
 7620 01d4 19       		.uleb128 0x19
 7621 01d5 3C       		.uleb128 0x3c
 7622 01d6 19       		.uleb128 0x19
 7623 01d7 00       		.byte	0
 7624 01d8 00       		.byte	0
 7625 01d9 24       		.uleb128 0x24
 7626 01da 2E       		.uleb128 0x2e
 7627 01db 01       		.byte	0x1
 7628 01dc 3F       		.uleb128 0x3f
 7629 01dd 19       		.uleb128 0x19
 7630 01de 03       		.uleb128 0x3
 7631 01df 0E       		.uleb128 0xe
 7632 01e0 3A       		.uleb128 0x3a
 7633 01e1 0B       		.uleb128 0xb
 7634 01e2 3B       		.uleb128 0x3b
 7635 01e3 05       		.uleb128 0x5
 7636 01e4 39       		.uleb128 0x39
 7637 01e5 0B       		.uleb128 0xb
 7638 01e6 27       		.uleb128 0x27
ARM GAS  /tmp/cclXoGh5.s 			page 135


 7639 01e7 19       		.uleb128 0x19
 7640 01e8 49       		.uleb128 0x49
 7641 01e9 13       		.uleb128 0x13
 7642 01ea 11       		.uleb128 0x11
 7643 01eb 01       		.uleb128 0x1
 7644 01ec 12       		.uleb128 0x12
 7645 01ed 06       		.uleb128 0x6
 7646 01ee 40       		.uleb128 0x40
 7647 01ef 18       		.uleb128 0x18
 7648 01f0 9742     		.uleb128 0x2117
 7649 01f2 19       		.uleb128 0x19
 7650 01f3 01       		.uleb128 0x1
 7651 01f4 13       		.uleb128 0x13
 7652 01f5 00       		.byte	0
 7653 01f6 00       		.byte	0
 7654 01f7 25       		.uleb128 0x25
 7655 01f8 05       		.uleb128 0x5
 7656 01f9 00       		.byte	0
 7657 01fa 03       		.uleb128 0x3
 7658 01fb 08       		.uleb128 0x8
 7659 01fc 3A       		.uleb128 0x3a
 7660 01fd 0B       		.uleb128 0xb
 7661 01fe 3B       		.uleb128 0x3b
 7662 01ff 05       		.uleb128 0x5
 7663 0200 39       		.uleb128 0x39
 7664 0201 0B       		.uleb128 0xb
 7665 0202 49       		.uleb128 0x49
 7666 0203 13       		.uleb128 0x13
 7667 0204 02       		.uleb128 0x2
 7668 0205 17       		.uleb128 0x17
 7669 0206 B742     		.uleb128 0x2137
 7670 0208 17       		.uleb128 0x17
 7671 0209 00       		.byte	0
 7672 020a 00       		.byte	0
 7673 020b 26       		.uleb128 0x26
 7674 020c 05       		.uleb128 0x5
 7675 020d 00       		.byte	0
 7676 020e 03       		.uleb128 0x3
 7677 020f 0E       		.uleb128 0xe
 7678 0210 3A       		.uleb128 0x3a
 7679 0211 0B       		.uleb128 0xb
 7680 0212 3B       		.uleb128 0x3b
 7681 0213 05       		.uleb128 0x5
 7682 0214 39       		.uleb128 0x39
 7683 0215 0B       		.uleb128 0xb
 7684 0216 49       		.uleb128 0x49
 7685 0217 13       		.uleb128 0x13
 7686 0218 02       		.uleb128 0x2
 7687 0219 17       		.uleb128 0x17
 7688 021a B742     		.uleb128 0x2137
 7689 021c 17       		.uleb128 0x17
 7690 021d 00       		.byte	0
 7691 021e 00       		.byte	0
 7692 021f 27       		.uleb128 0x27
 7693 0220 34       		.uleb128 0x34
 7694 0221 00       		.byte	0
 7695 0222 03       		.uleb128 0x3
ARM GAS  /tmp/cclXoGh5.s 			page 136


 7696 0223 0E       		.uleb128 0xe
 7697 0224 3A       		.uleb128 0x3a
 7698 0225 0B       		.uleb128 0xb
 7699 0226 3B       		.uleb128 0x3b
 7700 0227 05       		.uleb128 0x5
 7701 0228 39       		.uleb128 0x39
 7702 0229 0B       		.uleb128 0xb
 7703 022a 49       		.uleb128 0x49
 7704 022b 13       		.uleb128 0x13
 7705 022c 02       		.uleb128 0x2
 7706 022d 17       		.uleb128 0x17
 7707 022e B742     		.uleb128 0x2137
 7708 0230 17       		.uleb128 0x17
 7709 0231 00       		.byte	0
 7710 0232 00       		.byte	0
 7711 0233 28       		.uleb128 0x28
 7712 0234 0B       		.uleb128 0xb
 7713 0235 01       		.byte	0x1
 7714 0236 55       		.uleb128 0x55
 7715 0237 17       		.uleb128 0x17
 7716 0238 01       		.uleb128 0x1
 7717 0239 13       		.uleb128 0x13
 7718 023a 00       		.byte	0
 7719 023b 00       		.byte	0
 7720 023c 29       		.uleb128 0x29
 7721 023d 1D       		.uleb128 0x1d
 7722 023e 01       		.byte	0x1
 7723 023f 31       		.uleb128 0x31
 7724 0240 13       		.uleb128 0x13
 7725 0241 52       		.uleb128 0x52
 7726 0242 01       		.uleb128 0x1
 7727 0243 B842     		.uleb128 0x2138
 7728 0245 05       		.uleb128 0x5
 7729 0246 11       		.uleb128 0x11
 7730 0247 01       		.uleb128 0x1
 7731 0248 12       		.uleb128 0x12
 7732 0249 06       		.uleb128 0x6
 7733 024a 58       		.uleb128 0x58
 7734 024b 0B       		.uleb128 0xb
 7735 024c 59       		.uleb128 0x59
 7736 024d 05       		.uleb128 0x5
 7737 024e 57       		.uleb128 0x57
 7738 024f 0B       		.uleb128 0xb
 7739 0250 01       		.uleb128 0x1
 7740 0251 13       		.uleb128 0x13
 7741 0252 00       		.byte	0
 7742 0253 00       		.byte	0
 7743 0254 2A       		.uleb128 0x2a
 7744 0255 05       		.uleb128 0x5
 7745 0256 00       		.byte	0
 7746 0257 31       		.uleb128 0x31
 7747 0258 13       		.uleb128 0x13
 7748 0259 02       		.uleb128 0x2
 7749 025a 17       		.uleb128 0x17
 7750 025b B742     		.uleb128 0x2137
 7751 025d 17       		.uleb128 0x17
 7752 025e 00       		.byte	0
ARM GAS  /tmp/cclXoGh5.s 			page 137


 7753 025f 00       		.byte	0
 7754 0260 2B       		.uleb128 0x2b
 7755 0261 34       		.uleb128 0x34
 7756 0262 00       		.byte	0
 7757 0263 31       		.uleb128 0x31
 7758 0264 13       		.uleb128 0x13
 7759 0265 02       		.uleb128 0x2
 7760 0266 17       		.uleb128 0x17
 7761 0267 B742     		.uleb128 0x2137
 7762 0269 17       		.uleb128 0x17
 7763 026a 00       		.byte	0
 7764 026b 00       		.byte	0
 7765 026c 2C       		.uleb128 0x2c
 7766 026d 898201   		.uleb128 0x4109
 7767 0270 00       		.byte	0
 7768 0271 11       		.uleb128 0x11
 7769 0272 01       		.uleb128 0x1
 7770 0273 31       		.uleb128 0x31
 7771 0274 13       		.uleb128 0x13
 7772 0275 00       		.byte	0
 7773 0276 00       		.byte	0
 7774 0277 2D       		.uleb128 0x2d
 7775 0278 2E       		.uleb128 0x2e
 7776 0279 01       		.byte	0x1
 7777 027a 3F       		.uleb128 0x3f
 7778 027b 19       		.uleb128 0x19
 7779 027c 03       		.uleb128 0x3
 7780 027d 0E       		.uleb128 0xe
 7781 027e 3A       		.uleb128 0x3a
 7782 027f 0B       		.uleb128 0xb
 7783 0280 3B       		.uleb128 0x3b
 7784 0281 05       		.uleb128 0x5
 7785 0282 39       		.uleb128 0x39
 7786 0283 0B       		.uleb128 0xb
 7787 0284 27       		.uleb128 0x27
 7788 0285 19       		.uleb128 0x19
 7789 0286 11       		.uleb128 0x11
 7790 0287 01       		.uleb128 0x1
 7791 0288 12       		.uleb128 0x12
 7792 0289 06       		.uleb128 0x6
 7793 028a 40       		.uleb128 0x40
 7794 028b 18       		.uleb128 0x18
 7795 028c 9742     		.uleb128 0x2117
 7796 028e 19       		.uleb128 0x19
 7797 028f 01       		.uleb128 0x1
 7798 0290 13       		.uleb128 0x13
 7799 0291 00       		.byte	0
 7800 0292 00       		.byte	0
 7801 0293 2E       		.uleb128 0x2e
 7802 0294 0B       		.uleb128 0xb
 7803 0295 01       		.byte	0x1
 7804 0296 11       		.uleb128 0x11
 7805 0297 01       		.uleb128 0x1
 7806 0298 12       		.uleb128 0x12
 7807 0299 06       		.uleb128 0x6
 7808 029a 01       		.uleb128 0x1
 7809 029b 13       		.uleb128 0x13
ARM GAS  /tmp/cclXoGh5.s 			page 138


 7810 029c 00       		.byte	0
 7811 029d 00       		.byte	0
 7812 029e 2F       		.uleb128 0x2f
 7813 029f 34       		.uleb128 0x34
 7814 02a0 00       		.byte	0
 7815 02a1 03       		.uleb128 0x3
 7816 02a2 0E       		.uleb128 0xe
 7817 02a3 3A       		.uleb128 0x3a
 7818 02a4 0B       		.uleb128 0xb
 7819 02a5 3B       		.uleb128 0x3b
 7820 02a6 05       		.uleb128 0x5
 7821 02a7 39       		.uleb128 0x39
 7822 02a8 0B       		.uleb128 0xb
 7823 02a9 49       		.uleb128 0x49
 7824 02aa 13       		.uleb128 0x13
 7825 02ab 02       		.uleb128 0x2
 7826 02ac 18       		.uleb128 0x18
 7827 02ad 00       		.byte	0
 7828 02ae 00       		.byte	0
 7829 02af 30       		.uleb128 0x30
 7830 02b0 898201   		.uleb128 0x4109
 7831 02b3 01       		.byte	0x1
 7832 02b4 11       		.uleb128 0x11
 7833 02b5 01       		.uleb128 0x1
 7834 02b6 31       		.uleb128 0x31
 7835 02b7 13       		.uleb128 0x13
 7836 02b8 00       		.byte	0
 7837 02b9 00       		.byte	0
 7838 02ba 31       		.uleb128 0x31
 7839 02bb 8A8201   		.uleb128 0x410a
 7840 02be 00       		.byte	0
 7841 02bf 02       		.uleb128 0x2
 7842 02c0 18       		.uleb128 0x18
 7843 02c1 9142     		.uleb128 0x2111
 7844 02c3 18       		.uleb128 0x18
 7845 02c4 00       		.byte	0
 7846 02c5 00       		.byte	0
 7847 02c6 32       		.uleb128 0x32
 7848 02c7 34       		.uleb128 0x34
 7849 02c8 00       		.byte	0
 7850 02c9 03       		.uleb128 0x3
 7851 02ca 08       		.uleb128 0x8
 7852 02cb 3A       		.uleb128 0x3a
 7853 02cc 0B       		.uleb128 0xb
 7854 02cd 3B       		.uleb128 0x3b
 7855 02ce 05       		.uleb128 0x5
 7856 02cf 39       		.uleb128 0x39
 7857 02d0 0B       		.uleb128 0xb
 7858 02d1 49       		.uleb128 0x49
 7859 02d2 13       		.uleb128 0x13
 7860 02d3 02       		.uleb128 0x2
 7861 02d4 17       		.uleb128 0x17
 7862 02d5 B742     		.uleb128 0x2137
 7863 02d7 17       		.uleb128 0x17
 7864 02d8 00       		.byte	0
 7865 02d9 00       		.byte	0
 7866 02da 33       		.uleb128 0x33
ARM GAS  /tmp/cclXoGh5.s 			page 139


 7867 02db 1D       		.uleb128 0x1d
 7868 02dc 01       		.byte	0x1
 7869 02dd 31       		.uleb128 0x31
 7870 02de 13       		.uleb128 0x13
 7871 02df 52       		.uleb128 0x52
 7872 02e0 01       		.uleb128 0x1
 7873 02e1 B842     		.uleb128 0x2138
 7874 02e3 05       		.uleb128 0x5
 7875 02e4 55       		.uleb128 0x55
 7876 02e5 17       		.uleb128 0x17
 7877 02e6 58       		.uleb128 0x58
 7878 02e7 0B       		.uleb128 0xb
 7879 02e8 59       		.uleb128 0x59
 7880 02e9 05       		.uleb128 0x5
 7881 02ea 57       		.uleb128 0x57
 7882 02eb 0B       		.uleb128 0xb
 7883 02ec 01       		.uleb128 0x1
 7884 02ed 13       		.uleb128 0x13
 7885 02ee 00       		.byte	0
 7886 02ef 00       		.byte	0
 7887 02f0 34       		.uleb128 0x34
 7888 02f1 0B       		.uleb128 0xb
 7889 02f2 01       		.byte	0x1
 7890 02f3 55       		.uleb128 0x55
 7891 02f4 17       		.uleb128 0x17
 7892 02f5 00       		.byte	0
 7893 02f6 00       		.byte	0
 7894 02f7 35       		.uleb128 0x35
 7895 02f8 0B       		.uleb128 0xb
 7896 02f9 01       		.byte	0x1
 7897 02fa 31       		.uleb128 0x31
 7898 02fb 13       		.uleb128 0x13
 7899 02fc 11       		.uleb128 0x11
 7900 02fd 01       		.uleb128 0x1
 7901 02fe 12       		.uleb128 0x12
 7902 02ff 06       		.uleb128 0x6
 7903 0300 00       		.byte	0
 7904 0301 00       		.byte	0
 7905 0302 36       		.uleb128 0x36
 7906 0303 34       		.uleb128 0x34
 7907 0304 00       		.byte	0
 7908 0305 31       		.uleb128 0x31
 7909 0306 13       		.uleb128 0x13
 7910 0307 02       		.uleb128 0x2
 7911 0308 18       		.uleb128 0x18
 7912 0309 00       		.byte	0
 7913 030a 00       		.byte	0
 7914 030b 37       		.uleb128 0x37
 7915 030c 898201   		.uleb128 0x4109
 7916 030f 01       		.byte	0x1
 7917 0310 11       		.uleb128 0x11
 7918 0311 01       		.uleb128 0x1
 7919 0312 31       		.uleb128 0x31
 7920 0313 13       		.uleb128 0x13
 7921 0314 01       		.uleb128 0x1
 7922 0315 13       		.uleb128 0x13
 7923 0316 00       		.byte	0
ARM GAS  /tmp/cclXoGh5.s 			page 140


 7924 0317 00       		.byte	0
 7925 0318 38       		.uleb128 0x38
 7926 0319 2E       		.uleb128 0x2e
 7927 031a 01       		.byte	0x1
 7928 031b 03       		.uleb128 0x3
 7929 031c 0E       		.uleb128 0xe
 7930 031d 3A       		.uleb128 0x3a
 7931 031e 0B       		.uleb128 0xb
 7932 031f 3B       		.uleb128 0x3b
 7933 0320 05       		.uleb128 0x5
 7934 0321 39       		.uleb128 0x39
 7935 0322 0B       		.uleb128 0xb
 7936 0323 27       		.uleb128 0x27
 7937 0324 19       		.uleb128 0x19
 7938 0325 20       		.uleb128 0x20
 7939 0326 0B       		.uleb128 0xb
 7940 0327 01       		.uleb128 0x1
 7941 0328 13       		.uleb128 0x13
 7942 0329 00       		.byte	0
 7943 032a 00       		.byte	0
 7944 032b 39       		.uleb128 0x39
 7945 032c 05       		.uleb128 0x5
 7946 032d 00       		.byte	0
 7947 032e 03       		.uleb128 0x3
 7948 032f 08       		.uleb128 0x8
 7949 0330 3A       		.uleb128 0x3a
 7950 0331 0B       		.uleb128 0xb
 7951 0332 3B       		.uleb128 0x3b
 7952 0333 05       		.uleb128 0x5
 7953 0334 39       		.uleb128 0x39
 7954 0335 0B       		.uleb128 0xb
 7955 0336 49       		.uleb128 0x49
 7956 0337 13       		.uleb128 0x13
 7957 0338 00       		.byte	0
 7958 0339 00       		.byte	0
 7959 033a 3A       		.uleb128 0x3a
 7960 033b 34       		.uleb128 0x34
 7961 033c 00       		.byte	0
 7962 033d 03       		.uleb128 0x3
 7963 033e 08       		.uleb128 0x8
 7964 033f 3A       		.uleb128 0x3a
 7965 0340 0B       		.uleb128 0xb
 7966 0341 3B       		.uleb128 0x3b
 7967 0342 05       		.uleb128 0x5
 7968 0343 39       		.uleb128 0x39
 7969 0344 0B       		.uleb128 0xb
 7970 0345 49       		.uleb128 0x49
 7971 0346 13       		.uleb128 0x13
 7972 0347 00       		.byte	0
 7973 0348 00       		.byte	0
 7974 0349 3B       		.uleb128 0x3b
 7975 034a 0B       		.uleb128 0xb
 7976 034b 01       		.byte	0x1
 7977 034c 00       		.byte	0
 7978 034d 00       		.byte	0
 7979 034e 3C       		.uleb128 0x3c
 7980 034f 34       		.uleb128 0x34
ARM GAS  /tmp/cclXoGh5.s 			page 141


 7981 0350 00       		.byte	0
 7982 0351 03       		.uleb128 0x3
 7983 0352 0E       		.uleb128 0xe
 7984 0353 3A       		.uleb128 0x3a
 7985 0354 0B       		.uleb128 0xb
 7986 0355 3B       		.uleb128 0x3b
 7987 0356 05       		.uleb128 0x5
 7988 0357 39       		.uleb128 0x39
 7989 0358 0B       		.uleb128 0xb
 7990 0359 49       		.uleb128 0x49
 7991 035a 13       		.uleb128 0x13
 7992 035b 00       		.byte	0
 7993 035c 00       		.byte	0
 7994 035d 3D       		.uleb128 0x3d
 7995 035e 2E       		.uleb128 0x2e
 7996 035f 01       		.byte	0x1
 7997 0360 3F       		.uleb128 0x3f
 7998 0361 19       		.uleb128 0x19
 7999 0362 03       		.uleb128 0x3
 8000 0363 0E       		.uleb128 0xe
 8001 0364 3A       		.uleb128 0x3a
 8002 0365 0B       		.uleb128 0xb
 8003 0366 3B       		.uleb128 0x3b
 8004 0367 05       		.uleb128 0x5
 8005 0368 39       		.uleb128 0x39
 8006 0369 0B       		.uleb128 0xb
 8007 036a 27       		.uleb128 0x27
 8008 036b 19       		.uleb128 0x19
 8009 036c 20       		.uleb128 0x20
 8010 036d 0B       		.uleb128 0xb
 8011 036e 01       		.uleb128 0x1
 8012 036f 13       		.uleb128 0x13
 8013 0370 00       		.byte	0
 8014 0371 00       		.byte	0
 8015 0372 3E       		.uleb128 0x3e
 8016 0373 2E       		.uleb128 0x2e
 8017 0374 01       		.byte	0x1
 8018 0375 3F       		.uleb128 0x3f
 8019 0376 19       		.uleb128 0x19
 8020 0377 03       		.uleb128 0x3
 8021 0378 0E       		.uleb128 0xe
 8022 0379 3A       		.uleb128 0x3a
 8023 037a 0B       		.uleb128 0xb
 8024 037b 3B       		.uleb128 0x3b
 8025 037c 05       		.uleb128 0x5
 8026 037d 39       		.uleb128 0x39
 8027 037e 0B       		.uleb128 0xb
 8028 037f 27       		.uleb128 0x27
 8029 0380 19       		.uleb128 0x19
 8030 0381 49       		.uleb128 0x49
 8031 0382 13       		.uleb128 0x13
 8032 0383 20       		.uleb128 0x20
 8033 0384 0B       		.uleb128 0xb
 8034 0385 01       		.uleb128 0x1
 8035 0386 13       		.uleb128 0x13
 8036 0387 00       		.byte	0
 8037 0388 00       		.byte	0
ARM GAS  /tmp/cclXoGh5.s 			page 142


 8038 0389 3F       		.uleb128 0x3f
 8039 038a 1D       		.uleb128 0x1d
 8040 038b 01       		.byte	0x1
 8041 038c 31       		.uleb128 0x31
 8042 038d 13       		.uleb128 0x13
 8043 038e 11       		.uleb128 0x11
 8044 038f 01       		.uleb128 0x1
 8045 0390 12       		.uleb128 0x12
 8046 0391 06       		.uleb128 0x6
 8047 0392 58       		.uleb128 0x58
 8048 0393 0B       		.uleb128 0xb
 8049 0394 59       		.uleb128 0x59
 8050 0395 05       		.uleb128 0x5
 8051 0396 57       		.uleb128 0x57
 8052 0397 0B       		.uleb128 0xb
 8053 0398 01       		.uleb128 0x1
 8054 0399 13       		.uleb128 0x13
 8055 039a 00       		.byte	0
 8056 039b 00       		.byte	0
 8057 039c 40       		.uleb128 0x40
 8058 039d 05       		.uleb128 0x5
 8059 039e 00       		.byte	0
 8060 039f 31       		.uleb128 0x31
 8061 03a0 13       		.uleb128 0x13
 8062 03a1 00       		.byte	0
 8063 03a2 00       		.byte	0
 8064 03a3 41       		.uleb128 0x41
 8065 03a4 21       		.uleb128 0x21
 8066 03a5 00       		.byte	0
 8067 03a6 49       		.uleb128 0x49
 8068 03a7 13       		.uleb128 0x13
 8069 03a8 2F       		.uleb128 0x2f
 8070 03a9 18       		.uleb128 0x18
 8071 03aa 00       		.byte	0
 8072 03ab 00       		.byte	0
 8073 03ac 42       		.uleb128 0x42
 8074 03ad 2E       		.uleb128 0x2e
 8075 03ae 01       		.byte	0x1
 8076 03af 3F       		.uleb128 0x3f
 8077 03b0 19       		.uleb128 0x19
 8078 03b1 03       		.uleb128 0x3
 8079 03b2 0E       		.uleb128 0xe
 8080 03b3 3A       		.uleb128 0x3a
 8081 03b4 0B       		.uleb128 0xb
 8082 03b5 3B       		.uleb128 0x3b
 8083 03b6 0B       		.uleb128 0xb
 8084 03b7 39       		.uleb128 0x39
 8085 03b8 0B       		.uleb128 0xb
 8086 03b9 27       		.uleb128 0x27
 8087 03ba 19       		.uleb128 0x19
 8088 03bb 11       		.uleb128 0x11
 8089 03bc 01       		.uleb128 0x1
 8090 03bd 12       		.uleb128 0x12
 8091 03be 06       		.uleb128 0x6
 8092 03bf 40       		.uleb128 0x40
 8093 03c0 18       		.uleb128 0x18
 8094 03c1 9742     		.uleb128 0x2117
ARM GAS  /tmp/cclXoGh5.s 			page 143


 8095 03c3 19       		.uleb128 0x19
 8096 03c4 01       		.uleb128 0x1
 8097 03c5 13       		.uleb128 0x13
 8098 03c6 00       		.byte	0
 8099 03c7 00       		.byte	0
 8100 03c8 43       		.uleb128 0x43
 8101 03c9 05       		.uleb128 0x5
 8102 03ca 00       		.byte	0
 8103 03cb 03       		.uleb128 0x3
 8104 03cc 08       		.uleb128 0x8
 8105 03cd 3A       		.uleb128 0x3a
 8106 03ce 0B       		.uleb128 0xb
 8107 03cf 3B       		.uleb128 0x3b
 8108 03d0 0B       		.uleb128 0xb
 8109 03d1 39       		.uleb128 0x39
 8110 03d2 0B       		.uleb128 0xb
 8111 03d3 49       		.uleb128 0x49
 8112 03d4 13       		.uleb128 0x13
 8113 03d5 02       		.uleb128 0x2
 8114 03d6 17       		.uleb128 0x17
 8115 03d7 B742     		.uleb128 0x2137
 8116 03d9 17       		.uleb128 0x17
 8117 03da 00       		.byte	0
 8118 03db 00       		.byte	0
 8119 03dc 44       		.uleb128 0x44
 8120 03dd 34       		.uleb128 0x34
 8121 03de 00       		.byte	0
 8122 03df 03       		.uleb128 0x3
 8123 03e0 0E       		.uleb128 0xe
 8124 03e1 3A       		.uleb128 0x3a
 8125 03e2 0B       		.uleb128 0xb
 8126 03e3 3B       		.uleb128 0x3b
 8127 03e4 0B       		.uleb128 0xb
 8128 03e5 39       		.uleb128 0x39
 8129 03e6 0B       		.uleb128 0xb
 8130 03e7 49       		.uleb128 0x49
 8131 03e8 13       		.uleb128 0x13
 8132 03e9 02       		.uleb128 0x2
 8133 03ea 17       		.uleb128 0x17
 8134 03eb B742     		.uleb128 0x2137
 8135 03ed 17       		.uleb128 0x17
 8136 03ee 00       		.byte	0
 8137 03ef 00       		.byte	0
 8138 03f0 45       		.uleb128 0x45
 8139 03f1 0B       		.uleb128 0xb
 8140 03f2 01       		.byte	0x1
 8141 03f3 11       		.uleb128 0x11
 8142 03f4 01       		.uleb128 0x1
 8143 03f5 12       		.uleb128 0x12
 8144 03f6 06       		.uleb128 0x6
 8145 03f7 00       		.byte	0
 8146 03f8 00       		.byte	0
 8147 03f9 46       		.uleb128 0x46
 8148 03fa 1D       		.uleb128 0x1d
 8149 03fb 01       		.byte	0x1
 8150 03fc 31       		.uleb128 0x31
 8151 03fd 13       		.uleb128 0x13
ARM GAS  /tmp/cclXoGh5.s 			page 144


 8152 03fe 52       		.uleb128 0x52
 8153 03ff 01       		.uleb128 0x1
 8154 0400 B842     		.uleb128 0x2138
 8155 0402 05       		.uleb128 0x5
 8156 0403 55       		.uleb128 0x55
 8157 0404 17       		.uleb128 0x17
 8158 0405 58       		.uleb128 0x58
 8159 0406 0B       		.uleb128 0xb
 8160 0407 59       		.uleb128 0x59
 8161 0408 05       		.uleb128 0x5
 8162 0409 57       		.uleb128 0x57
 8163 040a 0B       		.uleb128 0xb
 8164 040b 00       		.byte	0
 8165 040c 00       		.byte	0
 8166 040d 47       		.uleb128 0x47
 8167 040e 2E       		.uleb128 0x2e
 8168 040f 01       		.byte	0x1
 8169 0410 03       		.uleb128 0x3
 8170 0411 0E       		.uleb128 0xe
 8171 0412 3A       		.uleb128 0x3a
 8172 0413 0B       		.uleb128 0xb
 8173 0414 3B       		.uleb128 0x3b
 8174 0415 0B       		.uleb128 0xb
 8175 0416 39       		.uleb128 0x39
 8176 0417 0B       		.uleb128 0xb
 8177 0418 27       		.uleb128 0x27
 8178 0419 19       		.uleb128 0x19
 8179 041a 49       		.uleb128 0x49
 8180 041b 13       		.uleb128 0x13
 8181 041c 20       		.uleb128 0x20
 8182 041d 0B       		.uleb128 0xb
 8183 041e 01       		.uleb128 0x1
 8184 041f 13       		.uleb128 0x13
 8185 0420 00       		.byte	0
 8186 0421 00       		.byte	0
 8187 0422 48       		.uleb128 0x48
 8188 0423 05       		.uleb128 0x5
 8189 0424 00       		.byte	0
 8190 0425 03       		.uleb128 0x3
 8191 0426 08       		.uleb128 0x8
 8192 0427 3A       		.uleb128 0x3a
 8193 0428 0B       		.uleb128 0xb
 8194 0429 3B       		.uleb128 0x3b
 8195 042a 0B       		.uleb128 0xb
 8196 042b 39       		.uleb128 0x39
 8197 042c 0B       		.uleb128 0xb
 8198 042d 49       		.uleb128 0x49
 8199 042e 13       		.uleb128 0x13
 8200 042f 00       		.byte	0
 8201 0430 00       		.byte	0
 8202 0431 49       		.uleb128 0x49
 8203 0432 05       		.uleb128 0x5
 8204 0433 00       		.byte	0
 8205 0434 03       		.uleb128 0x3
 8206 0435 0E       		.uleb128 0xe
 8207 0436 3A       		.uleb128 0x3a
 8208 0437 0B       		.uleb128 0xb
ARM GAS  /tmp/cclXoGh5.s 			page 145


 8209 0438 3B       		.uleb128 0x3b
 8210 0439 0B       		.uleb128 0xb
 8211 043a 39       		.uleb128 0x39
 8212 043b 0B       		.uleb128 0xb
 8213 043c 49       		.uleb128 0x49
 8214 043d 13       		.uleb128 0x13
 8215 043e 00       		.byte	0
 8216 043f 00       		.byte	0
 8217 0440 4A       		.uleb128 0x4a
 8218 0441 2E       		.uleb128 0x2e
 8219 0442 01       		.byte	0x1
 8220 0443 03       		.uleb128 0x3
 8221 0444 0E       		.uleb128 0xe
 8222 0445 3A       		.uleb128 0x3a
 8223 0446 0B       		.uleb128 0xb
 8224 0447 3B       		.uleb128 0x3b
 8225 0448 0B       		.uleb128 0xb
 8226 0449 39       		.uleb128 0x39
 8227 044a 0B       		.uleb128 0xb
 8228 044b 27       		.uleb128 0x27
 8229 044c 19       		.uleb128 0x19
 8230 044d 49       		.uleb128 0x49
 8231 044e 13       		.uleb128 0x13
 8232 044f 11       		.uleb128 0x11
 8233 0450 01       		.uleb128 0x1
 8234 0451 12       		.uleb128 0x12
 8235 0452 06       		.uleb128 0x6
 8236 0453 40       		.uleb128 0x40
 8237 0454 18       		.uleb128 0x18
 8238 0455 9742     		.uleb128 0x2117
 8239 0457 19       		.uleb128 0x19
 8240 0458 01       		.uleb128 0x1
 8241 0459 13       		.uleb128 0x13
 8242 045a 00       		.byte	0
 8243 045b 00       		.byte	0
 8244 045c 4B       		.uleb128 0x4b
 8245 045d 05       		.uleb128 0x5
 8246 045e 00       		.byte	0
 8247 045f 03       		.uleb128 0x3
 8248 0460 0E       		.uleb128 0xe
 8249 0461 3A       		.uleb128 0x3a
 8250 0462 0B       		.uleb128 0xb
 8251 0463 3B       		.uleb128 0x3b
 8252 0464 0B       		.uleb128 0xb
 8253 0465 39       		.uleb128 0x39
 8254 0466 0B       		.uleb128 0xb
 8255 0467 49       		.uleb128 0x49
 8256 0468 13       		.uleb128 0x13
 8257 0469 02       		.uleb128 0x2
 8258 046a 17       		.uleb128 0x17
 8259 046b B742     		.uleb128 0x2137
 8260 046d 17       		.uleb128 0x17
 8261 046e 00       		.byte	0
 8262 046f 00       		.byte	0
 8263 0470 4C       		.uleb128 0x4c
 8264 0471 2E       		.uleb128 0x2e
 8265 0472 01       		.byte	0x1
ARM GAS  /tmp/cclXoGh5.s 			page 146


 8266 0473 3F       		.uleb128 0x3f
 8267 0474 19       		.uleb128 0x19
 8268 0475 03       		.uleb128 0x3
 8269 0476 0E       		.uleb128 0xe
 8270 0477 3A       		.uleb128 0x3a
 8271 0478 0B       		.uleb128 0xb
 8272 0479 3B       		.uleb128 0x3b
 8273 047a 0B       		.uleb128 0xb
 8274 047b 39       		.uleb128 0x39
 8275 047c 0B       		.uleb128 0xb
 8276 047d 27       		.uleb128 0x27
 8277 047e 19       		.uleb128 0x19
 8278 047f 49       		.uleb128 0x49
 8279 0480 13       		.uleb128 0x13
 8280 0481 11       		.uleb128 0x11
 8281 0482 01       		.uleb128 0x1
 8282 0483 12       		.uleb128 0x12
 8283 0484 06       		.uleb128 0x6
 8284 0485 40       		.uleb128 0x40
 8285 0486 18       		.uleb128 0x18
 8286 0487 9742     		.uleb128 0x2117
 8287 0489 19       		.uleb128 0x19
 8288 048a 01       		.uleb128 0x1
 8289 048b 13       		.uleb128 0x13
 8290 048c 00       		.byte	0
 8291 048d 00       		.byte	0
 8292 048e 4D       		.uleb128 0x4d
 8293 048f 1D       		.uleb128 0x1d
 8294 0490 01       		.byte	0x1
 8295 0491 31       		.uleb128 0x31
 8296 0492 13       		.uleb128 0x13
 8297 0493 52       		.uleb128 0x52
 8298 0494 01       		.uleb128 0x1
 8299 0495 B842     		.uleb128 0x2138
 8300 0497 05       		.uleb128 0x5
 8301 0498 55       		.uleb128 0x55
 8302 0499 17       		.uleb128 0x17
 8303 049a 58       		.uleb128 0x58
 8304 049b 0B       		.uleb128 0xb
 8305 049c 59       		.uleb128 0x59
 8306 049d 0B       		.uleb128 0xb
 8307 049e 57       		.uleb128 0x57
 8308 049f 0B       		.uleb128 0xb
 8309 04a0 01       		.uleb128 0x1
 8310 04a1 13       		.uleb128 0x13
 8311 04a2 00       		.byte	0
 8312 04a3 00       		.byte	0
 8313 04a4 4E       		.uleb128 0x4e
 8314 04a5 1D       		.uleb128 0x1d
 8315 04a6 01       		.byte	0x1
 8316 04a7 31       		.uleb128 0x31
 8317 04a8 13       		.uleb128 0x13
 8318 04a9 52       		.uleb128 0x52
 8319 04aa 01       		.uleb128 0x1
 8320 04ab B842     		.uleb128 0x2138
 8321 04ad 05       		.uleb128 0x5
 8322 04ae 11       		.uleb128 0x11
ARM GAS  /tmp/cclXoGh5.s 			page 147


 8323 04af 01       		.uleb128 0x1
 8324 04b0 12       		.uleb128 0x12
 8325 04b1 06       		.uleb128 0x6
 8326 04b2 58       		.uleb128 0x58
 8327 04b3 0B       		.uleb128 0xb
 8328 04b4 59       		.uleb128 0x59
 8329 04b5 0B       		.uleb128 0xb
 8330 04b6 57       		.uleb128 0x57
 8331 04b7 0B       		.uleb128 0xb
 8332 04b8 01       		.uleb128 0x1
 8333 04b9 13       		.uleb128 0x13
 8334 04ba 00       		.byte	0
 8335 04bb 00       		.byte	0
 8336 04bc 4F       		.uleb128 0x4f
 8337 04bd 2E       		.uleb128 0x2e
 8338 04be 01       		.byte	0x1
 8339 04bf 3F       		.uleb128 0x3f
 8340 04c0 19       		.uleb128 0x19
 8341 04c1 03       		.uleb128 0x3
 8342 04c2 0E       		.uleb128 0xe
 8343 04c3 3A       		.uleb128 0x3a
 8344 04c4 0B       		.uleb128 0xb
 8345 04c5 3B       		.uleb128 0x3b
 8346 04c6 0B       		.uleb128 0xb
 8347 04c7 39       		.uleb128 0x39
 8348 04c8 0B       		.uleb128 0xb
 8349 04c9 27       		.uleb128 0x27
 8350 04ca 19       		.uleb128 0x19
 8351 04cb 49       		.uleb128 0x49
 8352 04cc 13       		.uleb128 0x13
 8353 04cd 20       		.uleb128 0x20
 8354 04ce 0B       		.uleb128 0xb
 8355 04cf 01       		.uleb128 0x1
 8356 04d0 13       		.uleb128 0x13
 8357 04d1 00       		.byte	0
 8358 04d2 00       		.byte	0
 8359 04d3 50       		.uleb128 0x50
 8360 04d4 34       		.uleb128 0x34
 8361 04d5 00       		.byte	0
 8362 04d6 03       		.uleb128 0x3
 8363 04d7 0E       		.uleb128 0xe
 8364 04d8 3A       		.uleb128 0x3a
 8365 04d9 0B       		.uleb128 0xb
 8366 04da 3B       		.uleb128 0x3b
 8367 04db 0B       		.uleb128 0xb
 8368 04dc 39       		.uleb128 0x39
 8369 04dd 0B       		.uleb128 0xb
 8370 04de 49       		.uleb128 0x49
 8371 04df 13       		.uleb128 0x13
 8372 04e0 00       		.byte	0
 8373 04e1 00       		.byte	0
 8374 04e2 51       		.uleb128 0x51
 8375 04e3 34       		.uleb128 0x34
 8376 04e4 00       		.byte	0
 8377 04e5 03       		.uleb128 0x3
 8378 04e6 08       		.uleb128 0x8
 8379 04e7 3A       		.uleb128 0x3a
ARM GAS  /tmp/cclXoGh5.s 			page 148


 8380 04e8 0B       		.uleb128 0xb
 8381 04e9 3B       		.uleb128 0x3b
 8382 04ea 0B       		.uleb128 0xb
 8383 04eb 39       		.uleb128 0x39
 8384 04ec 0B       		.uleb128 0xb
 8385 04ed 49       		.uleb128 0x49
 8386 04ee 13       		.uleb128 0x13
 8387 04ef 00       		.byte	0
 8388 04f0 00       		.byte	0
 8389 04f1 52       		.uleb128 0x52
 8390 04f2 898201   		.uleb128 0x4109
 8391 04f5 01       		.byte	0x1
 8392 04f6 11       		.uleb128 0x11
 8393 04f7 01       		.uleb128 0x1
 8394 04f8 9542     		.uleb128 0x2115
 8395 04fa 19       		.uleb128 0x19
 8396 04fb 31       		.uleb128 0x31
 8397 04fc 13       		.uleb128 0x13
 8398 04fd 01       		.uleb128 0x1
 8399 04fe 13       		.uleb128 0x13
 8400 04ff 00       		.byte	0
 8401 0500 00       		.byte	0
 8402 0501 53       		.uleb128 0x53
 8403 0502 2E       		.uleb128 0x2e
 8404 0503 01       		.byte	0x1
 8405 0504 31       		.uleb128 0x31
 8406 0505 13       		.uleb128 0x13
 8407 0506 11       		.uleb128 0x11
 8408 0507 01       		.uleb128 0x1
 8409 0508 12       		.uleb128 0x12
 8410 0509 06       		.uleb128 0x6
 8411 050a 40       		.uleb128 0x40
 8412 050b 18       		.uleb128 0x18
 8413 050c 9742     		.uleb128 0x2117
 8414 050e 19       		.uleb128 0x19
 8415 050f 01       		.uleb128 0x1
 8416 0510 13       		.uleb128 0x13
 8417 0511 00       		.byte	0
 8418 0512 00       		.byte	0
 8419 0513 54       		.uleb128 0x54
 8420 0514 0B       		.uleb128 0xb
 8421 0515 01       		.byte	0x1
 8422 0516 31       		.uleb128 0x31
 8423 0517 13       		.uleb128 0x13
 8424 0518 11       		.uleb128 0x11
 8425 0519 01       		.uleb128 0x1
 8426 051a 12       		.uleb128 0x12
 8427 051b 06       		.uleb128 0x6
 8428 051c 01       		.uleb128 0x1
 8429 051d 13       		.uleb128 0x13
 8430 051e 00       		.byte	0
 8431 051f 00       		.byte	0
 8432 0520 55       		.uleb128 0x55
 8433 0521 2E       		.uleb128 0x2e
 8434 0522 00       		.byte	0
 8435 0523 3F       		.uleb128 0x3f
 8436 0524 19       		.uleb128 0x19
ARM GAS  /tmp/cclXoGh5.s 			page 149


 8437 0525 3C       		.uleb128 0x3c
 8438 0526 19       		.uleb128 0x19
 8439 0527 6E       		.uleb128 0x6e
 8440 0528 0E       		.uleb128 0xe
 8441 0529 03       		.uleb128 0x3
 8442 052a 0E       		.uleb128 0xe
 8443 052b 00       		.byte	0
 8444 052c 00       		.byte	0
 8445 052d 56       		.uleb128 0x56
 8446 052e 2E       		.uleb128 0x2e
 8447 052f 00       		.byte	0
 8448 0530 3F       		.uleb128 0x3f
 8449 0531 19       		.uleb128 0x19
 8450 0532 3C       		.uleb128 0x3c
 8451 0533 19       		.uleb128 0x19
 8452 0534 6E       		.uleb128 0x6e
 8453 0535 0E       		.uleb128 0xe
 8454 0536 03       		.uleb128 0x3
 8455 0537 0E       		.uleb128 0xe
 8456 0538 3A       		.uleb128 0x3a
 8457 0539 0B       		.uleb128 0xb
 8458 053a 3B       		.uleb128 0x3b
 8459 053b 0B       		.uleb128 0xb
 8460 053c 39       		.uleb128 0x39
 8461 053d 0B       		.uleb128 0xb
 8462 053e 00       		.byte	0
 8463 053f 00       		.byte	0
 8464 0540 57       		.uleb128 0x57
 8465 0541 2E       		.uleb128 0x2e
 8466 0542 00       		.byte	0
 8467 0543 3F       		.uleb128 0x3f
 8468 0544 19       		.uleb128 0x19
 8469 0545 3C       		.uleb128 0x3c
 8470 0546 19       		.uleb128 0x19
 8471 0547 6E       		.uleb128 0x6e
 8472 0548 0E       		.uleb128 0xe
 8473 0549 03       		.uleb128 0x3
 8474 054a 0E       		.uleb128 0xe
 8475 054b 3A       		.uleb128 0x3a
 8476 054c 0B       		.uleb128 0xb
 8477 054d 3B       		.uleb128 0x3b
 8478 054e 0B       		.uleb128 0xb
 8479 054f 00       		.byte	0
 8480 0550 00       		.byte	0
 8481 0551 00       		.byte	0
 8482              		.section	.debug_loc,"",%progbits
 8483              	.Ldebug_loc0:
 8484              	.LVUS97:
 8485 0000 00       		.uleb128 0
 8486 0001 00       		.uleb128 .LVU932
 8487 0002 00       		.uleb128 .LVU932
 8488 0003 00       		.uleb128 .LVU934
 8489 0004 00       		.uleb128 .LVU934
 8490 0005 00       		.uleb128 .LVU940
 8491 0006 00       		.uleb128 .LVU940
 8492 0007 00       		.uleb128 .LVU941
 8493 0008 00       		.uleb128 .LVU941
ARM GAS  /tmp/cclXoGh5.s 			page 150


 8494 0009 00       		.uleb128 .LVU946
 8495 000a 00       		.uleb128 .LVU946
 8496 000b 00       		.uleb128 .LVU959
 8497 000c 00       		.uleb128 .LVU959
 8498 000d 00       		.uleb128 .LVU961
 8499 000e 00       		.uleb128 .LVU961
 8500 000f 00       		.uleb128 0
 8501              	.LLST97:
 8502 0010 00000000 		.4byte	.LVL314
 8503 0014 1E000000 		.4byte	.LVL317
 8504 0018 0100     		.2byte	0x1
 8505 001a 50       		.byte	0x50
 8506 001b 1E000000 		.4byte	.LVL317
 8507 001f 2E000000 		.4byte	.LVL318
 8508 0023 0400     		.2byte	0x4
 8509 0025 F3       		.byte	0xf3
 8510 0026 01       		.uleb128 0x1
 8511 0027 50       		.byte	0x50
 8512 0028 9F       		.byte	0x9f
 8513 0029 2E000000 		.4byte	.LVL318
 8514 002d 3A000000 		.4byte	.LVL319
 8515 0031 0100     		.2byte	0x1
 8516 0033 50       		.byte	0x50
 8517 0034 3A000000 		.4byte	.LVL319
 8518 0038 44000000 		.4byte	.LVL320
 8519 003c 0400     		.2byte	0x4
 8520 003e F3       		.byte	0xf3
 8521 003f 01       		.uleb128 0x1
 8522 0040 50       		.byte	0x50
 8523 0041 9F       		.byte	0x9f
 8524 0042 44000000 		.4byte	.LVL320
 8525 0046 46000000 		.4byte	.LVL321
 8526 004a 0100     		.2byte	0x1
 8527 004c 50       		.byte	0x50
 8528 004d 46000000 		.4byte	.LVL321
 8529 0051 6E000000 		.4byte	.LVL327
 8530 0055 0400     		.2byte	0x4
 8531 0057 F3       		.byte	0xf3
 8532 0058 01       		.uleb128 0x1
 8533 0059 50       		.byte	0x50
 8534 005a 9F       		.byte	0x9f
 8535 005b 6E000000 		.4byte	.LVL327
 8536 005f 70000000 		.4byte	.LVL328
 8537 0063 0100     		.2byte	0x1
 8538 0065 50       		.byte	0x50
 8539 0066 70000000 		.4byte	.LVL328
 8540 006a 7C000000 		.4byte	.LFE17
 8541 006e 0400     		.2byte	0x4
 8542 0070 F3       		.byte	0xf3
 8543 0071 01       		.uleb128 0x1
 8544 0072 50       		.byte	0x50
 8545 0073 9F       		.byte	0x9f
 8546 0074 00000000 		.4byte	0
 8547 0078 00000000 		.4byte	0
 8548              	.LVUS98:
 8549 007c 00       		.uleb128 0
 8550 007d 00       		.uleb128 .LVU921
ARM GAS  /tmp/cclXoGh5.s 			page 151


 8551 007e 00       		.uleb128 .LVU921
 8552 007f 00       		.uleb128 0
 8553              	.LLST98:
 8554 0080 00000000 		.4byte	.LVL314
 8555 0084 08000000 		.4byte	.LVL315
 8556 0088 0100     		.2byte	0x1
 8557 008a 51       		.byte	0x51
 8558 008b 08000000 		.4byte	.LVL315
 8559 008f 7C000000 		.4byte	.LFE17
 8560 0093 0400     		.2byte	0x4
 8561 0095 F3       		.byte	0xf3
 8562 0096 01       		.uleb128 0x1
 8563 0097 51       		.byte	0x51
 8564 0098 9F       		.byte	0x9f
 8565 0099 00000000 		.4byte	0
 8566 009d 00000000 		.4byte	0
 8567              	.LVUS99:
 8568 00a1 00       		.uleb128 0
 8569 00a2 00       		.uleb128 .LVU932
 8570 00a3 00       		.uleb128 .LVU932
 8571 00a4 00       		.uleb128 .LVU934
 8572 00a5 00       		.uleb128 .LVU934
 8573 00a6 00       		.uleb128 .LVU951
 8574 00a7 00       		.uleb128 .LVU951
 8575 00a8 00       		.uleb128 .LVU959
 8576 00a9 00       		.uleb128 .LVU959
 8577 00aa 00       		.uleb128 .LVU962
 8578 00ab 00       		.uleb128 .LVU962
 8579 00ac 00       		.uleb128 0
 8580              	.LLST99:
 8581 00ad 00000000 		.4byte	.LVL314
 8582 00b1 1E000000 		.4byte	.LVL317
 8583 00b5 0100     		.2byte	0x1
 8584 00b7 52       		.byte	0x52
 8585 00b8 1E000000 		.4byte	.LVL317
 8586 00bc 2E000000 		.4byte	.LVL318
 8587 00c0 0400     		.2byte	0x4
 8588 00c2 F3       		.byte	0xf3
 8589 00c3 01       		.uleb128 0x1
 8590 00c4 52       		.byte	0x52
 8591 00c5 9F       		.byte	0x9f
 8592 00c6 2E000000 		.4byte	.LVL318
 8593 00ca 50000000 		.4byte	.LVL323
 8594 00ce 0100     		.2byte	0x1
 8595 00d0 52       		.byte	0x52
 8596 00d1 50000000 		.4byte	.LVL323
 8597 00d5 6E000000 		.4byte	.LVL327
 8598 00d9 0400     		.2byte	0x4
 8599 00db F3       		.byte	0xf3
 8600 00dc 01       		.uleb128 0x1
 8601 00dd 52       		.byte	0x52
 8602 00de 9F       		.byte	0x9f
 8603 00df 6E000000 		.4byte	.LVL327
 8604 00e3 72000000 		.4byte	.LVL329
 8605 00e7 0100     		.2byte	0x1
 8606 00e9 52       		.byte	0x52
 8607 00ea 72000000 		.4byte	.LVL329
ARM GAS  /tmp/cclXoGh5.s 			page 152


 8608 00ee 7C000000 		.4byte	.LFE17
 8609 00f2 0400     		.2byte	0x4
 8610 00f4 F3       		.byte	0xf3
 8611 00f5 01       		.uleb128 0x1
 8612 00f6 52       		.byte	0x52
 8613 00f7 9F       		.byte	0x9f
 8614 00f8 00000000 		.4byte	0
 8615 00fc 00000000 		.4byte	0
 8616              	.LVUS100:
 8617 0100 00       		.uleb128 .LVU928
 8618 0101 00       		.uleb128 .LVU964
 8619              	.LLST100:
 8620 0102 16000000 		.4byte	.LVL316
 8621 0106 75000000 		.4byte	.LVL330-1
 8622 010a 0100     		.2byte	0x1
 8623 010c 51       		.byte	0x51
 8624 010d 00000000 		.4byte	0
 8625 0111 00000000 		.4byte	0
 8626              	.LVUS101:
 8627 0115 01       		.uleb128 .LVU935
 8628 0116 00       		.uleb128 .LVU941
 8629 0117 00       		.uleb128 .LVU959
 8630 0118 00       		.uleb128 .LVU962
 8631              	.LLST101:
 8632 0119 2E000000 		.4byte	.LVL318
 8633 011d 44000000 		.4byte	.LVL320
 8634 0121 0200     		.2byte	0x2
 8635 0123 72       		.byte	0x72
 8636 0124 02       		.sleb128 2
 8637 0125 6E000000 		.4byte	.LVL327
 8638 0129 72000000 		.4byte	.LVL329
 8639 012d 0200     		.2byte	0x2
 8640 012f 72       		.byte	0x72
 8641 0130 02       		.sleb128 2
 8642 0131 00000000 		.4byte	0
 8643 0135 00000000 		.4byte	0
 8644              	.LVUS102:
 8645 0139 02       		.uleb128 .LVU943
 8646 013a 00       		.uleb128 .LVU959
 8647              	.LLST102:
 8648 013b 44000000 		.4byte	.LVL320
 8649 013f 6E000000 		.4byte	.LVL327
 8650 0143 0100     		.2byte	0x1
 8651 0145 51       		.byte	0x51
 8652 0146 00000000 		.4byte	0
 8653 014a 00000000 		.4byte	0
 8654              	.LVUS103:
 8655 014e 02       		.uleb128 .LVU943
 8656 014f 00       		.uleb128 .LVU946
 8657 0150 00       		.uleb128 .LVU946
 8658 0151 00       		.uleb128 .LVU959
 8659              	.LLST103:
 8660 0152 44000000 		.4byte	.LVL320
 8661 0156 46000000 		.4byte	.LVL321
 8662 015a 0100     		.2byte	0x1
 8663 015c 50       		.byte	0x50
 8664 015d 46000000 		.4byte	.LVL321
ARM GAS  /tmp/cclXoGh5.s 			page 153


 8665 0161 6E000000 		.4byte	.LVL327
 8666 0165 0400     		.2byte	0x4
 8667 0167 F3       		.byte	0xf3
 8668 0168 01       		.uleb128 0x1
 8669 0169 50       		.byte	0x50
 8670 016a 9F       		.byte	0x9f
 8671 016b 00000000 		.4byte	0
 8672 016f 00000000 		.4byte	0
 8673              	.LVUS104:
 8674 0173 00       		.uleb128 .LVU947
 8675 0174 00       		.uleb128 .LVU959
 8676              	.LLST104:
 8677 0175 48000000 		.4byte	.LVL322
 8678 0179 6E000000 		.4byte	.LVL327
 8679 017d 0100     		.2byte	0x1
 8680 017f 54       		.byte	0x54
 8681 0180 00000000 		.4byte	0
 8682 0184 00000000 		.4byte	0
 8683              	.LVUS105:
 8684 0188 02       		.uleb128 .LVU949
 8685 0189 00       		.uleb128 .LVU951
 8686 018a 00       		.uleb128 .LVU951
 8687 018b 01       		.uleb128 .LVU952
 8688 018c 01       		.uleb128 .LVU952
 8689 018d 00       		.uleb128 .LVU953
 8690 018e 00       		.uleb128 .LVU954
 8691 018f 00       		.uleb128 .LVU958
 8692              	.LLST105:
 8693 0190 48000000 		.4byte	.LVL322
 8694 0194 50000000 		.4byte	.LVL323
 8695 0198 0200     		.2byte	0x2
 8696 019a 31       		.byte	0x31
 8697 019b 9F       		.byte	0x9f
 8698 019c 50000000 		.4byte	.LVL323
 8699 01a0 50000000 		.4byte	.LVL323
 8700 01a4 0100     		.2byte	0x1
 8701 01a6 53       		.byte	0x53
 8702 01a7 50000000 		.4byte	.LVL323
 8703 01ab 52000000 		.4byte	.LVL324
 8704 01af 0300     		.2byte	0x3
 8705 01b1 73       		.byte	0x73
 8706 01b2 02       		.sleb128 2
 8707 01b3 9F       		.byte	0x9f
 8708 01b4 58000000 		.4byte	.LVL325
 8709 01b8 62000000 		.4byte	.LVL326
 8710 01bc 0100     		.2byte	0x1
 8711 01be 53       		.byte	0x53
 8712 01bf 00000000 		.4byte	0
 8713 01c3 00000000 		.4byte	0
 8714              	.LVUS69:
 8715 01c7 00       		.uleb128 0
 8716 01c8 00       		.uleb128 .LVU696
 8717 01c9 00       		.uleb128 .LVU696
 8718 01ca 00       		.uleb128 .LVU765
 8719 01cb 00       		.uleb128 .LVU765
 8720 01cc 00       		.uleb128 .LVU767
 8721 01cd 00       		.uleb128 .LVU767
ARM GAS  /tmp/cclXoGh5.s 			page 154


 8722 01ce 00       		.uleb128 .LVU773
 8723 01cf 00       		.uleb128 .LVU773
 8724 01d0 00       		.uleb128 .LVU774
 8725 01d1 00       		.uleb128 .LVU774
 8726 01d2 00       		.uleb128 .LVU780
 8727 01d3 00       		.uleb128 .LVU780
 8728 01d4 00       		.uleb128 .LVU781
 8729 01d5 00       		.uleb128 .LVU781
 8730 01d6 00       		.uleb128 .LVU851
 8731 01d7 00       		.uleb128 .LVU851
 8732 01d8 00       		.uleb128 .LVU857
 8733 01d9 00       		.uleb128 .LVU857
 8734 01da 00       		.uleb128 .LVU915
 8735 01db 00       		.uleb128 .LVU915
 8736 01dc 00       		.uleb128 0
 8737              	.LLST69:
 8738 01dd 00000000 		.4byte	.LVL230
 8739 01e1 26000000 		.4byte	.LVL232
 8740 01e5 0100     		.2byte	0x1
 8741 01e7 50       		.byte	0x50
 8742 01e8 26000000 		.4byte	.LVL232
 8743 01ec DA000000 		.4byte	.LVL253
 8744 01f0 0100     		.2byte	0x1
 8745 01f2 54       		.byte	0x54
 8746 01f3 DA000000 		.4byte	.LVL253
 8747 01f7 EA000000 		.4byte	.LVL254
 8748 01fb 0400     		.2byte	0x4
 8749 01fd F3       		.byte	0xf3
 8750 01fe 01       		.uleb128 0x1
 8751 01ff 50       		.byte	0x50
 8752 0200 9F       		.byte	0x9f
 8753 0201 EA000000 		.4byte	.LVL254
 8754 0205 F3000000 		.4byte	.LVL257-1
 8755 0209 0100     		.2byte	0x1
 8756 020b 50       		.byte	0x50
 8757 020c F3000000 		.4byte	.LVL257-1
 8758 0210 F6000000 		.4byte	.LVL258
 8759 0214 0400     		.2byte	0x4
 8760 0216 F3       		.byte	0xf3
 8761 0217 01       		.uleb128 0x1
 8762 0218 50       		.byte	0x50
 8763 0219 9F       		.byte	0x9f
 8764 021a F6000000 		.4byte	.LVL258
 8765 021e 09010000 		.4byte	.LVL261-1
 8766 0222 0100     		.2byte	0x1
 8767 0224 50       		.byte	0x50
 8768 0225 09010000 		.4byte	.LVL261-1
 8769 0229 0C010000 		.4byte	.LVL262
 8770 022d 0400     		.2byte	0x4
 8771 022f F3       		.byte	0xf3
 8772 0230 01       		.uleb128 0x1
 8773 0231 50       		.byte	0x50
 8774 0232 9F       		.byte	0x9f
 8775 0233 0C010000 		.4byte	.LVL262
 8776 0237 AE010000 		.4byte	.LVL285
 8777 023b 0100     		.2byte	0x1
 8778 023d 54       		.byte	0x54
ARM GAS  /tmp/cclXoGh5.s 			page 155


 8779 023e AE010000 		.4byte	.LVL285
 8780 0242 BE010000 		.4byte	.LVL286
 8781 0246 0300     		.2byte	0x3
 8782 0248 71       		.byte	0x71
 8783 0249 60       		.sleb128 -32
 8784 024a 9F       		.byte	0x9f
 8785 024b BE010000 		.4byte	.LVL286
 8786 024f 52020000 		.4byte	.LVL312
 8787 0253 0100     		.2byte	0x1
 8788 0255 54       		.byte	0x54
 8789 0256 52020000 		.4byte	.LVL312
 8790 025a 64020000 		.4byte	.LFE16
 8791 025e 0400     		.2byte	0x4
 8792 0260 F3       		.byte	0xf3
 8793 0261 01       		.uleb128 0x1
 8794 0262 50       		.byte	0x50
 8795 0263 9F       		.byte	0x9f
 8796 0264 00000000 		.4byte	0
 8797 0268 00000000 		.4byte	0
 8798              	.LVUS70:
 8799 026c 00       		.uleb128 0
 8800 026d 00       		.uleb128 .LVU698
 8801 026e 00       		.uleb128 .LVU698
 8802 026f 00       		.uleb128 .LVU767
 8803 0270 00       		.uleb128 .LVU767
 8804 0271 00       		.uleb128 .LVU771
 8805 0272 00       		.uleb128 .LVU771
 8806 0273 00       		.uleb128 .LVU774
 8807 0274 00       		.uleb128 .LVU774
 8808 0275 00       		.uleb128 .LVU778
 8809 0276 00       		.uleb128 .LVU778
 8810 0277 00       		.uleb128 0
 8811              	.LLST70:
 8812 0278 00000000 		.4byte	.LVL230
 8813 027c 30000000 		.4byte	.LVL233
 8814 0280 0100     		.2byte	0x1
 8815 0282 51       		.byte	0x51
 8816 0283 30000000 		.4byte	.LVL233
 8817 0287 EA000000 		.4byte	.LVL254
 8818 028b 0400     		.2byte	0x4
 8819 028d F3       		.byte	0xf3
 8820 028e 01       		.uleb128 0x1
 8821 028f 51       		.byte	0x51
 8822 0290 9F       		.byte	0x9f
 8823 0291 EA000000 		.4byte	.LVL254
 8824 0295 F0000000 		.4byte	.LVL256
 8825 0299 0100     		.2byte	0x1
 8826 029b 51       		.byte	0x51
 8827 029c F0000000 		.4byte	.LVL256
 8828 02a0 F6000000 		.4byte	.LVL258
 8829 02a4 0400     		.2byte	0x4
 8830 02a6 F3       		.byte	0xf3
 8831 02a7 01       		.uleb128 0x1
 8832 02a8 51       		.byte	0x51
 8833 02a9 9F       		.byte	0x9f
 8834 02aa F6000000 		.4byte	.LVL258
 8835 02ae 02010000 		.4byte	.LVL260
ARM GAS  /tmp/cclXoGh5.s 			page 156


 8836 02b2 0100     		.2byte	0x1
 8837 02b4 51       		.byte	0x51
 8838 02b5 02010000 		.4byte	.LVL260
 8839 02b9 64020000 		.4byte	.LFE16
 8840 02bd 0400     		.2byte	0x4
 8841 02bf F3       		.byte	0xf3
 8842 02c0 01       		.uleb128 0x1
 8843 02c1 51       		.byte	0x51
 8844 02c2 9F       		.byte	0x9f
 8845 02c3 00000000 		.4byte	0
 8846 02c7 00000000 		.4byte	0
 8847              	.LVUS71:
 8848 02cb 00       		.uleb128 0
 8849 02cc 00       		.uleb128 .LVU685
 8850 02cd 00       		.uleb128 .LVU685
 8851 02ce 00       		.uleb128 .LVU700
 8852 02cf 00       		.uleb128 .LVU700
 8853 02d0 00       		.uleb128 .LVU713
 8854 02d1 00       		.uleb128 .LVU713
 8855 02d2 00       		.uleb128 .LVU765
 8856 02d3 00       		.uleb128 .LVU767
 8857 02d4 00       		.uleb128 .LVU771
 8858 02d5 00       		.uleb128 .LVU774
 8859 02d6 00       		.uleb128 .LVU781
 8860 02d7 00       		.uleb128 .LVU781
 8861 02d8 00       		.uleb128 .LVU794
 8862 02d9 00       		.uleb128 .LVU794
 8863 02da 00       		.uleb128 .LVU803
 8864 02db 00       		.uleb128 .LVU803
 8865 02dc 00       		.uleb128 .LVU810
 8866 02dd 00       		.uleb128 .LVU810
 8867 02de 00       		.uleb128 .LVU819
 8868 02df 00       		.uleb128 .LVU819
 8869 02e0 00       		.uleb128 .LVU824
 8870 02e1 00       		.uleb128 .LVU824
 8871 02e2 00       		.uleb128 .LVU826
 8872 02e3 00       		.uleb128 .LVU826
 8873 02e4 00       		.uleb128 .LVU827
 8874 02e5 00       		.uleb128 .LVU827
 8875 02e6 00       		.uleb128 .LVU836
 8876 02e7 00       		.uleb128 .LVU836
 8877 02e8 00       		.uleb128 .LVU857
 8878 02e9 00       		.uleb128 .LVU857
 8879 02ea 00       		.uleb128 .LVU859
 8880 02eb 00       		.uleb128 .LVU859
 8881 02ec 00       		.uleb128 .LVU860
 8882 02ed 00       		.uleb128 .LVU860
 8883 02ee 00       		.uleb128 .LVU872
 8884 02ef 00       		.uleb128 .LVU872
 8885 02f0 00       		.uleb128 .LVU879
 8886 02f1 00       		.uleb128 .LVU879
 8887 02f2 00       		.uleb128 .LVU887
 8888 02f3 00       		.uleb128 .LVU887
 8889 02f4 00       		.uleb128 .LVU888
 8890 02f5 00       		.uleb128 .LVU888
 8891 02f6 00       		.uleb128 .LVU898
 8892 02f7 00       		.uleb128 .LVU898
ARM GAS  /tmp/cclXoGh5.s 			page 157


 8893 02f8 00       		.uleb128 .LVU903
 8894 02f9 00       		.uleb128 .LVU903
 8895 02fa 00       		.uleb128 .LVU905
 8896 02fb 00       		.uleb128 .LVU905
 8897 02fc 00       		.uleb128 .LVU906
 8898 02fd 00       		.uleb128 .LVU906
 8899 02fe 00       		.uleb128 .LVU910
 8900 02ff 00       		.uleb128 .LVU910
 8901 0300 00       		.uleb128 .LVU914
 8902 0301 00       		.uleb128 .LVU914
 8903 0302 00       		.uleb128 .LVU915
 8904              	.LLST71:
 8905 0303 00000000 		.4byte	.LVL230
 8906 0307 06000000 		.4byte	.LVL231
 8907 030b 0100     		.2byte	0x1
 8908 030d 52       		.byte	0x52
 8909 030e 06000000 		.4byte	.LVL231
 8910 0312 34000000 		.4byte	.LVL234
 8911 0316 0100     		.2byte	0x1
 8912 0318 55       		.byte	0x55
 8913 0319 34000000 		.4byte	.LVL234
 8914 031d 72000000 		.4byte	.LVL239
 8915 0321 0100     		.2byte	0x1
 8916 0323 52       		.byte	0x52
 8917 0324 72000000 		.4byte	.LVL239
 8918 0328 DA000000 		.4byte	.LVL253
 8919 032c 0600     		.2byte	0x6
 8920 032e F3       		.byte	0xf3
 8921 032f 01       		.uleb128 0x1
 8922 0330 52       		.byte	0x52
 8923 0331 23       		.byte	0x23
 8924 0332 02       		.uleb128 0x2
 8925 0333 9F       		.byte	0x9f
 8926 0334 EA000000 		.4byte	.LVL254
 8927 0338 F0000000 		.4byte	.LVL256
 8928 033c 0100     		.2byte	0x1
 8929 033e 55       		.byte	0x55
 8930 033f F6000000 		.4byte	.LVL258
 8931 0343 0C010000 		.4byte	.LVL262
 8932 0347 0100     		.2byte	0x1
 8933 0349 55       		.byte	0x55
 8934 034a 0C010000 		.4byte	.LVL262
 8935 034e 16010000 		.4byte	.LVL266
 8936 0352 0100     		.2byte	0x1
 8937 0354 52       		.byte	0x52
 8938 0355 16010000 		.4byte	.LVL266
 8939 0359 2A010000 		.4byte	.LVL268
 8940 035d 0300     		.2byte	0x3
 8941 035f 75       		.byte	0x75
 8942 0360 02       		.sleb128 2
 8943 0361 9F       		.byte	0x9f
 8944 0362 2A010000 		.4byte	.LVL268
 8945 0366 40010000 		.4byte	.LVL271
 8946 036a 0600     		.2byte	0x6
 8947 036c F3       		.byte	0xf3
 8948 036d 01       		.uleb128 0x1
 8949 036e 52       		.byte	0x52
ARM GAS  /tmp/cclXoGh5.s 			page 158


 8950 036f 23       		.byte	0x23
 8951 0370 02       		.uleb128 0x2
 8952 0371 9F       		.byte	0x9f
 8953 0372 40010000 		.4byte	.LVL271
 8954 0376 54010000 		.4byte	.LVL274
 8955 037a 0100     		.2byte	0x1
 8956 037c 52       		.byte	0x52
 8957 037d 54010000 		.4byte	.LVL274
 8958 0381 68010000 		.4byte	.LVL275
 8959 0385 0600     		.2byte	0x6
 8960 0387 F3       		.byte	0xf3
 8961 0388 01       		.uleb128 0x1
 8962 0389 52       		.byte	0x52
 8963 038a 23       		.byte	0x23
 8964 038b 02       		.uleb128 0x2
 8965 038c 9F       		.byte	0x9f
 8966 038d 68010000 		.4byte	.LVL275
 8967 0391 6D010000 		.4byte	.LVL276-1
 8968 0395 0100     		.2byte	0x1
 8969 0397 52       		.byte	0x52
 8970 0398 6D010000 		.4byte	.LVL276-1
 8971 039c 70010000 		.4byte	.LVL277
 8972 03a0 0300     		.2byte	0x3
 8973 03a2 75       		.byte	0x75
 8974 03a3 02       		.sleb128 2
 8975 03a4 9F       		.byte	0x9f
 8976 03a5 70010000 		.4byte	.LVL277
 8977 03a9 80010000 		.4byte	.LVL280
 8978 03ad 0100     		.2byte	0x1
 8979 03af 52       		.byte	0x52
 8980 03b0 80010000 		.4byte	.LVL280
 8981 03b4 BE010000 		.4byte	.LVL286
 8982 03b8 0600     		.2byte	0x6
 8983 03ba F3       		.byte	0xf3
 8984 03bb 01       		.uleb128 0x1
 8985 03bc 52       		.byte	0x52
 8986 03bd 23       		.byte	0x23
 8987 03be 02       		.uleb128 0x2
 8988 03bf 9F       		.byte	0x9f
 8989 03c0 BE010000 		.4byte	.LVL286
 8990 03c4 C3010000 		.4byte	.LVL287-1
 8991 03c8 0100     		.2byte	0x1
 8992 03ca 52       		.byte	0x52
 8993 03cb C3010000 		.4byte	.LVL287-1
 8994 03cf C6010000 		.4byte	.LVL288
 8995 03d3 0300     		.2byte	0x3
 8996 03d5 75       		.byte	0x75
 8997 03d6 02       		.sleb128 2
 8998 03d7 9F       		.byte	0x9f
 8999 03d8 C6010000 		.4byte	.LVL288
 9000 03dc DA010000 		.4byte	.LVL291
 9001 03e0 0100     		.2byte	0x1
 9002 03e2 52       		.byte	0x52
 9003 03e3 DA010000 		.4byte	.LVL291
 9004 03e7 F8010000 		.4byte	.LVL294
 9005 03eb 0600     		.2byte	0x6
 9006 03ed F3       		.byte	0xf3
ARM GAS  /tmp/cclXoGh5.s 			page 159


 9007 03ee 01       		.uleb128 0x1
 9008 03ef 52       		.byte	0x52
 9009 03f0 23       		.byte	0x23
 9010 03f1 02       		.uleb128 0x2
 9011 03f2 9F       		.byte	0x9f
 9012 03f3 F8010000 		.4byte	.LVL294
 9013 03f7 15020000 		.4byte	.LVL298-1
 9014 03fb 0100     		.2byte	0x1
 9015 03fd 52       		.byte	0x52
 9016 03fe 15020000 		.4byte	.LVL298-1
 9017 0402 18020000 		.4byte	.LVL299
 9018 0406 0300     		.2byte	0x3
 9019 0408 75       		.byte	0x75
 9020 0409 02       		.sleb128 2
 9021 040a 9F       		.byte	0x9f
 9022 040b 18020000 		.4byte	.LVL299
 9023 040f 28020000 		.4byte	.LVL302
 9024 0413 0100     		.2byte	0x1
 9025 0415 52       		.byte	0x52
 9026 0416 28020000 		.4byte	.LVL302
 9027 041a 36020000 		.4byte	.LVL304
 9028 041e 0600     		.2byte	0x6
 9029 0420 F3       		.byte	0xf3
 9030 0421 01       		.uleb128 0x1
 9031 0422 52       		.byte	0x52
 9032 0423 23       		.byte	0x23
 9033 0424 02       		.uleb128 0x2
 9034 0425 9F       		.byte	0x9f
 9035 0426 36020000 		.4byte	.LVL304
 9036 042a 3B020000 		.4byte	.LVL305-1
 9037 042e 0100     		.2byte	0x1
 9038 0430 52       		.byte	0x52
 9039 0431 3B020000 		.4byte	.LVL305-1
 9040 0435 3E020000 		.4byte	.LVL306
 9041 0439 0300     		.2byte	0x3
 9042 043b 75       		.byte	0x75
 9043 043c 02       		.sleb128 2
 9044 043d 9F       		.byte	0x9f
 9045 043e 3E020000 		.4byte	.LVL306
 9046 0442 44020000 		.4byte	.LVL308
 9047 0446 0100     		.2byte	0x1
 9048 0448 52       		.byte	0x52
 9049 0449 44020000 		.4byte	.LVL308
 9050 044d 50020000 		.4byte	.LVL311
 9051 0451 0300     		.2byte	0x3
 9052 0453 75       		.byte	0x75
 9053 0454 02       		.sleb128 2
 9054 0455 9F       		.byte	0x9f
 9055 0456 50020000 		.4byte	.LVL311
 9056 045a 52020000 		.4byte	.LVL312
 9057 045e 0600     		.2byte	0x6
 9058 0460 F3       		.byte	0xf3
 9059 0461 01       		.uleb128 0x1
 9060 0462 52       		.byte	0x52
 9061 0463 23       		.byte	0x23
 9062 0464 02       		.uleb128 0x2
 9063 0465 9F       		.byte	0x9f
ARM GAS  /tmp/cclXoGh5.s 			page 160


 9064 0466 00000000 		.4byte	0
 9065 046a 00000000 		.4byte	0
 9066              	.LVUS72:
 9067 046e 00       		.uleb128 0
 9068 046f 01       		.uleb128 .LVU701
 9069 0470 01       		.uleb128 .LVU701
 9070 0471 00       		.uleb128 .LVU710
 9071 0472 00       		.uleb128 .LVU710
 9072 0473 00       		.uleb128 .LVU765
 9073 0474 00       		.uleb128 .LVU767
 9074 0475 00       		.uleb128 .LVU770
 9075 0476 00       		.uleb128 .LVU770
 9076 0477 00       		.uleb128 .LVU771
 9077 0478 00       		.uleb128 .LVU774
 9078 0479 00       		.uleb128 .LVU777
 9079 047a 00       		.uleb128 .LVU777
 9080 047b 00       		.uleb128 .LVU781
 9081 047c 00       		.uleb128 .LVU781
 9082 047d 00       		.uleb128 .LVU786
 9083 047e 00       		.uleb128 .LVU786
 9084 047f 00       		.uleb128 .LVU788
 9085 0480 00       		.uleb128 .LVU788
 9086 0481 00       		.uleb128 .LVU792
 9087 0482 00       		.uleb128 .LVU792
 9088 0483 00       		.uleb128 .LVU810
 9089 0484 00       		.uleb128 .LVU810
 9090 0485 00       		.uleb128 .LVU818
 9091 0486 00       		.uleb128 .LVU818
 9092 0487 00       		.uleb128 .LVU824
 9093 0488 00       		.uleb128 .LVU824
 9094 0489 00       		.uleb128 .LVU826
 9095 048a 00       		.uleb128 .LVU826
 9096 048b 00       		.uleb128 .LVU827
 9097 048c 00       		.uleb128 .LVU827
 9098 048d 00       		.uleb128 .LVU835
 9099 048e 00       		.uleb128 .LVU835
 9100 048f 00       		.uleb128 .LVU857
 9101 0490 00       		.uleb128 .LVU857
 9102 0491 00       		.uleb128 .LVU859
 9103 0492 00       		.uleb128 .LVU859
 9104 0493 00       		.uleb128 .LVU860
 9105 0494 00       		.uleb128 .LVU860
 9106 0495 00       		.uleb128 .LVU862
 9107 0496 00       		.uleb128 .LVU862
 9108 0497 00       		.uleb128 .LVU879
 9109 0498 00       		.uleb128 .LVU879
 9110 0499 00       		.uleb128 .LVU881
 9111 049a 00       		.uleb128 .LVU881
 9112 049b 00       		.uleb128 .LVU883
 9113 049c 00       		.uleb128 .LVU883
 9114 049d 00       		.uleb128 .LVU885
 9115 049e 00       		.uleb128 .LVU885
 9116 049f 00       		.uleb128 .LVU888
 9117 04a0 00       		.uleb128 .LVU888
 9118 04a1 00       		.uleb128 .LVU890
 9119 04a2 00       		.uleb128 .LVU890
 9120 04a3 00       		.uleb128 .LVU903
ARM GAS  /tmp/cclXoGh5.s 			page 161


 9121 04a4 00       		.uleb128 .LVU903
 9122 04a5 00       		.uleb128 .LVU905
 9123 04a6 00       		.uleb128 .LVU905
 9124 04a7 00       		.uleb128 .LVU906
 9125 04a8 00       		.uleb128 .LVU906
 9126 04a9 00       		.uleb128 .LVU911
 9127 04aa 00       		.uleb128 .LVU911
 9128 04ab 00       		.uleb128 .LVU915
 9129              	.LLST72:
 9130 04ac 00000000 		.4byte	.LVL230
 9131 04b0 34000000 		.4byte	.LVL234
 9132 04b4 0100     		.2byte	0x1
 9133 04b6 53       		.byte	0x53
 9134 04b7 34000000 		.4byte	.LVL234
 9135 04bb 64000000 		.4byte	.LVL236
 9136 04bf 0300     		.2byte	0x3
 9137 04c1 73       		.byte	0x73
 9138 04c2 7F       		.sleb128 -1
 9139 04c3 9F       		.byte	0x9f
 9140 04c4 64000000 		.4byte	.LVL236
 9141 04c8 DA000000 		.4byte	.LVL253
 9142 04cc 0600     		.2byte	0x6
 9143 04ce F3       		.byte	0xf3
 9144 04cf 01       		.uleb128 0x1
 9145 04d0 53       		.byte	0x53
 9146 04d1 31       		.byte	0x31
 9147 04d2 1C       		.byte	0x1c
 9148 04d3 9F       		.byte	0x9f
 9149 04d4 EA000000 		.4byte	.LVL254
 9150 04d8 EC000000 		.4byte	.LVL255
 9151 04dc 0100     		.2byte	0x1
 9152 04de 53       		.byte	0x53
 9153 04df EC000000 		.4byte	.LVL255
 9154 04e3 F0000000 		.4byte	.LVL256
 9155 04e7 0400     		.2byte	0x4
 9156 04e9 F3       		.byte	0xf3
 9157 04ea 01       		.uleb128 0x1
 9158 04eb 53       		.byte	0x53
 9159 04ec 9F       		.byte	0x9f
 9160 04ed F6000000 		.4byte	.LVL258
 9161 04f1 FA000000 		.4byte	.LVL259
 9162 04f5 0100     		.2byte	0x1
 9163 04f7 53       		.byte	0x53
 9164 04f8 FA000000 		.4byte	.LVL259
 9165 04fc 0C010000 		.4byte	.LVL262
 9166 0500 0400     		.2byte	0x4
 9167 0502 F3       		.byte	0xf3
 9168 0503 01       		.uleb128 0x1
 9169 0504 53       		.byte	0x53
 9170 0505 9F       		.byte	0x9f
 9171 0506 0C010000 		.4byte	.LVL262
 9172 050a 0E010000 		.4byte	.LVL263
 9173 050e 0300     		.2byte	0x3
 9174 0510 73       		.byte	0x73
 9175 0511 7F       		.sleb128 -1
 9176 0512 9F       		.byte	0x9f
 9177 0513 0E010000 		.4byte	.LVL263
ARM GAS  /tmp/cclXoGh5.s 			page 162


 9178 0517 12010000 		.4byte	.LVL264
 9179 051b 0600     		.2byte	0x6
 9180 051d F3       		.byte	0xf3
 9181 051e 01       		.uleb128 0x1
 9182 051f 53       		.byte	0x53
 9183 0520 31       		.byte	0x31
 9184 0521 1C       		.byte	0x1c
 9185 0522 9F       		.byte	0x9f
 9186 0523 12010000 		.4byte	.LVL264
 9187 0527 14010000 		.4byte	.LVL265
 9188 052b 0300     		.2byte	0x3
 9189 052d 73       		.byte	0x73
 9190 052e 7F       		.sleb128 -1
 9191 052f 9F       		.byte	0x9f
 9192 0530 14010000 		.4byte	.LVL265
 9193 0534 40010000 		.4byte	.LVL271
 9194 0538 0600     		.2byte	0x6
 9195 053a F3       		.byte	0xf3
 9196 053b 01       		.uleb128 0x1
 9197 053c 53       		.byte	0x53
 9198 053d 31       		.byte	0x31
 9199 053e 1C       		.byte	0x1c
 9200 053f 9F       		.byte	0x9f
 9201 0540 40010000 		.4byte	.LVL271
 9202 0544 48010000 		.4byte	.LVL273
 9203 0548 0300     		.2byte	0x3
 9204 054a 73       		.byte	0x73
 9205 054b 7F       		.sleb128 -1
 9206 054c 9F       		.byte	0x9f
 9207 054d 48010000 		.4byte	.LVL273
 9208 0551 68010000 		.4byte	.LVL275
 9209 0555 0600     		.2byte	0x6
 9210 0557 F3       		.byte	0xf3
 9211 0558 01       		.uleb128 0x1
 9212 0559 53       		.byte	0x53
 9213 055a 31       		.byte	0x31
 9214 055b 1C       		.byte	0x1c
 9215 055c 9F       		.byte	0x9f
 9216 055d 68010000 		.4byte	.LVL275
 9217 0561 6D010000 		.4byte	.LVL276-1
 9218 0565 0300     		.2byte	0x3
 9219 0567 73       		.byte	0x73
 9220 0568 7F       		.sleb128 -1
 9221 0569 9F       		.byte	0x9f
 9222 056a 6D010000 		.4byte	.LVL276-1
 9223 056e 70010000 		.4byte	.LVL277
 9224 0572 0600     		.2byte	0x6
 9225 0574 F3       		.byte	0xf3
 9226 0575 01       		.uleb128 0x1
 9227 0576 53       		.byte	0x53
 9228 0577 31       		.byte	0x31
 9229 0578 1C       		.byte	0x1c
 9230 0579 9F       		.byte	0x9f
 9231 057a 70010000 		.4byte	.LVL277
 9232 057e 7A010000 		.4byte	.LVL279
 9233 0582 0300     		.2byte	0x3
 9234 0584 73       		.byte	0x73
ARM GAS  /tmp/cclXoGh5.s 			page 163


 9235 0585 7F       		.sleb128 -1
 9236 0586 9F       		.byte	0x9f
 9237 0587 7A010000 		.4byte	.LVL279
 9238 058b BE010000 		.4byte	.LVL286
 9239 058f 0600     		.2byte	0x6
 9240 0591 F3       		.byte	0xf3
 9241 0592 01       		.uleb128 0x1
 9242 0593 53       		.byte	0x53
 9243 0594 31       		.byte	0x31
 9244 0595 1C       		.byte	0x1c
 9245 0596 9F       		.byte	0x9f
 9246 0597 BE010000 		.4byte	.LVL286
 9247 059b C3010000 		.4byte	.LVL287-1
 9248 059f 0300     		.2byte	0x3
 9249 05a1 73       		.byte	0x73
 9250 05a2 7F       		.sleb128 -1
 9251 05a3 9F       		.byte	0x9f
 9252 05a4 C3010000 		.4byte	.LVL287-1
 9253 05a8 C6010000 		.4byte	.LVL288
 9254 05ac 0600     		.2byte	0x6
 9255 05ae F3       		.byte	0xf3
 9256 05af 01       		.uleb128 0x1
 9257 05b0 53       		.byte	0x53
 9258 05b1 31       		.byte	0x31
 9259 05b2 1C       		.byte	0x1c
 9260 05b3 9F       		.byte	0x9f
 9261 05b4 C6010000 		.4byte	.LVL288
 9262 05b8 CA010000 		.4byte	.LVL289
 9263 05bc 0300     		.2byte	0x3
 9264 05be 73       		.byte	0x73
 9265 05bf 7F       		.sleb128 -1
 9266 05c0 9F       		.byte	0x9f
 9267 05c1 CA010000 		.4byte	.LVL289
 9268 05c5 F8010000 		.4byte	.LVL294
 9269 05c9 0600     		.2byte	0x6
 9270 05cb F3       		.byte	0xf3
 9271 05cc 01       		.uleb128 0x1
 9272 05cd 53       		.byte	0x53
 9273 05ce 31       		.byte	0x31
 9274 05cf 1C       		.byte	0x1c
 9275 05d0 9F       		.byte	0x9f
 9276 05d1 F8010000 		.4byte	.LVL294
 9277 05d5 FC010000 		.4byte	.LVL295
 9278 05d9 0300     		.2byte	0x3
 9279 05db 73       		.byte	0x73
 9280 05dc 7F       		.sleb128 -1
 9281 05dd 9F       		.byte	0x9f
 9282 05de FC010000 		.4byte	.LVL295
 9283 05e2 08020000 		.4byte	.LVL296
 9284 05e6 0600     		.2byte	0x6
 9285 05e8 F3       		.byte	0xf3
 9286 05e9 01       		.uleb128 0x1
 9287 05ea 53       		.byte	0x53
 9288 05eb 31       		.byte	0x31
 9289 05ec 1C       		.byte	0x1c
 9290 05ed 9F       		.byte	0x9f
 9291 05ee 08020000 		.4byte	.LVL296
ARM GAS  /tmp/cclXoGh5.s 			page 164


 9292 05f2 0A020000 		.4byte	.LVL297
 9293 05f6 0300     		.2byte	0x3
 9294 05f8 73       		.byte	0x73
 9295 05f9 7F       		.sleb128 -1
 9296 05fa 9F       		.byte	0x9f
 9297 05fb 0A020000 		.4byte	.LVL297
 9298 05ff 18020000 		.4byte	.LVL299
 9299 0603 0600     		.2byte	0x6
 9300 0605 F3       		.byte	0xf3
 9301 0606 01       		.uleb128 0x1
 9302 0607 53       		.byte	0x53
 9303 0608 31       		.byte	0x31
 9304 0609 1C       		.byte	0x1c
 9305 060a 9F       		.byte	0x9f
 9306 060b 18020000 		.4byte	.LVL299
 9307 060f 1A020000 		.4byte	.LVL300
 9308 0613 0300     		.2byte	0x3
 9309 0615 73       		.byte	0x73
 9310 0616 7F       		.sleb128 -1
 9311 0617 9F       		.byte	0x9f
 9312 0618 1A020000 		.4byte	.LVL300
 9313 061c 36020000 		.4byte	.LVL304
 9314 0620 0600     		.2byte	0x6
 9315 0622 F3       		.byte	0xf3
 9316 0623 01       		.uleb128 0x1
 9317 0624 53       		.byte	0x53
 9318 0625 31       		.byte	0x31
 9319 0626 1C       		.byte	0x1c
 9320 0627 9F       		.byte	0x9f
 9321 0628 36020000 		.4byte	.LVL304
 9322 062c 3B020000 		.4byte	.LVL305-1
 9323 0630 0300     		.2byte	0x3
 9324 0632 73       		.byte	0x73
 9325 0633 7F       		.sleb128 -1
 9326 0634 9F       		.byte	0x9f
 9327 0635 3B020000 		.4byte	.LVL305-1
 9328 0639 3E020000 		.4byte	.LVL306
 9329 063d 0600     		.2byte	0x6
 9330 063f F3       		.byte	0xf3
 9331 0640 01       		.uleb128 0x1
 9332 0641 53       		.byte	0x53
 9333 0642 31       		.byte	0x31
 9334 0643 1C       		.byte	0x1c
 9335 0644 9F       		.byte	0x9f
 9336 0645 3E020000 		.4byte	.LVL306
 9337 0649 4B020000 		.4byte	.LVL309-1
 9338 064d 0300     		.2byte	0x3
 9339 064f 73       		.byte	0x73
 9340 0650 7F       		.sleb128 -1
 9341 0651 9F       		.byte	0x9f
 9342 0652 4B020000 		.4byte	.LVL309-1
 9343 0656 52020000 		.4byte	.LVL312
 9344 065a 0600     		.2byte	0x6
 9345 065c F3       		.byte	0xf3
 9346 065d 01       		.uleb128 0x1
 9347 065e 53       		.byte	0x53
 9348 065f 31       		.byte	0x31
ARM GAS  /tmp/cclXoGh5.s 			page 165


 9349 0660 1C       		.byte	0x1c
 9350 0661 9F       		.byte	0x9f
 9351 0662 00000000 		.4byte	0
 9352 0666 00000000 		.4byte	0
 9353              	.LVUS82:
 9354 066a 01       		.uleb128 .LVU768
 9355 066b 00       		.uleb128 .LVU771
 9356              	.LLST82:
 9357 066c EA000000 		.4byte	.LVL254
 9358 0670 F0000000 		.4byte	.LVL256
 9359 0674 0200     		.2byte	0x2
 9360 0676 75       		.byte	0x75
 9361 0677 00       		.sleb128 0
 9362 0678 00000000 		.4byte	0
 9363 067c 00000000 		.4byte	0
 9364              	.LVUS73:
 9365 0680 00       		.uleb128 .LVU705
 9366 0681 00       		.uleb128 .LVU711
 9367 0682 00       		.uleb128 .LVU711
 9368 0683 00       		.uleb128 .LVU712
 9369 0684 00       		.uleb128 .LVU712
 9370 0685 00       		.uleb128 .LVU713
 9371              	.LLST73:
 9372 0686 60000000 		.4byte	.LVL235
 9373 068a 68000000 		.4byte	.LVL237
 9374 068e 0100     		.2byte	0x1
 9375 0690 51       		.byte	0x51
 9376 0691 68000000 		.4byte	.LVL237
 9377 0695 6C000000 		.4byte	.LVL238
 9378 0699 0200     		.2byte	0x2
 9379 069b 75       		.byte	0x75
 9380 069c 02       		.sleb128 2
 9381 069d 6C000000 		.4byte	.LVL238
 9382 06a1 72000000 		.4byte	.LVL239
 9383 06a5 0200     		.2byte	0x2
 9384 06a7 72       		.byte	0x72
 9385 06a8 00       		.sleb128 0
 9386 06a9 00000000 		.4byte	0
 9387 06ad 00000000 		.4byte	0
 9388              	.LVUS74:
 9389 06b1 01       		.uleb128 .LVU706
 9390 06b2 00       		.uleb128 .LVU710
 9391 06b3 00       		.uleb128 .LVU710
 9392 06b4 00       		.uleb128 .LVU722
 9393              	.LLST74:
 9394 06b5 60000000 		.4byte	.LVL235
 9395 06b9 64000000 		.4byte	.LVL236
 9396 06bd 0300     		.2byte	0x3
 9397 06bf 73       		.byte	0x73
 9398 06c0 7E       		.sleb128 -2
 9399 06c1 9F       		.byte	0x9f
 9400 06c2 64000000 		.4byte	.LVL236
 9401 06c6 80000000 		.4byte	.LVL240
 9402 06ca 0600     		.2byte	0x6
 9403 06cc F3       		.byte	0xf3
 9404 06cd 01       		.uleb128 0x1
 9405 06ce 53       		.byte	0x53
ARM GAS  /tmp/cclXoGh5.s 			page 166


 9406 06cf 32       		.byte	0x32
 9407 06d0 1C       		.byte	0x1c
 9408 06d1 9F       		.byte	0x9f
 9409 06d2 00000000 		.4byte	0
 9410 06d6 00000000 		.4byte	0
 9411              	.LVUS75:
 9412 06da 03       		.uleb128 .LVU708
 9413 06db 00       		.uleb128 .LVU713
 9414              	.LLST75:
 9415 06dc 60000000 		.4byte	.LVL235
 9416 06e0 72000000 		.4byte	.LVL239
 9417 06e4 0200     		.2byte	0x2
 9418 06e6 30       		.byte	0x30
 9419 06e7 9F       		.byte	0x9f
 9420 06e8 00000000 		.4byte	0
 9421 06ec 00000000 		.4byte	0
 9422              	.LVUS84:
 9423 06f0 01       		.uleb128 .LVU796
 9424 06f1 01       		.uleb128 .LVU805
 9425 06f2 00       		.uleb128 .LVU913
 9426 06f3 00       		.uleb128 .LVU915
 9427              	.LLST84:
 9428 06f4 1A010000 		.4byte	.LVL267
 9429 06f8 2C010000 		.4byte	.LVL269
 9430 06fc 0100     		.2byte	0x1
 9431 06fe 52       		.byte	0x52
 9432 06ff 4E020000 		.4byte	.LVL310
 9433 0703 52020000 		.4byte	.LVL312
 9434 0707 0100     		.2byte	0x1
 9435 0709 52       		.byte	0x52
 9436 070a 00000000 		.4byte	0
 9437 070e 00000000 		.4byte	0
 9438              	.LVUS85:
 9439 0712 01       		.uleb128 .LVU796
 9440 0713 01       		.uleb128 .LVU805
 9441 0714 00       		.uleb128 .LVU913
 9442 0715 00       		.uleb128 .LVU915
 9443              	.LLST85:
 9444 0716 1A010000 		.4byte	.LVL267
 9445 071a 2C010000 		.4byte	.LVL269
 9446 071e 0100     		.2byte	0x1
 9447 0720 54       		.byte	0x54
 9448 0721 4E020000 		.4byte	.LVL310
 9449 0725 52020000 		.4byte	.LVL312
 9450 0729 0100     		.2byte	0x1
 9451 072b 54       		.byte	0x54
 9452 072c 00000000 		.4byte	0
 9453 0730 00000000 		.4byte	0
 9454              	.LVUS95:
 9455 0734 01       		.uleb128 .LVU908
 9456 0735 00       		.uleb128 .LVU911
 9457              	.LLST95:
 9458 0736 42020000 		.4byte	.LVL307
 9459 073a 4B020000 		.4byte	.LVL309-1
 9460 073e 0200     		.2byte	0x2
 9461 0740 75       		.byte	0x75
 9462 0741 02       		.sleb128 2
ARM GAS  /tmp/cclXoGh5.s 			page 167


 9463 0742 00000000 		.4byte	0
 9464 0746 00000000 		.4byte	0
 9465              	.LVUS96:
 9466 074a 02       		.uleb128 .LVU909
 9467 074b 00       		.uleb128 .LVU911
 9468              	.LLST96:
 9469 074c 42020000 		.4byte	.LVL307
 9470 0750 4B020000 		.4byte	.LVL309-1
 9471 0754 0200     		.2byte	0x2
 9472 0756 75       		.byte	0x75
 9473 0757 04       		.sleb128 4
 9474 0758 00000000 		.4byte	0
 9475 075c 00000000 		.4byte	0
 9476              	.LVUS86:
 9477 0760 00       		.uleb128 .LVU813
 9478 0761 00       		.uleb128 .LVU819
 9479              	.LLST86:
 9480 0762 44010000 		.4byte	.LVL272
 9481 0766 54010000 		.4byte	.LVL274
 9482 076a 0100     		.2byte	0x1
 9483 076c 51       		.byte	0x51
 9484 076d 00000000 		.4byte	0
 9485 0771 00000000 		.4byte	0
 9486              	.LVUS87:
 9487 0775 01       		.uleb128 .LVU814
 9488 0776 00       		.uleb128 .LVU818
 9489 0777 00       		.uleb128 .LVU818
 9490 0778 00       		.uleb128 .LVU824
 9491              	.LLST87:
 9492 0779 44010000 		.4byte	.LVL272
 9493 077d 48010000 		.4byte	.LVL273
 9494 0781 0300     		.2byte	0x3
 9495 0783 73       		.byte	0x73
 9496 0784 7E       		.sleb128 -2
 9497 0785 9F       		.byte	0x9f
 9498 0786 48010000 		.4byte	.LVL273
 9499 078a 68010000 		.4byte	.LVL275
 9500 078e 0600     		.2byte	0x6
 9501 0790 F3       		.byte	0xf3
 9502 0791 01       		.uleb128 0x1
 9503 0792 53       		.byte	0x53
 9504 0793 32       		.byte	0x32
 9505 0794 1C       		.byte	0x1c
 9506 0795 9F       		.byte	0x9f
 9507 0796 00000000 		.4byte	0
 9508 079a 00000000 		.4byte	0
 9509              	.LVUS88:
 9510 079e 03       		.uleb128 .LVU816
 9511 079f 00       		.uleb128 .LVU819
 9512              	.LLST88:
 9513 07a0 44010000 		.4byte	.LVL272
 9514 07a4 54010000 		.4byte	.LVL274
 9515 07a8 0200     		.2byte	0x2
 9516 07aa 30       		.byte	0x30
 9517 07ab 9F       		.byte	0x9f
 9518 07ac 00000000 		.4byte	0
 9519 07b0 00000000 		.4byte	0
ARM GAS  /tmp/cclXoGh5.s 			page 168


 9520              	.LVUS76:
 9521 07b4 02       		.uleb128 .LVU728
 9522 07b5 00       		.uleb128 .LVU748
 9523              	.LLST76:
 9524 07b6 86000000 		.4byte	.LVL241
 9525 07ba C0000000 		.4byte	.LVL251
 9526 07be 0100     		.2byte	0x1
 9527 07c0 54       		.byte	0x54
 9528 07c1 00000000 		.4byte	0
 9529 07c5 00000000 		.4byte	0
 9530              	.LVUS78:
 9531 07c9 02       		.uleb128 .LVU728
 9532 07ca 00       		.uleb128 .LVU730
 9533 07cb 00       		.uleb128 .LVU730
 9534 07cc 01       		.uleb128 .LVU739
 9535 07cd 01       		.uleb128 .LVU739
 9536 07ce 00       		.uleb128 .LVU740
 9537 07cf 00       		.uleb128 .LVU740
 9538 07d0 00       		.uleb128 .LVU741
 9539              	.LLST78:
 9540 07d1 86000000 		.4byte	.LVL241
 9541 07d5 8A000000 		.4byte	.LVL242
 9542 07d9 0200     		.2byte	0x2
 9543 07db 30       		.byte	0x30
 9544 07dc 9F       		.byte	0x9f
 9545 07dd 8A000000 		.4byte	.LVL242
 9546 07e1 A2000000 		.4byte	.LVL246
 9547 07e5 0100     		.2byte	0x1
 9548 07e7 53       		.byte	0x53
 9549 07e8 A2000000 		.4byte	.LVL246
 9550 07ec A4000000 		.4byte	.LVL247
 9551 07f0 0300     		.2byte	0x3
 9552 07f2 73       		.byte	0x73
 9553 07f3 01       		.sleb128 1
 9554 07f4 9F       		.byte	0x9f
 9555 07f5 A4000000 		.4byte	.LVL247
 9556 07f9 AA000000 		.4byte	.LVL248
 9557 07fd 0300     		.2byte	0x3
 9558 07ff 70       		.byte	0x70
 9559 0800 01       		.sleb128 1
 9560 0801 9F       		.byte	0x9f
 9561 0802 00000000 		.4byte	0
 9562 0806 00000000 		.4byte	0
 9563              	.LVUS79:
 9564 080a 00       		.uleb128 .LVU733
 9565 080b 00       		.uleb128 .LVU736
 9566 080c 00       		.uleb128 .LVU736
 9567 080d 00       		.uleb128 .LVU737
 9568              	.LLST79:
 9569 080e 92000000 		.4byte	.LVL243
 9570 0812 9C000000 		.4byte	.LVL244
 9571 0816 0100     		.2byte	0x1
 9572 0818 52       		.byte	0x52
 9573 0819 9C000000 		.4byte	.LVL244
 9574 081d A0000000 		.4byte	.LVL245
 9575 0821 0700     		.2byte	0x7
 9576 0823 70       		.byte	0x70
ARM GAS  /tmp/cclXoGh5.s 			page 169


 9577 0824 00       		.sleb128 0
 9578 0825 31       		.byte	0x31
 9579 0826 24       		.byte	0x24
 9580 0827 71       		.byte	0x71
 9581 0828 00       		.sleb128 0
 9582 0829 22       		.byte	0x22
 9583 082a 00000000 		.4byte	0
 9584 082e 00000000 		.4byte	0
 9585              	.LVUS80:
 9586 0832 01       		.uleb128 .LVU749
 9587 0833 01       		.uleb128 .LVU756
 9588              	.LLST80:
 9589 0834 C0000000 		.4byte	.LVL251
 9590 0838 C8000000 		.4byte	.LVL252
 9591 083c 0100     		.2byte	0x1
 9592 083e 54       		.byte	0x54
 9593 083f 00000000 		.4byte	0
 9594 0843 00000000 		.4byte	0
 9595              	.LVUS81:
 9596 0847 03       		.uleb128 .LVU758
 9597 0848 00       		.uleb128 .LVU765
 9598              	.LLST81:
 9599 0849 C8000000 		.4byte	.LVL252
 9600 084d DA000000 		.4byte	.LVL253
 9601 0851 0100     		.2byte	0x1
 9602 0853 54       		.byte	0x54
 9603 0854 00000000 		.4byte	0
 9604 0858 00000000 		.4byte	0
 9605              	.LVUS83:
 9606 085c 02       		.uleb128 .LVU783
 9607 085d 00       		.uleb128 .LVU788
 9608              	.LLST83:
 9609 085e 0C010000 		.4byte	.LVL262
 9610 0862 12010000 		.4byte	.LVL264
 9611 0866 0100     		.2byte	0x1
 9612 0868 54       		.byte	0x54
 9613 0869 00000000 		.4byte	0
 9614 086d 00000000 		.4byte	0
 9615              	.LVUS89:
 9616 0871 00       		.uleb128 .LVU830
 9617 0872 00       		.uleb128 .LVU857
 9618              	.LLST89:
 9619 0873 74010000 		.4byte	.LVL278
 9620 0877 BE010000 		.4byte	.LVL286
 9621 087b 0100     		.2byte	0x1
 9622 087d 55       		.byte	0x55
 9623 087e 00000000 		.4byte	0
 9624 0882 00000000 		.4byte	0
 9625              	.LVUS90:
 9626 0886 00       		.uleb128 .LVU830
 9627 0887 00       		.uleb128 .LVU851
 9628 0888 00       		.uleb128 .LVU851
 9629 0889 00       		.uleb128 .LVU857
 9630              	.LLST90:
 9631 088a 74010000 		.4byte	.LVL278
 9632 088e AE010000 		.4byte	.LVL285
 9633 0892 0100     		.2byte	0x1
ARM GAS  /tmp/cclXoGh5.s 			page 170


 9634 0894 54       		.byte	0x54
 9635 0895 AE010000 		.4byte	.LVL285
 9636 0899 BE010000 		.4byte	.LVL286
 9637 089d 0300     		.2byte	0x3
 9638 089f 71       		.byte	0x71
 9639 08a0 60       		.sleb128 -32
 9640 08a1 9F       		.byte	0x9f
 9641 08a2 00000000 		.4byte	0
 9642 08a6 00000000 		.4byte	0
 9643              	.LVUS91:
 9644 08aa 03       		.uleb128 .LVU833
 9645 08ab 00       		.uleb128 .LVU837
 9646 08ac 01       		.uleb128 .LVU838
 9647 08ad 00       		.uleb128 .LVU839
 9648              	.LLST91:
 9649 08ae 74010000 		.4byte	.LVL278
 9650 08b2 82010000 		.4byte	.LVL281
 9651 08b6 0200     		.2byte	0x2
 9652 08b8 30       		.byte	0x30
 9653 08b9 9F       		.byte	0x9f
 9654 08ba 82010000 		.4byte	.LVL281
 9655 08be 84010000 		.4byte	.LVL282
 9656 08c2 0300     		.2byte	0x3
 9657 08c4 73       		.byte	0x73
 9658 08c5 01       		.sleb128 1
 9659 08c6 9F       		.byte	0x9f
 9660 08c7 00000000 		.4byte	0
 9661 08cb 00000000 		.4byte	0
 9662              	.LVUS92:
 9663 08cf 01       		.uleb128 .LVU848
 9664 08d0 00       		.uleb128 .LVU850
 9665              	.LLST92:
 9666 08d1 9A010000 		.4byte	.LVL283
 9667 08d5 A8010000 		.4byte	.LVL284
 9668 08d9 0100     		.2byte	0x1
 9669 08db 51       		.byte	0x51
 9670 08dc 00000000 		.4byte	0
 9671 08e0 00000000 		.4byte	0
 9672              	.LVUS93:
 9673 08e4 01       		.uleb128 .LVU867
 9674 08e5 00       		.uleb128 .LVU875
 9675              	.LLST93:
 9676 08e6 D8010000 		.4byte	.LVL290
 9677 08ea E8010000 		.4byte	.LVL292
 9678 08ee 0100     		.2byte	0x1
 9679 08f0 54       		.byte	0x54
 9680 08f1 00000000 		.4byte	0
 9681 08f5 00000000 		.4byte	0
 9682              	.LVUS94:
 9683 08f9 01       		.uleb128 .LVU893
 9684 08fa 00       		.uleb128 .LVU903
 9685              	.LLST94:
 9686 08fb 1E020000 		.4byte	.LVL301
 9687 08ff 36020000 		.4byte	.LVL304
 9688 0903 0100     		.2byte	0x1
 9689 0905 54       		.byte	0x54
 9690 0906 00000000 		.4byte	0
ARM GAS  /tmp/cclXoGh5.s 			page 171


 9691 090a 00000000 		.4byte	0
 9692              	.LVUS59:
 9693 090e 00       		.uleb128 0
 9694 090f 00       		.uleb128 .LVU602
 9695 0910 00       		.uleb128 .LVU602
 9696 0911 00       		.uleb128 .LVU603
 9697 0912 00       		.uleb128 .LVU603
 9698 0913 00       		.uleb128 .LVU605
 9699 0914 00       		.uleb128 .LVU605
 9700 0915 00       		.uleb128 0
 9701              	.LLST59:
 9702 0916 00000000 		.4byte	.LVL206
 9703 091a 21000000 		.4byte	.LVL207-1
 9704 091e 0100     		.2byte	0x1
 9705 0920 50       		.byte	0x50
 9706 0921 21000000 		.4byte	.LVL207-1
 9707 0925 32000000 		.4byte	.LVL208
 9708 0929 0400     		.2byte	0x4
 9709 092b F3       		.byte	0xf3
 9710 092c 01       		.uleb128 0x1
 9711 092d 50       		.byte	0x50
 9712 092e 9F       		.byte	0x9f
 9713 092f 32000000 		.4byte	.LVL208
 9714 0933 39000000 		.4byte	.LVL209-1
 9715 0937 0100     		.2byte	0x1
 9716 0939 50       		.byte	0x50
 9717 093a 39000000 		.4byte	.LVL209-1
 9718 093e 44000000 		.4byte	.LFE10
 9719 0942 0400     		.2byte	0x4
 9720 0944 F3       		.byte	0xf3
 9721 0945 01       		.uleb128 0x1
 9722 0946 50       		.byte	0x50
 9723 0947 9F       		.byte	0x9f
 9724 0948 00000000 		.4byte	0
 9725 094c 00000000 		.4byte	0
 9726              	.LVUS60:
 9727 0950 00       		.uleb128 0
 9728 0951 00       		.uleb128 .LVU602
 9729 0952 00       		.uleb128 .LVU602
 9730 0953 00       		.uleb128 .LVU603
 9731 0954 00       		.uleb128 .LVU603
 9732 0955 00       		.uleb128 .LVU605
 9733 0956 00       		.uleb128 .LVU605
 9734 0957 00       		.uleb128 0
 9735              	.LLST60:
 9736 0958 00000000 		.4byte	.LVL206
 9737 095c 21000000 		.4byte	.LVL207-1
 9738 0960 0100     		.2byte	0x1
 9739 0962 51       		.byte	0x51
 9740 0963 21000000 		.4byte	.LVL207-1
 9741 0967 32000000 		.4byte	.LVL208
 9742 096b 0400     		.2byte	0x4
 9743 096d F3       		.byte	0xf3
 9744 096e 01       		.uleb128 0x1
 9745 096f 51       		.byte	0x51
 9746 0970 9F       		.byte	0x9f
 9747 0971 32000000 		.4byte	.LVL208
ARM GAS  /tmp/cclXoGh5.s 			page 172


 9748 0975 39000000 		.4byte	.LVL209-1
 9749 0979 0100     		.2byte	0x1
 9750 097b 51       		.byte	0x51
 9751 097c 39000000 		.4byte	.LVL209-1
 9752 0980 44000000 		.4byte	.LFE10
 9753 0984 0400     		.2byte	0x4
 9754 0986 F3       		.byte	0xf3
 9755 0987 01       		.uleb128 0x1
 9756 0988 51       		.byte	0x51
 9757 0989 9F       		.byte	0x9f
 9758 098a 00000000 		.4byte	0
 9759 098e 00000000 		.4byte	0
 9760              	.LVUS54:
 9761 0992 00       		.uleb128 0
 9762 0993 00       		.uleb128 .LVU541
 9763 0994 00       		.uleb128 .LVU541
 9764 0995 00       		.uleb128 .LVU565
 9765 0996 00       		.uleb128 .LVU565
 9766 0997 00       		.uleb128 .LVU566
 9767 0998 00       		.uleb128 .LVU566
 9768 0999 00       		.uleb128 0
 9769              	.LLST54:
 9770 099a 00000000 		.4byte	.LVL188
 9771 099e 2C000000 		.4byte	.LVL189
 9772 09a2 0100     		.2byte	0x1
 9773 09a4 50       		.byte	0x50
 9774 09a5 2C000000 		.4byte	.LVL189
 9775 09a9 7A000000 		.4byte	.LVL194
 9776 09ad 0100     		.2byte	0x1
 9777 09af 54       		.byte	0x54
 9778 09b0 7A000000 		.4byte	.LVL194
 9779 09b4 84000000 		.4byte	.LVL195
 9780 09b8 0100     		.2byte	0x1
 9781 09ba 50       		.byte	0x50
 9782 09bb 84000000 		.4byte	.LVL195
 9783 09bf E0000000 		.4byte	.LFE9
 9784 09c3 0100     		.2byte	0x1
 9785 09c5 54       		.byte	0x54
 9786 09c6 00000000 		.4byte	0
 9787 09ca 00000000 		.4byte	0
 9788              	.LVUS55:
 9789 09ce 00       		.uleb128 0
 9790 09cf 00       		.uleb128 .LVU541
 9791 09d0 00       		.uleb128 .LVU541
 9792 09d1 00       		.uleb128 .LVU550
 9793 09d2 00       		.uleb128 .LVU565
 9794 09d3 00       		.uleb128 .LVU566
 9795 09d4 00       		.uleb128 .LVU566
 9796 09d5 00       		.uleb128 .LVU575
 9797 09d6 00       		.uleb128 .LVU575
 9798 09d7 00       		.uleb128 .LVU580
 9799 09d8 00       		.uleb128 .LVU581
 9800 09d9 00       		.uleb128 .LVU586
 9801 09da 00       		.uleb128 .LVU588
 9802 09db 00       		.uleb128 .LVU590
 9803              	.LLST55:
 9804 09dc 00000000 		.4byte	.LVL188
ARM GAS  /tmp/cclXoGh5.s 			page 173


 9805 09e0 2C000000 		.4byte	.LVL189
 9806 09e4 0100     		.2byte	0x1
 9807 09e6 51       		.byte	0x51
 9808 09e7 2C000000 		.4byte	.LVL189
 9809 09eb 4E000000 		.4byte	.LVL191
 9810 09ef 0400     		.2byte	0x4
 9811 09f1 F3       		.byte	0xf3
 9812 09f2 01       		.uleb128 0x1
 9813 09f3 51       		.byte	0x51
 9814 09f4 9F       		.byte	0x9f
 9815 09f5 7A000000 		.4byte	.LVL194
 9816 09f9 84000000 		.4byte	.LVL195
 9817 09fd 0100     		.2byte	0x1
 9818 09ff 51       		.byte	0x51
 9819 0a00 84000000 		.4byte	.LVL195
 9820 0a04 A6000000 		.4byte	.LVL197
 9821 0a08 0100     		.2byte	0x1
 9822 0a0a 57       		.byte	0x57
 9823 0a0b A6000000 		.4byte	.LVL197
 9824 0a0f B6000000 		.4byte	.LVL199
 9825 0a13 0400     		.2byte	0x4
 9826 0a15 F3       		.byte	0xf3
 9827 0a16 01       		.uleb128 0x1
 9828 0a17 51       		.byte	0x51
 9829 0a18 9F       		.byte	0x9f
 9830 0a19 BE000000 		.4byte	.LVL200
 9831 0a1d CC000000 		.4byte	.LVL202
 9832 0a21 0100     		.2byte	0x1
 9833 0a23 57       		.byte	0x57
 9834 0a24 D0000000 		.4byte	.LVL203
 9835 0a28 D8000000 		.4byte	.LVL204
 9836 0a2c 0100     		.2byte	0x1
 9837 0a2e 57       		.byte	0x57
 9838 0a2f 00000000 		.4byte	0
 9839 0a33 00000000 		.4byte	0
 9840              	.LVUS56:
 9841 0a37 00       		.uleb128 .LVU541
 9842 0a38 00       		.uleb128 .LVU545
 9843              	.LLST56:
 9844 0a39 2C000000 		.4byte	.LVL189
 9845 0a3d 42000000 		.4byte	.LVL190
 9846 0a41 0200     		.2byte	0x2
 9847 0a43 30       		.byte	0x30
 9848 0a44 9F       		.byte	0x9f
 9849 0a45 00000000 		.4byte	0
 9850 0a49 00000000 		.4byte	0
 9851              	.LVUS57:
 9852 0a4d 03       		.uleb128 .LVU554
 9853 0a4e 00       		.uleb128 .LVU562
 9854              	.LLST57:
 9855 0a4f 54000000 		.4byte	.LVL192
 9856 0a53 6A000000 		.4byte	.LVL193
 9857 0a57 0100     		.2byte	0x1
 9858 0a59 54       		.byte	0x54
 9859 0a5a 00000000 		.4byte	0
 9860 0a5e 00000000 		.4byte	0
 9861              	.LVUS58:
ARM GAS  /tmp/cclXoGh5.s 			page 174


 9862 0a62 00       		.uleb128 .LVU566
 9863 0a63 00       		.uleb128 .LVU570
 9864              	.LLST58:
 9865 0a64 84000000 		.4byte	.LVL195
 9866 0a68 98000000 		.4byte	.LVL196
 9867 0a6c 0200     		.2byte	0x2
 9868 0a6e 30       		.byte	0x30
 9869 0a6f 9F       		.byte	0x9f
 9870 0a70 00000000 		.4byte	0
 9871 0a74 00000000 		.4byte	0
 9872              	.LVUS52:
 9873 0a78 00       		.uleb128 0
 9874 0a79 00       		.uleb128 .LVU508
 9875 0a7a 00       		.uleb128 .LVU508
 9876 0a7b 00       		.uleb128 .LVU514
 9877 0a7c 00       		.uleb128 .LVU514
 9878 0a7d 00       		.uleb128 .LVU516
 9879 0a7e 00       		.uleb128 .LVU516
 9880 0a7f 00       		.uleb128 0
 9881              	.LLST52:
 9882 0a80 00000000 		.4byte	.LVL176
 9883 0a84 26000000 		.4byte	.LVL177
 9884 0a88 0100     		.2byte	0x1
 9885 0a8a 50       		.byte	0x50
 9886 0a8b 26000000 		.4byte	.LVL177
 9887 0a8f 4A000000 		.4byte	.LVL180
 9888 0a93 0100     		.2byte	0x1
 9889 0a95 55       		.byte	0x55
 9890 0a96 4A000000 		.4byte	.LVL180
 9891 0a9a 5A000000 		.4byte	.LVL182
 9892 0a9e 0100     		.2byte	0x1
 9893 0aa0 50       		.byte	0x50
 9894 0aa1 5A000000 		.4byte	.LVL182
 9895 0aa5 7C000000 		.4byte	.LFE8
 9896 0aa9 0100     		.2byte	0x1
 9897 0aab 55       		.byte	0x55
 9898 0aac 00000000 		.4byte	0
 9899 0ab0 00000000 		.4byte	0
 9900              	.LVUS53:
 9901 0ab4 00       		.uleb128 0
 9902 0ab5 00       		.uleb128 .LVU508
 9903 0ab6 00       		.uleb128 .LVU508
 9904 0ab7 00       		.uleb128 .LVU512
 9905 0ab8 00       		.uleb128 .LVU514
 9906 0ab9 00       		.uleb128 .LVU515
 9907 0aba 00       		.uleb128 .LVU515
 9908 0abb 00       		.uleb128 .LVU522
 9909 0abc 00       		.uleb128 .LVU524
 9910 0abd 00       		.uleb128 .LVU525
 9911              	.LLST53:
 9912 0abe 00000000 		.4byte	.LVL176
 9913 0ac2 26000000 		.4byte	.LVL177
 9914 0ac6 0100     		.2byte	0x1
 9915 0ac8 51       		.byte	0x51
 9916 0ac9 26000000 		.4byte	.LVL177
 9917 0acd 36000000 		.4byte	.LVL179
 9918 0ad1 0400     		.2byte	0x4
ARM GAS  /tmp/cclXoGh5.s 			page 175


 9919 0ad3 F3       		.byte	0xf3
 9920 0ad4 01       		.uleb128 0x1
 9921 0ad5 51       		.byte	0x51
 9922 0ad6 9F       		.byte	0x9f
 9923 0ad7 4A000000 		.4byte	.LVL180
 9924 0adb 56000000 		.4byte	.LVL181
 9925 0adf 0100     		.2byte	0x1
 9926 0ae1 51       		.byte	0x51
 9927 0ae2 56000000 		.4byte	.LVL181
 9928 0ae6 6C000000 		.4byte	.LVL184
 9929 0aea 0100     		.2byte	0x1
 9930 0aec 54       		.byte	0x54
 9931 0aed 70000000 		.4byte	.LVL185
 9932 0af1 74000000 		.4byte	.LVL186
 9933 0af5 0100     		.2byte	0x1
 9934 0af7 54       		.byte	0x54
 9935 0af8 00000000 		.4byte	0
 9936 0afc 00000000 		.4byte	0
 9937              	.LVUS46:
 9938 0b00 00       		.uleb128 0
 9939 0b01 00       		.uleb128 .LVU450
 9940 0b02 00       		.uleb128 .LVU450
 9941 0b03 00       		.uleb128 0
 9942              	.LLST46:
 9943 0b04 00000000 		.4byte	.LVL159
 9944 0b08 10000000 		.4byte	.LVL160
 9945 0b0c 0100     		.2byte	0x1
 9946 0b0e 50       		.byte	0x50
 9947 0b0f 10000000 		.4byte	.LVL160
 9948 0b13 84000000 		.4byte	.LFE6
 9949 0b17 0100     		.2byte	0x1
 9950 0b19 54       		.byte	0x54
 9951 0b1a 00000000 		.4byte	0
 9952 0b1e 00000000 		.4byte	0
 9953              	.LVUS47:
 9954 0b22 00       		.uleb128 0
 9955 0b23 00       		.uleb128 .LVU453
 9956 0b24 00       		.uleb128 .LVU453
 9957 0b25 00       		.uleb128 .LVU457
 9958 0b26 00       		.uleb128 .LVU457
 9959 0b27 00       		.uleb128 .LVU464
 9960 0b28 00       		.uleb128 .LVU464
 9961 0b29 00       		.uleb128 .LVU474
 9962 0b2a 00       		.uleb128 .LVU474
 9963 0b2b 00       		.uleb128 0
 9964              	.LLST47:
 9965 0b2c 00000000 		.4byte	.LVL159
 9966 0b30 1B000000 		.4byte	.LVL161-1
 9967 0b34 0100     		.2byte	0x1
 9968 0b36 51       		.byte	0x51
 9969 0b37 1B000000 		.4byte	.LVL161-1
 9970 0b3b 32000000 		.4byte	.LVL162
 9971 0b3f 0200     		.2byte	0x2
 9972 0b41 7D       		.byte	0x7d
 9973 0b42 24       		.sleb128 36
 9974 0b43 32000000 		.4byte	.LVL162
 9975 0b47 3F000000 		.4byte	.LVL164-1
ARM GAS  /tmp/cclXoGh5.s 			page 176


 9976 0b4b 0100     		.2byte	0x1
 9977 0b4d 51       		.byte	0x51
 9978 0b4e 3F000000 		.4byte	.LVL164-1
 9979 0b52 72000000 		.4byte	.LVL167
 9980 0b56 0200     		.2byte	0x2
 9981 0b58 77       		.byte	0x77
 9982 0b59 24       		.sleb128 36
 9983 0b5a 72000000 		.4byte	.LVL167
 9984 0b5e 84000000 		.4byte	.LFE6
 9985 0b62 0200     		.2byte	0x2
 9986 0b64 91       		.byte	0x91
 9987 0b65 74       		.sleb128 -12
 9988 0b66 00000000 		.4byte	0
 9989 0b6a 00000000 		.4byte	0
 9990              	.LVUS48:
 9991 0b6e 00       		.uleb128 .LVU460
 9992 0b6f 00       		.uleb128 0
 9993              	.LLST48:
 9994 0b70 38000000 		.4byte	.LVL163
 9995 0b74 84000000 		.4byte	.LFE6
 9996 0b78 0100     		.2byte	0x1
 9997 0b7a 59       		.byte	0x59
 9998 0b7b 00000000 		.4byte	0
 9999 0b7f 00000000 		.4byte	0
 10000              	.LVUS49:
 10001 0b83 01       		.uleb128 .LVU461
 10002 0b84 00       		.uleb128 .LVU464
 10003 0b85 00       		.uleb128 .LVU464
 10004 0b86 00       		.uleb128 0
 10005              	.LLST49:
 10006 0b87 38000000 		.4byte	.LVL163
 10007 0b8b 3F000000 		.4byte	.LVL164-1
 10008 0b8f 0200     		.2byte	0x2
 10009 0b91 73       		.byte	0x73
 10010 0b92 00       		.sleb128 0
 10011 0b93 3F000000 		.4byte	.LVL164-1
 10012 0b97 84000000 		.4byte	.LFE6
 10013 0b9b 0200     		.2byte	0x2
 10014 0b9d 76       		.byte	0x76
 10015 0b9e 00       		.sleb128 0
 10016 0b9f 00000000 		.4byte	0
 10017 0ba3 00000000 		.4byte	0
 10018              	.LVUS17:
 10019 0ba7 00       		.uleb128 0
 10020 0ba8 00       		.uleb128 .LVU195
 10021 0ba9 00       		.uleb128 .LVU195
 10022 0baa 00       		.uleb128 0
 10023              	.LLST17:
 10024 0bab 00000000 		.4byte	.LVL82
 10025 0baf 1C000000 		.4byte	.LVL84
 10026 0bb3 0100     		.2byte	0x1
 10027 0bb5 50       		.byte	0x50
 10028 0bb6 1C000000 		.4byte	.LVL84
 10029 0bba B0020000 		.4byte	.LFE5
 10030 0bbe 0100     		.2byte	0x1
 10031 0bc0 54       		.byte	0x54
 10032 0bc1 00000000 		.4byte	0
ARM GAS  /tmp/cclXoGh5.s 			page 177


 10033 0bc5 00000000 		.4byte	0
 10034              	.LVUS18:
 10035 0bc9 01       		.uleb128 .LVU192
 10036 0bca 01       		.uleb128 .LVU229
 10037 0bcb 00       		.uleb128 .LVU231
 10038 0bcc 00       		.uleb128 .LVU246
 10039 0bcd 00       		.uleb128 .LVU246
 10040 0bce 00       		.uleb128 .LVU247
 10041 0bcf 00       		.uleb128 .LVU251
 10042 0bd0 00       		.uleb128 .LVU268
 10043 0bd1 00       		.uleb128 .LVU268
 10044 0bd2 00       		.uleb128 .LVU269
 10045 0bd3 00       		.uleb128 .LVU274
 10046 0bd4 00       		.uleb128 .LVU281
 10047 0bd5 00       		.uleb128 .LVU286
 10048 0bd6 00       		.uleb128 .LVU300
 10049 0bd7 00       		.uleb128 .LVU300
 10050 0bd8 00       		.uleb128 .LVU303
 10051 0bd9 00       		.uleb128 .LVU306
 10052 0bda 00       		.uleb128 .LVU310
 10053 0bdb 00       		.uleb128 .LVU310
 10054 0bdc 00       		.uleb128 .LVU320
 10055 0bdd 00       		.uleb128 .LVU325
 10056 0bde 00       		.uleb128 .LVU346
 10057 0bdf 00       		.uleb128 .LVU346
 10058 0be0 00       		.uleb128 .LVU347
 10059 0be1 00       		.uleb128 .LVU347
 10060 0be2 00       		.uleb128 .LVU348
 10061 0be3 00       		.uleb128 .LVU350
 10062 0be4 00       		.uleb128 .LVU368
 10063 0be5 00       		.uleb128 .LVU371
 10064 0be6 00       		.uleb128 .LVU393
 10065 0be7 00       		.uleb128 .LVU393
 10066 0be8 00       		.uleb128 .LVU394
 10067 0be9 00       		.uleb128 .LVU398
 10068 0bea 00       		.uleb128 .LVU400
 10069 0beb 00       		.uleb128 .LVU400
 10070 0bec 00       		.uleb128 .LVU405
 10071 0bed 00       		.uleb128 .LVU414
 10072 0bee 00       		.uleb128 .LVU423
 10073 0bef 00       		.uleb128 .LVU426
 10074 0bf0 00       		.uleb128 .LVU436
 10075              	.LLST18:
 10076 0bf1 16000000 		.4byte	.LVL83
 10077 0bf5 84000000 		.4byte	.LVL91
 10078 0bf9 0100     		.2byte	0x1
 10079 0bfb 55       		.byte	0x55
 10080 0bfc 94000000 		.4byte	.LVL92
 10081 0c00 BC000000 		.4byte	.LVL94
 10082 0c04 0100     		.2byte	0x1
 10083 0c06 55       		.byte	0x55
 10084 0c07 BC000000 		.4byte	.LVL94
 10085 0c0b BE000000 		.4byte	.LVL95
 10086 0c0f 0800     		.2byte	0x8
 10087 0c11 71       		.byte	0x71
 10088 0c12 00       		.sleb128 0
 10089 0c13 31       		.byte	0x31
ARM GAS  /tmp/cclXoGh5.s 			page 178


 10090 0c14 24       		.byte	0x24
 10091 0c15 74       		.byte	0x74
 10092 0c16 04       		.sleb128 4
 10093 0c17 06       		.byte	0x6
 10094 0c18 22       		.byte	0x22
 10095 0c19 CA000000 		.4byte	.LVL96
 10096 0c1d F2000000 		.4byte	.LVL98
 10097 0c21 0100     		.2byte	0x1
 10098 0c23 55       		.byte	0x55
 10099 0c24 F2000000 		.4byte	.LVL98
 10100 0c28 F4000000 		.4byte	.LVL99
 10101 0c2c 0E00     		.2byte	0xe
 10102 0c2e 74       		.byte	0x74
 10103 0c2f 1A       		.sleb128 26
 10104 0c30 94       		.byte	0x94
 10105 0c31 02       		.byte	0x2
 10106 0c32 0A       		.byte	0xa
 10107 0c33 FFFF     		.2byte	0xffff
 10108 0c35 1A       		.byte	0x1a
 10109 0c36 31       		.byte	0x31
 10110 0c37 24       		.byte	0x24
 10111 0c38 74       		.byte	0x74
 10112 0c39 04       		.sleb128 4
 10113 0c3a 06       		.byte	0x6
 10114 0c3b 22       		.byte	0x22
 10115 0c3c 04010000 		.4byte	.LVL100
 10116 0c40 14010000 		.4byte	.LVL101
 10117 0c44 0100     		.2byte	0x1
 10118 0c46 55       		.byte	0x55
 10119 0c47 24010000 		.4byte	.LVL102
 10120 0c4b 3A010000 		.4byte	.LVL105
 10121 0c4f 0100     		.2byte	0x1
 10122 0c51 55       		.byte	0x55
 10123 0c52 3A010000 		.4byte	.LVL105
 10124 0c56 46010000 		.4byte	.LVL107
 10125 0c5a 0800     		.2byte	0x8
 10126 0c5c 71       		.byte	0x71
 10127 0c5d 00       		.sleb128 0
 10128 0c5e 31       		.byte	0x31
 10129 0c5f 24       		.byte	0x24
 10130 0c60 74       		.byte	0x74
 10131 0c61 04       		.sleb128 4
 10132 0c62 06       		.byte	0x6
 10133 0c63 22       		.byte	0x22
 10134 0c64 4E010000 		.4byte	.LVL108
 10135 0c68 56010000 		.4byte	.LVL109
 10136 0c6c 0100     		.2byte	0x1
 10137 0c6e 55       		.byte	0x55
 10138 0c6f 56010000 		.4byte	.LVL109
 10139 0c73 72010000 		.4byte	.LVL112
 10140 0c77 0E00     		.2byte	0xe
 10141 0c79 74       		.byte	0x74
 10142 0c7a 1A       		.sleb128 26
 10143 0c7b 94       		.byte	0x94
 10144 0c7c 02       		.byte	0x2
 10145 0c7d 0A       		.byte	0xa
 10146 0c7e FFFF     		.2byte	0xffff
ARM GAS  /tmp/cclXoGh5.s 			page 179


 10147 0c80 1A       		.byte	0x1a
 10148 0c81 31       		.byte	0x31
 10149 0c82 24       		.byte	0x24
 10150 0c83 74       		.byte	0x74
 10151 0c84 04       		.sleb128 4
 10152 0c85 06       		.byte	0x6
 10153 0c86 22       		.byte	0x22
 10154 0c87 7A010000 		.4byte	.LVL115
 10155 0c8b B0010000 		.4byte	.LVL120
 10156 0c8f 0100     		.2byte	0x1
 10157 0c91 55       		.byte	0x55
 10158 0c92 B0010000 		.4byte	.LVL120
 10159 0c96 B2010000 		.4byte	.LVL121
 10160 0c9a 0700     		.2byte	0x7
 10161 0c9c 71       		.byte	0x71
 10162 0c9d 00       		.sleb128 0
 10163 0c9e 31       		.byte	0x31
 10164 0c9f 24       		.byte	0x24
 10165 0ca0 72       		.byte	0x72
 10166 0ca1 00       		.sleb128 0
 10167 0ca2 22       		.byte	0x22
 10168 0ca3 B2010000 		.4byte	.LVL121
 10169 0ca7 B4010000 		.4byte	.LVL122
 10170 0cab 0D00     		.2byte	0xd
 10171 0cad 74       		.byte	0x74
 10172 0cae 1A       		.sleb128 26
 10173 0caf 94       		.byte	0x94
 10174 0cb0 02       		.byte	0x2
 10175 0cb1 0A       		.byte	0xa
 10176 0cb2 FFFF     		.2byte	0xffff
 10177 0cb4 1A       		.byte	0x1a
 10178 0cb5 31       		.byte	0x31
 10179 0cb6 24       		.byte	0x24
 10180 0cb7 72       		.byte	0x72
 10181 0cb8 00       		.sleb128 0
 10182 0cb9 22       		.byte	0x22
 10183 0cba B6010000 		.4byte	.LVL123
 10184 0cbe E0010000 		.4byte	.LVL129
 10185 0cc2 0100     		.2byte	0x1
 10186 0cc4 55       		.byte	0x55
 10187 0cc5 FA010000 		.4byte	.LVL131
 10188 0cc9 3C020000 		.4byte	.LVL137
 10189 0ccd 0100     		.2byte	0x1
 10190 0ccf 55       		.byte	0x55
 10191 0cd0 3C020000 		.4byte	.LVL137
 10192 0cd4 3E020000 		.4byte	.LVL138
 10193 0cd8 0800     		.2byte	0x8
 10194 0cda 71       		.byte	0x71
 10195 0cdb 7F       		.sleb128 -1
 10196 0cdc 31       		.byte	0x31
 10197 0cdd 24       		.byte	0x24
 10198 0cde 74       		.byte	0x74
 10199 0cdf 04       		.sleb128 4
 10200 0ce0 06       		.byte	0x6
 10201 0ce1 22       		.byte	0x22
 10202 0ce2 46020000 		.4byte	.LVL139
 10203 0ce6 4C020000 		.4byte	.LVL140
ARM GAS  /tmp/cclXoGh5.s 			page 180


 10204 0cea 0100     		.2byte	0x1
 10205 0cec 55       		.byte	0x55
 10206 0ced 4C020000 		.4byte	.LVL140
 10207 0cf1 58020000 		.4byte	.LVL142
 10208 0cf5 0800     		.2byte	0x8
 10209 0cf7 71       		.byte	0x71
 10210 0cf8 00       		.sleb128 0
 10211 0cf9 31       		.byte	0x31
 10212 0cfa 24       		.byte	0x24
 10213 0cfb 74       		.byte	0x74
 10214 0cfc 04       		.sleb128 4
 10215 0cfd 06       		.byte	0x6
 10216 0cfe 22       		.byte	0x22
 10217 0cff 66020000 		.4byte	.LVL143
 10218 0d03 7C020000 		.4byte	.LVL146
 10219 0d07 0100     		.2byte	0x1
 10220 0d09 55       		.byte	0x55
 10221 0d0a 84020000 		.4byte	.LVL147
 10222 0d0e 98020000 		.4byte	.LVL154
 10223 0d12 0E00     		.2byte	0xe
 10224 0d14 74       		.byte	0x74
 10225 0d15 1A       		.sleb128 26
 10226 0d16 94       		.byte	0x94
 10227 0d17 02       		.byte	0x2
 10228 0d18 0A       		.byte	0xa
 10229 0d19 FFFF     		.2byte	0xffff
 10230 0d1b 1A       		.byte	0x1a
 10231 0d1c 31       		.byte	0x31
 10232 0d1d 24       		.byte	0x24
 10233 0d1e 74       		.byte	0x74
 10234 0d1f 04       		.sleb128 4
 10235 0d20 06       		.byte	0x6
 10236 0d21 22       		.byte	0x22
 10237 0d22 00000000 		.4byte	0
 10238 0d26 00000000 		.4byte	0
 10239              	.LVUS23:
 10240 0d2a 01       		.uleb128 .LVU241
 10241 0d2b 00       		.uleb128 .LVU246
 10242 0d2c 00       		.uleb128 .LVU246
 10243 0d2d 00       		.uleb128 .LVU247
 10244              	.LLST23:
 10245 0d2e B0000000 		.4byte	.LVL93
 10246 0d32 BC000000 		.4byte	.LVL94
 10247 0d36 0700     		.2byte	0x7
 10248 0d38 75       		.byte	0x75
 10249 0d39 00       		.sleb128 0
 10250 0d3a 34       		.byte	0x34
 10251 0d3b 24       		.byte	0x24
 10252 0d3c 34       		.byte	0x34
 10253 0d3d 26       		.byte	0x26
 10254 0d3e 9F       		.byte	0x9f
 10255 0d3f BC000000 		.4byte	.LVL94
 10256 0d43 BE000000 		.4byte	.LVL95
 10257 0d47 0F00     		.2byte	0xf
 10258 0d49 71       		.byte	0x71
 10259 0d4a 00       		.sleb128 0
 10260 0d4b 31       		.byte	0x31
ARM GAS  /tmp/cclXoGh5.s 			page 181


 10261 0d4c 24       		.byte	0x24
 10262 0d4d 74       		.byte	0x74
 10263 0d4e 04       		.sleb128 4
 10264 0d4f 06       		.byte	0x6
 10265 0d50 22       		.byte	0x22
 10266 0d51 94       		.byte	0x94
 10267 0d52 02       		.byte	0x2
 10268 0d53 34       		.byte	0x34
 10269 0d54 24       		.byte	0x24
 10270 0d55 34       		.byte	0x34
 10271 0d56 26       		.byte	0x26
 10272 0d57 9F       		.byte	0x9f
 10273 0d58 00000000 		.4byte	0
 10274 0d5c 00000000 		.4byte	0
 10275              	.LVUS24:
 10276 0d60 01       		.uleb128 .LVU262
 10277 0d61 00       		.uleb128 .LVU268
 10278 0d62 00       		.uleb128 .LVU268
 10279 0d63 00       		.uleb128 .LVU269
 10280              	.LLST24:
 10281 0d64 E4000000 		.4byte	.LVL97
 10282 0d68 F2000000 		.4byte	.LVL98
 10283 0d6c 0700     		.2byte	0x7
 10284 0d6e 75       		.byte	0x75
 10285 0d6f 00       		.sleb128 0
 10286 0d70 0A       		.byte	0xa
 10287 0d71 FF0F     		.2byte	0xfff
 10288 0d73 1A       		.byte	0x1a
 10289 0d74 9F       		.byte	0x9f
 10290 0d75 F2000000 		.4byte	.LVL98
 10291 0d79 F4000000 		.4byte	.LVL99
 10292 0d7d 1500     		.2byte	0x15
 10293 0d7f 74       		.byte	0x74
 10294 0d80 1A       		.sleb128 26
 10295 0d81 94       		.byte	0x94
 10296 0d82 02       		.byte	0x2
 10297 0d83 0A       		.byte	0xa
 10298 0d84 FFFF     		.2byte	0xffff
 10299 0d86 1A       		.byte	0x1a
 10300 0d87 31       		.byte	0x31
 10301 0d88 24       		.byte	0x24
 10302 0d89 74       		.byte	0x74
 10303 0d8a 04       		.sleb128 4
 10304 0d8b 06       		.byte	0x6
 10305 0d8c 22       		.byte	0x22
 10306 0d8d 94       		.byte	0x94
 10307 0d8e 02       		.byte	0x2
 10308 0d8f 0A       		.byte	0xa
 10309 0d90 FF0F     		.2byte	0xfff
 10310 0d92 1A       		.byte	0x1a
 10311 0d93 9F       		.byte	0x9f
 10312 0d94 00000000 		.4byte	0
 10313 0d98 00000000 		.4byte	0
 10314              	.LVUS25:
 10315 0d9c 01       		.uleb128 .LVU275
 10316 0d9d 00       		.uleb128 .LVU281
 10317              	.LLST25:
ARM GAS  /tmp/cclXoGh5.s 			page 182


 10318 0d9e 04010000 		.4byte	.LVL100
 10319 0da2 14010000 		.4byte	.LVL101
 10320 0da6 0700     		.2byte	0x7
 10321 0da8 75       		.byte	0x75
 10322 0da9 00       		.sleb128 0
 10323 0daa 0A       		.byte	0xa
 10324 0dab FF0F     		.2byte	0xfff
 10325 0dad 1A       		.byte	0x1a
 10326 0dae 9F       		.byte	0x9f
 10327 0daf 00000000 		.4byte	0
 10328 0db3 00000000 		.4byte	0
 10329              	.LVUS26:
 10330 0db7 04       		.uleb128 .LVU290
 10331 0db8 00       		.uleb128 .LVU300
 10332 0db9 00       		.uleb128 .LVU300
 10333 0dba 00       		.uleb128 .LVU303
 10334              	.LLST26:
 10335 0dbb 24010000 		.4byte	.LVL102
 10336 0dbf 3A010000 		.4byte	.LVL105
 10337 0dc3 0700     		.2byte	0x7
 10338 0dc5 75       		.byte	0x75
 10339 0dc6 00       		.sleb128 0
 10340 0dc7 0A       		.byte	0xa
 10341 0dc8 FF0F     		.2byte	0xfff
 10342 0dca 1A       		.byte	0x1a
 10343 0dcb 9F       		.byte	0x9f
 10344 0dcc 3A010000 		.4byte	.LVL105
 10345 0dd0 46010000 		.4byte	.LVL107
 10346 0dd4 0F00     		.2byte	0xf
 10347 0dd6 71       		.byte	0x71
 10348 0dd7 00       		.sleb128 0
 10349 0dd8 31       		.byte	0x31
 10350 0dd9 24       		.byte	0x24
 10351 0dda 74       		.byte	0x74
 10352 0ddb 04       		.sleb128 4
 10353 0ddc 06       		.byte	0x6
 10354 0ddd 22       		.byte	0x22
 10355 0dde 94       		.byte	0x94
 10356 0ddf 02       		.byte	0x2
 10357 0de0 0A       		.byte	0xa
 10358 0de1 FF0F     		.2byte	0xfff
 10359 0de3 1A       		.byte	0x1a
 10360 0de4 9F       		.byte	0x9f
 10361 0de5 00000000 		.4byte	0
 10362 0de9 00000000 		.4byte	0
 10363              	.LVUS27:
 10364 0ded 00       		.uleb128 .LVU294
 10365 0dee 00       		.uleb128 .LVU306
 10366              	.LLST27:
 10367 0def 2E010000 		.4byte	.LVL103
 10368 0df3 4E010000 		.4byte	.LVL108
 10369 0df7 0100     		.2byte	0x1
 10370 0df9 57       		.byte	0x57
 10371 0dfa 00000000 		.4byte	0
 10372 0dfe 00000000 		.4byte	0
 10373              	.LVUS28:
 10374 0e02 00       		.uleb128 .LVU296
ARM GAS  /tmp/cclXoGh5.s 			page 183


 10375 0e03 00       		.uleb128 .LVU301
 10376 0e04 00       		.uleb128 .LVU301
 10377 0e05 00       		.uleb128 .LVU303
 10378              	.LLST28:
 10379 0e06 32010000 		.4byte	.LVL104
 10380 0e0a 3E010000 		.4byte	.LVL106
 10381 0e0e 0100     		.2byte	0x1
 10382 0e10 56       		.byte	0x56
 10383 0e11 3E010000 		.4byte	.LVL106
 10384 0e15 46010000 		.4byte	.LVL107
 10385 0e19 0700     		.2byte	0x7
 10386 0e1b 70       		.byte	0x70
 10387 0e1c 00       		.sleb128 0
 10388 0e1d 31       		.byte	0x31
 10389 0e1e 24       		.byte	0x24
 10390 0e1f 73       		.byte	0x73
 10391 0e20 00       		.sleb128 0
 10392 0e21 22       		.byte	0x22
 10393 0e22 00000000 		.4byte	0
 10394 0e26 00000000 		.4byte	0
 10395              	.LVUS19:
 10396 0e2a 05       		.uleb128 .LVU201
 10397 0e2b 00       		.uleb128 .LVU213
 10398 0e2c 00       		.uleb128 .LVU398
 10399 0e2d 00       		.uleb128 .LVU400
 10400 0e2e 00       		.uleb128 .LVU400
 10401 0e2f 00       		.uleb128 .LVU405
 10402              	.LLST19:
 10403 0e30 42000000 		.4byte	.LVL85
 10404 0e34 5A000000 		.4byte	.LVL89
 10405 0e38 0700     		.2byte	0x7
 10406 0e3a 75       		.byte	0x75
 10407 0e3b 00       		.sleb128 0
 10408 0e3c 0A       		.byte	0xa
 10409 0e3d FF0F     		.2byte	0xfff
 10410 0e3f 1A       		.byte	0x1a
 10411 0e40 9F       		.byte	0x9f
 10412 0e41 46020000 		.4byte	.LVL139
 10413 0e45 4C020000 		.4byte	.LVL140
 10414 0e49 0700     		.2byte	0x7
 10415 0e4b 75       		.byte	0x75
 10416 0e4c 00       		.sleb128 0
 10417 0e4d 0A       		.byte	0xa
 10418 0e4e FF0F     		.2byte	0xfff
 10419 0e50 1A       		.byte	0x1a
 10420 0e51 9F       		.byte	0x9f
 10421 0e52 4C020000 		.4byte	.LVL140
 10422 0e56 58020000 		.4byte	.LVL142
 10423 0e5a 0F00     		.2byte	0xf
 10424 0e5c 71       		.byte	0x71
 10425 0e5d 00       		.sleb128 0
 10426 0e5e 31       		.byte	0x31
 10427 0e5f 24       		.byte	0x24
 10428 0e60 74       		.byte	0x74
 10429 0e61 04       		.sleb128 4
 10430 0e62 06       		.byte	0x6
 10431 0e63 22       		.byte	0x22
ARM GAS  /tmp/cclXoGh5.s 			page 184


 10432 0e64 94       		.byte	0x94
 10433 0e65 02       		.byte	0x2
 10434 0e66 0A       		.byte	0xa
 10435 0e67 FF0F     		.2byte	0xfff
 10436 0e69 1A       		.byte	0x1a
 10437 0e6a 9F       		.byte	0x9f
 10438 0e6b 00000000 		.4byte	0
 10439 0e6f 00000000 		.4byte	0
 10440              	.LVUS20:
 10441 0e73 00       		.uleb128 .LVU206
 10442 0e74 00       		.uleb128 .LVU213
 10443 0e75 00       		.uleb128 .LVU398
 10444 0e76 00       		.uleb128 .LVU414
 10445              	.LLST20:
 10446 0e77 4C000000 		.4byte	.LVL86
 10447 0e7b 5A000000 		.4byte	.LVL89
 10448 0e7f 0100     		.2byte	0x1
 10449 0e81 57       		.byte	0x57
 10450 0e82 46020000 		.4byte	.LVL139
 10451 0e86 66020000 		.4byte	.LVL143
 10452 0e8a 0100     		.2byte	0x1
 10453 0e8c 57       		.byte	0x57
 10454 0e8d 00000000 		.4byte	0
 10455 0e91 00000000 		.4byte	0
 10456              	.LVUS21:
 10457 0e95 00       		.uleb128 .LVU209
 10458 0e96 00       		.uleb128 .LVU213
 10459 0e97 00       		.uleb128 .LVU398
 10460 0e98 00       		.uleb128 .LVU404
 10461 0e99 00       		.uleb128 .LVU404
 10462 0e9a 00       		.uleb128 .LVU405
 10463              	.LLST21:
 10464 0e9b 50000000 		.4byte	.LVL87
 10465 0e9f 5A000000 		.4byte	.LVL89
 10466 0ea3 0100     		.2byte	0x1
 10467 0ea5 56       		.byte	0x56
 10468 0ea6 46020000 		.4byte	.LVL139
 10469 0eaa 54020000 		.4byte	.LVL141
 10470 0eae 0100     		.2byte	0x1
 10471 0eb0 56       		.byte	0x56
 10472 0eb1 54020000 		.4byte	.LVL141
 10473 0eb5 58020000 		.4byte	.LVL142
 10474 0eb9 0D00     		.2byte	0xd
 10475 0ebb 74       		.byte	0x74
 10476 0ebc 1C       		.sleb128 28
 10477 0ebd 94       		.byte	0x94
 10478 0ebe 02       		.byte	0x2
 10479 0ebf 40       		.byte	0x40
 10480 0ec0 24       		.byte	0x24
 10481 0ec1 40       		.byte	0x40
 10482 0ec2 26       		.byte	0x26
 10483 0ec3 31       		.byte	0x31
 10484 0ec4 24       		.byte	0x24
 10485 0ec5 70       		.byte	0x70
 10486 0ec6 00       		.sleb128 0
 10487 0ec7 22       		.byte	0x22
 10488 0ec8 00000000 		.4byte	0
ARM GAS  /tmp/cclXoGh5.s 			page 185


 10489 0ecc 00000000 		.4byte	0
 10490              	.LVUS22:
 10491 0ed0 01       		.uleb128 .LVU207
 10492 0ed1 00       		.uleb128 .LVU212
 10493 0ed2 00       		.uleb128 .LVU212
 10494 0ed3 00       		.uleb128 .LVU213
 10495 0ed4 00       		.uleb128 .LVU398
 10496 0ed5 00       		.uleb128 .LVU405
 10497              	.LLST22:
 10498 0ed6 4C000000 		.4byte	.LVL86
 10499 0eda 56000000 		.4byte	.LVL88
 10500 0ede 0B00     		.2byte	0xb
 10501 0ee0 73       		.byte	0x73
 10502 0ee1 FFFFFFFF 		.sleb128 2147483647
 10502      07
 10503 0ee6 31       		.byte	0x31
 10504 0ee7 24       		.byte	0x24
 10505 0ee8 70       		.byte	0x70
 10506 0ee9 00       		.sleb128 0
 10507 0eea 22       		.byte	0x22
 10508 0eeb 56000000 		.4byte	.LVL88
 10509 0eef 5A000000 		.4byte	.LVL89
 10510 0ef3 1300     		.2byte	0x13
 10511 0ef5 74       		.byte	0x74
 10512 0ef6 1C       		.sleb128 28
 10513 0ef7 94       		.byte	0x94
 10514 0ef8 02       		.byte	0x2
 10515 0ef9 40       		.byte	0x40
 10516 0efa 24       		.byte	0x24
 10517 0efb 40       		.byte	0x40
 10518 0efc 26       		.byte	0x26
 10519 0efd 23       		.byte	0x23
 10520 0efe FFFFFFFF 		.uleb128 0x7fffffff
 10520      07
 10521 0f03 31       		.byte	0x31
 10522 0f04 24       		.byte	0x24
 10523 0f05 70       		.byte	0x70
 10524 0f06 00       		.sleb128 0
 10525 0f07 22       		.byte	0x22
 10526 0f08 46020000 		.4byte	.LVL139
 10527 0f0c 58020000 		.4byte	.LVL142
 10528 0f10 1300     		.2byte	0x13
 10529 0f12 74       		.byte	0x74
 10530 0f13 1C       		.sleb128 28
 10531 0f14 94       		.byte	0x94
 10532 0f15 02       		.byte	0x2
 10533 0f16 40       		.byte	0x40
 10534 0f17 24       		.byte	0x24
 10535 0f18 40       		.byte	0x40
 10536 0f19 26       		.byte	0x26
 10537 0f1a 23       		.byte	0x23
 10538 0f1b FFFFFFFF 		.uleb128 0x7fffffff
 10538      07
 10539 0f20 31       		.byte	0x31
 10540 0f21 24       		.byte	0x24
 10541 0f22 70       		.byte	0x70
 10542 0f23 00       		.sleb128 0
ARM GAS  /tmp/cclXoGh5.s 			page 186


 10543 0f24 22       		.byte	0x22
 10544 0f25 00000000 		.4byte	0
 10545 0f29 00000000 		.4byte	0
 10546              	.LVUS29:
 10547 0f2d 00       		.uleb128 .LVU312
 10548 0f2e 00       		.uleb128 .LVU317
 10549 0f2f 00       		.uleb128 .LVU317
 10550 0f30 00       		.uleb128 .LVU320
 10551 0f31 00       		.uleb128 .LVU426
 10552 0f32 00       		.uleb128 .LVU428
 10553 0f33 00       		.uleb128 .LVU428
 10554 0f34 00       		.uleb128 .LVU429
 10555 0f35 00       		.uleb128 .LVU429
 10556 0f36 00       		.uleb128 .LVU430
 10557 0f37 00       		.uleb128 .LVU430
 10558 0f38 00       		.uleb128 .LVU432
 10559 0f39 00       		.uleb128 .LVU432
 10560 0f3a 00       		.uleb128 .LVU433
 10561 0f3b 00       		.uleb128 .LVU433
 10562 0f3c 00       		.uleb128 .LVU435
 10563 0f3d 00       		.uleb128 .LVU435
 10564 0f3e 00       		.uleb128 .LVU436
 10565              	.LLST29:
 10566 0f3f 5C010000 		.4byte	.LVL110
 10567 0f43 6E010000 		.4byte	.LVL111
 10568 0f47 0100     		.2byte	0x1
 10569 0f49 53       		.byte	0x53
 10570 0f4a 6E010000 		.4byte	.LVL111
 10571 0f4e 72010000 		.4byte	.LVL112
 10572 0f52 0700     		.2byte	0x7
 10573 0f54 71       		.byte	0x71
 10574 0f55 00       		.sleb128 0
 10575 0f56 31       		.byte	0x31
 10576 0f57 24       		.byte	0x24
 10577 0f58 72       		.byte	0x72
 10578 0f59 00       		.sleb128 0
 10579 0f5a 22       		.byte	0x22
 10580 0f5b 84020000 		.4byte	.LVL147
 10581 0f5f 86020000 		.4byte	.LVL148
 10582 0f63 0100     		.2byte	0x1
 10583 0f65 53       		.byte	0x53
 10584 0f66 86020000 		.4byte	.LVL148
 10585 0f6a 88020000 		.4byte	.LVL149
 10586 0f6e 0400     		.2byte	0x4
 10587 0f70 73       		.byte	0x73
 10588 0f71 00       		.sleb128 0
 10589 0f72 1F       		.byte	0x1f
 10590 0f73 9F       		.byte	0x9f
 10591 0f74 88020000 		.4byte	.LVL149
 10592 0f78 8A020000 		.4byte	.LVL150
 10593 0f7c 0700     		.2byte	0x7
 10594 0f7e 71       		.byte	0x71
 10595 0f7f 00       		.sleb128 0
 10596 0f80 31       		.byte	0x31
 10597 0f81 24       		.byte	0x24
 10598 0f82 72       		.byte	0x72
 10599 0f83 00       		.sleb128 0
ARM GAS  /tmp/cclXoGh5.s 			page 187


 10600 0f84 22       		.byte	0x22
 10601 0f85 8A020000 		.4byte	.LVL150
 10602 0f89 8C020000 		.4byte	.LVL151
 10603 0f8d 0100     		.2byte	0x1
 10604 0f8f 53       		.byte	0x53
 10605 0f90 8C020000 		.4byte	.LVL151
 10606 0f94 8E020000 		.4byte	.LVL152
 10607 0f98 0400     		.2byte	0x4
 10608 0f9a 73       		.byte	0x73
 10609 0f9b 00       		.sleb128 0
 10610 0f9c 20       		.byte	0x20
 10611 0f9d 9F       		.byte	0x9f
 10612 0f9e 8E020000 		.4byte	.LVL152
 10613 0fa2 94020000 		.4byte	.LVL153
 10614 0fa6 0100     		.2byte	0x1
 10615 0fa8 53       		.byte	0x53
 10616 0fa9 94020000 		.4byte	.LVL153
 10617 0fad 98020000 		.4byte	.LVL154
 10618 0fb1 0700     		.2byte	0x7
 10619 0fb3 71       		.byte	0x71
 10620 0fb4 00       		.sleb128 0
 10621 0fb5 31       		.byte	0x31
 10622 0fb6 24       		.byte	0x24
 10623 0fb7 72       		.byte	0x72
 10624 0fb8 00       		.sleb128 0
 10625 0fb9 22       		.byte	0x22
 10626 0fba 00000000 		.4byte	0
 10627 0fbe 00000000 		.4byte	0
 10628              	.LVUS30:
 10629 0fc2 00       		.uleb128 .LVU317
 10630 0fc3 00       		.uleb128 .LVU322
 10631 0fc4 00       		.uleb128 .LVU322
 10632 0fc5 00       		.uleb128 .LVU323
 10633              	.LLST30:
 10634 0fc6 6E010000 		.4byte	.LVL111
 10635 0fca 74010000 		.4byte	.LVL113
 10636 0fce 0100     		.2byte	0x1
 10637 0fd0 53       		.byte	0x53
 10638 0fd1 74010000 		.4byte	.LVL113
 10639 0fd5 78010000 		.4byte	.LVL114
 10640 0fd9 0700     		.2byte	0x7
 10641 0fdb 71       		.byte	0x71
 10642 0fdc 00       		.sleb128 0
 10643 0fdd 31       		.byte	0x31
 10644 0fde 24       		.byte	0x24
 10645 0fdf 72       		.byte	0x72
 10646 0fe0 00       		.sleb128 0
 10647 0fe1 22       		.byte	0x22
 10648 0fe2 00000000 		.4byte	0
 10649 0fe6 00000000 		.4byte	0
 10650              	.LVUS31:
 10651 0fea 02       		.uleb128 .LVU314
 10652 0feb 00       		.uleb128 .LVU325
 10653 0fec 00       		.uleb128 .LVU426
 10654 0fed 00       		.uleb128 .LVU436
 10655              	.LLST31:
 10656 0fee 5C010000 		.4byte	.LVL110
ARM GAS  /tmp/cclXoGh5.s 			page 188


 10657 0ff2 7A010000 		.4byte	.LVL115
 10658 0ff6 0100     		.2byte	0x1
 10659 0ff8 54       		.byte	0x54
 10660 0ff9 84020000 		.4byte	.LVL147
 10661 0ffd 98020000 		.4byte	.LVL154
 10662 1001 0100     		.2byte	0x1
 10663 1003 54       		.byte	0x54
 10664 1004 00000000 		.4byte	0
 10665 1008 00000000 		.4byte	0
 10666              	.LVUS32:
 10667 100c 01       		.uleb128 .LVU313
 10668 100d 00       		.uleb128 .LVU317
 10669 100e 00       		.uleb128 .LVU426
 10670 100f 00       		.uleb128 .LVU436
 10671              	.LLST32:
 10672 1010 5C010000 		.4byte	.LVL110
 10673 1014 6E010000 		.4byte	.LVL111
 10674 1018 0100     		.2byte	0x1
 10675 101a 55       		.byte	0x55
 10676 101b 84020000 		.4byte	.LVL147
 10677 101f 98020000 		.4byte	.LVL154
 10678 1023 0100     		.2byte	0x1
 10679 1025 55       		.byte	0x55
 10680 1026 00000000 		.4byte	0
 10681 102a 00000000 		.4byte	0
 10682              	.LVUS33:
 10683 102e 01       		.uleb128 .LVU313
 10684 102f 00       		.uleb128 .LVU317
 10685 1030 00       		.uleb128 .LVU426
 10686 1031 00       		.uleb128 .LVU428
 10687 1032 00       		.uleb128 .LVU428
 10688 1033 00       		.uleb128 .LVU429
 10689 1034 00       		.uleb128 .LVU429
 10690 1035 00       		.uleb128 .LVU430
 10691 1036 00       		.uleb128 .LVU430
 10692 1037 00       		.uleb128 .LVU432
 10693 1038 00       		.uleb128 .LVU432
 10694 1039 00       		.uleb128 .LVU433
 10695 103a 00       		.uleb128 .LVU433
 10696 103b 00       		.uleb128 .LVU435
 10697 103c 00       		.uleb128 .LVU435
 10698 103d 00       		.uleb128 .LVU436
 10699              	.LLST33:
 10700 103e 5C010000 		.4byte	.LVL110
 10701 1042 6E010000 		.4byte	.LVL111
 10702 1046 0100     		.2byte	0x1
 10703 1048 53       		.byte	0x53
 10704 1049 84020000 		.4byte	.LVL147
 10705 104d 86020000 		.4byte	.LVL148
 10706 1051 0100     		.2byte	0x1
 10707 1053 53       		.byte	0x53
 10708 1054 86020000 		.4byte	.LVL148
 10709 1058 88020000 		.4byte	.LVL149
 10710 105c 0400     		.2byte	0x4
 10711 105e 73       		.byte	0x73
 10712 105f 00       		.sleb128 0
 10713 1060 1F       		.byte	0x1f
ARM GAS  /tmp/cclXoGh5.s 			page 189


 10714 1061 9F       		.byte	0x9f
 10715 1062 88020000 		.4byte	.LVL149
 10716 1066 8A020000 		.4byte	.LVL150
 10717 106a 0700     		.2byte	0x7
 10718 106c 71       		.byte	0x71
 10719 106d 00       		.sleb128 0
 10720 106e 31       		.byte	0x31
 10721 106f 24       		.byte	0x24
 10722 1070 72       		.byte	0x72
 10723 1071 00       		.sleb128 0
 10724 1072 22       		.byte	0x22
 10725 1073 8A020000 		.4byte	.LVL150
 10726 1077 8C020000 		.4byte	.LVL151
 10727 107b 0100     		.2byte	0x1
 10728 107d 53       		.byte	0x53
 10729 107e 8C020000 		.4byte	.LVL151
 10730 1082 8E020000 		.4byte	.LVL152
 10731 1086 0400     		.2byte	0x4
 10732 1088 73       		.byte	0x73
 10733 1089 00       		.sleb128 0
 10734 108a 20       		.byte	0x20
 10735 108b 9F       		.byte	0x9f
 10736 108c 8E020000 		.4byte	.LVL152
 10737 1090 94020000 		.4byte	.LVL153
 10738 1094 0100     		.2byte	0x1
 10739 1096 53       		.byte	0x53
 10740 1097 94020000 		.4byte	.LVL153
 10741 109b 98020000 		.4byte	.LVL154
 10742 109f 0700     		.2byte	0x7
 10743 10a1 71       		.byte	0x71
 10744 10a2 00       		.sleb128 0
 10745 10a3 31       		.byte	0x31
 10746 10a4 24       		.byte	0x24
 10747 10a5 72       		.byte	0x72
 10748 10a6 00       		.sleb128 0
 10749 10a7 22       		.byte	0x22
 10750 10a8 00000000 		.4byte	0
 10751 10ac 00000000 		.4byte	0
 10752              	.LVUS34:
 10753 10b0 00       		.uleb128 .LVU329
 10754 10b1 00       		.uleb128 .LVU333
 10755 10b2 00       		.uleb128 .LVU333
 10756 10b3 00       		.uleb128 .LVU334
 10757              	.LLST34:
 10758 10b4 80010000 		.4byte	.LVL116
 10759 10b8 92010000 		.4byte	.LVL117
 10760 10bc 0B00     		.2byte	0xb
 10761 10be 76       		.byte	0x76
 10762 10bf FFFFFFFF 		.sleb128 2147483647
 10762      07
 10763 10c4 31       		.byte	0x31
 10764 10c5 24       		.byte	0x24
 10765 10c6 70       		.byte	0x70
 10766 10c7 00       		.sleb128 0
 10767 10c8 22       		.byte	0x22
 10768 10c9 92010000 		.4byte	.LVL117
 10769 10cd 95010000 		.4byte	.LVL118-1
ARM GAS  /tmp/cclXoGh5.s 			page 190


 10770 10d1 0C00     		.2byte	0xc
 10771 10d3 76       		.byte	0x76
 10772 10d4 FFFFFFFF 		.sleb128 2147483647
 10772      07
 10773 10d9 31       		.byte	0x31
 10774 10da 24       		.byte	0x24
 10775 10db 70       		.byte	0x70
 10776 10dc 14       		.sleb128 20
 10777 10dd 06       		.byte	0x6
 10778 10de 22       		.byte	0x22
 10779 10df 00000000 		.4byte	0
 10780 10e3 00000000 		.4byte	0
 10781              	.LVUS35:
 10782 10e7 01       		.uleb128 .LVU330
 10783 10e8 00       		.uleb128 .LVU333
 10784 10e9 00       		.uleb128 .LVU333
 10785 10ea 00       		.uleb128 .LVU334
 10786              	.LLST35:
 10787 10eb 80010000 		.4byte	.LVL116
 10788 10ef 92010000 		.4byte	.LVL117
 10789 10f3 0D00     		.2byte	0xd
 10790 10f5 76       		.byte	0x76
 10791 10f6 FFFFFFFF 		.sleb128 2147483647
 10791      07
 10792 10fb 31       		.byte	0x31
 10793 10fc 24       		.byte	0x24
 10794 10fd 70       		.byte	0x70
 10795 10fe 00       		.sleb128 0
 10796 10ff 22       		.byte	0x22
 10797 1100 23       		.byte	0x23
 10798 1101 02       		.uleb128 0x2
 10799 1102 92010000 		.4byte	.LVL117
 10800 1106 95010000 		.4byte	.LVL118-1
 10801 110a 0E00     		.2byte	0xe
 10802 110c 76       		.byte	0x76
 10803 110d FFFFFFFF 		.sleb128 2147483647
 10803      07
 10804 1112 31       		.byte	0x31
 10805 1113 24       		.byte	0x24
 10806 1114 70       		.byte	0x70
 10807 1115 14       		.sleb128 20
 10808 1116 06       		.byte	0x6
 10809 1117 22       		.byte	0x22
 10810 1118 23       		.byte	0x23
 10811 1119 02       		.uleb128 0x2
 10812 111a 00000000 		.4byte	0
 10813 111e 00000000 		.4byte	0
 10814              	.LVUS36:
 10815 1122 00       		.uleb128 .LVU334
 10816 1123 00       		.uleb128 .LVU343
 10817              	.LLST36:
 10818 1124 96010000 		.4byte	.LVL118
 10819 1128 AC010000 		.4byte	.LVL119
 10820 112c 0100     		.2byte	0x1
 10821 112e 50       		.byte	0x50
 10822 112f 00000000 		.4byte	0
 10823 1133 00000000 		.4byte	0
ARM GAS  /tmp/cclXoGh5.s 			page 191


 10824              	.LVUS37:
 10825 1137 01       		.uleb128 .LVU344
 10826 1138 00       		.uleb128 .LVU346
 10827 1139 00       		.uleb128 .LVU346
 10828 113a 00       		.uleb128 .LVU347
 10829 113b 00       		.uleb128 .LVU347
 10830 113c 00       		.uleb128 .LVU348
 10831              	.LLST37:
 10832 113d AC010000 		.4byte	.LVL119
 10833 1141 B0010000 		.4byte	.LVL120
 10834 1145 0700     		.2byte	0x7
 10835 1147 75       		.byte	0x75
 10836 1148 00       		.sleb128 0
 10837 1149 34       		.byte	0x34
 10838 114a 24       		.byte	0x24
 10839 114b 34       		.byte	0x34
 10840 114c 26       		.byte	0x26
 10841 114d 9F       		.byte	0x9f
 10842 114e B0010000 		.4byte	.LVL120
 10843 1152 B2010000 		.4byte	.LVL121
 10844 1156 0E00     		.2byte	0xe
 10845 1158 71       		.byte	0x71
 10846 1159 00       		.sleb128 0
 10847 115a 31       		.byte	0x31
 10848 115b 24       		.byte	0x24
 10849 115c 72       		.byte	0x72
 10850 115d 00       		.sleb128 0
 10851 115e 22       		.byte	0x22
 10852 115f 94       		.byte	0x94
 10853 1160 02       		.byte	0x2
 10854 1161 34       		.byte	0x34
 10855 1162 24       		.byte	0x24
 10856 1163 34       		.byte	0x34
 10857 1164 26       		.byte	0x26
 10858 1165 9F       		.byte	0x9f
 10859 1166 B2010000 		.4byte	.LVL121
 10860 116a B4010000 		.4byte	.LVL122
 10861 116e 1400     		.2byte	0x14
 10862 1170 74       		.byte	0x74
 10863 1171 1A       		.sleb128 26
 10864 1172 94       		.byte	0x94
 10865 1173 02       		.byte	0x2
 10866 1174 0A       		.byte	0xa
 10867 1175 FFFF     		.2byte	0xffff
 10868 1177 1A       		.byte	0x1a
 10869 1178 31       		.byte	0x31
 10870 1179 24       		.byte	0x24
 10871 117a 72       		.byte	0x72
 10872 117b 00       		.sleb128 0
 10873 117c 22       		.byte	0x22
 10874 117d 94       		.byte	0x94
 10875 117e 02       		.byte	0x2
 10876 117f 34       		.byte	0x34
 10877 1180 24       		.byte	0x24
 10878 1181 34       		.byte	0x34
 10879 1182 26       		.byte	0x26
 10880 1183 9F       		.byte	0x9f
ARM GAS  /tmp/cclXoGh5.s 			page 192


 10881 1184 00000000 		.4byte	0
 10882 1188 00000000 		.4byte	0
 10883              	.LVUS38:
 10884 118c 00       		.uleb128 .LVU363
 10885 118d 00       		.uleb128 .LVU369
 10886 118e 00       		.uleb128 .LVU414
 10887 118f 00       		.uleb128 .LVU422
 10888 1190 00       		.uleb128 .LVU436
 10889 1191 00       		.uleb128 .LVU439
 10890              	.LLST38:
 10891 1192 D2010000 		.4byte	.LVL128
 10892 1196 EA010000 		.4byte	.LVL130
 10893 119a 0100     		.2byte	0x1
 10894 119c 50       		.byte	0x50
 10895 119d 66020000 		.4byte	.LVL143
 10896 11a1 76020000 		.4byte	.LVL145
 10897 11a5 0100     		.2byte	0x1
 10898 11a7 50       		.byte	0x50
 10899 11a8 98020000 		.4byte	.LVL154
 10900 11ac 9A020000 		.4byte	.LVL155
 10901 11b0 0100     		.2byte	0x1
 10902 11b2 50       		.byte	0x50
 10903 11b3 00000000 		.4byte	0
 10904 11b7 00000000 		.4byte	0
 10905              	.LVUS39:
 10906 11bb 00       		.uleb128 .LVU356
 10907 11bc 00       		.uleb128 .LVU360
 10908 11bd 00       		.uleb128 .LVU360
 10909 11be 00       		.uleb128 .LVU361
 10910 11bf 00       		.uleb128 .LVU361
 10911 11c0 00       		.uleb128 .LVU362
 10912 11c1 00       		.uleb128 .LVU362
 10913 11c2 00       		.uleb128 .LVU363
 10914              	.LLST39:
 10915 11c3 BC010000 		.4byte	.LVL124
 10916 11c7 C6010000 		.4byte	.LVL125
 10917 11cb 0B00     		.2byte	0xb
 10918 11cd 72       		.byte	0x72
 10919 11ce FFFFFFFF 		.sleb128 2147483647
 10919      07
 10920 11d3 31       		.byte	0x31
 10921 11d4 24       		.byte	0x24
 10922 11d5 71       		.byte	0x71
 10923 11d6 00       		.sleb128 0
 10924 11d7 22       		.byte	0x22
 10925 11d8 C6010000 		.4byte	.LVL125
 10926 11dc CA010000 		.4byte	.LVL126
 10927 11e0 0700     		.2byte	0x7
 10928 11e2 73       		.byte	0x73
 10929 11e3 00       		.sleb128 0
 10930 11e4 31       		.byte	0x31
 10931 11e5 24       		.byte	0x24
 10932 11e6 71       		.byte	0x71
 10933 11e7 00       		.sleb128 0
 10934 11e8 22       		.byte	0x22
 10935 11e9 CA010000 		.4byte	.LVL126
 10936 11ed CE010000 		.4byte	.LVL127
ARM GAS  /tmp/cclXoGh5.s 			page 193


 10937 11f1 0800     		.2byte	0x8
 10938 11f3 73       		.byte	0x73
 10939 11f4 00       		.sleb128 0
 10940 11f5 31       		.byte	0x31
 10941 11f6 24       		.byte	0x24
 10942 11f7 74       		.byte	0x74
 10943 11f8 14       		.sleb128 20
 10944 11f9 06       		.byte	0x6
 10945 11fa 22       		.byte	0x22
 10946 11fb CE010000 		.4byte	.LVL127
 10947 11ff D1010000 		.4byte	.LVL128-1
 10948 1203 1400     		.2byte	0x14
 10949 1205 74       		.byte	0x74
 10950 1206 1C       		.sleb128 28
 10951 1207 94       		.byte	0x94
 10952 1208 02       		.byte	0x2
 10953 1209 40       		.byte	0x40
 10954 120a 24       		.byte	0x24
 10955 120b 40       		.byte	0x40
 10956 120c 26       		.byte	0x26
 10957 120d 23       		.byte	0x23
 10958 120e FFFFFFFF 		.uleb128 0x7fffffff
 10958      07
 10959 1213 31       		.byte	0x31
 10960 1214 24       		.byte	0x24
 10961 1215 74       		.byte	0x74
 10962 1216 14       		.sleb128 20
 10963 1217 06       		.byte	0x6
 10964 1218 22       		.byte	0x22
 10965 1219 00000000 		.4byte	0
 10966 121d 00000000 		.4byte	0
 10967              	.LVUS40:
 10968 1221 01       		.uleb128 .LVU357
 10969 1222 00       		.uleb128 .LVU360
 10970 1223 00       		.uleb128 .LVU360
 10971 1224 00       		.uleb128 .LVU361
 10972 1225 00       		.uleb128 .LVU361
 10973 1226 00       		.uleb128 .LVU362
 10974 1227 00       		.uleb128 .LVU362
 10975 1228 00       		.uleb128 .LVU363
 10976              	.LLST40:
 10977 1229 BC010000 		.4byte	.LVL124
 10978 122d C6010000 		.4byte	.LVL125
 10979 1231 0D00     		.2byte	0xd
 10980 1233 72       		.byte	0x72
 10981 1234 FFFFFFFF 		.sleb128 2147483647
 10981      07
 10982 1239 31       		.byte	0x31
 10983 123a 24       		.byte	0x24
 10984 123b 71       		.byte	0x71
 10985 123c 00       		.sleb128 0
 10986 123d 22       		.byte	0x22
 10987 123e 23       		.byte	0x23
 10988 123f 02       		.uleb128 0x2
 10989 1240 C6010000 		.4byte	.LVL125
 10990 1244 CA010000 		.4byte	.LVL126
 10991 1248 0900     		.2byte	0x9
ARM GAS  /tmp/cclXoGh5.s 			page 194


 10992 124a 73       		.byte	0x73
 10993 124b 00       		.sleb128 0
 10994 124c 31       		.byte	0x31
 10995 124d 24       		.byte	0x24
 10996 124e 71       		.byte	0x71
 10997 124f 00       		.sleb128 0
 10998 1250 22       		.byte	0x22
 10999 1251 23       		.byte	0x23
 11000 1252 02       		.uleb128 0x2
 11001 1253 CA010000 		.4byte	.LVL126
 11002 1257 CE010000 		.4byte	.LVL127
 11003 125b 0A00     		.2byte	0xa
 11004 125d 73       		.byte	0x73
 11005 125e 00       		.sleb128 0
 11006 125f 31       		.byte	0x31
 11007 1260 24       		.byte	0x24
 11008 1261 74       		.byte	0x74
 11009 1262 14       		.sleb128 20
 11010 1263 06       		.byte	0x6
 11011 1264 22       		.byte	0x22
 11012 1265 23       		.byte	0x23
 11013 1266 02       		.uleb128 0x2
 11014 1267 CE010000 		.4byte	.LVL127
 11015 126b D1010000 		.4byte	.LVL128-1
 11016 126f 1600     		.2byte	0x16
 11017 1271 74       		.byte	0x74
 11018 1272 1C       		.sleb128 28
 11019 1273 94       		.byte	0x94
 11020 1274 02       		.byte	0x2
 11021 1275 40       		.byte	0x40
 11022 1276 24       		.byte	0x24
 11023 1277 40       		.byte	0x40
 11024 1278 26       		.byte	0x26
 11025 1279 23       		.byte	0x23
 11026 127a FFFFFFFF 		.uleb128 0x7fffffff
 11026      07
 11027 127f 31       		.byte	0x31
 11028 1280 24       		.byte	0x24
 11029 1281 74       		.byte	0x74
 11030 1282 14       		.sleb128 20
 11031 1283 06       		.byte	0x6
 11032 1284 22       		.byte	0x22
 11033 1285 23       		.byte	0x23
 11034 1286 02       		.uleb128 0x2
 11035 1287 00000000 		.4byte	0
 11036 128b 00000000 		.4byte	0
 11037              	.LVUS41:
 11038 128f 00       		.uleb128 .LVU420
 11039 1290 00       		.uleb128 .LVU423
 11040 1291 00       		.uleb128 .LVU441
 11041 1292 00       		.uleb128 .LVU442
 11042              	.LLST41:
 11043 1293 74020000 		.4byte	.LVL144
 11044 1297 7C020000 		.4byte	.LVL146
 11045 129b 0100     		.2byte	0x1
 11046 129d 53       		.byte	0x53
 11047 129e A2020000 		.4byte	.LVL156
ARM GAS  /tmp/cclXoGh5.s 			page 195


 11048 12a2 A4020000 		.4byte	.LVL157
 11049 12a6 0100     		.2byte	0x1
 11050 12a8 53       		.byte	0x53
 11051 12a9 00000000 		.4byte	0
 11052 12ad 00000000 		.4byte	0
 11053              	.LVUS42:
 11054 12b1 02       		.uleb128 .LVU373
 11055 12b2 00       		.uleb128 .LVU377
 11056 12b3 00       		.uleb128 .LVU377
 11057 12b4 00       		.uleb128 .LVU378
 11058 12b5 00       		.uleb128 .LVU378
 11059 12b6 00       		.uleb128 .LVU379
 11060              	.LLST42:
 11061 12b7 FA010000 		.4byte	.LVL131
 11062 12bb FE010000 		.4byte	.LVL132
 11063 12bf 0700     		.2byte	0x7
 11064 12c1 72       		.byte	0x72
 11065 12c2 00       		.sleb128 0
 11066 12c3 70       		.byte	0x70
 11067 12c4 00       		.sleb128 0
 11068 12c5 22       		.byte	0x22
 11069 12c6 23       		.byte	0x23
 11070 12c7 02       		.uleb128 0x2
 11071 12c8 FE010000 		.4byte	.LVL132
 11072 12cc 02020000 		.4byte	.LVL133
 11073 12d0 0800     		.2byte	0x8
 11074 12d2 74       		.byte	0x74
 11075 12d3 04       		.sleb128 4
 11076 12d4 06       		.byte	0x6
 11077 12d5 70       		.byte	0x70
 11078 12d6 00       		.sleb128 0
 11079 12d7 22       		.byte	0x22
 11080 12d8 23       		.byte	0x23
 11081 12d9 02       		.uleb128 0x2
 11082 12da 02020000 		.4byte	.LVL133
 11083 12de 13020000 		.4byte	.LVL134-1
 11084 12e2 1000     		.2byte	0x10
 11085 12e4 74       		.byte	0x74
 11086 12e5 1A       		.sleb128 26
 11087 12e6 94       		.byte	0x94
 11088 12e7 02       		.byte	0x2
 11089 12e8 0A       		.byte	0xa
 11090 12e9 FFFF     		.2byte	0xffff
 11091 12eb 1A       		.byte	0x1a
 11092 12ec 31       		.byte	0x31
 11093 12ed 24       		.byte	0x24
 11094 12ee 74       		.byte	0x74
 11095 12ef 04       		.sleb128 4
 11096 12f0 06       		.byte	0x6
 11097 12f1 22       		.byte	0x22
 11098 12f2 23       		.byte	0x23
 11099 12f3 02       		.uleb128 0x2
 11100 12f4 00000000 		.4byte	0
 11101 12f8 00000000 		.4byte	0
 11102              	.LVUS43:
 11103 12fc 03       		.uleb128 .LVU374
 11104 12fd 00       		.uleb128 .LVU377
ARM GAS  /tmp/cclXoGh5.s 			page 196


 11105 12fe 00       		.uleb128 .LVU377
 11106 12ff 00       		.uleb128 .LVU378
 11107 1300 00       		.uleb128 .LVU378
 11108 1301 00       		.uleb128 .LVU379
 11109              	.LLST43:
 11110 1302 FA010000 		.4byte	.LVL131
 11111 1306 FE010000 		.4byte	.LVL132
 11112 130a 0700     		.2byte	0x7
 11113 130c 72       		.byte	0x72
 11114 130d 00       		.sleb128 0
 11115 130e 70       		.byte	0x70
 11116 130f 00       		.sleb128 0
 11117 1310 22       		.byte	0x22
 11118 1311 23       		.byte	0x23
 11119 1312 04       		.uleb128 0x4
 11120 1313 FE010000 		.4byte	.LVL132
 11121 1317 02020000 		.4byte	.LVL133
 11122 131b 0800     		.2byte	0x8
 11123 131d 74       		.byte	0x74
 11124 131e 04       		.sleb128 4
 11125 131f 06       		.byte	0x6
 11126 1320 70       		.byte	0x70
 11127 1321 00       		.sleb128 0
 11128 1322 22       		.byte	0x22
 11129 1323 23       		.byte	0x23
 11130 1324 04       		.uleb128 0x4
 11131 1325 02020000 		.4byte	.LVL133
 11132 1329 13020000 		.4byte	.LVL134-1
 11133 132d 1000     		.2byte	0x10
 11134 132f 74       		.byte	0x74
 11135 1330 1A       		.sleb128 26
 11136 1331 94       		.byte	0x94
 11137 1332 02       		.byte	0x2
 11138 1333 0A       		.byte	0xa
 11139 1334 FFFF     		.2byte	0xffff
 11140 1336 1A       		.byte	0x1a
 11141 1337 31       		.byte	0x31
 11142 1338 24       		.byte	0x24
 11143 1339 74       		.byte	0x74
 11144 133a 04       		.sleb128 4
 11145 133b 06       		.byte	0x6
 11146 133c 22       		.byte	0x22
 11147 133d 23       		.byte	0x23
 11148 133e 04       		.uleb128 0x4
 11149 133f 00000000 		.4byte	0
 11150 1343 00000000 		.4byte	0
 11151              	.LVUS44:
 11152 1347 01       		.uleb128 .LVU387
 11153 1348 00       		.uleb128 .LVU393
 11154 1349 00       		.uleb128 .LVU393
 11155 134a 00       		.uleb128 .LVU394
 11156              	.LLST44:
 11157 134b 2E020000 		.4byte	.LVL136
 11158 134f 3C020000 		.4byte	.LVL137
 11159 1353 0700     		.2byte	0x7
 11160 1355 75       		.byte	0x75
 11161 1356 00       		.sleb128 0
ARM GAS  /tmp/cclXoGh5.s 			page 197


 11162 1357 0A       		.byte	0xa
 11163 1358 FF0F     		.2byte	0xfff
 11164 135a 1A       		.byte	0x1a
 11165 135b 9F       		.byte	0x9f
 11166 135c 3C020000 		.4byte	.LVL137
 11167 1360 3E020000 		.4byte	.LVL138
 11168 1364 0F00     		.2byte	0xf
 11169 1366 71       		.byte	0x71
 11170 1367 7F       		.sleb128 -1
 11171 1368 31       		.byte	0x31
 11172 1369 24       		.byte	0x24
 11173 136a 74       		.byte	0x74
 11174 136b 04       		.sleb128 4
 11175 136c 06       		.byte	0x6
 11176 136d 22       		.byte	0x22
 11177 136e 94       		.byte	0x94
 11178 136f 02       		.byte	0x2
 11179 1370 0A       		.byte	0xa
 11180 1371 FF0F     		.2byte	0xfff
 11181 1373 1A       		.byte	0x1a
 11182 1374 9F       		.byte	0x9f
 11183 1375 00000000 		.4byte	0
 11184 1379 00000000 		.4byte	0
 11185              	.LVUS0:
 11186 137d 00       		.uleb128 0
 11187 137e 00       		.uleb128 .LVU6
 11188 137f 00       		.uleb128 .LVU6
 11189 1380 00       		.uleb128 .LVU7
 11190 1381 00       		.uleb128 .LVU7
 11191 1382 00       		.uleb128 .LVU10
 11192 1383 00       		.uleb128 .LVU10
 11193 1384 00       		.uleb128 .LVU11
 11194 1385 00       		.uleb128 .LVU11
 11195 1386 00       		.uleb128 .LVU13
 11196 1387 00       		.uleb128 .LVU13
 11197 1388 00       		.uleb128 .LVU14
 11198 1389 00       		.uleb128 .LVU14
 11199 138a 00       		.uleb128 .LVU17
 11200 138b 00       		.uleb128 .LVU17
 11201 138c 00       		.uleb128 .LVU18
 11202 138d 00       		.uleb128 .LVU18
 11203 138e 00       		.uleb128 .LVU21
 11204 138f 00       		.uleb128 .LVU21
 11205 1390 00       		.uleb128 .LVU22
 11206 1391 00       		.uleb128 .LVU22
 11207 1392 00       		.uleb128 .LVU25
 11208 1393 00       		.uleb128 .LVU25
 11209 1394 00       		.uleb128 .LVU26
 11210 1395 00       		.uleb128 .LVU26
 11211 1396 00       		.uleb128 .LVU33
 11212 1397 00       		.uleb128 .LVU33
 11213 1398 00       		.uleb128 .LVU34
 11214 1399 00       		.uleb128 .LVU34
 11215 139a 00       		.uleb128 .LVU39
 11216 139b 00       		.uleb128 .LVU39
 11217 139c 00       		.uleb128 .LVU43
 11218 139d 00       		.uleb128 .LVU43
ARM GAS  /tmp/cclXoGh5.s 			page 198


 11219 139e 00       		.uleb128 .LVU45
 11220 139f 00       		.uleb128 .LVU45
 11221 13a0 00       		.uleb128 .LVU47
 11222 13a1 00       		.uleb128 .LVU47
 11223 13a2 00       		.uleb128 .LVU48
 11224 13a3 00       		.uleb128 .LVU48
 11225 13a4 00       		.uleb128 .LVU50
 11226 13a5 00       		.uleb128 .LVU50
 11227 13a6 00       		.uleb128 .LVU51
 11228 13a7 00       		.uleb128 .LVU51
 11229 13a8 00       		.uleb128 .LVU53
 11230 13a9 00       		.uleb128 .LVU53
 11231 13aa 00       		.uleb128 .LVU54
 11232 13ab 00       		.uleb128 .LVU54
 11233 13ac 00       		.uleb128 .LVU56
 11234 13ad 00       		.uleb128 .LVU56
 11235 13ae 00       		.uleb128 .LVU57
 11236 13af 00       		.uleb128 .LVU57
 11237 13b0 00       		.uleb128 .LVU59
 11238 13b1 00       		.uleb128 .LVU59
 11239 13b2 00       		.uleb128 .LVU60
 11240 13b3 00       		.uleb128 .LVU60
 11241 13b4 00       		.uleb128 .LVU62
 11242 13b5 00       		.uleb128 .LVU62
 11243 13b6 00       		.uleb128 .LVU63
 11244 13b7 00       		.uleb128 .LVU63
 11245 13b8 00       		.uleb128 .LVU65
 11246 13b9 00       		.uleb128 .LVU65
 11247 13ba 00       		.uleb128 .LVU66
 11248 13bb 00       		.uleb128 .LVU66
 11249 13bc 00       		.uleb128 .LVU68
 11250 13bd 00       		.uleb128 .LVU68
 11251 13be 00       		.uleb128 .LVU69
 11252 13bf 00       		.uleb128 .LVU69
 11253 13c0 00       		.uleb128 .LVU71
 11254 13c1 00       		.uleb128 .LVU71
 11255 13c2 00       		.uleb128 .LVU72
 11256 13c3 00       		.uleb128 .LVU72
 11257 13c4 00       		.uleb128 .LVU75
 11258 13c5 00       		.uleb128 .LVU75
 11259 13c6 00       		.uleb128 .LVU76
 11260 13c7 00       		.uleb128 .LVU76
 11261 13c8 00       		.uleb128 .LVU79
 11262 13c9 00       		.uleb128 .LVU79
 11263 13ca 00       		.uleb128 0
 11264              	.LLST0:
 11265 13cb 00000000 		.4byte	.LVL0
 11266 13cf 32000000 		.4byte	.LVL1
 11267 13d3 0100     		.2byte	0x1
 11268 13d5 50       		.byte	0x50
 11269 13d6 32000000 		.4byte	.LVL1
 11270 13da 38000000 		.4byte	.LVL2
 11271 13de 0400     		.2byte	0x4
 11272 13e0 F3       		.byte	0xf3
 11273 13e1 01       		.uleb128 0x1
 11274 13e2 50       		.byte	0x50
 11275 13e3 9F       		.byte	0x9f
ARM GAS  /tmp/cclXoGh5.s 			page 199


 11276 13e4 38000000 		.4byte	.LVL2
 11277 13e8 3E000000 		.4byte	.LVL4
 11278 13ec 0100     		.2byte	0x1
 11279 13ee 50       		.byte	0x50
 11280 13ef 3E000000 		.4byte	.LVL4
 11281 13f3 4E000000 		.4byte	.LVL5
 11282 13f7 0400     		.2byte	0x4
 11283 13f9 F3       		.byte	0xf3
 11284 13fa 01       		.uleb128 0x1
 11285 13fb 50       		.byte	0x50
 11286 13fc 9F       		.byte	0x9f
 11287 13fd 4E000000 		.4byte	.LVL5
 11288 1401 52000000 		.4byte	.LVL6
 11289 1405 0100     		.2byte	0x1
 11290 1407 50       		.byte	0x50
 11291 1408 52000000 		.4byte	.LVL6
 11292 140c 54000000 		.4byte	.LVL7
 11293 1410 0400     		.2byte	0x4
 11294 1412 F3       		.byte	0xf3
 11295 1413 01       		.uleb128 0x1
 11296 1414 50       		.byte	0x50
 11297 1415 9F       		.byte	0x9f
 11298 1416 54000000 		.4byte	.LVL7
 11299 141a 58000000 		.4byte	.LVL9
 11300 141e 0100     		.2byte	0x1
 11301 1420 50       		.byte	0x50
 11302 1421 58000000 		.4byte	.LVL9
 11303 1425 5A000000 		.4byte	.LVL10
 11304 1429 0400     		.2byte	0x4
 11305 142b F3       		.byte	0xf3
 11306 142c 01       		.uleb128 0x1
 11307 142d 50       		.byte	0x50
 11308 142e 9F       		.byte	0x9f
 11309 142f 5A000000 		.4byte	.LVL10
 11310 1433 5E000000 		.4byte	.LVL12
 11311 1437 0100     		.2byte	0x1
 11312 1439 50       		.byte	0x50
 11313 143a 5E000000 		.4byte	.LVL12
 11314 143e 60000000 		.4byte	.LVL13
 11315 1442 0400     		.2byte	0x4
 11316 1444 F3       		.byte	0xf3
 11317 1445 01       		.uleb128 0x1
 11318 1446 50       		.byte	0x50
 11319 1447 9F       		.byte	0x9f
 11320 1448 60000000 		.4byte	.LVL13
 11321 144c 66000000 		.4byte	.LVL15
 11322 1450 0100     		.2byte	0x1
 11323 1452 50       		.byte	0x50
 11324 1453 66000000 		.4byte	.LVL15
 11325 1457 68000000 		.4byte	.LVL16
 11326 145b 0400     		.2byte	0x4
 11327 145d F3       		.byte	0xf3
 11328 145e 01       		.uleb128 0x1
 11329 145f 50       		.byte	0x50
 11330 1460 9F       		.byte	0x9f
 11331 1461 68000000 		.4byte	.LVL16
 11332 1465 77000000 		.4byte	.LVL19-1
ARM GAS  /tmp/cclXoGh5.s 			page 200


 11333 1469 0100     		.2byte	0x1
 11334 146b 50       		.byte	0x50
 11335 146c 77000000 		.4byte	.LVL19-1
 11336 1470 7A000000 		.4byte	.LVL20
 11337 1474 0200     		.2byte	0x2
 11338 1476 91       		.byte	0x91
 11339 1477 6C       		.sleb128 -20
 11340 1478 7A000000 		.4byte	.LVL20
 11341 147c 8E000000 		.4byte	.LVL22
 11342 1480 0400     		.2byte	0x4
 11343 1482 F3       		.byte	0xf3
 11344 1483 01       		.uleb128 0x1
 11345 1484 50       		.byte	0x50
 11346 1485 9F       		.byte	0x9f
 11347 1486 8E000000 		.4byte	.LVL22
 11348 148a 96000000 		.4byte	.LVL23
 11349 148e 0100     		.2byte	0x1
 11350 1490 50       		.byte	0x50
 11351 1491 96000000 		.4byte	.LVL23
 11352 1495 9E000000 		.4byte	.LVL25
 11353 1499 0400     		.2byte	0x4
 11354 149b F3       		.byte	0xf3
 11355 149c 01       		.uleb128 0x1
 11356 149d 50       		.byte	0x50
 11357 149e 9F       		.byte	0x9f
 11358 149f 9E000000 		.4byte	.LVL25
 11359 14a3 A2000000 		.4byte	.LVL26
 11360 14a7 0100     		.2byte	0x1
 11361 14a9 50       		.byte	0x50
 11362 14aa A2000000 		.4byte	.LVL26
 11363 14ae A4000000 		.4byte	.LVL27
 11364 14b2 0400     		.2byte	0x4
 11365 14b4 F3       		.byte	0xf3
 11366 14b5 01       		.uleb128 0x1
 11367 14b6 50       		.byte	0x50
 11368 14b7 9F       		.byte	0x9f
 11369 14b8 A4000000 		.4byte	.LVL27
 11370 14bc A8000000 		.4byte	.LVL28
 11371 14c0 0100     		.2byte	0x1
 11372 14c2 50       		.byte	0x50
 11373 14c3 A8000000 		.4byte	.LVL28
 11374 14c7 AA000000 		.4byte	.LVL29
 11375 14cb 0400     		.2byte	0x4
 11376 14cd F3       		.byte	0xf3
 11377 14ce 01       		.uleb128 0x1
 11378 14cf 50       		.byte	0x50
 11379 14d0 9F       		.byte	0x9f
 11380 14d1 AA000000 		.4byte	.LVL29
 11381 14d5 AE000000 		.4byte	.LVL30
 11382 14d9 0100     		.2byte	0x1
 11383 14db 50       		.byte	0x50
 11384 14dc AE000000 		.4byte	.LVL30
 11385 14e0 B0000000 		.4byte	.LVL31
 11386 14e4 0400     		.2byte	0x4
 11387 14e6 F3       		.byte	0xf3
 11388 14e7 01       		.uleb128 0x1
 11389 14e8 50       		.byte	0x50
ARM GAS  /tmp/cclXoGh5.s 			page 201


 11390 14e9 9F       		.byte	0x9f
 11391 14ea B0000000 		.4byte	.LVL31
 11392 14ee B2000000 		.4byte	.LVL32
 11393 14f2 0100     		.2byte	0x1
 11394 14f4 50       		.byte	0x50
 11395 14f5 B2000000 		.4byte	.LVL32
 11396 14f9 BA000000 		.4byte	.LVL33
 11397 14fd 0400     		.2byte	0x4
 11398 14ff F3       		.byte	0xf3
 11399 1500 01       		.uleb128 0x1
 11400 1501 50       		.byte	0x50
 11401 1502 9F       		.byte	0x9f
 11402 1503 BA000000 		.4byte	.LVL33
 11403 1507 BC000000 		.4byte	.LVL34
 11404 150b 0100     		.2byte	0x1
 11405 150d 50       		.byte	0x50
 11406 150e BC000000 		.4byte	.LVL34
 11407 1512 C2000000 		.4byte	.LVL35
 11408 1516 0400     		.2byte	0x4
 11409 1518 F3       		.byte	0xf3
 11410 1519 01       		.uleb128 0x1
 11411 151a 50       		.byte	0x50
 11412 151b 9F       		.byte	0x9f
 11413 151c C2000000 		.4byte	.LVL35
 11414 1520 C8000000 		.4byte	.LVL36
 11415 1524 0100     		.2byte	0x1
 11416 1526 50       		.byte	0x50
 11417 1527 C8000000 		.4byte	.LVL36
 11418 152b CC000000 		.4byte	.LVL37
 11419 152f 0400     		.2byte	0x4
 11420 1531 F3       		.byte	0xf3
 11421 1532 01       		.uleb128 0x1
 11422 1533 50       		.byte	0x50
 11423 1534 9F       		.byte	0x9f
 11424 1535 CC000000 		.4byte	.LVL37
 11425 1539 D2000000 		.4byte	.LVL38
 11426 153d 0100     		.2byte	0x1
 11427 153f 50       		.byte	0x50
 11428 1540 D2000000 		.4byte	.LVL38
 11429 1544 D6000000 		.4byte	.LVL39
 11430 1548 0400     		.2byte	0x4
 11431 154a F3       		.byte	0xf3
 11432 154b 01       		.uleb128 0x1
 11433 154c 50       		.byte	0x50
 11434 154d 9F       		.byte	0x9f
 11435 154e D6000000 		.4byte	.LVL39
 11436 1552 DC000000 		.4byte	.LVL40
 11437 1556 0100     		.2byte	0x1
 11438 1558 50       		.byte	0x50
 11439 1559 DC000000 		.4byte	.LVL40
 11440 155d E0000000 		.4byte	.LVL41
 11441 1561 0400     		.2byte	0x4
 11442 1563 F3       		.byte	0xf3
 11443 1564 01       		.uleb128 0x1
 11444 1565 50       		.byte	0x50
 11445 1566 9F       		.byte	0x9f
 11446 1567 E0000000 		.4byte	.LVL41
ARM GAS  /tmp/cclXoGh5.s 			page 202


 11447 156b E6000000 		.4byte	.LVL42
 11448 156f 0100     		.2byte	0x1
 11449 1571 50       		.byte	0x50
 11450 1572 E6000000 		.4byte	.LVL42
 11451 1576 EA000000 		.4byte	.LVL43
 11452 157a 0400     		.2byte	0x4
 11453 157c F3       		.byte	0xf3
 11454 157d 01       		.uleb128 0x1
 11455 157e 50       		.byte	0x50
 11456 157f 9F       		.byte	0x9f
 11457 1580 EA000000 		.4byte	.LVL43
 11458 1584 F2000000 		.4byte	.LVL45
 11459 1588 0100     		.2byte	0x1
 11460 158a 50       		.byte	0x50
 11461 158b F2000000 		.4byte	.LVL45
 11462 158f F6000000 		.4byte	.LVL46
 11463 1593 0400     		.2byte	0x4
 11464 1595 F3       		.byte	0xf3
 11465 1596 01       		.uleb128 0x1
 11466 1597 50       		.byte	0x50
 11467 1598 9F       		.byte	0x9f
 11468 1599 F6000000 		.4byte	.LVL46
 11469 159d FC000000 		.4byte	.LVL48
 11470 15a1 0100     		.2byte	0x1
 11471 15a3 50       		.byte	0x50
 11472 15a4 FC000000 		.4byte	.LVL48
 11473 15a8 0C010000 		.4byte	.LFE3
 11474 15ac 0400     		.2byte	0x4
 11475 15ae F3       		.byte	0xf3
 11476 15af 01       		.uleb128 0x1
 11477 15b0 50       		.byte	0x50
 11478 15b1 9F       		.byte	0x9f
 11479 15b2 00000000 		.4byte	0
 11480 15b6 00000000 		.4byte	0
 11481              	.LVUS1:
 11482 15ba 00       		.uleb128 0
 11483 15bb 00       		.uleb128 .LVU10
 11484 15bc 00       		.uleb128 .LVU10
 11485 15bd 00       		.uleb128 .LVU11
 11486 15be 00       		.uleb128 .LVU11
 11487 15bf 00       		.uleb128 .LVU32
 11488 15c0 00       		.uleb128 .LVU32
 11489 15c1 00       		.uleb128 .LVU39
 11490 15c2 00       		.uleb128 .LVU39
 11491 15c3 00       		.uleb128 .LVU80
 11492 15c4 00       		.uleb128 .LVU80
 11493 15c5 00       		.uleb128 0
 11494              	.LLST1:
 11495 15c6 00000000 		.4byte	.LVL0
 11496 15ca 3E000000 		.4byte	.LVL4
 11497 15ce 0100     		.2byte	0x1
 11498 15d0 51       		.byte	0x51
 11499 15d1 3E000000 		.4byte	.LVL4
 11500 15d5 4E000000 		.4byte	.LVL5
 11501 15d9 0400     		.2byte	0x4
 11502 15db F3       		.byte	0xf3
 11503 15dc 01       		.uleb128 0x1
ARM GAS  /tmp/cclXoGh5.s 			page 203


 11504 15dd 51       		.byte	0x51
 11505 15de 9F       		.byte	0x9f
 11506 15df 4E000000 		.4byte	.LVL5
 11507 15e3 72000000 		.4byte	.LVL18
 11508 15e7 0100     		.2byte	0x1
 11509 15e9 51       		.byte	0x51
 11510 15ea 72000000 		.4byte	.LVL18
 11511 15ee 8E000000 		.4byte	.LVL22
 11512 15f2 0400     		.2byte	0x4
 11513 15f4 F3       		.byte	0xf3
 11514 15f5 01       		.uleb128 0x1
 11515 15f6 51       		.byte	0x51
 11516 15f7 9F       		.byte	0x9f
 11517 15f8 8E000000 		.4byte	.LVL22
 11518 15fc FE000000 		.4byte	.LVL49
 11519 1600 0100     		.2byte	0x1
 11520 1602 51       		.byte	0x51
 11521 1603 FE000000 		.4byte	.LVL49
 11522 1607 0C010000 		.4byte	.LFE3
 11523 160b 0400     		.2byte	0x4
 11524 160d F3       		.byte	0xf3
 11525 160e 01       		.uleb128 0x1
 11526 160f 51       		.byte	0x51
 11527 1610 9F       		.byte	0x9f
 11528 1611 00000000 		.4byte	0
 11529 1615 00000000 		.4byte	0
 11530              	.LVUS2:
 11531 1619 00       		.uleb128 0
 11532 161a 00       		.uleb128 .LVU9
 11533 161b 00       		.uleb128 .LVU9
 11534 161c 00       		.uleb128 .LVU11
 11535 161d 00       		.uleb128 .LVU11
 11536 161e 00       		.uleb128 .LVU16
 11537 161f 00       		.uleb128 .LVU16
 11538 1620 00       		.uleb128 .LVU18
 11539 1621 00       		.uleb128 .LVU18
 11540 1622 00       		.uleb128 .LVU20
 11541 1623 00       		.uleb128 .LVU20
 11542 1624 00       		.uleb128 .LVU22
 11543 1625 00       		.uleb128 .LVU22
 11544 1626 00       		.uleb128 .LVU24
 11545 1627 00       		.uleb128 .LVU24
 11546 1628 00       		.uleb128 .LVU26
 11547 1629 00       		.uleb128 .LVU26
 11548 162a 00       		.uleb128 .LVU33
 11549 162b 00       		.uleb128 .LVU33
 11550 162c 00       		.uleb128 .LVU39
 11551 162d 00       		.uleb128 .LVU39
 11552 162e 00       		.uleb128 .LVU44
 11553 162f 00       		.uleb128 .LVU44
 11554 1630 00       		.uleb128 .LVU45
 11555 1631 00       		.uleb128 .LVU45
 11556 1632 00       		.uleb128 .LVU78
 11557 1633 00       		.uleb128 .LVU78
 11558 1634 00       		.uleb128 0
 11559              	.LLST2:
 11560 1635 00000000 		.4byte	.LVL0
ARM GAS  /tmp/cclXoGh5.s 			page 204


 11561 1639 3C000000 		.4byte	.LVL3
 11562 163d 0100     		.2byte	0x1
 11563 163f 52       		.byte	0x52
 11564 1640 3C000000 		.4byte	.LVL3
 11565 1644 4E000000 		.4byte	.LVL5
 11566 1648 0400     		.2byte	0x4
 11567 164a F3       		.byte	0xf3
 11568 164b 01       		.uleb128 0x1
 11569 164c 52       		.byte	0x52
 11570 164d 9F       		.byte	0x9f
 11571 164e 4E000000 		.4byte	.LVL5
 11572 1652 56000000 		.4byte	.LVL8
 11573 1656 0100     		.2byte	0x1
 11574 1658 52       		.byte	0x52
 11575 1659 56000000 		.4byte	.LVL8
 11576 165d 5A000000 		.4byte	.LVL10
 11577 1661 0400     		.2byte	0x4
 11578 1663 F3       		.byte	0xf3
 11579 1664 01       		.uleb128 0x1
 11580 1665 52       		.byte	0x52
 11581 1666 9F       		.byte	0x9f
 11582 1667 5A000000 		.4byte	.LVL10
 11583 166b 5C000000 		.4byte	.LVL11
 11584 166f 0100     		.2byte	0x1
 11585 1671 52       		.byte	0x52
 11586 1672 5C000000 		.4byte	.LVL11
 11587 1676 60000000 		.4byte	.LVL13
 11588 167a 0400     		.2byte	0x4
 11589 167c F3       		.byte	0xf3
 11590 167d 01       		.uleb128 0x1
 11591 167e 52       		.byte	0x52
 11592 167f 9F       		.byte	0x9f
 11593 1680 60000000 		.4byte	.LVL13
 11594 1684 64000000 		.4byte	.LVL14
 11595 1688 0100     		.2byte	0x1
 11596 168a 52       		.byte	0x52
 11597 168b 64000000 		.4byte	.LVL14
 11598 168f 68000000 		.4byte	.LVL16
 11599 1693 0400     		.2byte	0x4
 11600 1695 F3       		.byte	0xf3
 11601 1696 01       		.uleb128 0x1
 11602 1697 52       		.byte	0x52
 11603 1698 9F       		.byte	0x9f
 11604 1699 68000000 		.4byte	.LVL16
 11605 169d 77000000 		.4byte	.LVL19-1
 11606 16a1 0100     		.2byte	0x1
 11607 16a3 52       		.byte	0x52
 11608 16a4 77000000 		.4byte	.LVL19-1
 11609 16a8 8E000000 		.4byte	.LVL22
 11610 16ac 0400     		.2byte	0x4
 11611 16ae F3       		.byte	0xf3
 11612 16af 01       		.uleb128 0x1
 11613 16b0 52       		.byte	0x52
 11614 16b1 9F       		.byte	0x9f
 11615 16b2 8E000000 		.4byte	.LVL22
 11616 16b6 9A000000 		.4byte	.LVL24
 11617 16ba 0100     		.2byte	0x1
ARM GAS  /tmp/cclXoGh5.s 			page 205


 11618 16bc 52       		.byte	0x52
 11619 16bd 9A000000 		.4byte	.LVL24
 11620 16c1 9E000000 		.4byte	.LVL25
 11621 16c5 0400     		.2byte	0x4
 11622 16c7 F3       		.byte	0xf3
 11623 16c8 01       		.uleb128 0x1
 11624 16c9 52       		.byte	0x52
 11625 16ca 9F       		.byte	0x9f
 11626 16cb 9E000000 		.4byte	.LVL25
 11627 16cf FA000000 		.4byte	.LVL47
 11628 16d3 0100     		.2byte	0x1
 11629 16d5 52       		.byte	0x52
 11630 16d6 FA000000 		.4byte	.LVL47
 11631 16da 0C010000 		.4byte	.LFE3
 11632 16de 0400     		.2byte	0x4
 11633 16e0 F3       		.byte	0xf3
 11634 16e1 01       		.uleb128 0x1
 11635 16e2 52       		.byte	0x52
 11636 16e3 9F       		.byte	0x9f
 11637 16e4 00000000 		.4byte	0
 11638 16e8 00000000 		.4byte	0
 11639              	.LVUS3:
 11640 16ec 00       		.uleb128 0
 11641 16ed 00       		.uleb128 .LVU10
 11642 16ee 00       		.uleb128 .LVU10
 11643 16ef 00       		.uleb128 .LVU11
 11644 16f0 00       		.uleb128 .LVU11
 11645 16f1 00       		.uleb128 .LVU30
 11646 16f2 00       		.uleb128 .LVU30
 11647 16f3 00       		.uleb128 .LVU39
 11648 16f4 00       		.uleb128 .LVU39
 11649 16f5 00       		.uleb128 .LVU74
 11650 16f6 00       		.uleb128 .LVU74
 11651 16f7 00       		.uleb128 .LVU76
 11652 16f8 00       		.uleb128 .LVU76
 11653 16f9 00       		.uleb128 .LVU80
 11654 16fa 00       		.uleb128 .LVU80
 11655 16fb 00       		.uleb128 0
 11656              	.LLST3:
 11657 16fc 00000000 		.4byte	.LVL0
 11658 1700 3E000000 		.4byte	.LVL4
 11659 1704 0100     		.2byte	0x1
 11660 1706 53       		.byte	0x53
 11661 1707 3E000000 		.4byte	.LVL4
 11662 170b 4E000000 		.4byte	.LVL5
 11663 170f 0400     		.2byte	0x4
 11664 1711 F3       		.byte	0xf3
 11665 1712 01       		.uleb128 0x1
 11666 1713 53       		.byte	0x53
 11667 1714 9F       		.byte	0x9f
 11668 1715 4E000000 		.4byte	.LVL5
 11669 1719 6E000000 		.4byte	.LVL17
 11670 171d 0100     		.2byte	0x1
 11671 171f 53       		.byte	0x53
 11672 1720 6E000000 		.4byte	.LVL17
 11673 1724 8E000000 		.4byte	.LVL22
 11674 1728 0400     		.2byte	0x4
ARM GAS  /tmp/cclXoGh5.s 			page 206


 11675 172a F3       		.byte	0xf3
 11676 172b 01       		.uleb128 0x1
 11677 172c 53       		.byte	0x53
 11678 172d 9F       		.byte	0x9f
 11679 172e 8E000000 		.4byte	.LVL22
 11680 1732 EE000000 		.4byte	.LVL44
 11681 1736 0100     		.2byte	0x1
 11682 1738 53       		.byte	0x53
 11683 1739 EE000000 		.4byte	.LVL44
 11684 173d F6000000 		.4byte	.LVL46
 11685 1741 0400     		.2byte	0x4
 11686 1743 F3       		.byte	0xf3
 11687 1744 01       		.uleb128 0x1
 11688 1745 53       		.byte	0x53
 11689 1746 9F       		.byte	0x9f
 11690 1747 F6000000 		.4byte	.LVL46
 11691 174b FE000000 		.4byte	.LVL49
 11692 174f 0100     		.2byte	0x1
 11693 1751 53       		.byte	0x53
 11694 1752 FE000000 		.4byte	.LVL49
 11695 1756 0C010000 		.4byte	.LFE3
 11696 175a 0400     		.2byte	0x4
 11697 175c F3       		.byte	0xf3
 11698 175d 01       		.uleb128 0x1
 11699 175e 53       		.byte	0x53
 11700 175f 9F       		.byte	0x9f
 11701 1760 00000000 		.4byte	0
 11702 1764 00000000 		.4byte	0
 11703              	.LVUS9:
 11704 1768 00       		.uleb128 0
 11705 1769 00       		.uleb128 .LVU154
 11706 176a 00       		.uleb128 .LVU154
 11707 176b 00       		.uleb128 .LVU164
 11708 176c 00       		.uleb128 .LVU164
 11709 176d 00       		.uleb128 .LVU166
 11710 176e 00       		.uleb128 .LVU166
 11711 176f 00       		.uleb128 .LVU167
 11712 1770 00       		.uleb128 .LVU167
 11713 1771 00       		.uleb128 .LVU178
 11714 1772 00       		.uleb128 .LVU178
 11715 1773 00       		.uleb128 .LVU181
 11716 1774 00       		.uleb128 .LVU181
 11717 1775 00       		.uleb128 .LVU182
 11718 1776 00       		.uleb128 .LVU182
 11719 1777 00       		.uleb128 0
 11720              	.LLST9:
 11721 1778 00000000 		.4byte	.LVL64
 11722 177c 3A000000 		.4byte	.LVL71
 11723 1780 0100     		.2byte	0x1
 11724 1782 50       		.byte	0x50
 11725 1783 3A000000 		.4byte	.LVL71
 11726 1787 4C000000 		.4byte	.LVL72
 11727 178b 0100     		.2byte	0x1
 11728 178d 56       		.byte	0x56
 11729 178e 4C000000 		.4byte	.LVL72
 11730 1792 5C000000 		.4byte	.LVL73
 11731 1796 0400     		.2byte	0x4
ARM GAS  /tmp/cclXoGh5.s 			page 207


 11732 1798 F3       		.byte	0xf3
 11733 1799 01       		.uleb128 0x1
 11734 179a 50       		.byte	0x50
 11735 179b 9F       		.byte	0x9f
 11736 179c 5C000000 		.4byte	.LVL73
 11737 17a0 60000000 		.4byte	.LVL74
 11738 17a4 0100     		.2byte	0x1
 11739 17a6 50       		.byte	0x50
 11740 17a7 60000000 		.4byte	.LVL74
 11741 17ab 78000000 		.4byte	.LVL76
 11742 17af 0100     		.2byte	0x1
 11743 17b1 56       		.byte	0x56
 11744 17b2 78000000 		.4byte	.LVL76
 11745 17b6 84000000 		.4byte	.LVL78
 11746 17ba 0100     		.2byte	0x1
 11747 17bc 50       		.byte	0x50
 11748 17bd 84000000 		.4byte	.LVL78
 11749 17c1 8C000000 		.4byte	.LVL80
 11750 17c5 0100     		.2byte	0x1
 11751 17c7 56       		.byte	0x56
 11752 17c8 8C000000 		.4byte	.LVL80
 11753 17cc 94000000 		.4byte	.LFE2
 11754 17d0 0400     		.2byte	0x4
 11755 17d2 F3       		.byte	0xf3
 11756 17d3 01       		.uleb128 0x1
 11757 17d4 50       		.byte	0x50
 11758 17d5 9F       		.byte	0x9f
 11759 17d6 00000000 		.4byte	0
 11760 17da 00000000 		.4byte	0
 11761              	.LVUS10:
 11762 17de 00       		.uleb128 0
 11763 17df 00       		.uleb128 .LVU154
 11764 17e0 00       		.uleb128 .LVU154
 11765 17e1 00       		.uleb128 .LVU166
 11766 17e2 00       		.uleb128 .LVU166
 11767 17e3 00       		.uleb128 .LVU167
 11768 17e4 00       		.uleb128 .LVU167
 11769 17e5 00       		.uleb128 .LVU178
 11770 17e6 00       		.uleb128 .LVU178
 11771 17e7 00       		.uleb128 .LVU180
 11772 17e8 00       		.uleb128 .LVU180
 11773 17e9 00       		.uleb128 0
 11774              	.LLST10:
 11775 17ea 00000000 		.4byte	.LVL64
 11776 17ee 3A000000 		.4byte	.LVL71
 11777 17f2 0100     		.2byte	0x1
 11778 17f4 51       		.byte	0x51
 11779 17f5 3A000000 		.4byte	.LVL71
 11780 17f9 5C000000 		.4byte	.LVL73
 11781 17fd 0400     		.2byte	0x4
 11782 17ff F3       		.byte	0xf3
 11783 1800 01       		.uleb128 0x1
 11784 1801 51       		.byte	0x51
 11785 1802 9F       		.byte	0x9f
 11786 1803 5C000000 		.4byte	.LVL73
 11787 1807 60000000 		.4byte	.LVL74
 11788 180b 0100     		.2byte	0x1
ARM GAS  /tmp/cclXoGh5.s 			page 208


 11789 180d 51       		.byte	0x51
 11790 180e 60000000 		.4byte	.LVL74
 11791 1812 78000000 		.4byte	.LVL76
 11792 1816 0400     		.2byte	0x4
 11793 1818 F3       		.byte	0xf3
 11794 1819 01       		.uleb128 0x1
 11795 181a 51       		.byte	0x51
 11796 181b 9F       		.byte	0x9f
 11797 181c 78000000 		.4byte	.LVL76
 11798 1820 82000000 		.4byte	.LVL77
 11799 1824 0100     		.2byte	0x1
 11800 1826 51       		.byte	0x51
 11801 1827 82000000 		.4byte	.LVL77
 11802 182b 94000000 		.4byte	.LFE2
 11803 182f 0400     		.2byte	0x4
 11804 1831 F3       		.byte	0xf3
 11805 1832 01       		.uleb128 0x1
 11806 1833 51       		.byte	0x51
 11807 1834 9F       		.byte	0x9f
 11808 1835 00000000 		.4byte	0
 11809 1839 00000000 		.4byte	0
 11810              	.LVUS11:
 11811 183d 00       		.uleb128 .LVU148
 11812 183e 00       		.uleb128 .LVU164
 11813 183f 00       		.uleb128 .LVU167
 11814 1840 00       		.uleb128 .LVU182
 11815              	.LLST11:
 11816 1841 32000000 		.4byte	.LVL70
 11817 1845 4C000000 		.4byte	.LVL72
 11818 1849 0100     		.2byte	0x1
 11819 184b 54       		.byte	0x54
 11820 184c 60000000 		.4byte	.LVL74
 11821 1850 8C000000 		.4byte	.LVL80
 11822 1854 0100     		.2byte	0x1
 11823 1856 54       		.byte	0x54
 11824 1857 00000000 		.4byte	0
 11825 185b 00000000 		.4byte	0
 11826              	.LVUS12:
 11827 185f 01       		.uleb128 .LVU134
 11828 1860 00       		.uleb128 .LVU148
 11829 1861 00       		.uleb128 .LVU166
 11830 1862 00       		.uleb128 .LVU167
 11831              	.LLST12:
 11832 1863 14000000 		.4byte	.LVL65
 11833 1867 32000000 		.4byte	.LVL70
 11834 186b 0100     		.2byte	0x1
 11835 186d 51       		.byte	0x51
 11836 186e 5C000000 		.4byte	.LVL73
 11837 1872 60000000 		.4byte	.LVL74
 11838 1876 0100     		.2byte	0x1
 11839 1878 51       		.byte	0x51
 11840 1879 00000000 		.4byte	0
 11841 187d 00000000 		.4byte	0
 11842              	.LVUS13:
 11843 1881 01       		.uleb128 .LVU134
 11844 1882 00       		.uleb128 .LVU148
 11845 1883 00       		.uleb128 .LVU166
ARM GAS  /tmp/cclXoGh5.s 			page 209


 11846 1884 00       		.uleb128 .LVU167
 11847              	.LLST13:
 11848 1885 14000000 		.4byte	.LVL65
 11849 1889 32000000 		.4byte	.LVL70
 11850 188d 0100     		.2byte	0x1
 11851 188f 50       		.byte	0x50
 11852 1890 5C000000 		.4byte	.LVL73
 11853 1894 60000000 		.4byte	.LVL74
 11854 1898 0100     		.2byte	0x1
 11855 189a 50       		.byte	0x50
 11856 189b 00000000 		.4byte	0
 11857 189f 00000000 		.4byte	0
 11858              	.LVUS14:
 11859 18a3 03       		.uleb128 .LVU136
 11860 18a4 00       		.uleb128 .LVU148
 11861 18a5 00       		.uleb128 .LVU166
 11862 18a6 00       		.uleb128 .LVU167
 11863              	.LLST14:
 11864 18a7 14000000 		.4byte	.LVL65
 11865 18ab 32000000 		.4byte	.LVL70
 11866 18af 0100     		.2byte	0x1
 11867 18b1 55       		.byte	0x55
 11868 18b2 5C000000 		.4byte	.LVL73
 11869 18b6 60000000 		.4byte	.LVL74
 11870 18ba 0100     		.2byte	0x1
 11871 18bc 55       		.byte	0x55
 11872 18bd 00000000 		.4byte	0
 11873 18c1 00000000 		.4byte	0
 11874              	.LVUS15:
 11875 18c5 05       		.uleb128 .LVU138
 11876 18c6 00       		.uleb128 .LVU140
 11877 18c7 00       		.uleb128 .LVU140
 11878 18c8 01       		.uleb128 .LVU141
 11879 18c9 01       		.uleb128 .LVU141
 11880 18ca 00       		.uleb128 .LVU142
 11881 18cb 00       		.uleb128 .LVU143
 11882 18cc 00       		.uleb128 .LVU147
 11883              	.LLST15:
 11884 18cd 14000000 		.4byte	.LVL65
 11885 18d1 1C000000 		.4byte	.LVL66
 11886 18d5 0200     		.2byte	0x2
 11887 18d7 31       		.byte	0x31
 11888 18d8 9F       		.byte	0x9f
 11889 18d9 1C000000 		.4byte	.LVL66
 11890 18dd 1C000000 		.4byte	.LVL66
 11891 18e1 0100     		.2byte	0x1
 11892 18e3 53       		.byte	0x53
 11893 18e4 1C000000 		.4byte	.LVL66
 11894 18e8 1E000000 		.4byte	.LVL67
 11895 18ec 0300     		.2byte	0x3
 11896 18ee 73       		.byte	0x73
 11897 18ef 02       		.sleb128 2
 11898 18f0 9F       		.byte	0x9f
 11899 18f1 24000000 		.4byte	.LVL68
 11900 18f5 2E000000 		.4byte	.LVL69
 11901 18f9 0100     		.2byte	0x1
 11902 18fb 53       		.byte	0x53
ARM GAS  /tmp/cclXoGh5.s 			page 210


 11903 18fc 00000000 		.4byte	0
 11904 1900 00000000 		.4byte	0
 11905              	.LVUS16:
 11906 1904 02       		.uleb128 .LVU169
 11907 1905 00       		.uleb128 .LVU178
 11908              	.LLST16:
 11909 1906 60000000 		.4byte	.LVL74
 11910 190a 78000000 		.4byte	.LVL76
 11911 190e 0100     		.2byte	0x1
 11912 1910 56       		.byte	0x56
 11913 1911 00000000 		.4byte	0
 11914 1915 00000000 		.4byte	0
 11915              	.LVUS4:
 11916 1919 00       		.uleb128 0
 11917 191a 00       		.uleb128 .LVU97
 11918 191b 00       		.uleb128 .LVU97
 11919 191c 00       		.uleb128 0
 11920              	.LLST4:
 11921 191d 00000000 		.4byte	.LVL51
 11922 1921 1E000000 		.4byte	.LVL52
 11923 1925 0100     		.2byte	0x1
 11924 1927 50       		.byte	0x50
 11925 1928 1E000000 		.4byte	.LVL52
 11926 192c 40000000 		.4byte	.LFE0
 11927 1930 0400     		.2byte	0x4
 11928 1932 F3       		.byte	0xf3
 11929 1933 01       		.uleb128 0x1
 11930 1934 50       		.byte	0x50
 11931 1935 9F       		.byte	0x9f
 11932 1936 00000000 		.4byte	0
 11933 193a 00000000 		.4byte	0
 11934              	.LVUS5:
 11935 193e 00       		.uleb128 0
 11936 193f 00       		.uleb128 .LVU103
 11937 1940 00       		.uleb128 .LVU103
 11938 1941 00       		.uleb128 0
 11939              	.LLST5:
 11940 1942 00000000 		.4byte	.LVL55
 11941 1946 04000000 		.4byte	.LVL56
 11942 194a 0100     		.2byte	0x1
 11943 194c 50       		.byte	0x50
 11944 194d 04000000 		.4byte	.LVL56
 11945 1951 4C000000 		.4byte	.LFE1
 11946 1955 0400     		.2byte	0x4
 11947 1957 F3       		.byte	0xf3
 11948 1958 01       		.uleb128 0x1
 11949 1959 50       		.byte	0x50
 11950 195a 9F       		.byte	0x9f
 11951 195b 00000000 		.4byte	0
 11952 195f 00000000 		.4byte	0
 11953              	.LVUS6:
 11954 1963 00       		.uleb128 0
 11955 1964 00       		.uleb128 .LVU124
 11956 1965 00       		.uleb128 .LVU124
 11957 1966 00       		.uleb128 0
 11958              	.LLST6:
 11959 1967 00000000 		.4byte	.LVL55
ARM GAS  /tmp/cclXoGh5.s 			page 211


 11960 196b 45000000 		.4byte	.LVL63-1
 11961 196f 0100     		.2byte	0x1
 11962 1971 51       		.byte	0x51
 11963 1972 45000000 		.4byte	.LVL63-1
 11964 1976 4C000000 		.4byte	.LFE1
 11965 197a 0400     		.2byte	0x4
 11966 197c F3       		.byte	0xf3
 11967 197d 01       		.uleb128 0x1
 11968 197e 51       		.byte	0x51
 11969 197f 9F       		.byte	0x9f
 11970 1980 00000000 		.4byte	0
 11971 1984 00000000 		.4byte	0
 11972              	.LVUS7:
 11973 1988 01       		.uleb128 .LVU109
 11974 1989 00       		.uleb128 0
 11975              	.LLST7:
 11976 198a 14000000 		.4byte	.LVL57
 11977 198e 4C000000 		.4byte	.LFE1
 11978 1992 0100     		.2byte	0x1
 11979 1994 54       		.byte	0x54
 11980 1995 00000000 		.4byte	0
 11981 1999 00000000 		.4byte	0
 11982              	.LVUS8:
 11983 199d 03       		.uleb128 .LVU111
 11984 199e 00       		.uleb128 .LVU113
 11985 199f 00       		.uleb128 .LVU113
 11986 19a0 01       		.uleb128 .LVU114
 11987 19a1 01       		.uleb128 .LVU114
 11988 19a2 00       		.uleb128 .LVU115
 11989 19a3 00       		.uleb128 .LVU116
 11990 19a4 00       		.uleb128 .LVU120
 11991              	.LLST8:
 11992 19a5 14000000 		.4byte	.LVL57
 11993 19a9 1A000000 		.4byte	.LVL58
 11994 19ad 0200     		.2byte	0x2
 11995 19af 31       		.byte	0x31
 11996 19b0 9F       		.byte	0x9f
 11997 19b1 1A000000 		.4byte	.LVL58
 11998 19b5 1A000000 		.4byte	.LVL58
 11999 19b9 0100     		.2byte	0x1
 12000 19bb 53       		.byte	0x53
 12001 19bc 1A000000 		.4byte	.LVL58
 12002 19c0 1C000000 		.4byte	.LVL59
 12003 19c4 0300     		.2byte	0x3
 12004 19c6 73       		.byte	0x73
 12005 19c7 02       		.sleb128 2
 12006 19c8 9F       		.byte	0x9f
 12007 19c9 22000000 		.4byte	.LVL60
 12008 19cd 2C000000 		.4byte	.LVL61
 12009 19d1 0100     		.2byte	0x1
 12010 19d3 53       		.byte	0x53
 12011 19d4 00000000 		.4byte	0
 12012 19d8 00000000 		.4byte	0
 12013              	.LVUS50:
 12014 19dc 00       		.uleb128 0
 12015 19dd 00       		.uleb128 .LVU479
 12016 19de 00       		.uleb128 .LVU479
ARM GAS  /tmp/cclXoGh5.s 			page 212


 12017 19df 00       		.uleb128 0
 12018              	.LLST50:
 12019 19e0 00000000 		.4byte	.LVL170
 12020 19e4 08000000 		.4byte	.LVL171
 12021 19e8 0100     		.2byte	0x1
 12022 19ea 50       		.byte	0x50
 12023 19eb 08000000 		.4byte	.LVL171
 12024 19ef 58000000 		.4byte	.LFE7
 12025 19f3 0100     		.2byte	0x1
 12026 19f5 55       		.byte	0x55
 12027 19f6 00000000 		.4byte	0
 12028 19fa 00000000 		.4byte	0
 12029              	.LVUS51:
 12030 19fe 02       		.uleb128 .LVU483
 12031 19ff 00       		.uleb128 .LVU486
 12032              	.LLST51:
 12033 1a00 12000000 		.4byte	.LVL172
 12034 1a04 28000000 		.4byte	.LVL173
 12035 1a08 0200     		.2byte	0x2
 12036 1a0a 30       		.byte	0x30
 12037 1a0b 9F       		.byte	0x9f
 12038 1a0c 00000000 		.4byte	0
 12039 1a10 00000000 		.4byte	0
 12040              	.LVUS61:
 12041 1a14 00       		.uleb128 0
 12042 1a15 00       		.uleb128 .LVU619
 12043 1a16 00       		.uleb128 .LVU619
 12044 1a17 00       		.uleb128 .LVU622
 12045 1a18 00       		.uleb128 .LVU622
 12046 1a19 00       		.uleb128 .LVU623
 12047 1a1a 00       		.uleb128 .LVU623
 12048 1a1b 00       		.uleb128 0
 12049              	.LLST61:
 12050 1a1c 00000000 		.4byte	.LVL211
 12051 1a20 1E000000 		.4byte	.LVL212
 12052 1a24 0100     		.2byte	0x1
 12053 1a26 50       		.byte	0x50
 12054 1a27 1E000000 		.4byte	.LVL212
 12055 1a2b 30000000 		.4byte	.LVL213
 12056 1a2f 0400     		.2byte	0x4
 12057 1a31 F3       		.byte	0xf3
 12058 1a32 01       		.uleb128 0x1
 12059 1a33 50       		.byte	0x50
 12060 1a34 9F       		.byte	0x9f
 12061 1a35 30000000 		.4byte	.LVL213
 12062 1a39 32000000 		.4byte	.LVL214
 12063 1a3d 0100     		.2byte	0x1
 12064 1a3f 50       		.byte	0x50
 12065 1a40 32000000 		.4byte	.LVL214
 12066 1a44 3C000000 		.4byte	.LFE11
 12067 1a48 0400     		.2byte	0x4
 12068 1a4a F3       		.byte	0xf3
 12069 1a4b 01       		.uleb128 0x1
 12070 1a4c 50       		.byte	0x50
 12071 1a4d 9F       		.byte	0x9f
 12072 1a4e 00000000 		.4byte	0
 12073 1a52 00000000 		.4byte	0
ARM GAS  /tmp/cclXoGh5.s 			page 213


 12074              	.LVUS62:
 12075 1a56 00       		.uleb128 0
 12076 1a57 00       		.uleb128 .LVU625
 12077 1a58 00       		.uleb128 .LVU625
 12078 1a59 00       		.uleb128 0
 12079              	.LLST62:
 12080 1a5a 00000000 		.4byte	.LVL211
 12081 1a5e 37000000 		.4byte	.LVL215-1
 12082 1a62 0100     		.2byte	0x1
 12083 1a64 51       		.byte	0x51
 12084 1a65 37000000 		.4byte	.LVL215-1
 12085 1a69 3C000000 		.4byte	.LFE11
 12086 1a6d 0400     		.2byte	0x4
 12087 1a6f F3       		.byte	0xf3
 12088 1a70 01       		.uleb128 0x1
 12089 1a71 51       		.byte	0x51
 12090 1a72 9F       		.byte	0x9f
 12091 1a73 00000000 		.4byte	0
 12092 1a77 00000000 		.4byte	0
 12093              	.LVUS63:
 12094 1a7b 00       		.uleb128 0
 12095 1a7c 00       		.uleb128 .LVU657
 12096 1a7d 00       		.uleb128 .LVU657
 12097 1a7e 00       		.uleb128 .LVU658
 12098 1a7f 00       		.uleb128 .LVU658
 12099 1a80 00       		.uleb128 .LVU660
 12100 1a81 00       		.uleb128 .LVU660
 12101 1a82 00       		.uleb128 0
 12102              	.LLST63:
 12103 1a83 00000000 		.4byte	.LVL216
 12104 1a87 64000000 		.4byte	.LVL222
 12105 1a8b 0100     		.2byte	0x1
 12106 1a8d 50       		.byte	0x50
 12107 1a8e 64000000 		.4byte	.LVL222
 12108 1a92 68000000 		.4byte	.LVL223
 12109 1a96 0400     		.2byte	0x4
 12110 1a98 F3       		.byte	0xf3
 12111 1a99 01       		.uleb128 0x1
 12112 1a9a 50       		.byte	0x50
 12113 1a9b 9F       		.byte	0x9f
 12114 1a9c 68000000 		.4byte	.LVL223
 12115 1aa0 6F000000 		.4byte	.LVL224-1
 12116 1aa4 0100     		.2byte	0x1
 12117 1aa6 50       		.byte	0x50
 12118 1aa7 6F000000 		.4byte	.LVL224-1
 12119 1aab 74000000 		.4byte	.LFE12
 12120 1aaf 0400     		.2byte	0x4
 12121 1ab1 F3       		.byte	0xf3
 12122 1ab2 01       		.uleb128 0x1
 12123 1ab3 50       		.byte	0x50
 12124 1ab4 9F       		.byte	0x9f
 12125 1ab5 00000000 		.4byte	0
 12126 1ab9 00000000 		.4byte	0
 12127              	.LVUS64:
 12128 1abd 00       		.uleb128 0
 12129 1abe 00       		.uleb128 .LVU660
 12130 1abf 00       		.uleb128 .LVU660
ARM GAS  /tmp/cclXoGh5.s 			page 214


 12131 1ac0 00       		.uleb128 0
 12132              	.LLST64:
 12133 1ac1 00000000 		.4byte	.LVL216
 12134 1ac5 6F000000 		.4byte	.LVL224-1
 12135 1ac9 0100     		.2byte	0x1
 12136 1acb 51       		.byte	0x51
 12137 1acc 6F000000 		.4byte	.LVL224-1
 12138 1ad0 74000000 		.4byte	.LFE12
 12139 1ad4 0400     		.2byte	0x4
 12140 1ad6 F3       		.byte	0xf3
 12141 1ad7 01       		.uleb128 0x1
 12142 1ad8 51       		.byte	0x51
 12143 1ad9 9F       		.byte	0x9f
 12144 1ada 00000000 		.4byte	0
 12145 1ade 00000000 		.4byte	0
 12146              	.LVUS65:
 12147 1ae2 02       		.uleb128 .LVU633
 12148 1ae3 00       		.uleb128 .LVU635
 12149 1ae4 01       		.uleb128 .LVU636
 12150 1ae5 00       		.uleb128 .LVU637
 12151              	.LLST65:
 12152 1ae6 10000000 		.4byte	.LVL217
 12153 1aea 1C000000 		.4byte	.LVL218
 12154 1aee 0200     		.2byte	0x2
 12155 1af0 30       		.byte	0x30
 12156 1af1 9F       		.byte	0x9f
 12157 1af2 1C000000 		.4byte	.LVL218
 12158 1af6 1E000000 		.4byte	.LVL219
 12159 1afa 0300     		.2byte	0x3
 12160 1afc 73       		.byte	0x73
 12161 1afd 01       		.sleb128 1
 12162 1afe 9F       		.byte	0x9f
 12163 1aff 00000000 		.4byte	0
 12164 1b03 00000000 		.4byte	0
 12165              	.LVUS66:
 12166 1b07 01       		.uleb128 .LVU646
 12167 1b08 00       		.uleb128 .LVU648
 12168              	.LLST66:
 12169 1b09 34000000 		.4byte	.LVL220
 12170 1b0d 3A000000 		.4byte	.LVL221
 12171 1b11 0100     		.2byte	0x1
 12172 1b13 54       		.byte	0x54
 12173 1b14 00000000 		.4byte	0
 12174 1b18 00000000 		.4byte	0
 12175              	.LVUS67:
 12176 1b1c 00       		.uleb128 0
 12177 1b1d 00       		.uleb128 .LVU668
 12178 1b1e 00       		.uleb128 .LVU668
 12179 1b1f 00       		.uleb128 0
 12180              	.LLST67:
 12181 1b20 00000000 		.4byte	.LVL225
 12182 1b24 25000000 		.4byte	.LVL226-1
 12183 1b28 0100     		.2byte	0x1
 12184 1b2a 50       		.byte	0x50
 12185 1b2b 25000000 		.4byte	.LVL226-1
 12186 1b2f 2C000000 		.4byte	.LFE13
 12187 1b33 0400     		.2byte	0x4
ARM GAS  /tmp/cclXoGh5.s 			page 215


 12188 1b35 F3       		.byte	0xf3
 12189 1b36 01       		.uleb128 0x1
 12190 1b37 50       		.byte	0x50
 12191 1b38 9F       		.byte	0x9f
 12192 1b39 00000000 		.4byte	0
 12193 1b3d 00000000 		.4byte	0
 12194              	.LVUS68:
 12195 1b41 00       		.uleb128 0
 12196 1b42 00       		.uleb128 .LVU682
 12197 1b43 00       		.uleb128 .LVU682
 12198 1b44 00       		.uleb128 0
 12199              	.LLST68:
 12200 1b45 00000000 		.4byte	.LVL227
 12201 1b49 25000000 		.4byte	.LVL228-1
 12202 1b4d 0100     		.2byte	0x1
 12203 1b4f 50       		.byte	0x50
 12204 1b50 25000000 		.4byte	.LVL228-1
 12205 1b54 3C000000 		.4byte	.LFE14
 12206 1b58 0400     		.2byte	0x4
 12207 1b5a F3       		.byte	0xf3
 12208 1b5b 01       		.uleb128 0x1
 12209 1b5c 50       		.byte	0x50
 12210 1b5d 9F       		.byte	0x9f
 12211 1b5e 00000000 		.4byte	0
 12212 1b62 00000000 		.4byte	0
 12213              		.section	.debug_aranges,"",%progbits
 12214 0000 94000000 		.4byte	0x94
 12215 0004 0200     		.2byte	0x2
 12216 0006 00000000 		.4byte	.Ldebug_info0
 12217 000a 04       		.byte	0x4
 12218 000b 00       		.byte	0
 12219 000c 0000     		.2byte	0
 12220 000e 0000     		.2byte	0
 12221 0010 00000000 		.4byte	.LFB3
 12222 0014 0C010000 		.4byte	.LFE3-.LFB3
 12223 0018 00000000 		.4byte	.LFB0
 12224 001c 40000000 		.4byte	.LFE0-.LFB0
 12225 0020 00000000 		.4byte	.LFB1
 12226 0024 4C000000 		.4byte	.LFE1-.LFB1
 12227 0028 00000000 		.4byte	.LFB2
 12228 002c 94000000 		.4byte	.LFE2-.LFB2
 12229 0030 00000000 		.4byte	.LFB5
 12230 0034 B0020000 		.4byte	.LFE5-.LFB5
 12231 0038 00000000 		.4byte	.LFB6
 12232 003c 84000000 		.4byte	.LFE6-.LFB6
 12233 0040 00000000 		.4byte	.LFB7
 12234 0044 58000000 		.4byte	.LFE7-.LFB7
 12235 0048 00000000 		.4byte	.LFB8
 12236 004c 7C000000 		.4byte	.LFE8-.LFB8
 12237 0050 00000000 		.4byte	.LFB9
 12238 0054 E0000000 		.4byte	.LFE9-.LFB9
 12239 0058 00000000 		.4byte	.LFB10
 12240 005c 44000000 		.4byte	.LFE10-.LFB10
 12241 0060 00000000 		.4byte	.LFB11
 12242 0064 3C000000 		.4byte	.LFE11-.LFB11
 12243 0068 00000000 		.4byte	.LFB12
 12244 006c 74000000 		.4byte	.LFE12-.LFB12
ARM GAS  /tmp/cclXoGh5.s 			page 216


 12245 0070 00000000 		.4byte	.LFB13
 12246 0074 2C000000 		.4byte	.LFE13-.LFB13
 12247 0078 00000000 		.4byte	.LFB14
 12248 007c 3C000000 		.4byte	.LFE14-.LFB14
 12249 0080 00000000 		.4byte	.LFB16
 12250 0084 64020000 		.4byte	.LFE16-.LFB16
 12251 0088 00000000 		.4byte	.LFB17
 12252 008c 7C000000 		.4byte	.LFE17-.LFB17
 12253 0090 00000000 		.4byte	0
 12254 0094 00000000 		.4byte	0
 12255              		.section	.debug_ranges,"",%progbits
 12256              	.Ldebug_ranges0:
 12257 0000 02000000 		.4byte	.LBB61
 12258 0004 04000000 		.4byte	.LBE61
 12259 0008 06000000 		.4byte	.LBB67
 12260 000c 08000000 		.4byte	.LBE67
 12261 0010 0A000000 		.4byte	.LBB68
 12262 0014 0C000000 		.4byte	.LBE68
 12263 0018 14000000 		.4byte	.LBB69
 12264 001c 32000000 		.4byte	.LBE69
 12265 0020 5C000000 		.4byte	.LBB70
 12266 0024 60000000 		.4byte	.LBE70
 12267 0028 00000000 		.4byte	0
 12268 002c 00000000 		.4byte	0
 12269 0030 42000000 		.4byte	.LBB73
 12270 0034 84000000 		.4byte	.LBE73
 12271 0038 46020000 		.4byte	.LBB91
 12272 003c 64020000 		.4byte	.LBE91
 12273 0040 00000000 		.4byte	0
 12274 0044 00000000 		.4byte	0
 12275 0048 4E010000 		.4byte	.LBB79
 12276 004c 78010000 		.4byte	.LBE79
 12277 0050 84020000 		.4byte	.LBB93
 12278 0054 98020000 		.4byte	.LBE93
 12279 0058 00000000 		.4byte	0
 12280 005c 00000000 		.4byte	0
 12281 0060 56010000 		.4byte	.LBB80
 12282 0064 58010000 		.4byte	.LBE80
 12283 0068 5C010000 		.4byte	.LBB84
 12284 006c 6E010000 		.4byte	.LBE84
 12285 0070 84020000 		.4byte	.LBB85
 12286 0074 98020000 		.4byte	.LBE85
 12287 0078 00000000 		.4byte	0
 12288 007c 00000000 		.4byte	0
 12289 0080 B6010000 		.4byte	.LBB88
 12290 0084 FA010000 		.4byte	.LBE88
 12291 0088 66020000 		.4byte	.LBB92
 12292 008c 82020000 		.4byte	.LBE92
 12293 0090 98020000 		.4byte	.LBB94
 12294 0094 A4020000 		.4byte	.LBE94
 12295 0098 00000000 		.4byte	0
 12296 009c 00000000 		.4byte	0
 12297 00a0 80000000 		.4byte	.LBB103
 12298 00a4 82000000 		.4byte	.LBE103
 12299 00a8 86000000 		.4byte	.LBB107
 12300 00ac AA000000 		.4byte	.LBE107
 12301 00b0 00000000 		.4byte	0
ARM GAS  /tmp/cclXoGh5.s 			page 217


 12302 00b4 00000000 		.4byte	0
 12303 00b8 C8000000 		.4byte	.LBB110
 12304 00bc DA000000 		.4byte	.LBE110
 12305 00c0 FA010000 		.4byte	.LBB136
 12306 00c4 00020000 		.4byte	.LBE136
 12307 00c8 00000000 		.4byte	0
 12308 00cc 00000000 		.4byte	0
 12309 00d0 12010000 		.4byte	.LBB117
 12310 00d4 3E010000 		.4byte	.LBE117
 12311 00d8 4E020000 		.4byte	.LBB142
 12312 00dc 52020000 		.4byte	.LBE142
 12313 00e0 00000000 		.4byte	0
 12314 00e4 00000000 		.4byte	0
 12315 00e8 12010000 		.4byte	.LBB118
 12316 00ec 14010000 		.4byte	.LBE118
 12317 00f0 1A010000 		.4byte	.LBB122
 12318 00f4 2C010000 		.4byte	.LBE122
 12319 00f8 4E020000 		.4byte	.LBB123
 12320 00fc 52020000 		.4byte	.LBE123
 12321 0100 00000000 		.4byte	0
 12322 0104 00000000 		.4byte	0
 12323 0108 70010000 		.4byte	.LBB125
 12324 010c 72010000 		.4byte	.LBE125
 12325 0110 74010000 		.4byte	.LBB129
 12326 0114 BE010000 		.4byte	.LBE129
 12327 0118 00000000 		.4byte	0
 12328 011c 00000000 		.4byte	0
 12329 0120 C8010000 		.4byte	.LBB130
 12330 0124 CE010000 		.4byte	.LBE130
 12331 0128 D4010000 		.4byte	.LBB134
 12332 012c D6010000 		.4byte	.LBE134
 12333 0130 D8010000 		.4byte	.LBB135
 12334 0134 E8010000 		.4byte	.LBE135
 12335 0138 00000000 		.4byte	0
 12336 013c 00000000 		.4byte	0
 12337 0140 1A020000 		.4byte	.LBB137
 12338 0144 1C020000 		.4byte	.LBE137
 12339 0148 1E020000 		.4byte	.LBB140
 12340 014c 36020000 		.4byte	.LBE140
 12341 0150 00000000 		.4byte	0
 12342 0154 00000000 		.4byte	0
 12343 0158 2E000000 		.4byte	.LBB143
 12344 015c 44000000 		.4byte	.LBE143
 12345 0160 6E000000 		.4byte	.LBB146
 12346 0164 72000000 		.4byte	.LBE146
 12347 0168 00000000 		.4byte	0
 12348 016c 00000000 		.4byte	0
 12349 0170 00000000 		.4byte	.LFB3
 12350 0174 0C010000 		.4byte	.LFE3
 12351 0178 00000000 		.4byte	.LFB0
 12352 017c 40000000 		.4byte	.LFE0
 12353 0180 00000000 		.4byte	.LFB1
 12354 0184 4C000000 		.4byte	.LFE1
 12355 0188 00000000 		.4byte	.LFB2
 12356 018c 94000000 		.4byte	.LFE2
 12357 0190 00000000 		.4byte	.LFB5
 12358 0194 B0020000 		.4byte	.LFE5
ARM GAS  /tmp/cclXoGh5.s 			page 218


 12359 0198 00000000 		.4byte	.LFB6
 12360 019c 84000000 		.4byte	.LFE6
 12361 01a0 00000000 		.4byte	.LFB7
 12362 01a4 58000000 		.4byte	.LFE7
 12363 01a8 00000000 		.4byte	.LFB8
 12364 01ac 7C000000 		.4byte	.LFE8
 12365 01b0 00000000 		.4byte	.LFB9
 12366 01b4 E0000000 		.4byte	.LFE9
 12367 01b8 00000000 		.4byte	.LFB10
 12368 01bc 44000000 		.4byte	.LFE10
 12369 01c0 00000000 		.4byte	.LFB11
 12370 01c4 3C000000 		.4byte	.LFE11
 12371 01c8 00000000 		.4byte	.LFB12
 12372 01cc 74000000 		.4byte	.LFE12
 12373 01d0 00000000 		.4byte	.LFB13
 12374 01d4 2C000000 		.4byte	.LFE13
 12375 01d8 00000000 		.4byte	.LFB14
 12376 01dc 3C000000 		.4byte	.LFE14
 12377 01e0 00000000 		.4byte	.LFB16
 12378 01e4 64020000 		.4byte	.LFE16
 12379 01e8 00000000 		.4byte	.LFB17
 12380 01ec 7C000000 		.4byte	.LFE17
 12381 01f0 00000000 		.4byte	0
 12382 01f4 00000000 		.4byte	0
 12383              		.section	.debug_line,"",%progbits
 12384              	.Ldebug_line0:
 12385 0000 F90E0000 		.section	.debug_str,"MS",%progbits,1
 12385      03000401 
 12385      00000201 
 12385      FB0E0D00 
 12385      01010101 
 12386              	.LASF119:
 12387 0000 5F64736F 		.ascii	"_dso_handle\000"
 12387      5F68616E 
 12387      646C6500 
 12388              	.LASF206:
 12389 000c 62797465 		.ascii	"bytecodeSize\000"
 12389      636F6465 
 12389      53697A65 
 12389      00
 12390              	.LASF202:
 12391 0019 75696E74 		.ascii	"uint16\000"
 12391      313600
 12392              	.LASF35:
 12393 0020 41534542 		.ascii	"ASEBA_UNARY_OP_BIT_NOT\000"
 12393      415F554E 
 12393      4152595F 
 12393      4F505F42 
 12393      49545F4E 
 12394              	.LASF240:
 12395 0037 76616C75 		.ascii	"value\000"
 12395      6500
 12396              	.LASF28:
 12397 003d 41534542 		.ascii	"ASEBA_OP_BIGGER_EQUAL_THAN\000"
 12397      415F4F50 
 12397      5F424947 
 12397      4745525F 
ARM GAS  /tmp/cclXoGh5.s 			page 219


 12397      45515541 
 12398              	.LASF25:
 12399 0058 41534542 		.ascii	"ASEBA_OP_EQUAL\000"
 12399      415F4F50 
 12399      5F455155 
 12399      414C00
 12400              	.LASF66:
 12401 0067 41534542 		.ascii	"ASEBA_MESSAGE_RESET\000"
 12401      415F4D45 
 12401      53534147 
 12401      455F5245 
 12401      53455400 
 12402              	.LASF209:
 12403 007b 76617269 		.ascii	"variables\000"
 12403      61626C65 
 12403      7300
 12404              	.LASF172:
 12405 0085 5F72616E 		.ascii	"_rand48\000"
 12405      64343800 
 12406              	.LASF151:
 12407 008d 5F656D65 		.ascii	"_emergency\000"
 12407      7267656E 
 12407      637900
 12408              	.LASF256:
 12409 0098 41736562 		.ascii	"AsebaSendMessage\000"
 12409      6153656E 
 12409      644D6573 
 12409      73616765 
 12409      00
 12410              	.LASF257:
 12411 00a9 41736562 		.ascii	"AsebaSendVariables\000"
 12411      6153656E 
 12411      64566172 
 12411      6961626C 
 12411      657300
 12412              	.LASF163:
 12413 00bc 5F617465 		.ascii	"_atexit0\000"
 12413      78697430 
 12413      00
 12414              	.LASF232:
 12415 00c5 41736562 		.ascii	"AsebaVMDebugMessage\000"
 12415      61564D44 
 12415      65627567 
 12415      4D657373 
 12415      61676500 
 12416              	.LASF141:
 12417 00d9 5F646174 		.ascii	"_data\000"
 12417      6100
 12418              	.LASF38:
 12419 00df 41534542 		.ascii	"ASEBA_VM_STEP_BY_STEP_MASK\000"
 12419      415F564D 
 12419      5F535445 
 12419      505F4259 
 12419      5F535445 
 12420              	.LASF33:
 12421 00fa 41534542 		.ascii	"ASEBA_UNARY_OP_SUB\000"
 12421      415F554E 
ARM GAS  /tmp/cclXoGh5.s 			page 220


 12421      4152595F 
 12421      4F505F53 
 12421      554200
 12422              	.LASF192:
 12423 010d 5F776372 		.ascii	"_wcrtomb_state\000"
 12423      746F6D62 
 12423      5F737461 
 12423      746500
 12424              	.LASF235:
 12425 011c 41736562 		.ascii	"AsebaVMCheckBreakpoint\000"
 12425      61564D43 
 12425      6865636B 
 12425      42726561 
 12425      6B706F69 
 12426              	.LASF79:
 12427 0133 41534542 		.ascii	"ASEBA_MESSAGE_SUSPEND_TO_RAM\000"
 12427      415F4D45 
 12427      53534147 
 12427      455F5355 
 12427      5350454E 
 12428              	.LASF266:
 12429 0150 41736562 		.ascii	"AsebaNativeFunction\000"
 12429      614E6174 
 12429      69766546 
 12429      756E6374 
 12429      696F6E00 
 12430              	.LASF208:
 12431 0164 76617269 		.ascii	"variablesSize\000"
 12431      61626C65 
 12431      7353697A 
 12431      6500
 12432              	.LASF90:
 12433 0172 6C6F6E67 		.ascii	"long long unsigned int\000"
 12433      206C6F6E 
 12433      6720756E 
 12433      7369676E 
 12433      65642069 
 12434              	.LASF270:
 12435 0189 5F5F6275 		.ascii	"__builtin_memset\000"
 12435      696C7469 
 12435      6E5F6D65 
 12435      6D736574 
 12435      00
 12436              	.LASF242:
 12437 019a 61727261 		.ascii	"arrayIndex\000"
 12437      79496E64 
 12437      657800
 12438              	.LASF60:
 12439 01a5 41534542 		.ascii	"ASEBA_MESSAGE_NODE_SPECIFIC_ERROR\000"
 12439      415F4D45 
 12439      53534147 
 12439      455F4E4F 
 12439      44455F53 
 12440              	.LASF217:
 12441 01c7 64617461 		.ascii	"data\000"
 12441      00
 12442              	.LASF261:
ARM GAS  /tmp/cclXoGh5.s 			page 221


 12443 01cc 41736562 		.ascii	"AsebaWriteBytecode\000"
 12443      61577269 
 12443      74654279 
 12443      7465636F 
 12443      646500
 12444              	.LASF239:
 12445 01df 41736562 		.ascii	"AsebaVMStep\000"
 12445      61564D53 
 12445      74657000 
 12446              	.LASF274:
 12447 01eb 5F5F6C6F 		.ascii	"__locale_t\000"
 12447      63616C65 
 12447      5F7400
 12448              	.LASF229:
 12449 01f6 41736562 		.ascii	"AsebaVMShouldDropPacket\000"
 12449      61564D53 
 12449      686F756C 
 12449      6444726F 
 12449      70506163 
 12450              	.LASF244:
 12451 020e 76617269 		.ascii	"variableValue\000"
 12451      61626C65 
 12451      56616C75 
 12451      6500
 12452              	.LASF61:
 12453 021c 41534542 		.ascii	"ASEBA_MESSAGE_EXECUTION_STATE_CHANGED\000"
 12453      415F4D45 
 12453      53534147 
 12453      455F4558 
 12453      45435554 
 12454              	.LASF190:
 12455 0242 5F6D6272 		.ascii	"_mbrtowc_state\000"
 12455      746F7763 
 12455      5F737461 
 12455      746500
 12456              	.LASF221:
 12457 0251 70726F74 		.ascii	"protocolVersion\000"
 12457      6F636F6C 
 12457      56657273 
 12457      696F6E00 
 12458              	.LASF251:
 12459 0261 6576656E 		.ascii	"event\000"
 12459      7400
 12460              	.LASF234:
 12461 0267 41736562 		.ascii	"AsebaDebugBareRun\000"
 12461      61446562 
 12461      75674261 
 12461      72655275 
 12461      6E00
 12462              	.LASF185:
 12463 0279 5F776374 		.ascii	"_wctomb_state\000"
 12463      6F6D625F 
 12463      73746174 
 12463      6500
 12464              	.LASF108:
 12465 0287 5F5F746D 		.ascii	"__tm_sec\000"
 12465      5F736563 
ARM GAS  /tmp/cclXoGh5.s 			page 222


 12465      00
 12466              	.LASF48:
 12467 0290 41534542 		.ascii	"ASEBA_MESSAGE_BOOTLOADER_DESCRIPTION\000"
 12467      415F4D45 
 12467      53534147 
 12467      455F424F 
 12467      4F544C4F 
 12468              	.LASF47:
 12469 02b5 41534542 		.ascii	"ASEBA_MESSAGE_BOOTLOADER_PAGE_DATA_WRITE\000"
 12469      415F4D45 
 12469      53534147 
 12469      455F424F 
 12469      4F544C4F 
 12470              	.LASF86:
 12471 02de 7369676E 		.ascii	"signed char\000"
 12471      65642063 
 12471      68617200 
 12472              	.LASF1:
 12473 02ea 41534542 		.ascii	"ASEBA_BYTECODE_SMALL_IMMEDIATE\000"
 12473      415F4259 
 12473      5445434F 
 12473      44455F53 
 12473      4D414C4C 
 12474              	.LASF137:
 12475 0309 5F756275 		.ascii	"_ubuf\000"
 12475      6600
 12476              	.LASF126:
 12477 030f 5F626173 		.ascii	"_base\000"
 12477      6500
 12478              	.LASF67:
 12479 0315 41534542 		.ascii	"ASEBA_MESSAGE_RUN\000"
 12479      415F4D45 
 12479      53534147 
 12479      455F5255 
 12479      4E00
 12480              	.LASF94:
 12481 0327 5F5F7763 		.ascii	"__wch\000"
 12481      6800
 12482              	.LASF166:
 12483 032d 5F5F7366 		.ascii	"__sf\000"
 12483      00
 12484              	.LASF117:
 12485 0332 5F6F6E5F 		.ascii	"_on_exit_args\000"
 12485      65786974 
 12485      5F617267 
 12485      7300
 12486              	.LASF64:
 12487 0340 41534542 		.ascii	"ASEBA_MESSAGE_GET_DESCRIPTION\000"
 12487      415F4D45 
 12487      53534147 
 12487      455F4745 
 12487      545F4445 
 12488              	.LASF40:
 12489 035e 41534542 		.ascii	"ASEBA_EVENT_INIT\000"
 12489      415F4556 
 12489      454E545F 
 12489      494E4954 
ARM GAS  /tmp/cclXoGh5.s 			page 223


 12489      00
 12490              	.LASF132:
 12491 036f 5F636F6F 		.ascii	"_cookie\000"
 12491      6B696500 
 12492              	.LASF204:
 12493 0377 41534542 		.ascii	"ASEBA_MAX_BREAKPOINTS\000"
 12493      415F4D41 
 12493      585F4252 
 12493      45414B50 
 12493      4F494E54 
 12494              	.LASF165:
 12495 038d 5F5F7367 		.ascii	"__sglue\000"
 12495      6C756500 
 12496              	.LASF88:
 12497 0395 6C6F6E67 		.ascii	"long int\000"
 12497      20696E74 
 12497      00
 12498              	.LASF198:
 12499 039e 5F696D70 		.ascii	"_impure_ptr\000"
 12499      7572655F 
 12499      70747200 
 12500              	.LASF213:
 12501 03aa 62726561 		.ascii	"breakpoints\000"
 12501      6B706F69 
 12501      6E747300 
 12502              	.LASF129:
 12503 03b6 5F666C61 		.ascii	"_flags\000"
 12503      677300
 12504              	.LASF121:
 12505 03bd 5F69735F 		.ascii	"_is_cxa\000"
 12505      63786100 
 12506              	.LASF147:
 12507 03c5 5F737464 		.ascii	"_stdin\000"
 12507      696E00
 12508              	.LASF139:
 12509 03cc 5F626C6B 		.ascii	"_blksize\000"
 12509      73697A65 
 12509      00
 12510              	.LASF203:
 12511 03d5 75696E74 		.ascii	"uint8\000"
 12511      3800
 12512              	.LASF36:
 12513 03db 41534542 		.ascii	"ASEBA_UNARY_OP_NOT\000"
 12513      415F554E 
 12513      4152595F 
 12513      4F505F4E 
 12513      4F5400
 12514              	.LASF84:
 12515 03ee 6C6F6E67 		.ascii	"long long int\000"
 12515      206C6F6E 
 12515      6720696E 
 12515      7400
 12516              	.LASF154:
 12517 03fc 5F5F7364 		.ascii	"__sdidinit\000"
 12517      6964696E 
 12517      697400
 12518              	.LASF14:
ARM GAS  /tmp/cclXoGh5.s 			page 224


 12519 0407 41534542 		.ascii	"ASEBA_BYTECODE_SUB_RET\000"
 12519      415F4259 
 12519      5445434F 
 12519      44455F53 
 12519      55425F52 
 12520              	.LASF161:
 12521 041e 5F637674 		.ascii	"_cvtbuf\000"
 12521      62756600 
 12522              	.LASF140:
 12523 0426 5F6F6666 		.ascii	"_offset\000"
 12523      73657400 
 12524              	.LASF51:
 12525 042e 41534542 		.ascii	"ASEBA_MESSAGE_DESCRIPTION\000"
 12525      415F4D45 
 12525      53534147 
 12525      455F4445 
 12525      53435249 
 12526              	.LASF220:
 12527 0448 64617461 		.ascii	"dataLength\000"
 12527      4C656E67 
 12527      746800
 12528              	.LASF75:
 12529 0453 41534542 		.ascii	"ASEBA_MESSAGE_GET_VARIABLES\000"
 12529      415F4D45 
 12529      53534147 
 12529      455F4745 
 12529      545F5641 
 12530              	.LASF177:
 12531 046f 5F737472 		.ascii	"_strtok_last\000"
 12531      746F6B5F 
 12531      6C617374 
 12531      00
 12532              	.LASF189:
 12533 047c 5F6D6272 		.ascii	"_mbrlen_state\000"
 12533      6C656E5F 
 12533      73746174 
 12533      6500
 12534              	.LASF118:
 12535 048a 5F666E61 		.ascii	"_fnargs\000"
 12535      72677300 
 12536              	.LASF191:
 12537 0492 5F6D6273 		.ascii	"_mbsrtowcs_state\000"
 12537      72746F77 
 12537      63735F73 
 12537      74617465 
 12537      00
 12538              	.LASF37:
 12539 04a3 41534542 		.ascii	"ASEBA_VM_EVENT_ACTIVE_MASK\000"
 12539      415F564D 
 12539      5F455645 
 12539      4E545F41 
 12539      43544956 
 12540              	.LASF9:
 12541 04be 41534542 		.ascii	"ASEBA_BYTECODE_JUMP\000"
 12541      415F4259 
 12541      5445434F 
 12541      44455F4A 
ARM GAS  /tmp/cclXoGh5.s 			page 225


 12541      554D5000 
 12542              	.LASF12:
 12543 04d2 41534542 		.ascii	"ASEBA_BYTECODE_NATIVE_CALL\000"
 12543      415F4259 
 12543      5445434F 
 12543      44455F4E 
 12543      41544956 
 12544              	.LASF2:
 12545 04ed 41534542 		.ascii	"ASEBA_BYTECODE_LARGE_IMMEDIATE\000"
 12545      415F4259 
 12545      5445434F 
 12545      44455F4C 
 12545      41524745 
 12546              	.LASF124:
 12547 050c 5F666E73 		.ascii	"_fns\000"
 12547      00
 12548              	.LASF205:
 12549 0511 6E6F6465 		.ascii	"nodeId\000"
 12549      496400
 12550              	.LASF248:
 12551 0518 64697370 		.ascii	"disp\000"
 12551      00
 12552              	.LASF104:
 12553 051d 5F736967 		.ascii	"_sign\000"
 12553      6E00
 12554              	.LASF15:
 12555 0523 41534542 		.ascii	"ASEBA_OP_SHIFT_LEFT\000"
 12555      415F4F50 
 12555      5F534849 
 12555      46545F4C 
 12555      45465400 
 12556              	.LASF101:
 12557 0537 5F666C6F 		.ascii	"_flock_t\000"
 12557      636B5F74 
 12557      00
 12558              	.LASF149:
 12559 0540 5F737464 		.ascii	"_stderr\000"
 12559      65727200 
 12560              	.LASF106:
 12561 0548 5F426967 		.ascii	"_Bigint\000"
 12561      696E7400 
 12562              	.LASF180:
 12563 0550 5F67616D 		.ascii	"_gamma_signgam\000"
 12563      6D615F73 
 12563      69676E67 
 12563      616D00
 12564              	.LASF133:
 12565 055f 5F726561 		.ascii	"_read\000"
 12565      6400
 12566              	.LASF157:
 12567 0565 5F726573 		.ascii	"_result_k\000"
 12567      756C745F 
 12567      6B00
 12568              	.LASF62:
 12569 056f 41534542 		.ascii	"ASEBA_MESSAGE_BREAKPOINT_SET_RESULT\000"
 12569      415F4D45 
 12569      53534147 
ARM GAS  /tmp/cclXoGh5.s 			page 226


 12569      455F4252 
 12569      45414B50 
 12570              	.LASF107:
 12571 0593 5F5F746D 		.ascii	"__tm\000"
 12571      00
 12572              	.LASF46:
 12573 0598 41534542 		.ascii	"ASEBA_MESSAGE_BOOTLOADER_WRITE_PAGE\000"
 12573      415F4D45 
 12573      53534147 
 12573      455F424F 
 12573      4F544C4F 
 12574              	.LASF83:
 12575 05bc 756E7369 		.ascii	"unsigned int\000"
 12575      676E6564 
 12575      20696E74 
 12575      00
 12576              	.LASF95:
 12577 05c9 5F5F7763 		.ascii	"__wchb\000"
 12577      686200
 12578              	.LASF193:
 12579 05d0 5F776373 		.ascii	"_wcsrtombs_state\000"
 12579      72746F6D 
 12579      62735F73 
 12579      74617465 
 12579      00
 12580              	.LASF49:
 12581 05e1 41534542 		.ascii	"ASEBA_MESSAGE_BOOTLOADER_PAGE_DATA_READ\000"
 12581      415F4D45 
 12581      53534147 
 12581      455F424F 
 12581      4F544C4F 
 12582              	.LASF148:
 12583 0609 5F737464 		.ascii	"_stdout\000"
 12583      6F757400 
 12584              	.LASF260:
 12585 0611 41736562 		.ascii	"AsebaResetIntoBootloader\000"
 12585      61526573 
 12585      6574496E 
 12585      746F426F 
 12585      6F746C6F 
 12586              	.LASF160:
 12587 062a 5F637674 		.ascii	"_cvtlen\000"
 12587      6C656E00 
 12588              	.LASF89:
 12589 0632 6C6F6E67 		.ascii	"long unsigned int\000"
 12589      20756E73 
 12589      69676E65 
 12589      6420696E 
 12589      7400
 12590              	.LASF63:
 12591 0644 41534542 		.ascii	"ASEBA_MESSAGE_NODE_PRESENT\000"
 12591      415F4D45 
 12591      53534147 
 12591      455F4E4F 
 12591      44455F50 
 12592              	.LASF130:
 12593 065f 5F66696C 		.ascii	"_file\000"
ARM GAS  /tmp/cclXoGh5.s 			page 227


 12593      6500
 12594              	.LASF275:
 12595 0665 41736562 		.ascii	"AsebaVMResetWhenFlags\000"
 12595      61564D52 
 12595      65736574 
 12595      5768656E 
 12595      466C6167 
 12596              	.LASF78:
 12597 067b 41534542 		.ascii	"ASEBA_MESSAGE_REBOOT\000"
 12597      415F4D45 
 12597      53534147 
 12597      455F5245 
 12597      424F4F54 
 12598              	.LASF273:
 12599 0690 2F686F6D 		.ascii	"/home/olof/Documents/MICRO-315/micro-315/tp4/lib/e-"
 12599      652F6F6C 
 12599      6F662F44 
 12599      6F63756D 
 12599      656E7473 
 12600 06c3 7075636B 		.ascii	"puck2_main-processor\000"
 12600      325F6D61 
 12600      696E2D70 
 12600      726F6365 
 12600      73736F72 
 12601              	.LASF10:
 12602 06d8 41534542 		.ascii	"ASEBA_BYTECODE_CONDITIONAL_BRANCH\000"
 12602      415F4259 
 12602      5445434F 
 12602      44455F43 
 12602      4F4E4449 
 12603              	.LASF170:
 12604 06fa 5F6E696F 		.ascii	"_niobs\000"
 12604      627300
 12605              	.LASF29:
 12606 0701 41534542 		.ascii	"ASEBA_OP_SMALLER_THAN\000"
 12606      415F4F50 
 12606      5F534D41 
 12606      4C4C4552 
 12606      5F544841 
 12607              	.LASF43:
 12608 0717 73686F72 		.ascii	"short unsigned int\000"
 12608      7420756E 
 12608      7369676E 
 12608      65642069 
 12608      6E7400
 12609              	.LASF13:
 12610 072a 41534542 		.ascii	"ASEBA_BYTECODE_SUB_CALL\000"
 12610      415F4259 
 12610      5445434F 
 12610      44455F53 
 12610      55425F43 
 12611              	.LASF187:
 12612 0742 5F736967 		.ascii	"_signal_buf\000"
 12612      6E616C5F 
 12612      62756600 
 12613              	.LASF178:
 12614 074e 5F617363 		.ascii	"_asctime_buf\000"
ARM GAS  /tmp/cclXoGh5.s 			page 228


 12614      74696D65 
 12614      5F627566 
 12614      00
 12615              	.LASF264:
 12616 075b 7374726C 		.ascii	"strlen\000"
 12616      656E00
 12617              	.LASF218:
 12618 0762 74797065 		.ascii	"type\000"
 12618      00
 12619              	.LASF44:
 12620 0767 41534542 		.ascii	"ASEBA_MESSAGE_BOOTLOADER_RESET\000"
 12620      415F4D45 
 12620      53534147 
 12620      455F424F 
 12620      4F544C4F 
 12621              	.LASF156:
 12622 0786 5F726573 		.ascii	"_result\000"
 12622      756C7400 
 12623              	.LASF55:
 12624 078e 41534542 		.ascii	"ASEBA_MESSAGE_DISCONNECTED\000"
 12624      415F4D45 
 12624      53534147 
 12624      455F4449 
 12624      53434F4E 
 12625              	.LASF267:
 12626 07a9 6D656D63 		.ascii	"memcpy\000"
 12626      707900
 12627              	.LASF91:
 12628 07b0 77696E74 		.ascii	"wint_t\000"
 12628      5F7400
 12629              	.LASF76:
 12630 07b7 41534542 		.ascii	"ASEBA_MESSAGE_SET_VARIABLES\000"
 12630      415F4D45 
 12630      53534147 
 12630      455F5345 
 12630      545F5641 
 12631              	.LASF142:
 12632 07d3 5F6C6F63 		.ascii	"_lock\000"
 12632      6B00
 12633              	.LASF258:
 12634 07d9 41736562 		.ascii	"AsebaVMResetCB\000"
 12634      61564D52 
 12634      65736574 
 12634      434200
 12635              	.LASF144:
 12636 07e8 5F666C61 		.ascii	"_flags2\000"
 12636      67733200 
 12637              	.LASF56:
 12638 07f0 41534542 		.ascii	"ASEBA_MESSAGE_VARIABLES\000"
 12638      415F4D45 
 12638      53534147 
 12638      455F5641 
 12638      52494142 
 12639              	.LASF207:
 12640 0808 62797465 		.ascii	"bytecode\000"
 12640      636F6465 
 12640      00
ARM GAS  /tmp/cclXoGh5.s 			page 229


 12641              	.LASF138:
 12642 0811 5F6E6275 		.ascii	"_nbuf\000"
 12642      6600
 12643              	.LASF82:
 12644 0817 41534542 		.ascii	"ASEBA_MESSAGE_INVALID\000"
 12644      415F4D45 
 12644      53534147 
 12644      455F494E 
 12644      56414C49 
 12645              	.LASF201:
 12646 082d 73696E74 		.ascii	"sint16\000"
 12646      313600
 12647              	.LASF134:
 12648 0834 5F777269 		.ascii	"_write\000"
 12648      746500
 12649              	.LASF113:
 12650 083b 5F5F746D 		.ascii	"__tm_year\000"
 12650      5F796561 
 12650      7200
 12651              	.LASF227:
 12652 0845 41736562 		.ascii	"AsebaVMClearBreakpoint\000"
 12652      61564D43 
 12652      6C656172 
 12652      42726561 
 12652      6B706F69 
 12653              	.LASF4:
 12654 085c 41534542 		.ascii	"ASEBA_BYTECODE_STORE\000"
 12654      415F4259 
 12654      5445434F 
 12654      44455F53 
 12654      544F5245 
 12655              	.LASF65:
 12656 0871 41534542 		.ascii	"ASEBA_MESSAGE_SET_BYTECODE\000"
 12656      415F4D45 
 12656      53534147 
 12656      455F5345 
 12656      545F4259 
 12657              	.LASF39:
 12658 088c 41534542 		.ascii	"ASEBA_VM_EVENT_RUNNING_MASK\000"
 12658      415F564D 
 12658      5F455645 
 12658      4E545F52 
 12658      554E4E49 
 12659              	.LASF196:
 12660 08a8 5F6E6D61 		.ascii	"_nmalloc\000"
 12660      6C6C6F63 
 12660      00
 12661              	.LASF69:
 12662 08b1 41534542 		.ascii	"ASEBA_MESSAGE_STEP\000"
 12662      415F4D45 
 12662      53534147 
 12662      455F5354 
 12662      455000
 12663              	.LASF216:
 12664 08c4 736F7572 		.ascii	"source\000"
 12664      636500
 12665              	.LASF215:
ARM GAS  /tmp/cclXoGh5.s 			page 230


 12666 08cb 41736562 		.ascii	"AsebaVMState\000"
 12666      61564D53 
 12666      74617465 
 12666      00
 12667              	.LASF247:
 12668 08d8 76616C75 		.ascii	"valueTwo\000"
 12668      6554776F 
 12668      00
 12669              	.LASF231:
 12670 08e1 73746570 		.ascii	"stepsLimit\000"
 12670      734C696D 
 12670      697400
 12671              	.LASF80:
 12672 08ec 41534542 		.ascii	"ASEBA_MESSAGE_GET_NODE_DESCRIPTION\000"
 12672      415F4D45 
 12672      53534147 
 12672      455F4745 
 12672      545F4E4F 
 12673              	.LASF85:
 12674 090f 6C6F6E67 		.ascii	"long double\000"
 12674      20646F75 
 12674      626C6500 
 12675              	.LASF252:
 12676 091b 61646472 		.ascii	"address\000"
 12676      65737300 
 12677              	.LASF127:
 12678 0923 5F73697A 		.ascii	"_size\000"
 12678      6500
 12679              	.LASF3:
 12680 0929 41534542 		.ascii	"ASEBA_BYTECODE_LOAD\000"
 12680      415F4259 
 12680      5445434F 
 12680      44455F4C 
 12680      4F414400 
 12681              	.LASF57:
 12682 093d 41534542 		.ascii	"ASEBA_MESSAGE_ARRAY_ACCESS_OUT_OF_BOUNDS\000"
 12682      415F4D45 
 12682      53534147 
 12682      455F4152 
 12682      5241595F 
 12683              	.LASF195:
 12684 0966 5F6E6578 		.ascii	"_nextf\000"
 12684      746600
 12685              	.LASF53:
 12686 096d 41534542 		.ascii	"ASEBA_MESSAGE_LOCAL_EVENT_DESCRIPTION\000"
 12686      415F4D45 
 12686      53534147 
 12686      455F4C4F 
 12686      43414C5F 
 12687              	.LASF237:
 12688 0993 6D657373 		.ascii	"message\000"
 12688      61676500 
 12689              	.LASF112:
 12690 099b 5F5F746D 		.ascii	"__tm_mon\000"
 12690      5F6D6F6E 
 12690      00
 12691              	.LASF131:
ARM GAS  /tmp/cclXoGh5.s 			page 231


 12692 09a4 5F6C6266 		.ascii	"_lbfsize\000"
 12692      73697A65 
 12692      00
 12693              	.LASF122:
 12694 09ad 5F617465 		.ascii	"_atexit\000"
 12694      78697400 
 12695              	.LASF200:
 12696 09b5 7375626F 		.ascii	"suboptarg\000"
 12696      70746172 
 12696      6700
 12697              	.LASF271:
 12698 09bf 474E5520 		.ascii	"GNU C17 9.2.1 20191025 (release) [ARM/arm-9-branch "
 12698      43313720 
 12698      392E322E 
 12698      31203230 
 12698      31393130 
 12699 09f2 72657669 		.ascii	"revision 277599] -mcpu=cortex-m4 -mfloat-abi=hard -"
 12699      73696F6E 
 12699      20323737 
 12699      3539395D 
 12699      202D6D63 
 12700 0a25 6D667075 		.ascii	"mfpu=fpv4-sp-d16 -mno-thumb-interwork -mthumb -marc"
 12700      3D667076 
 12700      342D7370 
 12700      2D643136 
 12700      202D6D6E 
 12701 0a58 683D6172 		.ascii	"h=armv7e-m+fp -ggdb -O2 -fomit-frame-pointer -falig"
 12701      6D763765 
 12701      2D6D2B66 
 12701      70202D67 
 12701      67646220 
 12702 0a8b 6E2D6675 		.ascii	"n-functions=16 -fno-strict-aliasing -fstack-protect"
 12702      6E637469 
 12702      6F6E733D 
 12702      3136202D 
 12702      666E6F2D 
 12703 0abe 6F722D61 		.ascii	"or-all -ffunction-sections -fdata-sections -fno-com"
 12703      6C6C202D 
 12703      6666756E 
 12703      6374696F 
 12703      6E2D7365 
 12704 0af1 6D6F6E20 		.ascii	"mon -fsingle-precision-constant\000"
 12704      2D667369 
 12704      6E676C65 
 12704      2D707265 
 12704      63697369 
 12705              	.LASF74:
 12706 0b11 41534542 		.ascii	"ASEBA_MESSAGE_BREAKPOINT_CLEAR_ALL\000"
 12706      415F4D45 
 12706      53534147 
 12706      455F4252 
 12706      45414B50 
 12707              	.LASF92:
 12708 0b34 5F6F6666 		.ascii	"_off_t\000"
 12708      5F7400
 12709              	.LASF8:
 12710 0b3b 41534542 		.ascii	"ASEBA_BYTECODE_BINARY_ARITHMETIC\000"
ARM GAS  /tmp/cclXoGh5.s 			page 232


 12710      415F4259 
 12710      5445434F 
 12710      44455F42 
 12710      494E4152 
 12711              	.LASF241:
 12712 0b5c 76617269 		.ascii	"variableIndex\000"
 12712      61626C65 
 12712      496E6465 
 12712      7800
 12713              	.LASF225:
 12714 0b6a 41736562 		.ascii	"AsebaVMSendExecutionStateChanged\000"
 12714      61564D53 
 12714      656E6445 
 12714      78656375 
 12714      74696F6E 
 12715              	.LASF18:
 12716 0b8b 41534542 		.ascii	"ASEBA_OP_SUB\000"
 12716      415F4F50 
 12716      5F535542 
 12716      00
 12717              	.LASF5:
 12718 0b98 41534542 		.ascii	"ASEBA_BYTECODE_LOAD_INDIRECT\000"
 12718      415F4259 
 12718      5445434F 
 12718      44455F4C 
 12718      4F41445F 
 12719              	.LASF265:
 12720 0bb5 41736562 		.ascii	"AsebaVMErrorCB\000"
 12720      61564D45 
 12720      72726F72 
 12720      434200
 12721              	.LASF159:
 12722 0bc4 5F667265 		.ascii	"_freelist\000"
 12722      656C6973 
 12722      7400
 12723              	.LASF263:
 12724 0bce 41736562 		.ascii	"AsebaPutVmToSleep\000"
 12724      61507574 
 12724      566D546F 
 12724      536C6565 
 12724      7000
 12725              	.LASF59:
 12726 0be0 41534542 		.ascii	"ASEBA_MESSAGE_EVENT_EXECUTION_KILLED\000"
 12726      415F4D45 
 12726      53534147 
 12726      455F4556 
 12726      454E545F 
 12727              	.LASF219:
 12728 0c05 64657374 		.ascii	"dest\000"
 12728      00
 12729              	.LASF17:
 12730 0c0a 41534542 		.ascii	"ASEBA_OP_ADD\000"
 12730      415F4F50 
 12730      5F414444 
 12730      00
 12731              	.LASF100:
 12732 0c17 5F4C4F43 		.ascii	"_LOCK_RECURSIVE_T\000"
ARM GAS  /tmp/cclXoGh5.s 			page 233


 12732      4B5F5245 
 12732      43555253 
 12732      4956455F 
 12732      5400
 12733              	.LASF214:
 12734 0c29 62726561 		.ascii	"breakpointsCount\000"
 12734      6B706F69 
 12734      6E747343 
 12734      6F756E74 
 12734      00
 12735              	.LASF16:
 12736 0c3a 41534542 		.ascii	"ASEBA_OP_SHIFT_RIGHT\000"
 12736      415F4F50 
 12736      5F534849 
 12736      46545F52 
 12736      49474854 
 12737              	.LASF27:
 12738 0c4f 41534542 		.ascii	"ASEBA_OP_BIGGER_THAN\000"
 12738      415F4F50 
 12738      5F424947 
 12738      4745525F 
 12738      5448414E 
 12739              	.LASF54:
 12740 0c64 41534542 		.ascii	"ASEBA_MESSAGE_NATIVE_FUNCTION_DESCRIPTION\000"
 12740      415F4D45 
 12740      53534147 
 12740      455F4E41 
 12740      54495645 
 12741              	.LASF42:
 12742 0c8e 756E7369 		.ascii	"unsigned char\000"
 12742      676E6564 
 12742      20636861 
 12742      7200
 12743              	.LASF269:
 12744 0c9c 5F5F6275 		.ascii	"__builtin_memcpy\000"
 12744      696C7469 
 12744      6E5F6D65 
 12744      6D637079 
 12744      00
 12745              	.LASF162:
 12746 0cad 5F6E6577 		.ascii	"_new\000"
 12746      00
 12747              	.LASF236:
 12748 0cb2 41736562 		.ascii	"AsebaVMEmitNodeSpecificError\000"
 12748      61564D45 
 12748      6D69744E 
 12748      6F646553 
 12748      70656369 
 12749              	.LASF71:
 12750 0ccf 41534542 		.ascii	"ASEBA_MESSAGE_GET_EXECUTION_STATE\000"
 12750      415F4D45 
 12750      53534147 
 12750      455F4745 
 12750      545F4558 
 12751              	.LASF68:
 12752 0cf1 41534542 		.ascii	"ASEBA_MESSAGE_PAUSE\000"
 12752      415F4D45 
ARM GAS  /tmp/cclXoGh5.s 			page 234


 12752      53534147 
 12752      455F5041 
 12752      55534500 
 12753              	.LASF45:
 12754 0d05 41534542 		.ascii	"ASEBA_MESSAGE_BOOTLOADER_READ_PAGE\000"
 12754      415F4D45 
 12754      53534147 
 12754      455F424F 
 12754      4F544C4F 
 12755              	.LASF7:
 12756 0d28 41534542 		.ascii	"ASEBA_BYTECODE_UNARY_ARITHMETIC\000"
 12756      415F4259 
 12756      5445434F 
 12756      44455F55 
 12756      4E415259 
 12757              	.LASF194:
 12758 0d48 5F685F65 		.ascii	"_h_errno\000"
 12758      72726E6F 
 12758      00
 12759              	.LASF87:
 12760 0d51 73686F72 		.ascii	"short int\000"
 12760      7420696E 
 12760      7400
 12761              	.LASF115:
 12762 0d5b 5F5F746D 		.ascii	"__tm_yday\000"
 12762      5F796461 
 12762      7900
 12763              	.LASF125:
 12764 0d65 5F5F7362 		.ascii	"__sbuf\000"
 12764      756600
 12765              	.LASF171:
 12766 0d6c 5F696F62 		.ascii	"_iobs\000"
 12766      7300
 12767              	.LASF168:
 12768 0d72 5F5F4649 		.ascii	"__FILE\000"
 12768      4C4500
 12769              	.LASF98:
 12770 0d79 5F6D6273 		.ascii	"_mbstate_t\000"
 12770      74617465 
 12770      5F7400
 12771              	.LASF128:
 12772 0d84 5F5F7346 		.ascii	"__sFILE\000"
 12772      494C4500 
 12773              	.LASF143:
 12774 0d8c 5F6D6273 		.ascii	"_mbstate\000"
 12774      74617465 
 12774      00
 12775              	.LASF181:
 12776 0d95 5F72616E 		.ascii	"_rand_next\000"
 12776      645F6E65 
 12776      787400
 12777              	.LASF41:
 12778 0da0 41534542 		.ascii	"ASEBA_EVENT_LOCAL_EVENTS_START\000"
 12778      415F4556 
 12778      454E545F 
 12778      4C4F4341 
 12778      4C5F4556 
ARM GAS  /tmp/cclXoGh5.s 			page 235


 12779              	.LASF183:
 12780 0dbf 5F6D626C 		.ascii	"_mblen_state\000"
 12780      656E5F73 
 12780      74617465 
 12780      00
 12781              	.LASF150:
 12782 0dcc 5F696E63 		.ascii	"_inc\000"
 12782      00
 12783              	.LASF123:
 12784 0dd1 5F696E64 		.ascii	"_ind\000"
 12784      00
 12785              	.LASF153:
 12786 0dd6 5F6C6F63 		.ascii	"_locale\000"
 12786      616C6500 
 12787              	.LASF155:
 12788 0dde 5F5F636C 		.ascii	"__cleanup\000"
 12788      65616E75 
 12788      7000
 12789              	.LASF152:
 12790 0de8 5F756E73 		.ascii	"_unspecified_locale_info\000"
 12790      70656369 
 12790      66696564 
 12790      5F6C6F63 
 12790      616C655F 
 12791              	.LASF278:
 12792 0e01 5F5F7374 		.ascii	"__stack_chk_fail\000"
 12792      61636B5F 
 12792      63686B5F 
 12792      6661696C 
 12792      00
 12793              	.LASF103:
 12794 0e12 5F6D6178 		.ascii	"_maxwds\000"
 12794      77647300 
 12795              	.LASF145:
 12796 0e1a 5F726565 		.ascii	"_reent\000"
 12796      6E7400
 12797              	.LASF0:
 12798 0e21 41534542 		.ascii	"ASEBA_BYTECODE_STOP\000"
 12798      415F4259 
 12798      5445434F 
 12798      44455F53 
 12798      544F5000 
 12799              	.LASF173:
 12800 0e35 5F736565 		.ascii	"_seed\000"
 12800      6400
 12801              	.LASF52:
 12802 0e3b 41534542 		.ascii	"ASEBA_MESSAGE_NAMED_VARIABLE_DESCRIPTION\000"
 12802      415F4D45 
 12802      53534147 
 12802      455F4E41 
 12802      4D45445F 
 12803              	.LASF96:
 12804 0e64 5F5F636F 		.ascii	"__count\000"
 12804      756E7400 
 12805              	.LASF97:
 12806 0e6c 5F5F7661 		.ascii	"__value\000"
 12806      6C756500 
ARM GAS  /tmp/cclXoGh5.s 			page 236


 12807              	.LASF110:
 12808 0e74 5F5F746D 		.ascii	"__tm_hour\000"
 12808      5F686F75 
 12808      7200
 12809              	.LASF135:
 12810 0e7e 5F736565 		.ascii	"_seek\000"
 12810      6B00
 12811              	.LASF22:
 12812 0e84 41534542 		.ascii	"ASEBA_OP_BIT_OR\000"
 12812      415F4F50 
 12812      5F424954 
 12812      5F4F5200 
 12813              	.LASF114:
 12814 0e94 5F5F746D 		.ascii	"__tm_wday\000"
 12814      5F776461 
 12814      7900
 12815              	.LASF11:
 12816 0e9e 41534542 		.ascii	"ASEBA_BYTECODE_EMIT\000"
 12816      415F4259 
 12816      5445434F 
 12816      44455F45 
 12816      4D495400 
 12817              	.LASF93:
 12818 0eb2 5F66706F 		.ascii	"_fpos_t\000"
 12818      735F7400 
 12819              	.LASF167:
 12820 0eba 63686172 		.ascii	"char\000"
 12820      00
 12821              	.LASF146:
 12822 0ebf 5F657272 		.ascii	"_errno\000"
 12822      6E6F00
 12823              	.LASF20:
 12824 0ec6 41534542 		.ascii	"ASEBA_OP_DIV\000"
 12824      415F4F50 
 12824      5F444956 
 12824      00
 12825              	.LASF109:
 12826 0ed3 5F5F746D 		.ascii	"__tm_min\000"
 12826      5F6D696E 
 12826      00
 12827              	.LASF210:
 12828 0edc 73746163 		.ascii	"stackSize\000"
 12828      6B53697A 
 12828      6500
 12829              	.LASF250:
 12830 0ee6 41736562 		.ascii	"AsebaVMSetupEvent\000"
 12830      61564D53 
 12830      65747570 
 12830      4576656E 
 12830      7400
 12831              	.LASF253:
 12832 0ef8 41736562 		.ascii	"AsebaVMGetEventAddress\000"
 12832      61564D47 
 12832      65744576 
 12832      656E7441 
 12832      64647265 
 12833              	.LASF81:
ARM GAS  /tmp/cclXoGh5.s 			page 237


 12834 0f0f 41534542 		.ascii	"ASEBA_MESSAGE_LIST_NODES\000"
 12834      415F4D45 
 12834      53534147 
 12834      455F4C49 
 12834      53545F4E 
 12835              	.LASF272:
 12836 0f28 2E2F2F61 		.ascii	".//aseba/vm/vm.c\000"
 12836      73656261 
 12836      2F766D2F 
 12836      766D2E63 
 12836      00
 12837              	.LASF224:
 12838 0f39 62756666 		.ascii	"buffer\000"
 12838      657200
 12839              	.LASF174:
 12840 0f40 5F6D756C 		.ascii	"_mult\000"
 12840      7400
 12841              	.LASF102:
 12842 0f46 5F6E6578 		.ascii	"_next\000"
 12842      7400
 12843              	.LASF6:
 12844 0f4c 41534542 		.ascii	"ASEBA_BYTECODE_STORE_INDIRECT\000"
 12844      415F4259 
 12844      5445434F 
 12844      44455F53 
 12844      544F5245 
 12845              	.LASF70:
 12846 0f6a 41534542 		.ascii	"ASEBA_MESSAGE_STOP\000"
 12846      415F4D45 
 12846      53534147 
 12846      455F5354 
 12846      4F5000
 12847              	.LASF73:
 12848 0f7d 41534542 		.ascii	"ASEBA_MESSAGE_BREAKPOINT_CLEAR\000"
 12848      415F4D45 
 12848      53534147 
 12848      455F4252 
 12848      45414B50 
 12849              	.LASF120:
 12850 0f9c 5F666E74 		.ascii	"_fntypes\000"
 12850      79706573 
 12850      00
 12851              	.LASF255:
 12852 0fa5 41736562 		.ascii	"AsebaVMInit\000"
 12852      61564D49 
 12852      6E697400 
 12853              	.LASF175:
 12854 0fb1 5F616464 		.ascii	"_add\000"
 12854      00
 12855              	.LASF99:
 12856 0fb6 5F5F554C 		.ascii	"__ULong\000"
 12856      6F6E6700 
 12857              	.LASF188:
 12858 0fbe 5F676574 		.ascii	"_getdate_err\000"
 12858      64617465 
 12858      5F657272 
 12858      00
ARM GAS  /tmp/cclXoGh5.s 			page 238


 12859              	.LASF238:
 12860 0fcb 6D73674C 		.ascii	"msgLen\000"
 12860      656E00
 12861              	.LASF245:
 12862 0fd2 6F705265 		.ascii	"opResult\000"
 12862      73756C74 
 12862      00
 12863              	.LASF226:
 12864 0fdb 41736562 		.ascii	"AsebaVMClearBreakpoints\000"
 12864      61564D43 
 12864      6C656172 
 12864      42726561 
 12864      6B706F69 
 12865              	.LASF199:
 12866 0ff3 5F676C6F 		.ascii	"_global_impure_ptr\000"
 12866      62616C5F 
 12866      696D7075 
 12866      72655F70 
 12866      747200
 12867              	.LASF34:
 12868 1006 41534542 		.ascii	"ASEBA_UNARY_OP_ABS\000"
 12868      415F554E 
 12868      4152595F 
 12868      4F505F41 
 12868      425300
 12869              	.LASF262:
 12870 1019 41736562 		.ascii	"AsebaVMRunCB\000"
 12870      61564D52 
 12870      756E4342 
 12870      00
 12871              	.LASF26:
 12872 1026 41534542 		.ascii	"ASEBA_OP_NOT_EQUAL\000"
 12872      415F4F50 
 12872      5F4E4F54 
 12872      5F455155 
 12872      414C00
 12873              	.LASF268:
 12874 1039 6D656D73 		.ascii	"memset\000"
 12874      657400
 12875              	.LASF176:
 12876 1040 5F756E75 		.ascii	"_unused_rand\000"
 12876      7365645F 
 12876      72616E64 
 12876      00
 12877              	.LASF277:
 12878 104d 41736562 		.ascii	"AsebaVMDoBinaryOperation\000"
 12878      61564D44 
 12878      6F42696E 
 12878      6172794F 
 12878      70657261 
 12879              	.LASF228:
 12880 1066 41736562 		.ascii	"AsebaVMSetBreakpoint\000"
 12880      61564D53 
 12880      65744272 
 12880      65616B70 
 12880      6F696E74 
 12881              	.LASF30:
ARM GAS  /tmp/cclXoGh5.s 			page 239


 12882 107b 41534542 		.ascii	"ASEBA_OP_SMALLER_EQUAL_THAN\000"
 12882      415F4F50 
 12882      5F534D41 
 12882      4C4C4552 
 12882      5F455155 
 12883              	.LASF105:
 12884 1097 5F776473 		.ascii	"_wds\000"
 12884      00
 12885              	.LASF21:
 12886 109c 41534542 		.ascii	"ASEBA_OP_MOD\000"
 12886      415F4F50 
 12886      5F4D4F44 
 12886      00
 12887              	.LASF169:
 12888 10a9 5F676C75 		.ascii	"_glue\000"
 12888      6500
 12889              	.LASF233:
 12890 10af 41736562 		.ascii	"AsebaDebugBreakpointRun\000"
 12890      61446562 
 12890      75674272 
 12890      65616B70 
 12890      6F696E74 
 12891              	.LASF249:
 12892 10c7 636F6E64 		.ascii	"conditionResult\000"
 12892      6974696F 
 12892      6E526573 
 12892      756C7400 
 12893              	.LASF50:
 12894 10d7 41534542 		.ascii	"ASEBA_MESSAGE_BOOTLOADER_ACK\000"
 12894      415F4D45 
 12894      53534147 
 12894      455F424F 
 12894      4F544C4F 
 12895              	.LASF186:
 12896 10f4 5F6C3634 		.ascii	"_l64a_buf\000"
 12896      615F6275 
 12896      6600
 12897              	.LASF212:
 12898 10fe 666C6167 		.ascii	"flags\000"
 12898      7300
 12899              	.LASF19:
 12900 1104 41534542 		.ascii	"ASEBA_OP_MULT\000"
 12900      415F4F50 
 12900      5F4D554C 
 12900      5400
 12901              	.LASF164:
 12902 1112 5F736967 		.ascii	"_sig_func\000"
 12902      5F66756E 
 12902      6300
 12903              	.LASF211:
 12904 111c 73746163 		.ascii	"stack\000"
 12904      6B00
 12905              	.LASF223:
 12906 1122 6C656E67 		.ascii	"length\000"
 12906      746800
 12907              	.LASF246:
 12908 1129 76616C75 		.ascii	"valueOne\000"
ARM GAS  /tmp/cclXoGh5.s 			page 240


 12908      654F6E65 
 12908      00
 12909              	.LASF32:
 12910 1132 41534542 		.ascii	"ASEBA_OP_AND\000"
 12910      415F4F50 
 12910      5F414E44 
 12910      00
 12911              	.LASF58:
 12912 113f 41534542 		.ascii	"ASEBA_MESSAGE_DIVISION_BY_ZERO\000"
 12912      415F4D45 
 12912      53534147 
 12912      455F4449 
 12912      56495349 
 12913              	.LASF197:
 12914 115e 5F756E75 		.ascii	"_unused\000"
 12914      73656400 
 12915              	.LASF31:
 12916 1166 41534542 		.ascii	"ASEBA_OP_OR\000"
 12916      415F4F50 
 12916      5F4F5200 
 12917              	.LASF77:
 12918 1172 41534542 		.ascii	"ASEBA_MESSAGE_WRITE_BYTECODE\000"
 12918      415F4D45 
 12918      53534147 
 12918      455F5752 
 12918      4954455F 
 12919              	.LASF116:
 12920 118f 5F5F746D 		.ascii	"__tm_isdst\000"
 12920      5F697364 
 12920      737400
 12921              	.LASF179:
 12922 119a 5F6C6F63 		.ascii	"_localtime_buf\000"
 12922      616C7469 
 12922      6D655F62 
 12922      756600
 12923              	.LASF136:
 12924 11a9 5F636C6F 		.ascii	"_close\000"
 12924      736500
 12925              	.LASF72:
 12926 11b0 41534542 		.ascii	"ASEBA_MESSAGE_BREAKPOINT_SET\000"
 12926      415F4D45 
 12926      53534147 
 12926      455F4252 
 12926      45414B50 
 12927              	.LASF182:
 12928 11cd 5F723438 		.ascii	"_r48\000"
 12928      00
 12929              	.LASF222:
 12930 11d2 73746172 		.ascii	"start\000"
 12930      7400
 12931              	.LASF184:
 12932 11d8 5F6D6274 		.ascii	"_mbtowc_state\000"
 12932      6F77635F 
 12932      73746174 
 12932      6500
 12933              	.LASF158:
 12934 11e6 5F703573 		.ascii	"_p5s\000"
ARM GAS  /tmp/cclXoGh5.s 			page 241


 12934      00
 12935              	.LASF230:
 12936 11eb 41736562 		.ascii	"AsebaVMRun\000"
 12936      61564D52 
 12936      756E00
 12937              	.LASF24:
 12938 11f6 41534542 		.ascii	"ASEBA_OP_BIT_AND\000"
 12938      415F4F50 
 12938      5F424954 
 12938      5F414E44 
 12938      00
 12939              	.LASF23:
 12940 1207 41534542 		.ascii	"ASEBA_OP_BIT_XOR\000"
 12940      415F4F50 
 12940      5F424954 
 12940      5F584F52 
 12940      00
 12941              	.LASF111:
 12942 1218 5F5F746D 		.ascii	"__tm_mday\000"
 12942      5F6D6461 
 12942      7900
 12943              	.LASF243:
 12944 1222 61727261 		.ascii	"arraySize\000"
 12944      7953697A 
 12944      6500
 12945              	.LASF276:
 12946 122c 41736562 		.ascii	"AsebaVMDoUnaryOperation\000"
 12946      61564D44 
 12946      6F556E61 
 12946      72794F70 
 12946      65726174 
 12947              	.LASF259:
 12948 1244 41736562 		.ascii	"AsebaSendDescription\000"
 12948      6153656E 
 12948      64446573 
 12948      63726970 
 12948      74696F6E 
 12949              	.LASF254:
 12950 1259 6576656E 		.ascii	"eventVectorSize\000"
 12950      74566563 
 12950      746F7253 
 12950      697A6500 
 12951              		.ident	"GCC: (15:9-2019-q4-0ubuntu1) 9.2.1 20191025 (release) [ARM/arm-9-branch revision 277599]"
ARM GAS  /tmp/cclXoGh5.s 			page 242


DEFINED SYMBOLS
                            *ABS*:0000000000000000 vm.c
     /tmp/cclXoGh5.s:18     .rodata.AsebaVMDoBinaryOperation.cst4:0000000000000000 $d
     /tmp/cclXoGh5.s:22     .text.AsebaVMDoBinaryOperation:0000000000000000 $t
     /tmp/cclXoGh5.s:30     .text.AsebaVMDoBinaryOperation:0000000000000000 AsebaVMDoBinaryOperation
     /tmp/cclXoGh5.s:54     .text.AsebaVMDoBinaryOperation:000000000000001c $d
     /tmp/cclXoGh5.s:72     .text.AsebaVMDoBinaryOperation:000000000000002e $t
     /tmp/cclXoGh5.s:320    .text.AsebaVMDoBinaryOperation:0000000000000104 $d
     /tmp/cclXoGh5.s:326    .rodata.AsebaVMInit.cst4:0000000000000000 $d
     /tmp/cclXoGh5.s:330    .text.AsebaVMInit:0000000000000000 $t
     /tmp/cclXoGh5.s:338    .text.AsebaVMInit:0000000000000000 AsebaVMInit
     /tmp/cclXoGh5.s:402    .text.AsebaVMInit:000000000000003c $d
     /tmp/cclXoGh5.s:407    .rodata.AsebaVMGetEventAddress.cst4:0000000000000000 $d
     /tmp/cclXoGh5.s:411    .text.AsebaVMGetEventAddress:0000000000000000 $t
     /tmp/cclXoGh5.s:419    .text.AsebaVMGetEventAddress:0000000000000000 AsebaVMGetEventAddress
     /tmp/cclXoGh5.s:505    .text.AsebaVMGetEventAddress:0000000000000048 $d
     /tmp/cclXoGh5.s:510    .rodata.AsebaVMSetupEvent.cst4:0000000000000000 $d
     /tmp/cclXoGh5.s:514    .text.AsebaVMSetupEvent:0000000000000000 $t
     /tmp/cclXoGh5.s:522    .text.AsebaVMSetupEvent:0000000000000000 AsebaVMSetupEvent
     /tmp/cclXoGh5.s:709    .text.AsebaVMSetupEvent:0000000000000090 $d
     /tmp/cclXoGh5.s:714    .rodata.AsebaVMStep.cst4:0000000000000000 $d
     /tmp/cclXoGh5.s:718    .text.AsebaVMStep:0000000000000000 $t
     /tmp/cclXoGh5.s:726    .text.AsebaVMStep:0000000000000000 AsebaVMStep
     /tmp/cclXoGh5.s:770    .text.AsebaVMStep:0000000000000024 $d
     /tmp/cclXoGh5.s:785    .text.AsebaVMStep:0000000000000042 $t
     /tmp/cclXoGh5.s:1428   .text.AsebaVMStep:00000000000002a8 $d
     /tmp/cclXoGh5.s:1434   .rodata.AsebaVMEmitNodeSpecificError.cst4:0000000000000000 $d
     /tmp/cclXoGh5.s:1438   .text.AsebaVMEmitNodeSpecificError:0000000000000000 $t
     /tmp/cclXoGh5.s:1446   .text.AsebaVMEmitNodeSpecificError:0000000000000000 AsebaVMEmitNodeSpecificError
     /tmp/cclXoGh5.s:1563   .text.AsebaVMEmitNodeSpecificError:000000000000007c $d
     /tmp/cclXoGh5.s:1569   .rodata.AsebaVMCheckBreakpoint.cst4:0000000000000000 $d
     /tmp/cclXoGh5.s:1573   .text.AsebaVMCheckBreakpoint:0000000000000000 $t
     /tmp/cclXoGh5.s:1581   .text.AsebaVMCheckBreakpoint:0000000000000000 AsebaVMCheckBreakpoint
     /tmp/cclXoGh5.s:1665   .text.AsebaVMCheckBreakpoint:0000000000000054 $d
     /tmp/cclXoGh5.s:1670   .rodata.AsebaDebugBareRun.cst4:0000000000000000 $d
     /tmp/cclXoGh5.s:1674   .text.AsebaDebugBareRun:0000000000000000 $t
     /tmp/cclXoGh5.s:1682   .text.AsebaDebugBareRun:0000000000000000 AsebaDebugBareRun
     /tmp/cclXoGh5.s:1794   .text.AsebaDebugBareRun:0000000000000078 $d
     /tmp/cclXoGh5.s:1799   .rodata.AsebaDebugBreakpointRun.cst4:0000000000000000 $d
     /tmp/cclXoGh5.s:1803   .text.AsebaDebugBreakpointRun:0000000000000000 $t
     /tmp/cclXoGh5.s:1811   .text.AsebaDebugBreakpointRun:0000000000000000 AsebaDebugBreakpointRun
     /tmp/cclXoGh5.s:2025   .text.AsebaDebugBreakpointRun:00000000000000dc $d
     /tmp/cclXoGh5.s:2030   .rodata.AsebaVMRun.cst4:0000000000000000 $d
     /tmp/cclXoGh5.s:2034   .text.AsebaVMRun:0000000000000000 $t
     /tmp/cclXoGh5.s:2042   .text.AsebaVMRun:0000000000000000 AsebaVMRun
     /tmp/cclXoGh5.s:2110   .text.AsebaVMRun:0000000000000040 $d
     /tmp/cclXoGh5.s:2115   .rodata.AsebaVMSetBreakpoint.cst4:0000000000000000 $d
     /tmp/cclXoGh5.s:2119   .text.AsebaVMSetBreakpoint:0000000000000000 $t
     /tmp/cclXoGh5.s:2127   .text.AsebaVMSetBreakpoint:0000000000000000 AsebaVMSetBreakpoint
     /tmp/cclXoGh5.s:2193   .text.AsebaVMSetBreakpoint:0000000000000038 $d
     /tmp/cclXoGh5.s:2198   .rodata.AsebaVMClearBreakpoint.cst4:0000000000000000 $d
     /tmp/cclXoGh5.s:2202   .text.AsebaVMClearBreakpoint:0000000000000000 $t
     /tmp/cclXoGh5.s:2210   .text.AsebaVMClearBreakpoint:0000000000000000 AsebaVMClearBreakpoint
     /tmp/cclXoGh5.s:2328   .text.AsebaVMClearBreakpoint:0000000000000070 $d
     /tmp/cclXoGh5.s:2333   .rodata.AsebaVMClearBreakpoints.cst4:0000000000000000 $d
     /tmp/cclXoGh5.s:2337   .text.AsebaVMClearBreakpoints:0000000000000000 $t
     /tmp/cclXoGh5.s:2345   .text.AsebaVMClearBreakpoints:0000000000000000 AsebaVMClearBreakpoints
ARM GAS  /tmp/cclXoGh5.s 			page 243


     /tmp/cclXoGh5.s:2387   .text.AsebaVMClearBreakpoints:0000000000000028 $d
     /tmp/cclXoGh5.s:2392   .rodata.AsebaVMSendExecutionStateChanged.cst4:0000000000000000 $d
     /tmp/cclXoGh5.s:2396   .text.AsebaVMSendExecutionStateChanged:0000000000000000 $t
     /tmp/cclXoGh5.s:2404   .text.AsebaVMSendExecutionStateChanged:0000000000000000 AsebaVMSendExecutionStateChanged
     /tmp/cclXoGh5.s:2461   .text.AsebaVMSendExecutionStateChanged:0000000000000038 $d
     /tmp/cclXoGh5.s:2466   .rodata.AsebaVMDebugMessage.cst4:0000000000000000 $d
     /tmp/cclXoGh5.s:2470   .text.AsebaVMDebugMessage:0000000000000000 $t
     /tmp/cclXoGh5.s:2478   .text.AsebaVMDebugMessage:0000000000000000 AsebaVMDebugMessage
     /tmp/cclXoGh5.s:2539   .text.AsebaVMDebugMessage:000000000000003c $d
     /tmp/cclXoGh5.s:2555   .text.AsebaVMDebugMessage:000000000000005c $t
     /tmp/cclXoGh5.s:3177   .text.AsebaVMDebugMessage:0000000000000258 $d
     /tmp/cclXoGh5.s:3184   .rodata.AsebaVMShouldDropPacket.cst4:0000000000000000 $d
     /tmp/cclXoGh5.s:3188   .text.AsebaVMShouldDropPacket:0000000000000000 $t
     /tmp/cclXoGh5.s:3196   .text.AsebaVMShouldDropPacket:0000000000000000 AsebaVMShouldDropPacket
     /tmp/cclXoGh5.s:3345   .text.AsebaVMShouldDropPacket:0000000000000078 $d

UNDEFINED SYMBOLS
__stack_chk_guard
AsebaVMErrorCB
AsebaSendMessage
__stack_chk_fail
memset
AsebaNativeFunction
strlen
memcpy
AsebaVMResetCB
AsebaSendDescription
AsebaResetIntoBootloader
AsebaWriteBytecode
AsebaVMRunCB
AsebaPutVmToSleep
AsebaSendVariables
