ARM GAS  /tmp/cclXoGh5.s 			page 1


   1              		.cpu cortex-m4
   2              		.eabi_attribute 27, 1
   3              		.eabi_attribute 28, 1
   4              		.eabi_attribute 20, 1
   5              		.eabi_attribute 21, 1
   6              		.eabi_attribute 23, 3
   7              		.eabi_attribute 24, 1
   8              		.eabi_attribute 25, 1
   9              		.eabi_attribute 26, 1
  10              		.eabi_attribute 30, 2
  11              		.eabi_attribute 34, 1
  12              		.eabi_attribute 18, 4
  13              		.file	"vm.c"
  14              		.text
  15              	.Ltext0:
  16              		.cfi_sections	.debug_frame
  17              		.section	.rodata.AsebaVMDoBinaryOperation.cst4,"aM",%progbits,4
  18              		.align	2
  19              	.LC0:
  20 0000 00000000 		.word	__stack_chk_guard
  21              		.section	.text.AsebaVMDoBinaryOperation,"ax",%progbits
  22              		.align	1
  23              		.p2align 4,,15
  24              		.arch armv7e-m
  25              		.syntax unified
  26              		.thumb
  27              		.thumb_func
  28              		.fpu fpv4-sp-d16
  29              		.type	AsebaVMDoBinaryOperation, %function
  30              	AsebaVMDoBinaryOperation:
  31              	.LVL0:
  32              	.LFB3:
  33              		.file 1 ".//aseba/vm/vm.c"
  34              		.loc 1 91 1 view -0
  35              		.cfi_startproc
  36              		@ args = 0, pretend = 0, frame = 16
  37              		@ frame_needed = 0, uses_anonymous_args = 0
  38              		.loc 1 91 1 is_stmt 0 view .LVU1
  39 0000 00B5     		push	{lr}
  40              		.cfi_def_cfa_offset 4
  41              		.cfi_offset 14, -4
  42 0002 DFF800C1 		ldr	ip, .L38
  43 0006 85B0     		sub	sp, sp, #20
  44              		.cfi_def_cfa_offset 24
  45              		.loc 1 91 1 view .LVU2
  46 0008 DCF800C0 		ldr	ip, [ip]
  47 000c CDF80CC0 		str	ip, [sp, #12]
  48 0010 4FF0000C 		mov	ip,#0
  49              		.loc 1 92 2 is_stmt 1 view .LVU3
  50 0014 112B     		cmp	r3, #17
  51 0016 38D8     		bhi	.L28
  52 0018 DFE803F0 		tbb	[pc, r3]
  53              	.L4:
  54 001c 0E       		.byte	(.L21-.L4)/2
  55 001d 19       		.byte	(.L20-.L4)/2
  56 001e 1C       		.byte	(.L19-.L4)/2
  57 001f 1F       		.byte	(.L18-.L4)/2
ARM GAS  /tmp/cclXoGh5.s 			page 2


  58 0020 22       		.byte	(.L17-.L4)/2
  59 0021 26       		.byte	(.L16-.L4)/2
  60 0022 39       		.byte	(.L15-.L4)/2
  61 0023 41       		.byte	(.L14-.L4)/2
  62 0024 44       		.byte	(.L13-.L4)/2
  63 0025 47       		.byte	(.L12-.L4)/2
  64 0026 4A       		.byte	(.L11-.L4)/2
  65 0027 4F       		.byte	(.L10-.L4)/2
  66 0028 53       		.byte	(.L9-.L4)/2
  67 0029 58       		.byte	(.L8-.L4)/2
  68 002a 5D       		.byte	(.L7-.L4)/2
  69 002b 62       		.byte	(.L6-.L4)/2
  70 002c 67       		.byte	(.L5-.L4)/2
  71 002d 09       		.byte	(.L3-.L4)/2
  72              		.p2align 1
  73              	.L3:
  74              		.loc 1 140 22 view .LVU4
  75              		.loc 1 140 38 is_stmt 0 view .LVU5
  76 002e 61B3     		cbz	r1, .L28
  77 0030 101E     		subs	r0, r2, #0
  78              	.LVL1:
  79              		.loc 1 140 38 view .LVU6
  80 0032 18BF     		it	ne
  81 0034 0120     		movne	r0, #1
  82 0036 02E0     		b	.L2
  83              	.LVL2:
  84              	.L21:
  85              		.loc 1 94 29 is_stmt 1 view .LVU7
  86              		.loc 1 94 45 is_stmt 0 view .LVU8
  87 0038 01FA02F2 		lsl	r2, r1, r2
  88              	.LVL3:
  89              		.loc 1 94 45 view .LVU9
  90 003c 10B2     		sxth	r0, r2
  91              	.LVL4:
  92              	.L2:
  93              		.loc 1 148 1 view .LVU10
  94 003e 314B     		ldr	r3, .L38
  95 0040 1A68     		ldr	r2, [r3]
  96 0042 039B     		ldr	r3, [sp, #12]
  97 0044 5A40     		eors	r2, r3, r2
  98 0046 5AD1     		bne	.L37
  99 0048 05B0     		add	sp, sp, #20
 100              		.cfi_remember_state
 101              		.cfi_def_cfa_offset 4
 102              		@ sp needed
 103 004a 5DF804FB 		ldr	pc, [sp], #4
 104              	.LVL5:
 105              	.L20:
 106              		.cfi_restore_state
 107              		.loc 1 95 30 is_stmt 1 view .LVU11
 108              		.loc 1 95 46 is_stmt 0 view .LVU12
 109 004e 41FA02F0 		asr	r0, r1, r2
 110              	.LVL6:
 111              		.loc 1 95 46 view .LVU13
 112 0052 F4E7     		b	.L2
 113              	.LVL7:
 114              	.L19:
ARM GAS  /tmp/cclXoGh5.s 			page 3


 115              		.loc 1 96 22 is_stmt 1 view .LVU14
 116              		.loc 1 96 38 is_stmt 0 view .LVU15
 117 0054 0A44     		add	r2, r2, r1
 118              	.LVL8:
 119              		.loc 1 96 38 view .LVU16
 120 0056 10B2     		sxth	r0, r2
 121              	.LVL9:
 122              		.loc 1 96 38 view .LVU17
 123 0058 F1E7     		b	.L2
 124              	.LVL10:
 125              	.L18:
 126              		.loc 1 97 22 is_stmt 1 view .LVU18
 127              		.loc 1 97 38 is_stmt 0 view .LVU19
 128 005a 8A1A     		subs	r2, r1, r2
 129              	.LVL11:
 130              		.loc 1 97 38 view .LVU20
 131 005c 10B2     		sxth	r0, r2
 132              	.LVL12:
 133              		.loc 1 97 38 view .LVU21
 134 005e EEE7     		b	.L2
 135              	.LVL13:
 136              	.L17:
 137              		.loc 1 98 23 is_stmt 1 view .LVU22
 138              		.loc 1 98 39 is_stmt 0 view .LVU23
 139 0060 11FB02F2 		smulbb	r2, r1, r2
 140              	.LVL14:
 141              		.loc 1 98 39 view .LVU24
 142 0064 10B2     		sxth	r0, r2
 143              	.LVL15:
 144              		.loc 1 98 39 view .LVU25
 145 0066 EAE7     		b	.L2
 146              	.LVL16:
 147              	.L16:
 148              		.loc 1 101 4 is_stmt 1 view .LVU26
 149              		.loc 1 101 7 is_stmt 0 view .LVU27
 150 0068 002A     		cmp	r2, #0
 151 006a 44D1     		bne	.L22
 152              	.L34:
 153              		.loc 1 103 5 is_stmt 1 view .LVU28
 154              		.loc 1 103 7 is_stmt 0 view .LVU29
 155 006c 264B     		ldr	r3, .L38+4
 156              	.LVL17:
 157              		.loc 1 103 7 view .LVU30
 158 006e 23B1     		cbz	r3, .L23
 159              		.loc 1 104 6 is_stmt 1 view .LVU31
 160 0070 0021     		movs	r1, #0
 161              	.LVL18:
 162              		.loc 1 104 6 is_stmt 0 view .LVU32
 163 0072 0190     		str	r0, [sp, #4]
 164 0074 FFF7FEFF 		bl	AsebaVMErrorCB
 165              	.LVL19:
 166              		.loc 1 104 6 view .LVU33
 167 0078 0198     		ldr	r0, [sp, #4]
 168              	.LVL20:
 169              	.L23:
 170              		.loc 1 105 5 is_stmt 1 view .LVU34
 171              		.loc 1 105 15 is_stmt 0 view .LVU35
ARM GAS  /tmp/cclXoGh5.s 			page 4


 172 007a 0223     		movs	r3, #2
 173 007c 0383     		strh	r3, [r0, #24]	@ movhi
 174              		.loc 1 106 5 is_stmt 1 view .LVU36
 175 007e 00F11A02 		add	r2, r0, #26
 176 0082 49F20701 		movw	r1, #36871
 177 0086 FFF7FEFF 		bl	AsebaSendMessage
 178              	.LVL21:
 179              		.loc 1 107 5 view .LVU37
 180              	.L28:
 181              		.loc 1 107 12 is_stmt 0 view .LVU38
 182 008a 0020     		movs	r0, #0
 183 008c D7E7     		b	.L2
 184              	.LVL22:
 185              	.L15:
 186              		.loc 1 115 4 is_stmt 1 view .LVU39
 187              		.loc 1 115 7 is_stmt 0 view .LVU40
 188 008e 002A     		cmp	r2, #0
 189 0090 ECD0     		beq	.L34
 190              		.loc 1 125 5 is_stmt 1 view .LVU41
 191              		.loc 1 125 21 is_stmt 0 view .LVU42
 192 0092 91FBF2F0 		sdiv	r0, r1, r2
 193              	.LVL23:
 194              		.loc 1 125 21 view .LVU43
 195 0096 02FB1012 		mls	r2, r2, r0, r1
 196              	.LVL24:
 197              		.loc 1 125 21 view .LVU44
 198 009a 10B2     		sxth	r0, r2
 199 009c CFE7     		b	.L2
 200              	.LVL25:
 201              	.L14:
 202              		.loc 1 128 25 is_stmt 1 view .LVU45
 203              		.loc 1 128 41 is_stmt 0 view .LVU46
 204 009e 41EA0200 		orr	r0, r1, r2
 205              	.LVL26:
 206              		.loc 1 128 41 view .LVU47
 207 00a2 CCE7     		b	.L2
 208              	.LVL27:
 209              	.L13:
 210              		.loc 1 129 26 is_stmt 1 view .LVU48
 211              		.loc 1 129 42 is_stmt 0 view .LVU49
 212 00a4 81EA0200 		eor	r0, r1, r2
 213              	.LVL28:
 214              		.loc 1 129 42 view .LVU50
 215 00a8 C9E7     		b	.L2
 216              	.LVL29:
 217              	.L12:
 218              		.loc 1 130 26 is_stmt 1 view .LVU51
 219              		.loc 1 130 42 is_stmt 0 view .LVU52
 220 00aa 01EA0200 		and	r0, r1, r2
 221              	.LVL30:
 222              		.loc 1 130 42 view .LVU53
 223 00ae C6E7     		b	.L2
 224              	.LVL31:
 225              	.L11:
 226              		.loc 1 132 24 is_stmt 1 view .LVU54
 227              		.loc 1 132 40 is_stmt 0 view .LVU55
 228 00b0 881A     		subs	r0, r1, r2
ARM GAS  /tmp/cclXoGh5.s 			page 5


 229              	.LVL32:
 230              		.loc 1 132 40 view .LVU56
 231 00b2 B0FA80F0 		clz	r0, r0
 232 00b6 4009     		lsrs	r0, r0, #5
 233 00b8 C1E7     		b	.L2
 234              	.LVL33:
 235              	.L10:
 236              		.loc 1 133 28 is_stmt 1 view .LVU57
 237              		.loc 1 133 44 is_stmt 0 view .LVU58
 238 00ba 881A     		subs	r0, r1, r2
 239              	.LVL34:
 240              		.loc 1 133 44 view .LVU59
 241 00bc 18BF     		it	ne
 242 00be 0120     		movne	r0, #1
 243 00c0 BDE7     		b	.L2
 244              	.LVL35:
 245              	.L9:
 246              		.loc 1 134 30 is_stmt 1 view .LVU60
 247              		.loc 1 134 46 is_stmt 0 view .LVU61
 248 00c2 9142     		cmp	r1, r2
 249 00c4 D4BF     		ite	le
 250 00c6 0020     		movle	r0, #0
 251              	.LVL36:
 252              		.loc 1 134 46 view .LVU62
 253 00c8 0120     		movgt	r0, #1
 254 00ca B8E7     		b	.L2
 255              	.LVL37:
 256              	.L8:
 257              		.loc 1 135 36 is_stmt 1 view .LVU63
 258              		.loc 1 135 52 is_stmt 0 view .LVU64
 259 00cc 9142     		cmp	r1, r2
 260 00ce B4BF     		ite	lt
 261 00d0 0020     		movlt	r0, #0
 262              	.LVL38:
 263              		.loc 1 135 52 view .LVU65
 264 00d2 0120     		movge	r0, #1
 265 00d4 B3E7     		b	.L2
 266              	.LVL39:
 267              	.L7:
 268              		.loc 1 136 31 is_stmt 1 view .LVU66
 269              		.loc 1 136 47 is_stmt 0 view .LVU67
 270 00d6 9142     		cmp	r1, r2
 271 00d8 ACBF     		ite	ge
 272 00da 0020     		movge	r0, #0
 273              	.LVL40:
 274              		.loc 1 136 47 view .LVU68
 275 00dc 0120     		movlt	r0, #1
 276 00de AEE7     		b	.L2
 277              	.LVL41:
 278              	.L6:
 279              		.loc 1 137 37 is_stmt 1 view .LVU69
 280              		.loc 1 137 53 is_stmt 0 view .LVU70
 281 00e0 9142     		cmp	r1, r2
 282 00e2 CCBF     		ite	gt
 283 00e4 0020     		movgt	r0, #0
 284              	.LVL42:
 285              		.loc 1 137 53 view .LVU71
ARM GAS  /tmp/cclXoGh5.s 			page 6


 286 00e6 0120     		movle	r0, #1
 287 00e8 A9E7     		b	.L2
 288              	.LVL43:
 289              	.L5:
 290              		.loc 1 139 21 is_stmt 1 view .LVU72
 291              		.loc 1 139 37 is_stmt 0 view .LVU73
 292 00ea 51EA0203 		orrs	r3, r1, r2
 293              	.LVL44:
 294              		.loc 1 139 37 view .LVU74
 295 00ee 14BF     		ite	ne
 296 00f0 0120     		movne	r0, #1
 297              	.LVL45:
 298              		.loc 1 139 37 view .LVU75
 299 00f2 0020     		moveq	r0, #0
 300 00f4 A3E7     		b	.L2
 301              	.LVL46:
 302              	.L22:
 303              		.loc 1 111 5 is_stmt 1 view .LVU76
 304              		.loc 1 111 21 is_stmt 0 view .LVU77
 305 00f6 91FBF2F2 		sdiv	r2, r1, r2
 306              	.LVL47:
 307              		.loc 1 111 21 view .LVU78
 308 00fa 10B2     		sxth	r0, r2
 309              	.LVL48:
 310              		.loc 1 111 21 view .LVU79
 311 00fc 9FE7     		b	.L2
 312              	.LVL49:
 313              	.L37:
 314              		.loc 1 148 1 view .LVU80
 315 00fe FFF7FEFF 		bl	__stack_chk_fail
 316              	.LVL50:
 317              	.L39:
 318 0102 00BF     		.align	2
 319              	.L38:
 320 0104 00000000 		.word	.LC0
 321 0108 00000000 		.word	AsebaVMErrorCB
 322              		.cfi_endproc
 323              	.LFE3:
 324              		.size	AsebaVMDoBinaryOperation, .-AsebaVMDoBinaryOperation
 325              		.section	.rodata.AsebaVMInit.cst4,"aM",%progbits,4
 326              		.align	2
 327              	.LC1:
 328 0000 00000000 		.word	__stack_chk_guard
 329              		.section	.text.AsebaVMInit,"ax",%progbits
 330              		.align	1
 331              		.p2align 4,,15
 332              		.global	AsebaVMInit
 333              		.syntax unified
 334              		.thumb
 335              		.thumb_func
 336              		.fpu fpv4-sp-d16
 337              		.type	AsebaVMInit, %function
 338              	AsebaVMInit:
 339              	.LVL51:
 340              	.LFB0:
 341              		.loc 1 45 1 is_stmt 1 view -0
 342              		.cfi_startproc
ARM GAS  /tmp/cclXoGh5.s 			page 7


 343              		@ args = 0, pretend = 0, frame = 8
 344              		@ frame_needed = 0, uses_anonymous_args = 0
 345              		.loc 1 45 1 is_stmt 0 view .LVU82
 346 0000 00B5     		push	{lr}
 347              		.cfi_def_cfa_offset 4
 348              		.cfi_offset 14, -4
 349 0002 0E4A     		ldr	r2, .L45
 350              		.loc 1 51 4 view .LVU83
 351 0004 4368     		ldr	r3, [r0, #4]
 352              		.loc 1 47 12 view .LVU84
 353 0006 0021     		movs	r1, #0
 354              		.loc 1 45 1 view .LVU85
 355 0008 83B0     		sub	sp, sp, #12
 356              		.cfi_def_cfa_offset 16
 357              		.loc 1 45 1 view .LVU86
 358 000a 1268     		ldr	r2, [r2]
 359 000c 0192     		str	r2, [sp, #4]
 360 000e 4FF00002 		mov	r2,#0
 361              		.loc 1 46 2 is_stmt 1 view .LVU87
 362              		.loc 1 47 2 view .LVU88
 363              		.loc 1 47 12 is_stmt 0 view .LVU89
 364 0012 8161     		str	r1, [r0, #24]
 365              		.loc 1 48 2 is_stmt 1 view .LVU90
 366              		.loc 1 48 23 is_stmt 0 view .LVU91
 367 0014 C187     		strh	r1, [r0, #62]	@ movhi
 368              		.loc 1 51 2 is_stmt 1 view .LVU92
 369              		.loc 1 51 18 is_stmt 0 view .LVU93
 370 0016 1980     		strh	r1, [r3]	@ movhi
 371              		.loc 1 52 2 is_stmt 1 view .LVU94
 372 0018 084B     		ldr	r3, .L45
 373              		.loc 1 52 29 is_stmt 0 view .LVU95
 374 001a 0289     		ldrh	r2, [r0, #8]
 375              		.loc 1 52 2 view .LVU96
 376 001c C068     		ldr	r0, [r0, #12]
 377              	.LVL52:
 378              		.loc 1 52 2 view .LVU97
 379 001e D3F800C0 		ldr	ip, [r3]
 380 0022 019B     		ldr	r3, [sp, #4]
 381 0024 93EA0C0C 		eors	ip, r3, ip
 382 0028 05D1     		bne	.L44
 383 002a 5200     		lsls	r2, r2, #1
 384              		.loc 1 53 1 view .LVU98
 385 002c 03B0     		add	sp, sp, #12
 386              		.cfi_remember_state
 387              		.cfi_def_cfa_offset 4
 388              		@ sp needed
 389 002e 5DF804EB 		ldr	lr, [sp], #4
 390              		.cfi_restore 14
 391              		.cfi_def_cfa_offset 0
 392              		.loc 1 52 2 view .LVU99
 393 0032 FFF7FEBF 		b	memset
 394              	.LVL53:
 395              	.L44:
 396              		.cfi_restore_state
 397 0036 FFF7FEFF 		bl	__stack_chk_fail
 398              	.LVL54:
 399              	.L46:
ARM GAS  /tmp/cclXoGh5.s 			page 8


 400 003a 00BF     		.align	2
 401              	.L45:
 402 003c 00000000 		.word	.LC1
 403              		.cfi_endproc
 404              	.LFE0:
 405              		.size	AsebaVMInit, .-AsebaVMInit
 406              		.section	.rodata.AsebaVMGetEventAddress.cst4,"aM",%progbits,4
 407              		.align	2
 408              	.LC2:
 409 0000 00000000 		.word	__stack_chk_guard
 410              		.section	.text.AsebaVMGetEventAddress,"ax",%progbits
 411              		.align	1
 412              		.p2align 4,,15
 413              		.global	AsebaVMGetEventAddress
 414              		.syntax unified
 415              		.thumb
 416              		.thumb_func
 417              		.fpu fpv4-sp-d16
 418              		.type	AsebaVMGetEventAddress, %function
 419              	AsebaVMGetEventAddress:
 420              	.LVL55:
 421              	.LFB1:
 422              		.loc 1 56 1 is_stmt 1 view -0
 423              		.cfi_startproc
 424              		@ args = 0, pretend = 0, frame = 8
 425              		@ frame_needed = 0, uses_anonymous_args = 0
 426              		.loc 1 56 1 is_stmt 0 view .LVU101
 427 0000 10B5     		push	{r4, lr}
 428              		.cfi_def_cfa_offset 8
 429              		.cfi_offset 4, -8
 430              		.cfi_offset 14, -4
 431              		.loc 1 57 29 view .LVU102
 432 0002 4068     		ldr	r0, [r0, #4]
 433              	.LVL56:
 434              		.loc 1 56 1 view .LVU103
 435 0004 104B     		ldr	r3, .L56
 436              		.loc 1 57 9 view .LVU104
 437 0006 0488     		ldrh	r4, [r0]
 438              		.loc 1 56 1 view .LVU105
 439 0008 82B0     		sub	sp, sp, #8
 440              		.cfi_def_cfa_offset 16
 441              		.loc 1 61 2 view .LVU106
 442 000a 012C     		cmp	r4, #1
 443              		.loc 1 56 1 view .LVU107
 444 000c 1B68     		ldr	r3, [r3]
 445 000e 0193     		str	r3, [sp, #4]
 446 0010 4FF00003 		mov	r3,#0
 447              		.loc 1 57 2 is_stmt 1 view .LVU108
 448              	.LVL57:
 449              		.loc 1 58 2 view .LVU109
 450              		.loc 1 61 2 view .LVU110
 451              		.loc 1 61 14 view .LVU111
 452              		.loc 1 61 2 is_stmt 0 view .LVU112
 453 0014 0DD9     		bls	.L52
 454 0016 0123     		movs	r3, #1
 455 0018 03E0     		b	.L50
 456              	.LVL58:
ARM GAS  /tmp/cclXoGh5.s 			page 9


 457              	.L49:
 458              		.loc 1 61 35 is_stmt 1 discriminator 2 view .LVU113
 459              		.loc 1 61 14 discriminator 2 view .LVU114
 460 001a 0233     		adds	r3, r3, #2
 461              	.LVL59:
 462              		.loc 1 61 2 is_stmt 0 discriminator 2 view .LVU115
 463 001c 9AB2     		uxth	r2, r3
 464 001e 9442     		cmp	r4, r2
 465 0020 07D9     		bls	.L52
 466              	.L50:
 467              	.LVL60:
 468              		.loc 1 62 3 is_stmt 1 view .LVU116
 469              		.loc 1 62 6 is_stmt 0 view .LVU117
 470 0022 30F81320 		ldrh	r2, [r0, r3, lsl #1]
 471 0026 8A42     		cmp	r2, r1
 472 0028 F7D1     		bne	.L49
 473              		.loc 1 63 4 is_stmt 1 view .LVU118
 474              		.loc 1 63 23 is_stmt 0 view .LVU119
 475 002a 0133     		adds	r3, r3, #1
 476              	.LVL61:
 477              		.loc 1 63 23 view .LVU120
 478 002c 30F81300 		ldrh	r0, [r0, r3, lsl #1]
 479 0030 00E0     		b	.L48
 480              	.L52:
 481              		.loc 1 64 9 view .LVU121
 482 0032 0020     		movs	r0, #0
 483              	.L48:
 484              		.loc 1 65 1 view .LVU122
 485 0034 044B     		ldr	r3, .L56
 486 0036 1A68     		ldr	r2, [r3]
 487 0038 019B     		ldr	r3, [sp, #4]
 488 003a 5A40     		eors	r2, r3, r2
 489 003c 01D1     		bne	.L55
 490 003e 02B0     		add	sp, sp, #8
 491              		.cfi_remember_state
 492              		.cfi_def_cfa_offset 8
 493              		@ sp needed
 494 0040 10BD     		pop	{r4, pc}
 495              	.LVL62:
 496              	.L55:
 497              		.cfi_restore_state
 498              		.loc 1 65 1 view .LVU123
 499 0042 FFF7FEFF 		bl	__stack_chk_fail
 500              	.LVL63:
 501              	.L57:
 502              		.loc 1 65 1 view .LVU124
 503 0046 00BF     		.align	2
 504              	.L56:
 505 0048 00000000 		.word	.LC2
 506              		.cfi_endproc
 507              	.LFE1:
 508              		.size	AsebaVMGetEventAddress, .-AsebaVMGetEventAddress
 509              		.section	.rodata.AsebaVMSetupEvent.cst4,"aM",%progbits,4
 510              		.align	2
 511              	.LC3:
 512 0000 00000000 		.word	__stack_chk_guard
 513              		.section	.text.AsebaVMSetupEvent,"ax",%progbits
ARM GAS  /tmp/cclXoGh5.s 			page 10


 514              		.align	1
 515              		.p2align 4,,15
 516              		.global	AsebaVMSetupEvent
 517              		.syntax unified
 518              		.thumb
 519              		.thumb_func
 520              		.fpu fpv4-sp-d16
 521              		.type	AsebaVMSetupEvent, %function
 522              	AsebaVMSetupEvent:
 523              	.LVL64:
 524              	.LFB2:
 525              		.loc 1 69 1 is_stmt 1 view -0
 526              		.cfi_startproc
 527              		@ args = 0, pretend = 0, frame = 8
 528              		@ frame_needed = 0, uses_anonymous_args = 0
 529              		.loc 1 69 1 is_stmt 0 view .LVU126
 530 0000 70B5     		push	{r4, r5, r6, lr}
 531              		.cfi_def_cfa_offset 16
 532              		.cfi_offset 4, -16
 533              		.cfi_offset 5, -12
 534              		.cfi_offset 6, -8
 535              		.cfi_offset 14, -4
 536              	.LBB61:
 537              	.LBB62:
 538              		.loc 1 57 29 view .LVU127
 539 0002 4468     		ldr	r4, [r0, #4]
 540              	.LBE62:
 541              	.LBE61:
 542              		.loc 1 69 1 view .LVU128
 543 0004 224B     		ldr	r3, .L77
 544              	.LBB67:
 545              	.LBB63:
 546              		.loc 1 57 9 view .LVU129
 547 0006 2588     		ldrh	r5, [r4]
 548              	.LBE63:
 549              	.LBE67:
 550              		.loc 1 69 1 view .LVU130
 551 0008 82B0     		sub	sp, sp, #8
 552              		.cfi_def_cfa_offset 24
 553              	.LBB68:
 554              	.LBB64:
 555              		.loc 1 61 2 view .LVU131
 556 000a 012D     		cmp	r5, #1
 557              	.LBE64:
 558              	.LBE68:
 559              		.loc 1 69 1 view .LVU132
 560 000c 1B68     		ldr	r3, [r3]
 561 000e 0193     		str	r3, [sp, #4]
 562 0010 4FF00003 		mov	r3,#0
 563              		.loc 1 70 2 is_stmt 1 view .LVU133
 564              	.LVL65:
 565              	.LBB69:
 566              	.LBI61:
 567              		.loc 1 55 8 view .LVU134
 568              	.LBB65:
 569              		.loc 1 57 2 view .LVU135
 570              		.loc 1 58 2 view .LVU136
ARM GAS  /tmp/cclXoGh5.s 			page 11


 571              		.loc 1 61 2 view .LVU137
 572              		.loc 1 61 14 view .LVU138
 573              		.loc 1 61 2 is_stmt 0 view .LVU139
 574 0014 22D9     		bls	.L65
 575 0016 0646     		mov	r6, r0
 576 0018 0123     		movs	r3, #1
 577 001a 03E0     		b	.L62
 578              	.LVL66:
 579              	.L60:
 580              		.loc 1 61 35 is_stmt 1 view .LVU140
 581              		.loc 1 61 14 view .LVU141
 582 001c 0233     		adds	r3, r3, #2
 583              	.LVL67:
 584              		.loc 1 61 2 is_stmt 0 view .LVU142
 585 001e 9AB2     		uxth	r2, r3
 586 0020 9542     		cmp	r5, r2
 587 0022 1BD9     		bls	.L65
 588              	.L62:
 589              	.LVL68:
 590              		.loc 1 62 3 is_stmt 1 view .LVU143
 591              		.loc 1 62 6 is_stmt 0 view .LVU144
 592 0024 34F81320 		ldrh	r2, [r4, r3, lsl #1]
 593 0028 8A42     		cmp	r2, r1
 594 002a F7D1     		bne	.L60
 595              		.loc 1 63 4 is_stmt 1 view .LVU145
 596              		.loc 1 63 23 is_stmt 0 view .LVU146
 597 002c 0133     		adds	r3, r3, #1
 598              	.LVL69:
 599              		.loc 1 63 23 view .LVU147
 600 002e 34F81340 		ldrh	r4, [r4, r3, lsl #1]
 601              	.LVL70:
 602              		.loc 1 63 23 view .LVU148
 603              	.LBE65:
 604              	.LBE69:
 605              		.loc 1 71 2 is_stmt 1 view .LVU149
 606              		.loc 1 71 5 is_stmt 0 view .LVU150
 607 0032 5CB1     		cbz	r4, .L59
 608              		.loc 1 74 3 is_stmt 1 view .LVU151
 609              		.loc 1 74 7 is_stmt 0 view .LVU152
 610 0034 338B     		ldrh	r3, [r6, #24]
 611              		.loc 1 74 6 view .LVU153
 612 0036 DA07     		lsls	r2, r3, #31
 613 0038 1ED4     		bmi	.L74
 614              	.LVL71:
 615              	.L63:
 616              		.loc 1 79 3 is_stmt 1 view .LVU154
 617              		.loc 1 81 3 is_stmt 0 view .LVU155
 618 003a 43F00105 		orr	r5, r3, #1
 619              		.loc 1 80 10 view .LVU156
 620 003e 4FF6FF72 		movw	r2, #65535
 621              		.loc 1 84 6 view .LVU157
 622 0042 9B07     		lsls	r3, r3, #30
 623              		.loc 1 79 10 view .LVU158
 624 0044 7483     		strh	r4, [r6, #26]	@ movhi
 625              		.loc 1 80 3 is_stmt 1 view .LVU159
 626              		.loc 1 80 10 is_stmt 0 view .LVU160
 627 0046 B283     		strh	r2, [r6, #28]	@ movhi
ARM GAS  /tmp/cclXoGh5.s 			page 12


 628              		.loc 1 81 3 is_stmt 1 view .LVU161
 629 0048 3583     		strh	r5, [r6, #24]	@ movhi
 630              		.loc 1 84 3 view .LVU162
 631              		.loc 1 84 6 is_stmt 0 view .LVU163
 632 004a 09D4     		bmi	.L75
 633              	.LVL72:
 634              	.L59:
 635              		.loc 1 87 2 is_stmt 1 view .LVU164
 636              		.loc 1 88 1 is_stmt 0 view .LVU165
 637 004c 104B     		ldr	r3, .L77
 638 004e 1A68     		ldr	r2, [r3]
 639 0050 019B     		ldr	r3, [sp, #4]
 640 0052 5A40     		eors	r2, r3, r2
 641 0054 1AD1     		bne	.L76
 642 0056 2046     		mov	r0, r4
 643 0058 02B0     		add	sp, sp, #8
 644              		.cfi_remember_state
 645              		.cfi_def_cfa_offset 16
 646              		@ sp needed
 647 005a 70BD     		pop	{r4, r5, r6, pc}
 648              	.LVL73:
 649              	.L65:
 650              		.cfi_restore_state
 651              	.LBB70:
 652              	.LBB66:
 653              		.loc 1 64 9 view .LVU166
 654 005c 0024     		movs	r4, #0
 655 005e F5E7     		b	.L59
 656              	.LVL74:
 657              	.L75:
 658              		.loc 1 64 9 view .LVU167
 659              	.LBE66:
 660              	.LBE70:
 661              		.loc 1 85 4 is_stmt 1 view .LVU168
 662              	.LBB71:
 663              	.LBI71:
 664              		.loc 1 714 6 view .LVU169
 665              	.LBB72:
 666              		.loc 1 716 2 view .LVU170
 667              		.loc 1 717 2 view .LVU171
 668              		.loc 1 719 2 is_stmt 0 view .LVU172
 669 0060 3046     		mov	r0, r6
 670 0062 0423     		movs	r3, #4
 671 0064 6A46     		mov	r2, sp
 672 0066 49F20A01 		movw	r1, #36874
 673              		.loc 1 717 12 view .LVU173
 674 006a ADF80040 		strh	r4, [sp]	@ movhi
 675              		.loc 1 718 2 is_stmt 1 view .LVU174
 676              		.loc 1 718 12 is_stmt 0 view .LVU175
 677 006e ADF80250 		strh	r5, [sp, #2]	@ movhi
 678              		.loc 1 719 2 is_stmt 1 view .LVU176
 679 0072 FFF7FEFF 		bl	AsebaSendMessage
 680              	.LVL75:
 681              		.loc 1 720 1 is_stmt 0 view .LVU177
 682 0076 E9E7     		b	.L59
 683              	.LVL76:
 684              	.L74:
ARM GAS  /tmp/cclXoGh5.s 			page 13


 685              		.loc 1 720 1 view .LVU178
 686              	.LBE72:
 687              	.LBE71:
 688              		.loc 1 76 4 is_stmt 1 view .LVU179
 689 0078 0223     		movs	r3, #2
 690 007a 06F11A02 		add	r2, r6, #26
 691 007e 49F20801 		movw	r1, #36872
 692              	.LVL77:
 693              		.loc 1 76 4 is_stmt 0 view .LVU180
 694 0082 3046     		mov	r0, r6
 695              	.LVL78:
 696              		.loc 1 76 4 view .LVU181
 697 0084 FFF7FEFF 		bl	AsebaSendMessage
 698              	.LVL79:
 699 0088 338B     		ldrh	r3, [r6, #24]
 700 008a D6E7     		b	.L63
 701              	.LVL80:
 702              	.L76:
 703              		.loc 1 88 1 view .LVU182
 704 008c FFF7FEFF 		bl	__stack_chk_fail
 705              	.LVL81:
 706              	.L78:
 707              		.align	2
 708              	.L77:
 709 0090 00000000 		.word	.LC3
 710              		.cfi_endproc
 711              	.LFE2:
 712              		.size	AsebaVMSetupEvent, .-AsebaVMSetupEvent
 713              		.section	.rodata.AsebaVMStep.cst4,"aM",%progbits,4
 714              		.align	2
 715              	.LC4:
 716 0000 00000000 		.word	__stack_chk_guard
 717              		.section	.text.AsebaVMStep,"ax",%progbits
 718              		.align	1
 719              		.p2align 4,,15
 720              		.global	AsebaVMStep
 721              		.syntax unified
 722              		.thumb
 723              		.thumb_func
 724              		.fpu fpv4-sp-d16
 725              		.type	AsebaVMStep, %function
 726              	AsebaVMStep:
 727              	.LVL82:
 728              	.LFB5:
 729              		.loc 1 170 1 is_stmt 1 view -0
 730              		.cfi_startproc
 731              		@ args = 0, pretend = 0, frame = 16
 732              		@ frame_needed = 0, uses_anonymous_args = 0
 733              		.loc 1 170 1 is_stmt 0 view .LVU184
 734 0000 F0B5     		push	{r4, r5, r6, r7, lr}
 735              		.cfi_def_cfa_offset 20
 736              		.cfi_offset 4, -20
 737              		.cfi_offset 5, -16
 738              		.cfi_offset 6, -12
 739              		.cfi_offset 7, -8
 740              		.cfi_offset 14, -4
 741              		.loc 1 171 22 view .LVU185
ARM GAS  /tmp/cclXoGh5.s 			page 14


 742 0002 4268     		ldr	r2, [r0, #4]
 743              		.loc 1 171 35 view .LVU186
 744 0004 418B     		ldrh	r1, [r0, #26]
 745              		.loc 1 170 1 view .LVU187
 746 0006 A84B     		ldr	r3, .L122
 747              		.loc 1 171 9 view .LVU188
 748 0008 32F81150 		ldrh	r5, [r2, r1, lsl #1]
 749              		.loc 1 170 1 view .LVU189
 750 000c 85B0     		sub	sp, sp, #20
 751              		.cfi_def_cfa_offset 40
 752              		.loc 1 170 1 view .LVU190
 753 000e 1B68     		ldr	r3, [r3]
 754 0010 0393     		str	r3, [sp, #12]
 755 0012 4FF00003 		mov	r3,#0
 756              		.loc 1 171 2 is_stmt 1 view .LVU191
 757              	.LVL83:
 758              		.loc 1 178 2 view .LVU192
 759 0016 2B0B     		lsrs	r3, r5, #12
 760              		.loc 1 170 1 is_stmt 0 view .LVU193
 761 0018 0446     		mov	r4, r0
 762              		.loc 1 171 32 view .LVU194
 763 001a 4800     		lsls	r0, r1, #1
 764              	.LVL84:
 765              		.loc 1 171 32 view .LVU195
 766 001c 0E2B     		cmp	r3, #14
 767 001e 31D8     		bhi	.L79
 768 0020 DFE813F0 		tbh	[pc, r3, lsl #1]
 769              	.L82:
 770 0024 4100     		.2byte	(.L96-.L82)/2
 771 0026 4600     		.2byte	(.L95-.L82)/2
 772 0028 5300     		.2byte	(.L94-.L82)/2
 773 002a 6000     		.2byte	(.L93-.L82)/2
 774 002c 7000     		.2byte	(.L92-.L82)/2
 775 002e 8000     		.2byte	(.L91-.L82)/2
 776 0030 0F00     		.2byte	(.L90-.L82)/2
 777 0032 9500     		.2byte	(.L89-.L82)/2
 778 0034 AB00     		.2byte	(.L88-.L82)/2
 779 0036 C400     		.2byte	(.L87-.L82)/2
 780 0038 C900     		.2byte	(.L86-.L82)/2
 781 003a EB00     		.2byte	(.L85-.L82)/2
 782 003c FC00     		.2byte	(.L84-.L82)/2
 783 003e 0501     		.2byte	(.L83-.L82)/2
 784 0040 3800     		.2byte	(.L81-.L82)/2
 785              		.p2align 1
 786              	.L90:
 787              	.LBB73:
 788              		.loc 1 308 4 is_stmt 1 view .LVU196
 789              		.loc 1 309 4 view .LVU197
 790              		.loc 1 310 4 view .LVU198
 791              		.loc 1 311 4 view .LVU199
 792              		.loc 1 320 4 view .LVU200
 793              	.LVL85:
 794              		.loc 1 321 4 view .LVU201
 795              		.loc 1 323 37 is_stmt 0 view .LVU202
 796 0042 B4F91C30 		ldrsh	r3, [r4, #28]
 797              		.loc 1 321 14 view .LVU203
 798 0046 0244     		add	r2, r2, r0
ARM GAS  /tmp/cclXoGh5.s 			page 15


 799              		.loc 1 322 22 view .LVU204
 800 0048 6069     		ldr	r0, [r4, #20]
 801              		.loc 1 321 14 view .LVU205
 802 004a 5788     		ldrh	r7, [r2, #2]
 803              	.LVL86:
 804              		.loc 1 322 4 is_stmt 1 view .LVU206
 805              		.loc 1 323 4 view .LVU207
 806              		.loc 1 323 18 is_stmt 0 view .LVU208
 807 004c 30F81360 		ldrh	r6, [r0, r3, lsl #1]
 808              	.LVL87:
 809              		.loc 1 326 4 is_stmt 1 view .LVU209
 810              		.loc 1 326 7 is_stmt 0 view .LVU210
 811 0050 B742     		cmp	r7, r6
 812              		.loc 1 323 37 view .LVU211
 813 0052 4FEA4303 		lsl	r3, r3, #1
 814              	.LVL88:
 815              		.loc 1 326 7 view .LVU212
 816 0056 00F2F680 		bhi	.L99
 817              	.LVL89:
 818              	.L119:
 819              	.LBB74:
 820              		.loc 1 328 5 is_stmt 1 view .LVU213
 821              		.loc 1 329 5 view .LVU214
 822              		.loc 1 332 15 is_stmt 0 view .LVU215
 823 005a 0223     		movs	r3, #2
 824 005c 2383     		strh	r3, [r4, #24]	@ movhi
 825              		.loc 1 333 5 view .LVU216
 826 005e 01AA     		add	r2, sp, #4
 827 0060 0623     		movs	r3, #6
 828              		.loc 1 329 15 view .LVU217
 829 0062 ADF80410 		strh	r1, [sp, #4]	@ movhi
 830              		.loc 1 330 5 is_stmt 1 view .LVU218
 831              		.loc 1 333 5 is_stmt 0 view .LVU219
 832 0066 2046     		mov	r0, r4
 833 0068 49F20601 		movw	r1, #36870
 834              		.loc 1 330 15 view .LVU220
 835 006c ADF80670 		strh	r7, [sp, #6]	@ movhi
 836              		.loc 1 331 5 is_stmt 1 view .LVU221
 837              		.loc 1 331 15 is_stmt 0 view .LVU222
 838 0070 ADF80860 		strh	r6, [sp, #8]	@ movhi
 839              		.loc 1 332 5 is_stmt 1 view .LVU223
 840              		.loc 1 333 5 view .LVU224
 841 0074 FFF7FEFF 		bl	AsebaSendMessage
 842              	.LVL90:
 843              		.loc 1 334 5 view .LVU225
 844              		.loc 1 334 7 is_stmt 0 view .LVU226
 845 0078 8C4B     		ldr	r3, .L122+4
 846 007a 1BB1     		cbz	r3, .L79
 847              		.loc 1 335 6 is_stmt 1 view .LVU227
 848 007c 2046     		mov	r0, r4
 849 007e 0021     		movs	r1, #0
 850 0080 FFF7FEFF 		bl	AsebaVMErrorCB
 851              	.LVL91:
 852              		.loc 1 336 5 view .LVU228
 853              	.L79:
 854              		.loc 1 336 5 is_stmt 0 view .LVU229
 855              	.LBE74:
ARM GAS  /tmp/cclXoGh5.s 			page 16


 856              	.LBE73:
 857              		.loc 1 532 1 view .LVU230
 858 0084 884B     		ldr	r3, .L122
 859 0086 1A68     		ldr	r2, [r3]
 860 0088 039B     		ldr	r3, [sp, #12]
 861 008a 5A40     		eors	r2, r3, r2
 862 008c 40F00A81 		bne	.L120
 863 0090 05B0     		add	sp, sp, #20
 864              		.cfi_remember_state
 865              		.cfi_def_cfa_offset 20
 866              		@ sp needed
 867 0092 F0BD     		pop	{r4, r5, r6, r7, pc}
 868              	.LVL92:
 869              	.L81:
 870              		.cfi_restore_state
 871              		.loc 1 522 4 is_stmt 1 view .LVU231
 872              		.loc 1 522 25 is_stmt 0 view .LVU232
 873 0094 B4F91C30 		ldrsh	r3, [r4, #28]
 874              		.loc 1 522 15 view .LVU233
 875 0098 6269     		ldr	r2, [r4, #20]
 876              		.loc 1 522 29 view .LVU234
 877 009a 591E     		subs	r1, r3, #1
 878 009c A183     		strh	r1, [r4, #28]	@ movhi
 879              		.loc 1 522 11 view .LVU235
 880 009e 32F81330 		ldrh	r3, [r2, r3, lsl #1]
 881 00a2 6383     		strh	r3, [r4, #26]	@ movhi
 882              		.loc 1 524 3 is_stmt 1 view .LVU236
 883              		.loc 1 532 1 is_stmt 0 view .LVU237
 884 00a4 EEE7     		b	.L79
 885              	.L96:
 886              		.loc 1 183 4 is_stmt 1 view .LVU238
 887 00a6 238B     		ldrh	r3, [r4, #24]
 888 00a8 23F00103 		bic	r3, r3, #1
 889 00ac 2383     		strh	r3, [r4, #24]	@ movhi
 890              		.loc 1 185 3 view .LVU239
 891 00ae E9E7     		b	.L79
 892              	.L95:
 893              	.LBB75:
 894              		.loc 1 190 4 view .LVU240
 895              	.LVL93:
 896              		.loc 1 199 4 view .LVU241
 897              		.loc 1 199 14 is_stmt 0 view .LVU242
 898 00b0 A38B     		ldrh	r3, [r4, #28]
 899              		.loc 1 199 6 view .LVU243
 900 00b2 6269     		ldr	r2, [r4, #20]
 901              		.loc 1 199 14 view .LVU244
 902 00b4 0133     		adds	r3, r3, #1
 903 00b6 1BB2     		sxth	r3, r3
 904              		.loc 1 190 11 view .LVU245
 905 00b8 45F30B05 		sbfx	r5, r5, #0, #12
 906              	.LVL94:
 907              		.loc 1 199 24 view .LVU246
 908 00bc A383     		strh	r3, [r4, #28]	@ movhi
 909              	.LVL95:
 910              		.loc 1 199 24 view .LVU247
 911 00be 22F81350 		strh	r5, [r2, r3, lsl #1]	@ movhi
 912              		.loc 1 202 4 is_stmt 1 view .LVU248
ARM GAS  /tmp/cclXoGh5.s 			page 17


 913              		.loc 1 202 11 is_stmt 0 view .LVU249
 914 00c2 638B     		ldrh	r3, [r4, #26]
 915 00c4 0133     		adds	r3, r3, #1
 916 00c6 6383     		strh	r3, [r4, #26]	@ movhi
 917              	.LBE75:
 918              		.loc 1 204 3 is_stmt 1 view .LVU250
 919 00c8 DCE7     		b	.L79
 920              	.LVL96:
 921              	.L94:
 922              		.loc 1 216 4 view .LVU251
 923              		.loc 1 216 14 is_stmt 0 view .LVU252
 924 00ca A38B     		ldrh	r3, [r4, #28]
 925              		.loc 1 216 6 view .LVU253
 926 00cc 6169     		ldr	r1, [r4, #20]
 927              		.loc 1 216 38 view .LVU254
 928 00ce 0244     		add	r2, r2, r0
 929              		.loc 1 216 14 view .LVU255
 930 00d0 0133     		adds	r3, r3, #1
 931 00d2 1BB2     		sxth	r3, r3
 932              		.loc 1 216 38 view .LVU256
 933 00d4 5288     		ldrh	r2, [r2, #2]
 934              		.loc 1 216 24 view .LVU257
 935 00d6 A383     		strh	r3, [r4, #28]	@ movhi
 936 00d8 21F81320 		strh	r2, [r1, r3, lsl #1]	@ movhi
 937              		.loc 1 219 4 is_stmt 1 view .LVU258
 938              		.loc 1 219 11 is_stmt 0 view .LVU259
 939 00dc 638B     		ldrh	r3, [r4, #26]
 940 00de 0233     		adds	r3, r3, #2
 941 00e0 6383     		strh	r3, [r4, #26]	@ movhi
 942              		.loc 1 221 3 is_stmt 1 view .LVU260
 943 00e2 CFE7     		b	.L79
 944              	.L93:
 945              	.LBB76:
 946              		.loc 1 226 4 view .LVU261
 947              	.LVL97:
 948              		.loc 1 237 4 view .LVU262
 949              		.loc 1 237 14 is_stmt 0 view .LVU263
 950 00e4 A38B     		ldrh	r3, [r4, #28]
 951              		.loc 1 237 39 view .LVU264
 952 00e6 E168     		ldr	r1, [r4, #12]
 953              		.loc 1 237 6 view .LVU265
 954 00e8 6269     		ldr	r2, [r4, #20]
 955              		.loc 1 237 14 view .LVU266
 956 00ea 0133     		adds	r3, r3, #1
 957 00ec 1BB2     		sxth	r3, r3
 958              		.loc 1 237 39 view .LVU267
 959 00ee C5F30B05 		ubfx	r5, r5, #0, #12
 960              	.LVL98:
 961              		.loc 1 237 24 view .LVU268
 962 00f2 A383     		strh	r3, [r4, #28]	@ movhi
 963              	.LVL99:
 964              		.loc 1 237 39 view .LVU269
 965 00f4 31F91510 		ldrsh	r1, [r1, r5, lsl #1]
 966              		.loc 1 237 24 view .LVU270
 967 00f8 22F81310 		strh	r1, [r2, r3, lsl #1]	@ movhi
 968              		.loc 1 240 4 is_stmt 1 view .LVU271
 969              		.loc 1 240 11 is_stmt 0 view .LVU272
ARM GAS  /tmp/cclXoGh5.s 			page 18


 970 00fc 638B     		ldrh	r3, [r4, #26]
 971 00fe 0133     		adds	r3, r3, #1
 972 0100 6383     		strh	r3, [r4, #26]	@ movhi
 973              	.LBE76:
 974              		.loc 1 242 3 is_stmt 1 view .LVU273
 975 0102 BFE7     		b	.L79
 976              	.LVL100:
 977              	.L92:
 978              	.LBB77:
 979              		.loc 1 247 4 view .LVU274
 980              		.loc 1 258 4 view .LVU275
 981              		.loc 1 258 47 is_stmt 0 view .LVU276
 982 0104 B4F91C30 		ldrsh	r3, [r4, #28]
 983              		.loc 1 258 37 view .LVU277
 984 0108 6169     		ldr	r1, [r4, #20]
 985              		.loc 1 258 33 view .LVU278
 986 010a E268     		ldr	r2, [r4, #12]
 987              		.loc 1 258 51 view .LVU279
 988 010c 581E     		subs	r0, r3, #1
 989 010e A083     		strh	r0, [r4, #28]	@ movhi
 990              		.loc 1 258 17 view .LVU280
 991 0110 C5F30B05 		ubfx	r5, r5, #0, #12
 992              	.LVL101:
 993              		.loc 1 258 44 view .LVU281
 994 0114 31F91330 		ldrsh	r3, [r1, r3, lsl #1]
 995              		.loc 1 258 33 view .LVU282
 996 0118 22F81530 		strh	r3, [r2, r5, lsl #1]	@ movhi
 997              		.loc 1 261 4 is_stmt 1 view .LVU283
 998              		.loc 1 261 11 is_stmt 0 view .LVU284
 999 011c 638B     		ldrh	r3, [r4, #26]
 1000 011e 0133     		adds	r3, r3, #1
 1001 0120 6383     		strh	r3, [r4, #26]	@ movhi
 1002              	.LBE77:
 1003              		.loc 1 263 3 is_stmt 1 view .LVU285
 1004 0122 AFE7     		b	.L79
 1005              	.LVL102:
 1006              	.L91:
 1007              	.LBB78:
 1008              		.loc 1 268 4 view .LVU286
 1009              		.loc 1 269 4 view .LVU287
 1010              		.loc 1 270 4 view .LVU288
 1011              		.loc 1 279 4 view .LVU289
 1012              		.loc 1 280 4 view .LVU290
 1013              		.loc 1 280 14 is_stmt 0 view .LVU291
 1014 0124 0244     		add	r2, r2, r0
 1015              		.loc 1 281 29 view .LVU292
 1016 0126 6369     		ldr	r3, [r4, #20]
 1017 0128 B4F91C00 		ldrsh	r0, [r4, #28]
 1018              		.loc 1 280 14 view .LVU293
 1019 012c 5788     		ldrh	r7, [r2, #2]
 1020              	.LVL103:
 1021              		.loc 1 281 4 is_stmt 1 view .LVU294
 1022              		.loc 1 281 18 is_stmt 0 view .LVU295
 1023 012e 33F81060 		ldrh	r6, [r3, r0, lsl #1]
 1024              	.LVL104:
 1025              		.loc 1 284 4 is_stmt 1 view .LVU296
 1026              		.loc 1 284 7 is_stmt 0 view .LVU297
ARM GAS  /tmp/cclXoGh5.s 			page 19


 1027 0132 B742     		cmp	r7, r6
 1028 0134 91D9     		bls	.L119
 1029              		.loc 1 298 4 is_stmt 1 view .LVU298
 1030              		.loc 1 298 49 is_stmt 0 view .LVU299
 1031 0136 C5F30B05 		ubfx	r5, r5, #0, #12
 1032              	.LVL105:
 1033              		.loc 1 298 37 view .LVU300
 1034 013a E268     		ldr	r2, [r4, #12]
 1035 013c 2E44     		add	r6, r6, r5
 1036              	.LVL106:
 1037              		.loc 1 298 37 view .LVU301
 1038 013e 32F91620 		ldrsh	r2, [r2, r6, lsl #1]
 1039              		.loc 1 298 22 view .LVU302
 1040 0142 23F81020 		strh	r2, [r3, r0, lsl #1]	@ movhi
 1041              	.LVL107:
 1042              		.loc 1 301 4 is_stmt 1 view .LVU303
 1043              		.loc 1 301 11 is_stmt 0 view .LVU304
 1044 0146 638B     		ldrh	r3, [r4, #26]
 1045 0148 0233     		adds	r3, r3, #2
 1046 014a 6383     		strh	r3, [r4, #26]	@ movhi
 1047              	.LBE78:
 1048              		.loc 1 303 3 is_stmt 1 view .LVU305
 1049 014c 9AE7     		b	.L79
 1050              	.LVL108:
 1051              	.L89:
 1052              	.LBB79:
 1053              		.loc 1 351 4 view .LVU306
 1054              		.loc 1 360 4 view .LVU307
 1055              		.loc 1 360 21 is_stmt 0 view .LVU308
 1056 014e B4F91C10 		ldrsh	r1, [r4, #28]
 1057 0152 6269     		ldr	r2, [r4, #20]
 1058              		.loc 1 363 15 view .LVU309
 1059 0154 EDB2     		uxtb	r5, r5
 1060              	.LVL109:
 1061              	.LBB80:
 1062              	.LBB81:
 1063              		.loc 1 153 2 view .LVU310
 1064 0156 012D     		cmp	r5, #1
 1065              	.LBE81:
 1066              	.LBE80:
 1067              		.loc 1 360 10 view .LVU311
 1068 0158 32F91130 		ldrsh	r3, [r2, r1, lsl #1]
 1069              	.LVL110:
 1070              		.loc 1 363 4 is_stmt 1 view .LVU312
 1071              	.LBB84:
 1072              	.LBI80:
 1073              		.loc 1 150 15 view .LVU313
 1074              	.LBB82:
 1075              		.loc 1 152 2 view .LVU314
 1076              		.loc 1 152 18 view .LVU315
 1077              		.loc 1 153 2 view .LVU316
 1078 015c 00F09780 		beq	.L101
 1079 0160 022D     		cmp	r5, #2
 1080 0162 00F09280 		beq	.L102
 1081 0166 002D     		cmp	r5, #0
 1082 0168 00F08C80 		beq	.L121
 1083 016c 0023     		movs	r3, #0
ARM GAS  /tmp/cclXoGh5.s 			page 20


 1084              	.LVL111:
 1085              	.L103:
 1086              		.loc 1 153 2 is_stmt 0 view .LVU317
 1087              	.LBE82:
 1088              	.LBE84:
 1089              		.loc 1 366 4 is_stmt 1 view .LVU318
 1090              		.loc 1 366 22 is_stmt 0 view .LVU319
 1091 016e 22F81130 		strh	r3, [r2, r1, lsl #1]	@ movhi
 1092              	.LVL112:
 1093              		.loc 1 369 4 is_stmt 1 view .LVU320
 1094              		.loc 1 369 11 is_stmt 0 view .LVU321
 1095 0172 638B     		ldrh	r3, [r4, #26]
 1096              	.LVL113:
 1097              		.loc 1 369 11 view .LVU322
 1098 0174 0133     		adds	r3, r3, #1
 1099 0176 6383     		strh	r3, [r4, #26]	@ movhi
 1100              	.LVL114:
 1101              		.loc 1 369 11 view .LVU323
 1102              	.LBE79:
 1103              		.loc 1 371 3 is_stmt 1 view .LVU324
 1104 0178 84E7     		b	.L79
 1105              	.LVL115:
 1106              	.L88:
 1107              	.LBB86:
 1108              		.loc 1 376 4 view .LVU325
 1109              		.loc 1 385 4 view .LVU326
 1110              		.loc 1 385 24 is_stmt 0 view .LVU327
 1111 017a B4F91C60 		ldrsh	r6, [r4, #28]
 1112              		.loc 1 385 17 view .LVU328
 1113 017e 6069     		ldr	r0, [r4, #20]
 1114              	.LVL116:
 1115              		.loc 1 386 4 is_stmt 1 view .LVU329
 1116              		.loc 1 389 4 view .LVU330
 1117              		.loc 1 386 13 is_stmt 0 view .LVU331
 1118 0180 06F10042 		add	r2, r6, #-2147483648
 1119 0184 013A     		subs	r2, r2, #1
 1120              		.loc 1 389 15 view .LVU332
 1121 0186 EBB2     		uxtb	r3, r5
 1122 0188 30F91210 		ldrsh	r1, [r0, r2, lsl #1]
 1123 018c 30F91620 		ldrsh	r2, [r0, r6, lsl #1]
 1124 0190 2046     		mov	r0, r4
 1125              	.LVL117:
 1126              		.loc 1 389 15 view .LVU333
 1127 0192 FFF7FEFF 		bl	AsebaVMDoBinaryOperation
 1128              	.LVL118:
 1129              		.loc 1 392 4 is_stmt 1 view .LVU334
 1130              		.loc 1 392 10 is_stmt 0 view .LVU335
 1131 0196 A38B     		ldrh	r3, [r4, #28]
 1132              		.loc 1 393 22 view .LVU336
 1133 0198 6269     		ldr	r2, [r4, #20]
 1134              		.loc 1 392 10 view .LVU337
 1135 019a 013B     		subs	r3, r3, #1
 1136 019c 1BB2     		sxth	r3, r3
 1137 019e A383     		strh	r3, [r4, #28]	@ movhi
 1138              		.loc 1 393 4 is_stmt 1 view .LVU338
 1139              		.loc 1 393 22 is_stmt 0 view .LVU339
 1140 01a0 22F81300 		strh	r0, [r2, r3, lsl #1]	@ movhi
ARM GAS  /tmp/cclXoGh5.s 			page 21


 1141              		.loc 1 396 4 is_stmt 1 view .LVU340
 1142              		.loc 1 396 11 is_stmt 0 view .LVU341
 1143 01a4 638B     		ldrh	r3, [r4, #26]
 1144 01a6 0133     		adds	r3, r3, #1
 1145 01a8 6383     		strh	r3, [r4, #26]	@ movhi
 1146              	.LBE86:
 1147              		.loc 1 398 3 is_stmt 1 view .LVU342
 1148 01aa 6BE7     		b	.L79
 1149              	.LVL119:
 1150              	.L87:
 1151              	.LBB87:
 1152              		.loc 1 403 4 view .LVU343
 1153              		.loc 1 412 4 view .LVU344
 1154              		.loc 1 403 11 is_stmt 0 view .LVU345
 1155 01ac 45F30B05 		sbfx	r5, r5, #0, #12
 1156              	.LVL120:
 1157              		.loc 1 412 11 view .LVU346
 1158 01b0 2944     		add	r1, r1, r5
 1159              	.LVL121:
 1160              		.loc 1 412 11 view .LVU347
 1161 01b2 6183     		strh	r1, [r4, #26]	@ movhi
 1162              	.LVL122:
 1163              		.loc 1 412 11 view .LVU348
 1164              	.LBE87:
 1165              		.loc 1 414 3 is_stmt 1 view .LVU349
 1166 01b4 66E7     		b	.L79
 1167              	.LVL123:
 1168              	.L86:
 1169              	.LBB88:
 1170              		.loc 1 419 4 view .LVU350
 1171              		.loc 1 420 4 view .LVU351
 1172              		.loc 1 421 4 view .LVU352
 1173              		.loc 1 430 4 view .LVU353
 1174              		.loc 1 430 24 is_stmt 0 view .LVU354
 1175 01b6 B4F91C20 		ldrsh	r2, [r4, #28]
 1176              		.loc 1 430 17 view .LVU355
 1177 01ba 6169     		ldr	r1, [r4, #20]
 1178              	.LVL124:
 1179              		.loc 1 431 4 is_stmt 1 view .LVU356
 1180              		.loc 1 432 4 view .LVU357
 1181              		.loc 1 431 13 is_stmt 0 view .LVU358
 1182 01bc 02F10043 		add	r3, r2, #-2147483648
 1183 01c0 013B     		subs	r3, r3, #1
 1184              		.loc 1 432 22 view .LVU359
 1185 01c2 31F91220 		ldrsh	r2, [r1, r2, lsl #1]
 1186              	.LVL125:
 1187              		.loc 1 432 22 view .LVU360
 1188 01c6 31F91310 		ldrsh	r1, [r1, r3, lsl #1]
 1189              	.LVL126:
 1190              		.loc 1 432 22 view .LVU361
 1191 01ca 2046     		mov	r0, r4
 1192 01cc EBB2     		uxtb	r3, r5
 1193              	.LVL127:
 1194              		.loc 1 432 22 view .LVU362
 1195 01ce FFF7FEFF 		bl	AsebaVMDoBinaryOperation
 1196              	.LVL128:
 1197              		.loc 1 433 4 is_stmt 1 view .LVU363
ARM GAS  /tmp/cclXoGh5.s 			page 22


 1198              		.loc 1 433 11 is_stmt 0 view .LVU364
 1199 01d2 A38B     		ldrh	r3, [r4, #28]
 1200 01d4 023B     		subs	r3, r3, #2
 1201 01d6 A383     		strh	r3, [r4, #28]	@ movhi
 1202              		.loc 1 436 4 is_stmt 1 view .LVU365
 1203              		.loc 1 436 7 is_stmt 0 view .LVU366
 1204 01d8 0028     		cmp	r0, #0
 1205 01da 44D0     		beq	.L104
 1206              		.loc 1 436 27 discriminator 1 view .LVU367
 1207 01dc 05F44075 		and	r5, r5, #768
 1208              	.LVL129:
 1209              		.loc 1 436 27 discriminator 1 view .LVU368
 1210 01e0 B5F5407F 		cmp	r5, #768
 1211 01e4 58D0     		beq	.L105
 1212 01e6 6168     		ldr	r1, [r4, #4]
 1213 01e8 608B     		ldrh	r0, [r4, #26]
 1214              	.LVL130:
 1215              		.loc 1 436 27 view .LVU369
 1216 01ea 0223     		movs	r3, #2
 1217              	.L106:
 1218              		.loc 1 449 5 is_stmt 1 view .LVU370
 1219 01ec 31F81020 		ldrh	r2, [r1, r0, lsl #1]
 1220 01f0 42F40072 		orr	r2, r2, #512
 1221 01f4 21F81020 		strh	r2, [r1, r0, lsl #1]	@ movhi
 1222 01f8 40E0     		b	.L107
 1223              	.LVL131:
 1224              	.L85:
 1225              		.loc 1 449 5 is_stmt 0 view .LVU371
 1226              	.LBE88:
 1227              	.LBB89:
 1228              		.loc 1 468 4 is_stmt 1 view .LVU372
 1229              		.loc 1 469 4 view .LVU373
 1230              		.loc 1 475 4 view .LVU374
 1231              		.loc 1 469 11 is_stmt 0 view .LVU375
 1232 01fa 1318     		adds	r3, r2, r0
 1233              		.loc 1 475 4 view .LVU376
 1234 01fc E268     		ldr	r2, [r4, #12]
 1235              	.LVL132:
 1236              		.loc 1 475 4 view .LVU377
 1237 01fe 9988     		ldrh	r1, [r3, #4]
 1238 0200 5888     		ldrh	r0, [r3, #2]
 1239              	.LVL133:
 1240              		.loc 1 475 4 view .LVU378
 1241 0202 4B00     		lsls	r3, r1, #1
 1242 0204 9BB2     		uxth	r3, r3
 1243 0206 02EB4002 		add	r2, r2, r0, lsl #1
 1244 020a C5F30B01 		ubfx	r1, r5, #0, #12
 1245 020e 2046     		mov	r0, r4
 1246 0210 FFF7FEFF 		bl	AsebaSendMessage
 1247              	.LVL134:
 1248              		.loc 1 478 4 is_stmt 1 view .LVU379
 1249              		.loc 1 478 11 is_stmt 0 view .LVU380
 1250 0214 638B     		ldrh	r3, [r4, #26]
 1251 0216 0333     		adds	r3, r3, #3
 1252 0218 6383     		strh	r3, [r4, #26]	@ movhi
 1253              	.LBE89:
 1254              		.loc 1 480 3 is_stmt 1 view .LVU381
ARM GAS  /tmp/cclXoGh5.s 			page 23


 1255 021a 33E7     		b	.L79
 1256              	.L84:
 1257              		.loc 1 486 4 view .LVU382
 1258 021c C5F30B01 		ubfx	r1, r5, #0, #12
 1259 0220 2046     		mov	r0, r4
 1260 0222 FFF7FEFF 		bl	AsebaNativeFunction
 1261              	.LVL135:
 1262              		.loc 1 489 4 view .LVU383
 1263              		.loc 1 489 11 is_stmt 0 view .LVU384
 1264 0226 638B     		ldrh	r3, [r4, #26]
 1265 0228 0133     		adds	r3, r3, #1
 1266 022a 6383     		strh	r3, [r4, #26]	@ movhi
 1267              		.loc 1 491 3 is_stmt 1 view .LVU385
 1268 022c 2AE7     		b	.L79
 1269              	.L83:
 1270              	.LBB90:
 1271              		.loc 1 496 4 view .LVU386
 1272              	.LVL136:
 1273              		.loc 1 505 4 view .LVU387
 1274              		.loc 1 505 14 is_stmt 0 view .LVU388
 1275 022e A38B     		ldrh	r3, [r4, #28]
 1276              		.loc 1 505 6 view .LVU389
 1277 0230 6269     		ldr	r2, [r4, #20]
 1278              		.loc 1 505 14 view .LVU390
 1279 0232 0133     		adds	r3, r3, #1
 1280 0234 1BB2     		sxth	r3, r3
 1281              		.loc 1 505 33 view .LVU391
 1282 0236 0131     		adds	r1, r1, #1
 1283              		.loc 1 496 11 view .LVU392
 1284 0238 C5F30B05 		ubfx	r5, r5, #0, #12
 1285              	.LVL137:
 1286              		.loc 1 505 24 view .LVU393
 1287 023c A383     		strh	r3, [r4, #28]	@ movhi
 1288              	.LVL138:
 1289              		.loc 1 505 24 view .LVU394
 1290 023e 22F81310 		strh	r1, [r2, r3, lsl #1]	@ movhi
 1291              		.loc 1 508 4 is_stmt 1 view .LVU395
 1292              		.loc 1 508 11 is_stmt 0 view .LVU396
 1293 0242 6583     		strh	r5, [r4, #26]	@ movhi
 1294              	.LBE90:
 1295              		.loc 1 510 3 is_stmt 1 view .LVU397
 1296 0244 1EE7     		b	.L79
 1297              	.LVL139:
 1298              	.L99:
 1299              	.LBB91:
 1300              		.loc 1 322 18 is_stmt 0 view .LVU398
 1301 0246 0344     		add	r3, r3, r0
 1302              		.loc 1 340 29 view .LVU399
 1303 0248 C5F30B05 		ubfx	r5, r5, #0, #12
 1304              	.LVL140:
 1305              		.loc 1 340 46 view .LVU400
 1306 024c E268     		ldr	r2, [r4, #12]
 1307              		.loc 1 322 18 view .LVU401
 1308 024e 33F9023C 		ldrsh	r3, [r3, #-2]
 1309              		.loc 1 340 4 is_stmt 1 view .LVU402
 1310              		.loc 1 340 17 is_stmt 0 view .LVU403
 1311 0252 2E44     		add	r6, r6, r5
ARM GAS  /tmp/cclXoGh5.s 			page 24


 1312              	.LVL141:
 1313              		.loc 1 340 46 view .LVU404
 1314 0254 22F81630 		strh	r3, [r2, r6, lsl #1]	@ movhi
 1315              	.LVL142:
 1316              		.loc 1 341 4 is_stmt 1 view .LVU405
 1317              		.loc 1 341 11 is_stmt 0 view .LVU406
 1318 0258 A28B     		ldrh	r2, [r4, #28]
 1319              		.loc 1 344 11 view .LVU407
 1320 025a 638B     		ldrh	r3, [r4, #26]
 1321              		.loc 1 341 11 view .LVU408
 1322 025c 023A     		subs	r2, r2, #2
 1323              		.loc 1 344 11 view .LVU409
 1324 025e 0233     		adds	r3, r3, #2
 1325              		.loc 1 341 11 view .LVU410
 1326 0260 A283     		strh	r2, [r4, #28]	@ movhi
 1327              		.loc 1 344 4 is_stmt 1 view .LVU411
 1328              		.loc 1 344 11 is_stmt 0 view .LVU412
 1329 0262 6383     		strh	r3, [r4, #26]	@ movhi
 1330              	.LBE91:
 1331              		.loc 1 346 3 is_stmt 1 view .LVU413
 1332 0264 0EE7     		b	.L79
 1333              	.LVL143:
 1334              	.L104:
 1335              	.LBB92:
 1336              		.loc 1 444 5 view .LVU414
 1337              		.loc 1 444 32 is_stmt 0 view .LVU415
 1338 0266 638B     		ldrh	r3, [r4, #26]
 1339              		.loc 1 444 22 view .LVU416
 1340 0268 6168     		ldr	r1, [r4, #4]
 1341              		.loc 1 444 32 view .LVU417
 1342 026a 0133     		adds	r3, r3, #1
 1343 026c 5A00     		lsls	r2, r3, #1
 1344              		.loc 1 451 5 view .LVU418
 1345 026e 023A     		subs	r2, r2, #2
 1346              		.loc 1 444 32 view .LVU419
 1347 0270 31F81330 		ldrh	r3, [r1, r3, lsl #1]
 1348              	.LVL144:
 1349              		.loc 1 448 4 is_stmt 1 view .LVU420
 1350              		.loc 1 451 5 view .LVU421
 1351 0274 885A     		ldrh	r0, [r1, r2]
 1352              	.LVL145:
 1353              		.loc 1 451 5 is_stmt 0 view .LVU422
 1354 0276 20F40070 		bic	r0, r0, #512
 1355 027a 8852     		strh	r0, [r1, r2]	@ movhi
 1356              	.LVL146:
 1357              	.L107:
 1358              		.loc 1 460 4 is_stmt 1 view .LVU423
 1359              		.loc 1 460 11 is_stmt 0 view .LVU424
 1360 027c 628B     		ldrh	r2, [r4, #26]
 1361 027e 1344     		add	r3, r3, r2
 1362 0280 6383     		strh	r3, [r4, #26]	@ movhi
 1363              	.LBE92:
 1364              		.loc 1 462 3 is_stmt 1 view .LVU425
 1365 0282 FFE6     		b	.L79
 1366              	.LVL147:
 1367              	.L121:
 1368              	.LBB93:
ARM GAS  /tmp/cclXoGh5.s 			page 25


 1369              	.LBB85:
 1370              	.LBB83:
 1371              		.loc 1 155 28 view .LVU426
 1372              		.loc 1 155 35 is_stmt 0 view .LVU427
 1373 0284 5B42     		rsbs	r3, r3, #0
 1374              	.LVL148:
 1375              		.loc 1 155 35 view .LVU428
 1376 0286 1BB2     		sxth	r3, r3
 1377              	.LVL149:
 1378              		.loc 1 155 35 view .LVU429
 1379 0288 71E7     		b	.L103
 1380              	.LVL150:
 1381              	.L102:
 1382              		.loc 1 157 32 is_stmt 1 view .LVU430
 1383              		.loc 1 157 39 is_stmt 0 view .LVU431
 1384 028a DB43     		mvns	r3, r3
 1385              	.LVL151:
 1386              		.loc 1 157 39 view .LVU432
 1387 028c 6FE7     		b	.L103
 1388              	.LVL152:
 1389              	.L101:
 1390              		.loc 1 156 28 is_stmt 1 view .LVU433
 1391              		.loc 1 156 54 is_stmt 0 view .LVU434
 1392 028e 002B     		cmp	r3, #0
 1393 0290 B8BF     		it	lt
 1394 0292 5B42     		rsblt	r3, r3, #0
 1395              	.LVL153:
 1396              		.loc 1 156 54 view .LVU435
 1397 0294 1BB2     		sxth	r3, r3
 1398 0296 6AE7     		b	.L103
 1399              	.LVL154:
 1400              	.L105:
 1401              		.loc 1 156 54 view .LVU436
 1402              	.LBE83:
 1403              	.LBE85:
 1404              	.LBE93:
 1405              	.LBB94:
 1406              		.loc 1 444 5 is_stmt 1 view .LVU437
 1407              		.loc 1 444 32 is_stmt 0 view .LVU438
 1408 0298 608B     		ldrh	r0, [r4, #26]
 1409              	.LVL155:
 1410              		.loc 1 444 22 view .LVU439
 1411 029a 6168     		ldr	r1, [r4, #4]
 1412              		.loc 1 444 32 view .LVU440
 1413 029c 431C     		adds	r3, r0, #1
 1414 029e 31F81330 		ldrh	r3, [r1, r3, lsl #1]
 1415              	.LVL156:
 1416              		.loc 1 448 4 is_stmt 1 view .LVU441
 1417 02a2 A3E7     		b	.L106
 1418              	.LVL157:
 1419              	.L120:
 1420              		.loc 1 448 4 is_stmt 0 view .LVU442
 1421              	.LBE94:
 1422              		.loc 1 532 1 view .LVU443
 1423 02a4 FFF7FEFF 		bl	__stack_chk_fail
 1424              	.LVL158:
 1425              	.L123:
ARM GAS  /tmp/cclXoGh5.s 			page 26


 1426              		.align	2
 1427              	.L122:
 1428 02a8 00000000 		.word	.LC4
 1429 02ac 00000000 		.word	AsebaVMErrorCB
 1430              		.cfi_endproc
 1431              	.LFE5:
 1432              		.size	AsebaVMStep, .-AsebaVMStep
 1433              		.section	.rodata.AsebaVMEmitNodeSpecificError.cst4,"aM",%progbits,4
 1434              		.align	2
 1435              	.LC5:
 1436 0000 00000000 		.word	__stack_chk_guard
 1437              		.section	.text.AsebaVMEmitNodeSpecificError,"ax",%progbits
 1438              		.align	1
 1439              		.p2align 4,,15
 1440              		.global	AsebaVMEmitNodeSpecificError
 1441              		.syntax unified
 1442              		.thumb
 1443              		.thumb_func
 1444              		.fpu fpv4-sp-d16
 1445              		.type	AsebaVMEmitNodeSpecificError, %function
 1446              	AsebaVMEmitNodeSpecificError:
 1447              	.LVL159:
 1448              	.LFB6:
 1449              		.loc 1 535 1 is_stmt 1 view -0
 1450              		.cfi_startproc
 1451              		@ args = 0, pretend = 0, frame = 16
 1452              		@ frame_needed = 1, uses_anonymous_args = 0
 1453              		.loc 1 535 1 is_stmt 0 view .LVU445
 1454 0000 2DE9F043 		push	{r4, r5, r6, r7, r8, r9, lr}
 1455              		.cfi_def_cfa_offset 28
 1456              		.cfi_offset 4, -28
 1457              		.cfi_offset 5, -24
 1458              		.cfi_offset 6, -20
 1459              		.cfi_offset 7, -16
 1460              		.cfi_offset 8, -12
 1461              		.cfi_offset 9, -8
 1462              		.cfi_offset 14, -4
 1463 0004 85B0     		sub	sp, sp, #20
 1464              		.cfi_def_cfa_offset 48
 1465 0006 00AF     		add	r7, sp, #0
 1466              		.cfi_def_cfa_register 7
 1467              		.loc 1 535 1 view .LVU446
 1468 0008 1C4B     		ldr	r3, .L132
 1469              		.loc 1 536 18 view .LVU447
 1470 000a 7960     		str	r1, [r7, #4]
 1471              		.loc 1 535 1 view .LVU448
 1472 000c 0446     		mov	r4, r0
 1473              		.loc 1 536 18 view .LVU449
 1474 000e 0846     		mov	r0, r1
 1475              	.LVL160:
 1476              		.loc 1 535 1 view .LVU450
 1477 0010 1B68     		ldr	r3, [r3]
 1478 0012 FB60     		str	r3, [r7, #12]
 1479 0014 4FF00003 		mov	r3,#0
 1480              		.loc 1 536 2 is_stmt 1 view .LVU451
 1481              		.loc 1 536 18 is_stmt 0 view .LVU452
 1482 0018 FFF7FEFF 		bl	strlen
ARM GAS  /tmp/cclXoGh5.s 			page 27


 1483              	.LVL161:
 1484              		.loc 1 536 18 view .LVU453
 1485 001c 1FFA80F9 		uxth	r9, r0
 1486              		.loc 1 538 8 view .LVU454
 1487 0020 09F10A03 		add	r3, r9, #10
 1488 0024 6946     		mov	r1, sp
 1489 0026 DB08     		lsrs	r3, r3, #3
 1490 0028 A1EBC303 		sub	r3, r1, r3, lsl #3
 1491              		.loc 1 545 5 view .LVU455
 1492 002c 144A     		ldr	r2, .L132+4
 1493 002e 7968     		ldr	r1, [r7, #4]
 1494              		.loc 1 538 8 view .LVU456
 1495 0030 9D46     		mov	sp, r3
 1496              	.LVL162:
 1497              		.loc 1 536 18 view .LVU457
 1498 0032 0546     		mov	r5, r0
 1499              		.loc 1 538 8 view .LVU458
 1500 0034 6E46     		mov	r6, sp
 1501              		.loc 1 536 9 view .LVU459
 1502 0036 C846     		mov	r8, r9
 1503              	.LVL163:
 1504              		.loc 1 538 2 is_stmt 1 view .LVU460
 1505              		.loc 1 545 2 view .LVU461
 1506              		.loc 1 545 5 is_stmt 0 view .LVU462
 1507 0038 1AB1     		cbz	r2, .L125
 1508              		.loc 1 546 3 is_stmt 1 view .LVU463
 1509 003a 2046     		mov	r0, r4
 1510 003c FFF7FEFF 		bl	AsebaVMErrorCB
 1511              	.LVL164:
 1512              		.loc 1 546 3 is_stmt 0 view .LVU464
 1513 0040 7968     		ldr	r1, [r7, #4]
 1514              	.L125:
 1515              		.loc 1 548 2 is_stmt 1 view .LVU465
 1516              		.loc 1 551 14 is_stmt 0 view .LVU466
 1517 0042 B570     		strb	r5, [r6, #2]
 1518              		.loc 1 548 12 view .LVU467
 1519 0044 0223     		movs	r3, #2
 1520 0046 2383     		strh	r3, [r4, #24]	@ movhi
 1521              		.loc 1 550 2 is_stmt 1 view .LVU468
 1522              		.loc 1 550 23 is_stmt 0 view .LVU469
 1523 0048 638B     		ldrh	r3, [r4, #26]
 1524 004a 3380     		strh	r3, [r6]	@ movhi
 1525              		.loc 1 551 2 is_stmt 1 view .LVU470
 1526              		.loc 1 552 2 view .LVU471
 1527 004c 4A46     		mov	r2, r9
 1528 004e F01C     		adds	r0, r6, #3
 1529 0050 FFF7FEFF 		bl	memcpy
 1530              	.LVL165:
 1531              		.loc 1 554 2 view .LVU472
 1532 0054 08F10303 		add	r3, r8, #3
 1533 0058 9BB2     		uxth	r3, r3
 1534 005a 3246     		mov	r2, r6
 1535 005c 2046     		mov	r0, r4
 1536 005e 49F20901 		movw	r1, #36873
 1537 0062 FFF7FEFF 		bl	AsebaSendMessage
 1538              	.LVL166:
 1539              		.loc 1 555 1 is_stmt 0 view .LVU473
ARM GAS  /tmp/cclXoGh5.s 			page 28


 1540 0066 054B     		ldr	r3, .L132
 1541 0068 1A68     		ldr	r2, [r3]
 1542 006a FB68     		ldr	r3, [r7, #12]
 1543 006c 5A40     		eors	r2, r3, r2
 1544 006e 03D1     		bne	.L131
 1545 0070 1437     		adds	r7, r7, #20
 1546              		.cfi_remember_state
 1547              		.cfi_def_cfa_offset 28
 1548              	.LVL167:
 1549              		.loc 1 555 1 view .LVU474
 1550 0072 BD46     		mov	sp, r7
 1551              		.cfi_def_cfa_register 13
 1552              		@ sp needed
 1553 0074 BDE8F083 		pop	{r4, r5, r6, r7, r8, r9, pc}
 1554              	.LVL168:
 1555              	.L131:
 1556              		.cfi_restore_state
 1557              		.loc 1 555 1 view .LVU475
 1558 0078 FFF7FEFF 		bl	__stack_chk_fail
 1559              	.LVL169:
 1560              	.L133:
 1561              		.align	2
 1562              	.L132:
 1563 007c 00000000 		.word	.LC5
 1564 0080 00000000 		.word	AsebaVMErrorCB
 1565              		.cfi_endproc
 1566              	.LFE6:
 1567              		.size	AsebaVMEmitNodeSpecificError, .-AsebaVMEmitNodeSpecificError
 1568              		.section	.rodata.AsebaVMCheckBreakpoint.cst4,"aM",%progbits,4
 1569              		.align	2
 1570              	.LC6:
 1571 0000 00000000 		.word	__stack_chk_guard
 1572              		.section	.text.AsebaVMCheckBreakpoint,"ax",%progbits
 1573              		.align	1
 1574              		.p2align 4,,15
 1575              		.global	AsebaVMCheckBreakpoint
 1576              		.syntax unified
 1577              		.thumb
 1578              		.thumb_func
 1579              		.fpu fpv4-sp-d16
 1580              		.type	AsebaVMCheckBreakpoint, %function
 1581              	AsebaVMCheckBreakpoint:
 1582              	.LVL170:
 1583              	.LFB7:
 1584              		.loc 1 561 1 is_stmt 1 view -0
 1585              		.cfi_startproc
 1586              		@ args = 0, pretend = 0, frame = 8
 1587              		@ frame_needed = 0, uses_anonymous_args = 0
 1588              		.loc 1 561 1 is_stmt 0 view .LVU477
 1589 0000 30B5     		push	{r4, r5, lr}
 1590              		.cfi_def_cfa_offset 12
 1591              		.cfi_offset 4, -12
 1592              		.cfi_offset 5, -8
 1593              		.cfi_offset 14, -4
 1594 0002 144B     		ldr	r3, .L146
 1595 0004 0546     		mov	r5, r0
 1596              		.loc 1 563 20 view .LVU478
ARM GAS  /tmp/cclXoGh5.s 			page 29


 1597 0006 C08F     		ldrh	r0, [r0, #62]
 1598              	.LVL171:
 1599              		.loc 1 561 1 view .LVU479
 1600 0008 83B0     		sub	sp, sp, #12
 1601              		.cfi_def_cfa_offset 24
 1602              		.loc 1 561 1 view .LVU480
 1603 000a 1B68     		ldr	r3, [r3]
 1604 000c 0193     		str	r3, [sp, #4]
 1605 000e 4FF00003 		mov	r3,#0
 1606              		.loc 1 562 2 is_stmt 1 view .LVU481
 1607              		.loc 1 563 2 view .LVU482
 1608              	.LVL172:
 1609              		.loc 1 563 14 view .LVU483
 1610              		.loc 1 563 2 is_stmt 0 view .LVU484
 1611 0012 A0B1     		cbz	r0, .L135
 1612 0014 411E     		subs	r1, r0, #1
 1613 0016 8BB2     		uxth	r3, r1
 1614 0018 05F11E01 		add	r1, r5, #30
 1615 001c 01EB4301 		add	r1, r1, r3, lsl #1
 1616              		.loc 1 565 31 view .LVU485
 1617 0020 6C8B     		ldrh	r4, [r5, #26]
 1618 0022 05F11C03 		add	r3, r5, #28
 1619 0026 01E0     		b	.L137
 1620              	.LVL173:
 1621              	.L136:
 1622              		.loc 1 563 40 is_stmt 1 discriminator 2 view .LVU486
 1623              		.loc 1 563 14 discriminator 2 view .LVU487
 1624              		.loc 1 563 2 is_stmt 0 discriminator 2 view .LVU488
 1625 0028 8B42     		cmp	r3, r1
 1626 002a 0FD0     		beq	.L144
 1627              	.L137:
 1628              		.loc 1 565 3 is_stmt 1 view .LVU489
 1629              		.loc 1 565 6 is_stmt 0 view .LVU490
 1630 002c 33F8022F 		ldrh	r2, [r3, #2]!
 1631 0030 A242     		cmp	r2, r4
 1632 0032 F9D1     		bne	.L136
 1633              		.loc 1 567 4 is_stmt 1 view .LVU491
 1634 0034 2B8B     		ldrh	r3, [r5, #24]
 1635 0036 43F00203 		orr	r3, r3, #2
 1636 003a 2B83     		strh	r3, [r5, #24]	@ movhi
 1637              		.loc 1 568 4 view .LVU492
 1638              		.loc 1 568 11 is_stmt 0 view .LVU493
 1639 003c 0120     		movs	r0, #1
 1640              	.L135:
 1641              		.loc 1 573 1 view .LVU494
 1642 003e 054B     		ldr	r3, .L146
 1643 0040 1A68     		ldr	r2, [r3]
 1644 0042 019B     		ldr	r3, [sp, #4]
 1645 0044 5A40     		eors	r2, r3, r2
 1646 0046 03D1     		bne	.L145
 1647 0048 03B0     		add	sp, sp, #12
 1648              		.cfi_remember_state
 1649              		.cfi_def_cfa_offset 12
 1650              		@ sp needed
 1651 004a 30BD     		pop	{r4, r5, pc}
 1652              	.LVL174:
 1653              	.L144:
ARM GAS  /tmp/cclXoGh5.s 			page 30


 1654              		.cfi_restore_state
 1655              		.loc 1 572 9 view .LVU495
 1656 004c 0020     		movs	r0, #0
 1657 004e F6E7     		b	.L135
 1658              	.L145:
 1659              		.loc 1 573 1 view .LVU496
 1660 0050 FFF7FEFF 		bl	__stack_chk_fail
 1661              	.LVL175:
 1662              	.L147:
 1663              		.align	2
 1664              	.L146:
 1665 0054 00000000 		.word	.LC6
 1666              		.cfi_endproc
 1667              	.LFE7:
 1668              		.size	AsebaVMCheckBreakpoint, .-AsebaVMCheckBreakpoint
 1669              		.section	.rodata.AsebaDebugBareRun.cst4,"aM",%progbits,4
 1670              		.align	2
 1671              	.LC7:
 1672 0000 00000000 		.word	__stack_chk_guard
 1673              		.section	.text.AsebaDebugBareRun,"ax",%progbits
 1674              		.align	1
 1675              		.p2align 4,,15
 1676              		.global	AsebaDebugBareRun
 1677              		.syntax unified
 1678              		.thumb
 1679              		.thumb_func
 1680              		.fpu fpv4-sp-d16
 1681              		.type	AsebaDebugBareRun, %function
 1682              	AsebaDebugBareRun:
 1683              	.LVL176:
 1684              	.LFB8:
 1685              		.loc 1 578 1 is_stmt 1 view -0
 1686              		.cfi_startproc
 1687              		@ args = 0, pretend = 0, frame = 8
 1688              		@ frame_needed = 0, uses_anonymous_args = 0
 1689              		.loc 1 578 1 is_stmt 0 view .LVU498
 1690 0000 30B5     		push	{r4, r5, lr}
 1691              		.cfi_def_cfa_offset 12
 1692              		.cfi_offset 4, -12
 1693              		.cfi_offset 5, -8
 1694              		.cfi_offset 14, -4
 1695 0002 1D4B     		ldr	r3, .L162
 1696              		.loc 1 579 2 view .LVU499
 1697 0004 028B     		ldrh	r2, [r0, #24]
 1698              		.loc 1 578 1 view .LVU500
 1699 0006 83B0     		sub	sp, sp, #12
 1700              		.cfi_def_cfa_offset 24
 1701              		.loc 1 578 1 view .LVU501
 1702 0008 1B68     		ldr	r3, [r3]
 1703 000a 0193     		str	r3, [sp, #4]
 1704 000c 4FF00003 		mov	r3,#0
 1705              		.loc 1 579 2 is_stmt 1 view .LVU502
 1706 0010 42F00403 		orr	r3, r2, #4
 1707              		.loc 1 578 1 is_stmt 0 view .LVU503
 1708 0014 0546     		mov	r5, r0
 1709              		.loc 1 579 2 view .LVU504
 1710 0016 0383     		strh	r3, [r0, #24]	@ movhi
ARM GAS  /tmp/cclXoGh5.s 			page 31


 1711              		.loc 1 581 2 is_stmt 1 view .LVU505
 1712              		.loc 1 581 5 is_stmt 0 view .LVU506
 1713 0018 B9B9     		cbnz	r1, .L149
 1714              		.loc 1 597 9 is_stmt 1 view .LVU507
 1715 001a 02F00502 		and	r2, r2, #5
 1716 001e 42F00402 		orr	r2, r2, #4
 1717 0022 052A     		cmp	r2, #5
 1718 0024 07D1     		bne	.L151
 1719              	.LVL177:
 1720              	.L150:
 1721              		.loc 1 600 4 view .LVU508
 1722 0026 2846     		mov	r0, r5
 1723 0028 FFF7FEFF 		bl	AsebaVMStep
 1724              	.LVL178:
 1725              		.loc 1 597 9 view .LVU509
 1726              		.loc 1 597 10 is_stmt 0 view .LVU510
 1727 002c 2B8B     		ldrh	r3, [r5, #24]
 1728              		.loc 1 597 9 view .LVU511
 1729 002e 03F00502 		and	r2, r3, #5
 1730 0032 052A     		cmp	r2, #5
 1731 0034 F7D0     		beq	.L150
 1732              	.LVL179:
 1733              	.L151:
 1734              		.loc 1 603 2 is_stmt 1 view .LVU512
 1735 0036 23F00403 		bic	r3, r3, #4
 1736 003a 2B83     		strh	r3, [r5, #24]	@ movhi
 1737              		.loc 1 604 1 is_stmt 0 view .LVU513
 1738 003c 0E4B     		ldr	r3, .L162
 1739 003e 1A68     		ldr	r2, [r3]
 1740 0040 019B     		ldr	r3, [sp, #4]
 1741 0042 5A40     		eors	r2, r3, r2
 1742 0044 16D1     		bne	.L160
 1743 0046 03B0     		add	sp, sp, #12
 1744              		.cfi_remember_state
 1745              		.cfi_def_cfa_offset 12
 1746              		@ sp needed
 1747 0048 30BD     		pop	{r4, r5, pc}
 1748              	.LVL180:
 1749              	.L149:
 1750              		.cfi_restore_state
 1751              		.loc 1 584 9 view .LVU514
 1752 004a 02F00502 		and	r2, r2, #5
 1753 004e 42F00402 		orr	r2, r2, #4
 1754 0052 052A     		cmp	r2, #5
 1755 0054 0C46     		mov	r4, r1
 1756              	.LVL181:
 1757              		.loc 1 584 9 is_stmt 1 view .LVU515
 1758 0056 02D0     		beq	.L152
 1759 0058 EDE7     		b	.L151
 1760              	.LVL182:
 1761              	.L161:
 1762              		.loc 1 585 59 is_stmt 0 view .LVU516
 1763 005a 002C     		cmp	r4, #0
 1764 005c EBD0     		beq	.L151
 1765              	.L152:
 1766              		.loc 1 589 4 is_stmt 1 view .LVU517
 1767 005e 2846     		mov	r0, r5
ARM GAS  /tmp/cclXoGh5.s 			page 32


 1768 0060 FFF7FEFF 		bl	AsebaVMStep
 1769              	.LVL183:
 1770              		.loc 1 590 4 view .LVU518
 1771              		.loc 1 584 10 is_stmt 0 view .LVU519
 1772 0064 2B8B     		ldrh	r3, [r5, #24]
 1773              		.loc 1 584 9 view .LVU520
 1774 0066 03F00502 		and	r2, r3, #5
 1775              		.loc 1 590 14 view .LVU521
 1776 006a 013C     		subs	r4, r4, #1
 1777              	.LVL184:
 1778              		.loc 1 584 9 view .LVU522
 1779 006c 052A     		cmp	r2, #5
 1780              		.loc 1 590 14 view .LVU523
 1781 006e A4B2     		uxth	r4, r4
 1782              	.LVL185:
 1783              		.loc 1 584 9 is_stmt 1 view .LVU524
 1784 0070 F3D0     		beq	.L161
 1785 0072 E0E7     		b	.L151
 1786              	.LVL186:
 1787              	.L160:
 1788              		.loc 1 604 1 is_stmt 0 view .LVU525
 1789 0074 FFF7FEFF 		bl	__stack_chk_fail
 1790              	.LVL187:
 1791              	.L163:
 1792              		.align	2
 1793              	.L162:
 1794 0078 00000000 		.word	.LC7
 1795              		.cfi_endproc
 1796              	.LFE8:
 1797              		.size	AsebaDebugBareRun, .-AsebaDebugBareRun
 1798              		.section	.rodata.AsebaDebugBreakpointRun.cst4,"aM",%progbits,4
 1799              		.align	2
 1800              	.LC8:
 1801 0000 00000000 		.word	__stack_chk_guard
 1802              		.section	.text.AsebaDebugBreakpointRun,"ax",%progbits
 1803              		.align	1
 1804              		.p2align 4,,15
 1805              		.global	AsebaDebugBreakpointRun
 1806              		.syntax unified
 1807              		.thumb
 1808              		.thumb_func
 1809              		.fpu fpv4-sp-d16
 1810              		.type	AsebaDebugBreakpointRun, %function
 1811              	AsebaDebugBreakpointRun:
 1812              	.LVL188:
 1813              	.LFB9:
 1814              		.loc 1 609 1 is_stmt 1 view -0
 1815              		.cfi_startproc
 1816              		@ args = 0, pretend = 0, frame = 8
 1817              		@ frame_needed = 0, uses_anonymous_args = 0
 1818              		.loc 1 609 1 is_stmt 0 view .LVU527
 1819 0000 2DE9F041 		push	{r4, r5, r6, r7, r8, lr}
 1820              		.cfi_def_cfa_offset 24
 1821              		.cfi_offset 4, -24
 1822              		.cfi_offset 5, -20
 1823              		.cfi_offset 6, -16
 1824              		.cfi_offset 7, -12
ARM GAS  /tmp/cclXoGh5.s 			page 33


 1825              		.cfi_offset 8, -8
 1826              		.cfi_offset 14, -4
 1827              		.loc 1 610 2 view .LVU528
 1828 0004 038B     		ldrh	r3, [r0, #24]
 1829              		.loc 1 609 1 view .LVU529
 1830 0006 354A     		ldr	r2, .L189
 1831              		.loc 1 610 2 view .LVU530
 1832 0008 43F00405 		orr	r5, r3, #4
 1833              		.loc 1 609 1 view .LVU531
 1834 000c 82B0     		sub	sp, sp, #8
 1835              		.cfi_def_cfa_offset 32
 1836              		.loc 1 615 9 view .LVU532
 1837 000e 03F00503 		and	r3, r3, #5
 1838              		.loc 1 609 1 view .LVU533
 1839 0012 1268     		ldr	r2, [r2]
 1840 0014 0192     		str	r2, [sp, #4]
 1841 0016 4FF00002 		mov	r2,#0
 1842              		.loc 1 610 2 is_stmt 1 view .LVU534
 1843              		.loc 1 609 1 is_stmt 0 view .LVU535
 1844 001a 0446     		mov	r4, r0
 1845              		.loc 1 610 2 view .LVU536
 1846 001c 0583     		strh	r5, [r0, #24]	@ movhi
 1847              		.loc 1 612 2 is_stmt 1 view .LVU537
 1848              		.loc 1 615 9 is_stmt 0 view .LVU538
 1849 001e 43F00403 		orr	r3, r3, #4
 1850              		.loc 1 612 5 view .LVU539
 1851 0022 51BB     		cbnz	r1, .L165
 1852              		.loc 1 634 9 is_stmt 1 view .LVU540
 1853 0024 052B     		cmp	r3, #5
 1854 0026 46D1     		bne	.L167
 1855 0028 00F11E07 		add	r7, r0, #30
 1856              	.LVL189:
 1857              	.L166:
 1858              	.LBB95:
 1859              	.LBB96:
 1860              		.loc 1 563 14 view .LVU541
 1861              		.loc 1 563 20 is_stmt 0 view .LVU542
 1862 002c E18F     		ldrh	r1, [r4, #62]
 1863              		.loc 1 563 2 view .LVU543
 1864 002e 0029     		cmp	r1, #0
 1865 0030 39D0     		beq	.L177
 1866 0032 0139     		subs	r1, r1, #1
 1867 0034 89B2     		uxth	r1, r1
 1868              		.loc 1 565 31 view .LVU544
 1869 0036 668B     		ldrh	r6, [r4, #26]
 1870 0038 07EB4101 		add	r1, r7, r1, lsl #1
 1871 003c 04F11C03 		add	r3, r4, #28
 1872 0040 01E0     		b	.L175
 1873              	.LVL190:
 1874              	.L174:
 1875              		.loc 1 563 40 is_stmt 1 view .LVU545
 1876              		.loc 1 563 14 view .LVU546
 1877              		.loc 1 563 2 is_stmt 0 view .LVU547
 1878 0042 8B42     		cmp	r3, r1
 1879 0044 2FD0     		beq	.L177
 1880              	.L175:
 1881              		.loc 1 565 3 is_stmt 1 view .LVU548
ARM GAS  /tmp/cclXoGh5.s 			page 34


 1882              		.loc 1 565 6 is_stmt 0 view .LVU549
 1883 0046 33F8022F 		ldrh	r2, [r3, #2]!
 1884 004a B242     		cmp	r2, r6
 1885 004c F9D1     		bne	.L174
 1886              	.LVL191:
 1887              	.L187:
 1888              		.loc 1 567 4 is_stmt 1 view .LVU550
 1889 004e 45F00205 		orr	r5, r5, #2
 1890 0052 2583     		strh	r5, [r4, #24]	@ movhi
 1891              		.loc 1 568 4 view .LVU551
 1892              	.LBE96:
 1893              	.LBE95:
 1894              		.loc 1 640 5 view .LVU552
 1895              		.loc 1 641 5 view .LVU553
 1896              	.LVL192:
 1897              	.LBB97:
 1898              	.LBI97:
 1899              		.loc 1 714 6 view .LVU554
 1900              	.LBB98:
 1901              		.loc 1 716 2 view .LVU555
 1902              		.loc 1 717 2 view .LVU556
 1903              		.loc 1 719 2 is_stmt 0 view .LVU557
 1904 0054 2046     		mov	r0, r4
 1905 0056 0423     		movs	r3, #4
 1906 0058 6A46     		mov	r2, sp
 1907 005a 49F20A01 		movw	r1, #36874
 1908              		.loc 1 718 12 view .LVU558
 1909 005e ADF80250 		strh	r5, [sp, #2]	@ movhi
 1910              		.loc 1 717 12 view .LVU559
 1911 0062 ADF80060 		strh	r6, [sp]	@ movhi
 1912              		.loc 1 718 2 is_stmt 1 view .LVU560
 1913              		.loc 1 719 2 view .LVU561
 1914 0066 FFF7FEFF 		bl	AsebaSendMessage
 1915              	.LVL193:
 1916              		.loc 1 719 2 is_stmt 0 view .LVU562
 1917              	.LBE98:
 1918              	.LBE97:
 1919              		.loc 1 642 5 is_stmt 1 view .LVU563
 1920              	.L164:
 1921              		.loc 1 649 1 is_stmt 0 view .LVU564
 1922 006a 1C4B     		ldr	r3, .L189
 1923 006c 1A68     		ldr	r2, [r3]
 1924 006e 019B     		ldr	r3, [sp, #4]
 1925 0070 5A40     		eors	r2, r3, r2
 1926 0072 31D1     		bne	.L188
 1927 0074 02B0     		add	sp, sp, #8
 1928              		.cfi_remember_state
 1929              		.cfi_def_cfa_offset 24
 1930              		@ sp needed
 1931 0076 BDE8F081 		pop	{r4, r5, r6, r7, r8, pc}
 1932              	.LVL194:
 1933              	.L165:
 1934              		.cfi_restore_state
 1935              		.loc 1 615 9 is_stmt 1 view .LVU565
 1936 007a 052B     		cmp	r3, #5
 1937 007c 1BD1     		bne	.L167
 1938 007e 0F46     		mov	r7, r1
ARM GAS  /tmp/cclXoGh5.s 			page 35


 1939 0080 00F11E08 		add	r8, r0, #30
 1940              	.LVL195:
 1941              	.L168:
 1942              	.LBB99:
 1943              	.LBB100:
 1944              		.loc 1 563 14 view .LVU566
 1945              		.loc 1 563 20 is_stmt 0 view .LVU567
 1946 0084 E08F     		ldrh	r0, [r4, #62]
 1947              		.loc 1 563 2 view .LVU568
 1948 0086 D0B1     		cbz	r0, .L173
 1949 0088 0138     		subs	r0, r0, #1
 1950 008a 80B2     		uxth	r0, r0
 1951              		.loc 1 565 31 view .LVU569
 1952 008c 668B     		ldrh	r6, [r4, #26]
 1953 008e 08EB4000 		add	r0, r8, r0, lsl #1
 1954 0092 04F11C03 		add	r3, r4, #28
 1955 0096 01E0     		b	.L171
 1956              	.LVL196:
 1957              	.L169:
 1958              		.loc 1 563 40 is_stmt 1 view .LVU570
 1959              		.loc 1 563 14 view .LVU571
 1960              		.loc 1 563 2 is_stmt 0 view .LVU572
 1961 0098 8342     		cmp	r3, r0
 1962 009a 10D0     		beq	.L173
 1963              	.L171:
 1964              		.loc 1 565 3 is_stmt 1 view .LVU573
 1965              		.loc 1 565 6 is_stmt 0 view .LVU574
 1966 009c 33F8022F 		ldrh	r2, [r3, #2]!
 1967 00a0 B242     		cmp	r2, r6
 1968 00a2 F9D1     		bne	.L169
 1969 00a4 D3E7     		b	.L187
 1970              	.LVL197:
 1971              	.L177:
 1972              		.loc 1 565 6 view .LVU575
 1973              	.LBE100:
 1974              	.LBE99:
 1975              		.loc 1 644 4 is_stmt 1 view .LVU576
 1976 00a6 2046     		mov	r0, r4
 1977 00a8 FFF7FEFF 		bl	AsebaVMStep
 1978              	.LVL198:
 1979              		.loc 1 634 9 view .LVU577
 1980              		.loc 1 634 10 is_stmt 0 view .LVU578
 1981 00ac 258B     		ldrh	r5, [r4, #24]
 1982              		.loc 1 634 9 view .LVU579
 1983 00ae 05F00503 		and	r3, r5, #5
 1984 00b2 052B     		cmp	r3, #5
 1985 00b4 BAD0     		beq	.L166
 1986              	.LVL199:
 1987              	.L167:
 1988              		.loc 1 648 2 is_stmt 1 view .LVU580
 1989 00b6 25F00405 		bic	r5, r5, #4
 1990 00ba 2583     		strh	r5, [r4, #24]	@ movhi
 1991 00bc D5E7     		b	.L164
 1992              	.LVL200:
 1993              	.L173:
 1994              		.loc 1 626 4 view .LVU581
 1995 00be 2046     		mov	r0, r4
ARM GAS  /tmp/cclXoGh5.s 			page 36


 1996 00c0 FFF7FEFF 		bl	AsebaVMStep
 1997              	.LVL201:
 1998              		.loc 1 627 4 view .LVU582
 1999              		.loc 1 615 10 is_stmt 0 view .LVU583
 2000 00c4 258B     		ldrh	r5, [r4, #24]
 2001              		.loc 1 615 9 view .LVU584
 2002 00c6 05F00503 		and	r3, r5, #5
 2003              		.loc 1 627 14 view .LVU585
 2004 00ca 013F     		subs	r7, r7, #1
 2005              	.LVL202:
 2006              		.loc 1 615 9 view .LVU586
 2007 00cc 052B     		cmp	r3, #5
 2008              		.loc 1 627 14 view .LVU587
 2009 00ce BFB2     		uxth	r7, r7
 2010              	.LVL203:
 2011              		.loc 1 615 9 is_stmt 1 view .LVU588
 2012 00d0 F1D1     		bne	.L167
 2013              		.loc 1 616 59 is_stmt 0 view .LVU589
 2014 00d2 002F     		cmp	r7, #0
 2015 00d4 D6D1     		bne	.L168
 2016 00d6 EEE7     		b	.L167
 2017              	.LVL204:
 2018              	.L188:
 2019              		.loc 1 649 1 view .LVU590
 2020 00d8 FFF7FEFF 		bl	__stack_chk_fail
 2021              	.LVL205:
 2022              	.L190:
 2023              		.align	2
 2024              	.L189:
 2025 00dc 00000000 		.word	.LC8
 2026              		.cfi_endproc
 2027              	.LFE9:
 2028              		.size	AsebaDebugBreakpointRun, .-AsebaDebugBreakpointRun
 2029              		.section	.rodata.AsebaVMRun.cst4,"aM",%progbits,4
 2030              		.align	2
 2031              	.LC9:
 2032 0000 00000000 		.word	__stack_chk_guard
 2033              		.section	.text.AsebaVMRun,"ax",%progbits
 2034              		.align	1
 2035              		.p2align 4,,15
 2036              		.global	AsebaVMRun
 2037              		.syntax unified
 2038              		.thumb
 2039              		.thumb_func
 2040              		.fpu fpv4-sp-d16
 2041              		.type	AsebaVMRun, %function
 2042              	AsebaVMRun:
 2043              	.LVL206:
 2044              	.LFB10:
 2045              		.loc 1 652 1 is_stmt 1 view -0
 2046              		.cfi_startproc
 2047              		@ args = 0, pretend = 0, frame = 8
 2048              		@ frame_needed = 0, uses_anonymous_args = 0
 2049              		.loc 1 652 1 is_stmt 0 view .LVU592
 2050 0000 10B5     		push	{r4, lr}
 2051              		.cfi_def_cfa_offset 8
 2052              		.cfi_offset 4, -8
ARM GAS  /tmp/cclXoGh5.s 			page 37


 2053              		.cfi_offset 14, -4
 2054 0002 0F4A     		ldr	r2, .L201
 2055 0004 82B0     		sub	sp, sp, #8
 2056              		.cfi_def_cfa_offset 16
 2057              		.loc 1 652 1 view .LVU593
 2058 0006 1268     		ldr	r2, [r2]
 2059 0008 0192     		str	r2, [sp, #4]
 2060 000a 4FF00002 		mov	r2,#0
 2061              		.loc 1 654 2 is_stmt 1 view .LVU594
 2062              		.loc 1 654 6 is_stmt 0 view .LVU595
 2063 000e 028B     		ldrh	r2, [r0, #24]
 2064              		.loc 1 654 5 view .LVU596
 2065 0010 12F00104 		ands	r4, r2, #1
 2066 0014 05D0     		beq	.L192
 2067              		.loc 1 658 2 is_stmt 1 view .LVU597
 2068              		.loc 1 658 5 is_stmt 0 view .LVU598
 2069 0016 9307     		lsls	r3, r2, #30
 2070 0018 0BD4     		bmi	.L195
 2071              		.loc 1 662 2 is_stmt 1 view .LVU599
 2072              		.loc 1 662 5 is_stmt 0 view .LVU600
 2073 001a C38F     		ldrh	r3, [r0, #62]
 2074 001c 5BB1     		cbz	r3, .L193
 2075              		.loc 1 663 3 is_stmt 1 view .LVU601
 2076 001e FFF7FEFF 		bl	AsebaDebugBreakpointRun
 2077              	.LVL207:
 2078              	.L192:
 2079              		.loc 1 668 1 is_stmt 0 view .LVU602
 2080 0022 074B     		ldr	r3, .L201
 2081 0024 1A68     		ldr	r2, [r3]
 2082 0026 019B     		ldr	r3, [sp, #4]
 2083 0028 5A40     		eors	r2, r3, r2
 2084 002a 07D1     		bne	.L200
 2085 002c 2046     		mov	r0, r4
 2086 002e 02B0     		add	sp, sp, #8
 2087              		.cfi_remember_state
 2088              		.cfi_def_cfa_offset 8
 2089              		@ sp needed
 2090 0030 10BD     		pop	{r4, pc}
 2091              	.LVL208:
 2092              	.L195:
 2093              		.cfi_restore_state
 2094              		.loc 1 655 10 view .LVU603
 2095 0032 0024     		movs	r4, #0
 2096 0034 F5E7     		b	.L192
 2097              	.L193:
 2098              		.loc 1 665 3 is_stmt 1 view .LVU604
 2099 0036 FFF7FEFF 		bl	AsebaDebugBareRun
 2100              	.LVL209:
 2101              		.loc 1 665 3 is_stmt 0 view .LVU605
 2102 003a F2E7     		b	.L192
 2103              	.L200:
 2104              		.loc 1 668 1 view .LVU606
 2105 003c FFF7FEFF 		bl	__stack_chk_fail
 2106              	.LVL210:
 2107              	.L202:
 2108              		.align	2
 2109              	.L201:
ARM GAS  /tmp/cclXoGh5.s 			page 38


 2110 0040 00000000 		.word	.LC9
 2111              		.cfi_endproc
 2112              	.LFE10:
 2113              		.size	AsebaVMRun, .-AsebaVMRun
 2114              		.section	.rodata.AsebaVMSetBreakpoint.cst4,"aM",%progbits,4
 2115              		.align	2
 2116              	.LC10:
 2117 0000 00000000 		.word	__stack_chk_guard
 2118              		.section	.text.AsebaVMSetBreakpoint,"ax",%progbits
 2119              		.align	1
 2120              		.p2align 4,,15
 2121              		.global	AsebaVMSetBreakpoint
 2122              		.syntax unified
 2123              		.thumb
 2124              		.thumb_func
 2125              		.fpu fpv4-sp-d16
 2126              		.type	AsebaVMSetBreakpoint, %function
 2127              	AsebaVMSetBreakpoint:
 2128              	.LVL211:
 2129              	.LFB11:
 2130              		.loc 1 673 1 is_stmt 1 view -0
 2131              		.cfi_startproc
 2132              		@ args = 0, pretend = 0, frame = 8
 2133              		@ frame_needed = 0, uses_anonymous_args = 0
 2134              		.loc 1 673 1 is_stmt 0 view .LVU608
 2135 0000 00B5     		push	{lr}
 2136              		.cfi_def_cfa_offset 4
 2137              		.cfi_offset 14, -4
 2138              		.loc 1 679 8 view .LVU609
 2139 0002 C38F     		ldrh	r3, [r0, #62]
 2140              		.loc 1 673 1 view .LVU610
 2141 0004 0C4A     		ldr	r2, .L209
 2142 0006 83B0     		sub	sp, sp, #12
 2143              		.cfi_def_cfa_offset 16
 2144              		.loc 1 679 5 view .LVU611
 2145 0008 0F2B     		cmp	r3, #15
 2146              		.loc 1 673 1 view .LVU612
 2147 000a 1268     		ldr	r2, [r2]
 2148 000c 0192     		str	r2, [sp, #4]
 2149 000e 4FF00002 		mov	r2,#0
 2150              		.loc 1 679 2 is_stmt 1 view .LVU613
 2151              		.loc 1 679 5 is_stmt 0 view .LVU614
 2152 0012 0DD8     		bhi	.L206
 2153              		.loc 1 681 3 is_stmt 1 view .LVU615
 2154              		.loc 1 681 43 is_stmt 0 view .LVU616
 2155 0014 00EB4302 		add	r2, r0, r3, lsl #1
 2156              		.loc 1 681 39 view .LVU617
 2157 0018 0133     		adds	r3, r3, #1
 2158 001a C387     		strh	r3, [r0, #62]	@ movhi
 2159              		.loc 1 682 10 view .LVU618
 2160 001c 0120     		movs	r0, #1
 2161              	.LVL212:
 2162              		.loc 1 681 43 view .LVU619
 2163 001e D183     		strh	r1, [r2, #30]	@ movhi
 2164              		.loc 1 682 3 is_stmt 1 view .LVU620
 2165              	.L204:
 2166              		.loc 1 686 1 is_stmt 0 view .LVU621
ARM GAS  /tmp/cclXoGh5.s 			page 39


 2167 0020 054B     		ldr	r3, .L209
 2168 0022 1A68     		ldr	r2, [r3]
 2169 0024 019B     		ldr	r3, [sp, #4]
 2170 0026 5A40     		eors	r2, r3, r2
 2171 0028 04D1     		bne	.L208
 2172 002a 03B0     		add	sp, sp, #12
 2173              		.cfi_remember_state
 2174              		.cfi_def_cfa_offset 4
 2175              		@ sp needed
 2176 002c 5DF804FB 		ldr	pc, [sp], #4
 2177              	.LVL213:
 2178              	.L206:
 2179              		.cfi_restore_state
 2180              		.loc 1 685 10 view .LVU622
 2181 0030 0020     		movs	r0, #0
 2182              	.LVL214:
 2183              		.loc 1 685 10 view .LVU623
 2184 0032 F5E7     		b	.L204
 2185              	.L208:
 2186              		.loc 1 686 1 view .LVU624
 2187 0034 FFF7FEFF 		bl	__stack_chk_fail
 2188              	.LVL215:
 2189              	.L210:
 2190              		.loc 1 686 1 view .LVU625
 2191              		.align	2
 2192              	.L209:
 2193 0038 00000000 		.word	.LC10
 2194              		.cfi_endproc
 2195              	.LFE11:
 2196              		.size	AsebaVMSetBreakpoint, .-AsebaVMSetBreakpoint
 2197              		.section	.rodata.AsebaVMClearBreakpoint.cst4,"aM",%progbits,4
 2198              		.align	2
 2199              	.LC11:
 2200 0000 00000000 		.word	__stack_chk_guard
 2201              		.section	.text.AsebaVMClearBreakpoint,"ax",%progbits
 2202              		.align	1
 2203              		.p2align 4,,15
 2204              		.global	AsebaVMClearBreakpoint
 2205              		.syntax unified
 2206              		.thumb
 2207              		.thumb_func
 2208              		.fpu fpv4-sp-d16
 2209              		.type	AsebaVMClearBreakpoint, %function
 2210              	AsebaVMClearBreakpoint:
 2211              	.LVL216:
 2212              	.LFB12:
 2213              		.loc 1 690 1 is_stmt 1 view -0
 2214              		.cfi_startproc
 2215              		@ args = 0, pretend = 0, frame = 8
 2216              		@ frame_needed = 0, uses_anonymous_args = 0
 2217              		.loc 1 690 1 is_stmt 0 view .LVU627
 2218 0000 70B5     		push	{r4, r5, r6, lr}
 2219              		.cfi_def_cfa_offset 16
 2220              		.cfi_offset 4, -16
 2221              		.cfi_offset 5, -12
 2222              		.cfi_offset 6, -8
 2223              		.cfi_offset 14, -4
ARM GAS  /tmp/cclXoGh5.s 			page 40


 2224 0002 1B4B     		ldr	r3, .L227
 2225              		.loc 1 692 20 view .LVU628
 2226 0004 C68F     		ldrh	r6, [r0, #62]
 2227              		.loc 1 690 1 view .LVU629
 2228 0006 82B0     		sub	sp, sp, #8
 2229              		.cfi_def_cfa_offset 24
 2230              		.loc 1 690 1 view .LVU630
 2231 0008 1B68     		ldr	r3, [r3]
 2232 000a 0193     		str	r3, [sp, #4]
 2233 000c 4FF00003 		mov	r3,#0
 2234              		.loc 1 691 2 is_stmt 1 view .LVU631
 2235              		.loc 1 692 2 view .LVU632
 2236              	.LVL217:
 2237              		.loc 1 692 14 view .LVU633
 2238              		.loc 1 692 2 is_stmt 0 view .LVU634
 2239 0010 16B3     		cbz	r6, .L212
 2240 0012 0023     		movs	r3, #0
 2241 0014 1C46     		mov	r4, r3
 2242 0016 00F11C02 		add	r2, r0, #28
 2243 001a 03E0     		b	.L217
 2244              	.LVL218:
 2245              	.L213:
 2246              		.loc 1 692 40 is_stmt 1 discriminator 2 view .LVU635
 2247              		.loc 1 692 14 discriminator 2 view .LVU636
 2248 001c 0133     		adds	r3, r3, #1
 2249              	.LVL219:
 2250              		.loc 1 692 2 is_stmt 0 discriminator 2 view .LVU637
 2251 001e 9CB2     		uxth	r4, r3
 2252 0020 A642     		cmp	r6, r4
 2253 0022 21D9     		bls	.L225
 2254              	.L217:
 2255              		.loc 1 694 3 is_stmt 1 view .LVU638
 2256              		.loc 1 694 6 is_stmt 0 view .LVU639
 2257 0024 32F8025F 		ldrh	r5, [r2, #2]!
 2258 0028 8D42     		cmp	r5, r1
 2259 002a F7D1     		bne	.L213
 2260              	.LBB101:
 2261              		.loc 1 696 4 is_stmt 1 view .LVU640
 2262              		.loc 1 698 4 view .LVU641
 2263              		.loc 1 698 24 is_stmt 0 view .LVU642
 2264 002c 721E     		subs	r2, r6, #1
 2265 002e 92B2     		uxth	r2, r2
 2266              		.loc 1 699 4 view .LVU643
 2267 0030 A242     		cmp	r2, r4
 2268              		.loc 1 698 24 view .LVU644
 2269 0032 C287     		strh	r2, [r0, #62]	@ movhi
 2270              		.loc 1 699 4 is_stmt 1 view .LVU645
 2271              	.LVL220:
 2272              		.loc 1 699 16 view .LVU646
 2273              		.loc 1 699 4 is_stmt 0 view .LVU647
 2274 0034 0FD9     		bls	.L216
 2275 0036 023E     		subs	r6, r6, #2
 2276 0038 341B     		subs	r4, r6, r4
 2277              	.LVL221:
 2278              		.loc 1 699 4 view .LVU648
 2279 003a 13FA84F4 		uxtah	r4, r3, r4
 2280 003e 00F12002 		add	r2, r0, #32
ARM GAS  /tmp/cclXoGh5.s 			page 41


 2281 0042 0F33     		adds	r3, r3, #15
 2282 0044 00EB4303 		add	r3, r0, r3, lsl #1
 2283 0048 02EB4404 		add	r4, r2, r4, lsl #1
 2284              	.L215:
 2285              		.loc 1 700 5 is_stmt 1 discriminator 3 view .LVU649
 2286              		.loc 1 700 24 is_stmt 0 discriminator 3 view .LVU650
 2287 004c 5A88     		ldrh	r2, [r3, #2]
 2288 004e 23F8022B 		strh	r2, [r3], #2	@ movhi
 2289              		.loc 1 699 42 is_stmt 1 discriminator 3 view .LVU651
 2290              		.loc 1 699 16 discriminator 3 view .LVU652
 2291              		.loc 1 699 4 is_stmt 0 discriminator 3 view .LVU653
 2292 0052 A342     		cmp	r3, r4
 2293 0054 FAD1     		bne	.L215
 2294              	.L216:
 2295              		.loc 1 701 11 view .LVU654
 2296 0056 0126     		movs	r6, #1
 2297              	.L212:
 2298              		.loc 1 701 11 view .LVU655
 2299              	.LBE101:
 2300              		.loc 1 705 1 view .LVU656
 2301 0058 054B     		ldr	r3, .L227
 2302 005a 1A68     		ldr	r2, [r3]
 2303 005c 019B     		ldr	r3, [sp, #4]
 2304 005e 5A40     		eors	r2, r3, r2
 2305 0060 04D1     		bne	.L226
 2306 0062 3046     		mov	r0, r6
 2307              	.LVL222:
 2308              		.loc 1 705 1 view .LVU657
 2309 0064 02B0     		add	sp, sp, #8
 2310              		.cfi_remember_state
 2311              		.cfi_def_cfa_offset 16
 2312              		@ sp needed
 2313 0066 70BD     		pop	{r4, r5, r6, pc}
 2314              	.LVL223:
 2315              	.L225:
 2316              		.cfi_restore_state
 2317              		.loc 1 704 9 view .LVU658
 2318 0068 0026     		movs	r6, #0
 2319 006a F5E7     		b	.L212
 2320              	.L226:
 2321              		.loc 1 705 1 view .LVU659
 2322 006c FFF7FEFF 		bl	__stack_chk_fail
 2323              	.LVL224:
 2324              	.L228:
 2325              		.loc 1 705 1 view .LVU660
 2326              		.align	2
 2327              	.L227:
 2328 0070 00000000 		.word	.LC11
 2329              		.cfi_endproc
 2330              	.LFE12:
 2331              		.size	AsebaVMClearBreakpoint, .-AsebaVMClearBreakpoint
 2332              		.section	.rodata.AsebaVMClearBreakpoints.cst4,"aM",%progbits,4
 2333              		.align	2
 2334              	.LC12:
 2335 0000 00000000 		.word	__stack_chk_guard
 2336              		.section	.text.AsebaVMClearBreakpoints,"ax",%progbits
 2337              		.align	1
ARM GAS  /tmp/cclXoGh5.s 			page 42


 2338              		.p2align 4,,15
 2339              		.global	AsebaVMClearBreakpoints
 2340              		.syntax unified
 2341              		.thumb
 2342              		.thumb_func
 2343              		.fpu fpv4-sp-d16
 2344              		.type	AsebaVMClearBreakpoints, %function
 2345              	AsebaVMClearBreakpoints:
 2346              	.LVL225:
 2347              	.LFB13:
 2348              		.loc 1 709 1 is_stmt 1 view -0
 2349              		.cfi_startproc
 2350              		@ args = 0, pretend = 0, frame = 8
 2351              		@ frame_needed = 0, uses_anonymous_args = 0
 2352              		.loc 1 709 1 is_stmt 0 view .LVU662
 2353 0000 00B5     		push	{lr}
 2354              		.cfi_def_cfa_offset 4
 2355              		.cfi_offset 14, -4
 2356 0002 094A     		ldr	r2, .L233
 2357 0004 83B0     		sub	sp, sp, #12
 2358              		.cfi_def_cfa_offset 16
 2359              		.loc 1 710 23 view .LVU663
 2360 0006 0023     		movs	r3, #0
 2361              		.loc 1 709 1 view .LVU664
 2362 0008 1268     		ldr	r2, [r2]
 2363 000a 0192     		str	r2, [sp, #4]
 2364 000c 4FF00002 		mov	r2,#0
 2365              		.loc 1 710 2 is_stmt 1 view .LVU665
 2366              		.loc 1 710 23 is_stmt 0 view .LVU666
 2367 0010 C387     		strh	r3, [r0, #62]	@ movhi
 2368              		.loc 1 711 1 view .LVU667
 2369 0012 054B     		ldr	r3, .L233
 2370 0014 1A68     		ldr	r2, [r3]
 2371 0016 019B     		ldr	r3, [sp, #4]
 2372 0018 5A40     		eors	r2, r3, r2
 2373 001a 02D1     		bne	.L232
 2374 001c 03B0     		add	sp, sp, #12
 2375              		.cfi_remember_state
 2376              		.cfi_def_cfa_offset 4
 2377              		@ sp needed
 2378 001e 5DF804FB 		ldr	pc, [sp], #4
 2379              	.L232:
 2380              		.cfi_restore_state
 2381 0022 FFF7FEFF 		bl	__stack_chk_fail
 2382              	.LVL226:
 2383              	.L234:
 2384              		.loc 1 711 1 view .LVU668
 2385 0026 00BF     		.align	2
 2386              	.L233:
 2387 0028 00000000 		.word	.LC12
 2388              		.cfi_endproc
 2389              	.LFE13:
 2390              		.size	AsebaVMClearBreakpoints, .-AsebaVMClearBreakpoints
 2391              		.section	.rodata.AsebaVMSendExecutionStateChanged.cst4,"aM",%progbits,4
 2392              		.align	2
 2393              	.LC13:
 2394 0000 00000000 		.word	__stack_chk_guard
ARM GAS  /tmp/cclXoGh5.s 			page 43


 2395              		.section	.text.AsebaVMSendExecutionStateChanged,"ax",%progbits
 2396              		.align	1
 2397              		.p2align 4,,15
 2398              		.global	AsebaVMSendExecutionStateChanged
 2399              		.syntax unified
 2400              		.thumb
 2401              		.thumb_func
 2402              		.fpu fpv4-sp-d16
 2403              		.type	AsebaVMSendExecutionStateChanged, %function
 2404              	AsebaVMSendExecutionStateChanged:
 2405              	.LVL227:
 2406              	.LFB14:
 2407              		.loc 1 715 1 is_stmt 1 view -0
 2408              		.cfi_startproc
 2409              		@ args = 0, pretend = 0, frame = 8
 2410              		@ frame_needed = 0, uses_anonymous_args = 0
 2411              		.loc 1 715 1 is_stmt 0 view .LVU670
 2412 0000 30B5     		push	{r4, r5, lr}
 2413              		.cfi_def_cfa_offset 12
 2414              		.cfi_offset 4, -12
 2415              		.cfi_offset 5, -8
 2416              		.cfi_offset 14, -4
 2417 0002 0D4A     		ldr	r2, .L239
 2418              		.loc 1 717 12 view .LVU671
 2419 0004 458B     		ldrh	r5, [r0, #26]
 2420              		.loc 1 718 12 view .LVU672
 2421 0006 048B     		ldrh	r4, [r0, #24]
 2422              		.loc 1 715 1 view .LVU673
 2423 0008 83B0     		sub	sp, sp, #12
 2424              		.cfi_def_cfa_offset 24
 2425              		.loc 1 715 1 view .LVU674
 2426 000a 1268     		ldr	r2, [r2]
 2427 000c 0192     		str	r2, [sp, #4]
 2428 000e 4FF00002 		mov	r2,#0
 2429              		.loc 1 716 2 is_stmt 1 view .LVU675
 2430              		.loc 1 717 2 view .LVU676
 2431              		.loc 1 719 2 is_stmt 0 view .LVU677
 2432 0012 0423     		movs	r3, #4
 2433 0014 6A46     		mov	r2, sp
 2434 0016 49F20A01 		movw	r1, #36874
 2435              		.loc 1 717 12 view .LVU678
 2436 001a ADF80050 		strh	r5, [sp]	@ movhi
 2437              		.loc 1 718 2 is_stmt 1 view .LVU679
 2438              		.loc 1 718 12 is_stmt 0 view .LVU680
 2439 001e ADF80240 		strh	r4, [sp, #2]	@ movhi
 2440              		.loc 1 719 2 is_stmt 1 view .LVU681
 2441 0022 FFF7FEFF 		bl	AsebaSendMessage
 2442              	.LVL228:
 2443              		.loc 1 720 1 is_stmt 0 view .LVU682
 2444 0026 044B     		ldr	r3, .L239
 2445 0028 1A68     		ldr	r2, [r3]
 2446 002a 019B     		ldr	r3, [sp, #4]
 2447 002c 5A40     		eors	r2, r3, r2
 2448 002e 01D1     		bne	.L238
 2449 0030 03B0     		add	sp, sp, #12
 2450              		.cfi_remember_state
 2451              		.cfi_def_cfa_offset 12
ARM GAS  /tmp/cclXoGh5.s 			page 44


 2452              		@ sp needed
 2453 0032 30BD     		pop	{r4, r5, pc}
 2454              	.L238:
 2455              		.cfi_restore_state
 2456 0034 FFF7FEFF 		bl	__stack_chk_fail
 2457              	.LVL229:
 2458              	.L240:
 2459              		.align	2
 2460              	.L239:
 2461 0038 00000000 		.word	.LC13
 2462              		.cfi_endproc
 2463              	.LFE14:
 2464              		.size	AsebaVMSendExecutionStateChanged, .-AsebaVMSendExecutionStateChanged
 2465              		.section	.rodata.AsebaVMDebugMessage.cst4,"aM",%progbits,4
 2466              		.align	2
 2467              	.LC14:
 2468 0000 00000000 		.word	__stack_chk_guard
 2469              		.section	.text.AsebaVMDebugMessage,"ax",%progbits
 2470              		.align	1
 2471              		.p2align 4,,15
 2472              		.global	AsebaVMDebugMessage
 2473              		.syntax unified
 2474              		.thumb
 2475              		.thumb_func
 2476              		.fpu fpv4-sp-d16
 2477              		.type	AsebaVMDebugMessage, %function
 2478              	AsebaVMDebugMessage:
 2479              	.LVL230:
 2480              	.LFB16:
 2481              		.loc 1 735 1 is_stmt 1 view -0
 2482              		.cfi_startproc
 2483              		@ args = 0, pretend = 0, frame = 16
 2484              		@ frame_needed = 0, uses_anonymous_args = 0
 2485              		.loc 1 735 1 is_stmt 0 view .LVU684
 2486 0000 70B5     		push	{r4, r5, r6, lr}
 2487              		.cfi_def_cfa_offset 16
 2488              		.cfi_offset 4, -16
 2489              		.cfi_offset 5, -12
 2490              		.cfi_offset 6, -8
 2491              		.cfi_offset 14, -4
 2492 0002 1546     		mov	r5, r2
 2493 0004 944A     		ldr	r2, .L307
 2494              	.LVL231:
 2495              		.loc 1 735 1 view .LVU685
 2496 0006 84B0     		sub	sp, sp, #16
 2497              		.cfi_def_cfa_offset 32
 2498              		.loc 1 737 5 view .LVU686
 2499 0008 B1F5204F 		cmp	r1, #40960
 2500              		.loc 1 735 1 view .LVU687
 2501 000c 1268     		ldr	r2, [r2]
 2502 000e 0392     		str	r2, [sp, #12]
 2503 0010 4FF00002 		mov	r2,#0
 2504              		.loc 1 737 2 is_stmt 1 view .LVU688
 2505              		.loc 1 737 5 is_stmt 0 view .LVU689
 2506 0014 69D0     		beq	.L304
 2507              		.loc 1 746 2 is_stmt 1 view .LVU690
 2508              		.loc 1 746 5 is_stmt 0 view .LVU691
ARM GAS  /tmp/cclXoGh5.s 			page 45


 2509 0016 4AF21102 		movw	r2, #40977
 2510 001a 9142     		cmp	r1, r2
 2511 001c 6BD0     		beq	.L305
 2512              		.loc 1 754 2 is_stmt 1 view .LVU692
 2513              		.loc 1 754 5 is_stmt 0 view .LVU693
 2514 001e 002B     		cmp	r3, #0
 2515 0020 5BD0     		beq	.L241
 2516 0022 0446     		mov	r4, r0
 2517              		.loc 1 758 2 is_stmt 1 view .LVU694
 2518              		.loc 1 758 5 is_stmt 0 view .LVU695
 2519 0024 2888     		ldrh	r0, [r5]
 2520              	.LVL232:
 2521              		.loc 1 758 5 view .LVU696
 2522 0026 2288     		ldrh	r2, [r4]
 2523 0028 9042     		cmp	r0, r2
 2524 002a 56D1     		bne	.L241
 2525              		.loc 1 761 2 is_stmt 1 view .LVU697
 2526 002c A1F52041 		sub	r1, r1, #40960
 2527              	.LVL233:
 2528              		.loc 1 761 2 is_stmt 0 view .LVU698
 2529 0030 0139     		subs	r1, r1, #1
 2530              		.loc 1 761 6 view .LVU699
 2531 0032 AA1C     		adds	r2, r5, #2
 2532              	.LVL234:
 2533              		.loc 1 762 2 is_stmt 1 view .LVU700
 2534              		.loc 1 764 2 view .LVU701
 2535 0034 0F29     		cmp	r1, #15
 2536 0036 50D8     		bhi	.L241
 2537 0038 DFE811F0 		tbh	[pc, r1, lsl #1]
 2538              	.L248:
 2539 003c 1000     		.2byte	(.L263-.L248)/2
 2540 003e 2200     		.2byte	(.L262-.L248)/2
 2541 0040 C500     		.2byte	(.L261-.L248)/2
 2542 0042 DE00     		.2byte	(.L260-.L248)/2
 2543 0044 E600     		.2byte	(.L259-.L248)/2
 2544 0046 EE00     		.2byte	(.L258-.L248)/2
 2545 0048 4200     		.2byte	(.L303-.L248)/2
 2546 004a 6B00     		.2byte	(.L256-.L248)/2
 2547 004c 9A00     		.2byte	(.L255-.L248)/2
 2548 004e 6800     		.2byte	(.L254-.L248)/2
 2549 0050 0301     		.2byte	(.L253-.L248)/2
 2550 0052 8200     		.2byte	(.L252-.L248)/2
 2551 0054 C100     		.2byte	(.L251-.L248)/2
 2552 0056 9600     		.2byte	(.L250-.L248)/2
 2553 0058 FD00     		.2byte	(.L249-.L248)/2
 2554 005a 0101     		.2byte	(.L247-.L248)/2
 2555              		.p2align 1
 2556              	.L263:
 2557              	.LBB102:
 2558              		.loc 1 768 4 view .LVU702
 2559              		.loc 1 775 4 is_stmt 0 view .LVU703
 2560 005c 022B     		cmp	r3, #2
 2561              		.loc 1 768 11 view .LVU704
 2562 005e 6988     		ldrh	r1, [r5, #2]
 2563              	.LVL235:
 2564              		.loc 1 769 4 is_stmt 1 view .LVU705
 2565              		.loc 1 770 4 view .LVU706
ARM GAS  /tmp/cclXoGh5.s 			page 46


 2566              		.loc 1 775 4 view .LVU707
 2567              		.loc 1 775 16 view .LVU708
 2568              		.loc 1 775 4 is_stmt 0 view .LVU709
 2569 0060 0ED0     		beq	.L262
 2570 0062 033B     		subs	r3, r3, #3
 2571              	.LVL236:
 2572              		.loc 1 775 4 view .LVU710
 2573 0064 C5EB4101 		rsb	r1, r5, r1, lsl #1
 2574              	.LVL237:
 2575              		.loc 1 775 4 view .LVU711
 2576 0068 9BB2     		uxth	r3, r3
 2577 006a 0435     		adds	r5, r5, #4
 2578              	.LVL238:
 2579              		.loc 1 775 4 view .LVU712
 2580 006c 8E1E     		subs	r6, r1, #2
 2581 006e 05EB4305 		add	r5, r5, r3, lsl #1
 2582              	.LVL239:
 2583              	.L265:
 2584              		.loc 1 776 5 is_stmt 1 discriminator 3 view .LVU713
 2585              		.loc 1 776 17 is_stmt 0 discriminator 3 view .LVU714
 2586 0072 B318     		adds	r3, r6, r2
 2587              		.loc 1 776 29 discriminator 3 view .LVU715
 2588 0074 32F8020F 		ldrh	r0, [r2, #2]!
 2589              		.loc 1 776 17 discriminator 3 view .LVU716
 2590 0078 6168     		ldr	r1, [r4, #4]
 2591              		.loc 1 775 4 discriminator 3 view .LVU717
 2592 007a 9542     		cmp	r5, r2
 2593              		.loc 1 776 27 discriminator 3 view .LVU718
 2594 007c C852     		strh	r0, [r1, r3]	@ movhi
 2595              		.loc 1 775 28 is_stmt 1 discriminator 3 view .LVU719
 2596              		.loc 1 775 16 discriminator 3 view .LVU720
 2597              		.loc 1 775 4 is_stmt 0 discriminator 3 view .LVU721
 2598 007e F8D1     		bne	.L265
 2599              	.LVL240:
 2600              	.L262:
 2601              		.loc 1 775 4 discriminator 3 view .LVU722
 2602              	.LBE102:
 2603              		.loc 1 781 3 is_stmt 1 view .LVU723
 2604              	.LBB103:
 2605              	.LBB104:
 2606              		.loc 1 726 2 is_stmt 0 view .LVU724
 2607 0080 6688     		ldrh	r6, [r4, #2]
 2608              	.LBE104:
 2609              	.LBE103:
 2610              		.loc 1 781 13 view .LVU725
 2611 0082 0223     		movs	r3, #2
 2612 0084 2383     		strh	r3, [r4, #24]	@ movhi
 2613              		.loc 1 782 3 is_stmt 1 view .LVU726
 2614              	.LBB107:
 2615              	.LBI103:
 2616              		.loc 1 723 13 view .LVU727
 2617              	.LVL241:
 2618              	.LBB106:
 2619              		.loc 1 726 14 view .LVU728
 2620              		.loc 1 726 2 is_stmt 0 view .LVU729
 2621 0086 0023     		movs	r3, #0
 2622 0088 7EB1     		cbz	r6, .L271
ARM GAS  /tmp/cclXoGh5.s 			page 47


 2623              	.LVL242:
 2624              	.L267:
 2625              	.LBB105:
 2626              		.loc 1 728 3 is_stmt 1 view .LVU730
 2627              		.loc 1 728 33 is_stmt 0 view .LVU731
 2628 008a 6168     		ldr	r1, [r4, #4]
 2629 008c 98B2     		uxth	r0, r3
 2630              		.loc 1 728 10 view .LVU732
 2631 008e 31F81020 		ldrh	r2, [r1, r0, lsl #1]
 2632              	.LVL243:
 2633              		.loc 1 729 3 is_stmt 1 view .LVU733
 2634              		.loc 1 729 6 is_stmt 0 view .LVU734
 2635 0092 150B     		lsrs	r5, r2, #12
 2636 0094 0A2D     		cmp	r5, #10
 2637 0096 04D1     		bne	.L270
 2638              		.loc 1 730 4 is_stmt 1 view .LVU735
 2639 0098 22F40072 		bic	r2, r2, #512
 2640              	.LVL244:
 2641              		.loc 1 730 4 is_stmt 0 view .LVU736
 2642 009c 21F81020 		strh	r2, [r1, r0, lsl #1]	@ movhi
 2643              	.LVL245:
 2644              		.loc 1 730 4 view .LVU737
 2645 00a0 6688     		ldrh	r6, [r4, #2]
 2646              	.L270:
 2647              	.LBE105:
 2648              		.loc 1 726 36 is_stmt 1 view .LVU738
 2649              	.LVL246:
 2650              		.loc 1 726 14 view .LVU739
 2651 00a2 0133     		adds	r3, r3, #1
 2652              	.LVL247:
 2653              		.loc 1 726 2 is_stmt 0 view .LVU740
 2654 00a4 9AB2     		uxth	r2, r3
 2655 00a6 9642     		cmp	r6, r2
 2656 00a8 EFD8     		bhi	.L267
 2657              	.LVL248:
 2658              	.L271:
 2659              		.loc 1 726 2 view .LVU741
 2660              	.LBE106:
 2661              	.LBE107:
 2662              		.loc 1 783 3 is_stmt 1 view .LVU742
 2663              		.loc 1 783 6 is_stmt 0 view .LVU743
 2664 00aa 6C4B     		ldr	r3, .L307+4
 2665 00ac 13B1     		cbz	r3, .L269
 2666              		.loc 1 784 4 is_stmt 1 view .LVU744
 2667 00ae 2046     		mov	r0, r4
 2668 00b0 FFF7FEFF 		bl	AsebaVMResetCB
 2669              	.LVL249:
 2670              	.L269:
 2671              		.loc 1 786 3 view .LVU745
 2672              		.loc 1 786 7 is_stmt 0 view .LVU746
 2673 00b4 4FF6FF71 		movw	r1, #65535
 2674 00b8 2046     		mov	r0, r4
 2675 00ba FFF7FEFF 		bl	AsebaVMSetupEvent
 2676              	.LVL250:
 2677              		.loc 1 786 6 view .LVU747
 2678 00be 60B9     		cbnz	r0, .L241
 2679              	.LVL251:
ARM GAS  /tmp/cclXoGh5.s 			page 48


 2680              	.L303:
 2681              		.loc 1 806 4 is_stmt 1 view .LVU748
 2682              	.LBB108:
 2683              	.LBI108:
 2684              		.loc 1 714 6 view .LVU749
 2685              	.LBB109:
 2686              		.loc 1 716 2 view .LVU750
 2687              		.loc 1 717 2 view .LVU751
 2688              		.loc 1 717 12 is_stmt 0 view .LVU752
 2689 00c0 638B     		ldrh	r3, [r4, #26]
 2690              		.loc 1 718 12 view .LVU753
 2691 00c2 258B     		ldrh	r5, [r4, #24]
 2692              		.loc 1 717 12 view .LVU754
 2693 00c4 ADF80830 		strh	r3, [sp, #8]	@ movhi
 2694              		.loc 1 718 2 is_stmt 1 view .LVU755
 2695              	.LVL252:
 2696              	.L302:
 2697              		.loc 1 718 2 is_stmt 0 view .LVU756
 2698              	.LBE109:
 2699              	.LBE108:
 2700              		.loc 1 799 3 is_stmt 1 view .LVU757
 2701              	.LBB110:
 2702              	.LBI110:
 2703              		.loc 1 714 6 view .LVU758
 2704              	.LBB111:
 2705              		.loc 1 716 2 view .LVU759
 2706              		.loc 1 717 2 view .LVU760
 2707              		.loc 1 718 2 view .LVU761
 2708              		.loc 1 719 2 is_stmt 0 view .LVU762
 2709 00c8 2046     		mov	r0, r4
 2710 00ca 0423     		movs	r3, #4
 2711 00cc 02AA     		add	r2, sp, #8
 2712 00ce 49F20A01 		movw	r1, #36874
 2713              		.loc 1 718 12 view .LVU763
 2714 00d2 ADF80A50 		strh	r5, [sp, #10]	@ movhi
 2715              		.loc 1 719 2 is_stmt 1 view .LVU764
 2716 00d6 FFF7FEFF 		bl	AsebaSendMessage
 2717              	.LVL253:
 2718              	.L241:
 2719              		.loc 1 719 2 is_stmt 0 view .LVU765
 2720              	.LBE111:
 2721              	.LBE110:
 2722              		.loc 1 881 1 view .LVU766
 2723 00da 5F4B     		ldr	r3, .L307
 2724 00dc 1A68     		ldr	r2, [r3]
 2725 00de 039B     		ldr	r3, [sp, #12]
 2726 00e0 5A40     		eors	r2, r3, r2
 2727 00e2 40F0B680 		bne	.L306
 2728 00e6 04B0     		add	sp, sp, #16
 2729              		.cfi_remember_state
 2730              		.cfi_def_cfa_offset 16
 2731              		@ sp needed
 2732 00e8 70BD     		pop	{r4, r5, r6, pc}
 2733              	.LVL254:
 2734              	.L304:
 2735              		.cfi_restore_state
 2736              	.LBB113:
ARM GAS  /tmp/cclXoGh5.s 			page 49


 2737              		.loc 1 739 3 is_stmt 1 view .LVU767
 2738              		.loc 1 741 3 view .LVU768
 2739              		.loc 1 741 6 is_stmt 0 view .LVU769
 2740 00ea 2B88     		ldrh	r3, [r5]
 2741              	.LVL255:
 2742              		.loc 1 741 6 view .LVU770
 2743 00ec 042B     		cmp	r3, #4
 2744 00ee F4D8     		bhi	.L241
 2745              	.LVL256:
 2746              	.L301:
 2747              		.loc 1 741 6 view .LVU771
 2748              	.LBE113:
 2749              		.loc 1 875 3 view .LVU772
 2750 00f0 FFF7FEFF 		bl	AsebaSendDescription
 2751              	.LVL257:
 2752              		.loc 1 876 3 is_stmt 1 view .LVU773
 2753 00f4 F1E7     		b	.L241
 2754              	.LVL258:
 2755              	.L305:
 2756              	.LBB114:
 2757              		.loc 1 748 3 view .LVU774
 2758              		.loc 1 748 16 is_stmt 0 view .LVU775
 2759 00f6 0524     		movs	r4, #5
 2760              		.loc 1 749 3 view .LVU776
 2761 00f8 0223     		movs	r3, #2
 2762              	.LVL259:
 2763              		.loc 1 749 3 view .LVU777
 2764 00fa 0DF10602 		add	r2, sp, #6
 2765 00fe 49F20C01 		movw	r1, #36876
 2766              	.LVL260:
 2767              		.loc 1 748 16 view .LVU778
 2768 0102 ADF80640 		strh	r4, [sp, #6]	@ movhi
 2769              		.loc 1 749 3 is_stmt 1 view .LVU779
 2770 0106 FFF7FEFF 		bl	AsebaSendMessage
 2771              	.LVL261:
 2772              		.loc 1 750 3 view .LVU780
 2773 010a E6E7     		b	.L241
 2774              	.LVL262:
 2775              	.L254:
 2776              		.loc 1 750 3 is_stmt 0 view .LVU781
 2777              	.LBE114:
 2778              		.loc 1 833 3 is_stmt 1 view .LVU782
 2779              	.LBB115:
 2780              	.LBI115:
 2781              		.loc 1 708 6 view .LVU783
 2782              	.LBB116:
 2783              		.loc 1 710 2 view .LVU784
 2784              		.loc 1 710 23 is_stmt 0 view .LVU785
 2785 010c 0023     		movs	r3, #0
 2786              	.LVL263:
 2787              		.loc 1 710 23 view .LVU786
 2788 010e E387     		strh	r3, [r4, #62]	@ movhi
 2789              		.loc 1 711 1 view .LVU787
 2790 0110 E3E7     		b	.L241
 2791              	.LVL264:
 2792              	.L256:
 2793              		.loc 1 711 1 view .LVU788
ARM GAS  /tmp/cclXoGh5.s 			page 50


 2794              	.LBE116:
 2795              	.LBE115:
 2796              	.LBB117:
 2797              		.loc 1 821 4 is_stmt 1 discriminator 5 view .LVU789
 2798              		.loc 1 822 4 discriminator 5 view .LVU790
 2799              	.LBB118:
 2800              	.LBB119:
 2801              		.loc 1 679 8 is_stmt 0 discriminator 5 view .LVU791
 2802 0112 E38F     		ldrh	r3, [r4, #62]
 2803              	.LVL265:
 2804              		.loc 1 679 8 discriminator 5 view .LVU792
 2805              	.LBE119:
 2806              	.LBE118:
 2807              		.loc 1 822 16 discriminator 5 view .LVU793
 2808 0114 6A88     		ldrh	r2, [r5, #2]
 2809              	.LVL266:
 2810              		.loc 1 822 14 discriminator 5 view .LVU794
 2811 0116 ADF80820 		strh	r2, [sp, #8]	@ movhi
 2812              		.loc 1 823 4 is_stmt 1 discriminator 5 view .LVU795
 2813              	.LVL267:
 2814              	.LBB122:
 2815              	.LBI118:
 2816              		.loc 1 672 7 discriminator 5 view .LVU796
 2817              	.LBB120:
 2818              		.loc 1 679 2 discriminator 5 view .LVU797
 2819              		.loc 1 679 5 is_stmt 0 discriminator 5 view .LVU798
 2820 011a 0F2B     		cmp	r3, #15
 2821 011c 00F29780 		bhi	.L279
 2822              		.loc 1 681 3 is_stmt 1 view .LVU799
 2823              		.loc 1 681 43 is_stmt 0 view .LVU800
 2824 0120 04EB4301 		add	r1, r4, r3, lsl #1
 2825              		.loc 1 681 39 view .LVU801
 2826 0124 0133     		adds	r3, r3, #1
 2827 0126 E387     		strh	r3, [r4, #62]	@ movhi
 2828              		.loc 1 682 10 view .LVU802
 2829 0128 0125     		movs	r5, #1
 2830              	.LVL268:
 2831              		.loc 1 681 43 view .LVU803
 2832 012a CA83     		strh	r2, [r1, #30]	@ movhi
 2833              		.loc 1 682 3 is_stmt 1 view .LVU804
 2834              	.L272:
 2835              	.LVL269:
 2836              		.loc 1 682 3 is_stmt 0 view .LVU805
 2837              	.LBE120:
 2838              	.LBE122:
 2839              		.loc 1 824 4 view .LVU806
 2840 012c 2046     		mov	r0, r4
 2841 012e 0423     		movs	r3, #4
 2842 0130 02AA     		add	r2, sp, #8
 2843 0132 49F20B01 		movw	r1, #36875
 2844              		.loc 1 823 14 view .LVU807
 2845 0136 ADF80A50 		strh	r5, [sp, #10]	@ movhi
 2846              		.loc 1 824 4 is_stmt 1 view .LVU808
 2847 013a FFF7FEFF 		bl	AsebaSendMessage
 2848              	.LVL270:
 2849              	.LBE117:
 2850              		.loc 1 826 3 view .LVU809
ARM GAS  /tmp/cclXoGh5.s 			page 51


 2851 013e CCE7     		b	.L241
 2852              	.LVL271:
 2853              	.L252:
 2854              	.LBB124:
 2855              		.loc 1 850 4 view .LVU810
 2856              		.loc 1 857 4 is_stmt 0 view .LVU811
 2857 0140 022B     		cmp	r3, #2
 2858              		.loc 1 850 11 view .LVU812
 2859 0142 6988     		ldrh	r1, [r5, #2]
 2860              	.LVL272:
 2861              		.loc 1 851 4 is_stmt 1 view .LVU813
 2862              		.loc 1 852 4 view .LVU814
 2863              		.loc 1 857 4 view .LVU815
 2864              		.loc 1 857 16 view .LVU816
 2865              		.loc 1 857 4 is_stmt 0 view .LVU817
 2866 0144 C9D0     		beq	.L241
 2867 0146 033B     		subs	r3, r3, #3
 2868              	.LVL273:
 2869              		.loc 1 857 4 view .LVU818
 2870 0148 281D     		adds	r0, r5, #4
 2871 014a 9BB2     		uxth	r3, r3
 2872 014c C5EB4105 		rsb	r5, r5, r1, lsl #1
 2873 0150 00EB4300 		add	r0, r0, r3, lsl #1
 2874              	.LVL274:
 2875              	.L276:
 2876              		.loc 1 858 5 is_stmt 1 discriminator 3 view .LVU819
 2877              		.loc 1 858 28 is_stmt 0 discriminator 3 view .LVU820
 2878 0154 E368     		ldr	r3, [r4, #12]
 2879 0156 2B44     		add	r3, r3, r5
 2880 0158 1344     		add	r3, r3, r2
 2881 015a 32F8021F 		ldrh	r1, [r2, #2]!
 2882 015e 23F8021C 		strh	r1, [r3, #-2]	@ movhi
 2883              		.loc 1 857 28 is_stmt 1 discriminator 3 view .LVU821
 2884              		.loc 1 857 16 discriminator 3 view .LVU822
 2885              		.loc 1 857 4 is_stmt 0 discriminator 3 view .LVU823
 2886 0162 8242     		cmp	r2, r0
 2887 0164 F6D1     		bne	.L276
 2888 0166 B8E7     		b	.L241
 2889              	.LVL275:
 2890              	.L250:
 2891              		.loc 1 857 4 discriminator 3 view .LVU824
 2892              	.LBE124:
 2893              		.loc 1 867 3 is_stmt 1 view .LVU825
 2894 0168 2046     		mov	r0, r4
 2895 016a FFF7FEFF 		bl	AsebaResetIntoBootloader
 2896              	.LVL276:
 2897              		.loc 1 868 3 view .LVU826
 2898 016e B4E7     		b	.L241
 2899              	.LVL277:
 2900              	.L255:
 2901              		.loc 1 829 3 view .LVU827
 2902              	.LBB125:
 2903              	.LBB126:
 2904              		.loc 1 692 20 is_stmt 0 view .LVU828
 2905 0170 E68F     		ldrh	r6, [r4, #62]
 2906              	.LBE126:
 2907              	.LBE125:
ARM GAS  /tmp/cclXoGh5.s 			page 52


 2908              		.loc 1 829 3 view .LVU829
 2909 0172 6D88     		ldrh	r5, [r5, #2]
 2910              	.LVL278:
 2911              	.LBB129:
 2912              	.LBI125:
 2913              		.loc 1 689 8 is_stmt 1 view .LVU830
 2914              	.LBB128:
 2915              		.loc 1 691 2 view .LVU831
 2916              		.loc 1 692 2 view .LVU832
 2917              		.loc 1 692 14 view .LVU833
 2918              		.loc 1 692 2 is_stmt 0 view .LVU834
 2919 0174 002E     		cmp	r6, #0
 2920 0176 B0D0     		beq	.L241
 2921 0178 0023     		movs	r3, #0
 2922              	.LVL279:
 2923              		.loc 1 692 2 view .LVU835
 2924 017a 1946     		mov	r1, r3
 2925 017c 04F11C02 		add	r2, r4, #28
 2926              	.LVL280:
 2927              		.loc 1 692 2 view .LVU836
 2928 0180 03E0     		b	.L275
 2929              	.LVL281:
 2930              	.L273:
 2931              		.loc 1 692 40 is_stmt 1 view .LVU837
 2932              		.loc 1 692 14 view .LVU838
 2933 0182 0133     		adds	r3, r3, #1
 2934              	.LVL282:
 2935              		.loc 1 692 2 is_stmt 0 view .LVU839
 2936 0184 99B2     		uxth	r1, r3
 2937 0186 8E42     		cmp	r6, r1
 2938 0188 A7D9     		bls	.L241
 2939              	.L275:
 2940              		.loc 1 694 3 is_stmt 1 view .LVU840
 2941              		.loc 1 694 6 is_stmt 0 view .LVU841
 2942 018a 32F8020F 		ldrh	r0, [r2, #2]!
 2943 018e A842     		cmp	r0, r5
 2944 0190 F7D1     		bne	.L273
 2945              	.LBB127:
 2946              		.loc 1 696 4 is_stmt 1 view .LVU842
 2947              		.loc 1 698 4 view .LVU843
 2948              		.loc 1 698 24 is_stmt 0 view .LVU844
 2949 0192 721E     		subs	r2, r6, #1
 2950 0194 92B2     		uxth	r2, r2
 2951              		.loc 1 699 4 view .LVU845
 2952 0196 8A42     		cmp	r2, r1
 2953              		.loc 1 698 24 view .LVU846
 2954 0198 E287     		strh	r2, [r4, #62]	@ movhi
 2955              		.loc 1 699 4 is_stmt 1 view .LVU847
 2956              	.LVL283:
 2957              		.loc 1 699 16 view .LVU848
 2958              		.loc 1 699 4 is_stmt 0 view .LVU849
 2959 019a 9ED9     		bls	.L241
 2960 019c B21E     		subs	r2, r6, #2
 2961 019e 521A     		subs	r2, r2, r1
 2962 01a0 13FA82F2 		uxtah	r2, r3, r2
 2963 01a4 04F12001 		add	r1, r4, #32
 2964              	.LVL284:
ARM GAS  /tmp/cclXoGh5.s 			page 53


 2965              		.loc 1 699 4 view .LVU850
 2966 01a8 0F33     		adds	r3, r3, #15
 2967 01aa 04EB4304 		add	r4, r4, r3, lsl #1
 2968              	.LVL285:
 2969              		.loc 1 699 4 view .LVU851
 2970 01ae 01EB4202 		add	r2, r1, r2, lsl #1
 2971              	.L274:
 2972              		.loc 1 700 5 is_stmt 1 view .LVU852
 2973              		.loc 1 700 24 is_stmt 0 view .LVU853
 2974 01b2 6388     		ldrh	r3, [r4, #2]
 2975 01b4 24F8023B 		strh	r3, [r4], #2	@ movhi
 2976              		.loc 1 699 42 is_stmt 1 view .LVU854
 2977              		.loc 1 699 16 view .LVU855
 2978              		.loc 1 699 4 is_stmt 0 view .LVU856
 2979 01b8 A242     		cmp	r2, r4
 2980 01ba FAD1     		bne	.L274
 2981 01bc 8DE7     		b	.L241
 2982              	.LVL286:
 2983              	.L251:
 2984              		.loc 1 699 4 view .LVU857
 2985              	.LBE127:
 2986              	.LBE128:
 2987              	.LBE129:
 2988              		.loc 1 863 3 is_stmt 1 view .LVU858
 2989 01be 2046     		mov	r0, r4
 2990 01c0 FFF7FEFF 		bl	AsebaWriteBytecode
 2991              	.LVL287:
 2992              		.loc 1 864 3 view .LVU859
 2993 01c4 89E7     		b	.L241
 2994              	.LVL288:
 2995              	.L261:
 2996              		.loc 1 791 3 view .LVU860
 2997 01c6 258B     		ldrh	r5, [r4, #24]
 2998              	.LBB130:
 2999              	.LBB131:
 3000              		.loc 1 717 12 is_stmt 0 view .LVU861
 3001 01c8 638B     		ldrh	r3, [r4, #26]
 3002              	.LVL289:
 3003              		.loc 1 717 12 view .LVU862
 3004 01ca ADF80830 		strh	r3, [sp, #8]	@ movhi
 3005              	.LBE131:
 3006              	.LBE130:
 3007              		.loc 1 791 3 view .LVU863
 3008 01ce 25F00205 		bic	r5, r5, #2
 3009 01d2 ADB2     		uxth	r5, r5
 3010              	.LBB134:
 3011              	.LBB132:
 3012              		.loc 1 719 2 view .LVU864
 3013 01d4 0423     		movs	r3, #4
 3014              	.LBE132:
 3015              	.LBE134:
 3016              		.loc 1 791 3 view .LVU865
 3017 01d6 2583     		strh	r5, [r4, #24]	@ movhi
 3018              		.loc 1 792 3 is_stmt 1 view .LVU866
 3019              	.LVL290:
 3020              	.LBB135:
 3021              	.LBI130:
ARM GAS  /tmp/cclXoGh5.s 			page 54


 3022              		.loc 1 714 6 view .LVU867
 3023              	.LBB133:
 3024              		.loc 1 716 2 view .LVU868
 3025              		.loc 1 717 2 view .LVU869
 3026              		.loc 1 718 2 view .LVU870
 3027              		.loc 1 719 2 is_stmt 0 view .LVU871
 3028 01d8 02AA     		add	r2, sp, #8
 3029              	.LVL291:
 3030              		.loc 1 719 2 view .LVU872
 3031 01da 49F20A01 		movw	r1, #36874
 3032 01de 2046     		mov	r0, r4
 3033              		.loc 1 718 12 view .LVU873
 3034 01e0 ADF80A50 		strh	r5, [sp, #10]	@ movhi
 3035              		.loc 1 719 2 is_stmt 1 view .LVU874
 3036 01e4 FFF7FEFF 		bl	AsebaSendMessage
 3037              	.LVL292:
 3038              		.loc 1 719 2 is_stmt 0 view .LVU875
 3039              	.LBE133:
 3040              	.LBE135:
 3041              		.loc 1 793 3 is_stmt 1 view .LVU876
 3042              		.loc 1 793 6 is_stmt 0 view .LVU877
 3043 01e8 1D4B     		ldr	r3, .L307+8
 3044 01ea 002B     		cmp	r3, #0
 3045 01ec 3FF475AF 		beq	.L241
 3046              		.loc 1 794 4 is_stmt 1 view .LVU878
 3047 01f0 2046     		mov	r0, r4
 3048 01f2 FFF7FEFF 		bl	AsebaVMRunCB
 3049              	.LVL293:
 3050 01f6 70E7     		b	.L241
 3051              	.LVL294:
 3052              	.L260:
 3053              		.loc 1 798 3 view .LVU879
 3054 01f8 258B     		ldrh	r5, [r4, #24]
 3055              	.LBB136:
 3056              	.LBB112:
 3057              		.loc 1 717 12 is_stmt 0 view .LVU880
 3058 01fa 638B     		ldrh	r3, [r4, #26]
 3059              	.LVL295:
 3060              		.loc 1 717 12 view .LVU881
 3061 01fc ADF80830 		strh	r3, [sp, #8]	@ movhi
 3062              	.LBE112:
 3063              	.LBE136:
 3064              		.loc 1 798 3 view .LVU882
 3065 0200 45F00205 		orr	r5, r5, #2
 3066 0204 2583     		strh	r5, [r4, #24]	@ movhi
 3067 0206 5FE7     		b	.L302
 3068              	.LVL296:
 3069              	.L259:
 3070              		.loc 1 803 3 is_stmt 1 view .LVU883
 3071              		.loc 1 803 6 is_stmt 0 view .LVU884
 3072 0208 238B     		ldrh	r3, [r4, #24]
 3073              	.LVL297:
 3074              		.loc 1 803 6 view .LVU885
 3075 020a DB07     		lsls	r3, r3, #31
 3076 020c 7FF565AF 		bpl	.L241
 3077              		.loc 1 805 4 is_stmt 1 view .LVU886
 3078 0210 2046     		mov	r0, r4
ARM GAS  /tmp/cclXoGh5.s 			page 55


 3079 0212 FFF7FEFF 		bl	AsebaVMStep
 3080              	.LVL298:
 3081              		.loc 1 805 4 is_stmt 0 view .LVU887
 3082 0216 53E7     		b	.L303
 3083              	.LVL299:
 3084              	.L258:
 3085              		.loc 1 811 3 is_stmt 1 view .LVU888
 3086              		.loc 1 811 13 is_stmt 0 view .LVU889
 3087 0218 0223     		movs	r3, #2
 3088              	.LVL300:
 3089              	.LBB137:
 3090              	.LBB138:
 3091              		.loc 1 717 12 view .LVU890
 3092 021a 658B     		ldrh	r5, [r4, #26]
 3093              	.LBE138:
 3094              	.LBE137:
 3095              		.loc 1 811 13 view .LVU891
 3096 021c 2383     		strh	r3, [r4, #24]	@ movhi
 3097              		.loc 1 812 3 is_stmt 1 view .LVU892
 3098              	.LVL301:
 3099              	.LBB140:
 3100              	.LBI137:
 3101              		.loc 1 714 6 view .LVU893
 3102              	.LBB139:
 3103              		.loc 1 716 2 view .LVU894
 3104              		.loc 1 717 2 view .LVU895
 3105              		.loc 1 718 12 is_stmt 0 view .LVU896
 3106 021e ADF80A30 		strh	r3, [sp, #10]	@ movhi
 3107              		.loc 1 719 2 view .LVU897
 3108 0222 2046     		mov	r0, r4
 3109 0224 0423     		movs	r3, #4
 3110 0226 02AA     		add	r2, sp, #8
 3111              	.LVL302:
 3112              		.loc 1 719 2 view .LVU898
 3113 0228 49F20A01 		movw	r1, #36874
 3114              		.loc 1 717 12 view .LVU899
 3115 022c ADF80850 		strh	r5, [sp, #8]	@ movhi
 3116              		.loc 1 718 2 is_stmt 1 view .LVU900
 3117              		.loc 1 719 2 view .LVU901
 3118 0230 FFF7FEFF 		bl	AsebaSendMessage
 3119              	.LVL303:
 3120              		.loc 1 720 1 is_stmt 0 view .LVU902
 3121 0234 51E7     		b	.L241
 3122              	.LVL304:
 3123              	.L249:
 3124              		.loc 1 720 1 view .LVU903
 3125              	.LBE139:
 3126              	.LBE140:
 3127              		.loc 1 871 3 is_stmt 1 view .LVU904
 3128 0236 2046     		mov	r0, r4
 3129 0238 FFF7FEFF 		bl	AsebaPutVmToSleep
 3130              	.LVL305:
 3131              		.loc 1 872 3 view .LVU905
 3132 023c 4DE7     		b	.L241
 3133              	.LVL306:
 3134              	.L247:
 3135              		.loc 1 875 3 view .LVU906
ARM GAS  /tmp/cclXoGh5.s 			page 56


 3136 023e 2046     		mov	r0, r4
 3137 0240 56E7     		b	.L301
 3138              	.L253:
 3139              	.LBB141:
 3140              		.loc 1 838 4 view .LVU907
 3141              	.LVL307:
 3142              		.loc 1 839 4 view .LVU908
 3143              		.loc 1 844 4 view .LVU909
 3144 0242 AA88     		ldrh	r2, [r5, #4]
 3145              	.LVL308:
 3146              		.loc 1 844 4 is_stmt 0 view .LVU910
 3147 0244 6988     		ldrh	r1, [r5, #2]
 3148 0246 2046     		mov	r0, r4
 3149 0248 FFF7FEFF 		bl	AsebaSendVariables
 3150              	.LVL309:
 3151              		.loc 1 844 4 view .LVU911
 3152              	.LBE141:
 3153              		.loc 1 846 3 is_stmt 1 view .LVU912
 3154 024c 45E7     		b	.L241
 3155              	.LVL310:
 3156              	.L279:
 3157              	.LBB142:
 3158              	.LBB123:
 3159              	.LBB121:
 3160              		.loc 1 846 3 is_stmt 0 view .LVU913
 3161 024e 0025     		movs	r5, #0
 3162              	.LVL311:
 3163              		.loc 1 846 3 view .LVU914
 3164 0250 6CE7     		b	.L272
 3165              	.LVL312:
 3166              	.L306:
 3167              		.loc 1 846 3 view .LVU915
 3168              	.LBE121:
 3169              	.LBE123:
 3170              	.LBE142:
 3171              		.loc 1 881 1 view .LVU916
 3172 0252 FFF7FEFF 		bl	__stack_chk_fail
 3173              	.LVL313:
 3174              	.L308:
 3175 0256 00BF     		.align	2
 3176              	.L307:
 3177 0258 00000000 		.word	.LC14
 3178 025c 00000000 		.word	AsebaVMResetCB
 3179 0260 00000000 		.word	AsebaVMRunCB
 3180              		.cfi_endproc
 3181              	.LFE16:
 3182              		.size	AsebaVMDebugMessage, .-AsebaVMDebugMessage
 3183              		.section	.rodata.AsebaVMShouldDropPacket.cst4,"aM",%progbits,4
 3184              		.align	2
 3185              	.LC15:
 3186 0000 00000000 		.word	__stack_chk_guard
 3187              		.section	.text.AsebaVMShouldDropPacket,"ax",%progbits
 3188              		.align	1
 3189              		.p2align 4,,15
 3190              		.global	AsebaVMShouldDropPacket
 3191              		.syntax unified
 3192              		.thumb
ARM GAS  /tmp/cclXoGh5.s 			page 57


 3193              		.thumb_func
 3194              		.fpu fpv4-sp-d16
 3195              		.type	AsebaVMShouldDropPacket, %function
 3196              	AsebaVMShouldDropPacket:
 3197              	.LVL314:
 3198              	.LFB17:
 3199              		.loc 1 884 1 is_stmt 1 view -0
 3200              		.cfi_startproc
 3201              		@ args = 0, pretend = 0, frame = 8
 3202              		@ frame_needed = 0, uses_anonymous_args = 0
 3203              		.loc 1 884 1 is_stmt 0 view .LVU918
 3204 0000 10B5     		push	{r4, lr}
 3205              		.cfi_def_cfa_offset 8
 3206              		.cfi_offset 4, -8
 3207              		.cfi_offset 14, -4
 3208              		.loc 1 887 5 view .LVU919
 3209 0002 B2F90030 		ldrsh	r3, [r2]
 3210              		.loc 1 884 1 view .LVU920
 3211 0006 1C49     		ldr	r1, .L325
 3212              	.LVL315:
 3213              		.loc 1 884 1 view .LVU921
 3214 0008 82B0     		sub	sp, sp, #8
 3215              		.cfi_def_cfa_offset 16
 3216              		.loc 1 887 5 view .LVU922
 3217 000a 002B     		cmp	r3, #0
 3218              		.loc 1 884 1 view .LVU923
 3219 000c 0968     		ldr	r1, [r1]
 3220 000e 0191     		str	r1, [sp, #4]
 3221 0010 4FF00001 		mov	r1,#0
 3222              		.loc 1 885 2 is_stmt 1 view .LVU924
 3223              		.loc 1 885 22 view .LVU925
 3224              		.loc 1 886 2 view .LVU926
 3225              		.loc 1 886 9 is_stmt 0 view .LVU927
 3226 0014 1188     		ldrh	r1, [r2]
 3227              	.LVL316:
 3228              		.loc 1 887 2 is_stmt 1 view .LVU928
 3229              		.loc 1 887 5 is_stmt 0 view .LVU929
 3230 0016 15DA     		bge	.L322
 3231              		.loc 1 892 7 is_stmt 1 view .LVU930
 3232              		.loc 1 892 10 is_stmt 0 view .LVU931
 3233 0018 B1F5204F 		cmp	r1, #40960
 3234 001c 07D2     		bcs	.L323
 3235              	.LVL317:
 3236              	.L317:
 3237              		.loc 1 903 9 view .LVU932
 3238 001e 0120     		movs	r0, #1
 3239              	.L314:
 3240              		.loc 1 904 1 view .LVU933
 3241 0020 154B     		ldr	r3, .L325
 3242 0022 1A68     		ldr	r2, [r3]
 3243 0024 019B     		ldr	r3, [sp, #4]
 3244 0026 5A40     		eors	r2, r3, r2
 3245 0028 23D1     		bne	.L324
 3246 002a 02B0     		add	sp, sp, #8
 3247              		.cfi_remember_state
 3248              		.cfi_def_cfa_offset 8
 3249              		@ sp needed
ARM GAS  /tmp/cclXoGh5.s 			page 58


 3250 002c 10BD     		pop	{r4, pc}
 3251              	.LVL318:
 3252              	.L323:
 3253              		.cfi_restore_state
 3254              	.LBB143:
 3255              		.loc 1 895 3 is_stmt 1 view .LVU934
 3256              		.loc 1 896 3 view .LVU935
 3257              		.loc 1 896 6 is_stmt 0 view .LVU936
 3258 002e 1ED0     		beq	.L319
 3259              		.loc 1 896 47 discriminator 1 view .LVU937
 3260 0030 4AF21103 		movw	r3, #40977
 3261 0034 9942     		cmp	r1, r3
 3262 0036 1AD0     		beq	.L319
 3263              		.loc 1 901 3 is_stmt 1 view .LVU938
 3264              		.loc 1 901 15 is_stmt 0 view .LVU939
 3265 0038 0088     		ldrh	r0, [r0]
 3266              	.LVL319:
 3267              		.loc 1 901 15 view .LVU940
 3268 003a 5388     		ldrh	r3, [r2, #2]
 3269 003c C01A     		subs	r0, r0, r3
 3270 003e 18BF     		it	ne
 3271 0040 0120     		movne	r0, #1
 3272 0042 EDE7     		b	.L314
 3273              	.LVL320:
 3274              	.L322:
 3275              		.loc 1 901 15 view .LVU941
 3276              	.LBE143:
 3277              		.loc 1 890 3 is_stmt 1 view .LVU942
 3278              	.LBB144:
 3279              	.LBI144:
 3280              		.loc 1 55 8 view .LVU943
 3281              	.LBB145:
 3282              		.loc 1 57 2 view .LVU944
 3283              		.loc 1 57 29 is_stmt 0 view .LVU945
 3284 0044 4068     		ldr	r0, [r0, #4]
 3285              	.LVL321:
 3286              		.loc 1 57 9 view .LVU946
 3287 0046 0488     		ldrh	r4, [r0]
 3288              	.LVL322:
 3289              		.loc 1 58 2 is_stmt 1 view .LVU947
 3290              		.loc 1 61 2 view .LVU948
 3291              		.loc 1 61 14 view .LVU949
 3292              		.loc 1 61 2 is_stmt 0 view .LVU950
 3293 0048 012C     		cmp	r4, #1
 3294 004a E8D9     		bls	.L317
 3295 004c 0123     		movs	r3, #1
 3296 004e 03E0     		b	.L313
 3297              	.LVL323:
 3298              	.L312:
 3299              		.loc 1 61 35 is_stmt 1 view .LVU951
 3300              		.loc 1 61 14 view .LVU952
 3301 0050 0233     		adds	r3, r3, #2
 3302              	.LVL324:
 3303              		.loc 1 61 2 is_stmt 0 view .LVU953
 3304 0052 9AB2     		uxth	r2, r3
 3305 0054 9442     		cmp	r4, r2
 3306 0056 E2D9     		bls	.L317
ARM GAS  /tmp/cclXoGh5.s 			page 59


 3307              	.L313:
 3308              	.LVL325:
 3309              		.loc 1 62 3 is_stmt 1 view .LVU954
 3310              		.loc 1 62 6 is_stmt 0 view .LVU955
 3311 0058 30F81320 		ldrh	r2, [r0, r3, lsl #1]
 3312 005c 8A42     		cmp	r2, r1
 3313 005e F7D1     		bne	.L312
 3314              		.loc 1 63 4 is_stmt 1 view .LVU956
 3315              		.loc 1 63 23 is_stmt 0 view .LVU957
 3316 0060 0133     		adds	r3, r3, #1
 3317              	.LVL326:
 3318              		.loc 1 63 23 view .LVU958
 3319 0062 30F81300 		ldrh	r0, [r0, r3, lsl #1]
 3320 0066 B0FA80F0 		clz	r0, r0
 3321 006a 4009     		lsrs	r0, r0, #5
 3322 006c D8E7     		b	.L314
 3323              	.LVL327:
 3324              	.L319:
 3325              		.loc 1 63 23 view .LVU959
 3326              	.LBE145:
 3327              	.LBE144:
 3328              	.LBB146:
 3329              		.loc 1 898 11 view .LVU960
 3330 006e 0020     		movs	r0, #0
 3331              	.LVL328:
 3332              		.loc 1 898 11 view .LVU961
 3333 0070 D6E7     		b	.L314
 3334              	.LVL329:
 3335              	.L324:
 3336              		.loc 1 898 11 view .LVU962
 3337              	.LBE146:
 3338              		.loc 1 904 1 view .LVU963
 3339 0072 FFF7FEFF 		bl	__stack_chk_fail
 3340              	.LVL330:
 3341              	.L326:
 3342              		.loc 1 904 1 view .LVU964
 3343 0076 00BF     		.align	2
 3344              	.L325:
 3345 0078 00000000 		.word	.LC15
 3346              		.cfi_endproc
 3347              	.LFE17:
 3348              		.size	AsebaVMShouldDropPacket, .-AsebaVMShouldDropPacket
 3349              		.weak	AsebaVMRunCB
 3350              		.weak	AsebaVMResetCB
 3351              		.weak	AsebaVMErrorCB
 3352              		.text
 3353              	.Letext0:
 3354              		.file 2 ".//aseba/vm/../common/consts.h"
 3355              		.file 3 "/usr/lib/gcc/arm-none-eabi/9.2.1/include/stddef.h"
 3356              		.file 4 "/usr/include/newlib/sys/_types.h"
 3357              		.file 5 "/usr/include/newlib/sys/reent.h"
 3358              		.file 6 "/usr/include/newlib/sys/lock.h"
 3359              		.file 7 "/usr/include/newlib/stdlib.h"
 3360              		.file 8 ".//aseba/vm/../common/types.h"
 3361              		.file 9 ".//aseba/vm/vm.h"
 3362              		.file 10 "/usr/include/newlib/string.h"
 3363              		.file 11 "<built-in>"
ARM GAS  /tmp/cclXoGh5.s 			page 60

